ARM GAS  /tmp/ccyo2WKu.s 			page 1


   1              		.cpu cortex-m3
   2              		.arch armv7-m
   3              		.fpu softvfp
   4              		.eabi_attribute 20, 1	@ Tag_ABI_FP_denormal
   5              		.eabi_attribute 21, 1	@ Tag_ABI_FP_exceptions
   6              		.eabi_attribute 23, 3	@ Tag_ABI_FP_number_model
   7              		.eabi_attribute 24, 1	@ Tag_ABI_align8_needed
   8              		.eabi_attribute 25, 1	@ Tag_ABI_align8_preserved
   9              		.eabi_attribute 26, 1	@ Tag_ABI_enum_size
  10              		.eabi_attribute 30, 4	@ Tag_ABI_optimization_goals
  11              		.eabi_attribute 34, 1	@ Tag_CPU_unaligned_access
  12              		.eabi_attribute 18, 4	@ Tag_ABI_PCS_wchar_t
  13              		.file	"heap_2.c"
  14              	@ GNU C17 (Arch Repository) version 13.2.0 (arm-none-eabi)
  15              	@	compiled by GNU C version 13.2.1 20230730, GMP version 6.2.1, MPFR version 4.2.0-p12, MPC version
  16              	
  17              	@ warning: GMP header version 6.2.1 differs from library version 6.3.0.
  18              	@ GGC heuristics: --param ggc-min-expand=100 --param ggc-min-heapsize=131072
  19              	@ options passed: -mcpu=cortex-m3 -mthumb -mfloat-abi=soft -march=armv7-m -g -gdwarf-2 -Os -fomit-f
  20              		.text
  21              	.Ltext0:
  22              		.cfi_sections	.debug_frame
  23              		.file 1 "../freertos/portable/MemMang/heap_2.c"
  24              		.align	1
  25              		.global	pvPortMalloc
  26              		.syntax unified
  27              		.thumb
  28              		.thumb_func
  29              		.type	pvPortMalloc, %function
  30              	pvPortMalloc:
  31              	.LVL0:
  32              	.LFB5:
   1:../freertos/portable/MemMang/heap_2.c **** /*
   2:../freertos/portable/MemMang/heap_2.c ****  * FreeRTOS Kernel V10.2.1
   3:../freertos/portable/MemMang/heap_2.c ****  * Copyright (C) 2019 Amazon.com, Inc. or its affiliates.  All Rights Reserved.
   4:../freertos/portable/MemMang/heap_2.c ****  *
   5:../freertos/portable/MemMang/heap_2.c ****  * Permission is hereby granted, free of charge, to any person obtaining a copy of
   6:../freertos/portable/MemMang/heap_2.c ****  * this software and associated documentation files (the "Software"), to deal in
   7:../freertos/portable/MemMang/heap_2.c ****  * the Software without restriction, including without limitation the rights to
   8:../freertos/portable/MemMang/heap_2.c ****  * use, copy, modify, merge, publish, distribute, sublicense, and/or sell copies of
   9:../freertos/portable/MemMang/heap_2.c ****  * the Software, and to permit persons to whom the Software is furnished to do so,
  10:../freertos/portable/MemMang/heap_2.c ****  * subject to the following conditions:
  11:../freertos/portable/MemMang/heap_2.c ****  *
  12:../freertos/portable/MemMang/heap_2.c ****  * The above copyright notice and this permission notice shall be included in all
  13:../freertos/portable/MemMang/heap_2.c ****  * copies or substantial portions of the Software.
  14:../freertos/portable/MemMang/heap_2.c ****  *
  15:../freertos/portable/MemMang/heap_2.c ****  * THE SOFTWARE IS PROVIDED "AS IS", WITHOUT WARRANTY OF ANY KIND, EXPRESS OR
  16:../freertos/portable/MemMang/heap_2.c ****  * IMPLIED, INCLUDING BUT NOT LIMITED TO THE WARRANTIES OF MERCHANTABILITY, FITNESS
  17:../freertos/portable/MemMang/heap_2.c ****  * FOR A PARTICULAR PURPOSE AND NONINFRINGEMENT. IN NO EVENT SHALL THE AUTHORS OR
  18:../freertos/portable/MemMang/heap_2.c ****  * COPYRIGHT HOLDERS BE LIABLE FOR ANY CLAIM, DAMAGES OR OTHER LIABILITY, WHETHER
  19:../freertos/portable/MemMang/heap_2.c ****  * IN AN ACTION OF CONTRACT, TORT OR OTHERWISE, ARISING FROM, OUT OF OR IN
  20:../freertos/portable/MemMang/heap_2.c ****  * CONNECTION WITH THE SOFTWARE OR THE USE OR OTHER DEALINGS IN THE SOFTWARE.
  21:../freertos/portable/MemMang/heap_2.c ****  *
  22:../freertos/portable/MemMang/heap_2.c ****  * http://www.FreeRTOS.org
  23:../freertos/portable/MemMang/heap_2.c ****  * http://aws.amazon.com/freertos
  24:../freertos/portable/MemMang/heap_2.c ****  *
  25:../freertos/portable/MemMang/heap_2.c ****  * 1 tab == 4 spaces!
ARM GAS  /tmp/ccyo2WKu.s 			page 2


  26:../freertos/portable/MemMang/heap_2.c ****  */
  27:../freertos/portable/MemMang/heap_2.c **** 
  28:../freertos/portable/MemMang/heap_2.c **** /*
  29:../freertos/portable/MemMang/heap_2.c ****  * A sample implementation of pvPortMalloc() and vPortFree() that permits
  30:../freertos/portable/MemMang/heap_2.c ****  * allocated blocks to be freed, but does not combine adjacent free blocks
  31:../freertos/portable/MemMang/heap_2.c ****  * into a single larger block (and so will fragment memory).  See heap_4.c for
  32:../freertos/portable/MemMang/heap_2.c ****  * an equivalent that does combine adjacent blocks into single larger blocks.
  33:../freertos/portable/MemMang/heap_2.c ****  *
  34:../freertos/portable/MemMang/heap_2.c ****  * See heap_1.c, heap_3.c and heap_4.c for alternative implementations, and the
  35:../freertos/portable/MemMang/heap_2.c ****  * memory management pages of http://www.FreeRTOS.org for more information.
  36:../freertos/portable/MemMang/heap_2.c ****  */
  37:../freertos/portable/MemMang/heap_2.c **** #include <stdlib.h>
  38:../freertos/portable/MemMang/heap_2.c **** 
  39:../freertos/portable/MemMang/heap_2.c **** /* Defining MPU_WRAPPERS_INCLUDED_FROM_API_FILE prevents task.h from redefining
  40:../freertos/portable/MemMang/heap_2.c **** all the API functions to use the MPU wrappers.  That should only be done when
  41:../freertos/portable/MemMang/heap_2.c **** task.h is included from an application file. */
  42:../freertos/portable/MemMang/heap_2.c **** #define MPU_WRAPPERS_INCLUDED_FROM_API_FILE
  43:../freertos/portable/MemMang/heap_2.c **** 
  44:../freertos/portable/MemMang/heap_2.c **** #include "FreeRTOS.h"
  45:../freertos/portable/MemMang/heap_2.c **** #include "task.h"
  46:../freertos/portable/MemMang/heap_2.c **** 
  47:../freertos/portable/MemMang/heap_2.c **** #undef MPU_WRAPPERS_INCLUDED_FROM_API_FILE
  48:../freertos/portable/MemMang/heap_2.c **** 
  49:../freertos/portable/MemMang/heap_2.c **** #if( configSUPPORT_DYNAMIC_ALLOCATION == 0 )
  50:../freertos/portable/MemMang/heap_2.c **** 	#error This file must not be used if configSUPPORT_DYNAMIC_ALLOCATION is 0
  51:../freertos/portable/MemMang/heap_2.c **** #endif
  52:../freertos/portable/MemMang/heap_2.c **** 
  53:../freertos/portable/MemMang/heap_2.c **** /* A few bytes might be lost to byte aligning the heap start address. */
  54:../freertos/portable/MemMang/heap_2.c **** #define configADJUSTED_HEAP_SIZE	( configTOTAL_HEAP_SIZE - portBYTE_ALIGNMENT )
  55:../freertos/portable/MemMang/heap_2.c **** 
  56:../freertos/portable/MemMang/heap_2.c **** /*
  57:../freertos/portable/MemMang/heap_2.c ****  * Initialises the heap structures before their first use.
  58:../freertos/portable/MemMang/heap_2.c ****  */
  59:../freertos/portable/MemMang/heap_2.c **** static void prvHeapInit( void );
  60:../freertos/portable/MemMang/heap_2.c **** 
  61:../freertos/portable/MemMang/heap_2.c **** /* Allocate the memory for the heap. */
  62:../freertos/portable/MemMang/heap_2.c **** #if( configAPPLICATION_ALLOCATED_HEAP == 1 )
  63:../freertos/portable/MemMang/heap_2.c **** 	/* The application writer has already defined the array used for the RTOS
  64:../freertos/portable/MemMang/heap_2.c **** 	heap - probably so it can be placed in a special segment or address. */
  65:../freertos/portable/MemMang/heap_2.c **** 	extern uint8_t ucHeap[ configTOTAL_HEAP_SIZE ];
  66:../freertos/portable/MemMang/heap_2.c **** #else
  67:../freertos/portable/MemMang/heap_2.c **** 	static uint8_t ucHeap[ configTOTAL_HEAP_SIZE ];
  68:../freertos/portable/MemMang/heap_2.c **** #endif /* configAPPLICATION_ALLOCATED_HEAP */
  69:../freertos/portable/MemMang/heap_2.c **** 
  70:../freertos/portable/MemMang/heap_2.c **** 
  71:../freertos/portable/MemMang/heap_2.c **** /* Define the linked list structure.  This is used to link free blocks in order
  72:../freertos/portable/MemMang/heap_2.c **** of their size. */
  73:../freertos/portable/MemMang/heap_2.c **** typedef struct A_BLOCK_LINK
  74:../freertos/portable/MemMang/heap_2.c **** {
  75:../freertos/portable/MemMang/heap_2.c **** 	struct A_BLOCK_LINK *pxNextFreeBlock;	/*<< The next free block in the list. */
  76:../freertos/portable/MemMang/heap_2.c **** 	size_t xBlockSize;						/*<< The size of the free block. */
  77:../freertos/portable/MemMang/heap_2.c **** } BlockLink_t;
  78:../freertos/portable/MemMang/heap_2.c **** 
  79:../freertos/portable/MemMang/heap_2.c **** 
  80:../freertos/portable/MemMang/heap_2.c **** static const uint16_t heapSTRUCT_SIZE	= ( ( sizeof ( BlockLink_t ) + ( portBYTE_ALIGNMENT - 1 ) ) &
  81:../freertos/portable/MemMang/heap_2.c **** #define heapMINIMUM_BLOCK_SIZE	( ( size_t ) ( heapSTRUCT_SIZE * 2 ) )
  82:../freertos/portable/MemMang/heap_2.c **** 
ARM GAS  /tmp/ccyo2WKu.s 			page 3


  83:../freertos/portable/MemMang/heap_2.c **** /* Create a couple of list links to mark the start and end of the list. */
  84:../freertos/portable/MemMang/heap_2.c **** static BlockLink_t xStart, xEnd;
  85:../freertos/portable/MemMang/heap_2.c **** 
  86:../freertos/portable/MemMang/heap_2.c **** /* Keeps track of the number of free bytes remaining, but says nothing about
  87:../freertos/portable/MemMang/heap_2.c **** fragmentation. */
  88:../freertos/portable/MemMang/heap_2.c **** static size_t xFreeBytesRemaining = configADJUSTED_HEAP_SIZE;
  89:../freertos/portable/MemMang/heap_2.c **** 
  90:../freertos/portable/MemMang/heap_2.c **** /* STATIC FUNCTIONS ARE DEFINED AS MACROS TO MINIMIZE THE FUNCTION CALL DEPTH. */
  91:../freertos/portable/MemMang/heap_2.c **** 
  92:../freertos/portable/MemMang/heap_2.c **** /*
  93:../freertos/portable/MemMang/heap_2.c ****  * Insert a block into the list of free blocks - which is ordered by size of
  94:../freertos/portable/MemMang/heap_2.c ****  * the block.  Small blocks at the start of the list and large blocks at the end
  95:../freertos/portable/MemMang/heap_2.c ****  * of the list.
  96:../freertos/portable/MemMang/heap_2.c ****  */
  97:../freertos/portable/MemMang/heap_2.c **** #define prvInsertBlockIntoFreeList( pxBlockToInsert )								\
  98:../freertos/portable/MemMang/heap_2.c **** {																					\
  99:../freertos/portable/MemMang/heap_2.c **** BlockLink_t *pxIterator;															\
 100:../freertos/portable/MemMang/heap_2.c **** size_t xBlockSize;																	\
 101:../freertos/portable/MemMang/heap_2.c **** 																					\
 102:../freertos/portable/MemMang/heap_2.c **** 	xBlockSize = pxBlockToInsert->xBlockSize;										\
 103:../freertos/portable/MemMang/heap_2.c **** 																					\
 104:../freertos/portable/MemMang/heap_2.c **** 	/* Iterate through the list until a block is found that has a larger size */	\
 105:../freertos/portable/MemMang/heap_2.c **** 	/* than the block we are inserting. */											\
 106:../freertos/portable/MemMang/heap_2.c **** 	for( pxIterator = &xStart; pxIterator->pxNextFreeBlock->xBlockSize < xBlockSize; pxIterator = pxIt
 107:../freertos/portable/MemMang/heap_2.c **** 	{																				\
 108:../freertos/portable/MemMang/heap_2.c **** 		/* There is nothing to do here - just iterate to the correct position. */	\
 109:../freertos/portable/MemMang/heap_2.c **** 	}																				\
 110:../freertos/portable/MemMang/heap_2.c **** 																					\
 111:../freertos/portable/MemMang/heap_2.c **** 	/* Update the list to include the block being inserted in the correct */		\
 112:../freertos/portable/MemMang/heap_2.c **** 	/* position. */																	\
 113:../freertos/portable/MemMang/heap_2.c **** 	pxBlockToInsert->pxNextFreeBlock = pxIterator->pxNextFreeBlock;					\
 114:../freertos/portable/MemMang/heap_2.c **** 	pxIterator->pxNextFreeBlock = pxBlockToInsert;									\
 115:../freertos/portable/MemMang/heap_2.c **** }
 116:../freertos/portable/MemMang/heap_2.c **** /*-----------------------------------------------------------*/
 117:../freertos/portable/MemMang/heap_2.c **** 
 118:../freertos/portable/MemMang/heap_2.c **** void *pvPortMalloc( size_t xWantedSize )
 119:../freertos/portable/MemMang/heap_2.c **** {
  33              		.loc 1 119 1 view -0
  34              		.cfi_startproc
  35              		@ args = 0, pretend = 0, frame = 0
  36              		@ frame_needed = 0, uses_anonymous_args = 0
 120:../freertos/portable/MemMang/heap_2.c **** BlockLink_t *pxBlock, *pxPreviousBlock, *pxNewBlockLink;
  37              		.loc 1 120 1 view .LVU1
 121:../freertos/portable/MemMang/heap_2.c **** static BaseType_t xHeapHasBeenInitialised = pdFALSE;
  38              		.loc 1 121 1 view .LVU2
 122:../freertos/portable/MemMang/heap_2.c **** void *pvReturn = NULL;
  39              		.loc 1 122 1 view .LVU3
 123:../freertos/portable/MemMang/heap_2.c **** 
 124:../freertos/portable/MemMang/heap_2.c **** 	vTaskSuspendAll();
  40              		.loc 1 124 2 view .LVU4
  41              	@ ../freertos/portable/MemMang/heap_2.c:119: {
 119:../freertos/portable/MemMang/heap_2.c **** BlockLink_t *pxBlock, *pxPreviousBlock, *pxNewBlockLink;
  42              		.loc 1 119 1 is_stmt 0 view .LVU5
  43 0000 70B5     		push	{r4, r5, r6, lr}	@
  44              	.LCFI0:
  45              		.cfi_def_cfa_offset 16
  46              		.cfi_offset 4, -16
ARM GAS  /tmp/ccyo2WKu.s 			page 4


  47              		.cfi_offset 5, -12
  48              		.cfi_offset 6, -8
  49              		.cfi_offset 14, -4
  50              	@ ../freertos/portable/MemMang/heap_2.c:119: {
 119:../freertos/portable/MemMang/heap_2.c **** BlockLink_t *pxBlock, *pxPreviousBlock, *pxNewBlockLink;
  51              		.loc 1 119 1 view .LVU6
  52 0002 0446     		mov	r4, r0	@ xWantedSize, tmp170
  53              	@ ../freertos/portable/MemMang/heap_2.c:124: 	vTaskSuspendAll();
  54              		.loc 1 124 2 view .LVU7
  55 0004 FFF7FEFF 		bl	vTaskSuspendAll		@
  56              	.LVL1:
 125:../freertos/portable/MemMang/heap_2.c **** 	{
 126:../freertos/portable/MemMang/heap_2.c **** 		/* If this is the first call to malloc then the heap will require
 127:../freertos/portable/MemMang/heap_2.c **** 		initialisation to setup the list of free blocks. */
 128:../freertos/portable/MemMang/heap_2.c **** 		if( xHeapHasBeenInitialised == pdFALSE )
  57              		.loc 1 128 3 is_stmt 1 view .LVU8
  58              	@ ../freertos/portable/MemMang/heap_2.c:128: 		if( xHeapHasBeenInitialised == pdFALSE )
  59              		.loc 1 128 31 is_stmt 0 view .LVU9
  60 0008 244B     		ldr	r3, .L19	@ tmp140,
  61              	@ ../freertos/portable/MemMang/heap_2.c:128: 		if( xHeapHasBeenInitialised == pdFALSE )
  62              		.loc 1 128 5 view .LVU10
  63 000a 9868     		ldr	r0, [r3, #8]	@ xHeapHasBeenInitialised, xHeapHasBeenInitialised
  64 000c 70B9     		cbnz	r0, .L2	@ xHeapHasBeenInitialised,
 129:../freertos/portable/MemMang/heap_2.c **** 		{
 130:../freertos/portable/MemMang/heap_2.c **** 			prvHeapInit();
  65              		.loc 1 130 4 is_stmt 1 view .LVU11
  66              	.LBB5:
  67              	.LBI5:
 131:../freertos/portable/MemMang/heap_2.c **** 			xHeapHasBeenInitialised = pdTRUE;
 132:../freertos/portable/MemMang/heap_2.c **** 		}
 133:../freertos/portable/MemMang/heap_2.c **** 
 134:../freertos/portable/MemMang/heap_2.c **** 		/* The wanted size is increased so it can contain a BlockLink_t
 135:../freertos/portable/MemMang/heap_2.c **** 		structure in addition to the requested amount of bytes. */
 136:../freertos/portable/MemMang/heap_2.c **** 		if( xWantedSize > 0 )
 137:../freertos/portable/MemMang/heap_2.c **** 		{
 138:../freertos/portable/MemMang/heap_2.c **** 			xWantedSize += heapSTRUCT_SIZE;
 139:../freertos/portable/MemMang/heap_2.c **** 
 140:../freertos/portable/MemMang/heap_2.c **** 			/* Ensure that blocks are always aligned to the required number of bytes. */
 141:../freertos/portable/MemMang/heap_2.c **** 			if( ( xWantedSize & portBYTE_ALIGNMENT_MASK ) != 0 )
 142:../freertos/portable/MemMang/heap_2.c **** 			{
 143:../freertos/portable/MemMang/heap_2.c **** 				/* Byte alignment required. */
 144:../freertos/portable/MemMang/heap_2.c **** 				xWantedSize += ( portBYTE_ALIGNMENT - ( xWantedSize & portBYTE_ALIGNMENT_MASK ) );
 145:../freertos/portable/MemMang/heap_2.c **** 			}
 146:../freertos/portable/MemMang/heap_2.c **** 		}
 147:../freertos/portable/MemMang/heap_2.c **** 
 148:../freertos/portable/MemMang/heap_2.c **** 		if( ( xWantedSize > 0 ) && ( xWantedSize < configADJUSTED_HEAP_SIZE ) )
 149:../freertos/portable/MemMang/heap_2.c **** 		{
 150:../freertos/portable/MemMang/heap_2.c **** 			/* Blocks are stored in byte order - traverse the list from the start
 151:../freertos/portable/MemMang/heap_2.c **** 			(smallest) block until one of adequate size is found. */
 152:../freertos/portable/MemMang/heap_2.c **** 			pxPreviousBlock = &xStart;
 153:../freertos/portable/MemMang/heap_2.c **** 			pxBlock = xStart.pxNextFreeBlock;
 154:../freertos/portable/MemMang/heap_2.c **** 			while( ( pxBlock->xBlockSize < xWantedSize ) && ( pxBlock->pxNextFreeBlock != NULL ) )
 155:../freertos/portable/MemMang/heap_2.c **** 			{
 156:../freertos/portable/MemMang/heap_2.c **** 				pxPreviousBlock = pxBlock;
 157:../freertos/portable/MemMang/heap_2.c **** 				pxBlock = pxBlock->pxNextFreeBlock;
 158:../freertos/portable/MemMang/heap_2.c **** 			}
 159:../freertos/portable/MemMang/heap_2.c **** 
ARM GAS  /tmp/ccyo2WKu.s 			page 5


 160:../freertos/portable/MemMang/heap_2.c **** 			/* If we found the end marker then a block of adequate size was not found. */
 161:../freertos/portable/MemMang/heap_2.c **** 			if( pxBlock != &xEnd )
 162:../freertos/portable/MemMang/heap_2.c **** 			{
 163:../freertos/portable/MemMang/heap_2.c **** 				/* Return the memory space - jumping over the BlockLink_t structure
 164:../freertos/portable/MemMang/heap_2.c **** 				at its start. */
 165:../freertos/portable/MemMang/heap_2.c **** 				pvReturn = ( void * ) ( ( ( uint8_t * ) pxPreviousBlock->pxNextFreeBlock ) + heapSTRUCT_SIZE );
 166:../freertos/portable/MemMang/heap_2.c **** 
 167:../freertos/portable/MemMang/heap_2.c **** 				/* This block is being returned for use so must be taken out of the
 168:../freertos/portable/MemMang/heap_2.c **** 				list of free blocks. */
 169:../freertos/portable/MemMang/heap_2.c **** 				pxPreviousBlock->pxNextFreeBlock = pxBlock->pxNextFreeBlock;
 170:../freertos/portable/MemMang/heap_2.c **** 
 171:../freertos/portable/MemMang/heap_2.c **** 				/* If the block is larger than required it can be split into two. */
 172:../freertos/portable/MemMang/heap_2.c **** 				if( ( pxBlock->xBlockSize - xWantedSize ) > heapMINIMUM_BLOCK_SIZE )
 173:../freertos/portable/MemMang/heap_2.c **** 				{
 174:../freertos/portable/MemMang/heap_2.c **** 					/* This block is to be split into two.  Create a new block
 175:../freertos/portable/MemMang/heap_2.c **** 					following the number of bytes requested. The void cast is
 176:../freertos/portable/MemMang/heap_2.c **** 					used to prevent byte alignment warnings from the compiler. */
 177:../freertos/portable/MemMang/heap_2.c **** 					pxNewBlockLink = ( void * ) ( ( ( uint8_t * ) pxBlock ) + xWantedSize );
 178:../freertos/portable/MemMang/heap_2.c **** 
 179:../freertos/portable/MemMang/heap_2.c **** 					/* Calculate the sizes of two blocks split from the single
 180:../freertos/portable/MemMang/heap_2.c **** 					block. */
 181:../freertos/portable/MemMang/heap_2.c **** 					pxNewBlockLink->xBlockSize = pxBlock->xBlockSize - xWantedSize;
 182:../freertos/portable/MemMang/heap_2.c **** 					pxBlock->xBlockSize = xWantedSize;
 183:../freertos/portable/MemMang/heap_2.c **** 
 184:../freertos/portable/MemMang/heap_2.c **** 					/* Insert the new block into the list of free blocks. */
 185:../freertos/portable/MemMang/heap_2.c **** 					prvInsertBlockIntoFreeList( ( pxNewBlockLink ) );
 186:../freertos/portable/MemMang/heap_2.c **** 				}
 187:../freertos/portable/MemMang/heap_2.c **** 
 188:../freertos/portable/MemMang/heap_2.c **** 				xFreeBytesRemaining -= pxBlock->xBlockSize;
 189:../freertos/portable/MemMang/heap_2.c **** 			}
 190:../freertos/portable/MemMang/heap_2.c **** 		}
 191:../freertos/portable/MemMang/heap_2.c **** 
 192:../freertos/portable/MemMang/heap_2.c **** 		traceMALLOC( pvReturn, xWantedSize );
 193:../freertos/portable/MemMang/heap_2.c **** 	}
 194:../freertos/portable/MemMang/heap_2.c **** 	( void ) xTaskResumeAll();
 195:../freertos/portable/MemMang/heap_2.c **** 
 196:../freertos/portable/MemMang/heap_2.c **** 	#if( configUSE_MALLOC_FAILED_HOOK == 1 )
 197:../freertos/portable/MemMang/heap_2.c **** 	{
 198:../freertos/portable/MemMang/heap_2.c **** 		if( pvReturn == NULL )
 199:../freertos/portable/MemMang/heap_2.c **** 		{
 200:../freertos/portable/MemMang/heap_2.c **** 			extern void vApplicationMallocFailedHook( void );
 201:../freertos/portable/MemMang/heap_2.c **** 			vApplicationMallocFailedHook();
 202:../freertos/portable/MemMang/heap_2.c **** 		}
 203:../freertos/portable/MemMang/heap_2.c **** 	}
 204:../freertos/portable/MemMang/heap_2.c **** 	#endif
 205:../freertos/portable/MemMang/heap_2.c **** 
 206:../freertos/portable/MemMang/heap_2.c **** 	return pvReturn;
 207:../freertos/portable/MemMang/heap_2.c **** }
 208:../freertos/portable/MemMang/heap_2.c **** /*-----------------------------------------------------------*/
 209:../freertos/portable/MemMang/heap_2.c **** 
 210:../freertos/portable/MemMang/heap_2.c **** void vPortFree( void *pv )
 211:../freertos/portable/MemMang/heap_2.c **** {
 212:../freertos/portable/MemMang/heap_2.c **** uint8_t *puc = ( uint8_t * ) pv;
 213:../freertos/portable/MemMang/heap_2.c **** BlockLink_t *pxLink;
 214:../freertos/portable/MemMang/heap_2.c **** 
 215:../freertos/portable/MemMang/heap_2.c **** 	if( pv != NULL )
 216:../freertos/portable/MemMang/heap_2.c **** 	{
ARM GAS  /tmp/ccyo2WKu.s 			page 6


 217:../freertos/portable/MemMang/heap_2.c **** 		/* The memory being freed will have an BlockLink_t structure immediately
 218:../freertos/portable/MemMang/heap_2.c **** 		before it. */
 219:../freertos/portable/MemMang/heap_2.c **** 		puc -= heapSTRUCT_SIZE;
 220:../freertos/portable/MemMang/heap_2.c **** 
 221:../freertos/portable/MemMang/heap_2.c **** 		/* This unexpected casting is to keep some compilers from issuing
 222:../freertos/portable/MemMang/heap_2.c **** 		byte alignment warnings. */
 223:../freertos/portable/MemMang/heap_2.c **** 		pxLink = ( void * ) puc;
 224:../freertos/portable/MemMang/heap_2.c **** 
 225:../freertos/portable/MemMang/heap_2.c **** 		vTaskSuspendAll();
 226:../freertos/portable/MemMang/heap_2.c **** 		{
 227:../freertos/portable/MemMang/heap_2.c **** 			/* Add this block to the list of free blocks. */
 228:../freertos/portable/MemMang/heap_2.c **** 			prvInsertBlockIntoFreeList( ( ( BlockLink_t * ) pxLink ) );
 229:../freertos/portable/MemMang/heap_2.c **** 			xFreeBytesRemaining += pxLink->xBlockSize;
 230:../freertos/portable/MemMang/heap_2.c **** 			traceFREE( pv, pxLink->xBlockSize );
 231:../freertos/portable/MemMang/heap_2.c **** 		}
 232:../freertos/portable/MemMang/heap_2.c **** 		( void ) xTaskResumeAll();
 233:../freertos/portable/MemMang/heap_2.c **** 	}
 234:../freertos/portable/MemMang/heap_2.c **** }
 235:../freertos/portable/MemMang/heap_2.c **** /*-----------------------------------------------------------*/
 236:../freertos/portable/MemMang/heap_2.c **** 
 237:../freertos/portable/MemMang/heap_2.c **** size_t xPortGetFreeHeapSize( void )
 238:../freertos/portable/MemMang/heap_2.c **** {
 239:../freertos/portable/MemMang/heap_2.c **** 	return xFreeBytesRemaining;
 240:../freertos/portable/MemMang/heap_2.c **** }
 241:../freertos/portable/MemMang/heap_2.c **** /*-----------------------------------------------------------*/
 242:../freertos/portable/MemMang/heap_2.c **** 
 243:../freertos/portable/MemMang/heap_2.c **** void vPortInitialiseBlocks( void )
 244:../freertos/portable/MemMang/heap_2.c **** {
 245:../freertos/portable/MemMang/heap_2.c **** 	/* This just exists to keep the linker quiet. */
 246:../freertos/portable/MemMang/heap_2.c **** }
 247:../freertos/portable/MemMang/heap_2.c **** /*-----------------------------------------------------------*/
 248:../freertos/portable/MemMang/heap_2.c **** 
 249:../freertos/portable/MemMang/heap_2.c **** static void prvHeapInit( void )
  68              		.loc 1 249 13 view .LVU12
  69              	.LBB6:
 250:../freertos/portable/MemMang/heap_2.c **** {
 251:../freertos/portable/MemMang/heap_2.c **** BlockLink_t *pxFirstFreeBlock;
  70              		.loc 1 251 1 view .LVU13
 252:../freertos/portable/MemMang/heap_2.c **** uint8_t *pucAlignedHeap;
  71              		.loc 1 252 1 view .LVU14
 253:../freertos/portable/MemMang/heap_2.c **** 
 254:../freertos/portable/MemMang/heap_2.c **** 	/* Ensure the heap starts on a correctly aligned boundary. */
 255:../freertos/portable/MemMang/heap_2.c **** 	pucAlignedHeap = ( uint8_t * ) ( ( ( portPOINTER_SIZE_TYPE ) &ucHeap[ portBYTE_ALIGNMENT ] ) & ( ~
  72              		.loc 1 255 2 view .LVU15
  73              	@ ../freertos/portable/MemMang/heap_2.c:264: 	xEnd.pxNextFreeBlock = NULL;
 256:../freertos/portable/MemMang/heap_2.c **** 
 257:../freertos/portable/MemMang/heap_2.c **** 	/* xStart is used to hold a pointer to the first item in the list of free
 258:../freertos/portable/MemMang/heap_2.c **** 	blocks.  The void cast is used to prevent compiler warnings. */
 259:../freertos/portable/MemMang/heap_2.c **** 	xStart.pxNextFreeBlock = ( void * ) pucAlignedHeap;
 260:../freertos/portable/MemMang/heap_2.c **** 	xStart.xBlockSize = ( size_t ) 0;
 261:../freertos/portable/MemMang/heap_2.c **** 
 262:../freertos/portable/MemMang/heap_2.c **** 	/* xEnd is used to mark the end of the list of free blocks. */
 263:../freertos/portable/MemMang/heap_2.c **** 	xEnd.xBlockSize = configADJUSTED_HEAP_SIZE;
 264:../freertos/portable/MemMang/heap_2.c **** 	xEnd.pxNextFreeBlock = NULL;
  74              		.loc 1 264 23 is_stmt 0 view .LVU16
  75 000e 1946     		mov	r1, r3	@ tmp152, tmp140
  76              	@ ../freertos/portable/MemMang/heap_2.c:263: 	xEnd.xBlockSize = configADJUSTED_HEAP_SIZE;
ARM GAS  /tmp/ccyo2WKu.s 			page 7


 263:../freertos/portable/MemMang/heap_2.c **** 	xEnd.pxNextFreeBlock = NULL;
  77              		.loc 1 263 18 view .LVU17
  78 0010 44F2F875 		movw	r5, #18424	@ tmp147,
  79              	@ ../freertos/portable/MemMang/heap_2.c:255: 	pucAlignedHeap = ( uint8_t * ) ( ( ( portPOINTER_SIZE
 255:../freertos/portable/MemMang/heap_2.c **** 
  80              		.loc 1 255 95 view .LVU18
  81 0014 224A     		ldr	r2, .L19+4	@ tmp142,
  82              	@ ../freertos/portable/MemMang/heap_2.c:264: 	xEnd.pxNextFreeBlock = NULL;
  83              		.loc 1 264 23 view .LVU19
  84 0016 41F80C0F 		str	r0, [r1, #12]!	@ xHeapHasBeenInitialised, xEnd.pxNextFreeBlock
  85              	@ ../freertos/portable/MemMang/heap_2.c:255: 	pucAlignedHeap = ( uint8_t * ) ( ( ( portPOINTER_SIZE
 255:../freertos/portable/MemMang/heap_2.c **** 
  86              		.loc 1 255 95 view .LVU20
  87 001a 22F00702 		bic	r2, r2, #7	@ pucAlignedHeap, tmp142,
  88              	.LVL2:
 259:../freertos/portable/MemMang/heap_2.c **** 	xStart.xBlockSize = ( size_t ) 0;
  89              		.loc 1 259 2 is_stmt 1 view .LVU21
  90              	@ ../freertos/portable/MemMang/heap_2.c:260: 	xStart.xBlockSize = ( size_t ) 0;
 260:../freertos/portable/MemMang/heap_2.c **** 
  91              		.loc 1 260 20 is_stmt 0 view .LVU22
  92 001e C3E90020 		strd	r2, r0, [r3]	@ pucAlignedHeap, xHeapHasBeenInitialised, tmp140
 263:../freertos/portable/MemMang/heap_2.c **** 	xEnd.pxNextFreeBlock = NULL;
  93              		.loc 1 263 2 is_stmt 1 view .LVU23
  94              	@ ../freertos/portable/MemMang/heap_2.c:270: 	pxFirstFreeBlock->pxNextFreeBlock = &xEnd;
 265:../freertos/portable/MemMang/heap_2.c **** 
 266:../freertos/portable/MemMang/heap_2.c **** 	/* To start with there is a single free block that is sized to take up the
 267:../freertos/portable/MemMang/heap_2.c **** 	entire heap space. */
 268:../freertos/portable/MemMang/heap_2.c **** 	pxFirstFreeBlock = ( void * ) pucAlignedHeap;
 269:../freertos/portable/MemMang/heap_2.c **** 	pxFirstFreeBlock->xBlockSize = configADJUSTED_HEAP_SIZE;
 270:../freertos/portable/MemMang/heap_2.c **** 	pxFirstFreeBlock->pxNextFreeBlock = &xEnd;
  95              		.loc 1 270 36 is_stmt 0 view .LVU24
  96 0022 C2E90015 		strd	r1, r5, [r2]	@ tmp152, tmp147, pucAlignedHeap
  97              	.LBE6:
  98              	.LBE5:
  99              	@ ../freertos/portable/MemMang/heap_2.c:131: 			xHeapHasBeenInitialised = pdTRUE;
 131:../freertos/portable/MemMang/heap_2.c **** 		}
 100              		.loc 1 131 28 view .LVU25
 101 0026 0122     		movs	r2, #1	@ tmp154,
 102              	.LVL3:
 103              	.LBB8:
 104              	.LBB7:
 105              	@ ../freertos/portable/MemMang/heap_2.c:263: 	xEnd.xBlockSize = configADJUSTED_HEAP_SIZE;
 263:../freertos/portable/MemMang/heap_2.c **** 	xEnd.pxNextFreeBlock = NULL;
 106              		.loc 1 263 18 view .LVU26
 107 0028 1D61     		str	r5, [r3, #16]	@ tmp147, xEnd.xBlockSize
 264:../freertos/portable/MemMang/heap_2.c **** 
 108              		.loc 1 264 2 is_stmt 1 view .LVU27
 268:../freertos/portable/MemMang/heap_2.c **** 	pxFirstFreeBlock->xBlockSize = configADJUSTED_HEAP_SIZE;
 109              		.loc 1 268 2 view .LVU28
 269:../freertos/portable/MemMang/heap_2.c **** 	pxFirstFreeBlock->pxNextFreeBlock = &xEnd;
 110              		.loc 1 269 2 view .LVU29
 111              	.LVL4:
 269:../freertos/portable/MemMang/heap_2.c **** 	pxFirstFreeBlock->pxNextFreeBlock = &xEnd;
 112              		.loc 1 269 2 is_stmt 0 view .LVU30
 113              	.LBE7:
 114              	.LBE8:
 131:../freertos/portable/MemMang/heap_2.c **** 		}
ARM GAS  /tmp/ccyo2WKu.s 			page 8


 115              		.loc 1 131 4 is_stmt 1 view .LVU31
 116              	@ ../freertos/portable/MemMang/heap_2.c:131: 			xHeapHasBeenInitialised = pdTRUE;
 131:../freertos/portable/MemMang/heap_2.c **** 		}
 117              		.loc 1 131 28 is_stmt 0 view .LVU32
 118 002a 9A60     		str	r2, [r3, #8]	@ tmp154, xHeapHasBeenInitialised
 119              	.L2:
 136:../freertos/portable/MemMang/heap_2.c **** 		{
 120              		.loc 1 136 3 is_stmt 1 view .LVU33
 121              	@ ../freertos/portable/MemMang/heap_2.c:136: 		if( xWantedSize > 0 )
 136:../freertos/portable/MemMang/heap_2.c **** 		{
 122              		.loc 1 136 5 is_stmt 0 view .LVU34
 123 002c 2CB1     		cbz	r4, .L3	@ xWantedSize,
 138:../freertos/portable/MemMang/heap_2.c **** 
 124              		.loc 1 138 4 is_stmt 1 view .LVU35
 125              	@ ../freertos/portable/MemMang/heap_2.c:138: 			xWantedSize += heapSTRUCT_SIZE;
 138:../freertos/portable/MemMang/heap_2.c **** 
 126              		.loc 1 138 16 is_stmt 0 view .LVU36
 127 002e 0834     		adds	r4, r4, #8	@ xWantedSize, xWantedSize,
 128              	.LVL5:
 141:../freertos/portable/MemMang/heap_2.c **** 			{
 129              		.loc 1 141 4 is_stmt 1 view .LVU37
 130              	@ ../freertos/portable/MemMang/heap_2.c:141: 			if( ( xWantedSize & portBYTE_ALIGNMENT_MASK ) != 0 
 141:../freertos/portable/MemMang/heap_2.c **** 			{
 131              		.loc 1 141 6 is_stmt 0 view .LVU38
 132 0030 6207     		lsls	r2, r4, #29	@, xWantedSize,
 144:../freertos/portable/MemMang/heap_2.c **** 			}
 133              		.loc 1 144 5 is_stmt 1 view .LVU39
 134              	@ ../freertos/portable/MemMang/heap_2.c:144: 				xWantedSize += ( portBYTE_ALIGNMENT - ( xWantedSiz
 144:../freertos/portable/MemMang/heap_2.c **** 			}
 135              		.loc 1 144 17 is_stmt 0 view .LVU40
 136 0032 1CBF     		itt	ne
 137 0034 24F00704 		bicne	r4, r4, #7	@ _3, xWantedSize,
 138              	.LVL6:
 144:../freertos/portable/MemMang/heap_2.c **** 			}
 139              		.loc 1 144 17 view .LVU41
 140 0038 0834     		addne	r4, r4, #8	@ xWantedSize, _3,
 141              	.LVL7:
 142              	.L3:
 148:../freertos/portable/MemMang/heap_2.c **** 		{
 143              		.loc 1 148 3 is_stmt 1 view .LVU42
 144              	@ ../freertos/portable/MemMang/heap_2.c:148: 		if( ( xWantedSize > 0 ) && ( xWantedSize < configADJ
 148:../freertos/portable/MemMang/heap_2.c **** 		{
 145              		.loc 1 148 5 is_stmt 0 view .LVU43
 146 003a 44F2F672 		movw	r2, #18422	@ tmp157,
 147              	@ ../freertos/portable/MemMang/heap_2.c:148: 		if( ( xWantedSize > 0 ) && ( xWantedSize < configADJ
 148:../freertos/portable/MemMang/heap_2.c **** 		{
 148              		.loc 1 148 27 view .LVU44
 149 003e 611E     		subs	r1, r4, #1	@ tmp156, xWantedSize,
 150              	@ ../freertos/portable/MemMang/heap_2.c:148: 		if( ( xWantedSize > 0 ) && ( xWantedSize < configADJ
 148:../freertos/portable/MemMang/heap_2.c **** 		{
 151              		.loc 1 148 5 view .LVU45
 152 0040 9142     		cmp	r1, r2	@ tmp156, tmp157
 153 0042 29D8     		bhi	.L11		@,
 152:../freertos/portable/MemMang/heap_2.c **** 			pxBlock = xStart.pxNextFreeBlock;
 154              		.loc 1 152 4 is_stmt 1 view .LVU46
 155              	.LVL8:
 153:../freertos/portable/MemMang/heap_2.c **** 			while( ( pxBlock->xBlockSize < xWantedSize ) && ( pxBlock->pxNextFreeBlock != NULL ) )
ARM GAS  /tmp/ccyo2WKu.s 			page 9


 156              		.loc 1 153 4 view .LVU47
 157              	@ ../freertos/portable/MemMang/heap_2.c:153: 			pxBlock = xStart.pxNextFreeBlock;
 153:../freertos/portable/MemMang/heap_2.c **** 			while( ( pxBlock->xBlockSize < xWantedSize ) && ( pxBlock->pxNextFreeBlock != NULL ) )
 158              		.loc 1 153 12 is_stmt 0 view .LVU48
 159 0044 1B68     		ldr	r3, [r3]	@ pxBlock, xStart.pxNextFreeBlock
 160              	.LVL9:
 154:../freertos/portable/MemMang/heap_2.c **** 			{
 161              		.loc 1 154 4 is_stmt 1 view .LVU49
 162              	@ ../freertos/portable/MemMang/heap_2.c:152: 			pxPreviousBlock = &xStart;
 152:../freertos/portable/MemMang/heap_2.c **** 			pxBlock = xStart.pxNextFreeBlock;
 163              		.loc 1 152 20 is_stmt 0 view .LVU50
 164 0046 1548     		ldr	r0, .L19	@ pxPreviousBlock,
 165              	.LVL10:
 166              	.L6:
 154:../freertos/portable/MemMang/heap_2.c **** 			{
 167              		.loc 1 154 49 is_stmt 1 view .LVU51
 168              	@ ../freertos/portable/MemMang/heap_2.c:154: 			while( ( pxBlock->xBlockSize < xWantedSize ) && ( p
 154:../freertos/portable/MemMang/heap_2.c **** 			{
 169              		.loc 1 154 20 is_stmt 0 view .LVU52
 170 0048 5968     		ldr	r1, [r3, #4]	@ _5, pxBlock_20->xBlockSize
 171              	@ ../freertos/portable/MemMang/heap_2.c:154: 			while( ( pxBlock->xBlockSize < xWantedSize ) && ( p
 154:../freertos/portable/MemMang/heap_2.c **** 			{
 172              		.loc 1 154 49 view .LVU53
 173 004a A142     		cmp	r1, r4	@ _5, xWantedSize
 174 004c 01D2     		bcs	.L5		@,
 175              	@ ../freertos/portable/MemMang/heap_2.c:154: 			while( ( pxBlock->xBlockSize < xWantedSize ) && ( p
 154:../freertos/portable/MemMang/heap_2.c **** 			{
 176              		.loc 1 154 61 discriminator 1 view .LVU54
 177 004e 1A68     		ldr	r2, [r3]	@ _6, pxBlock_20->pxNextFreeBlock
 178              	@ ../freertos/portable/MemMang/heap_2.c:154: 			while( ( pxBlock->xBlockSize < xWantedSize ) && ( p
 154:../freertos/portable/MemMang/heap_2.c **** 			{
 179              		.loc 1 154 49 discriminator 1 view .LVU55
 180 0050 FAB9     		cbnz	r2, .L10	@ _6,
 181              	.L5:
 161:../freertos/portable/MemMang/heap_2.c **** 			{
 182              		.loc 1 161 4 is_stmt 1 view .LVU56
 183              	@ ../freertos/portable/MemMang/heap_2.c:161: 			if( pxBlock != &xEnd )
 161:../freertos/portable/MemMang/heap_2.c **** 			{
 184              		.loc 1 161 6 is_stmt 0 view .LVU57
 185 0052 144A     		ldr	r2, .L19+8	@ tmp160,
 186 0054 9342     		cmp	r3, r2	@ pxBlock, tmp160
 187 0056 1FD0     		beq	.L11		@,
 165:../freertos/portable/MemMang/heap_2.c **** 
 188              		.loc 1 165 5 is_stmt 1 view .LVU58
 189              	@ ../freertos/portable/MemMang/heap_2.c:165: 				pvReturn = ( void * ) ( ( ( uint8_t * ) pxPrevious
 165:../freertos/portable/MemMang/heap_2.c **** 
 190              		.loc 1 165 14 is_stmt 0 view .LVU59
 191 0058 0568     		ldr	r5, [r0]	@ pxPreviousBlock_21->pxNextFreeBlock, pxPreviousBlock_21->pxNextFreeBlock
 192              	@ ../freertos/portable/MemMang/heap_2.c:169: 				pxPreviousBlock->pxNextFreeBlock = pxBlock->pxNext
 169:../freertos/portable/MemMang/heap_2.c **** 
 193              		.loc 1 169 47 view .LVU60
 194 005a 1E68     		ldr	r6, [r3]	@ _8, pxBlock_20->pxNextFreeBlock
 195              	@ ../freertos/portable/MemMang/heap_2.c:172: 				if( ( pxBlock->xBlockSize - xWantedSize ) > heapMI
 172:../freertos/portable/MemMang/heap_2.c **** 				{
 196              		.loc 1 172 31 view .LVU61
 197 005c 091B     		subs	r1, r1, r4	@ _10, _5, xWantedSize
 198              	@ ../freertos/portable/MemMang/heap_2.c:172: 				if( ( pxBlock->xBlockSize - xWantedSize ) > heapMI
ARM GAS  /tmp/ccyo2WKu.s 			page 10


 172:../freertos/portable/MemMang/heap_2.c **** 				{
 199              		.loc 1 172 7 view .LVU62
 200 005e 1029     		cmp	r1, #16	@ _10,
 201              	@ ../freertos/portable/MemMang/heap_2.c:165: 				pvReturn = ( void * ) ( ( ( uint8_t * ) pxPrevious
 165:../freertos/portable/MemMang/heap_2.c **** 
 202              		.loc 1 165 14 view .LVU63
 203 0060 05F10805 		add	r5, r5, #8	@ <retval>, pxPreviousBlock_21->pxNextFreeBlock,
 204              	.LVL11:
 169:../freertos/portable/MemMang/heap_2.c **** 
 205              		.loc 1 169 5 is_stmt 1 view .LVU64
 206              	@ ../freertos/portable/MemMang/heap_2.c:169: 				pxPreviousBlock->pxNextFreeBlock = pxBlock->pxNext
 169:../freertos/portable/MemMang/heap_2.c **** 
 207              		.loc 1 169 38 is_stmt 0 view .LVU65
 208 0064 0660     		str	r6, [r0]	@ _8, pxPreviousBlock_21->pxNextFreeBlock
 172:../freertos/portable/MemMang/heap_2.c **** 				{
 209              		.loc 1 172 5 is_stmt 1 view .LVU66
 210              	@ ../freertos/portable/MemMang/heap_2.c:172: 				if( ( pxBlock->xBlockSize - xWantedSize ) > heapMI
 172:../freertos/portable/MemMang/heap_2.c **** 				{
 211              		.loc 1 172 7 is_stmt 0 view .LVU67
 212 0066 0BD9     		bls	.L7		@,
 177:../freertos/portable/MemMang/heap_2.c **** 
 213              		.loc 1 177 6 is_stmt 1 view .LVU68
 214              	@ ../freertos/portable/MemMang/heap_2.c:177: 					pxNewBlockLink = ( void * ) ( ( ( uint8_t * ) pxB
 177:../freertos/portable/MemMang/heap_2.c **** 
 215              		.loc 1 177 21 is_stmt 0 view .LVU69
 216 0068 1819     		adds	r0, r3, r4	@ pxNewBlockLink, pxBlock, xWantedSize
 217              	.LVL12:
 181:../freertos/portable/MemMang/heap_2.c **** 					pxBlock->xBlockSize = xWantedSize;
 218              		.loc 1 181 6 is_stmt 1 view .LVU70
 219              	@ ../freertos/portable/MemMang/heap_2.c:181: 					pxNewBlockLink->xBlockSize = pxBlock->xBlockSize 
 181:../freertos/portable/MemMang/heap_2.c **** 					pxBlock->xBlockSize = xWantedSize;
 220              		.loc 1 181 33 is_stmt 0 view .LVU71
 221 006a 4160     		str	r1, [r0, #4]	@ _10, pxNewBlockLink_38->xBlockSize
 182:../freertos/portable/MemMang/heap_2.c **** 
 222              		.loc 1 182 6 is_stmt 1 view .LVU72
 223              	@ ../freertos/portable/MemMang/heap_2.c:182: 					pxBlock->xBlockSize = xWantedSize;
 182:../freertos/portable/MemMang/heap_2.c **** 
 224              		.loc 1 182 26 is_stmt 0 view .LVU73
 225 006c 5C60     		str	r4, [r3, #4]	@ xWantedSize, pxBlock_20->xBlockSize
 226              	.LBB9:
 185:../freertos/portable/MemMang/heap_2.c **** 				}
 227              		.loc 1 185 6 is_stmt 1 view .LVU74
 185:../freertos/portable/MemMang/heap_2.c **** 				}
 228              		.loc 1 185 6 view .LVU75
 185:../freertos/portable/MemMang/heap_2.c **** 				}
 229              		.loc 1 185 6 view .LVU76
 230 006e 4468     		ldr	r4, [r0, #4]	@ xBlockSize, pxNewBlockLink_38->xBlockSize
 231              	.LVL13:
 185:../freertos/portable/MemMang/heap_2.c **** 				}
 232              		.loc 1 185 6 view .LVU77
 185:../freertos/portable/MemMang/heap_2.c **** 				}
 233              		.loc 1 185 6 is_stmt 0 view .LVU78
 234 0070 0C3A     		subs	r2, r2, #12	@ _13, tmp160,
 235              	.LVL14:
 236              	.L8:
 185:../freertos/portable/MemMang/heap_2.c **** 				}
 237              		.loc 1 185 6 is_stmt 1 discriminator 1 view .LVU79
ARM GAS  /tmp/ccyo2WKu.s 			page 11


 238 0072 1146     		mov	r1, r2	@ pxIterator, _13
 239 0074 1268     		ldr	r2, [r2]	@ _13, pxIterator_23->pxNextFreeBlock
 240              	.LVL15:
 185:../freertos/portable/MemMang/heap_2.c **** 				}
 241              		.loc 1 185 6 is_stmt 0 discriminator 1 view .LVU80
 242 0076 5668     		ldr	r6, [r2, #4]	@ _13->xBlockSize, _13->xBlockSize
 243 0078 A642     		cmp	r6, r4	@ _13->xBlockSize, xBlockSize
 244 007a FAD3     		bcc	.L8		@,
 185:../freertos/portable/MemMang/heap_2.c **** 				}
 245              		.loc 1 185 6 is_stmt 1 discriminator 4 view .LVU81
 246 007c 0260     		str	r2, [r0]	@ _13, pxNewBlockLink_38->pxNextFreeBlock
 185:../freertos/portable/MemMang/heap_2.c **** 				}
 247              		.loc 1 185 6 discriminator 4 view .LVU82
 248 007e 0860     		str	r0, [r1]	@ pxNewBlockLink, pxIterator_58->pxNextFreeBlock
 249              	.LVL16:
 250              	.L7:
 185:../freertos/portable/MemMang/heap_2.c **** 				}
 251              		.loc 1 185 6 is_stmt 0 discriminator 4 view .LVU83
 252              	.LBE9:
 185:../freertos/portable/MemMang/heap_2.c **** 				}
 253              		.loc 1 185 54 is_stmt 1 discriminator 5 view .LVU84
 188:../freertos/portable/MemMang/heap_2.c **** 			}
 254              		.loc 1 188 5 view .LVU85
 255              	@ ../freertos/portable/MemMang/heap_2.c:188: 				xFreeBytesRemaining -= pxBlock->xBlockSize;
 188:../freertos/portable/MemMang/heap_2.c **** 			}
 256              		.loc 1 188 25 is_stmt 0 view .LVU86
 257 0080 0949     		ldr	r1, .L19+12	@ tmp163,
 258 0082 5B68     		ldr	r3, [r3, #4]	@ pxBlock_20->xBlockSize, pxBlock_20->xBlockSize
 259              	.LVL17:
 188:../freertos/portable/MemMang/heap_2.c **** 			}
 260              		.loc 1 188 25 view .LVU87
 261 0084 0A68     		ldr	r2, [r1]	@ xFreeBytesRemaining, xFreeBytesRemaining
 262 0086 D21A     		subs	r2, r2, r3	@ tmp165, xFreeBytesRemaining, pxBlock_20->xBlockSize
 263 0088 0A60     		str	r2, [r1]	@ tmp165, xFreeBytesRemaining
 264              	.LVL18:
 265              	.L4:
 192:../freertos/portable/MemMang/heap_2.c **** 	}
 266              		.loc 1 192 39 is_stmt 1 view .LVU88
 194:../freertos/portable/MemMang/heap_2.c **** 
 267              		.loc 1 194 2 view .LVU89
 268              	@ ../freertos/portable/MemMang/heap_2.c:194: 	( void ) xTaskResumeAll();
 194:../freertos/portable/MemMang/heap_2.c **** 
 269              		.loc 1 194 11 is_stmt 0 view .LVU90
 270 008a FFF7FEFF 		bl	xTaskResumeAll		@
 271              	.LVL19:
 206:../freertos/portable/MemMang/heap_2.c **** }
 272              		.loc 1 206 2 is_stmt 1 view .LVU91
 273              	@ ../freertos/portable/MemMang/heap_2.c:207: }
 207:../freertos/portable/MemMang/heap_2.c **** /*-----------------------------------------------------------*/
 274              		.loc 1 207 1 is_stmt 0 view .LVU92
 275 008e 2846     		mov	r0, r5	@, <retval>
 276 0090 70BD     		pop	{r4, r5, r6, pc}	@
 277              	.LVL20:
 278              	.L10:
 279              	@ ../freertos/portable/MemMang/heap_2.c:156: 				pxPreviousBlock = pxBlock;
 156:../freertos/portable/MemMang/heap_2.c **** 				pxBlock = pxBlock->pxNextFreeBlock;
 280              		.loc 1 156 21 view .LVU93
ARM GAS  /tmp/ccyo2WKu.s 			page 12


 281 0092 1846     		mov	r0, r3	@ pxPreviousBlock, pxBlock
 282              	@ ../freertos/portable/MemMang/heap_2.c:157: 				pxBlock = pxBlock->pxNextFreeBlock;
 157:../freertos/portable/MemMang/heap_2.c **** 			}
 283              		.loc 1 157 13 view .LVU94
 284 0094 1346     		mov	r3, r2	@ pxBlock, _6
 285              	.LVL21:
 157:../freertos/portable/MemMang/heap_2.c **** 			}
 286              		.loc 1 157 13 view .LVU95
 287 0096 D7E7     		b	.L6		@
 288              	.LVL22:
 289              	.L11:
 290              	@ ../freertos/portable/MemMang/heap_2.c:122: void *pvReturn = NULL;
 122:../freertos/portable/MemMang/heap_2.c **** 
 291              		.loc 1 122 7 view .LVU96
 292 0098 0025     		movs	r5, #0	@ <retval>,
 293 009a F6E7     		b	.L4		@
 294              	.L20:
 295              		.align	2
 296              	.L19:
 297 009c 00000000 		.word	.LANCHOR0
 298 00a0 1C000000 		.word	ucHeap+8
 299 00a4 0C000000 		.word	.LANCHOR0+12
 300 00a8 00000000 		.word	.LANCHOR1
 301              		.cfi_endproc
 302              	.LFE5:
 303              		.size	pvPortMalloc, .-pvPortMalloc
 304              		.align	1
 305              		.global	vPortFree
 306              		.syntax unified
 307              		.thumb
 308              		.thumb_func
 309              		.type	vPortFree, %function
 310              	vPortFree:
 311              	.LVL23:
 312              	.LFB6:
 211:../freertos/portable/MemMang/heap_2.c **** uint8_t *puc = ( uint8_t * ) pv;
 313              		.loc 1 211 1 is_stmt 1 view -0
 314              		.cfi_startproc
 315              		@ args = 0, pretend = 0, frame = 0
 316              		@ frame_needed = 0, uses_anonymous_args = 0
 212:../freertos/portable/MemMang/heap_2.c **** BlockLink_t *pxLink;
 317              		.loc 1 212 1 view .LVU98
 213:../freertos/portable/MemMang/heap_2.c **** 
 318              		.loc 1 213 1 view .LVU99
 215:../freertos/portable/MemMang/heap_2.c **** 	{
 319              		.loc 1 215 2 view .LVU100
 320              	@ ../freertos/portable/MemMang/heap_2.c:211: {
 211:../freertos/portable/MemMang/heap_2.c **** uint8_t *puc = ( uint8_t * ) pv;
 321              		.loc 1 211 1 is_stmt 0 view .LVU101
 322 00ac 38B5     		push	{r3, r4, r5, lr}	@
 323              	.LCFI1:
 324              		.cfi_def_cfa_offset 16
 325              		.cfi_offset 3, -16
 326              		.cfi_offset 4, -12
 327              		.cfi_offset 5, -8
 328              		.cfi_offset 14, -4
 329              	@ ../freertos/portable/MemMang/heap_2.c:215: 	if( pv != NULL )
ARM GAS  /tmp/ccyo2WKu.s 			page 13


 215:../freertos/portable/MemMang/heap_2.c **** 	{
 330              		.loc 1 215 4 view .LVU102
 331 00ae 0446     		mov	r4, r0	@ pv, tmp128
 332 00b0 B0B1     		cbz	r0, .L21	@ pv,
 219:../freertos/portable/MemMang/heap_2.c **** 
 333              		.loc 1 219 3 is_stmt 1 view .LVU103
 334              	@ ../freertos/portable/MemMang/heap_2.c:219: 		puc -= heapSTRUCT_SIZE;
 219:../freertos/portable/MemMang/heap_2.c **** 
 335              		.loc 1 219 7 is_stmt 0 view .LVU104
 336 00b2 A0F10805 		sub	r5, r0, #8	@ puc, pv,
 337              	.LVL24:
 223:../freertos/portable/MemMang/heap_2.c **** 
 338              		.loc 1 223 3 is_stmt 1 view .LVU105
 225:../freertos/portable/MemMang/heap_2.c **** 		{
 339              		.loc 1 225 3 view .LVU106
 340 00b6 FFF7FEFF 		bl	vTaskSuspendAll		@
 341              	.LVL25:
 342              	.LBB10:
 228:../freertos/portable/MemMang/heap_2.c **** 			xFreeBytesRemaining += pxLink->xBlockSize;
 343              		.loc 1 228 4 view .LVU107
 228:../freertos/portable/MemMang/heap_2.c **** 			xFreeBytesRemaining += pxLink->xBlockSize;
 344              		.loc 1 228 4 view .LVU108
 228:../freertos/portable/MemMang/heap_2.c **** 			xFreeBytesRemaining += pxLink->xBlockSize;
 345              		.loc 1 228 4 view .LVU109
 346 00ba 54F8041C 		ldr	r1, [r4, #-4]	@ xBlockSize, MEM[(struct BlockLink_t *)pv_9(D) + 4294967288B].xBlockSize
 347              	.LVL26:
 228:../freertos/portable/MemMang/heap_2.c **** 			xFreeBytesRemaining += pxLink->xBlockSize;
 348              		.loc 1 228 4 view .LVU110
 228:../freertos/portable/MemMang/heap_2.c **** 			xFreeBytesRemaining += pxLink->xBlockSize;
 349              		.loc 1 228 4 is_stmt 0 view .LVU111
 350 00be 094B     		ldr	r3, .L25	@ _1,
 351              	.LVL27:
 352              	.L23:
 228:../freertos/portable/MemMang/heap_2.c **** 			xFreeBytesRemaining += pxLink->xBlockSize;
 353              		.loc 1 228 4 is_stmt 1 discriminator 1 view .LVU112
 354 00c0 1A46     		mov	r2, r3	@ pxIterator, _1
 355 00c2 1B68     		ldr	r3, [r3]	@ _1, pxIterator_7->pxNextFreeBlock
 356              	.LVL28:
 228:../freertos/portable/MemMang/heap_2.c **** 			xFreeBytesRemaining += pxLink->xBlockSize;
 357              		.loc 1 228 4 is_stmt 0 discriminator 1 view .LVU113
 358 00c4 5868     		ldr	r0, [r3, #4]	@ _1->xBlockSize, _1->xBlockSize
 359 00c6 8842     		cmp	r0, r1	@ _1->xBlockSize, xBlockSize
 360 00c8 FAD3     		bcc	.L23		@,
 228:../freertos/portable/MemMang/heap_2.c **** 			xFreeBytesRemaining += pxLink->xBlockSize;
 361              		.loc 1 228 4 is_stmt 1 discriminator 4 view .LVU114
 362 00ca 44F8083C 		str	r3, [r4, #-8]	@ _1, MEM[(struct BlockLink_t *)pv_9(D) + 4294967288B].pxNextFreeBlock
 228:../freertos/portable/MemMang/heap_2.c **** 			xFreeBytesRemaining += pxLink->xBlockSize;
 363              		.loc 1 228 4 discriminator 4 view .LVU115
 364 00ce 1560     		str	r5, [r2]	@ puc, pxIterator_4->pxNextFreeBlock
 365              	.LBE10:
 228:../freertos/portable/MemMang/heap_2.c **** 			xFreeBytesRemaining += pxLink->xBlockSize;
 366              		.loc 1 228 62 discriminator 4 view .LVU116
 229:../freertos/portable/MemMang/heap_2.c **** 			traceFREE( pv, pxLink->xBlockSize );
 367              		.loc 1 229 4 view .LVU117
 368              	@ ../freertos/portable/MemMang/heap_2.c:229: 			xFreeBytesRemaining += pxLink->xBlockSize;
 229:../freertos/portable/MemMang/heap_2.c **** 			traceFREE( pv, pxLink->xBlockSize );
 369              		.loc 1 229 24 is_stmt 0 view .LVU118
ARM GAS  /tmp/ccyo2WKu.s 			page 14


 370 00d0 054A     		ldr	r2, .L25+4	@ tmp124,
 371              	.LVL29:
 229:../freertos/portable/MemMang/heap_2.c **** 			traceFREE( pv, pxLink->xBlockSize );
 372              		.loc 1 229 24 view .LVU119
 373 00d2 1368     		ldr	r3, [r2]	@ xFreeBytesRemaining, xFreeBytesRemaining
 374 00d4 0B44     		add	r3, r3, r1	@ tmp126, xBlockSize
 375 00d6 1360     		str	r3, [r2]	@ tmp126, xFreeBytesRemaining
 230:../freertos/portable/MemMang/heap_2.c **** 		}
 376              		.loc 1 230 39 is_stmt 1 view .LVU120
 232:../freertos/portable/MemMang/heap_2.c **** 	}
 377              		.loc 1 232 3 view .LVU121
 378              	@ ../freertos/portable/MemMang/heap_2.c:234: }
 234:../freertos/portable/MemMang/heap_2.c **** /*-----------------------------------------------------------*/
 379              		.loc 1 234 1 is_stmt 0 view .LVU122
 380 00d8 BDE83840 		pop	{r3, r4, r5, lr}	@
 381              	.LCFI2:
 382              		.cfi_remember_state
 383              		.cfi_restore 14
 384              		.cfi_restore 5
 385              		.cfi_restore 4
 386              		.cfi_restore 3
 387              		.cfi_def_cfa_offset 0
 388              	.LVL30:
 389              	@ ../freertos/portable/MemMang/heap_2.c:232: 		( void ) xTaskResumeAll();
 232:../freertos/portable/MemMang/heap_2.c **** 	}
 390              		.loc 1 232 12 view .LVU123
 391 00dc FFF7FEBF 		b	xTaskResumeAll		@
 392              	.LVL31:
 393              	.L21:
 394              	.LCFI3:
 395              		.cfi_restore_state
 396              	@ ../freertos/portable/MemMang/heap_2.c:234: }
 234:../freertos/portable/MemMang/heap_2.c **** /*-----------------------------------------------------------*/
 397              		.loc 1 234 1 view .LVU124
 398 00e0 38BD     		pop	{r3, r4, r5, pc}	@
 399              	.L26:
 400 00e2 00BF     		.align	2
 401              	.L25:
 402 00e4 00000000 		.word	.LANCHOR0
 403 00e8 00000000 		.word	.LANCHOR1
 404              		.cfi_endproc
 405              	.LFE6:
 406              		.size	vPortFree, .-vPortFree
 407              		.align	1
 408              		.global	xPortGetFreeHeapSize
 409              		.syntax unified
 410              		.thumb
 411              		.thumb_func
 412              		.type	xPortGetFreeHeapSize, %function
 413              	xPortGetFreeHeapSize:
 414              	.LFB7:
 238:../freertos/portable/MemMang/heap_2.c **** 	return xFreeBytesRemaining;
 415              		.loc 1 238 1 is_stmt 1 view -0
 416              		.cfi_startproc
 417              		@ args = 0, pretend = 0, frame = 0
 418              		@ frame_needed = 0, uses_anonymous_args = 0
 419              		@ link register save eliminated.
ARM GAS  /tmp/ccyo2WKu.s 			page 15


 239:../freertos/portable/MemMang/heap_2.c **** }
 420              		.loc 1 239 2 view .LVU126
 421              	@ ../freertos/portable/MemMang/heap_2.c:240: }
 240:../freertos/portable/MemMang/heap_2.c **** /*-----------------------------------------------------------*/
 422              		.loc 1 240 1 is_stmt 0 view .LVU127
 423 00ec 014B     		ldr	r3, .L28	@ tmp116,
 424 00ee 1868     		ldr	r0, [r3]	@, xFreeBytesRemaining
 425 00f0 7047     		bx	lr	@
 426              	.L29:
 427 00f2 00BF     		.align	2
 428              	.L28:
 429 00f4 00000000 		.word	.LANCHOR1
 430              		.cfi_endproc
 431              	.LFE7:
 432              		.size	xPortGetFreeHeapSize, .-xPortGetFreeHeapSize
 433              		.align	1
 434              		.global	vPortInitialiseBlocks
 435              		.syntax unified
 436              		.thumb
 437              		.thumb_func
 438              		.type	vPortInitialiseBlocks, %function
 439              	vPortInitialiseBlocks:
 440              	.LFB8:
 244:../freertos/portable/MemMang/heap_2.c **** 	/* This just exists to keep the linker quiet. */
 441              		.loc 1 244 1 is_stmt 1 view -0
 442              		.cfi_startproc
 443              		@ args = 0, pretend = 0, frame = 0
 444              		@ frame_needed = 0, uses_anonymous_args = 0
 445              		@ link register save eliminated.
 246:../freertos/portable/MemMang/heap_2.c **** /*-----------------------------------------------------------*/
 446              		.loc 1 246 1 view .LVU129
 447 00f8 7047     		bx	lr	@
 448              		.cfi_endproc
 449              	.LFE8:
 450              		.size	vPortInitialiseBlocks, .-vPortInitialiseBlocks
 451              		.data
 452              		.align	2
 453              		.set	.LANCHOR1,. + 0
 454              		.type	xFreeBytesRemaining, %object
 455              		.size	xFreeBytesRemaining, 4
 456              	xFreeBytesRemaining:
 457 0000 F8470000 		.word	18424
 458              		.bss
 459              		.align	2
 460              		.set	.LANCHOR0,. + 0
 461              		.type	xStart, %object
 462              		.size	xStart, 8
 463              	xStart:
 464 0000 00000000 		.space	8
 464      00000000 
 465              		.type	xHeapHasBeenInitialised.0, %object
 466              		.size	xHeapHasBeenInitialised.0, 4
 467              	xHeapHasBeenInitialised.0:
 468 0008 00000000 		.space	4
 469              		.type	xEnd, %object
 470              		.size	xEnd, 8
 471              	xEnd:
ARM GAS  /tmp/ccyo2WKu.s 			page 16


 472 000c 00000000 		.space	8
 472      00000000 
 473              		.type	ucHeap, %object
 474              		.size	ucHeap, 18432
 475              	ucHeap:
 476 0014 00000000 		.space	18432
 476      00000000 
 476      00000000 
 476      00000000 
 476      00000000 
 477              		.text
 478              	.Letext0:
 479              		.file 2 "/usr/lib/gcc/arm-none-eabi/13.2.0/include/stddef.h"
 480              		.file 3 "/usr/arm-none-eabi/include/machine/_default_types.h"
 481              		.file 4 "/usr/arm-none-eabi/include/sys/_stdint.h"
 482              		.file 5 "../freertos/portable/GCC/ARM_CM3/portmacro.h"
 483              		.file 6 "../freertos/include/task.h"