ARM GAS  /tmp/ccyo2WKu.s 			page 1


   1              		.cpu cortex-m3
   2              		.arch armv7-m
   3              		.fpu softvfp
   4              		.eabi_attribute 20, 1	@ Tag_ABI_FP_denormal
   5              		.eabi_attribute 21, 1	@ Tag_ABI_FP_exceptions
   6              		.eabi_attribute 23, 3	@ Tag_ABI_FP_number_model
   7              		.eabi_attribute 24, 1	@ Tag_ABI_align8_needed
   8              		.eabi_attribute 25, 1	@ Tag_ABI_align8_preserved
   9              		.eabi_attribute 26, 1	@ Tag_ABI_enum_size
  10              		.eabi_attribute 30, 4	@ Tag_ABI_optimization_goals
  11              		.eabi_attribute 34, 1	@ Tag_CPU_unaligned_access
  12              		.eabi_attribute 18, 4	@ Tag_ABI_PCS_wchar_t
  13              		.file	"heap_2.c"
  14              	@ GNU C17 (Arch Repository) version 13.2.0 (arm-none-eabi)
  15              	@	compiled by GNU C version 13.2.1 20230730, GMP version 6.2.1, MPFR version 4.2.0-p12, MPC version
  16              	
  17              	@ warning: GMP header version 6.2.1 differs from library version 6.3.0.
  18              	@ GGC heuristics: --param ggc-min-expand=100 --param ggc-min-heapsize=131072
  19              	@ options passed: -mcpu=cortex-m3 -mthumb -mfloat-abi=soft -march=armv7-m -g -gdwarf-2 -Os -fomit-f
  20              		.text
  21              	.Ltext0:
  22              		.cfi_sections	.debug_frame
  23              		.file 1 "../freertos/portable/MemMang/heap_2.c"
  24              		.align	1
  25              		.global	pvPortMalloc
  26              		.syntax unified
  27              		.thumb
  28              		.thumb_func
  29              		.type	pvPortMalloc, %function
  30              	pvPortMalloc:
  31              	.LVL0:
  32              	.LFB5:
   1:../freertos/portable/MemMang/heap_2.c **** /*
   2:../freertos/portable/MemMang/heap_2.c ****  * FreeRTOS Kernel V10.2.1
   3:../freertos/portable/MemMang/heap_2.c ****  * Copyright (C) 2019 Amazon.com, Inc. or its affiliates.  All Rights Reserved.
   4:../freertos/portable/MemMang/heap_2.c ****  *
   5:../freertos/portable/MemMang/heap_2.c ****  * Permission is hereby granted, free of charge, to any person obtaining a copy of
   6:../freertos/portable/MemMang/heap_2.c ****  * this software and associated documentation files (the "Software"), to deal in
   7:../freertos/portable/MemMang/heap_2.c ****  * the Software without restriction, including without limitation the rights to
   8:../freertos/portable/MemMang/heap_2.c ****  * use, copy, modify, merge, publish, distribute, sublicense, and/or sell copies of
   9:../freertos/portable/MemMang/heap_2.c ****  * the Software, and to permit persons to whom the Software is furnished to do so,
  10:../freertos/portable/MemMang/heap_2.c ****  * subject to the following conditions:
  11:../freertos/portable/MemMang/heap_2.c ****  *
  12:../freertos/portable/MemMang/heap_2.c ****  * The above copyright notice and this permission notice shall be included in all
  13:../freertos/portable/MemMang/heap_2.c ****  * copies or substantial portions of the Software.
  14:../freertos/portable/MemMang/heap_2.c ****  *
  15:../freertos/portable/MemMang/heap_2.c ****  * THE SOFTWARE IS PROVIDED "AS IS", WITHOUT WARRANTY OF ANY KIND, EXPRESS OR
  16:../freertos/portable/MemMang/heap_2.c ****  * IMPLIED, INCLUDING BUT NOT LIMITED TO THE WARRANTIES OF MERCHANTABILITY, FITNESS
  17:../freertos/portable/MemMang/heap_2.c ****  * FOR A PARTICULAR PURPOSE AND NONINFRINGEMENT. IN NO EVENT SHALL THE AUTHORS OR
  18:../freertos/portable/MemMang/heap_2.c ****  * COPYRIGHT HOLDERS BE LIABLE FOR ANY CLAIM, DAMAGES OR OTHER LIABILITY, WHETHER
  19:../freertos/portable/MemMang/heap_2.c ****  * IN AN ACTION OF CONTRACT, TORT OR OTHERWISE, ARISING FROM, OUT OF OR IN
  20:../freertos/portable/MemMang/heap_2.c ****  * CONNECTION WITH THE SOFTWARE OR THE USE OR OTHER DEALINGS IN THE SOFTWARE.
  21:../freertos/portable/MemMang/heap_2.c ****  *
  22:../freertos/portable/MemMang/heap_2.c ****  * http://www.FreeRTOS.org
  23:../freertos/portable/MemMang/heap_2.c ****  * http://aws.amazon.com/freertos
  24:../freertos/portable/MemMang/heap_2.c ****  *
  25:../freertos/portable/MemMang/heap_2.c ****  * 1 tab == 4 spaces!
ARM GAS  /tmp/ccyo2WKu.s 			page 2


  26:../freertos/portable/MemMang/heap_2.c ****  */
  27:../freertos/portable/MemMang/heap_2.c **** 
  28:../freertos/portable/MemMang/heap_2.c **** /*
  29:../freertos/portable/MemMang/heap_2.c ****  * A sample implementation of pvPortMalloc() and vPortFree() that permits
  30:../freertos/portable/MemMang/heap_2.c ****  * allocated blocks to be freed, but does not combine adjacent free blocks
  31:../freertos/portable/MemMang/heap_2.c ****  * into a single larger block (and so will fragment memory).  See heap_4.c for
  32:../freertos/portable/MemMang/heap_2.c ****  * an equivalent that does combine adjacent blocks into single larger blocks.
  33:../freertos/portable/MemMang/heap_2.c ****  *
  34:../freertos/portable/MemMang/heap_2.c ****  * See heap_1.c, heap_3.c and heap_4.c for alternative implementations, and the
  35:../freertos/portable/MemMang/heap_2.c ****  * memory management pages of http://www.FreeRTOS.org for more information.
  36:../freertos/portable/MemMang/heap_2.c ****  */
  37:../freertos/portable/MemMang/heap_2.c **** #include <stdlib.h>
  38:../freertos/portable/MemMang/heap_2.c **** 
  39:../freertos/portable/MemMang/heap_2.c **** /* Defining MPU_WRAPPERS_INCLUDED_FROM_API_FILE prevents task.h from redefining
  40:../freertos/portable/MemMang/heap_2.c **** all the API functions to use the MPU wrappers.  That should only be done when
  41:../freertos/portable/MemMang/heap_2.c **** task.h is included from an application file. */
  42:../freertos/portable/MemMang/heap_2.c **** #define MPU_WRAPPERS_INCLUDED_FROM_API_FILE
  43:../freertos/portable/MemMang/heap_2.c **** 
  44:../freertos/portable/MemMang/heap_2.c **** #include "FreeRTOS.h"
  45:../freertos/portable/MemMang/heap_2.c **** #include "task.h"
  46:../freertos/portable/MemMang/heap_2.c **** 
  47:../freertos/portable/MemMang/heap_2.c **** #undef MPU_WRAPPERS_INCLUDED_FROM_API_FILE
  48:../freertos/portable/MemMang/heap_2.c **** 
  49:../freertos/portable/MemMang/heap_2.c **** #if( configSUPPORT_DYNAMIC_ALLOCATION == 0 )
  50:../freertos/portable/MemMang/heap_2.c **** 	#error This file must not be used if configSUPPORT_DYNAMIC_ALLOCATION is 0
  51:../freertos/portable/MemMang/heap_2.c **** #endif
  52:../freertos/portable/MemMang/heap_2.c **** 
  53:../freertos/portable/MemMang/heap_2.c **** /* A few bytes might be lost to byte aligning the heap start address. */
  54:../freertos/portable/MemMang/heap_2.c **** #define configADJUSTED_HEAP_SIZE	( configTOTAL_HEAP_SIZE - portBYTE_ALIGNMENT )
  55:../freertos/portable/MemMang/heap_2.c **** 
  56:../freertos/portable/MemMang/heap_2.c **** /*
  57:../freertos/portable/MemMang/heap_2.c ****  * Initialises the heap structures before their first use.
  58:../freertos/portable/MemMang/heap_2.c ****  */
  59:../freertos/portable/MemMang/heap_2.c **** static void prvHeapInit( void );
  60:../freertos/portable/MemMang/heap_2.c **** 
  61:../freertos/portable/MemMang/heap_2.c **** /* Allocate the memory for the heap. */
  62:../freertos/portable/MemMang/heap_2.c **** #if( configAPPLICATION_ALLOCATED_HEAP == 1 )
  63:../freertos/portable/MemMang/heap_2.c **** 	/* The application writer has already defined the array used for the RTOS
  64:../freertos/portable/MemMang/heap_2.c **** 	heap - probably so it can be placed in a special segment or address. */
  65:../freertos/portable/MemMang/heap_2.c **** 	extern uint8_t ucHeap[ configTOTAL_HEAP_SIZE ];
  66:../freertos/portable/MemMang/heap_2.c **** #else
  67:../freertos/portable/MemMang/heap_2.c **** 	static uint8_t ucHeap[ configTOTAL_HEAP_SIZE ];
  68:../freertos/portable/MemMang/heap_2.c **** #endif /* configAPPLICATION_ALLOCATED_HEAP */
  69:../freertos/portable/MemMang/heap_2.c **** 
  70:../freertos/portable/MemMang/heap_2.c **** 
  71:../freertos/portable/MemMang/heap_2.c **** /* Define the linked list structure.  This is used to link free blocks in order
  72:../freertos/portable/MemMang/heap_2.c **** of their size. */
  73:../freertos/portable/MemMang/heap_2.c **** typedef struct A_BLOCK_LINK
  74:../freertos/portable/MemMang/heap_2.c **** {
  75:../freertos/portable/MemMang/heap_2.c **** 	struct A_BLOCK_LINK *pxNextFreeBlock;	/*<< The next free block in the list. */
  76:../freertos/portable/MemMang/heap_2.c **** 	size_t xBlockSize;						/*<< The size of the free block. */
  77:../freertos/portable/MemMang/heap_2.c **** } BlockLink_t;
  78:../freertos/portable/MemMang/heap_2.c **** 
  79:../freertos/portable/MemMang/heap_2.c **** 
  80:../freertos/portable/MemMang/heap_2.c **** static const uint16_t heapSTRUCT_SIZE	= ( ( sizeof ( BlockLink_t ) + ( portBYTE_ALIGNMENT - 1 ) ) &
  81:../freertos/portable/MemMang/heap_2.c **** #define heapMINIMUM_BLOCK_SIZE	( ( size_t ) ( heapSTRUCT_SIZE * 2 ) )
  82:../freertos/portable/MemMang/heap_2.c **** 
ARM GAS  /tmp/ccyo2WKu.s 			page 3


  83:../freertos/portable/MemMang/heap_2.c **** /* Create a couple of list links to mark the start and end of the list. */
  84:../freertos/portable/MemMang/heap_2.c **** static BlockLink_t xStart, xEnd;
  85:../freertos/portable/MemMang/heap_2.c **** 
  86:../freertos/portable/MemMang/heap_2.c **** /* Keeps track of the number of free bytes remaining, but says nothing about
  87:../freertos/portable/MemMang/heap_2.c **** fragmentation. */
  88:../freertos/portable/MemMang/heap_2.c **** static size_t xFreeBytesRemaining = configADJUSTED_HEAP_SIZE;
  89:../freertos/portable/MemMang/heap_2.c **** 
  90:../freertos/portable/MemMang/heap_2.c **** /* STATIC FUNCTIONS ARE DEFINED AS MACROS TO MINIMIZE THE FUNCTION CALL DEPTH. */
  91:../freertos/portable/MemMang/heap_2.c **** 
  92:../freertos/portable/MemMang/heap_2.c **** /*
  93:../freertos/portable/MemMang/heap_2.c ****  * Insert a block into the list of free blocks - which is ordered by size of
  94:../freertos/portable/MemMang/heap_2.c ****  * the block.  Small blocks at the start of the list and large blocks at the end
  95:../freertos/portable/MemMang/heap_2.c ****  * of the list.
  96:../freertos/portable/MemMang/heap_2.c ****  */
  97:../freertos/portable/MemMang/heap_2.c **** #define prvInsertBlockIntoFreeList( pxBlockToInsert )								\
  98:../freertos/portable/MemMang/heap_2.c **** {																					\
  99:../freertos/portable/MemMang/heap_2.c **** BlockLink_t *pxIterator;															\
 100:../freertos/portable/MemMang/heap_2.c **** size_t xBlockSize;																	\
 101:../freertos/portable/MemMang/heap_2.c **** 																					\
 102:../freertos/portable/MemMang/heap_2.c **** 	xBlockSize = pxBlockToInsert->xBlockSize;										\
 103:../freertos/portable/MemMang/heap_2.c **** 																					\
 104:../freertos/portable/MemMang/heap_2.c **** 	/* Iterate through the list until a block is found that has a larger size */	\
 105:../freertos/portable/MemMang/heap_2.c **** 	/* than the block we are inserting. */											\
 106:../freertos/portable/MemMang/heap_2.c **** 	for( pxIterator = &xStart; pxIterator->pxNextFreeBlock->xBlockSize < xBlockSize; pxIterator = pxIt
 107:../freertos/portable/MemMang/heap_2.c **** 	{																				\
 108:../freertos/portable/MemMang/heap_2.c **** 		/* There is nothing to do here - just iterate to the correct position. */	\
 109:../freertos/portable/MemMang/heap_2.c **** 	}																				\
 110:../freertos/portable/MemMang/heap_2.c **** 																					\
 111:../freertos/portable/MemMang/heap_2.c **** 	/* Update the list to include the block being inserted in the correct */		\
 112:../freertos/portable/MemMang/heap_2.c **** 	/* position. */																	\
 113:../freertos/portable/MemMang/heap_2.c **** 	pxBlockToInsert->pxNextFreeBlock = pxIterator->pxNextFreeBlock;					\
 114:../freertos/portable/MemMang/heap_2.c **** 	pxIterator->pxNextFreeBlock = pxBlockToInsert;									\
 115:../freertos/portable/MemMang/heap_2.c **** }
 116:../freertos/portable/MemMang/heap_2.c **** /*-----------------------------------------------------------*/
 117:../freertos/portable/MemMang/heap_2.c **** 
 118:../freertos/portable/MemMang/heap_2.c **** void *pvPortMalloc( size_t xWantedSize )
 119:../freertos/portable/MemMang/heap_2.c **** {
  33              		.loc 1 119 1 view -0
  34              		.cfi_startproc
  35              		@ args = 0, pretend = 0, frame = 0
  36              		@ frame_needed = 0, uses_anonymous_args = 0
 120:../freertos/portable/MemMang/heap_2.c **** BlockLink_t *pxBlock, *pxPreviousBlock, *pxNewBlockLink;
  37              		.loc 1 120 1 view .LVU1
 121:../freertos/portable/MemMang/heap_2.c **** static BaseType_t xHeapHasBeenInitialised = pdFALSE;
  38              		.loc 1 121 1 view .LVU2
 122:../freertos/portable/MemMang/heap_2.c **** void *pvReturn = NULL;
  39              		.loc 1 122 1 view .LVU3
 123:../freertos/portable/MemMang/heap_2.c **** 
 124:../freertos/portable/MemMang/heap_2.c **** 	vTaskSuspendAll();
  40              		.loc 1 124 2 view .LVU4
  41              	@ ../freertos/portable/MemMang/heap_2.c:119: {
 119:../freertos/portable/MemMang/heap_2.c **** BlockLink_t *pxBlock, *pxPreviousBlock, *pxNewBlockLink;
  42              		.loc 1 119 1 is_stmt 0 view .LVU5
  43 0000 70B5     		push	{r4, r5, r6, lr}	@
  44              	.LCFI0:
  45              		.cfi_def_cfa_offset 16
  46              		.cfi_offset 4, -16
ARM GAS  /tmp/ccyo2WKu.s 			page 4


  47              		.cfi_offset 5, -12
  48              		.cfi_offset 6, -8
  49              		.cfi_offset 14, -4
  50              	@ ../freertos/portable/MemMang/heap_2.c:119: {
 119:../freertos/portable/MemMang/heap_2.c **** BlockLink_t *pxBlock, *pxPreviousBlock, *pxNewBlockLink;
  51              		.loc 1 119 1 view .LVU6
  52 0002 0446     		mov	r4, r0	@ xWantedSize, tmp170
  53              	@ ../freertos/portable/MemMang/heap_2.c:124: 	vTaskSuspendAll();
  54              		.loc 1 124 2 view .LVU7
  55 0004 FFF7FEFF 		bl	vTaskSuspendAll		@
  56              	.LVL1:
 125:../freertos/portable/MemMang/heap_2.c **** 	{
 126:../freertos/portable/MemMang/heap_2.c **** 		/* If this is the first call to malloc then the heap will require
 127:../freertos/portable/MemMang/heap_2.c **** 		initialisation to setup the list of free blocks. */
 128:../freertos/portable/MemMang/heap_2.c **** 		if( xHeapHasBeenInitialised == pdFALSE )
  57              		.loc 1 128 3 is_stmt 1 view .LVU8
  58              	@ ../freertos/portable/MemMang/heap_2.c:128: 		if( xHeapHasBeenInitialised == pdFALSE )
  59              		.loc 1 128 31 is_stmt 0 view .LVU9
  60 0008 244B     		ldr	r3, .L19	@ tmp140,
  61              	@ ../freertos/portable/MemMang/heap_2.c:128: 		if( xHeapHasBeenInitialised == pdFALSE )
  62              		.loc 1 128 5 view .LVU10
  63 000a 9868     		ldr	r0, [r3, #8]	@ xHeapHasBeenInitialised, xHeapHasBeenInitialised
  64 000c 70B9     		cbnz	r0, .L2	@ xHeapHasBeenInitialised,
 129:../freertos/portable/MemMang/heap_2.c **** 		{
 130:../freertos/portable/MemMang/heap_2.c **** 			prvHeapInit();
  65              		.loc 1 130 4 is_stmt 1 view .LVU11
  66              	.LBB5:
  67              	.LBI5:
 131:../freertos/portable/MemMang/heap_2.c **** 			xHeapHasBeenInitialised = pdTRUE;
 132:../freertos/portable/MemMang/heap_2.c **** 		}
 133:../freertos/portable/MemMang/heap_2.c **** 
 134:../freertos/portable/MemMang/heap_2.c **** 		/* The wanted size is increased so it can contain a BlockLink_t
 135:../freertos/portable/MemMang/heap_2.c **** 		structure in addition to the requested amount of bytes. */
 136:../freertos/portable/MemMang/heap_2.c **** 		if( xWantedSize > 0 )
 137:../freertos/portable/MemMang/heap_2.c **** 		{
 138:../freertos/portable/MemMang/heap_2.c **** 			xWantedSize += heapSTRUCT_SIZE;
 139:../freertos/portable/MemMang/heap_2.c **** 
 140:../freertos/portable/MemMang/heap_2.c **** 			/* Ensure that blocks are always aligned to the required number of bytes. */
 141:../freertos/portable/MemMang/heap_2.c **** 			if( ( xWantedSize & portBYTE_ALIGNMENT_MASK ) != 0 )
 142:../freertos/portable/MemMang/heap_2.c **** 			{
 143:../freertos/portable/MemMang/heap_2.c **** 				/* Byte alignment required. */
 144:../freertos/portable/MemMang/heap_2.c **** 				xWantedSize += ( portBYTE_ALIGNMENT - ( xWantedSize & portBYTE_ALIGNMENT_MASK ) );
 145:../freertos/portable/MemMang/heap_2.c **** 			}
 146:../freertos/portable/MemMang/heap_2.c **** 		}
 147:../freertos/portable/MemMang/heap_2.c **** 
 148:../freertos/portable/MemMang/heap_2.c **** 		if( ( xWantedSize > 0 ) && ( xWantedSize < configADJUSTED_HEAP_SIZE ) )
 149:../freertos/portable/MemMang/heap_2.c **** 		{
 150:../freertos/portable/MemMang/heap_2.c **** 			/* Blocks are stored in byte order - traverse the list from the start
 151:../freertos/portable/MemMang/heap_2.c **** 			(smallest) block until one of adequate size is found. */
 152:../freertos/portable/MemMang/heap_2.c **** 			pxPreviousBlock = &xStart;
 153:../freertos/portable/MemMang/heap_2.c **** 			pxBlock = xStart.pxNextFreeBlock;
 154:../freertos/portable/MemMang/heap_2.c **** 			while( ( pxBlock->xBlockSize < xWantedSize ) && ( pxBlock->pxNextFreeBlock != NULL ) )
 155:../freertos/portable/MemMang/heap_2.c **** 			{
 156:../freertos/portable/MemMang/heap_2.c **** 				pxPreviousBlock = pxBlock;
 157:../freertos/portable/MemMang/heap_2.c **** 				pxBlock = pxBlock->pxNextFreeBlock;
 158:../freertos/portable/MemMang/heap_2.c **** 			}
 159:../freertos/portable/MemMang/heap_2.c **** 
ARM GAS  /tmp/ccyo2WKu.s 			page 5


 160:../freertos/portable/MemMang/heap_2.c **** 			/* If we found the end marker then a block of adequate size was not found. */
 161:../freertos/portable/MemMang/heap_2.c **** 			if( pxBlock != &xEnd )
 162:../freertos/portable/MemMang/heap_2.c **** 			{
 163:../freertos/portable/MemMang/heap_2.c **** 				/* Return the memory space - jumping over the BlockLink_t structure
 164:../freertos/portable/MemMang/heap_2.c **** 				at its start. */
 165:../freertos/portable/MemMang/heap_2.c **** 				pvReturn = ( void * ) ( ( ( uint8_t * ) pxPreviousBlock->pxNextFreeBlock ) + heapSTRUCT_SIZE );
 166:../freertos/portable/MemMang/heap_2.c **** 
 167:../freertos/portable/MemMang/heap_2.c **** 				/* This block is being returned for use so must be taken out of the
 168:../freertos/portable/MemMang/heap_2.c **** 				list of free blocks. */
 169:../freertos/portable/MemMang/heap_2.c **** 				pxPreviousBlock->pxNextFreeBlock = pxBlock->pxNextFreeBlock;
 170:../freertos/portable/MemMang/heap_2.c **** 
 171:../freertos/portable/MemMang/heap_2.c **** 				/* If the block is larger than required it can be split into two. */
 172:../freertos/portable/MemMang/heap_2.c **** 				if( ( pxBlock->xBlockSize - xWantedSize ) > heapMINIMUM_BLOCK_SIZE )
 173:../freertos/portable/MemMang/heap_2.c **** 				{
 174:../freertos/portable/MemMang/heap_2.c **** 					/* This block is to be split into two.  Create a new block
 175:../freertos/portable/MemMang/heap_2.c **** 					following the number of bytes requested. The void cast is
 176:../freertos/portable/MemMang/heap_2.c **** 					used to prevent byte alignment warnings from the compiler. */
 177:../freertos/portable/MemMang/heap_2.c **** 					pxNewBlockLink = ( void * ) ( ( ( uint8_t * ) pxBlock ) + xWantedSize );
 178:../freertos/portable/MemMang/heap_2.c **** 
 179:../freertos/portable/MemMang/heap_2.c **** 					/* Calculate the sizes of two blocks split from the single
 180:../freertos/portable/MemMang/heap_2.c **** 					block. */
 181:../freertos/portable/MemMang/heap_2.c **** 					pxNewBlockLink->xBlockSize = pxBlock->xBlockSize - xWantedSize;
 182:../freertos/portable/MemMang/heap_2.c **** 					pxBlock->xBlockSize = xWantedSize;
 183:../freertos/portable/MemMang/heap_2.c **** 
 184:../freertos/portable/MemMang/heap_2.c **** 					/* Insert the new block into the list of free blocks. */
 185:../freertos/portable/MemMang/heap_2.c **** 					prvInsertBlockIntoFreeList( ( pxNewBlockLink ) );
 186:../freertos/portable/MemMang/heap_2.c **** 				}
 187:../freertos/portable/MemMang/heap_2.c **** 
 188:../freertos/portable/MemMang/heap_2.c **** 				xFreeBytesRemaining -= pxBlock->xBlockSize;
 189:../freertos/portable/MemMang/heap_2.c **** 			}
 190:../freertos/portable/MemMang/heap_2.c **** 		}
 191:../freertos/portable/MemMang/heap_2.c **** 
 192:../freertos/portable/MemMang/heap_2.c **** 		traceMALLOC( pvReturn, xWantedSize );
 193:../freertos/portable/MemMang/heap_2.c **** 	}
 194:../freertos/portable/MemMang/heap_2.c **** 	( void ) xTaskResumeAll();
 195:../freertos/portable/MemMang/heap_2.c **** 
 196:../freertos/portable/MemMang/heap_2.c **** 	#if( configUSE_MALLOC_FAILED_HOOK == 1 )
 197:../freertos/portable/MemMang/heap_2.c **** 	{
 198:../freertos/portable/MemMang/heap_2.c **** 		if( pvReturn == NULL )
 199:../freertos/portable/MemMang/heap_2.c **** 		{
 200:../freertos/portable/MemMang/heap_2.c **** 			extern void vApplicationMallocFailedHook( void );
 201:../freertos/portable/MemMang/heap_2.c **** 			vApplicationMallocFailedHook();
 202:../freertos/portable/MemMang/heap_2.c **** 		}
 203:../freertos/portable/MemMang/heap_2.c **** 	}
 204:../freertos/portable/MemMang/heap_2.c **** 	#endif
 205:../freertos/portable/MemMang/heap_2.c **** 
 206:../freertos/portable/MemMang/heap_2.c **** 	return pvReturn;
 207:../freertos/portable/MemMang/heap_2.c **** }
 208:../freertos/portable/MemMang/heap_2.c **** /*-----------------------------------------------------------*/
 209:../freertos/portable/MemMang/heap_2.c **** 
 210:../freertos/portable/MemMang/heap_2.c **** void vPortFree( void *pv )
 211:../freertos/portable/MemMang/heap_2.c **** {
 212:../freertos/portable/MemMang/heap_2.c **** uint8_t *puc = ( uint8_t * ) pv;
 213:../freertos/portable/MemMang/heap_2.c **** BlockLink_t *pxLink;
 214:../freertos/portable/MemMang/heap_2.c **** 
 215:../freertos/portable/MemMang/heap_2.c **** 	if( pv != NULL )
 216:../freertos/portable/MemMang/heap_2.c **** 	{
ARM GAS  /tmp/ccyo2WKu.s 			page 6


 217:../freertos/portable/MemMang/heap_2.c **** 		/* The memory being freed will have an BlockLink_t structure immediately
 218:../freertos/portable/MemMang/heap_2.c **** 		before it. */
 219:../freertos/portable/MemMang/heap_2.c **** 		puc -= heapSTRUCT_SIZE;
 220:../freertos/portable/MemMang/heap_2.c **** 
 221:../freertos/portable/MemMang/heap_2.c **** 		/* This unexpected casting is to keep some compilers from issuing
 222:../freertos/portable/MemMang/heap_2.c **** 		byte alignment warnings. */
 223:../freertos/portable/MemMang/heap_2.c **** 		pxLink = ( void * ) puc;
 224:../freertos/portable/MemMang/heap_2.c **** 
 225:../freertos/portable/MemMang/heap_2.c **** 		vTaskSuspendAll();
 226:../freertos/portable/MemMang/heap_2.c **** 		{
 227:../freertos/portable/MemMang/heap_2.c **** 			/* Add this block to the list of free blocks. */
 228:../freertos/portable/MemMang/heap_2.c **** 			prvInsertBlockIntoFreeList( ( ( BlockLink_t * ) pxLink ) );
 229:../freertos/portable/MemMang/heap_2.c **** 			xFreeBytesRemaining += pxLink->xBlockSize;
 230:../freertos/portable/MemMang/heap_2.c **** 			traceFREE( pv, pxLink->xBlockSize );
 231:../freertos/portable/MemMang/heap_2.c **** 		}
 232:../freertos/portable/MemMang/heap_2.c **** 		( void ) xTaskResumeAll();
 233:../freertos/portable/MemMang/heap_2.c **** 	}
 234:../freertos/portable/MemMang/heap_2.c **** }
 235:../freertos/portable/MemMang/heap_2.c **** /*-----------------------------------------------------------*/
 236:../freertos/portable/MemMang/heap_2.c **** 
 237:../freertos/portable/MemMang/heap_2.c **** size_t xPortGetFreeHeapSize( void )
 238:../freertos/portable/MemMang/heap_2.c **** {
 239:../freertos/portable/MemMang/heap_2.c **** 	return xFreeBytesRemaining;
 240:../freertos/portable/MemMang/heap_2.c **** }
 241:../freertos/portable/MemMang/heap_2.c **** /*-----------------------------------------------------------*/
 242:../freertos/portable/MemMang/heap_2.c **** 
 243:../freertos/portable/MemMang/heap_2.c **** void vPortInitialiseBlocks( void )
 244:../freertos/portable/MemMang/heap_2.c **** {
 245:../freertos/portable/MemMang/heap_2.c **** 	/* This just exists to keep the linker quiet. */
 246:../freertos/portable/MemMang/heap_2.c **** }
 247:../freertos/portable/MemMang/heap_2.c **** /*-----------------------------------------------------------*/
 248:../freertos/portable/MemMang/heap_2.c **** 
 249:../freertos/portable/MemMang/heap_2.c **** static void prvHeapInit( void )
  68              		.loc 1 249 13 view .LVU12
  69              	.LBB6:
 250:../freertos/portable/MemMang/heap_2.c **** {
 251:../freertos/portable/MemMang/heap_2.c **** BlockLink_t *pxFirstFreeBlock;
  70              		.loc 1 251 1 view .LVU13
 252:../freertos/portable/MemMang/heap_2.c **** uint8_t *pucAlignedHeap;
  71              		.loc 1 252 1 view .LVU14
 253:../freertos/portable/MemMang/heap_2.c **** 
 254:../freertos/portable/MemMang/heap_2.c **** 	/* Ensure the heap starts on a correctly aligned boundary. */
 255:../freertos/portable/MemMang/heap_2.c **** 	pucAlignedHeap = ( uint8_t * ) ( ( ( portPOINTER_SIZE_TYPE ) &ucHeap[ portBYTE_ALIGNMENT ] ) & ( ~
  72              		.loc 1 255 2 view .LVU15
  73              	@ ../freertos/portable/MemMang/heap_2.c:264: 	xEnd.pxNextFreeBlock = NULL;
 256:../freertos/portable/MemMang/heap_2.c **** 
 257:../freertos/portable/MemMang/heap_2.c **** 	/* xStart is used to hold a pointer to the first item in the list of free
 258:../freertos/portable/MemMang/heap_2.c **** 	blocks.  The void cast is used to prevent compiler warnings. */
 259:../freertos/portable/MemMang/heap_2.c **** 	xStart.pxNextFreeBlock = ( void * ) pucAlignedHeap;
 260:../freertos/portable/MemMang/heap_2.c **** 	xStart.xBlockSize = ( size_t ) 0;
 261:../freertos/portable/MemMang/heap_2.c **** 
 262:../freertos/portable/MemMang/heap_2.c **** 	/* xEnd is used to mark the end of the list of free blocks. */
 263:../freertos/portable/MemMang/heap_2.c **** 	xEnd.xBlockSize = configADJUSTED_HEAP_SIZE;
 264:../freertos/portable/MemMang/heap_2.c **** 	xEnd.pxNextFreeBlock = NULL;
  74              		.loc 1 264 23 is_stmt 0 view .LVU16
  75 000e 1946     		mov	r1, r3	@ tmp152, tmp140
  76              	@ ../freertos/portable/MemMang/heap_2.c:263: 	xEnd.xBlockSize = configADJUSTED_HEAP_SIZE;
ARM GAS  /tmp/ccyo2WKu.s 			page 7


 263:../freertos/portable/MemMang/heap_2.c **** 	xEnd.pxNextFreeBlock = NULL;
  77              		.loc 1 263 18 view .LVU17
  78 0010 44F2F875 		movw	r5, #18424	@ tmp147,
  79              	@ ../freertos/portable/MemMang/heap_2.c:255: 	pucAlignedHeap = ( uint8_t * ) ( ( ( portPOINTER_SIZE
 255:../freertos/portable/MemMang/heap_2.c **** 
  80              		.loc 1 255 95 view .LVU18
  81 0014 224A     		ldr	r2, .L19+4	@ tmp142,
  82              	@ ../freertos/portable/MemMang/heap_2.c:264: 	xEnd.pxNextFreeBlock = NULL;
  83              		.loc 1 264 23 view .LVU19
  84 0016 41F80C0F 		str	r0, [r1, #12]!	@ xHeapHasBeenInitialised, xEnd.pxNextFreeBlock
  85              	@ ../freertos/portable/MemMang/heap_2.c:255: 	pucAlignedHeap = ( uint8_t * ) ( ( ( portPOINTER_SIZE
 255:../freertos/portable/MemMang/heap_2.c **** 
  86              		.loc 1 255 95 view .LVU20
  87 001a 22F00702 		bic	r2, r2, #7	@ pucAlignedHeap, tmp142,
  88              	.LVL2:
 259:../freertos/portable/MemMang/heap_2.c **** 	xStart.xBlockSize = ( size_t ) 0;
  89              		.loc 1 259 2 is_stmt 1 view .LVU21
  90              	@ ../freertos/portable/MemMang/heap_2.c:260: 	xStart.xBlockSize = ( size_t ) 0;
 260:../freertos/portable/MemMang/heap_2.c **** 
  91              		.loc 1 260 20 is_stmt 0 view .LVU22
  92 001e C3E90020 		strd	r2, r0, [r3]	@ pucAlignedHeap, xHeapHasBeenInitialised, tmp140
 263:../freertos/portable/MemMang/heap_2.c **** 	xEnd.pxNextFreeBlock = NULL;
  93              		.loc 1 263 2 is_stmt 1 view .LVU23
  94              	@ ../freertos/portable/MemMang/heap_2.c:270: 	pxFirstFreeBlock->pxNextFreeBlock = &xEnd;
 265:../freertos/portable/MemMang/heap_2.c **** 
 266:../freertos/portable/MemMang/heap_2.c **** 	/* To start with there is a single free block that is sized to take up the
 267:../freertos/portable/MemMang/heap_2.c **** 	entire heap space. */
 268:../freertos/portable/MemMang/heap_2.c **** 	pxFirstFreeBlock = ( void * ) pucAlignedHeap;
 269:../freertos/portable/MemMang/heap_2.c **** 	pxFirstFreeBlock->xBlockSize = configADJUSTED_HEAP_SIZE;
 270:../freertos/portable/MemMang/heap_2.c **** 	pxFirstFreeBlock->pxNextFreeBlock = &xEnd;
  95              		.loc 1 270 36 is_stmt 0 view .LVU24
  96 0022 C2E90015 		strd	r1, r5, [r2]	@ tmp152, tmp147, pucAlignedHeap
  97              	.LBE6:
  98              	.LBE5:
  99              	@ ../freertos/portable/MemMang/heap_2.c:131: 			xHeapHasBeenInitialised = pdTRUE;
 131:../freertos/portable/MemMang/heap_2.c **** 		}
 100              		.loc 1 131 28 view .LVU25
 101 0026 0122     		movs	r2, #1	@ tmp154,
 102              	.LVL3:
 103              	.LBB8:
 104              	.LBB7:
 105              	@ ../freertos/portable/MemMang/heap_2.c:263: 	xEnd.xBlockSize = configADJUSTED_HEAP_SIZE;
 263:../freertos/portable/MemMang/heap_2.c **** 	xEnd.pxNextFreeBlock = NULL;
 106              		.loc 1 263 18 view .LVU26
 107 0028 1D61     		str	r5, [r3, #16]	@ tmp147, xEnd.xBlockSize
 264:../freertos/portable/MemMang/heap_2.c **** 
 108              		.loc 1 264 2 is_stmt 1 view .LVU27
 268:../freertos/portable/MemMang/heap_2.c **** 	pxFirstFreeBlock->xBlockSize = configADJUSTED_HEAP_SIZE;
 109              		.loc 1 268 2 view .LVU28
 269:../freertos/portable/MemMang/heap_2.c **** 	pxFirstFreeBlock->pxNextFreeBlock = &xEnd;
 110              		.loc 1 269 2 view .LVU29
 111              	.LVL4:
 269:../freertos/portable/MemMang/heap_2.c **** 	pxFirstFreeBlock->pxNextFreeBlock = &xEnd;
 112              		.loc 1 269 2 is_stmt 0 view .LVU30
 113              	.LBE7:
 114              	.LBE8:
 131:../freertos/portable/MemMang/heap_2.c **** 		}
ARM GAS  /tmp/ccyo2WKu.s 			page 8


 115              		.loc 1 131 4 is_stmt 1 view .LVU31
 116              	@ ../freertos/portable/MemMang/heap_2.c:131: 			xHeapHasBeenInitialised = pdTRUE;
 131:../freertos/portable/MemMang/heap_2.c **** 		}
 117              		.loc 1 131 28 is_stmt 0 view .LVU32
 118 002a 9A60     		str	r2, [r3, #8]	@ tmp154, xHeapHasBeenInitialised
 119              	.L2:
 136:../freertos/portable/MemMang/heap_2.c **** 		{
 120              		.loc 1 136 3 is_stmt 1 view .LVU33
 121              	@ ../freertos/portable/MemMang/heap_2.c:136: 		if( xWantedSize > 0 )
 136:../freertos/portable/MemMang/heap_2.c **** 		{
 122              		.loc 1 136 5 is_stmt 0 view .LVU34
 123 002c 2CB1     		cbz	r4, .L3	@ xWantedSize,
 138:../freertos/portable/MemMang/heap_2.c **** 
 124              		.loc 1 138 4 is_stmt 1 view .LVU35
 125              	@ ../freertos/portable/MemMang/heap_2.c:138: 			xWantedSize += heapSTRUCT_SIZE;
 138:../freertos/portable/MemMang/heap_2.c **** 
 126              		.loc 1 138 16 is_stmt 0 view .LVU36
 127 002e 0834     		adds	r4, r4, #8	@ xWantedSize, xWantedSize,
 128              	.LVL5:
 141:../freertos/portable/MemMang/heap_2.c **** 			{
 129              		.loc 1 141 4 is_stmt 1 view .LVU37
 130              	@ ../freertos/portable/MemMang/heap_2.c:141: 			if( ( xWantedSize & portBYTE_ALIGNMENT_MASK ) != 0 
 141:../freertos/portable/MemMang/heap_2.c **** 			{
 131              		.loc 1 141 6 is_stmt 0 view .LVU38
 132 0030 6207     		lsls	r2, r4, #29	@, xWantedSize,
 144:../freertos/portable/MemMang/heap_2.c **** 			}
 133              		.loc 1 144 5 is_stmt 1 view .LVU39
 134              	@ ../freertos/portable/MemMang/heap_2.c:144: 				xWantedSize += ( portBYTE_ALIGNMENT - ( xWantedSiz
 144:../freertos/portable/MemMang/heap_2.c **** 			}
 135              		.loc 1 144 17 is_stmt 0 view .LVU40
 136 0032 1CBF     		itt	ne
 137 0034 24F00704 		bicne	r4, r4, #7	@ _3, xWantedSize,
 138              	.LVL6:
 144:../freertos/portable/MemMang/heap_2.c **** 			}
 139              		.loc 1 144 17 view .LVU41
 140 0038 0834     		addne	r4, r4, #8	@ xWantedSize, _3,
 141              	.LVL7:
 142              	.L3:
 148:../freertos/portable/MemMang/heap_2.c **** 		{
 143              		.loc 1 148 3 is_stmt 1 view .LVU42
 144              	@ ../freertos/portable/MemMang/heap_2.c:148: 		if( ( xWantedSize > 0 ) && ( xWantedSize < configADJ
 148:../freertos/portable/MemMang/heap_2.c **** 		{
 145              		.loc 1 148 5 is_stmt 0 view .LVU43
 146 003a 44F2F672 		movw	r2, #18422	@ tmp157,
 147              	@ ../freertos/portable/MemMang/heap_2.c:148: 		if( ( xWantedSize > 0 ) && ( xWantedSize < configADJ
 148:../freertos/portable/MemMang/heap_2.c **** 		{
 148              		.loc 1 148 27 view .LVU44
 149 003e 611E     		subs	r1, r4, #1	@ tmp156, xWantedSize,
 150              	@ ../freertos/portable/MemMang/heap_2.c:148: 		if( ( xWantedSize > 0 ) && ( xWantedSize < configADJ
 148:../freertos/portable/MemMang/heap_2.c **** 		{
 151              		.loc 1 148 5 view .LVU45
 152 0040 9142     		cmp	r1, r2	@ tmp156, tmp157
 153 0042 29D8     		bhi	.L11		@,
 152:../freertos/portable/MemMang/heap_2.c **** 			pxBlock = xStart.pxNextFreeBlock;
 154              		.loc 1 152 4 is_stmt 1 view .LVU46
 155              	.LVL8:
 153:../freertos/portable/MemMang/heap_2.c **** 			while( ( pxBlock->xBlockSize < xWantedSize ) && ( pxBlock->pxNextFreeBlock != NULL ) )
ARM GAS  /tmp/ccyo2WKu.s 			page 9


 156              		.loc 1 153 4 view .LVU47
 157              	@ ../freertos/portable/MemMang/heap_2.c:153: 			pxBlock = xStart.pxNextFreeBlock;
 153:../freertos/portable/MemMang/heap_2.c **** 			while( ( pxBlock->xBlockSize < xWantedSize ) && ( pxBlock->pxNextFreeBlock != NULL ) )
 158              		.loc 1 153 12 is_stmt 0 view .LVU48
 159 0044 1B68     		ldr	r3, [r3]	@ pxBlock, xStart.pxNextFreeBlock
 160              	.LVL9:
 154:../freertos/portable/MemMang/heap_2.c **** 			{
 161              		.loc 1 154 4 is_stmt 1 view .LVU49
 162              	@ ../freertos/portable/MemMang/heap_2.c:152: 			pxPreviousBlock = &xStart;
 152:../freertos/portable/MemMang/heap_2.c **** 			pxBlock = xStart.pxNextFreeBlock;
 163              		.loc 1 152 20 is_stmt 0 view .LVU50
 164 0046 1548     		ldr	r0, .L19	@ pxPreviousBlock,
 165              	.LVL10:
 166              	.L6:
 154:../freertos/portable/MemMang/heap_2.c **** 			{
 167              		.loc 1 154 49 is_stmt 1 view .LVU51
 168              	@ ../freertos/portable/MemMang/heap_2.c:154: 			while( ( pxBlock->xBlockSize < xWantedSize ) && ( p
 154:../freertos/portable/MemMang/heap_2.c **** 			{
 169              		.loc 1 154 20 is_stmt 0 view .LVU52
 170 0048 5968     		ldr	r1, [r3, #4]	@ _5, pxBlock_20->xBlockSize
 171              	@ ../freertos/portable/MemMang/heap_2.c:154: 			while( ( pxBlock->xBlockSize < xWantedSize ) && ( p
 154:../freertos/portable/MemMang/heap_2.c **** 			{
 172              		.loc 1 154 49 view .LVU53
 173 004a A142     		cmp	r1, r4	@ _5, xWantedSize
 174 004c 01D2     		bcs	.L5		@,
 175              	@ ../freertos/portable/MemMang/heap_2.c:154: 			while( ( pxBlock->xBlockSize < xWantedSize ) && ( p
 154:../freertos/portable/MemMang/heap_2.c **** 			{
 176              		.loc 1 154 61 discriminator 1 view .LVU54
 177 004e 1A68     		ldr	r2, [r3]	@ _6, pxBlock_20->pxNextFreeBlock
 178              	@ ../freertos/portable/MemMang/heap_2.c:154: 			while( ( pxBlock->xBlockSize < xWantedSize ) && ( p
 154:../freertos/portable/MemMang/heap_2.c **** 			{
 179              		.loc 1 154 49 discriminator 1 view .LVU55
 180 0050 FAB9     		cbnz	r2, .L10	@ _6,
 181              	.L5:
 161:../freertos/portable/MemMang/heap_2.c **** 			{
 182              		.loc 1 161 4 is_stmt 1 view .LVU56
 183              	@ ../freertos/portable/MemMang/heap_2.c:161: 			if( pxBlock != &xEnd )
 161:../freertos/portable/MemMang/heap_2.c **** 			{
 184              		.loc 1 161 6 is_stmt 0 view .LVU57
 185 0052 144A     		ldr	r2, .L19+8	@ tmp160,
 186 0054 9342     		cmp	r3, r2	@ pxBlock, tmp160
 187 0056 1FD0     		beq	.L11		@,
 165:../freertos/portable/MemMang/heap_2.c **** 
 188              		.loc 1 165 5 is_stmt 1 view .LVU58
 189              	@ ../freertos/portable/MemMang/heap_2.c:165: 				pvReturn = ( void * ) ( ( ( uint8_t * ) pxPrevious
 165:../freertos/portable/MemMang/heap_2.c **** 
 190              		.loc 1 165 14 is_stmt 0 view .LVU59
 191 0058 0568     		ldr	r5, [r0]	@ pxPreviousBlock_21->pxNextFreeBlock, pxPreviousBlock_21->pxNextFreeBlock
 192              	@ ../freertos/portable/MemMang/heap_2.c:169: 				pxPreviousBlock->pxNextFreeBlock = pxBlock->pxNext
 169:../freertos/portable/MemMang/heap_2.c **** 
 193              		.loc 1 169 47 view .LVU60
 194 005a 1E68     		ldr	r6, [r3]	@ _8, pxBlock_20->pxNextFreeBlock
 195              	@ ../freertos/portable/MemMang/heap_2.c:172: 				if( ( pxBlock->xBlockSize - xWantedSize ) > heapMI
 172:../freertos/portable/MemMang/heap_2.c **** 				{
 196              		.loc 1 172 31 view .LVU61
 197 005c 091B     		subs	r1, r1, r4	@ _10, _5, xWantedSize
 198              	@ ../freertos/portable/MemMang/heap_2.c:172: 				if( ( pxBlock->xBlockSize - xWantedSize ) > heapMI
ARM GAS  /tmp/ccyo2WKu.s 			page 10


 172:../freertos/portable/MemMang/heap_2.c **** 				{
 199              		.loc 1 172 7 view .LVU62
 200 005e 1029     		cmp	r1, #16	@ _10,
 201              	@ ../freertos/portable/MemMang/heap_2.c:165: 				pvReturn = ( void * ) ( ( ( uint8_t * ) pxPrevious
 165:../freertos/portable/MemMang/heap_2.c **** 
 202              		.loc 1 165 14 view .LVU63
 203 0060 05F10805 		add	r5, r5, #8	@ <retval>, pxPreviousBlock_21->pxNextFreeBlock,
 204              	.LVL11:
 169:../freertos/portable/MemMang/heap_2.c **** 
 205              		.loc 1 169 5 is_stmt 1 view .LVU64
 206              	@ ../freertos/portable/MemMang/heap_2.c:169: 				pxPreviousBlock->pxNextFreeBlock = pxBlock->pxNext
 169:../freertos/portable/MemMang/heap_2.c **** 
 207              		.loc 1 169 38 is_stmt 0 view .LVU65
 208 0064 0660     		str	r6, [r0]	@ _8, pxPreviousBlock_21->pxNextFreeBlock
 172:../freertos/portable/MemMang/heap_2.c **** 				{
 209              		.loc 1 172 5 is_stmt 1 view .LVU66
 210              	@ ../freertos/portable/MemMang/heap_2.c:172: 				if( ( pxBlock->xBlockSize - xWantedSize ) > heapMI
 172:../freertos/portable/MemMang/heap_2.c **** 				{
 211              		.loc 1 172 7 is_stmt 0 view .LVU67
 212 0066 0BD9     		bls	.L7		@,
 177:../freertos/portable/MemMang/heap_2.c **** 
 213              		.loc 1 177 6 is_stmt 1 view .LVU68
 214              	@ ../freertos/portable/MemMang/heap_2.c:177: 					pxNewBlockLink = ( void * ) ( ( ( uint8_t * ) pxB
 177:../freertos/portable/MemMang/heap_2.c **** 
 215              		.loc 1 177 21 is_stmt 0 view .LVU69
 216 0068 1819     		adds	r0, r3, r4	@ pxNewBlockLink, pxBlock, xWantedSize
 217              	.LVL12:
 181:../freertos/portable/MemMang/heap_2.c **** 					pxBlock->xBlockSize = xWantedSize;
 218              		.loc 1 181 6 is_stmt 1 view .LVU70
 219              	@ ../freertos/portable/MemMang/heap_2.c:181: 					pxNewBlockLink->xBlockSize = pxBlock->xBlockSize 
 181:../freertos/portable/MemMang/heap_2.c **** 					pxBlock->xBlockSize = xWantedSize;
 220              		.loc 1 181 33 is_stmt 0 view .LVU71
 221 006a 4160     		str	r1, [r0, #4]	@ _10, pxNewBlockLink_38->xBlockSize
 182:../freertos/portable/MemMang/heap_2.c **** 
 222              		.loc 1 182 6 is_stmt 1 view .LVU72
 223              	@ ../freertos/portable/MemMang/heap_2.c:182: 					pxBlock->xBlockSize = xWantedSize;
 182:../freertos/portable/MemMang/heap_2.c **** 
 224              		.loc 1 182 26 is_stmt 0 view .LVU73
 225 006c 5C60     		str	r4, [r3, #4]	@ xWantedSize, pxBlock_20->xBlockSize
 226              	.LBB9:
 185:../freertos/portable/MemMang/heap_2.c **** 				}
 227              		.loc 1 185 6 is_stmt 1 view .LVU74
 185:../freertos/portable/MemMang/heap_2.c **** 				}
 228              		.loc 1 185 6 view .LVU75
 185:../freertos/portable/MemMang/heap_2.c **** 				}
 229              		.loc 1 185 6 view .LVU76
 230 006e 4468     		ldr	r4, [r0, #4]	@ xBlockSize, pxNewBlockLink_38->xBlockSize
 231              	.LVL13:
 185:../freertos/portable/MemMang/heap_2.c **** 				}
 232              		.loc 1 185 6 view .LVU77
 185:../freertos/portable/MemMang/heap_2.c **** 				}
 233              		.loc 1 185 6 is_stmt 0 view .LVU78
 234 0070 0C3A     		subs	r2, r2, #12	@ _13, tmp160,
 235              	.LVL14:
 236              	.L8:
 185:../freertos/portable/MemMang/heap_2.c **** 				}
 237              		.loc 1 185 6 is_stmt 1 discriminator 1 view .LVU79
ARM GAS  /tmp/ccyo2WKu.s 			page 11


 238 0072 1146     		mov	r1, r2	@ pxIterator, _13
 239 0074 1268     		ldr	r2, [r2]	@ _13, pxIterator_23->pxNextFreeBlock
 240              	.LVL15:
 185:../freertos/portable/MemMang/heap_2.c **** 				}
 241              		.loc 1 185 6 is_stmt 0 discriminator 1 view .LVU80
 242 0076 5668     		ldr	r6, [r2, #4]	@ _13->xBlockSize, _13->xBlockSize
 243 0078 A642     		cmp	r6, r4	@ _13->xBlockSize, xBlockSize
 244 007a FAD3     		bcc	.L8		@,
 185:../freertos/portable/MemMang/heap_2.c **** 				}
 245              		.loc 1 185 6 is_stmt 1 discriminator 4 view .LVU81
 246 007c 0260     		str	r2, [r0]	@ _13, pxNewBlockLink_38->pxNextFreeBlock
 185:../freertos/portable/MemMang/heap_2.c **** 				}
 247              		.loc 1 185 6 discriminator 4 view .LVU82
 248 007e 0860     		str	r0, [r1]	@ pxNewBlockLink, pxIterator_58->pxNextFreeBlock
 249              	.LVL16:
 250              	.L7:
 185:../freertos/portable/MemMang/heap_2.c **** 				}
 251              		.loc 1 185 6 is_stmt 0 discriminator 4 view .LVU83
 252              	.LBE9:
 185:../freertos/portable/MemMang/heap_2.c **** 				}
 253              		.loc 1 185 54 is_stmt 1 discriminator 5 view .LVU84
 188:../freertos/portable/MemMang/heap_2.c **** 			}
 254              		.loc 1 188 5 view .LVU85
 255              	@ ../freertos/portable/MemMang/heap_2.c:188: 				xFreeBytesRemaining -= pxBlock->xBlockSize;
 188:../freertos/portable/MemMang/heap_2.c **** 			}
 256              		.loc 1 188 25 is_stmt 0 view .LVU86
 257 0080 0949     		ldr	r1, .L19+12	@ tmp163,
 258 0082 5B68     		ldr	r3, [r3, #4]	@ pxBlock_20->xBlockSize, pxBlock_20->xBlockSize
 259              	.LVL17:
 188:../freertos/portable/MemMang/heap_2.c **** 			}
 260              		.loc 1 188 25 view .LVU87
 261 0084 0A68     		ldr	r2, [r1]	@ xFreeBytesRemaining, xFreeBytesRemaining
 262 0086 D21A     		subs	r2, r2, r3	@ tmp165, xFreeBytesRemaining, pxBlock_20->xBlockSize
 263 0088 0A60     		str	r2, [r1]	@ tmp165, xFreeBytesRemaining
 264              	.LVL18:
 265              	.L4:
 192:../freertos/portable/MemMang/heap_2.c **** 	}
 266              		.loc 1 192 39 is_stmt 1 view .LVU88
 194:../freertos/portable/MemMang/heap_2.c **** 
 267              		.loc 1 194 2 view .LVU89
 268              	@ ../freertos/portable/MemMang/heap_2.c:194: 	( void ) xTaskResumeAll();
 194:../freertos/portable/MemMang/heap_2.c **** 
 269              		.loc 1 194 11 is_stmt 0 view .LVU90
 270 008a FFF7FEFF 		bl	xTaskResumeAll		@
 271              	.LVL19:
 206:../freertos/portable/MemMang/heap_2.c **** }
 272              		.loc 1 206 2 is_stmt 1 view .LVU91
 273              	@ ../freertos/portable/MemMang/heap_2.c:207: }
 207:../freertos/portable/MemMang/heap_2.c **** /*-----------------------------------------------------------*/
 274              		.loc 1 207 1 is_stmt 0 view .LVU92
 275 008e 2846     		mov	r0, r5	@, <retval>
 276 0090 70BD     		pop	{r4, r5, r6, pc}	@
 277              	.LVL20:
 278              	.L10:
 279              	@ ../freertos/portable/MemMang/heap_2.c:156: 				pxPreviousBlock = pxBlock;
 156:../freertos/portable/MemMang/heap_2.c **** 				pxBlock = pxBlock->pxNextFreeBlock;
 280              		.loc 1 156 21 view .LVU93
ARM GAS  /tmp/ccyo2WKu.s 			page 12


 281 0092 1846     		mov	r0, r3	@ pxPreviousBlock, pxBlock
 282              	@ ../freertos/portable/MemMang/heap_2.c:157: 				pxBlock = pxBlock->pxNextFreeBlock;
 157:../freertos/portable/MemMang/heap_2.c **** 			}
 283              		.loc 1 157 13 view .LVU94
 284 0094 1346     		mov	r3, r2	@ pxBlock, _6
 285              	.LVL21:
 157:../freertos/portable/MemMang/heap_2.c **** 			}
 286              		.loc 1 157 13 view .LVU95
 287 0096 D7E7     		b	.L6		@
 288              	.LVL22:
 289              	.L11:
 290              	@ ../freertos/portable/MemMang/heap_2.c:122: void *pvReturn = NULL;
 122:../freertos/portable/MemMang/heap_2.c **** 
 291              		.loc 1 122 7 view .LVU96
 292 0098 0025     		movs	r5, #0	@ <retval>,
 293 009a F6E7     		b	.L4		@
 294              	.L20:
 295              		.align	2
 296              	.L19:
 297 009c 00000000 		.word	.LANCHOR0
 298 00a0 1C000000 		.word	ucHeap+8
 299 00a4 0C000000 		.word	.LANCHOR0+12
 300 00a8 00000000 		.word	.LANCHOR1
 301              		.cfi_endproc
 302              	.LFE5:
 303              		.size	pvPortMalloc, .-pvPortMalloc
 304              		.align	1
 305              		.global	vPortFree
 306              		.syntax unified
 307              		.thumb
 308              		.thumb_func
 309              		.type	vPortFree, %function
 310              	vPortFree:
 311              	.LVL23:
 312              	.LFB6:
 211:../freertos/portable/MemMang/heap_2.c **** uint8_t *puc = ( uint8_t * ) pv;
 313              		.loc 1 211 1 is_stmt 1 view -0
 314              		.cfi_startproc
 315              		@ args = 0, pretend = 0, frame = 0
 316              		@ frame_needed = 0, uses_anonymous_args = 0
 212:../freertos/portable/MemMang/heap_2.c **** BlockLink_t *pxLink;
 317              		.loc 1 212 1 view .LVU98
 213:../freertos/portable/MemMang/heap_2.c **** 
 318              		.loc 1 213 1 view .LVU99
 215:../freertos/portable/MemMang/heap_2.c **** 	{
 319              		.loc 1 215 2 view .LVU100
 320              	@ ../freertos/portable/MemMang/heap_2.c:211: {
 211:../freertos/portable/MemMang/heap_2.c **** uint8_t *puc = ( uint8_t * ) pv;
 321              		.loc 1 211 1 is_stmt 0 view .LVU101
 322 00ac 38B5     		push	{r3, r4, r5, lr}	@
 323              	.LCFI1:
 324              		.cfi_def_cfa_offset 16
 325              		.cfi_offset 3, -16
 326              		.cfi_offset 4, -12
 327              		.cfi_offset 5, -8
 328              		.cfi_offset 14, -4
 329              	@ ../freertos/portable/MemMang/heap_2.c:215: 	if( pv != NULL )
ARM GAS  /tmp/ccyo2WKu.s 			page 13


 215:../freertos/portable/MemMang/heap_2.c **** 	{
 330              		.loc 1 215 4 view .LVU102
 331 00ae 0446     		mov	r4, r0	@ pv, tmp128
 332 00b0 B0B1     		cbz	r0, .L21	@ pv,
 219:../freertos/portable/MemMang/heap_2.c **** 
 333              		.loc 1 219 3 is_stmt 1 view .LVU103
 334              	@ ../freertos/portable/MemMang/heap_2.c:219: 		puc -= heapSTRUCT_SIZE;
 219:../freertos/portable/MemMang/heap_2.c **** 
 335              		.loc 1 219 7 is_stmt 0 view .LVU104
 336 00b2 A0F10805 		sub	r5, r0, #8	@ puc, pv,
 337              	.LVL24:
 223:../freertos/portable/MemMang/heap_2.c **** 
 338              		.loc 1 223 3 is_stmt 1 view .LVU105
 225:../freertos/portable/MemMang/heap_2.c **** 		{
 339              		.loc 1 225 3 view .LVU106
 340 00b6 FFF7FEFF 		bl	vTaskSuspendAll		@
 341              	.LVL25:
 342              	.LBB10:
 228:../freertos/portable/MemMang/heap_2.c **** 			xFreeBytesRemaining += pxLink->xBlockSize;
 343              		.loc 1 228 4 view .LVU107
 228:../freertos/portable/MemMang/heap_2.c **** 			xFreeBytesRemaining += pxLink->xBlockSize;
 344              		.loc 1 228 4 view .LVU108
 228:../freertos/portable/MemMang/heap_2.c **** 			xFreeBytesRemaining += pxLink->xBlockSize;
 345              		.loc 1 228 4 view .LVU109
 346 00ba 54F8041C 		ldr	r1, [r4, #-4]	@ xBlockSize, MEM[(struct BlockLink_t *)pv_9(D) + 4294967288B].xBlockSize
 347              	.LVL26:
 228:../freertos/portable/MemMang/heap_2.c **** 			xFreeBytesRemaining += pxLink->xBlockSize;
 348              		.loc 1 228 4 view .LVU110
 228:../freertos/portable/MemMang/heap_2.c **** 			xFreeBytesRemaining += pxLink->xBlockSize;
 349              		.loc 1 228 4 is_stmt 0 view .LVU111
 350 00be 094B     		ldr	r3, .L25	@ _1,
 351              	.LVL27:
 352              	.L23:
 228:../freertos/portable/MemMang/heap_2.c **** 			xFreeBytesRemaining += pxLink->xBlockSize;
 353              		.loc 1 228 4 is_stmt 1 discriminator 1 view .LVU112
 354 00c0 1A46     		mov	r2, r3	@ pxIterator, _1
 355 00c2 1B68     		ldr	r3, [r3]	@ _1, pxIterator_7->pxNextFreeBlock
 356              	.LVL28:
 228:../freertos/portable/MemMang/heap_2.c **** 			xFreeBytesRemaining += pxLink->xBlockSize;
 357              		.loc 1 228 4 is_stmt 0 discriminator 1 view .LVU113
 358 00c4 5868     		ldr	r0, [r3, #4]	@ _1->xBlockSize, _1->xBlockSize
 359 00c6 8842     		cmp	r0, r1	@ _1->xBlockSize, xBlockSize
 360 00c8 FAD3     		bcc	.L23		@,
 228:../freertos/portable/MemMang/heap_2.c **** 			xFreeBytesRemaining += pxLink->xBlockSize;
 361              		.loc 1 228 4 is_stmt 1 discriminator 4 view .LVU114
 362 00ca 44F8083C 		str	r3, [r4, #-8]	@ _1, MEM[(struct BlockLink_t *)pv_9(D) + 4294967288B].pxNextFreeBlock
 228:../freertos/portable/MemMang/heap_2.c **** 			xFreeBytesRemaining += pxLink->xBlockSize;
 363              		.loc 1 228 4 discriminator 4 view .LVU115
 364 00ce 1560     		str	r5, [r2]	@ puc, pxIterator_4->pxNextFreeBlock
 365              	.LBE10:
 228:../freertos/portable/MemMang/heap_2.c **** 			xFreeBytesRemaining += pxLink->xBlockSize;
 366              		.loc 1 228 62 discriminator 4 view .LVU116
 229:../freertos/portable/MemMang/heap_2.c **** 			traceFREE( pv, pxLink->xBlockSize );
 367              		.loc 1 229 4 view .LVU117
 368              	@ ../freertos/portable/MemMang/heap_2.c:229: 			xFreeBytesRemaining += pxLink->xBlockSize;
 229:../freertos/portable/MemMang/heap_2.c **** 			traceFREE( pv, pxLink->xBlockSize );
 369              		.loc 1 229 24 is_stmt 0 view .LVU118
ARM GAS  /tmp/ccyo2WKu.s 			page 14


 370 00d0 054A     		ldr	r2, .L25+4	@ tmp124,
 371              	.LVL29:
 229:../freertos/portable/MemMang/heap_2.c **** 			traceFREE( pv, pxLink->xBlockSize );
 372              		.loc 1 229 24 view .LVU119
 373 00d2 1368     		ldr	r3, [r2]	@ xFreeBytesRemaining, xFreeBytesRemaining
 374 00d4 0B44     		add	r3, r3, r1	@ tmp126, xBlockSize
 375 00d6 1360     		str	r3, [r2]	@ tmp126, xFreeBytesRemaining
 230:../freertos/portable/MemMang/heap_2.c **** 		}
 376              		.loc 1 230 39 is_stmt 1 view .LVU120
 232:../freertos/portable/MemMang/heap_2.c **** 	}
 377              		.loc 1 232 3 view .LVU121
 378              	@ ../freertos/portable/MemMang/heap_2.c:234: }
 234:../freertos/portable/MemMang/heap_2.c **** /*-----------------------------------------------------------*/
 379              		.loc 1 234 1 is_stmt 0 view .LVU122
 380 00d8 BDE83840 		pop	{r3, r4, r5, lr}	@
 381              	.LCFI2:
 382              		.cfi_remember_state
 383              		.cfi_restore 14
 384              		.cfi_restore 5
 385              		.cfi_restore 4
 386              		.cfi_restore 3
 387              		.cfi_def_cfa_offset 0
 388              	.LVL30:
 389              	@ ../freertos/portable/MemMang/heap_2.c:232: 		( void ) xTaskResumeAll();
 232:../freertos/portable/MemMang/heap_2.c **** 	}
 390              		.loc 1 232 12 view .LVU123
 391 00dc FFF7FEBF 		b	xTaskResumeAll		@
 392              	.LVL31:
 393              	.L21:
 394              	.LCFI3:
 395              		.cfi_restore_state
 396              	@ ../freertos/portable/MemMang/heap_2.c:234: }
 234:../freertos/portable/MemMang/heap_2.c **** /*-----------------------------------------------------------*/
 397              		.loc 1 234 1 view .LVU124
 398 00e0 38BD     		pop	{r3, r4, r5, pc}	@
 399              	.L26:
 400 00e2 00BF     		.align	2
 401              	.L25:
 402 00e4 00000000 		.word	.LANCHOR0
 403 00e8 00000000 		.word	.LANCHOR1
 404              		.cfi_endproc
 405              	.LFE6:
 406              		.size	vPortFree, .-vPortFree
 407              		.align	1
 408              		.global	xPortGetFreeHeapSize
 409              		.syntax unified
 410              		.thumb
 411              		.thumb_func
 412              		.type	xPortGetFreeHeapSize, %function
 413              	xPortGetFreeHeapSize:
 414              	.LFB7:
 238:../freertos/portable/MemMang/heap_2.c **** 	return xFreeBytesRemaining;
 415              		.loc 1 238 1 is_stmt 1 view -0
 416              		.cfi_startproc
 417              		@ args = 0, pretend = 0, frame = 0
 418              		@ frame_needed = 0, uses_anonymous_args = 0
 419              		@ link register save eliminated.
ARM GAS  /tmp/ccyo2WKu.s 			page 15


 239:../freertos/portable/MemMang/heap_2.c **** }
 420              		.loc 1 239 2 view .LVU126
 421              	@ ../freertos/portable/MemMang/heap_2.c:240: }
 240:../freertos/portable/MemMang/heap_2.c **** /*-----------------------------------------------------------*/
 422              		.loc 1 240 1 is_stmt 0 view .LVU127
 423 00ec 014B     		ldr	r3, .L28	@ tmp116,
 424 00ee 1868     		ldr	r0, [r3]	@, xFreeBytesRemaining
 425 00f0 7047     		bx	lr	@
 426              	.L29:
 427 00f2 00BF     		.align	2
 428              	.L28:
 429 00f4 00000000 		.word	.LANCHOR1
 430              		.cfi_endproc
 431              	.LFE7:
 432              		.size	xPortGetFreeHeapSize, .-xPortGetFreeHeapSize
 433              		.align	1
 434              		.global	vPortInitialiseBlocks
 435              		.syntax unified
 436              		.thumb
 437              		.thumb_func
 438              		.type	vPortInitialiseBlocks, %function
 439              	vPortInitialiseBlocks:
 440              	.LFB8:
 244:../freertos/portable/MemMang/heap_2.c **** 	/* This just exists to keep the linker quiet. */
 441              		.loc 1 244 1 is_stmt 1 view -0
 442              		.cfi_startproc
 443              		@ args = 0, pretend = 0, frame = 0
 444              		@ frame_needed = 0, uses_anonymous_args = 0
 445              		@ link register save eliminated.
 246:../freertos/portable/MemMang/heap_2.c **** /*-----------------------------------------------------------*/
 446              		.loc 1 246 1 view .LVU129
 447 00f8 7047     		bx	lr	@
 448              		.cfi_endproc
 449              	.LFE8:
 450              		.size	vPortInitialiseBlocks, .-vPortInitialiseBlocks
 451              		.data
 452              		.align	2
 453              		.set	.LANCHOR1,. + 0
 454              		.type	xFreeBytesRemaining, %object
 455              		.size	xFreeBytesRemaining, 4
 456              	xFreeBytesRemaining:
 457 0000 F8470000 		.word	18424
 458              		.bss
 459              		.align	2
 460              		.set	.LANCHOR0,. + 0
 461              		.type	xStart, %object
 462              		.size	xStart, 8
 463              	xStart:
 464 0000 00000000 		.space	8
 464      00000000 
 465              		.type	xHeapHasBeenInitialised.0, %object
 466              		.size	xHeapHasBeenInitialised.0, 4
 467              	xHeapHasBeenInitialised.0:
 468 0008 00000000 		.space	4
 469              		.type	xEnd, %object
 470              		.size	xEnd, 8
 471              	xEnd:
ARM GAS  /tmp/ccyo2WKu.s 			page 16


 472 000c 00000000 		.space	8
 472      00000000 
 473              		.type	ucHeap, %object
 474              		.size	ucHeap, 18432
 475              	ucHeap:
 476 0014 00000000 		.space	18432
 476      00000000 
 476      00000000 
 476      00000000 
 476      00000000 
 477              		.text
 478              	.Letext0:
 479              		.file 2 "/usr/lib/gcc/arm-none-eabi/13.2.0/include/stddef.h"
 480              		.file 3 "/usr/arm-none-eabi/include/machine/_default_types.h"
 481              		.file 4 "/usr/arm-none-eabi/include/sys/_stdint.h"
 482              		.file 5 "../freertos/portable/GCC/ARM_CM3/portmacro.h"
 483              		.file 6 "../freertos/include/task.h"
 484 00fa 00BF     		.section	.debug_info,"",%progbits
 485              	.Ldebug_info0:
 486 0000 A8030000 		.4byte	0x3a8
 487 0004 0200     		.2byte	0x2
 488 0006 00000000 		.4byte	.Ldebug_abbrev0
 489 000a 04       		.byte	0x4
 490 000b 01       		.uleb128 0x1
 491 000c 49010000 		.4byte	.LASF39
 492 0010 0C       		.byte	0xc
 493 0011 CD000000 		.4byte	.LASF40
 494 0015 5E000000 		.4byte	.LASF41
 495 0019 00000000 		.4byte	.Ltext0
 496 001d FA000000 		.4byte	.Letext0
 497 0021 00000000 		.4byte	.Ldebug_line0
 498 0025 02       		.uleb128 0x2
 499 0026 08       		.byte	0x8
 500 0027 07       		.byte	0x7
 501 0028 2E020000 		.4byte	.LASF0
 502 002c 02       		.uleb128 0x2
 503 002d 04       		.byte	0x4
 504 002e 07       		.byte	0x7
 505 002f 21020000 		.4byte	.LASF1
 506 0033 03       		.uleb128 0x3
 507 0034 0A000000 		.4byte	.LASF5
 508 0038 02       		.byte	0x2
 509 0039 D6       		.byte	0xd6
 510 003a 17       		.byte	0x17
 511 003b 2C000000 		.4byte	0x2c
 512 003f 04       		.uleb128 0x4
 513 0040 04       		.byte	0x4
 514 0041 05       		.byte	0x5
 515 0042 696E7400 		.ascii	"int\000"
 516 0046 02       		.uleb128 0x2
 517 0047 08       		.byte	0x8
 518 0048 05       		.byte	0x5
 519 0049 68020000 		.4byte	.LASF2
 520 004d 02       		.uleb128 0x2
 521 004e 08       		.byte	0x8
 522 004f 04       		.byte	0x4
 523 0050 DA020000 		.4byte	.LASF3
ARM GAS  /tmp/ccyo2WKu.s 			page 17


 524 0054 02       		.uleb128 0x2
 525 0055 01       		.byte	0x1
 526 0056 06       		.byte	0x6
 527 0057 E6020000 		.4byte	.LASF4
 528 005b 03       		.uleb128 0x3
 529 005c 00000000 		.4byte	.LASF6
 530 0060 03       		.byte	0x3
 531 0061 2B       		.byte	0x2b
 532 0062 18       		.byte	0x18
 533 0063 67000000 		.4byte	0x67
 534 0067 02       		.uleb128 0x2
 535 0068 01       		.byte	0x1
 536 0069 08       		.byte	0x8
 537 006a F3000000 		.4byte	.LASF7
 538 006e 02       		.uleb128 0x2
 539 006f 02       		.byte	0x2
 540 0070 05       		.byte	0x5
 541 0071 A1020000 		.4byte	.LASF8
 542 0075 03       		.uleb128 0x3
 543 0076 BB010000 		.4byte	.LASF9
 544 007a 03       		.byte	0x3
 545 007b 39       		.byte	0x39
 546 007c 19       		.byte	0x19
 547 007d 81000000 		.4byte	0x81
 548 0081 02       		.uleb128 0x2
 549 0082 02       		.byte	0x2
 550 0083 07       		.byte	0x7
 551 0084 1E010000 		.4byte	.LASF10
 552 0088 02       		.uleb128 0x2
 553 0089 04       		.byte	0x4
 554 008a 05       		.byte	0x5
 555 008b D1020000 		.4byte	.LASF11
 556 008f 03       		.uleb128 0x3
 557 0090 E0010000 		.4byte	.LASF12
 558 0094 03       		.byte	0x3
 559 0095 4F       		.byte	0x4f
 560 0096 19       		.byte	0x19
 561 0097 9B000000 		.4byte	0x9b
 562 009b 02       		.uleb128 0x2
 563 009c 04       		.byte	0x4
 564 009d 07       		.byte	0x7
 565 009e 0C010000 		.4byte	.LASF13
 566 00a2 05       		.uleb128 0x5
 567 00a3 04       		.byte	0x4
 568 00a4 02       		.uleb128 0x2
 569 00a5 01       		.byte	0x1
 570 00a6 08       		.byte	0x8
 571 00a7 82020000 		.4byte	.LASF14
 572 00ab 03       		.uleb128 0x3
 573 00ac 45020000 		.4byte	.LASF15
 574 00b0 04       		.byte	0x4
 575 00b1 18       		.byte	0x18
 576 00b2 13       		.byte	0x13
 577 00b3 5B000000 		.4byte	0x5b
 578 00b7 03       		.uleb128 0x3
 579 00b8 AB020000 		.4byte	.LASF16
 580 00bc 04       		.byte	0x4
ARM GAS  /tmp/ccyo2WKu.s 			page 18


 581 00bd 24       		.byte	0x24
 582 00be 14       		.byte	0x14
 583 00bf 75000000 		.4byte	0x75
 584 00c3 06       		.uleb128 0x6
 585 00c4 B7000000 		.4byte	0xb7
 586 00c8 03       		.uleb128 0x3
 587 00c9 C8020000 		.4byte	.LASF17
 588 00cd 04       		.byte	0x4
 589 00ce 30       		.byte	0x30
 590 00cf 14       		.byte	0x14
 591 00d0 8F000000 		.4byte	0x8f
 592 00d4 03       		.uleb128 0x3
 593 00d5 02030000 		.4byte	.LASF18
 594 00d9 05       		.byte	0x5
 595 00da 38       		.byte	0x38
 596 00db 0E       		.byte	0xe
 597 00dc 88000000 		.4byte	0x88
 598 00e0 07       		.uleb128 0x7
 599 00e1 04       		.byte	0x4
 600 00e2 AB000000 		.4byte	0xab
 601 00e6 08       		.uleb128 0x8
 602 00e7 AB000000 		.4byte	0xab
 603 00eb F7000000 		.4byte	0xf7
 604 00ef 09       		.uleb128 0x9
 605 00f0 2C000000 		.4byte	0x2c
 606 00f4 FF47     		.2byte	0x47ff
 607 00f6 00       		.byte	0
 608 00f7 0A       		.uleb128 0xa
 609 00f8 C6000000 		.4byte	.LASF22
 610 00fc 01       		.byte	0x1
 611 00fd 43       		.byte	0x43
 612 00fe 11       		.byte	0x11
 613 00ff E6000000 		.4byte	0xe6
 614 0103 05       		.byte	0x5
 615 0104 03       		.byte	0x3
 616 0105 14000000 		.4byte	ucHeap
 617 0109 0B       		.uleb128 0xb
 618 010a 36000000 		.4byte	.LASF42
 619 010e 08       		.byte	0x8
 620 010f 01       		.byte	0x1
 621 0110 49       		.byte	0x49
 622 0111 10       		.byte	0x10
 623 0112 35010000 		.4byte	0x135
 624 0116 0C       		.uleb128 0xc
 625 0117 F2020000 		.4byte	.LASF19
 626 011b 01       		.byte	0x1
 627 011c 4B       		.byte	0x4b
 628 011d 17       		.byte	0x17
 629 011e 35010000 		.4byte	0x135
 630 0122 02       		.byte	0x2
 631 0123 23       		.byte	0x23
 632 0124 00       		.uleb128 0
 633 0125 0C       		.uleb128 0xc
 634 0126 01010000 		.4byte	.LASF20
 635 012a 01       		.byte	0x1
 636 012b 4C       		.byte	0x4c
 637 012c 09       		.byte	0x9
ARM GAS  /tmp/ccyo2WKu.s 			page 19


 638 012d 33000000 		.4byte	0x33
 639 0131 02       		.byte	0x2
 640 0132 23       		.byte	0x23
 641 0133 04       		.uleb128 0x4
 642 0134 00       		.byte	0
 643 0135 07       		.uleb128 0x7
 644 0136 04       		.byte	0x4
 645 0137 09010000 		.4byte	0x109
 646 013b 03       		.uleb128 0x3
 647 013c 5C020000 		.4byte	.LASF21
 648 0140 01       		.byte	0x1
 649 0141 4D       		.byte	0x4d
 650 0142 03       		.byte	0x3
 651 0143 09010000 		.4byte	0x109
 652 0147 0D       		.uleb128 0xd
 653 0148 F4010000 		.4byte	.LASF23
 654 014c 01       		.byte	0x1
 655 014d 50       		.byte	0x50
 656 014e 17       		.byte	0x17
 657 014f C3000000 		.4byte	0xc3
 658 0153 08       		.byte	0x8
 659 0154 0A       		.uleb128 0xa
 660 0155 04020000 		.4byte	.LASF24
 661 0159 01       		.byte	0x1
 662 015a 54       		.byte	0x54
 663 015b 14       		.byte	0x14
 664 015c 3B010000 		.4byte	0x13b
 665 0160 05       		.byte	0x5
 666 0161 03       		.byte	0x3
 667 0162 00000000 		.4byte	xStart
 668 0166 0A       		.uleb128 0xa
 669 0167 B6010000 		.4byte	.LASF25
 670 016b 01       		.byte	0x1
 671 016c 54       		.byte	0x54
 672 016d 1C       		.byte	0x1c
 673 016e 3B010000 		.4byte	0x13b
 674 0172 05       		.byte	0x5
 675 0173 03       		.byte	0x3
 676 0174 0C000000 		.4byte	xEnd
 677 0178 0A       		.uleb128 0xa
 678 0179 B4020000 		.4byte	.LASF26
 679 017d 01       		.byte	0x1
 680 017e 58       		.byte	0x58
 681 017f 0F       		.byte	0xf
 682 0180 33000000 		.4byte	0x33
 683 0184 05       		.byte	0x5
 684 0185 03       		.byte	0x3
 685 0186 00000000 		.4byte	xFreeBytesRemaining
 686 018a 0E       		.uleb128 0xe
 687 018b 01       		.byte	0x1
 688 018c 4F000000 		.4byte	.LASF43
 689 0190 06       		.byte	0x6
 690 0191 3805     		.2byte	0x538
 691 0193 0C       		.byte	0xc
 692 0194 01       		.byte	0x1
 693 0195 D4000000 		.4byte	0xd4
 694 0199 01       		.byte	0x1
ARM GAS  /tmp/ccyo2WKu.s 			page 20


 695 019a 0F       		.uleb128 0xf
 696 019b 01       		.byte	0x1
 697 019c 11000000 		.4byte	.LASF44
 698 01a0 06       		.byte	0x6
 699 01a1 0205     		.2byte	0x502
 700 01a3 06       		.byte	0x6
 701 01a4 01       		.byte	0x1
 702 01a5 01       		.byte	0x1
 703 01a6 10       		.uleb128 0x10
 704 01a7 43000000 		.4byte	.LASF45
 705 01ab 01       		.byte	0x1
 706 01ac F9       		.byte	0xf9
 707 01ad 0D       		.byte	0xd
 708 01ae 01       		.byte	0x1
 709 01af 01       		.byte	0x1
 710 01b0 CD010000 		.4byte	0x1cd
 711 01b4 11       		.uleb128 0x11
 712 01b5 B5000000 		.4byte	.LASF27
 713 01b9 01       		.byte	0x1
 714 01ba FB       		.byte	0xfb
 715 01bb 0E       		.byte	0xe
 716 01bc CD010000 		.4byte	0x1cd
 717 01c0 11       		.uleb128 0x11
 718 01c1 87020000 		.4byte	.LASF28
 719 01c5 01       		.byte	0x1
 720 01c6 FC       		.byte	0xfc
 721 01c7 0A       		.byte	0xa
 722 01c8 E0000000 		.4byte	0xe0
 723 01cc 00       		.byte	0
 724 01cd 07       		.uleb128 0x7
 725 01ce 04       		.byte	0x4
 726 01cf 3B010000 		.4byte	0x13b
 727 01d3 12       		.uleb128 0x12
 728 01d4 01       		.byte	0x1
 729 01d5 0B020000 		.4byte	.LASF46
 730 01d9 01       		.byte	0x1
 731 01da F3       		.byte	0xf3
 732 01db 06       		.byte	0x6
 733 01dc 01       		.byte	0x1
 734 01dd F8000000 		.4byte	.LFB8
 735 01e1 FA000000 		.4byte	.LFE8
 736 01e5 02       		.byte	0x2
 737 01e6 7D       		.byte	0x7d
 738 01e7 00       		.sleb128 0
 739 01e8 01       		.byte	0x1
 740 01e9 13       		.uleb128 0x13
 741 01ea 01       		.byte	0x1
 742 01eb 21000000 		.4byte	.LASF47
 743 01ef 01       		.byte	0x1
 744 01f0 ED       		.byte	0xed
 745 01f1 08       		.byte	0x8
 746 01f2 01       		.byte	0x1
 747 01f3 33000000 		.4byte	0x33
 748 01f7 EC000000 		.4byte	.LFB7
 749 01fb F8000000 		.4byte	.LFE7
 750 01ff 02       		.byte	0x2
 751 0200 7D       		.byte	0x7d
ARM GAS  /tmp/ccyo2WKu.s 			page 21


 752 0201 00       		.sleb128 0
 753 0202 01       		.byte	0x1
 754 0203 14       		.uleb128 0x14
 755 0204 01       		.byte	0x1
 756 0205 D6010000 		.4byte	.LASF31
 757 0209 01       		.byte	0x1
 758 020a D2       		.byte	0xd2
 759 020b 06       		.byte	0x6
 760 020c 01       		.byte	0x1
 761 020d AC000000 		.4byte	.LFB6
 762 0211 EC000000 		.4byte	.LFE6
 763 0215 00000000 		.4byte	.LLST9
 764 0219 01       		.byte	0x1
 765 021a A3020000 		.4byte	0x2a3
 766 021e 15       		.uleb128 0x15
 767 021f 707600   		.ascii	"pv\000"
 768 0222 01       		.byte	0x1
 769 0223 D2       		.byte	0xd2
 770 0224 17       		.byte	0x17
 771 0225 A2000000 		.4byte	0xa2
 772 0229 40000000 		.4byte	.LLST10
 773 022d 38000000 		.4byte	.LVUS10
 774 0231 16       		.uleb128 0x16
 775 0232 70756300 		.ascii	"puc\000"
 776 0236 01       		.byte	0x1
 777 0237 D4       		.byte	0xd4
 778 0238 0A       		.byte	0xa
 779 0239 E0000000 		.4byte	0xe0
 780 023d 85000000 		.4byte	.LLST11
 781 0241 7D000000 		.4byte	.LVUS11
 782 0245 17       		.uleb128 0x17
 783 0246 A1000000 		.4byte	.LASF29
 784 024a 01       		.byte	0x1
 785 024b D5       		.byte	0xd5
 786 024c 0E       		.byte	0xe
 787 024d CD010000 		.4byte	0x1cd
 788 0251 C8000000 		.4byte	.LLST12
 789 0255 C4000000 		.4byte	.LVUS12
 790 0259 18       		.uleb128 0x18
 791 025a BA000000 		.4byte	.LBB10
 792 025e D0000000 		.4byte	.LBE10
 793 0262 8F020000 		.4byte	0x28f
 794 0266 17       		.uleb128 0x17
 795 0267 96020000 		.4byte	.LASF30
 796 026b 01       		.byte	0x1
 797 026c E4       		.byte	0xe4
 798 026d 04       		.byte	0x4
 799 026e CD010000 		.4byte	0x1cd
 800 0272 F7000000 		.4byte	.LLST13
 801 0276 F1000000 		.4byte	.LVUS13
 802 027a 17       		.uleb128 0x17
 803 027b 01010000 		.4byte	.LASF20
 804 027f 01       		.byte	0x1
 805 0280 E4       		.byte	0xe4
 806 0281 04       		.byte	0x4
 807 0282 33000000 		.4byte	0x33
 808 0286 27010000 		.4byte	.LLST14
ARM GAS  /tmp/ccyo2WKu.s 			page 22


 809 028a 25010000 		.4byte	.LVUS14
 810 028e 00       		.byte	0
 811 028f 19       		.uleb128 0x19
 812 0290 BA000000 		.4byte	.LVL25
 813 0294 9A010000 		.4byte	0x19a
 814 0298 1A       		.uleb128 0x1a
 815 0299 E0000000 		.4byte	.LVL31
 816 029d 01       		.byte	0x1
 817 029e 8A010000 		.4byte	0x18a
 818 02a2 00       		.byte	0
 819 02a3 1B       		.uleb128 0x1b
 820 02a4 01       		.byte	0x1
 821 02a5 A8000000 		.4byte	.LASF32
 822 02a9 01       		.byte	0x1
 823 02aa 76       		.byte	0x76
 824 02ab 07       		.byte	0x7
 825 02ac 01       		.byte	0x1
 826 02ad A2000000 		.4byte	0xa2
 827 02b1 00000000 		.4byte	.LFB5
 828 02b5 AC000000 		.4byte	.LFE5
 829 02b9 3A010000 		.4byte	.LLST0
 830 02bd 01       		.byte	0x1
 831 02be 1C       		.uleb128 0x1c
 832 02bf 76020000 		.4byte	.LASF33
 833 02c3 01       		.byte	0x1
 834 02c4 76       		.byte	0x76
 835 02c5 1C       		.byte	0x1c
 836 02c6 33000000 		.4byte	0x33
 837 02ca 66010000 		.4byte	.LLST1
 838 02ce 5A010000 		.4byte	.LVUS1
 839 02d2 17       		.uleb128 0x17
 840 02d3 99000000 		.4byte	.LASF34
 841 02d7 01       		.byte	0x1
 842 02d8 78       		.byte	0x78
 843 02d9 0E       		.byte	0xe
 844 02da CD010000 		.4byte	0x1cd
 845 02de C2010000 		.4byte	.LLST2
 846 02e2 BC010000 		.4byte	.LVUS2
 847 02e6 17       		.uleb128 0x17
 848 02e7 C6010000 		.4byte	.LASF35
 849 02eb 01       		.byte	0x1
 850 02ec 78       		.byte	0x78
 851 02ed 18       		.byte	0x18
 852 02ee CD010000 		.4byte	0x1cd
 853 02f2 ED010000 		.4byte	.LLST3
 854 02f6 EB010000 		.4byte	.LVUS3
 855 02fa 17       		.uleb128 0x17
 856 02fb 4D020000 		.4byte	.LASF36
 857 02ff 01       		.byte	0x1
 858 0300 78       		.byte	0x78
 859 0301 2A       		.byte	0x2a
 860 0302 CD010000 		.4byte	0x1cd
 861 0306 07020000 		.4byte	.LLST4
 862 030a 05020000 		.4byte	.LVUS4
 863 030e 0A       		.uleb128 0xa
 864 030f 31010000 		.4byte	.LASF37
 865 0313 01       		.byte	0x1
ARM GAS  /tmp/ccyo2WKu.s 			page 23


 866 0314 79       		.byte	0x79
 867 0315 13       		.byte	0x13
 868 0316 D4000000 		.4byte	0xd4
 869 031a 05       		.byte	0x5
 870 031b 03       		.byte	0x3
 871 031c 08000000 		.4byte	xHeapHasBeenInitialised.0
 872 0320 17       		.uleb128 0x17
 873 0321 EB010000 		.4byte	.LASF38
 874 0325 01       		.byte	0x1
 875 0326 7A       		.byte	0x7a
 876 0327 07       		.byte	0x7
 877 0328 A2000000 		.4byte	0xa2
 878 032c 20020000 		.4byte	.LLST5
 879 0330 1A020000 		.4byte	.LVUS5
 880 0334 18       		.uleb128 0x18
 881 0335 6E000000 		.4byte	.LBB9
 882 0339 80000000 		.4byte	.LBE9
 883 033d 6A030000 		.4byte	0x36a
 884 0341 17       		.uleb128 0x17
 885 0342 96020000 		.4byte	.LASF30
 886 0346 01       		.byte	0x1
 887 0347 B9       		.byte	0xb9
 888 0348 06       		.byte	0x6
 889 0349 CD010000 		.4byte	0x1cd
 890 034d 51020000 		.4byte	.LLST7
 891 0351 4B020000 		.4byte	.LVUS7
 892 0355 17       		.uleb128 0x17
 893 0356 01010000 		.4byte	.LASF20
 894 035a 01       		.byte	0x1
 895 035b B9       		.byte	0xb9
 896 035c 06       		.byte	0x6
 897 035d 33000000 		.4byte	0x33
 898 0361 81020000 		.4byte	.LLST8
 899 0365 7F020000 		.4byte	.LVUS8
 900 0369 00       		.byte	0
 901 036a 1D       		.uleb128 0x1d
 902 036b A6010000 		.4byte	0x1a6
 903 036f 0E000000 		.4byte	.LBI5
 904 0373 01       		.byte	.LVU12
 905 0374 00000000 		.4byte	.Ldebug_ranges0+0
 906 0378 01       		.byte	0x1
 907 0379 82       		.byte	0x82
 908 037a 04       		.byte	0x4
 909 037b 98030000 		.4byte	0x398
 910 037f 1E       		.uleb128 0x1e
 911 0380 00000000 		.4byte	.Ldebug_ranges0+0
 912 0384 1F       		.uleb128 0x1f
 913 0385 B4010000 		.4byte	0x1b4
 914 0389 20       		.uleb128 0x20
 915 038a C0010000 		.4byte	0x1c0
 916 038e 98020000 		.4byte	.LLST6
 917 0392 94020000 		.4byte	.LVUS6
 918 0396 00       		.byte	0
 919 0397 00       		.byte	0
 920 0398 19       		.uleb128 0x19
 921 0399 08000000 		.4byte	.LVL1
 922 039d 9A010000 		.4byte	0x19a
ARM GAS  /tmp/ccyo2WKu.s 			page 24


 923 03a1 19       		.uleb128 0x19
 924 03a2 8E000000 		.4byte	.LVL19
 925 03a6 8A010000 		.4byte	0x18a
 926 03aa 00       		.byte	0
 927 03ab 00       		.byte	0
 928              		.section	.debug_abbrev,"",%progbits
 929              	.Ldebug_abbrev0:
 930 0000 01       		.uleb128 0x1
 931 0001 11       		.uleb128 0x11
 932 0002 01       		.byte	0x1
 933 0003 25       		.uleb128 0x25
 934 0004 0E       		.uleb128 0xe
 935 0005 13       		.uleb128 0x13
 936 0006 0B       		.uleb128 0xb
 937 0007 03       		.uleb128 0x3
 938 0008 0E       		.uleb128 0xe
 939 0009 1B       		.uleb128 0x1b
 940 000a 0E       		.uleb128 0xe
 941 000b 11       		.uleb128 0x11
 942 000c 01       		.uleb128 0x1
 943 000d 12       		.uleb128 0x12
 944 000e 01       		.uleb128 0x1
 945 000f 10       		.uleb128 0x10
 946 0010 06       		.uleb128 0x6
 947 0011 00       		.byte	0
 948 0012 00       		.byte	0
 949 0013 02       		.uleb128 0x2
 950 0014 24       		.uleb128 0x24
 951 0015 00       		.byte	0
 952 0016 0B       		.uleb128 0xb
 953 0017 0B       		.uleb128 0xb
 954 0018 3E       		.uleb128 0x3e
 955 0019 0B       		.uleb128 0xb
 956 001a 03       		.uleb128 0x3
 957 001b 0E       		.uleb128 0xe
 958 001c 00       		.byte	0
 959 001d 00       		.byte	0
 960 001e 03       		.uleb128 0x3
 961 001f 16       		.uleb128 0x16
 962 0020 00       		.byte	0
 963 0021 03       		.uleb128 0x3
 964 0022 0E       		.uleb128 0xe
 965 0023 3A       		.uleb128 0x3a
 966 0024 0B       		.uleb128 0xb
 967 0025 3B       		.uleb128 0x3b
 968 0026 0B       		.uleb128 0xb
 969 0027 39       		.uleb128 0x39
 970 0028 0B       		.uleb128 0xb
 971 0029 49       		.uleb128 0x49
 972 002a 13       		.uleb128 0x13
 973 002b 00       		.byte	0
 974 002c 00       		.byte	0
 975 002d 04       		.uleb128 0x4
 976 002e 24       		.uleb128 0x24
 977 002f 00       		.byte	0
 978 0030 0B       		.uleb128 0xb
 979 0031 0B       		.uleb128 0xb
ARM GAS  /tmp/ccyo2WKu.s 			page 25


 980 0032 3E       		.uleb128 0x3e
 981 0033 0B       		.uleb128 0xb
 982 0034 03       		.uleb128 0x3
 983 0035 08       		.uleb128 0x8
 984 0036 00       		.byte	0
 985 0037 00       		.byte	0
 986 0038 05       		.uleb128 0x5
 987 0039 0F       		.uleb128 0xf
 988 003a 00       		.byte	0
 989 003b 0B       		.uleb128 0xb
 990 003c 0B       		.uleb128 0xb
 991 003d 00       		.byte	0
 992 003e 00       		.byte	0
 993 003f 06       		.uleb128 0x6
 994 0040 26       		.uleb128 0x26
 995 0041 00       		.byte	0
 996 0042 49       		.uleb128 0x49
 997 0043 13       		.uleb128 0x13
 998 0044 00       		.byte	0
 999 0045 00       		.byte	0
 1000 0046 07       		.uleb128 0x7
 1001 0047 0F       		.uleb128 0xf
 1002 0048 00       		.byte	0
 1003 0049 0B       		.uleb128 0xb
 1004 004a 0B       		.uleb128 0xb
 1005 004b 49       		.uleb128 0x49
 1006 004c 13       		.uleb128 0x13
 1007 004d 00       		.byte	0
 1008 004e 00       		.byte	0
 1009 004f 08       		.uleb128 0x8
 1010 0050 01       		.uleb128 0x1
 1011 0051 01       		.byte	0x1
 1012 0052 49       		.uleb128 0x49
 1013 0053 13       		.uleb128 0x13
 1014 0054 01       		.uleb128 0x1
 1015 0055 13       		.uleb128 0x13
 1016 0056 00       		.byte	0
 1017 0057 00       		.byte	0
 1018 0058 09       		.uleb128 0x9
 1019 0059 21       		.uleb128 0x21
 1020 005a 00       		.byte	0
 1021 005b 49       		.uleb128 0x49
 1022 005c 13       		.uleb128 0x13
 1023 005d 2F       		.uleb128 0x2f
 1024 005e 05       		.uleb128 0x5
 1025 005f 00       		.byte	0
 1026 0060 00       		.byte	0
 1027 0061 0A       		.uleb128 0xa
 1028 0062 34       		.uleb128 0x34
 1029 0063 00       		.byte	0
 1030 0064 03       		.uleb128 0x3
 1031 0065 0E       		.uleb128 0xe
 1032 0066 3A       		.uleb128 0x3a
 1033 0067 0B       		.uleb128 0xb
 1034 0068 3B       		.uleb128 0x3b
 1035 0069 0B       		.uleb128 0xb
 1036 006a 39       		.uleb128 0x39
ARM GAS  /tmp/ccyo2WKu.s 			page 26


 1037 006b 0B       		.uleb128 0xb
 1038 006c 49       		.uleb128 0x49
 1039 006d 13       		.uleb128 0x13
 1040 006e 02       		.uleb128 0x2
 1041 006f 0A       		.uleb128 0xa
 1042 0070 00       		.byte	0
 1043 0071 00       		.byte	0
 1044 0072 0B       		.uleb128 0xb
 1045 0073 13       		.uleb128 0x13
 1046 0074 01       		.byte	0x1
 1047 0075 03       		.uleb128 0x3
 1048 0076 0E       		.uleb128 0xe
 1049 0077 0B       		.uleb128 0xb
 1050 0078 0B       		.uleb128 0xb
 1051 0079 3A       		.uleb128 0x3a
 1052 007a 0B       		.uleb128 0xb
 1053 007b 3B       		.uleb128 0x3b
 1054 007c 0B       		.uleb128 0xb
 1055 007d 39       		.uleb128 0x39
 1056 007e 0B       		.uleb128 0xb
 1057 007f 01       		.uleb128 0x1
 1058 0080 13       		.uleb128 0x13
 1059 0081 00       		.byte	0
 1060 0082 00       		.byte	0
 1061 0083 0C       		.uleb128 0xc
 1062 0084 0D       		.uleb128 0xd
 1063 0085 00       		.byte	0
 1064 0086 03       		.uleb128 0x3
 1065 0087 0E       		.uleb128 0xe
 1066 0088 3A       		.uleb128 0x3a
 1067 0089 0B       		.uleb128 0xb
 1068 008a 3B       		.uleb128 0x3b
 1069 008b 0B       		.uleb128 0xb
 1070 008c 39       		.uleb128 0x39
 1071 008d 0B       		.uleb128 0xb
 1072 008e 49       		.uleb128 0x49
 1073 008f 13       		.uleb128 0x13
 1074 0090 38       		.uleb128 0x38
 1075 0091 0A       		.uleb128 0xa
 1076 0092 00       		.byte	0
 1077 0093 00       		.byte	0
 1078 0094 0D       		.uleb128 0xd
 1079 0095 34       		.uleb128 0x34
 1080 0096 00       		.byte	0
 1081 0097 03       		.uleb128 0x3
 1082 0098 0E       		.uleb128 0xe
 1083 0099 3A       		.uleb128 0x3a
 1084 009a 0B       		.uleb128 0xb
 1085 009b 3B       		.uleb128 0x3b
 1086 009c 0B       		.uleb128 0xb
 1087 009d 39       		.uleb128 0x39
 1088 009e 0B       		.uleb128 0xb
 1089 009f 49       		.uleb128 0x49
 1090 00a0 13       		.uleb128 0x13
 1091 00a1 1C       		.uleb128 0x1c
 1092 00a2 0B       		.uleb128 0xb
 1093 00a3 00       		.byte	0
ARM GAS  /tmp/ccyo2WKu.s 			page 27


 1094 00a4 00       		.byte	0
 1095 00a5 0E       		.uleb128 0xe
 1096 00a6 2E       		.uleb128 0x2e
 1097 00a7 00       		.byte	0
 1098 00a8 3F       		.uleb128 0x3f
 1099 00a9 0C       		.uleb128 0xc
 1100 00aa 03       		.uleb128 0x3
 1101 00ab 0E       		.uleb128 0xe
 1102 00ac 3A       		.uleb128 0x3a
 1103 00ad 0B       		.uleb128 0xb
 1104 00ae 3B       		.uleb128 0x3b
 1105 00af 05       		.uleb128 0x5
 1106 00b0 39       		.uleb128 0x39
 1107 00b1 0B       		.uleb128 0xb
 1108 00b2 27       		.uleb128 0x27
 1109 00b3 0C       		.uleb128 0xc
 1110 00b4 49       		.uleb128 0x49
 1111 00b5 13       		.uleb128 0x13
 1112 00b6 3C       		.uleb128 0x3c
 1113 00b7 0C       		.uleb128 0xc
 1114 00b8 00       		.byte	0
 1115 00b9 00       		.byte	0
 1116 00ba 0F       		.uleb128 0xf
 1117 00bb 2E       		.uleb128 0x2e
 1118 00bc 00       		.byte	0
 1119 00bd 3F       		.uleb128 0x3f
 1120 00be 0C       		.uleb128 0xc
 1121 00bf 03       		.uleb128 0x3
 1122 00c0 0E       		.uleb128 0xe
 1123 00c1 3A       		.uleb128 0x3a
 1124 00c2 0B       		.uleb128 0xb
 1125 00c3 3B       		.uleb128 0x3b
 1126 00c4 05       		.uleb128 0x5
 1127 00c5 39       		.uleb128 0x39
 1128 00c6 0B       		.uleb128 0xb
 1129 00c7 27       		.uleb128 0x27
 1130 00c8 0C       		.uleb128 0xc
 1131 00c9 3C       		.uleb128 0x3c
 1132 00ca 0C       		.uleb128 0xc
 1133 00cb 00       		.byte	0
 1134 00cc 00       		.byte	0
 1135 00cd 10       		.uleb128 0x10
 1136 00ce 2E       		.uleb128 0x2e
 1137 00cf 01       		.byte	0x1
 1138 00d0 03       		.uleb128 0x3
 1139 00d1 0E       		.uleb128 0xe
 1140 00d2 3A       		.uleb128 0x3a
 1141 00d3 0B       		.uleb128 0xb
 1142 00d4 3B       		.uleb128 0x3b
 1143 00d5 0B       		.uleb128 0xb
 1144 00d6 39       		.uleb128 0x39
 1145 00d7 0B       		.uleb128 0xb
 1146 00d8 27       		.uleb128 0x27
 1147 00d9 0C       		.uleb128 0xc
 1148 00da 20       		.uleb128 0x20
 1149 00db 0B       		.uleb128 0xb
 1150 00dc 01       		.uleb128 0x1
ARM GAS  /tmp/ccyo2WKu.s 			page 28


 1151 00dd 13       		.uleb128 0x13
 1152 00de 00       		.byte	0
 1153 00df 00       		.byte	0
 1154 00e0 11       		.uleb128 0x11
 1155 00e1 34       		.uleb128 0x34
 1156 00e2 00       		.byte	0
 1157 00e3 03       		.uleb128 0x3
 1158 00e4 0E       		.uleb128 0xe
 1159 00e5 3A       		.uleb128 0x3a
 1160 00e6 0B       		.uleb128 0xb
 1161 00e7 3B       		.uleb128 0x3b
 1162 00e8 0B       		.uleb128 0xb
 1163 00e9 39       		.uleb128 0x39
 1164 00ea 0B       		.uleb128 0xb
 1165 00eb 49       		.uleb128 0x49
 1166 00ec 13       		.uleb128 0x13
 1167 00ed 00       		.byte	0
 1168 00ee 00       		.byte	0
 1169 00ef 12       		.uleb128 0x12
 1170 00f0 2E       		.uleb128 0x2e
 1171 00f1 00       		.byte	0
 1172 00f2 3F       		.uleb128 0x3f
 1173 00f3 0C       		.uleb128 0xc
 1174 00f4 03       		.uleb128 0x3
 1175 00f5 0E       		.uleb128 0xe
 1176 00f6 3A       		.uleb128 0x3a
 1177 00f7 0B       		.uleb128 0xb
 1178 00f8 3B       		.uleb128 0x3b
 1179 00f9 0B       		.uleb128 0xb
 1180 00fa 39       		.uleb128 0x39
 1181 00fb 0B       		.uleb128 0xb
 1182 00fc 27       		.uleb128 0x27
 1183 00fd 0C       		.uleb128 0xc
 1184 00fe 11       		.uleb128 0x11
 1185 00ff 01       		.uleb128 0x1
 1186 0100 12       		.uleb128 0x12
 1187 0101 01       		.uleb128 0x1
 1188 0102 40       		.uleb128 0x40
 1189 0103 0A       		.uleb128 0xa
 1190 0104 9742     		.uleb128 0x2117
 1191 0106 0C       		.uleb128 0xc
 1192 0107 00       		.byte	0
 1193 0108 00       		.byte	0
 1194 0109 13       		.uleb128 0x13
 1195 010a 2E       		.uleb128 0x2e
 1196 010b 00       		.byte	0
 1197 010c 3F       		.uleb128 0x3f
 1198 010d 0C       		.uleb128 0xc
 1199 010e 03       		.uleb128 0x3
 1200 010f 0E       		.uleb128 0xe
 1201 0110 3A       		.uleb128 0x3a
 1202 0111 0B       		.uleb128 0xb
 1203 0112 3B       		.uleb128 0x3b
 1204 0113 0B       		.uleb128 0xb
 1205 0114 39       		.uleb128 0x39
 1206 0115 0B       		.uleb128 0xb
 1207 0116 27       		.uleb128 0x27
ARM GAS  /tmp/ccyo2WKu.s 			page 29


 1208 0117 0C       		.uleb128 0xc
 1209 0118 49       		.uleb128 0x49
 1210 0119 13       		.uleb128 0x13
 1211 011a 11       		.uleb128 0x11
 1212 011b 01       		.uleb128 0x1
 1213 011c 12       		.uleb128 0x12
 1214 011d 01       		.uleb128 0x1
 1215 011e 40       		.uleb128 0x40
 1216 011f 0A       		.uleb128 0xa
 1217 0120 9742     		.uleb128 0x2117
 1218 0122 0C       		.uleb128 0xc
 1219 0123 00       		.byte	0
 1220 0124 00       		.byte	0
 1221 0125 14       		.uleb128 0x14
 1222 0126 2E       		.uleb128 0x2e
 1223 0127 01       		.byte	0x1
 1224 0128 3F       		.uleb128 0x3f
 1225 0129 0C       		.uleb128 0xc
 1226 012a 03       		.uleb128 0x3
 1227 012b 0E       		.uleb128 0xe
 1228 012c 3A       		.uleb128 0x3a
 1229 012d 0B       		.uleb128 0xb
 1230 012e 3B       		.uleb128 0x3b
 1231 012f 0B       		.uleb128 0xb
 1232 0130 39       		.uleb128 0x39
 1233 0131 0B       		.uleb128 0xb
 1234 0132 27       		.uleb128 0x27
 1235 0133 0C       		.uleb128 0xc
 1236 0134 11       		.uleb128 0x11
 1237 0135 01       		.uleb128 0x1
 1238 0136 12       		.uleb128 0x12
 1239 0137 01       		.uleb128 0x1
 1240 0138 40       		.uleb128 0x40
 1241 0139 06       		.uleb128 0x6
 1242 013a 9742     		.uleb128 0x2117
 1243 013c 0C       		.uleb128 0xc
 1244 013d 01       		.uleb128 0x1
 1245 013e 13       		.uleb128 0x13
 1246 013f 00       		.byte	0
 1247 0140 00       		.byte	0
 1248 0141 15       		.uleb128 0x15
 1249 0142 05       		.uleb128 0x5
 1250 0143 00       		.byte	0
 1251 0144 03       		.uleb128 0x3
 1252 0145 08       		.uleb128 0x8
 1253 0146 3A       		.uleb128 0x3a
 1254 0147 0B       		.uleb128 0xb
 1255 0148 3B       		.uleb128 0x3b
 1256 0149 0B       		.uleb128 0xb
 1257 014a 39       		.uleb128 0x39
 1258 014b 0B       		.uleb128 0xb
 1259 014c 49       		.uleb128 0x49
 1260 014d 13       		.uleb128 0x13
 1261 014e 02       		.uleb128 0x2
 1262 014f 06       		.uleb128 0x6
 1263 0150 B742     		.uleb128 0x2137
 1264 0152 06       		.uleb128 0x6
ARM GAS  /tmp/ccyo2WKu.s 			page 30


 1265 0153 00       		.byte	0
 1266 0154 00       		.byte	0
 1267 0155 16       		.uleb128 0x16
 1268 0156 34       		.uleb128 0x34
 1269 0157 00       		.byte	0
 1270 0158 03       		.uleb128 0x3
 1271 0159 08       		.uleb128 0x8
 1272 015a 3A       		.uleb128 0x3a
 1273 015b 0B       		.uleb128 0xb
 1274 015c 3B       		.uleb128 0x3b
 1275 015d 0B       		.uleb128 0xb
 1276 015e 39       		.uleb128 0x39
 1277 015f 0B       		.uleb128 0xb
 1278 0160 49       		.uleb128 0x49
 1279 0161 13       		.uleb128 0x13
 1280 0162 02       		.uleb128 0x2
 1281 0163 06       		.uleb128 0x6
 1282 0164 B742     		.uleb128 0x2137
 1283 0166 06       		.uleb128 0x6
 1284 0167 00       		.byte	0
 1285 0168 00       		.byte	0
 1286 0169 17       		.uleb128 0x17
 1287 016a 34       		.uleb128 0x34
 1288 016b 00       		.byte	0
 1289 016c 03       		.uleb128 0x3
 1290 016d 0E       		.uleb128 0xe
 1291 016e 3A       		.uleb128 0x3a
 1292 016f 0B       		.uleb128 0xb
 1293 0170 3B       		.uleb128 0x3b
 1294 0171 0B       		.uleb128 0xb
 1295 0172 39       		.uleb128 0x39
 1296 0173 0B       		.uleb128 0xb
 1297 0174 49       		.uleb128 0x49
 1298 0175 13       		.uleb128 0x13
 1299 0176 02       		.uleb128 0x2
 1300 0177 06       		.uleb128 0x6
 1301 0178 B742     		.uleb128 0x2137
 1302 017a 06       		.uleb128 0x6
 1303 017b 00       		.byte	0
 1304 017c 00       		.byte	0
 1305 017d 18       		.uleb128 0x18
 1306 017e 0B       		.uleb128 0xb
 1307 017f 01       		.byte	0x1
 1308 0180 11       		.uleb128 0x11
 1309 0181 01       		.uleb128 0x1
 1310 0182 12       		.uleb128 0x12
 1311 0183 01       		.uleb128 0x1
 1312 0184 01       		.uleb128 0x1
 1313 0185 13       		.uleb128 0x13
 1314 0186 00       		.byte	0
 1315 0187 00       		.byte	0
 1316 0188 19       		.uleb128 0x19
 1317 0189 898201   		.uleb128 0x4109
 1318 018c 00       		.byte	0
 1319 018d 11       		.uleb128 0x11
 1320 018e 01       		.uleb128 0x1
 1321 018f 31       		.uleb128 0x31
ARM GAS  /tmp/ccyo2WKu.s 			page 31


 1322 0190 13       		.uleb128 0x13
 1323 0191 00       		.byte	0
 1324 0192 00       		.byte	0
 1325 0193 1A       		.uleb128 0x1a
 1326 0194 898201   		.uleb128 0x4109
 1327 0197 00       		.byte	0
 1328 0198 11       		.uleb128 0x11
 1329 0199 01       		.uleb128 0x1
 1330 019a 9542     		.uleb128 0x2115
 1331 019c 0C       		.uleb128 0xc
 1332 019d 31       		.uleb128 0x31
 1333 019e 13       		.uleb128 0x13
 1334 019f 00       		.byte	0
 1335 01a0 00       		.byte	0
 1336 01a1 1B       		.uleb128 0x1b
 1337 01a2 2E       		.uleb128 0x2e
 1338 01a3 01       		.byte	0x1
 1339 01a4 3F       		.uleb128 0x3f
 1340 01a5 0C       		.uleb128 0xc
 1341 01a6 03       		.uleb128 0x3
 1342 01a7 0E       		.uleb128 0xe
 1343 01a8 3A       		.uleb128 0x3a
 1344 01a9 0B       		.uleb128 0xb
 1345 01aa 3B       		.uleb128 0x3b
 1346 01ab 0B       		.uleb128 0xb
 1347 01ac 39       		.uleb128 0x39
 1348 01ad 0B       		.uleb128 0xb
 1349 01ae 27       		.uleb128 0x27
 1350 01af 0C       		.uleb128 0xc
 1351 01b0 49       		.uleb128 0x49
 1352 01b1 13       		.uleb128 0x13
 1353 01b2 11       		.uleb128 0x11
 1354 01b3 01       		.uleb128 0x1
 1355 01b4 12       		.uleb128 0x12
 1356 01b5 01       		.uleb128 0x1
 1357 01b6 40       		.uleb128 0x40
 1358 01b7 06       		.uleb128 0x6
 1359 01b8 9742     		.uleb128 0x2117
 1360 01ba 0C       		.uleb128 0xc
 1361 01bb 00       		.byte	0
 1362 01bc 00       		.byte	0
 1363 01bd 1C       		.uleb128 0x1c
 1364 01be 05       		.uleb128 0x5
 1365 01bf 00       		.byte	0
 1366 01c0 03       		.uleb128 0x3
 1367 01c1 0E       		.uleb128 0xe
 1368 01c2 3A       		.uleb128 0x3a
 1369 01c3 0B       		.uleb128 0xb
 1370 01c4 3B       		.uleb128 0x3b
 1371 01c5 0B       		.uleb128 0xb
 1372 01c6 39       		.uleb128 0x39
 1373 01c7 0B       		.uleb128 0xb
 1374 01c8 49       		.uleb128 0x49
 1375 01c9 13       		.uleb128 0x13
 1376 01ca 02       		.uleb128 0x2
 1377 01cb 06       		.uleb128 0x6
 1378 01cc B742     		.uleb128 0x2137
ARM GAS  /tmp/ccyo2WKu.s 			page 32


 1379 01ce 06       		.uleb128 0x6
 1380 01cf 00       		.byte	0
 1381 01d0 00       		.byte	0
 1382 01d1 1D       		.uleb128 0x1d
 1383 01d2 1D       		.uleb128 0x1d
 1384 01d3 01       		.byte	0x1
 1385 01d4 31       		.uleb128 0x31
 1386 01d5 13       		.uleb128 0x13
 1387 01d6 52       		.uleb128 0x52
 1388 01d7 01       		.uleb128 0x1
 1389 01d8 B842     		.uleb128 0x2138
 1390 01da 0B       		.uleb128 0xb
 1391 01db 55       		.uleb128 0x55
 1392 01dc 06       		.uleb128 0x6
 1393 01dd 58       		.uleb128 0x58
 1394 01de 0B       		.uleb128 0xb
 1395 01df 59       		.uleb128 0x59
 1396 01e0 0B       		.uleb128 0xb
 1397 01e1 57       		.uleb128 0x57
 1398 01e2 0B       		.uleb128 0xb
 1399 01e3 01       		.uleb128 0x1
 1400 01e4 13       		.uleb128 0x13
 1401 01e5 00       		.byte	0
 1402 01e6 00       		.byte	0
 1403 01e7 1E       		.uleb128 0x1e
 1404 01e8 0B       		.uleb128 0xb
 1405 01e9 01       		.byte	0x1
 1406 01ea 55       		.uleb128 0x55
 1407 01eb 06       		.uleb128 0x6
 1408 01ec 00       		.byte	0
 1409 01ed 00       		.byte	0
 1410 01ee 1F       		.uleb128 0x1f
 1411 01ef 34       		.uleb128 0x34
 1412 01f0 00       		.byte	0
 1413 01f1 31       		.uleb128 0x31
 1414 01f2 13       		.uleb128 0x13
 1415 01f3 00       		.byte	0
 1416 01f4 00       		.byte	0
 1417 01f5 20       		.uleb128 0x20
 1418 01f6 34       		.uleb128 0x34
 1419 01f7 00       		.byte	0
 1420 01f8 31       		.uleb128 0x31
 1421 01f9 13       		.uleb128 0x13
 1422 01fa 02       		.uleb128 0x2
 1423 01fb 06       		.uleb128 0x6
 1424 01fc B742     		.uleb128 0x2137
 1425 01fe 06       		.uleb128 0x6
 1426 01ff 00       		.byte	0
 1427 0200 00       		.byte	0
 1428 0201 00       		.byte	0
 1429              		.section	.debug_loc,"",%progbits
 1430              	.Ldebug_loc0:
 1431              	.LLST9:
 1432 0000 AC000000 		.4byte	.LFB6-.Ltext0
 1433 0004 AE000000 		.4byte	.LCFI1-.Ltext0
 1434 0008 0200     		.2byte	0x2
 1435 000a 7D       		.byte	0x7d
ARM GAS  /tmp/ccyo2WKu.s 			page 33


 1436 000b 00       		.sleb128 0
 1437 000c AE000000 		.4byte	.LCFI1-.Ltext0
 1438 0010 DC000000 		.4byte	.LCFI2-.Ltext0
 1439 0014 0200     		.2byte	0x2
 1440 0016 7D       		.byte	0x7d
 1441 0017 10       		.sleb128 16
 1442 0018 DC000000 		.4byte	.LCFI2-.Ltext0
 1443 001c E0000000 		.4byte	.LCFI3-.Ltext0
 1444 0020 0200     		.2byte	0x2
 1445 0022 7D       		.byte	0x7d
 1446 0023 00       		.sleb128 0
 1447 0024 E0000000 		.4byte	.LCFI3-.Ltext0
 1448 0028 EC000000 		.4byte	.LFE6-.Ltext0
 1449 002c 0200     		.2byte	0x2
 1450 002e 7D       		.byte	0x7d
 1451 002f 10       		.sleb128 16
 1452 0030 00000000 		.4byte	0
 1453 0034 00000000 		.4byte	0
 1454              	.LVUS10:
 1455 0038 00       		.uleb128 0
 1456 0039 00       		.uleb128 .LVU107
 1457 003a 00       		.uleb128 .LVU107
 1458 003b 00       		.uleb128 .LVU123
 1459 003c 00       		.uleb128 .LVU123
 1460 003d 00       		.uleb128 .LVU124
 1461 003e 00       		.uleb128 .LVU124
 1462 003f 00       		.uleb128 0
 1463              	.LLST10:
 1464 0040 AC000000 		.4byte	.LVL23-.Ltext0
 1465 0044 B9000000 		.4byte	.LVL25-1-.Ltext0
 1466 0048 0100     		.2byte	0x1
 1467 004a 50       		.byte	0x50
 1468 004b B9000000 		.4byte	.LVL25-1-.Ltext0
 1469 004f DC000000 		.4byte	.LVL30-.Ltext0
 1470 0053 0100     		.2byte	0x1
 1471 0055 54       		.byte	0x54
 1472 0056 DC000000 		.4byte	.LVL30-.Ltext0
 1473 005a E0000000 		.4byte	.LVL31-.Ltext0
 1474 005e 0A00     		.2byte	0xa
 1475 0060 F3       		.byte	0xf3
 1476 0061 03       		.uleb128 0x3
 1477 0062 F5       		.byte	0xf5
 1478 0063 00       		.uleb128 0
 1479 0064 25       		.uleb128 0x25
 1480 0065 F7       		.byte	0xf7
 1481 0066 2C       		.uleb128 0x2c
 1482 0067 F7       		.byte	0xf7
 1483 0068 00       		.uleb128 0
 1484 0069 9F       		.byte	0x9f
 1485 006a E0000000 		.4byte	.LVL31-.Ltext0
 1486 006e EC000000 		.4byte	.LFE6-.Ltext0
 1487 0072 0100     		.2byte	0x1
 1488 0074 50       		.byte	0x50
 1489 0075 00000000 		.4byte	0
 1490 0079 00000000 		.4byte	0
 1491              	.LVUS11:
 1492 007d 02       		.uleb128 .LVU99
ARM GAS  /tmp/ccyo2WKu.s 			page 34


 1493 007e 00       		.uleb128 .LVU105
 1494 007f 00       		.uleb128 .LVU105
 1495 0080 00       		.uleb128 .LVU123
 1496 0081 00       		.uleb128 .LVU123
 1497 0082 00       		.uleb128 .LVU124
 1498 0083 00       		.uleb128 .LVU124
 1499 0084 00       		.uleb128 0
 1500              	.LLST11:
 1501 0085 AC000000 		.4byte	.LVL23-.Ltext0
 1502 0089 B6000000 		.4byte	.LVL24-.Ltext0
 1503 008d 0100     		.2byte	0x1
 1504 008f 50       		.byte	0x50
 1505 0090 B6000000 		.4byte	.LVL24-.Ltext0
 1506 0094 DC000000 		.4byte	.LVL30-.Ltext0
 1507 0098 0100     		.2byte	0x1
 1508 009a 55       		.byte	0x55
 1509 009b DC000000 		.4byte	.LVL30-.Ltext0
 1510 009f E0000000 		.4byte	.LVL31-.Ltext0
 1511 00a3 0C00     		.2byte	0xc
 1512 00a5 F3       		.byte	0xf3
 1513 00a6 03       		.uleb128 0x3
 1514 00a7 F5       		.byte	0xf5
 1515 00a8 00       		.uleb128 0
 1516 00a9 25       		.uleb128 0x25
 1517 00aa F7       		.byte	0xf7
 1518 00ab 2C       		.uleb128 0x2c
 1519 00ac F7       		.byte	0xf7
 1520 00ad 00       		.uleb128 0
 1521 00ae 38       		.byte	0x38
 1522 00af 1C       		.byte	0x1c
 1523 00b0 9F       		.byte	0x9f
 1524 00b1 E0000000 		.4byte	.LVL31-.Ltext0
 1525 00b5 EC000000 		.4byte	.LFE6-.Ltext0
 1526 00b9 0100     		.2byte	0x1
 1527 00bb 50       		.byte	0x50
 1528 00bc 00000000 		.4byte	0
 1529 00c0 00000000 		.4byte	0
 1530              	.LVUS12:
 1531 00c4 01       		.uleb128 .LVU106
 1532 00c5 00       		.uleb128 .LVU123
 1533 00c6 00       		.uleb128 .LVU123
 1534 00c7 00       		.uleb128 .LVU124
 1535              	.LLST12:
 1536 00c8 B6000000 		.4byte	.LVL24-.Ltext0
 1537 00cc DC000000 		.4byte	.LVL30-.Ltext0
 1538 00d0 0100     		.2byte	0x1
 1539 00d2 55       		.byte	0x55
 1540 00d3 DC000000 		.4byte	.LVL30-.Ltext0
 1541 00d7 E0000000 		.4byte	.LVL31-.Ltext0
 1542 00db 0C00     		.2byte	0xc
 1543 00dd F3       		.byte	0xf3
 1544 00de 03       		.uleb128 0x3
 1545 00df F5       		.byte	0xf5
 1546 00e0 00       		.uleb128 0
 1547 00e1 25       		.uleb128 0x25
 1548 00e2 F7       		.byte	0xf7
 1549 00e3 2C       		.uleb128 0x2c
ARM GAS  /tmp/ccyo2WKu.s 			page 35


 1550 00e4 F7       		.byte	0xf7
 1551 00e5 00       		.uleb128 0
 1552 00e6 38       		.byte	0x38
 1553 00e7 1C       		.byte	0x1c
 1554 00e8 9F       		.byte	0x9f
 1555 00e9 00000000 		.4byte	0
 1556 00ed 00000000 		.4byte	0
 1557              	.LVUS13:
 1558 00f1 01       		.uleb128 .LVU111
 1559 00f2 00       		.uleb128 .LVU112
 1560 00f3 00       		.uleb128 .LVU112
 1561 00f4 00       		.uleb128 .LVU113
 1562 00f5 00       		.uleb128 .LVU113
 1563 00f6 00       		.uleb128 .LVU119
 1564              	.LLST13:
 1565 00f7 BE000000 		.4byte	.LVL26-.Ltext0
 1566 00fb C0000000 		.4byte	.LVL27-.Ltext0
 1567 00ff 0600     		.2byte	0x6
 1568 0101 03       		.byte	0x3
 1569 0102 00000000 		.4byte	xStart
 1570 0106 9F       		.byte	0x9f
 1571 0107 C0000000 		.4byte	.LVL27-.Ltext0
 1572 010b C4000000 		.4byte	.LVL28-.Ltext0
 1573 010f 0100     		.2byte	0x1
 1574 0111 53       		.byte	0x53
 1575 0112 C4000000 		.4byte	.LVL28-.Ltext0
 1576 0116 D2000000 		.4byte	.LVL29-.Ltext0
 1577 011a 0100     		.2byte	0x1
 1578 011c 52       		.byte	0x52
 1579 011d 00000000 		.4byte	0
 1580 0121 00000000 		.4byte	0
 1581              	.LVUS14:
 1582 0125 00       		.uleb128 .LVU110
 1583 0126 00       		.uleb128 .LVU124
 1584              	.LLST14:
 1585 0127 BE000000 		.4byte	.LVL26-.Ltext0
 1586 012b DF000000 		.4byte	.LVL31-1-.Ltext0
 1587 012f 0100     		.2byte	0x1
 1588 0131 51       		.byte	0x51
 1589 0132 00000000 		.4byte	0
 1590 0136 00000000 		.4byte	0
 1591              	.LLST0:
 1592 013a 00000000 		.4byte	.LFB5-.Ltext0
 1593 013e 02000000 		.4byte	.LCFI0-.Ltext0
 1594 0142 0200     		.2byte	0x2
 1595 0144 7D       		.byte	0x7d
 1596 0145 00       		.sleb128 0
 1597 0146 02000000 		.4byte	.LCFI0-.Ltext0
 1598 014a AC000000 		.4byte	.LFE5-.Ltext0
 1599 014e 0200     		.2byte	0x2
 1600 0150 7D       		.byte	0x7d
 1601 0151 10       		.sleb128 16
 1602 0152 00000000 		.4byte	0
 1603 0156 00000000 		.4byte	0
 1604              	.LVUS1:
 1605 015a 00       		.uleb128 0
 1606 015b 00       		.uleb128 .LVU8
ARM GAS  /tmp/ccyo2WKu.s 			page 36


 1607 015c 00       		.uleb128 .LVU8
 1608 015d 00       		.uleb128 .LVU41
 1609 015e 00       		.uleb128 .LVU41
 1610 015f 00       		.uleb128 .LVU42
 1611 0160 00       		.uleb128 .LVU42
 1612 0161 00       		.uleb128 .LVU77
 1613 0162 00       		.uleb128 .LVU77
 1614 0163 00       		.uleb128 .LVU83
 1615 0164 00       		.uleb128 .LVU93
 1616 0165 00       		.uleb128 0
 1617              	.LLST1:
 1618 0166 00000000 		.4byte	.LVL0-.Ltext0
 1619 016a 07000000 		.4byte	.LVL1-1-.Ltext0
 1620 016e 0100     		.2byte	0x1
 1621 0170 50       		.byte	0x50
 1622 0171 07000000 		.4byte	.LVL1-1-.Ltext0
 1623 0175 38000000 		.4byte	.LVL6-.Ltext0
 1624 0179 0100     		.2byte	0x1
 1625 017b 54       		.byte	0x54
 1626 017c 38000000 		.4byte	.LVL6-.Ltext0
 1627 0180 3A000000 		.4byte	.LVL7-.Ltext0
 1628 0184 0C00     		.2byte	0xc
 1629 0186 F3       		.byte	0xf3
 1630 0187 03       		.uleb128 0x3
 1631 0188 F5       		.byte	0xf5
 1632 0189 00       		.uleb128 0
 1633 018a 25       		.uleb128 0x25
 1634 018b F7       		.byte	0xf7
 1635 018c 2C       		.uleb128 0x2c
 1636 018d F7       		.byte	0xf7
 1637 018e 00       		.uleb128 0
 1638 018f 23       		.byte	0x23
 1639 0190 08       		.uleb128 0x8
 1640 0191 9F       		.byte	0x9f
 1641 0192 3A000000 		.4byte	.LVL7-.Ltext0
 1642 0196 70000000 		.4byte	.LVL13-.Ltext0
 1643 019a 0100     		.2byte	0x1
 1644 019c 54       		.byte	0x54
 1645 019d 70000000 		.4byte	.LVL13-.Ltext0
 1646 01a1 80000000 		.4byte	.LVL16-.Ltext0
 1647 01a5 0200     		.2byte	0x2
 1648 01a7 73       		.byte	0x73
 1649 01a8 04       		.sleb128 4
 1650 01a9 92000000 		.4byte	.LVL20-.Ltext0
 1651 01ad AC000000 		.4byte	.LFE5-.Ltext0
 1652 01b1 0100     		.2byte	0x1
 1653 01b3 54       		.byte	0x54
 1654 01b4 00000000 		.4byte	0
 1655 01b8 00000000 		.4byte	0
 1656              	.LVUS2:
 1657 01bc 00       		.uleb128 .LVU49
 1658 01bd 00       		.uleb128 .LVU87
 1659 01be 00       		.uleb128 .LVU93
 1660 01bf 00       		.uleb128 .LVU95
 1661 01c0 00       		.uleb128 .LVU95
 1662 01c1 00       		.uleb128 .LVU96
 1663              	.LLST2:
ARM GAS  /tmp/ccyo2WKu.s 			page 37


 1664 01c2 46000000 		.4byte	.LVL9-.Ltext0
 1665 01c6 84000000 		.4byte	.LVL17-.Ltext0
 1666 01ca 0100     		.2byte	0x1
 1667 01cc 53       		.byte	0x53
 1668 01cd 92000000 		.4byte	.LVL20-.Ltext0
 1669 01d1 96000000 		.4byte	.LVL21-.Ltext0
 1670 01d5 0100     		.2byte	0x1
 1671 01d7 53       		.byte	0x53
 1672 01d8 96000000 		.4byte	.LVL21-.Ltext0
 1673 01dc 98000000 		.4byte	.LVL22-.Ltext0
 1674 01e0 0100     		.2byte	0x1
 1675 01e2 50       		.byte	0x50
 1676 01e3 00000000 		.4byte	0
 1677 01e7 00000000 		.4byte	0
 1678              	.LVUS3:
 1679 01eb 01       		.uleb128 .LVU47
 1680 01ec 00       		.uleb128 .LVU51
 1681              	.LLST3:
 1682 01ed 44000000 		.4byte	.LVL8-.Ltext0
 1683 01f1 48000000 		.4byte	.LVL10-.Ltext0
 1684 01f5 0600     		.2byte	0x6
 1685 01f7 03       		.byte	0x3
 1686 01f8 00000000 		.4byte	xStart
 1687 01fc 9F       		.byte	0x9f
 1688 01fd 00000000 		.4byte	0
 1689 0201 00000000 		.4byte	0
 1690              	.LVUS4:
 1691 0205 00       		.uleb128 .LVU70
 1692 0206 00       		.uleb128 .LVU83
 1693              	.LLST4:
 1694 0207 6A000000 		.4byte	.LVL12-.Ltext0
 1695 020b 80000000 		.4byte	.LVL16-.Ltext0
 1696 020f 0100     		.2byte	0x1
 1697 0211 50       		.byte	0x50
 1698 0212 00000000 		.4byte	0
 1699 0216 00000000 		.4byte	0
 1700              	.LVUS5:
 1701 021a 04       		.uleb128 .LVU4
 1702 021b 00       		.uleb128 .LVU64
 1703 021c 00       		.uleb128 .LVU64
 1704 021d 00       		.uleb128 .LVU93
 1705 021e 00       		.uleb128 .LVU93
 1706 021f 00       		.uleb128 0
 1707              	.LLST5:
 1708 0220 00000000 		.4byte	.LVL0-.Ltext0
 1709 0224 64000000 		.4byte	.LVL11-.Ltext0
 1710 0228 0200     		.2byte	0x2
 1711 022a 30       		.byte	0x30
 1712 022b 9F       		.byte	0x9f
 1713 022c 64000000 		.4byte	.LVL11-.Ltext0
 1714 0230 92000000 		.4byte	.LVL20-.Ltext0
 1715 0234 0100     		.2byte	0x1
 1716 0236 55       		.byte	0x55
 1717 0237 92000000 		.4byte	.LVL20-.Ltext0
 1718 023b AC000000 		.4byte	.LFE5-.Ltext0
 1719 023f 0200     		.2byte	0x2
 1720 0241 30       		.byte	0x30
ARM GAS  /tmp/ccyo2WKu.s 			page 38


 1721 0242 9F       		.byte	0x9f
 1722 0243 00000000 		.4byte	0
 1723 0247 00000000 		.4byte	0
 1724              	.LVUS7:
 1725 024b 01       		.uleb128 .LVU78
 1726 024c 00       		.uleb128 .LVU79
 1727 024d 00       		.uleb128 .LVU79
 1728 024e 00       		.uleb128 .LVU80
 1729 024f 00       		.uleb128 .LVU80
 1730 0250 00       		.uleb128 .LVU83
 1731              	.LLST7:
 1732 0251 70000000 		.4byte	.LVL13-.Ltext0
 1733 0255 72000000 		.4byte	.LVL14-.Ltext0
 1734 0259 0600     		.2byte	0x6
 1735 025b 03       		.byte	0x3
 1736 025c 00000000 		.4byte	xStart
 1737 0260 9F       		.byte	0x9f
 1738 0261 72000000 		.4byte	.LVL14-.Ltext0
 1739 0265 76000000 		.4byte	.LVL15-.Ltext0
 1740 0269 0100     		.2byte	0x1
 1741 026b 52       		.byte	0x52
 1742 026c 76000000 		.4byte	.LVL15-.Ltext0
 1743 0270 80000000 		.4byte	.LVL16-.Ltext0
 1744 0274 0100     		.2byte	0x1
 1745 0276 51       		.byte	0x51
 1746 0277 00000000 		.4byte	0
 1747 027b 00000000 		.4byte	0
 1748              	.LVUS8:
 1749 027f 00       		.uleb128 .LVU77
 1750 0280 00       		.uleb128 .LVU83
 1751              	.LLST8:
 1752 0281 70000000 		.4byte	.LVL13-.Ltext0
 1753 0285 80000000 		.4byte	.LVL16-.Ltext0
 1754 0289 0100     		.2byte	0x1
 1755 028b 54       		.byte	0x54
 1756 028c 00000000 		.4byte	0
 1757 0290 00000000 		.4byte	0
 1758              	.LVUS6:
 1759 0294 00       		.uleb128 .LVU21
 1760 0295 00       		.uleb128 .LVU26
 1761 0296 00       		.uleb128 .LVU26
 1762 0297 03       		.uleb128 .LVU30
 1763              	.LLST6:
 1764 0298 1E000000 		.4byte	.LVL2-.Ltext0
 1765 029c 28000000 		.4byte	.LVL3-.Ltext0
 1766 02a0 0100     		.2byte	0x1
 1767 02a2 52       		.byte	0x52
 1768 02a3 28000000 		.4byte	.LVL3-.Ltext0
 1769 02a7 2A000000 		.4byte	.LVL4-.Ltext0
 1770 02ab 0900     		.2byte	0x9
 1771 02ad 03       		.byte	0x3
 1772 02ae 1C000000 		.4byte	ucHeap+8
 1773 02b2 09       		.byte	0x9
 1774 02b3 F8       		.byte	0xf8
 1775 02b4 1A       		.byte	0x1a
 1776 02b5 9F       		.byte	0x9f
 1777 02b6 00000000 		.4byte	0
ARM GAS  /tmp/ccyo2WKu.s 			page 39


 1778 02ba 00000000 		.4byte	0
 1779              		.section	.debug_aranges,"",%progbits
 1780 0000 1C000000 		.4byte	0x1c
 1781 0004 0200     		.2byte	0x2
 1782 0006 00000000 		.4byte	.Ldebug_info0
 1783 000a 04       		.byte	0x4
 1784 000b 00       		.byte	0
 1785 000c 0000     		.2byte	0
 1786 000e 0000     		.2byte	0
 1787 0010 00000000 		.4byte	.Ltext0
 1788 0014 FA000000 		.4byte	.Letext0-.Ltext0
 1789 0018 00000000 		.4byte	0
 1790 001c 00000000 		.4byte	0
 1791              		.section	.debug_ranges,"",%progbits
 1792              	.Ldebug_ranges0:
 1793 0000 0E000000 		.4byte	.LBB5-.Ltext0
 1794 0004 26000000 		.4byte	.LBE5-.Ltext0
 1795 0008 28000000 		.4byte	.LBB8-.Ltext0
 1796 000c 2A000000 		.4byte	.LBE8-.Ltext0
 1797 0010 00000000 		.4byte	0
 1798 0014 00000000 		.4byte	0
 1799              		.section	.debug_line,"",%progbits
 1800              	.Ldebug_line0:
 1801 0000 24030000 		.section	.debug_str,"MS",%progbits,1
 1801      03002301 
 1801      00000201 
 1801      FB0E0D00 
 1801      01010101 
 1802              	.LASF6:
 1803 0000 5F5F7569 		.ascii	"__uint8_t\000"
 1803      6E74385F 
 1803      7400
 1804              	.LASF5:
 1805 000a 73697A65 		.ascii	"size_t\000"
 1805      5F7400
 1806              	.LASF44:
 1807 0011 76546173 		.ascii	"vTaskSuspendAll\000"
 1807      6B537573 
 1807      70656E64 
 1807      416C6C00 
 1808              	.LASF47:
 1809 0021 78506F72 		.ascii	"xPortGetFreeHeapSize\000"
 1809      74476574 
 1809      46726565 
 1809      48656170 
 1809      53697A65 
 1810              	.LASF42:
 1811 0036 415F424C 		.ascii	"A_BLOCK_LINK\000"
 1811      4F434B5F 
 1811      4C494E4B 
 1811      00
 1812              	.LASF45:
 1813 0043 70727648 		.ascii	"prvHeapInit\000"
 1813      65617049 
 1813      6E697400 
 1814              	.LASF43:
 1815 004f 78546173 		.ascii	"xTaskResumeAll\000"
ARM GAS  /tmp/ccyo2WKu.s 			page 40


 1815      6B526573 
 1815      756D6541 
 1815      6C6C00
 1816              	.LASF41:
 1817 005e 2F686F6D 		.ascii	"/home/me/Codigos/6-Stm32_GCC_FreeRTOS10.2.1/3-ComPr"
 1817      652F6D65 
 1817      2F436F64 
 1817      69676F73 
 1817      2F362D53 
 1818 0091 6F636573 		.ascii	"ocessos\000"
 1818      736F7300 
 1819              	.LASF34:
 1820 0099 7078426C 		.ascii	"pxBlock\000"
 1820      6F636B00 
 1821              	.LASF29:
 1822 00a1 70784C69 		.ascii	"pxLink\000"
 1822      6E6B00
 1823              	.LASF32:
 1824 00a8 7076506F 		.ascii	"pvPortMalloc\000"
 1824      72744D61 
 1824      6C6C6F63 
 1824      00
 1825              	.LASF27:
 1826 00b5 70784669 		.ascii	"pxFirstFreeBlock\000"
 1826      72737446 
 1826      72656542 
 1826      6C6F636B 
 1826      00
 1827              	.LASF22:
 1828 00c6 75634865 		.ascii	"ucHeap\000"
 1828      617000
 1829              	.LASF40:
 1830 00cd 2E2E2F66 		.ascii	"../freertos/portable/MemMang/heap_2.c\000"
 1830      72656572 
 1830      746F732F 
 1830      706F7274 
 1830      61626C65 
 1831              	.LASF7:
 1832 00f3 756E7369 		.ascii	"unsigned char\000"
 1832      676E6564 
 1832      20636861 
 1832      7200
 1833              	.LASF20:
 1834 0101 78426C6F 		.ascii	"xBlockSize\000"
 1834      636B5369 
 1834      7A6500
 1835              	.LASF13:
 1836 010c 6C6F6E67 		.ascii	"long unsigned int\000"
 1836      20756E73 
 1836      69676E65 
 1836      6420696E 
 1836      7400
 1837              	.LASF10:
 1838 011e 73686F72 		.ascii	"short unsigned int\000"
 1838      7420756E 
 1838      7369676E 
 1838      65642069 
ARM GAS  /tmp/ccyo2WKu.s 			page 41


 1838      6E7400
 1839              	.LASF37:
 1840 0131 78486561 		.ascii	"xHeapHasBeenInitialised\000"
 1840      70486173 
 1840      4265656E 
 1840      496E6974 
 1840      69616C69 
 1841              	.LASF39:
 1842 0149 474E5520 		.ascii	"GNU C17 13.2.0 -mcpu=cortex-m3 -mthumb -mfloat-abi="
 1842      43313720 
 1842      31332E32 
 1842      2E30202D 
 1842      6D637075 
 1843 017c 736F6674 		.ascii	"soft -march=armv7-m -g -gdwarf-2 -Os -fomit-frame-p"
 1843      202D6D61 
 1843      7263683D 
 1843      61726D76 
 1843      372D6D20 
 1844 01af 6F696E74 		.ascii	"ointer\000"
 1844      657200
 1845              	.LASF25:
 1846 01b6 78456E64 		.ascii	"xEnd\000"
 1846      00
 1847              	.LASF9:
 1848 01bb 5F5F7569 		.ascii	"__uint16_t\000"
 1848      6E743136 
 1848      5F7400
 1849              	.LASF35:
 1850 01c6 70785072 		.ascii	"pxPreviousBlock\000"
 1850      6576696F 
 1850      7573426C 
 1850      6F636B00 
 1851              	.LASF31:
 1852 01d6 76506F72 		.ascii	"vPortFree\000"
 1852      74467265 
 1852      6500
 1853              	.LASF12:
 1854 01e0 5F5F7569 		.ascii	"__uint32_t\000"
 1854      6E743332 
 1854      5F7400
 1855              	.LASF38:
 1856 01eb 70765265 		.ascii	"pvReturn\000"
 1856      7475726E 
 1856      00
 1857              	.LASF23:
 1858 01f4 68656170 		.ascii	"heapSTRUCT_SIZE\000"
 1858      53545255 
 1858      43545F53 
 1858      495A4500 
 1859              	.LASF24:
 1860 0204 78537461 		.ascii	"xStart\000"
 1860      727400
 1861              	.LASF46:
 1862 020b 76506F72 		.ascii	"vPortInitialiseBlocks\000"
 1862      74496E69 
 1862      7469616C 
 1862      69736542 
ARM GAS  /tmp/ccyo2WKu.s 			page 42


 1862      6C6F636B 
 1863              	.LASF1:
 1864 0221 756E7369 		.ascii	"unsigned int\000"
 1864      676E6564 
 1864      20696E74 
 1864      00
 1865              	.LASF0:
 1866 022e 6C6F6E67 		.ascii	"long long unsigned int\000"
 1866      206C6F6E 
 1866      6720756E 
 1866      7369676E 
 1866      65642069 
 1867              	.LASF15:
 1868 0245 75696E74 		.ascii	"uint8_t\000"
 1868      385F7400 
 1869              	.LASF36:
 1870 024d 70784E65 		.ascii	"pxNewBlockLink\000"
 1870      77426C6F 
 1870      636B4C69 
 1870      6E6B00
 1871              	.LASF21:
 1872 025c 426C6F63 		.ascii	"BlockLink_t\000"
 1872      6B4C696E 
 1872      6B5F7400 
 1873              	.LASF2:
 1874 0268 6C6F6E67 		.ascii	"long long int\000"
 1874      206C6F6E 
 1874      6720696E 
 1874      7400
 1875              	.LASF33:
 1876 0276 7857616E 		.ascii	"xWantedSize\000"
 1876      74656453 
 1876      697A6500 
 1877              	.LASF14:
 1878 0282 63686172 		.ascii	"char\000"
 1878      00
 1879              	.LASF28:
 1880 0287 70756341 		.ascii	"pucAlignedHeap\000"
 1880      6C69676E 
 1880      65644865 
 1880      617000
 1881              	.LASF30:
 1882 0296 70784974 		.ascii	"pxIterator\000"
 1882      65726174 
 1882      6F7200
 1883              	.LASF8:
 1884 02a1 73686F72 		.ascii	"short int\000"
 1884      7420696E 
 1884      7400
 1885              	.LASF16:
 1886 02ab 75696E74 		.ascii	"uint16_t\000"
 1886      31365F74 
 1886      00
 1887              	.LASF26:
 1888 02b4 78467265 		.ascii	"xFreeBytesRemaining\000"
 1888      65427974 
 1888      65735265 
ARM GAS  /tmp/ccyo2WKu.s 			page 43


 1888      6D61696E 
 1888      696E6700 
 1889              	.LASF17:
 1890 02c8 75696E74 		.ascii	"uint32_t\000"
 1890      33325F74 
 1890      00
 1891              	.LASF11:
 1892 02d1 6C6F6E67 		.ascii	"long int\000"
 1892      20696E74 
 1892      00
 1893              	.LASF3:
 1894 02da 6C6F6E67 		.ascii	"long double\000"
 1894      20646F75 
 1894      626C6500 
 1895              	.LASF4:
 1896 02e6 7369676E 		.ascii	"signed char\000"
 1896      65642063 
 1896      68617200 
 1897              	.LASF19:
 1898 02f2 70784E65 		.ascii	"pxNextFreeBlock\000"
 1898      78744672 
 1898      6565426C 
 1898      6F636B00 
 1899              	.LASF18:
 1900 0302 42617365 		.ascii	"BaseType_t\000"
 1900      54797065 
 1900      5F7400
 1901              		.ident	"GCC: (Arch Repository) 13.2.0"
ARM GAS  /tmp/ccyo2WKu.s 			page 44


DEFINED SYMBOLS
                            *ABS*:00000000 heap_2.c
     /tmp/ccyo2WKu.s:24     .text:00000000 $t
     /tmp/ccyo2WKu.s:30     .text:00000000 pvPortMalloc
     /tmp/ccyo2WKu.s:297    .text:0000009c $d
     /tmp/ccyo2WKu.s:475    .bss:00000014 ucHeap
     /tmp/ccyo2WKu.s:304    .text:000000ac $t
     /tmp/ccyo2WKu.s:310    .text:000000ac vPortFree
     /tmp/ccyo2WKu.s:402    .text:000000e4 $d
     /tmp/ccyo2WKu.s:407    .text:000000ec $t
     /tmp/ccyo2WKu.s:413    .text:000000ec xPortGetFreeHeapSize
     /tmp/ccyo2WKu.s:429    .text:000000f4 $d
     /tmp/ccyo2WKu.s:433    .text:000000f8 $t
     /tmp/ccyo2WKu.s:439    .text:000000f8 vPortInitialiseBlocks
     /tmp/ccyo2WKu.s:452    .data:00000000 $d
     /tmp/ccyo2WKu.s:456    .data:00000000 xFreeBytesRemaining
     /tmp/ccyo2WKu.s:459    .bss:00000000 $d
     /tmp/ccyo2WKu.s:463    .bss:00000000 xStart
     /tmp/ccyo2WKu.s:467    .bss:00000008 xHeapHasBeenInitialised.0
     /tmp/ccyo2WKu.s:471    .bss:0000000c xEnd

UNDEFINED SYMBOLS
vTaskSuspendAll
xTaskResumeAll
