ARM GAS  /tmp/cc3VwJ6e.s 			page 1


   1              		.cpu cortex-m3
   2              		.arch armv7-m
   3              		.fpu softvfp
   4              		.eabi_attribute 20, 1	@ Tag_ABI_FP_denormal
   5              		.eabi_attribute 21, 1	@ Tag_ABI_FP_exceptions
   6              		.eabi_attribute 23, 3	@ Tag_ABI_FP_number_model
   7              		.eabi_attribute 24, 1	@ Tag_ABI_align8_needed
   8              		.eabi_attribute 25, 1	@ Tag_ABI_align8_preserved
   9              		.eabi_attribute 26, 1	@ Tag_ABI_enum_size
  10              		.eabi_attribute 30, 4	@ Tag_ABI_optimization_goals
  11              		.eabi_attribute 34, 1	@ Tag_CPU_unaligned_access
  12              		.eabi_attribute 18, 4	@ Tag_ABI_PCS_wchar_t
  13              		.file	"heap_4.c"
  14              	@ GNU C17 (GNU Arm Embedded Toolchain 10.3-2021.10) version 10.3.1 20210824 (release) (arm-none-eab
  15              	@	compiled by GNU C version 4.8.4, GMP version 6.1.0, MPFR version 3.1.4, MPC version 1.0.3, isl ve
  16              	
  17              	@ GGC heuristics: --param ggc-min-expand=100 --param ggc-min-heapsize=131072
  18              	@ options passed:  -I . -I ../5-TempR_LCD_Serial
  19              	@ -I ../stm32f10x_lib/CMSIS/CM3/CoreSupport
  20              	@ -I ../stm32f10x_lib/CMSIS/CM3/DeviceSupport/ST/STM32F10x
  21              	@ -I ../stm32f10x_lib/STM32F10x_StdPeriph_Driver/inc
  22              	@ -I ../stm32f10x_lib/STM32F10x_StdPeriph_Driver -I ../freertos/include
  23              	@ -I ../freertos/portable/GCC/ARM_CM3 -imultilib thumb/v7-m/nofp
  24              	@ -iprefix /usr/bin/../lib/gcc/arm-none-eabi/10.3.1/
  25              	@ -isysroot /usr/bin/../arm-none-eabi -D__USES_INITFINI__ -D STM32F10X_MD
  26              	@ -D USE_STDPERIPH_DRIVER -D HSE_VALUE=8000000 -D RUN_FROM_FLASH=1
  27              	@ ../freertos/portable/MemMang/heap_4.c -mcpu=cortex-m3 -mthumb
  28              	@ -mfloat-abi=soft -mlibarch=armv7-m -march=armv7-m
  29              	@ -auxbase-strip ../freertos/portable/MemMang/heap_4.o -g -gdwarf-2 -Os
  30              	@ -Wall -fomit-frame-pointer -fverbose-asm
  31              	@ options enabled:  -faggressive-loop-optimizations -fallocation-dce
  32              	@ -fauto-inc-dec -fbranch-count-reg -fcaller-saves -fcode-hoisting
  33              	@ -fcombine-stack-adjustments -fcompare-elim -fcprop-registers
  34              	@ -fcrossjumping -fcse-follow-jumps -fdefer-pop
  35              	@ -fdelete-null-pointer-checks -fdevirtualize -fdevirtualize-speculatively
  36              	@ -fdwarf2-cfi-asm -fearly-inlining -feliminate-unused-debug-symbols
  37              	@ -feliminate-unused-debug-types -fexpensive-optimizations
  38              	@ -fforward-propagate -ffp-int-builtin-inexact -ffunction-cse -fgcse
  39              	@ -fgcse-lm -fgnu-unique -fguess-branch-probability -fhoist-adjacent-loads
  40              	@ -fident -fif-conversion -fif-conversion2 -findirect-inlining -finline
  41              	@ -finline-atomics -finline-functions -finline-functions-called-once
  42              	@ -finline-small-functions -fipa-bit-cp -fipa-cp -fipa-icf
  43              	@ -fipa-icf-functions -fipa-icf-variables -fipa-profile -fipa-pure-const
  44              	@ -fipa-ra -fipa-reference -fipa-reference-addressable -fipa-sra
  45              	@ -fipa-stack-alignment -fipa-vrp -fira-hoist-pressure
  46              	@ -fira-share-save-slots -fira-share-spill-slots
  47              	@ -fisolate-erroneous-paths-dereference -fivopts -fkeep-static-consts
  48              	@ -fleading-underscore -flifetime-dse -flra-remat -fmath-errno
  49              	@ -fmerge-constants -fmerge-debug-strings -fmove-loop-invariants
  50              	@ -fomit-frame-pointer -foptimize-sibling-calls -fpartial-inlining
  51              	@ -fpeephole -fpeephole2 -fplt -fprefetch-loop-arrays -freg-struct-return
  52              	@ -freorder-blocks -freorder-functions -frerun-cse-after-loop
  53              	@ -fsched-critical-path-heuristic -fsched-dep-count-heuristic
  54              	@ -fsched-group-heuristic -fsched-interblock -fsched-last-insn-heuristic
  55              	@ -fsched-pressure -fsched-rank-heuristic -fsched-spec
  56              	@ -fsched-spec-insn-heuristic -fsched-stalled-insns-dep -fschedule-insns2
  57              	@ -fsection-anchors -fsemantic-interposition -fshow-column
ARM GAS  /tmp/cc3VwJ6e.s 			page 2


  58              	@ -fshrink-wrap-separate -fsigned-zeros -fsplit-ivs-in-unroller
  59              	@ -fsplit-wide-types -fssa-backprop -fssa-phiopt -fstdarg-opt
  60              	@ -fstore-merging -fstrict-aliasing -fstrict-volatile-bitfields
  61              	@ -fsync-libcalls -fthread-jumps -ftoplevel-reorder -ftrapping-math
  62              	@ -ftree-bit-ccp -ftree-builtin-call-dce -ftree-ccp -ftree-ch
  63              	@ -ftree-coalesce-vars -ftree-copy-prop -ftree-cselim -ftree-dce
  64              	@ -ftree-dominator-opts -ftree-dse -ftree-forwprop -ftree-fre
  65              	@ -ftree-loop-distribute-patterns -ftree-loop-if-convert -ftree-loop-im
  66              	@ -ftree-loop-ivcanon -ftree-loop-optimize -ftree-parallelize-loops=
  67              	@ -ftree-phiprop -ftree-pre -ftree-pta -ftree-reassoc -ftree-scev-cprop
  68              	@ -ftree-sink -ftree-slsr -ftree-sra -ftree-switch-conversion
  69              	@ -ftree-tail-merge -ftree-ter -ftree-vrp -funit-at-a-time -fvar-tracking
  70              	@ -fvar-tracking-assignments -fverbose-asm -fzero-initialized-in-bss
  71              	@ -masm-syntax-unified -mbe32 -mfix-cortex-m3-ldrd -mlittle-endian
  72              	@ -mpic-data-is-text-relative -msched-prolog -mthumb -munaligned-access
  73              	@ -mvectorize-with-neon-quad
  74              	
  75              		.text
  76              	.Ltext0:
  77              		.cfi_sections	.debug_frame
  78              		.align	1
  79              		.syntax unified
  80              		.thumb
  81              		.thumb_func
  82              		.type	prvInsertBlockIntoFreeList, %function
  83              	prvInsertBlockIntoFreeList:
  84              	.LVL0:
  85              	.LFB11:
  86              		.file 1 "../freertos/portable/MemMang/heap_4.c"
   1:../freertos/portable/MemMang/heap_4.c **** /*
   2:../freertos/portable/MemMang/heap_4.c ****  * FreeRTOS Kernel V10.2.1
   3:../freertos/portable/MemMang/heap_4.c ****  * Copyright (C) 2019 Amazon.com, Inc. or its affiliates.  All Rights Reserved.
   4:../freertos/portable/MemMang/heap_4.c ****  *
   5:../freertos/portable/MemMang/heap_4.c ****  * Permission is hereby granted, free of charge, to any person obtaining a copy of
   6:../freertos/portable/MemMang/heap_4.c ****  * this software and associated documentation files (the "Software"), to deal in
   7:../freertos/portable/MemMang/heap_4.c ****  * the Software without restriction, including without limitation the rights to
   8:../freertos/portable/MemMang/heap_4.c ****  * use, copy, modify, merge, publish, distribute, sublicense, and/or sell copies of
   9:../freertos/portable/MemMang/heap_4.c ****  * the Software, and to permit persons to whom the Software is furnished to do so,
  10:../freertos/portable/MemMang/heap_4.c ****  * subject to the following conditions:
  11:../freertos/portable/MemMang/heap_4.c ****  *
  12:../freertos/portable/MemMang/heap_4.c ****  * The above copyright notice and this permission notice shall be included in all
  13:../freertos/portable/MemMang/heap_4.c ****  * copies or substantial portions of the Software.
  14:../freertos/portable/MemMang/heap_4.c ****  *
  15:../freertos/portable/MemMang/heap_4.c ****  * THE SOFTWARE IS PROVIDED "AS IS", WITHOUT WARRANTY OF ANY KIND, EXPRESS OR
  16:../freertos/portable/MemMang/heap_4.c ****  * IMPLIED, INCLUDING BUT NOT LIMITED TO THE WARRANTIES OF MERCHANTABILITY, FITNESS
  17:../freertos/portable/MemMang/heap_4.c ****  * FOR A PARTICULAR PURPOSE AND NONINFRINGEMENT. IN NO EVENT SHALL THE AUTHORS OR
  18:../freertos/portable/MemMang/heap_4.c ****  * COPYRIGHT HOLDERS BE LIABLE FOR ANY CLAIM, DAMAGES OR OTHER LIABILITY, WHETHER
  19:../freertos/portable/MemMang/heap_4.c ****  * IN AN ACTION OF CONTRACT, TORT OR OTHERWISE, ARISING FROM, OUT OF OR IN
  20:../freertos/portable/MemMang/heap_4.c ****  * CONNECTION WITH THE SOFTWARE OR THE USE OR OTHER DEALINGS IN THE SOFTWARE.
  21:../freertos/portable/MemMang/heap_4.c ****  *
  22:../freertos/portable/MemMang/heap_4.c ****  * http://www.FreeRTOS.org
  23:../freertos/portable/MemMang/heap_4.c ****  * http://aws.amazon.com/freertos
  24:../freertos/portable/MemMang/heap_4.c ****  *
  25:../freertos/portable/MemMang/heap_4.c ****  * 1 tab == 4 spaces!
  26:../freertos/portable/MemMang/heap_4.c ****  */
  27:../freertos/portable/MemMang/heap_4.c **** 
  28:../freertos/portable/MemMang/heap_4.c **** /*
ARM GAS  /tmp/cc3VwJ6e.s 			page 3


  29:../freertos/portable/MemMang/heap_4.c ****  * A sample implementation of pvPortMalloc() and vPortFree() that combines
  30:../freertos/portable/MemMang/heap_4.c ****  * (coalescences) adjacent memory blocks as they are freed, and in so doing
  31:../freertos/portable/MemMang/heap_4.c ****  * limits memory fragmentation.
  32:../freertos/portable/MemMang/heap_4.c ****  *
  33:../freertos/portable/MemMang/heap_4.c ****  * See heap_1.c, heap_2.c and heap_3.c for alternative implementations, and the
  34:../freertos/portable/MemMang/heap_4.c ****  * memory management pages of http://www.FreeRTOS.org for more information.
  35:../freertos/portable/MemMang/heap_4.c ****  */
  36:../freertos/portable/MemMang/heap_4.c **** #include <stdlib.h>
  37:../freertos/portable/MemMang/heap_4.c **** 
  38:../freertos/portable/MemMang/heap_4.c **** /* Defining MPU_WRAPPERS_INCLUDED_FROM_API_FILE prevents task.h from redefining
  39:../freertos/portable/MemMang/heap_4.c **** all the API functions to use the MPU wrappers.  That should only be done when
  40:../freertos/portable/MemMang/heap_4.c **** task.h is included from an application file. */
  41:../freertos/portable/MemMang/heap_4.c **** #define MPU_WRAPPERS_INCLUDED_FROM_API_FILE
  42:../freertos/portable/MemMang/heap_4.c **** 
  43:../freertos/portable/MemMang/heap_4.c **** #include "FreeRTOS.h"
  44:../freertos/portable/MemMang/heap_4.c **** #include "task.h"
  45:../freertos/portable/MemMang/heap_4.c **** 
  46:../freertos/portable/MemMang/heap_4.c **** #undef MPU_WRAPPERS_INCLUDED_FROM_API_FILE
  47:../freertos/portable/MemMang/heap_4.c **** 
  48:../freertos/portable/MemMang/heap_4.c **** #if( configSUPPORT_DYNAMIC_ALLOCATION == 0 )
  49:../freertos/portable/MemMang/heap_4.c **** 	#error This file must not be used if configSUPPORT_DYNAMIC_ALLOCATION is 0
  50:../freertos/portable/MemMang/heap_4.c **** #endif
  51:../freertos/portable/MemMang/heap_4.c **** 
  52:../freertos/portable/MemMang/heap_4.c **** /* Block sizes must not get too small. */
  53:../freertos/portable/MemMang/heap_4.c **** #define heapMINIMUM_BLOCK_SIZE	( ( size_t ) ( xHeapStructSize << 1 ) )
  54:../freertos/portable/MemMang/heap_4.c **** 
  55:../freertos/portable/MemMang/heap_4.c **** /* Assumes 8bit bytes! */
  56:../freertos/portable/MemMang/heap_4.c **** #define heapBITS_PER_BYTE		( ( size_t ) 8 )
  57:../freertos/portable/MemMang/heap_4.c **** 
  58:../freertos/portable/MemMang/heap_4.c **** /* Allocate the memory for the heap. */
  59:../freertos/portable/MemMang/heap_4.c **** #if( configAPPLICATION_ALLOCATED_HEAP == 1 )
  60:../freertos/portable/MemMang/heap_4.c **** 	/* The application writer has already defined the array used for the RTOS
  61:../freertos/portable/MemMang/heap_4.c **** 	heap - probably so it can be placed in a special segment or address. */
  62:../freertos/portable/MemMang/heap_4.c **** 	extern uint8_t ucHeap[ configTOTAL_HEAP_SIZE ];
  63:../freertos/portable/MemMang/heap_4.c **** #else
  64:../freertos/portable/MemMang/heap_4.c **** 	static uint8_t ucHeap[ configTOTAL_HEAP_SIZE ];
  65:../freertos/portable/MemMang/heap_4.c **** #endif /* configAPPLICATION_ALLOCATED_HEAP */
  66:../freertos/portable/MemMang/heap_4.c **** 
  67:../freertos/portable/MemMang/heap_4.c **** /* Define the linked list structure.  This is used to link free blocks in order
  68:../freertos/portable/MemMang/heap_4.c **** of their memory address. */
  69:../freertos/portable/MemMang/heap_4.c **** typedef struct A_BLOCK_LINK
  70:../freertos/portable/MemMang/heap_4.c **** {
  71:../freertos/portable/MemMang/heap_4.c **** 	struct A_BLOCK_LINK *pxNextFreeBlock;	/*<< The next free block in the list. */
  72:../freertos/portable/MemMang/heap_4.c **** 	size_t xBlockSize;						/*<< The size of the free block. */
  73:../freertos/portable/MemMang/heap_4.c **** } BlockLink_t;
  74:../freertos/portable/MemMang/heap_4.c **** 
  75:../freertos/portable/MemMang/heap_4.c **** /*-----------------------------------------------------------*/
  76:../freertos/portable/MemMang/heap_4.c **** 
  77:../freertos/portable/MemMang/heap_4.c **** /*
  78:../freertos/portable/MemMang/heap_4.c ****  * Inserts a block of memory that is being freed into the correct position in
  79:../freertos/portable/MemMang/heap_4.c ****  * the list of free memory blocks.  The block being freed will be merged with
  80:../freertos/portable/MemMang/heap_4.c ****  * the block in front it and/or the block behind it if the memory blocks are
  81:../freertos/portable/MemMang/heap_4.c ****  * adjacent to each other.
  82:../freertos/portable/MemMang/heap_4.c ****  */
  83:../freertos/portable/MemMang/heap_4.c **** static void prvInsertBlockIntoFreeList( BlockLink_t *pxBlockToInsert );
  84:../freertos/portable/MemMang/heap_4.c **** 
  85:../freertos/portable/MemMang/heap_4.c **** /*
ARM GAS  /tmp/cc3VwJ6e.s 			page 4


  86:../freertos/portable/MemMang/heap_4.c ****  * Called automatically to setup the required heap structures the first time
  87:../freertos/portable/MemMang/heap_4.c ****  * pvPortMalloc() is called.
  88:../freertos/portable/MemMang/heap_4.c ****  */
  89:../freertos/portable/MemMang/heap_4.c **** static void prvHeapInit( void );
  90:../freertos/portable/MemMang/heap_4.c **** 
  91:../freertos/portable/MemMang/heap_4.c **** /*-----------------------------------------------------------*/
  92:../freertos/portable/MemMang/heap_4.c **** 
  93:../freertos/portable/MemMang/heap_4.c **** /* The size of the structure placed at the beginning of each allocated memory
  94:../freertos/portable/MemMang/heap_4.c **** block must by correctly byte aligned. */
  95:../freertos/portable/MemMang/heap_4.c **** static const size_t xHeapStructSize	= ( sizeof( BlockLink_t ) + ( ( size_t ) ( portBYTE_ALIGNMENT -
  96:../freertos/portable/MemMang/heap_4.c **** 
  97:../freertos/portable/MemMang/heap_4.c **** /* Create a couple of list links to mark the start and end of the list. */
  98:../freertos/portable/MemMang/heap_4.c **** static BlockLink_t xStart, *pxEnd = NULL;
  99:../freertos/portable/MemMang/heap_4.c **** 
 100:../freertos/portable/MemMang/heap_4.c **** /* Keeps track of the number of free bytes remaining, but says nothing about
 101:../freertos/portable/MemMang/heap_4.c **** fragmentation. */
 102:../freertos/portable/MemMang/heap_4.c **** static size_t xFreeBytesRemaining = 0U;
 103:../freertos/portable/MemMang/heap_4.c **** static size_t xMinimumEverFreeBytesRemaining = 0U;
 104:../freertos/portable/MemMang/heap_4.c **** 
 105:../freertos/portable/MemMang/heap_4.c **** /* Gets set to the top bit of an size_t type.  When this bit in the xBlockSize
 106:../freertos/portable/MemMang/heap_4.c **** member of an BlockLink_t structure is set then the block belongs to the
 107:../freertos/portable/MemMang/heap_4.c **** application.  When the bit is free the block is still part of the free heap
 108:../freertos/portable/MemMang/heap_4.c **** space. */
 109:../freertos/portable/MemMang/heap_4.c **** static size_t xBlockAllocatedBit = 0;
 110:../freertos/portable/MemMang/heap_4.c **** 
 111:../freertos/portable/MemMang/heap_4.c **** /*-----------------------------------------------------------*/
 112:../freertos/portable/MemMang/heap_4.c **** 
 113:../freertos/portable/MemMang/heap_4.c **** void *pvPortMalloc( size_t xWantedSize )
 114:../freertos/portable/MemMang/heap_4.c **** {
 115:../freertos/portable/MemMang/heap_4.c **** BlockLink_t *pxBlock, *pxPreviousBlock, *pxNewBlockLink;
 116:../freertos/portable/MemMang/heap_4.c **** void *pvReturn = NULL;
 117:../freertos/portable/MemMang/heap_4.c **** 
 118:../freertos/portable/MemMang/heap_4.c **** 	vTaskSuspendAll();
 119:../freertos/portable/MemMang/heap_4.c **** 	{
 120:../freertos/portable/MemMang/heap_4.c **** 		/* If this is the first call to malloc then the heap will require
 121:../freertos/portable/MemMang/heap_4.c **** 		initialisation to setup the list of free blocks. */
 122:../freertos/portable/MemMang/heap_4.c **** 		if( pxEnd == NULL )
 123:../freertos/portable/MemMang/heap_4.c **** 		{
 124:../freertos/portable/MemMang/heap_4.c **** 			prvHeapInit();
 125:../freertos/portable/MemMang/heap_4.c **** 		}
 126:../freertos/portable/MemMang/heap_4.c **** 		else
 127:../freertos/portable/MemMang/heap_4.c **** 		{
 128:../freertos/portable/MemMang/heap_4.c **** 			mtCOVERAGE_TEST_MARKER();
 129:../freertos/portable/MemMang/heap_4.c **** 		}
 130:../freertos/portable/MemMang/heap_4.c **** 
 131:../freertos/portable/MemMang/heap_4.c **** 		/* Check the requested block size is not so large that the top bit is
 132:../freertos/portable/MemMang/heap_4.c **** 		set.  The top bit of the block size member of the BlockLink_t structure
 133:../freertos/portable/MemMang/heap_4.c **** 		is used to determine who owns the block - the application or the
 134:../freertos/portable/MemMang/heap_4.c **** 		kernel, so it must be free. */
 135:../freertos/portable/MemMang/heap_4.c **** 		if( ( xWantedSize & xBlockAllocatedBit ) == 0 )
 136:../freertos/portable/MemMang/heap_4.c **** 		{
 137:../freertos/portable/MemMang/heap_4.c **** 			/* The wanted size is increased so it can contain a BlockLink_t
 138:../freertos/portable/MemMang/heap_4.c **** 			structure in addition to the requested amount of bytes. */
 139:../freertos/portable/MemMang/heap_4.c **** 			if( xWantedSize > 0 )
 140:../freertos/portable/MemMang/heap_4.c **** 			{
 141:../freertos/portable/MemMang/heap_4.c **** 				xWantedSize += xHeapStructSize;
 142:../freertos/portable/MemMang/heap_4.c **** 
ARM GAS  /tmp/cc3VwJ6e.s 			page 5


 143:../freertos/portable/MemMang/heap_4.c **** 				/* Ensure that blocks are always aligned to the required number
 144:../freertos/portable/MemMang/heap_4.c **** 				of bytes. */
 145:../freertos/portable/MemMang/heap_4.c **** 				if( ( xWantedSize & portBYTE_ALIGNMENT_MASK ) != 0x00 )
 146:../freertos/portable/MemMang/heap_4.c **** 				{
 147:../freertos/portable/MemMang/heap_4.c **** 					/* Byte alignment required. */
 148:../freertos/portable/MemMang/heap_4.c **** 					xWantedSize += ( portBYTE_ALIGNMENT - ( xWantedSize & portBYTE_ALIGNMENT_MASK ) );
 149:../freertos/portable/MemMang/heap_4.c **** 					configASSERT( ( xWantedSize & portBYTE_ALIGNMENT_MASK ) == 0 );
 150:../freertos/portable/MemMang/heap_4.c **** 				}
 151:../freertos/portable/MemMang/heap_4.c **** 				else
 152:../freertos/portable/MemMang/heap_4.c **** 				{
 153:../freertos/portable/MemMang/heap_4.c **** 					mtCOVERAGE_TEST_MARKER();
 154:../freertos/portable/MemMang/heap_4.c **** 				}
 155:../freertos/portable/MemMang/heap_4.c **** 			}
 156:../freertos/portable/MemMang/heap_4.c **** 			else
 157:../freertos/portable/MemMang/heap_4.c **** 			{
 158:../freertos/portable/MemMang/heap_4.c **** 				mtCOVERAGE_TEST_MARKER();
 159:../freertos/portable/MemMang/heap_4.c **** 			}
 160:../freertos/portable/MemMang/heap_4.c **** 
 161:../freertos/portable/MemMang/heap_4.c **** 			if( ( xWantedSize > 0 ) && ( xWantedSize <= xFreeBytesRemaining ) )
 162:../freertos/portable/MemMang/heap_4.c **** 			{
 163:../freertos/portable/MemMang/heap_4.c **** 				/* Traverse the list from the start	(lowest address) block until
 164:../freertos/portable/MemMang/heap_4.c **** 				one	of adequate size is found. */
 165:../freertos/portable/MemMang/heap_4.c **** 				pxPreviousBlock = &xStart;
 166:../freertos/portable/MemMang/heap_4.c **** 				pxBlock = xStart.pxNextFreeBlock;
 167:../freertos/portable/MemMang/heap_4.c **** 				while( ( pxBlock->xBlockSize < xWantedSize ) && ( pxBlock->pxNextFreeBlock != NULL ) )
 168:../freertos/portable/MemMang/heap_4.c **** 				{
 169:../freertos/portable/MemMang/heap_4.c **** 					pxPreviousBlock = pxBlock;
 170:../freertos/portable/MemMang/heap_4.c **** 					pxBlock = pxBlock->pxNextFreeBlock;
 171:../freertos/portable/MemMang/heap_4.c **** 				}
 172:../freertos/portable/MemMang/heap_4.c **** 
 173:../freertos/portable/MemMang/heap_4.c **** 				/* If the end marker was reached then a block of adequate size
 174:../freertos/portable/MemMang/heap_4.c **** 				was	not found. */
 175:../freertos/portable/MemMang/heap_4.c **** 				if( pxBlock != pxEnd )
 176:../freertos/portable/MemMang/heap_4.c **** 				{
 177:../freertos/portable/MemMang/heap_4.c **** 					/* Return the memory space pointed to - jumping over the
 178:../freertos/portable/MemMang/heap_4.c **** 					BlockLink_t structure at its start. */
 179:../freertos/portable/MemMang/heap_4.c **** 					pvReturn = ( void * ) ( ( ( uint8_t * ) pxPreviousBlock->pxNextFreeBlock ) + xHeapStructSize )
 180:../freertos/portable/MemMang/heap_4.c **** 
 181:../freertos/portable/MemMang/heap_4.c **** 					/* This block is being returned for use so must be taken out
 182:../freertos/portable/MemMang/heap_4.c **** 					of the list of free blocks. */
 183:../freertos/portable/MemMang/heap_4.c **** 					pxPreviousBlock->pxNextFreeBlock = pxBlock->pxNextFreeBlock;
 184:../freertos/portable/MemMang/heap_4.c **** 
 185:../freertos/portable/MemMang/heap_4.c **** 					/* If the block is larger than required it can be split into
 186:../freertos/portable/MemMang/heap_4.c **** 					two. */
 187:../freertos/portable/MemMang/heap_4.c **** 					if( ( pxBlock->xBlockSize - xWantedSize ) > heapMINIMUM_BLOCK_SIZE )
 188:../freertos/portable/MemMang/heap_4.c **** 					{
 189:../freertos/portable/MemMang/heap_4.c **** 						/* This block is to be split into two.  Create a new
 190:../freertos/portable/MemMang/heap_4.c **** 						block following the number of bytes requested. The void
 191:../freertos/portable/MemMang/heap_4.c **** 						cast is used to prevent byte alignment warnings from the
 192:../freertos/portable/MemMang/heap_4.c **** 						compiler. */
 193:../freertos/portable/MemMang/heap_4.c **** 						pxNewBlockLink = ( void * ) ( ( ( uint8_t * ) pxBlock ) + xWantedSize );
 194:../freertos/portable/MemMang/heap_4.c **** 						configASSERT( ( ( ( size_t ) pxNewBlockLink ) & portBYTE_ALIGNMENT_MASK ) == 0 );
 195:../freertos/portable/MemMang/heap_4.c **** 
 196:../freertos/portable/MemMang/heap_4.c **** 						/* Calculate the sizes of two blocks split from the
 197:../freertos/portable/MemMang/heap_4.c **** 						single block. */
 198:../freertos/portable/MemMang/heap_4.c **** 						pxNewBlockLink->xBlockSize = pxBlock->xBlockSize - xWantedSize;
 199:../freertos/portable/MemMang/heap_4.c **** 						pxBlock->xBlockSize = xWantedSize;
ARM GAS  /tmp/cc3VwJ6e.s 			page 6


 200:../freertos/portable/MemMang/heap_4.c **** 
 201:../freertos/portable/MemMang/heap_4.c **** 						/* Insert the new block into the list of free blocks. */
 202:../freertos/portable/MemMang/heap_4.c **** 						prvInsertBlockIntoFreeList( pxNewBlockLink );
 203:../freertos/portable/MemMang/heap_4.c **** 					}
 204:../freertos/portable/MemMang/heap_4.c **** 					else
 205:../freertos/portable/MemMang/heap_4.c **** 					{
 206:../freertos/portable/MemMang/heap_4.c **** 						mtCOVERAGE_TEST_MARKER();
 207:../freertos/portable/MemMang/heap_4.c **** 					}
 208:../freertos/portable/MemMang/heap_4.c **** 
 209:../freertos/portable/MemMang/heap_4.c **** 					xFreeBytesRemaining -= pxBlock->xBlockSize;
 210:../freertos/portable/MemMang/heap_4.c **** 
 211:../freertos/portable/MemMang/heap_4.c **** 					if( xFreeBytesRemaining < xMinimumEverFreeBytesRemaining )
 212:../freertos/portable/MemMang/heap_4.c **** 					{
 213:../freertos/portable/MemMang/heap_4.c **** 						xMinimumEverFreeBytesRemaining = xFreeBytesRemaining;
 214:../freertos/portable/MemMang/heap_4.c **** 					}
 215:../freertos/portable/MemMang/heap_4.c **** 					else
 216:../freertos/portable/MemMang/heap_4.c **** 					{
 217:../freertos/portable/MemMang/heap_4.c **** 						mtCOVERAGE_TEST_MARKER();
 218:../freertos/portable/MemMang/heap_4.c **** 					}
 219:../freertos/portable/MemMang/heap_4.c **** 
 220:../freertos/portable/MemMang/heap_4.c **** 					/* The block is being returned - it is allocated and owned
 221:../freertos/portable/MemMang/heap_4.c **** 					by the application and has no "next" block. */
 222:../freertos/portable/MemMang/heap_4.c **** 					pxBlock->xBlockSize |= xBlockAllocatedBit;
 223:../freertos/portable/MemMang/heap_4.c **** 					pxBlock->pxNextFreeBlock = NULL;
 224:../freertos/portable/MemMang/heap_4.c **** 				}
 225:../freertos/portable/MemMang/heap_4.c **** 				else
 226:../freertos/portable/MemMang/heap_4.c **** 				{
 227:../freertos/portable/MemMang/heap_4.c **** 					mtCOVERAGE_TEST_MARKER();
 228:../freertos/portable/MemMang/heap_4.c **** 				}
 229:../freertos/portable/MemMang/heap_4.c **** 			}
 230:../freertos/portable/MemMang/heap_4.c **** 			else
 231:../freertos/portable/MemMang/heap_4.c **** 			{
 232:../freertos/portable/MemMang/heap_4.c **** 				mtCOVERAGE_TEST_MARKER();
 233:../freertos/portable/MemMang/heap_4.c **** 			}
 234:../freertos/portable/MemMang/heap_4.c **** 		}
 235:../freertos/portable/MemMang/heap_4.c **** 		else
 236:../freertos/portable/MemMang/heap_4.c **** 		{
 237:../freertos/portable/MemMang/heap_4.c **** 			mtCOVERAGE_TEST_MARKER();
 238:../freertos/portable/MemMang/heap_4.c **** 		}
 239:../freertos/portable/MemMang/heap_4.c **** 
 240:../freertos/portable/MemMang/heap_4.c **** 		traceMALLOC( pvReturn, xWantedSize );
 241:../freertos/portable/MemMang/heap_4.c **** 	}
 242:../freertos/portable/MemMang/heap_4.c **** 	( void ) xTaskResumeAll();
 243:../freertos/portable/MemMang/heap_4.c **** 
 244:../freertos/portable/MemMang/heap_4.c **** 	#if( configUSE_MALLOC_FAILED_HOOK == 1 )
 245:../freertos/portable/MemMang/heap_4.c **** 	{
 246:../freertos/portable/MemMang/heap_4.c **** 		if( pvReturn == NULL )
 247:../freertos/portable/MemMang/heap_4.c **** 		{
 248:../freertos/portable/MemMang/heap_4.c **** 			extern void vApplicationMallocFailedHook( void );
 249:../freertos/portable/MemMang/heap_4.c **** 			vApplicationMallocFailedHook();
 250:../freertos/portable/MemMang/heap_4.c **** 		}
 251:../freertos/portable/MemMang/heap_4.c **** 		else
 252:../freertos/portable/MemMang/heap_4.c **** 		{
 253:../freertos/portable/MemMang/heap_4.c **** 			mtCOVERAGE_TEST_MARKER();
 254:../freertos/portable/MemMang/heap_4.c **** 		}
 255:../freertos/portable/MemMang/heap_4.c **** 	}
 256:../freertos/portable/MemMang/heap_4.c **** 	#endif
ARM GAS  /tmp/cc3VwJ6e.s 			page 7


 257:../freertos/portable/MemMang/heap_4.c **** 
 258:../freertos/portable/MemMang/heap_4.c **** 	configASSERT( ( ( ( size_t ) pvReturn ) & ( size_t ) portBYTE_ALIGNMENT_MASK ) == 0 );
 259:../freertos/portable/MemMang/heap_4.c **** 	return pvReturn;
 260:../freertos/portable/MemMang/heap_4.c **** }
 261:../freertos/portable/MemMang/heap_4.c **** /*-----------------------------------------------------------*/
 262:../freertos/portable/MemMang/heap_4.c **** 
 263:../freertos/portable/MemMang/heap_4.c **** void vPortFree( void *pv )
 264:../freertos/portable/MemMang/heap_4.c **** {
 265:../freertos/portable/MemMang/heap_4.c **** uint8_t *puc = ( uint8_t * ) pv;
 266:../freertos/portable/MemMang/heap_4.c **** BlockLink_t *pxLink;
 267:../freertos/portable/MemMang/heap_4.c **** 
 268:../freertos/portable/MemMang/heap_4.c **** 	if( pv != NULL )
 269:../freertos/portable/MemMang/heap_4.c **** 	{
 270:../freertos/portable/MemMang/heap_4.c **** 		/* The memory being freed will have an BlockLink_t structure immediately
 271:../freertos/portable/MemMang/heap_4.c **** 		before it. */
 272:../freertos/portable/MemMang/heap_4.c **** 		puc -= xHeapStructSize;
 273:../freertos/portable/MemMang/heap_4.c **** 
 274:../freertos/portable/MemMang/heap_4.c **** 		/* This casting is to keep the compiler from issuing warnings. */
 275:../freertos/portable/MemMang/heap_4.c **** 		pxLink = ( void * ) puc;
 276:../freertos/portable/MemMang/heap_4.c **** 
 277:../freertos/portable/MemMang/heap_4.c **** 		/* Check the block is actually allocated. */
 278:../freertos/portable/MemMang/heap_4.c **** 		configASSERT( ( pxLink->xBlockSize & xBlockAllocatedBit ) != 0 );
 279:../freertos/portable/MemMang/heap_4.c **** 		configASSERT( pxLink->pxNextFreeBlock == NULL );
 280:../freertos/portable/MemMang/heap_4.c **** 
 281:../freertos/portable/MemMang/heap_4.c **** 		if( ( pxLink->xBlockSize & xBlockAllocatedBit ) != 0 )
 282:../freertos/portable/MemMang/heap_4.c **** 		{
 283:../freertos/portable/MemMang/heap_4.c **** 			if( pxLink->pxNextFreeBlock == NULL )
 284:../freertos/portable/MemMang/heap_4.c **** 			{
 285:../freertos/portable/MemMang/heap_4.c **** 				/* The block is being returned to the heap - it is no longer
 286:../freertos/portable/MemMang/heap_4.c **** 				allocated. */
 287:../freertos/portable/MemMang/heap_4.c **** 				pxLink->xBlockSize &= ~xBlockAllocatedBit;
 288:../freertos/portable/MemMang/heap_4.c **** 
 289:../freertos/portable/MemMang/heap_4.c **** 				vTaskSuspendAll();
 290:../freertos/portable/MemMang/heap_4.c **** 				{
 291:../freertos/portable/MemMang/heap_4.c **** 					/* Add this block to the list of free blocks. */
 292:../freertos/portable/MemMang/heap_4.c **** 					xFreeBytesRemaining += pxLink->xBlockSize;
 293:../freertos/portable/MemMang/heap_4.c **** 					traceFREE( pv, pxLink->xBlockSize );
 294:../freertos/portable/MemMang/heap_4.c **** 					prvInsertBlockIntoFreeList( ( ( BlockLink_t * ) pxLink ) );
 295:../freertos/portable/MemMang/heap_4.c **** 				}
 296:../freertos/portable/MemMang/heap_4.c **** 				( void ) xTaskResumeAll();
 297:../freertos/portable/MemMang/heap_4.c **** 			}
 298:../freertos/portable/MemMang/heap_4.c **** 			else
 299:../freertos/portable/MemMang/heap_4.c **** 			{
 300:../freertos/portable/MemMang/heap_4.c **** 				mtCOVERAGE_TEST_MARKER();
 301:../freertos/portable/MemMang/heap_4.c **** 			}
 302:../freertos/portable/MemMang/heap_4.c **** 		}
 303:../freertos/portable/MemMang/heap_4.c **** 		else
 304:../freertos/portable/MemMang/heap_4.c **** 		{
 305:../freertos/portable/MemMang/heap_4.c **** 			mtCOVERAGE_TEST_MARKER();
 306:../freertos/portable/MemMang/heap_4.c **** 		}
 307:../freertos/portable/MemMang/heap_4.c **** 	}
 308:../freertos/portable/MemMang/heap_4.c **** }
 309:../freertos/portable/MemMang/heap_4.c **** /*-----------------------------------------------------------*/
 310:../freertos/portable/MemMang/heap_4.c **** 
 311:../freertos/portable/MemMang/heap_4.c **** size_t xPortGetFreeHeapSize( void )
 312:../freertos/portable/MemMang/heap_4.c **** {
 313:../freertos/portable/MemMang/heap_4.c **** 	return xFreeBytesRemaining;
ARM GAS  /tmp/cc3VwJ6e.s 			page 8


 314:../freertos/portable/MemMang/heap_4.c **** }
 315:../freertos/portable/MemMang/heap_4.c **** /*-----------------------------------------------------------*/
 316:../freertos/portable/MemMang/heap_4.c **** 
 317:../freertos/portable/MemMang/heap_4.c **** size_t xPortGetMinimumEverFreeHeapSize( void )
 318:../freertos/portable/MemMang/heap_4.c **** {
 319:../freertos/portable/MemMang/heap_4.c **** 	return xMinimumEverFreeBytesRemaining;
 320:../freertos/portable/MemMang/heap_4.c **** }
 321:../freertos/portable/MemMang/heap_4.c **** /*-----------------------------------------------------------*/
 322:../freertos/portable/MemMang/heap_4.c **** 
 323:../freertos/portable/MemMang/heap_4.c **** void vPortInitialiseBlocks( void )
 324:../freertos/portable/MemMang/heap_4.c **** {
 325:../freertos/portable/MemMang/heap_4.c **** 	/* This just exists to keep the linker quiet. */
 326:../freertos/portable/MemMang/heap_4.c **** }
 327:../freertos/portable/MemMang/heap_4.c **** /*-----------------------------------------------------------*/
 328:../freertos/portable/MemMang/heap_4.c **** 
 329:../freertos/portable/MemMang/heap_4.c **** static void prvHeapInit( void )
 330:../freertos/portable/MemMang/heap_4.c **** {
 331:../freertos/portable/MemMang/heap_4.c **** BlockLink_t *pxFirstFreeBlock;
 332:../freertos/portable/MemMang/heap_4.c **** uint8_t *pucAlignedHeap;
 333:../freertos/portable/MemMang/heap_4.c **** size_t uxAddress;
 334:../freertos/portable/MemMang/heap_4.c **** size_t xTotalHeapSize = configTOTAL_HEAP_SIZE;
 335:../freertos/portable/MemMang/heap_4.c **** 
 336:../freertos/portable/MemMang/heap_4.c **** 	/* Ensure the heap starts on a correctly aligned boundary. */
 337:../freertos/portable/MemMang/heap_4.c **** 	uxAddress = ( size_t ) ucHeap;
 338:../freertos/portable/MemMang/heap_4.c **** 
 339:../freertos/portable/MemMang/heap_4.c **** 	if( ( uxAddress & portBYTE_ALIGNMENT_MASK ) != 0 )
 340:../freertos/portable/MemMang/heap_4.c **** 	{
 341:../freertos/portable/MemMang/heap_4.c **** 		uxAddress += ( portBYTE_ALIGNMENT - 1 );
 342:../freertos/portable/MemMang/heap_4.c **** 		uxAddress &= ~( ( size_t ) portBYTE_ALIGNMENT_MASK );
 343:../freertos/portable/MemMang/heap_4.c **** 		xTotalHeapSize -= uxAddress - ( size_t ) ucHeap;
 344:../freertos/portable/MemMang/heap_4.c **** 	}
 345:../freertos/portable/MemMang/heap_4.c **** 
 346:../freertos/portable/MemMang/heap_4.c **** 	pucAlignedHeap = ( uint8_t * ) uxAddress;
 347:../freertos/portable/MemMang/heap_4.c **** 
 348:../freertos/portable/MemMang/heap_4.c **** 	/* xStart is used to hold a pointer to the first item in the list of free
 349:../freertos/portable/MemMang/heap_4.c **** 	blocks.  The void cast is used to prevent compiler warnings. */
 350:../freertos/portable/MemMang/heap_4.c **** 	xStart.pxNextFreeBlock = ( void * ) pucAlignedHeap;
 351:../freertos/portable/MemMang/heap_4.c **** 	xStart.xBlockSize = ( size_t ) 0;
 352:../freertos/portable/MemMang/heap_4.c **** 
 353:../freertos/portable/MemMang/heap_4.c **** 	/* pxEnd is used to mark the end of the list of free blocks and is inserted
 354:../freertos/portable/MemMang/heap_4.c **** 	at the end of the heap space. */
 355:../freertos/portable/MemMang/heap_4.c **** 	uxAddress = ( ( size_t ) pucAlignedHeap ) + xTotalHeapSize;
 356:../freertos/portable/MemMang/heap_4.c **** 	uxAddress -= xHeapStructSize;
 357:../freertos/portable/MemMang/heap_4.c **** 	uxAddress &= ~( ( size_t ) portBYTE_ALIGNMENT_MASK );
 358:../freertos/portable/MemMang/heap_4.c **** 	pxEnd = ( void * ) uxAddress;
 359:../freertos/portable/MemMang/heap_4.c **** 	pxEnd->xBlockSize = 0;
 360:../freertos/portable/MemMang/heap_4.c **** 	pxEnd->pxNextFreeBlock = NULL;
 361:../freertos/portable/MemMang/heap_4.c **** 
 362:../freertos/portable/MemMang/heap_4.c **** 	/* To start with there is a single free block that is sized to take up the
 363:../freertos/portable/MemMang/heap_4.c **** 	entire heap space, minus the space taken by pxEnd. */
 364:../freertos/portable/MemMang/heap_4.c **** 	pxFirstFreeBlock = ( void * ) pucAlignedHeap;
 365:../freertos/portable/MemMang/heap_4.c **** 	pxFirstFreeBlock->xBlockSize = uxAddress - ( size_t ) pxFirstFreeBlock;
 366:../freertos/portable/MemMang/heap_4.c **** 	pxFirstFreeBlock->pxNextFreeBlock = pxEnd;
 367:../freertos/portable/MemMang/heap_4.c **** 
 368:../freertos/portable/MemMang/heap_4.c **** 	/* Only one block exists - and it covers the entire usable heap space. */
 369:../freertos/portable/MemMang/heap_4.c **** 	xMinimumEverFreeBytesRemaining = pxFirstFreeBlock->xBlockSize;
 370:../freertos/portable/MemMang/heap_4.c **** 	xFreeBytesRemaining = pxFirstFreeBlock->xBlockSize;
ARM GAS  /tmp/cc3VwJ6e.s 			page 9


 371:../freertos/portable/MemMang/heap_4.c **** 
 372:../freertos/portable/MemMang/heap_4.c **** 	/* Work out the position of the top bit in a size_t variable. */
 373:../freertos/portable/MemMang/heap_4.c **** 	xBlockAllocatedBit = ( ( size_t ) 1 ) << ( ( sizeof( size_t ) * heapBITS_PER_BYTE ) - 1 );
 374:../freertos/portable/MemMang/heap_4.c **** }
 375:../freertos/portable/MemMang/heap_4.c **** /*-----------------------------------------------------------*/
 376:../freertos/portable/MemMang/heap_4.c **** 
 377:../freertos/portable/MemMang/heap_4.c **** static void prvInsertBlockIntoFreeList( BlockLink_t *pxBlockToInsert )
 378:../freertos/portable/MemMang/heap_4.c **** {
  87              		.loc 1 378 1 view -0
  88              		.cfi_startproc
  89              		@ args = 0, pretend = 0, frame = 0
  90              		@ frame_needed = 0, uses_anonymous_args = 0
 379:../freertos/portable/MemMang/heap_4.c **** BlockLink_t *pxIterator;
  91              		.loc 1 379 1 view .LVU1
 380:../freertos/portable/MemMang/heap_4.c **** uint8_t *puc;
  92              		.loc 1 380 1 view .LVU2
 381:../freertos/portable/MemMang/heap_4.c **** 
 382:../freertos/portable/MemMang/heap_4.c **** 	/* Iterate through the list until a block is found that has a higher address
 383:../freertos/portable/MemMang/heap_4.c **** 	than the block being inserted. */
 384:../freertos/portable/MemMang/heap_4.c **** 	for( pxIterator = &xStart; pxIterator->pxNextFreeBlock < pxBlockToInsert; pxIterator = pxIterator-
  93              		.loc 1 384 2 view .LVU3
  94              	@ ../freertos/portable/MemMang/heap_4.c:384: 	for( pxIterator = &xStart; pxIterator->pxNextFreeBloc
  95              		.loc 1 384 18 is_stmt 0 view .LVU4
  96 0000 0F4B     		ldr	r3, .L9	@ _1,
  97              	@ ../freertos/portable/MemMang/heap_4.c:378: {
 378:../freertos/portable/MemMang/heap_4.c **** BlockLink_t *pxIterator;
  98              		.loc 1 378 1 view .LVU5
  99 0002 30B5     		push	{r4, r5, lr}	@
 100              	.LCFI0:
 101              		.cfi_def_cfa_offset 12
 102              		.cfi_offset 4, -12
 103              		.cfi_offset 5, -8
 104              		.cfi_offset 14, -4
 105 0004 1D46     		mov	r5, r3	@ tmp134, _1
 106              	.LVL1:
 107              	.L2:
 108              		.loc 1 384 29 is_stmt 1 discriminator 1 view .LVU6
 109 0006 1A46     		mov	r2, r3	@ pxIterator, _1
 110              	@ ../freertos/portable/MemMang/heap_4.c:384: 	for( pxIterator = &xStart; pxIterator->pxNextFreeBloc
 111              		.loc 1 384 39 is_stmt 0 discriminator 1 view .LVU7
 112 0008 1B68     		ldr	r3, [r3]	@ _1, pxIterator_15->pxNextFreeBlock
 113              	.LVL2:
 114              	@ ../freertos/portable/MemMang/heap_4.c:384: 	for( pxIterator = &xStart; pxIterator->pxNextFreeBloc
 115              		.loc 1 384 2 discriminator 1 view .LVU8
 116 000a 8342     		cmp	r3, r0	@ _1, pxBlockToInsert
 117 000c FBD3     		bcc	.L2		@,
 385:../freertos/portable/MemMang/heap_4.c **** 	{
 386:../freertos/portable/MemMang/heap_4.c **** 		/* Nothing to do here, just iterate to the right position. */
 387:../freertos/portable/MemMang/heap_4.c **** 	}
 388:../freertos/portable/MemMang/heap_4.c **** 
 389:../freertos/portable/MemMang/heap_4.c **** 	/* Do the block being inserted, and the block it is being inserted after
 390:../freertos/portable/MemMang/heap_4.c **** 	make a contiguous block of memory? */
 391:../freertos/portable/MemMang/heap_4.c **** 	puc = ( uint8_t * ) pxIterator;
 118              		.loc 1 391 2 is_stmt 1 view .LVU9
 119              	.LVL3:
 392:../freertos/portable/MemMang/heap_4.c **** 	if( ( puc + pxIterator->xBlockSize ) == ( uint8_t * ) pxBlockToInsert )
 120              		.loc 1 392 2 view .LVU10
ARM GAS  /tmp/cc3VwJ6e.s 			page 10


 121              	@ ../freertos/portable/MemMang/heap_4.c:392: 	if( ( puc + pxIterator->xBlockSize ) == ( uint8_t * )
 122              		.loc 1 392 24 is_stmt 0 view .LVU11
 123 000e 5468     		ldr	r4, [r2, #4]	@ _2, pxIterator_36->xBlockSize
 124              	@ ../freertos/portable/MemMang/heap_4.c:392: 	if( ( puc + pxIterator->xBlockSize ) == ( uint8_t * )
 125              		.loc 1 392 12 view .LVU12
 126 0010 1119     		adds	r1, r2, r4	@ tmp127, pxIterator, _2
 127              	@ ../freertos/portable/MemMang/heap_4.c:392: 	if( ( puc + pxIterator->xBlockSize ) == ( uint8_t * )
 128              		.loc 1 392 4 view .LVU13
 129 0012 8842     		cmp	r0, r1	@ pxBlockToInsert, tmp127
 393:../freertos/portable/MemMang/heap_4.c **** 	{
 394:../freertos/portable/MemMang/heap_4.c **** 		pxIterator->xBlockSize += pxBlockToInsert->xBlockSize;
 130              		.loc 1 394 3 is_stmt 1 view .LVU14
 131              	@ ../freertos/portable/MemMang/heap_4.c:394: 		pxIterator->xBlockSize += pxBlockToInsert->xBlockSiz
 132              		.loc 1 394 26 is_stmt 0 view .LVU15
 133 0014 01BF     		itttt	eq
 134 0016 4168     		ldreq	r1, [r0, #4]	@ pxBlockToInsert_20(D)->xBlockSize, pxBlockToInsert_20(D)->xBlockSize
 135 0018 1046     		moveq	r0, r2	@ pxBlockToInsert, pxIterator
 136              	.LVL4:
 137              		.loc 1 394 26 view .LVU16
 138 001a 0919     		addeq	r1, r1, r4	@ tmp128, _2
 139 001c 5160     		streq	r1, [r2, #4]	@ tmp128, pxIterator_36->xBlockSize
 395:../freertos/portable/MemMang/heap_4.c **** 		pxBlockToInsert = pxIterator;
 140              		.loc 1 395 3 is_stmt 1 view .LVU17
 141              	.LVL5:
 396:../freertos/portable/MemMang/heap_4.c **** 	}
 397:../freertos/portable/MemMang/heap_4.c **** 	else
 398:../freertos/portable/MemMang/heap_4.c **** 	{
 399:../freertos/portable/MemMang/heap_4.c **** 		mtCOVERAGE_TEST_MARKER();
 142              		.loc 1 399 27 view .LVU18
 400:../freertos/portable/MemMang/heap_4.c **** 	}
 401:../freertos/portable/MemMang/heap_4.c **** 
 402:../freertos/portable/MemMang/heap_4.c **** 	/* Do the block being inserted, and the block it is being inserted before
 403:../freertos/portable/MemMang/heap_4.c **** 	make a contiguous block of memory? */
 404:../freertos/portable/MemMang/heap_4.c **** 	puc = ( uint8_t * ) pxBlockToInsert;
 143              		.loc 1 404 2 view .LVU19
 405:../freertos/portable/MemMang/heap_4.c **** 	if( ( puc + pxBlockToInsert->xBlockSize ) == ( uint8_t * ) pxIterator->pxNextFreeBlock )
 144              		.loc 1 405 2 view .LVU20
 145              	@ ../freertos/portable/MemMang/heap_4.c:405: 	if( ( puc + pxBlockToInsert->xBlockSize ) == ( uint8_
 146              		.loc 1 405 29 is_stmt 0 view .LVU21
 147 001e 4468     		ldr	r4, [r0, #4]	@ _7, pxBlockToInsert_14->xBlockSize
 148              	@ ../freertos/portable/MemMang/heap_4.c:405: 	if( ( puc + pxBlockToInsert->xBlockSize ) == ( uint8_
 149              		.loc 1 405 12 view .LVU22
 150 0020 0119     		adds	r1, r0, r4	@ tmp130, pxBlockToInsert, _7
 151              	@ ../freertos/portable/MemMang/heap_4.c:405: 	if( ( puc + pxBlockToInsert->xBlockSize ) == ( uint8_
 152              		.loc 1 405 4 view .LVU23
 153 0022 8B42     		cmp	r3, r1	@ _1, tmp130
 154 0024 06D1     		bne	.L4		@,
 406:../freertos/portable/MemMang/heap_4.c **** 	{
 407:../freertos/portable/MemMang/heap_4.c **** 		if( pxIterator->pxNextFreeBlock != pxEnd )
 155              		.loc 1 407 3 is_stmt 1 view .LVU24
 156              	@ ../freertos/portable/MemMang/heap_4.c:407: 		if( pxIterator->pxNextFreeBlock != pxEnd )
 157              		.loc 1 407 35 is_stmt 0 view .LVU25
 158 0026 A968     		ldr	r1, [r5, #8]	@ pxEnd.16_10, pxEnd
 159              	@ ../freertos/portable/MemMang/heap_4.c:407: 		if( pxIterator->pxNextFreeBlock != pxEnd )
 160              		.loc 1 407 5 view .LVU26
 161 0028 8B42     		cmp	r3, r1	@ _1, pxEnd.16_10
 408:../freertos/portable/MemMang/heap_4.c **** 		{
ARM GAS  /tmp/cc3VwJ6e.s 			page 11


 409:../freertos/portable/MemMang/heap_4.c **** 			/* Form one big block from the two blocks. */
 410:../freertos/portable/MemMang/heap_4.c **** 			pxBlockToInsert->xBlockSize += pxIterator->pxNextFreeBlock->xBlockSize;
 162              		.loc 1 410 4 is_stmt 1 view .LVU27
 163              	@ ../freertos/portable/MemMang/heap_4.c:410: 			pxBlockToInsert->xBlockSize += pxIterator->pxNextFr
 164              		.loc 1 410 32 is_stmt 0 view .LVU28
 165 002a 1FBF     		itttt	ne
 166 002c 5968     		ldrne	r1, [r3, #4]	@ _1->xBlockSize, _1->xBlockSize
 167              	@ ../freertos/portable/MemMang/heap_4.c:411: 			pxBlockToInsert->pxNextFreeBlock = pxIterator->pxNe
 411:../freertos/portable/MemMang/heap_4.c **** 			pxBlockToInsert->pxNextFreeBlock = pxIterator->pxNextFreeBlock->pxNextFreeBlock;
 168              		.loc 1 411 66 view .LVU29
 169 002e 1B68     		ldrne	r3, [r3]	@ _13, _1->pxNextFreeBlock
 170              	@ ../freertos/portable/MemMang/heap_4.c:410: 			pxBlockToInsert->xBlockSize += pxIterator->pxNextFr
 410:../freertos/portable/MemMang/heap_4.c **** 			pxBlockToInsert->pxNextFreeBlock = pxIterator->pxNextFreeBlock->pxNextFreeBlock;
 171              		.loc 1 410 32 view .LVU30
 172 0030 0919     		addne	r1, r1, r4	@ tmp132, _7
 173 0032 4160     		strne	r1, [r0, #4]	@ tmp132, pxBlockToInsert_14->xBlockSize
 174              		.loc 1 411 4 is_stmt 1 view .LVU31
 175              	.L4:
 412:../freertos/portable/MemMang/heap_4.c **** 		}
 413:../freertos/portable/MemMang/heap_4.c **** 		else
 414:../freertos/portable/MemMang/heap_4.c **** 		{
 415:../freertos/portable/MemMang/heap_4.c **** 			pxBlockToInsert->pxNextFreeBlock = pxEnd;
 416:../freertos/portable/MemMang/heap_4.c **** 		}
 417:../freertos/portable/MemMang/heap_4.c **** 	}
 418:../freertos/portable/MemMang/heap_4.c **** 	else
 419:../freertos/portable/MemMang/heap_4.c **** 	{
 420:../freertos/portable/MemMang/heap_4.c **** 		pxBlockToInsert->pxNextFreeBlock = pxIterator->pxNextFreeBlock;
 176              		.loc 1 420 3 view .LVU32
 177              	@ ../freertos/portable/MemMang/heap_4.c:427: 	if( pxIterator != pxBlockToInsert )
 421:../freertos/portable/MemMang/heap_4.c **** 	}
 422:../freertos/portable/MemMang/heap_4.c **** 
 423:../freertos/portable/MemMang/heap_4.c **** 	/* If the block being inserted plugged a gab, so was merged with the block
 424:../freertos/portable/MemMang/heap_4.c **** 	before and the block after, then it's pxNextFreeBlock pointer will have
 425:../freertos/portable/MemMang/heap_4.c **** 	already been set, and should not be set here as that would make it point
 426:../freertos/portable/MemMang/heap_4.c **** 	to itself. */
 427:../freertos/portable/MemMang/heap_4.c **** 	if( pxIterator != pxBlockToInsert )
 178              		.loc 1 427 4 is_stmt 0 view .LVU33
 179 0034 9042     		cmp	r0, r2	@ pxBlockToInsert, pxIterator
 180              	@ ../freertos/portable/MemMang/heap_4.c:420: 		pxBlockToInsert->pxNextFreeBlock = pxIterator->pxNex
 420:../freertos/portable/MemMang/heap_4.c **** 	}
 181              		.loc 1 420 36 view .LVU34
 182 0036 0360     		str	r3, [r0]	@ _1, pxBlockToInsert_14->pxNextFreeBlock
 183              		.loc 1 427 2 is_stmt 1 view .LVU35
 428:../freertos/portable/MemMang/heap_4.c **** 	{
 429:../freertos/portable/MemMang/heap_4.c **** 		pxIterator->pxNextFreeBlock = pxBlockToInsert;
 184              		.loc 1 429 3 view .LVU36
 185              	@ ../freertos/portable/MemMang/heap_4.c:429: 		pxIterator->pxNextFreeBlock = pxBlockToInsert;
 186              		.loc 1 429 31 is_stmt 0 view .LVU37
 187 0038 18BF     		it	ne
 188 003a 1060     		strne	r0, [r2]	@ pxBlockToInsert, pxIterator_36->pxNextFreeBlock
 430:../freertos/portable/MemMang/heap_4.c **** 	}
 431:../freertos/portable/MemMang/heap_4.c **** 	else
 432:../freertos/portable/MemMang/heap_4.c **** 	{
 433:../freertos/portable/MemMang/heap_4.c **** 		mtCOVERAGE_TEST_MARKER();
 189              		.loc 1 433 27 is_stmt 1 view .LVU38
 190              	@ ../freertos/portable/MemMang/heap_4.c:435: }
 434:../freertos/portable/MemMang/heap_4.c **** 	}
ARM GAS  /tmp/cc3VwJ6e.s 			page 12


 435:../freertos/portable/MemMang/heap_4.c **** }
 191              		.loc 1 435 1 is_stmt 0 view .LVU39
 192 003c 30BD     		pop	{r4, r5, pc}	@
 193              	.L10:
 194 003e 00BF     		.align	2
 195              	.L9:
 196 0040 00000000 		.word	.LANCHOR0
 197              		.cfi_endproc
 198              	.LFE11:
 199              		.size	prvInsertBlockIntoFreeList, .-prvInsertBlockIntoFreeList
 200              		.align	1
 201              		.global	pvPortMalloc
 202              		.syntax unified
 203              		.thumb
 204              		.thumb_func
 205              		.type	pvPortMalloc, %function
 206              	pvPortMalloc:
 207              	.LVL6:
 208              	.LFB5:
 114:../freertos/portable/MemMang/heap_4.c **** BlockLink_t *pxBlock, *pxPreviousBlock, *pxNewBlockLink;
 209              		.loc 1 114 1 is_stmt 1 view -0
 210              		.cfi_startproc
 211              		@ args = 0, pretend = 0, frame = 0
 212              		@ frame_needed = 0, uses_anonymous_args = 0
 115:../freertos/portable/MemMang/heap_4.c **** void *pvReturn = NULL;
 213              		.loc 1 115 1 view .LVU41
 116:../freertos/portable/MemMang/heap_4.c **** 
 214              		.loc 1 116 1 view .LVU42
 118:../freertos/portable/MemMang/heap_4.c **** 	{
 215              		.loc 1 118 2 view .LVU43
 216              	@ ../freertos/portable/MemMang/heap_4.c:114: {
 114:../freertos/portable/MemMang/heap_4.c **** BlockLink_t *pxBlock, *pxPreviousBlock, *pxNewBlockLink;
 217              		.loc 1 114 1 is_stmt 0 view .LVU44
 218 0044 2DE9F041 		push	{r4, r5, r6, r7, r8, lr}	@
 219              	.LCFI1:
 220              		.cfi_def_cfa_offset 24
 221              		.cfi_offset 4, -24
 222              		.cfi_offset 5, -20
 223              		.cfi_offset 6, -16
 224              		.cfi_offset 7, -12
 225              		.cfi_offset 8, -8
 226              		.cfi_offset 14, -4
 227              	@ ../freertos/portable/MemMang/heap_4.c:122: 		if( pxEnd == NULL )
 122:../freertos/portable/MemMang/heap_4.c **** 		{
 228              		.loc 1 122 13 view .LVU45
 229 0048 314D     		ldr	r5, .L30	@ tmp148,
 230              	@ ../freertos/portable/MemMang/heap_4.c:114: {
 114:../freertos/portable/MemMang/heap_4.c **** BlockLink_t *pxBlock, *pxPreviousBlock, *pxNewBlockLink;
 231              		.loc 1 114 1 view .LVU46
 232 004a 0446     		mov	r4, r0	@ xWantedSize, tmp179
 233              	@ ../freertos/portable/MemMang/heap_4.c:118: 	vTaskSuspendAll();
 118:../freertos/portable/MemMang/heap_4.c **** 	{
 234              		.loc 1 118 2 view .LVU47
 235 004c FFF7FEFF 		bl	vTaskSuspendAll		@
 236              	.LVL7:
 122:../freertos/portable/MemMang/heap_4.c **** 		{
 237              		.loc 1 122 3 is_stmt 1 view .LVU48
ARM GAS  /tmp/cc3VwJ6e.s 			page 13


 238              	@ ../freertos/portable/MemMang/heap_4.c:122: 		if( pxEnd == NULL )
 122:../freertos/portable/MemMang/heap_4.c **** 		{
 239              		.loc 1 122 5 is_stmt 0 view .LVU49
 240 0050 AB68     		ldr	r3, [r5, #8]	@ pxEnd, pxEnd
 241 0052 F3B9     		cbnz	r3, .L12	@ pxEnd,
 124:../freertos/portable/MemMang/heap_4.c **** 		}
 242              		.loc 1 124 4 is_stmt 1 view .LVU50
 243              	.LBB4:
 244              	.LBI4:
 329:../freertos/portable/MemMang/heap_4.c **** {
 245              		.loc 1 329 13 view .LVU51
 246              	.LBB5:
 331:../freertos/portable/MemMang/heap_4.c **** uint8_t *pucAlignedHeap;
 247              		.loc 1 331 1 view .LVU52
 332:../freertos/portable/MemMang/heap_4.c **** size_t uxAddress;
 248              		.loc 1 332 1 view .LVU53
 333:../freertos/portable/MemMang/heap_4.c **** size_t xTotalHeapSize = configTOTAL_HEAP_SIZE;
 249              		.loc 1 333 1 view .LVU54
 334:../freertos/portable/MemMang/heap_4.c **** 
 250              		.loc 1 334 1 view .LVU55
 251              	.LVL8:
 337:../freertos/portable/MemMang/heap_4.c **** 
 252              		.loc 1 337 2 view .LVU56
 253              	@ ../freertos/portable/MemMang/heap_4.c:337: 	uxAddress = ( size_t ) ucHeap;
 337:../freertos/portable/MemMang/heap_4.c **** 
 254              		.loc 1 337 12 is_stmt 0 view .LVU57
 255 0054 2F4A     		ldr	r2, .L30+4	@ uxAddress,
 256              	.LVL9:
 339:../freertos/portable/MemMang/heap_4.c **** 	{
 257              		.loc 1 339 2 is_stmt 1 view .LVU58
 258              	@ ../freertos/portable/MemMang/heap_4.c:339: 	if( ( uxAddress & portBYTE_ALIGNMENT_MASK ) != 0 )
 339:../freertos/portable/MemMang/heap_4.c **** 	{
 259              		.loc 1 339 4 is_stmt 0 view .LVU59
 260 0056 5107     		lsls	r1, r2, #29	@, uxAddress,
 341:../freertos/portable/MemMang/heap_4.c **** 		uxAddress &= ~( ( size_t ) portBYTE_ALIGNMENT_MASK );
 261              		.loc 1 341 3 is_stmt 1 view .LVU60
 262              	@ ../freertos/portable/MemMang/heap_4.c:341: 		uxAddress += ( portBYTE_ALIGNMENT - 1 );
 341:../freertos/portable/MemMang/heap_4.c **** 		uxAddress &= ~( ( size_t ) portBYTE_ALIGNMENT_MASK );
 263              		.loc 1 341 13 is_stmt 0 view .LVU61
 264 0058 1DBF     		ittte	ne
 265 005a D11D     		addne	r1, r2, #7	@ uxAddress, uxAddress,
 266              	.LVL10:
 342:../freertos/portable/MemMang/heap_4.c **** 		xTotalHeapSize -= uxAddress - ( size_t ) ucHeap;
 267              		.loc 1 342 3 is_stmt 1 view .LVU62
 268              	@ ../freertos/portable/MemMang/heap_4.c:342: 		uxAddress &= ~( ( size_t ) portBYTE_ALIGNMENT_MASK )
 342:../freertos/portable/MemMang/heap_4.c **** 		xTotalHeapSize -= uxAddress - ( size_t ) ucHeap;
 269              		.loc 1 342 13 is_stmt 0 view .LVU63
 270 005c 21F00701 		bicne	r1, r1, #7	@ uxAddress, uxAddress,
 271              	.LVL11:
 343:../freertos/portable/MemMang/heap_4.c **** 	}
 272              		.loc 1 343 3 is_stmt 1 view .LVU64
 273              	@ ../freertos/portable/MemMang/heap_4.c:343: 		xTotalHeapSize -= uxAddress - ( size_t ) ucHeap;
 343:../freertos/portable/MemMang/heap_4.c **** 	}
 274              		.loc 1 343 18 is_stmt 0 view .LVU65
 275 0060 02F59043 		addne	r3, r2, #18432	@ tmp151, uxAddress,
 276              	@ ../freertos/portable/MemMang/heap_4.c:334: size_t xTotalHeapSize = configTOTAL_HEAP_SIZE;
 334:../freertos/portable/MemMang/heap_4.c **** 
ARM GAS  /tmp/cc3VwJ6e.s 			page 14


 277              		.loc 1 334 8 view .LVU66
 278 0064 4FF49043 		moveq	r3, #18432	@ xTotalHeapSize,
 279              	@ ../freertos/portable/MemMang/heap_4.c:342: 		uxAddress &= ~( ( size_t ) portBYTE_ALIGNMENT_MASK )
 342:../freertos/portable/MemMang/heap_4.c **** 		xTotalHeapSize -= uxAddress - ( size_t ) ucHeap;
 280              		.loc 1 342 13 view .LVU67
 281 0068 1CBF     		itt	ne
 282 006a 0A46     		movne	r2, r1	@ uxAddress, uxAddress
 283              	@ ../freertos/portable/MemMang/heap_4.c:343: 		xTotalHeapSize -= uxAddress - ( size_t ) ucHeap;
 343:../freertos/portable/MemMang/heap_4.c **** 	}
 284              		.loc 1 343 18 view .LVU68
 285 006c 5B1A     		subne	r3, r3, r1	@ xTotalHeapSize, tmp151, uxAddress
 286              	.LVL12:
 346:../freertos/portable/MemMang/heap_4.c **** 
 287              		.loc 1 346 2 is_stmt 1 view .LVU69
 350:../freertos/portable/MemMang/heap_4.c **** 	xStart.xBlockSize = ( size_t ) 0;
 288              		.loc 1 350 2 view .LVU70
 289              	@ ../freertos/portable/MemMang/heap_4.c:351: 	xStart.xBlockSize = ( size_t ) 0;
 351:../freertos/portable/MemMang/heap_4.c **** 
 290              		.loc 1 351 20 is_stmt 0 view .LVU71
 291 006e 0021     		movs	r1, #0	@ tmp154,
 292              	@ ../freertos/portable/MemMang/heap_4.c:355: 	uxAddress = ( ( size_t ) pucAlignedHeap ) + xTotalHea
 355:../freertos/portable/MemMang/heap_4.c **** 	uxAddress -= xHeapStructSize;
 293              		.loc 1 355 12 view .LVU72
 294 0070 1344     		add	r3, r3, r2	@ uxAddress, uxAddress
 295              	.LVL13:
 296              	@ ../freertos/portable/MemMang/heap_4.c:356: 	uxAddress -= xHeapStructSize;
 356:../freertos/portable/MemMang/heap_4.c **** 	uxAddress &= ~( ( size_t ) portBYTE_ALIGNMENT_MASK );
 297              		.loc 1 356 12 view .LVU73
 298 0072 083B     		subs	r3, r3, #8	@ uxAddress, uxAddress,
 299              	@ ../freertos/portable/MemMang/heap_4.c:357: 	uxAddress &= ~( ( size_t ) portBYTE_ALIGNMENT_MASK );
 357:../freertos/portable/MemMang/heap_4.c **** 	pxEnd = ( void * ) uxAddress;
 300              		.loc 1 357 12 view .LVU74
 301 0074 23F00703 		bic	r3, r3, #7	@ uxAddress, uxAddress,
 302              	@ ../freertos/portable/MemMang/heap_4.c:351: 	xStart.xBlockSize = ( size_t ) 0;
 351:../freertos/portable/MemMang/heap_4.c **** 
 303              		.loc 1 351 20 view .LVU75
 304 0078 6960     		str	r1, [r5, #4]	@ tmp154, xStart.xBlockSize
 305              	@ ../freertos/portable/MemMang/heap_4.c:350: 	xStart.pxNextFreeBlock = ( void * ) pucAlignedHeap;
 350:../freertos/portable/MemMang/heap_4.c **** 	xStart.xBlockSize = ( size_t ) 0;
 306              		.loc 1 350 25 view .LVU76
 307 007a 2A60     		str	r2, [r5]	@ uxAddress, xStart.pxNextFreeBlock
 351:../freertos/portable/MemMang/heap_4.c **** 
 308              		.loc 1 351 2 is_stmt 1 view .LVU77
 355:../freertos/portable/MemMang/heap_4.c **** 	uxAddress -= xHeapStructSize;
 309              		.loc 1 355 2 view .LVU78
 310              	.LVL14:
 356:../freertos/portable/MemMang/heap_4.c **** 	uxAddress &= ~( ( size_t ) portBYTE_ALIGNMENT_MASK );
 311              		.loc 1 356 2 view .LVU79
 357:../freertos/portable/MemMang/heap_4.c **** 	pxEnd = ( void * ) uxAddress;
 312              		.loc 1 357 2 view .LVU80
 358:../freertos/portable/MemMang/heap_4.c **** 	pxEnd->xBlockSize = 0;
 313              		.loc 1 358 2 view .LVU81
 314              	@ ../freertos/portable/MemMang/heap_4.c:360: 	pxEnd->pxNextFreeBlock = NULL;
 360:../freertos/portable/MemMang/heap_4.c **** 
 315              		.loc 1 360 25 is_stmt 0 view .LVU82
 316 007c C3E90011 		strd	r1, r1, [r3]	@ tmp154, tmp154, uxAddress
 317              	@ ../freertos/portable/MemMang/heap_4.c:365: 	pxFirstFreeBlock->xBlockSize = uxAddress - ( size_t )
ARM GAS  /tmp/cc3VwJ6e.s 			page 15


 365:../freertos/portable/MemMang/heap_4.c **** 	pxFirstFreeBlock->pxNextFreeBlock = pxEnd;
 318              		.loc 1 365 43 view .LVU83
 319 0080 991A     		subs	r1, r3, r2	@ _61, uxAddress, uxAddress
 320              	@ ../freertos/portable/MemMang/heap_4.c:366: 	pxFirstFreeBlock->pxNextFreeBlock = pxEnd;
 366:../freertos/portable/MemMang/heap_4.c **** 
 321              		.loc 1 366 36 view .LVU84
 322 0082 C2E90031 		strd	r3, r1, [r2]	@ uxAddress, _61, uxAddress
 323              	@ ../freertos/portable/MemMang/heap_4.c:358: 	pxEnd = ( void * ) uxAddress;
 358:../freertos/portable/MemMang/heap_4.c **** 	pxEnd->xBlockSize = 0;
 324              		.loc 1 358 8 view .LVU85
 325 0086 AB60     		str	r3, [r5, #8]	@ uxAddress, pxEnd
 359:../freertos/portable/MemMang/heap_4.c **** 	pxEnd->pxNextFreeBlock = NULL;
 326              		.loc 1 359 2 is_stmt 1 view .LVU86
 364:../freertos/portable/MemMang/heap_4.c **** 	pxFirstFreeBlock->xBlockSize = uxAddress - ( size_t ) pxFirstFreeBlock;
 327              		.loc 1 364 2 view .LVU87
 328              	.LVL15:
 365:../freertos/portable/MemMang/heap_4.c **** 	pxFirstFreeBlock->pxNextFreeBlock = pxEnd;
 329              		.loc 1 365 2 view .LVU88
 369:../freertos/portable/MemMang/heap_4.c **** 	xFreeBytesRemaining = pxFirstFreeBlock->xBlockSize;
 330              		.loc 1 369 2 view .LVU89
 331              	@ ../freertos/portable/MemMang/heap_4.c:373: 	xBlockAllocatedBit = ( ( size_t ) 1 ) << ( ( sizeof( 
 373:../freertos/portable/MemMang/heap_4.c **** }
 332              		.loc 1 373 21 is_stmt 0 view .LVU90
 333 0088 4FF00043 		mov	r3, #-2147483648	@ tmp161,
 334              	.LVL16:
 335              	@ ../freertos/portable/MemMang/heap_4.c:370: 	xFreeBytesRemaining = pxFirstFreeBlock->xBlockSize;
 370:../freertos/portable/MemMang/heap_4.c **** 
 336              		.loc 1 370 22 view .LVU91
 337 008c C5E90311 		strd	r1, r1, [r5, #12]	@ _61, _61, tmp148,
 373:../freertos/portable/MemMang/heap_4.c **** }
 338              		.loc 1 373 2 is_stmt 1 view .LVU92
 339              	@ ../freertos/portable/MemMang/heap_4.c:373: 	xBlockAllocatedBit = ( ( size_t ) 1 ) << ( ( sizeof( 
 373:../freertos/portable/MemMang/heap_4.c **** }
 340              		.loc 1 373 21 is_stmt 0 view .LVU93
 341 0090 6B61     		str	r3, [r5, #20]	@ tmp161, xBlockAllocatedBit
 342              	.LVL17:
 343              	.L12:
 373:../freertos/portable/MemMang/heap_4.c **** }
 344              		.loc 1 373 21 view .LVU94
 345              	.LBE5:
 346              	.LBE4:
 128:../freertos/portable/MemMang/heap_4.c **** 		}
 347              		.loc 1 128 28 is_stmt 1 view .LVU95
 135:../freertos/portable/MemMang/heap_4.c **** 		{
 348              		.loc 1 135 3 view .LVU96
 349              	@ ../freertos/portable/MemMang/heap_4.c:135: 		if( ( xWantedSize & xBlockAllocatedBit ) == 0 )
 135:../freertos/portable/MemMang/heap_4.c **** 		{
 350              		.loc 1 135 21 is_stmt 0 view .LVU97
 351 0092 D5F81480 		ldr	r8, [r5, #20]	@ xBlockAllocatedBit.1_2, xBlockAllocatedBit
 352              	@ ../freertos/portable/MemMang/heap_4.c:135: 		if( ( xWantedSize & xBlockAllocatedBit ) == 0 )
 135:../freertos/portable/MemMang/heap_4.c **** 		{
 353              		.loc 1 135 5 view .LVU98
 354 0096 18EA040F 		tst	r8, r4	@ xBlockAllocatedBit.1_2, xWantedSize
 355 009a 37D1     		bne	.L26		@,
 139:../freertos/portable/MemMang/heap_4.c **** 			{
 356              		.loc 1 139 4 is_stmt 1 view .LVU99
 357              	@ ../freertos/portable/MemMang/heap_4.c:139: 			if( xWantedSize > 0 )
ARM GAS  /tmp/cc3VwJ6e.s 			page 16


 139:../freertos/portable/MemMang/heap_4.c **** 			{
 358              		.loc 1 139 6 is_stmt 0 view .LVU100
 359 009c 002C     		cmp	r4, #0	@ xWantedSize
 360 009e 2DD0     		beq	.L14	@
 141:../freertos/portable/MemMang/heap_4.c **** 
 361              		.loc 1 141 5 is_stmt 1 view .LVU101
 362              	@ ../freertos/portable/MemMang/heap_4.c:141: 				xWantedSize += xHeapStructSize;
 141:../freertos/portable/MemMang/heap_4.c **** 
 363              		.loc 1 141 17 is_stmt 0 view .LVU102
 364 00a0 04F10803 		add	r3, r4, #8	@ xWantedSize, xWantedSize,
 365              	.LVL18:
 145:../freertos/portable/MemMang/heap_4.c **** 				{
 366              		.loc 1 145 5 is_stmt 1 view .LVU103
 367              	@ ../freertos/portable/MemMang/heap_4.c:145: 				if( ( xWantedSize & portBYTE_ALIGNMENT_MASK ) != 0
 145:../freertos/portable/MemMang/heap_4.c **** 				{
 368              		.loc 1 145 7 is_stmt 0 view .LVU104
 369 00a4 6207     		lsls	r2, r4, #29	@, xWantedSize,
 148:../freertos/portable/MemMang/heap_4.c **** 					configASSERT( ( xWantedSize & portBYTE_ALIGNMENT_MASK ) == 0 );
 370              		.loc 1 148 6 is_stmt 1 view .LVU105
 371              	@ ../freertos/portable/MemMang/heap_4.c:148: 					xWantedSize += ( portBYTE_ALIGNMENT - ( xWantedSi
 148:../freertos/portable/MemMang/heap_4.c **** 					configASSERT( ( xWantedSize & portBYTE_ALIGNMENT_MASK ) == 0 );
 372              		.loc 1 148 18 is_stmt 0 view .LVU106
 373 00a6 1CBF     		itt	ne
 374 00a8 23F00703 		bicne	r3, r3, #7	@ _5, xWantedSize,
 375              	.LVL19:
 148:../freertos/portable/MemMang/heap_4.c **** 					configASSERT( ( xWantedSize & portBYTE_ALIGNMENT_MASK ) == 0 );
 376              		.loc 1 148 18 view .LVU107
 377 00ac 0833     		addne	r3, r3, #8	@ xWantedSize, _5,
 378              	.LVL20:
 149:../freertos/portable/MemMang/heap_4.c **** 				}
 379              		.loc 1 149 68 is_stmt 1 view .LVU108
 158:../freertos/portable/MemMang/heap_4.c **** 			}
 380              		.loc 1 158 29 view .LVU109
 161:../freertos/portable/MemMang/heap_4.c **** 			{
 381              		.loc 1 161 4 view .LVU110
 382              	@ ../freertos/portable/MemMang/heap_4.c:161: 			if( ( xWantedSize > 0 ) && ( xWantedSize <= xFreeBy
 161:../freertos/portable/MemMang/heap_4.c **** 			{
 383              		.loc 1 161 6 is_stmt 0 view .LVU111
 384 00ae 6BB3     		cbz	r3, .L26	@ xWantedSize,
 385              	@ ../freertos/portable/MemMang/heap_4.c:161: 			if( ( xWantedSize > 0 ) && ( xWantedSize <= xFreeBy
 161:../freertos/portable/MemMang/heap_4.c **** 			{
 386              		.loc 1 161 45 discriminator 1 view .LVU112
 387 00b0 2F69     		ldr	r7, [r5, #16]	@ xFreeBytesRemaining.2_6, xFreeBytesRemaining
 388              	@ ../freertos/portable/MemMang/heap_4.c:161: 			if( ( xWantedSize > 0 ) && ( xWantedSize <= xFreeBy
 161:../freertos/portable/MemMang/heap_4.c **** 			{
 389              		.loc 1 161 28 discriminator 1 view .LVU113
 390 00b2 9F42     		cmp	r7, r3	@ xFreeBytesRemaining.2_6, xWantedSize
 391 00b4 2AD3     		bcc	.L26		@,
 165:../freertos/portable/MemMang/heap_4.c **** 				pxBlock = xStart.pxNextFreeBlock;
 392              		.loc 1 165 5 is_stmt 1 view .LVU114
 393              	.LVL21:
 166:../freertos/portable/MemMang/heap_4.c **** 				while( ( pxBlock->xBlockSize < xWantedSize ) && ( pxBlock->pxNextFreeBlock != NULL ) )
 394              		.loc 1 166 5 view .LVU115
 395              	@ ../freertos/portable/MemMang/heap_4.c:166: 				pxBlock = xStart.pxNextFreeBlock;
 166:../freertos/portable/MemMang/heap_4.c **** 				while( ( pxBlock->xBlockSize < xWantedSize ) && ( pxBlock->pxNextFreeBlock != NULL ) )
 396              		.loc 1 166 13 is_stmt 0 view .LVU116
 397 00b6 2E68     		ldr	r6, [r5]	@ pxBlock, xStart.pxNextFreeBlock
ARM GAS  /tmp/cc3VwJ6e.s 			page 17


 398              	.LVL22:
 167:../freertos/portable/MemMang/heap_4.c **** 				{
 399              		.loc 1 167 5 is_stmt 1 view .LVU117
 400              	@ ../freertos/portable/MemMang/heap_4.c:165: 				pxPreviousBlock = &xStart;
 165:../freertos/portable/MemMang/heap_4.c **** 				pxBlock = xStart.pxNextFreeBlock;
 401              		.loc 1 165 21 is_stmt 0 view .LVU118
 402 00b8 1548     		ldr	r0, .L30	@ pxPreviousBlock,
 403              	.LVL23:
 404              	.L17:
 167:../freertos/portable/MemMang/heap_4.c **** 				{
 405              		.loc 1 167 10 is_stmt 1 view .LVU119
 406              	@ ../freertos/portable/MemMang/heap_4.c:167: 				while( ( pxBlock->xBlockSize < xWantedSize ) && ( 
 167:../freertos/portable/MemMang/heap_4.c **** 				{
 407              		.loc 1 167 21 is_stmt 0 view .LVU120
 408 00ba 7268     		ldr	r2, [r6, #4]	@ _7, pxBlock_22->xBlockSize
 409              	@ ../freertos/portable/MemMang/heap_4.c:167: 				while( ( pxBlock->xBlockSize < xWantedSize ) && ( 
 167:../freertos/portable/MemMang/heap_4.c **** 				{
 410              		.loc 1 167 10 view .LVU121
 411 00bc 9A42     		cmp	r2, r3	@ _7, xWantedSize
 412 00be 01D2     		bcs	.L16		@,
 413              	@ ../freertos/portable/MemMang/heap_4.c:167: 				while( ( pxBlock->xBlockSize < xWantedSize ) && ( 
 167:../freertos/portable/MemMang/heap_4.c **** 				{
 414              		.loc 1 167 62 discriminator 1 view .LVU122
 415 00c0 3168     		ldr	r1, [r6]	@ _8, pxBlock_22->pxNextFreeBlock
 416              	@ ../freertos/portable/MemMang/heap_4.c:167: 				while( ( pxBlock->xBlockSize < xWantedSize ) && ( 
 167:../freertos/portable/MemMang/heap_4.c **** 				{
 417              		.loc 1 167 50 discriminator 1 view .LVU123
 418 00c2 01BB     		cbnz	r1, .L25	@ _8,
 419              	.L16:
 175:../freertos/portable/MemMang/heap_4.c **** 				{
 420              		.loc 1 175 5 is_stmt 1 view .LVU124
 421              	@ ../freertos/portable/MemMang/heap_4.c:175: 				if( pxBlock != pxEnd )
 175:../freertos/portable/MemMang/heap_4.c **** 				{
 422              		.loc 1 175 7 is_stmt 0 view .LVU125
 423 00c4 A968     		ldr	r1, [r5, #8]	@ pxEnd, pxEnd
 424 00c6 B142     		cmp	r1, r6	@ pxEnd, pxBlock
 425 00c8 20D0     		beq	.L26		@,
 179:../freertos/portable/MemMang/heap_4.c **** 
 426              		.loc 1 179 6 is_stmt 1 view .LVU126
 427              	@ ../freertos/portable/MemMang/heap_4.c:179: 					pvReturn = ( void * ) ( ( ( uint8_t * ) pxPreviou
 179:../freertos/portable/MemMang/heap_4.c **** 
 428              		.loc 1 179 15 is_stmt 0 view .LVU127
 429 00ca 0468     		ldr	r4, [r0]	@ pxPreviousBlock_23->pxNextFreeBlock, pxPreviousBlock_23->pxNextFreeBlock
 430              	@ ../freertos/portable/MemMang/heap_4.c:183: 					pxPreviousBlock->pxNextFreeBlock = pxBlock->pxNex
 183:../freertos/portable/MemMang/heap_4.c **** 
 431              		.loc 1 183 48 view .LVU128
 432 00cc 3168     		ldr	r1, [r6]	@ _11, pxBlock_22->pxNextFreeBlock
 433              	@ ../freertos/portable/MemMang/heap_4.c:187: 					if( ( pxBlock->xBlockSize - xWantedSize ) > heapM
 187:../freertos/portable/MemMang/heap_4.c **** 					{
 434              		.loc 1 187 32 view .LVU129
 435 00ce D21A     		subs	r2, r2, r3	@ _13, _7, xWantedSize
 436              	@ ../freertos/portable/MemMang/heap_4.c:187: 					if( ( pxBlock->xBlockSize - xWantedSize ) > heapM
 187:../freertos/portable/MemMang/heap_4.c **** 					{
 437              		.loc 1 187 8 view .LVU130
 438 00d0 102A     		cmp	r2, #16	@ _13,
 439              	@ ../freertos/portable/MemMang/heap_4.c:179: 					pvReturn = ( void * ) ( ( ( uint8_t * ) pxPreviou
 179:../freertos/portable/MemMang/heap_4.c **** 
ARM GAS  /tmp/cc3VwJ6e.s 			page 18


 440              		.loc 1 179 15 view .LVU131
 441 00d2 04F10804 		add	r4, r4, #8	@ <retval>, pxPreviousBlock_23->pxNextFreeBlock,
 442              	.LVL24:
 183:../freertos/portable/MemMang/heap_4.c **** 
 443              		.loc 1 183 6 is_stmt 1 view .LVU132
 444              	@ ../freertos/portable/MemMang/heap_4.c:183: 					pxPreviousBlock->pxNextFreeBlock = pxBlock->pxNex
 183:../freertos/portable/MemMang/heap_4.c **** 
 445              		.loc 1 183 39 is_stmt 0 view .LVU133
 446 00d6 0160     		str	r1, [r0]	@ _11, pxPreviousBlock_23->pxNextFreeBlock
 187:../freertos/portable/MemMang/heap_4.c **** 					{
 447              		.loc 1 187 6 is_stmt 1 view .LVU134
 448              	@ ../freertos/portable/MemMang/heap_4.c:187: 					if( ( pxBlock->xBlockSize - xWantedSize ) > heapM
 187:../freertos/portable/MemMang/heap_4.c **** 					{
 449              		.loc 1 187 8 is_stmt 0 view .LVU135
 450 00d8 04D9     		bls	.L18		@,
 193:../freertos/portable/MemMang/heap_4.c **** 						configASSERT( ( ( ( size_t ) pxNewBlockLink ) & portBYTE_ALIGNMENT_MASK ) == 0 );
 451              		.loc 1 193 7 is_stmt 1 view .LVU136
 452              	@ ../freertos/portable/MemMang/heap_4.c:193: 						pxNewBlockLink = ( void * ) ( ( ( uint8_t * ) px
 193:../freertos/portable/MemMang/heap_4.c **** 						configASSERT( ( ( ( size_t ) pxNewBlockLink ) & portBYTE_ALIGNMENT_MASK ) == 0 );
 453              		.loc 1 193 22 is_stmt 0 view .LVU137
 454 00da F018     		adds	r0, r6, r3	@ pxNewBlockLink, pxBlock, xWantedSize
 455              	.LVL25:
 194:../freertos/portable/MemMang/heap_4.c **** 
 456              		.loc 1 194 87 is_stmt 1 view .LVU138
 198:../freertos/portable/MemMang/heap_4.c **** 						pxBlock->xBlockSize = xWantedSize;
 457              		.loc 1 198 7 view .LVU139
 458              	@ ../freertos/portable/MemMang/heap_4.c:198: 						pxNewBlockLink->xBlockSize = pxBlock->xBlockSize
 198:../freertos/portable/MemMang/heap_4.c **** 						pxBlock->xBlockSize = xWantedSize;
 459              		.loc 1 198 34 is_stmt 0 view .LVU140
 460 00dc 4260     		str	r2, [r0, #4]	@ _13, pxNewBlockLink_39->xBlockSize
 199:../freertos/portable/MemMang/heap_4.c **** 
 461              		.loc 1 199 7 is_stmt 1 view .LVU141
 462              	@ ../freertos/portable/MemMang/heap_4.c:199: 						pxBlock->xBlockSize = xWantedSize;
 199:../freertos/portable/MemMang/heap_4.c **** 
 463              		.loc 1 199 27 is_stmt 0 view .LVU142
 464 00de 7360     		str	r3, [r6, #4]	@ xWantedSize, pxBlock_22->xBlockSize
 202:../freertos/portable/MemMang/heap_4.c **** 					}
 465              		.loc 1 202 7 is_stmt 1 view .LVU143
 466 00e0 FFF78EFF 		bl	prvInsertBlockIntoFreeList		@
 467              	.LVL26:
 468              	.L18:
 206:../freertos/portable/MemMang/heap_4.c **** 					}
 469              		.loc 1 206 31 view .LVU144
 209:../freertos/portable/MemMang/heap_4.c **** 
 470              		.loc 1 209 6 view .LVU145
 471              	@ ../freertos/portable/MemMang/heap_4.c:223: 					pxBlock->pxNextFreeBlock = NULL;
 223:../freertos/portable/MemMang/heap_4.c **** 				}
 472              		.loc 1 223 31 is_stmt 0 view .LVU146
 473 00e4 0023     		movs	r3, #0	@ tmp175,
 474              	@ ../freertos/portable/MemMang/heap_4.c:209: 					xFreeBytesRemaining -= pxBlock->xBlockSize;
 209:../freertos/portable/MemMang/heap_4.c **** 
 475              		.loc 1 209 36 view .LVU147
 476 00e6 7268     		ldr	r2, [r6, #4]	@ _16, pxBlock_22->xBlockSize
 477              	@ ../freertos/portable/MemMang/heap_4.c:211: 					if( xFreeBytesRemaining < xMinimumEverFreeBytesRe
 211:../freertos/portable/MemMang/heap_4.c **** 					{
 478              		.loc 1 211 8 view .LVU148
 479 00e8 E968     		ldr	r1, [r5, #12]	@ xMinimumEverFreeBytesRemaining, xMinimumEverFreeBytesRemaining
ARM GAS  /tmp/cc3VwJ6e.s 			page 19


 480              	@ ../freertos/portable/MemMang/heap_4.c:209: 					xFreeBytesRemaining -= pxBlock->xBlockSize;
 209:../freertos/portable/MemMang/heap_4.c **** 
 481              		.loc 1 209 26 view .LVU149
 482 00ea BF1A     		subs	r7, r7, r2	@ _17, xFreeBytesRemaining.2_6, _16
 483              	@ ../freertos/portable/MemMang/heap_4.c:211: 					if( xFreeBytesRemaining < xMinimumEverFreeBytesRe
 211:../freertos/portable/MemMang/heap_4.c **** 					{
 484              		.loc 1 211 8 view .LVU150
 485 00ec 8F42     		cmp	r7, r1	@ _17, xMinimumEverFreeBytesRemaining
 486              	@ ../freertos/portable/MemMang/heap_4.c:222: 					pxBlock->xBlockSize |= xBlockAllocatedBit;
 222:../freertos/portable/MemMang/heap_4.c **** 					pxBlock->pxNextFreeBlock = NULL;
 487              		.loc 1 222 26 view .LVU151
 488 00ee 48EA0202 		orr	r2, r8, r2	@ tmp174, xBlockAllocatedBit.1_2, _16
 489              	@ ../freertos/portable/MemMang/heap_4.c:209: 					xFreeBytesRemaining -= pxBlock->xBlockSize;
 209:../freertos/portable/MemMang/heap_4.c **** 
 490              		.loc 1 209 26 view .LVU152
 491 00f2 2F61     		str	r7, [r5, #16]	@ _17, xFreeBytesRemaining
 211:../freertos/portable/MemMang/heap_4.c **** 					{
 492              		.loc 1 211 6 is_stmt 1 view .LVU153
 213:../freertos/portable/MemMang/heap_4.c **** 					}
 493              		.loc 1 213 7 view .LVU154
 494              	@ ../freertos/portable/MemMang/heap_4.c:213: 						xMinimumEverFreeBytesRemaining = xFreeBytesRemai
 213:../freertos/portable/MemMang/heap_4.c **** 					}
 495              		.loc 1 213 38 is_stmt 0 view .LVU155
 496 00f4 38BF     		it	cc
 497 00f6 EF60     		strcc	r7, [r5, #12]	@ _17, xMinimumEverFreeBytesRemaining
 217:../freertos/portable/MemMang/heap_4.c **** 					}
 498              		.loc 1 217 31 is_stmt 1 view .LVU156
 222:../freertos/portable/MemMang/heap_4.c **** 					pxBlock->pxNextFreeBlock = NULL;
 499              		.loc 1 222 6 view .LVU157
 500              	@ ../freertos/portable/MemMang/heap_4.c:222: 					pxBlock->xBlockSize |= xBlockAllocatedBit;
 222:../freertos/portable/MemMang/heap_4.c **** 					pxBlock->pxNextFreeBlock = NULL;
 501              		.loc 1 222 26 is_stmt 0 view .LVU158
 502 00f8 7260     		str	r2, [r6, #4]	@ tmp174, pxBlock_22->xBlockSize
 223:../freertos/portable/MemMang/heap_4.c **** 				}
 503              		.loc 1 223 6 is_stmt 1 view .LVU159
 504              	@ ../freertos/portable/MemMang/heap_4.c:223: 					pxBlock->pxNextFreeBlock = NULL;
 223:../freertos/portable/MemMang/heap_4.c **** 				}
 505              		.loc 1 223 31 is_stmt 0 view .LVU160
 506 00fa 3360     		str	r3, [r6]	@ tmp175, pxBlock_22->pxNextFreeBlock
 507              	.LVL27:
 508              	.L14:
 237:../freertos/portable/MemMang/heap_4.c **** 		}
 509              		.loc 1 237 28 is_stmt 1 view .LVU161
 240:../freertos/portable/MemMang/heap_4.c **** 	}
 510              		.loc 1 240 39 view .LVU162
 242:../freertos/portable/MemMang/heap_4.c **** 
 511              		.loc 1 242 2 view .LVU163
 512              	@ ../freertos/portable/MemMang/heap_4.c:242: 	( void ) xTaskResumeAll();
 242:../freertos/portable/MemMang/heap_4.c **** 
 513              		.loc 1 242 11 is_stmt 0 view .LVU164
 514 00fc FFF7FEFF 		bl	xTaskResumeAll		@
 515              	.LVL28:
 258:../freertos/portable/MemMang/heap_4.c **** 	return pvReturn;
 516              		.loc 1 258 87 is_stmt 1 view .LVU165
 259:../freertos/portable/MemMang/heap_4.c **** }
 517              		.loc 1 259 2 view .LVU166
 518              	@ ../freertos/portable/MemMang/heap_4.c:260: }
ARM GAS  /tmp/cc3VwJ6e.s 			page 20


 260:../freertos/portable/MemMang/heap_4.c **** /*-----------------------------------------------------------*/
 519              		.loc 1 260 1 is_stmt 0 view .LVU167
 520 0100 2046     		mov	r0, r4	@, <retval>
 521 0102 BDE8F081 		pop	{r4, r5, r6, r7, r8, pc}	@
 522              	.LVL29:
 523              	.L25:
 260:../freertos/portable/MemMang/heap_4.c **** /*-----------------------------------------------------------*/
 524              		.loc 1 260 1 view .LVU168
 525 0106 3046     		mov	r0, r6	@ pxPreviousBlock, pxBlock
 526 0108 0E46     		mov	r6, r1	@ pxBlock, _8
 527              	.LVL30:
 260:../freertos/portable/MemMang/heap_4.c **** /*-----------------------------------------------------------*/
 528              		.loc 1 260 1 view .LVU169
 529 010a D6E7     		b	.L17		@
 530              	.LVL31:
 531              	.L26:
 532              	@ ../freertos/portable/MemMang/heap_4.c:116: void *pvReturn = NULL;
 116:../freertos/portable/MemMang/heap_4.c **** 
 533              		.loc 1 116 7 view .LVU170
 534 010c 0024     		movs	r4, #0	@ <retval>,
 535 010e F5E7     		b	.L14		@
 536              	.L31:
 537              		.align	2
 538              	.L30:
 539 0110 00000000 		.word	.LANCHOR0
 540 0114 18000000 		.word	ucHeap
 541              		.cfi_endproc
 542              	.LFE5:
 543              		.size	pvPortMalloc, .-pvPortMalloc
 544              		.align	1
 545              		.global	vPortFree
 546              		.syntax unified
 547              		.thumb
 548              		.thumb_func
 549              		.type	vPortFree, %function
 550              	vPortFree:
 551              	.LVL32:
 552              	.LFB6:
 264:../freertos/portable/MemMang/heap_4.c **** uint8_t *puc = ( uint8_t * ) pv;
 553              		.loc 1 264 1 is_stmt 1 view -0
 554              		.cfi_startproc
 555              		@ args = 0, pretend = 0, frame = 0
 556              		@ frame_needed = 0, uses_anonymous_args = 0
 265:../freertos/portable/MemMang/heap_4.c **** BlockLink_t *pxLink;
 557              		.loc 1 265 1 view .LVU172
 266:../freertos/portable/MemMang/heap_4.c **** 
 558              		.loc 1 266 1 view .LVU173
 268:../freertos/portable/MemMang/heap_4.c **** 	{
 559              		.loc 1 268 2 view .LVU174
 560              	@ ../freertos/portable/MemMang/heap_4.c:264: {
 264:../freertos/portable/MemMang/heap_4.c **** uint8_t *puc = ( uint8_t * ) pv;
 561              		.loc 1 264 1 is_stmt 0 view .LVU175
 562 0118 38B5     		push	{r3, r4, r5, lr}	@
 563              	.LCFI2:
 564              		.cfi_def_cfa_offset 16
 565              		.cfi_offset 3, -16
 566              		.cfi_offset 4, -12
ARM GAS  /tmp/cc3VwJ6e.s 			page 21


 567              		.cfi_offset 5, -8
 568              		.cfi_offset 14, -4
 569              	@ ../freertos/portable/MemMang/heap_4.c:268: 	if( pv != NULL )
 268:../freertos/portable/MemMang/heap_4.c **** 	{
 570              		.loc 1 268 4 view .LVU176
 571 011a 0446     		mov	r4, r0	@ pv, tmp135
 572 011c D8B1     		cbz	r0, .L32	@ pv,
 272:../freertos/portable/MemMang/heap_4.c **** 
 573              		.loc 1 272 3 is_stmt 1 view .LVU177
 574              	.LVL33:
 275:../freertos/portable/MemMang/heap_4.c **** 
 575              		.loc 1 275 3 view .LVU178
 278:../freertos/portable/MemMang/heap_4.c **** 		configASSERT( pxLink->pxNextFreeBlock == NULL );
 576              		.loc 1 278 67 view .LVU179
 279:../freertos/portable/MemMang/heap_4.c **** 
 577              		.loc 1 279 50 view .LVU180
 281:../freertos/portable/MemMang/heap_4.c **** 		{
 578              		.loc 1 281 3 view .LVU181
 579              	@ ../freertos/portable/MemMang/heap_4.c:281: 		if( ( pxLink->xBlockSize & xBlockAllocatedBit ) != 0
 281:../freertos/portable/MemMang/heap_4.c **** 		{
 580              		.loc 1 281 28 is_stmt 0 view .LVU182
 581 011e 0E4D     		ldr	r5, .L40	@ tmp124,
 582              	@ ../freertos/portable/MemMang/heap_4.c:281: 		if( ( pxLink->xBlockSize & xBlockAllocatedBit ) != 0
 281:../freertos/portable/MemMang/heap_4.c **** 		{
 583              		.loc 1 281 15 view .LVU183
 584 0120 50F8043C 		ldr	r3, [r0, #-4]	@ _1, MEM[(struct BlockLink_t *)pv_11(D) + 4294967288B].xBlockSize
 585              	@ ../freertos/portable/MemMang/heap_4.c:281: 		if( ( pxLink->xBlockSize & xBlockAllocatedBit ) != 0
 281:../freertos/portable/MemMang/heap_4.c **** 		{
 586              		.loc 1 281 28 view .LVU184
 587 0124 6A69     		ldr	r2, [r5, #20]	@ xBlockAllocatedBit.18_2, xBlockAllocatedBit
 588              	@ ../freertos/portable/MemMang/heap_4.c:281: 		if( ( pxLink->xBlockSize & xBlockAllocatedBit ) != 0
 281:../freertos/portable/MemMang/heap_4.c **** 		{
 589              		.loc 1 281 5 view .LVU185
 590 0126 1342     		tst	r3, r2	@ _1, xBlockAllocatedBit.18_2
 591 0128 15D0     		beq	.L32		@,
 283:../freertos/portable/MemMang/heap_4.c **** 			{
 592              		.loc 1 283 4 is_stmt 1 view .LVU186
 593              	@ ../freertos/portable/MemMang/heap_4.c:283: 			if( pxLink->pxNextFreeBlock == NULL )
 283:../freertos/portable/MemMang/heap_4.c **** 			{
 594              		.loc 1 283 6 is_stmt 0 view .LVU187
 595 012a 50F8081C 		ldr	r1, [r0, #-8]	@ MEM[(struct BlockLink_t *)pv_11(D) + 4294967288B].pxNextFreeBlock, MEM[(struct
 596 012e 91B9     		cbnz	r1, .L32	@ MEM[(struct BlockLink_t *)pv_11(D) + 4294967288B].pxNextFreeBlock,
 287:../freertos/portable/MemMang/heap_4.c **** 
 597              		.loc 1 287 5 is_stmt 1 view .LVU188
 598              	@ ../freertos/portable/MemMang/heap_4.c:287: 				pxLink->xBlockSize &= ~xBlockAllocatedBit;
 287:../freertos/portable/MemMang/heap_4.c **** 
 599              		.loc 1 287 24 is_stmt 0 view .LVU189
 600 0130 23EA0203 		bic	r3, r3, r2	@ tmp128, _1, xBlockAllocatedBit.18_2
 601 0134 40F8043C 		str	r3, [r0, #-4]	@ tmp128, MEM[(struct BlockLink_t *)pv_11(D) + 4294967288B].xBlockSize
 289:../freertos/portable/MemMang/heap_4.c **** 				{
 602              		.loc 1 289 5 is_stmt 1 view .LVU190
 603 0138 FFF7FEFF 		bl	vTaskSuspendAll		@
 604              	.LVL34:
 292:../freertos/portable/MemMang/heap_4.c **** 					traceFREE( pv, pxLink->xBlockSize );
 605              		.loc 1 292 6 view .LVU191
 606              	@ ../freertos/portable/MemMang/heap_4.c:292: 					xFreeBytesRemaining += pxLink->xBlockSize;
 292:../freertos/portable/MemMang/heap_4.c **** 					traceFREE( pv, pxLink->xBlockSize );
ARM GAS  /tmp/cc3VwJ6e.s 			page 22


 607              		.loc 1 292 26 is_stmt 0 view .LVU192
 608 013c 2A69     		ldr	r2, [r5, #16]	@ xFreeBytesRemaining, xFreeBytesRemaining
 609 013e 54F8043C 		ldr	r3, [r4, #-4]	@ MEM[(struct BlockLink_t *)pv_11(D) + 4294967288B].xBlockSize, MEM[(struct Bloc
 610              	@ ../freertos/portable/MemMang/heap_4.c:294: 					prvInsertBlockIntoFreeList( ( ( BlockLink_t * ) p
 294:../freertos/portable/MemMang/heap_4.c **** 				}
 611              		.loc 1 294 6 view .LVU193
 612 0142 A4F10800 		sub	r0, r4, #8	@, pv,
 613              	.LVL35:
 614              	@ ../freertos/portable/MemMang/heap_4.c:292: 					xFreeBytesRemaining += pxLink->xBlockSize;
 292:../freertos/portable/MemMang/heap_4.c **** 					traceFREE( pv, pxLink->xBlockSize );
 615              		.loc 1 292 26 view .LVU194
 616 0146 1344     		add	r3, r3, r2	@ tmp131, xFreeBytesRemaining
 617 0148 2B61     		str	r3, [r5, #16]	@ tmp131, xFreeBytesRemaining
 293:../freertos/portable/MemMang/heap_4.c **** 					prvInsertBlockIntoFreeList( ( ( BlockLink_t * ) pxLink ) );
 618              		.loc 1 293 41 is_stmt 1 view .LVU195
 294:../freertos/portable/MemMang/heap_4.c **** 				}
 619              		.loc 1 294 6 view .LVU196
 620 014a FFF759FF 		bl	prvInsertBlockIntoFreeList		@
 621              	.LVL36:
 296:../freertos/portable/MemMang/heap_4.c **** 			}
 622              		.loc 1 296 5 view .LVU197
 623              	@ ../freertos/portable/MemMang/heap_4.c:308: }
 308:../freertos/portable/MemMang/heap_4.c **** /*-----------------------------------------------------------*/
 624              		.loc 1 308 1 is_stmt 0 view .LVU198
 625 014e BDE83840 		pop	{r3, r4, r5, lr}	@
 626              	.LCFI3:
 627              		.cfi_remember_state
 628              		.cfi_restore 14
 629              		.cfi_restore 5
 630              		.cfi_restore 4
 631              		.cfi_restore 3
 632              		.cfi_def_cfa_offset 0
 633              	.LVL37:
 634              	@ ../freertos/portable/MemMang/heap_4.c:296: 				( void ) xTaskResumeAll();
 296:../freertos/portable/MemMang/heap_4.c **** 			}
 635              		.loc 1 296 14 view .LVU199
 636 0152 FFF7FEBF 		b	xTaskResumeAll		@
 637              	.LVL38:
 638              	.L32:
 639              	.LCFI4:
 640              		.cfi_restore_state
 641              	@ ../freertos/portable/MemMang/heap_4.c:308: }
 308:../freertos/portable/MemMang/heap_4.c **** /*-----------------------------------------------------------*/
 642              		.loc 1 308 1 view .LVU200
 643 0156 38BD     		pop	{r3, r4, r5, pc}	@
 644              	.L41:
 645              		.align	2
 646              	.L40:
 647 0158 00000000 		.word	.LANCHOR0
 648              		.cfi_endproc
 649              	.LFE6:
 650              		.size	vPortFree, .-vPortFree
 651              		.align	1
 652              		.global	xPortGetFreeHeapSize
 653              		.syntax unified
 654              		.thumb
 655              		.thumb_func
ARM GAS  /tmp/cc3VwJ6e.s 			page 23


 656              		.type	xPortGetFreeHeapSize, %function
 657              	xPortGetFreeHeapSize:
 658              	.LFB7:
 312:../freertos/portable/MemMang/heap_4.c **** 	return xFreeBytesRemaining;
 659              		.loc 1 312 1 is_stmt 1 view -0
 660              		.cfi_startproc
 661              		@ args = 0, pretend = 0, frame = 0
 662              		@ frame_needed = 0, uses_anonymous_args = 0
 663              		@ link register save eliminated.
 313:../freertos/portable/MemMang/heap_4.c **** }
 664              		.loc 1 313 2 view .LVU202
 665              	@ ../freertos/portable/MemMang/heap_4.c:314: }
 314:../freertos/portable/MemMang/heap_4.c **** /*-----------------------------------------------------------*/
 666              		.loc 1 314 1 is_stmt 0 view .LVU203
 667 015c 014B     		ldr	r3, .L43	@ tmp115,
 668 015e 1869     		ldr	r0, [r3, #16]	@, xFreeBytesRemaining
 669 0160 7047     		bx	lr	@
 670              	.L44:
 671 0162 00BF     		.align	2
 672              	.L43:
 673 0164 00000000 		.word	.LANCHOR0
 674              		.cfi_endproc
 675              	.LFE7:
 676              		.size	xPortGetFreeHeapSize, .-xPortGetFreeHeapSize
 677              		.align	1
 678              		.global	xPortGetMinimumEverFreeHeapSize
 679              		.syntax unified
 680              		.thumb
 681              		.thumb_func
 682              		.type	xPortGetMinimumEverFreeHeapSize, %function
 683              	xPortGetMinimumEverFreeHeapSize:
 684              	.LFB8:
 318:../freertos/portable/MemMang/heap_4.c **** 	return xMinimumEverFreeBytesRemaining;
 685              		.loc 1 318 1 is_stmt 1 view -0
 686              		.cfi_startproc
 687              		@ args = 0, pretend = 0, frame = 0
 688              		@ frame_needed = 0, uses_anonymous_args = 0
 689              		@ link register save eliminated.
 319:../freertos/portable/MemMang/heap_4.c **** }
 690              		.loc 1 319 2 view .LVU205
 691              	@ ../freertos/portable/MemMang/heap_4.c:320: }
 320:../freertos/portable/MemMang/heap_4.c **** /*-----------------------------------------------------------*/
 692              		.loc 1 320 1 is_stmt 0 view .LVU206
 693 0168 014B     		ldr	r3, .L46	@ tmp115,
 694 016a D868     		ldr	r0, [r3, #12]	@, xMinimumEverFreeBytesRemaining
 695 016c 7047     		bx	lr	@
 696              	.L47:
 697 016e 00BF     		.align	2
 698              	.L46:
 699 0170 00000000 		.word	.LANCHOR0
 700              		.cfi_endproc
 701              	.LFE8:
 702              		.size	xPortGetMinimumEverFreeHeapSize, .-xPortGetMinimumEverFreeHeapSize
 703              		.align	1
 704              		.global	vPortInitialiseBlocks
 705              		.syntax unified
 706              		.thumb
ARM GAS  /tmp/cc3VwJ6e.s 			page 24


 707              		.thumb_func
 708              		.type	vPortInitialiseBlocks, %function
 709              	vPortInitialiseBlocks:
 710              	.LFB9:
 324:../freertos/portable/MemMang/heap_4.c **** 	/* This just exists to keep the linker quiet. */
 711              		.loc 1 324 1 is_stmt 1 view -0
 712              		.cfi_startproc
 713              		@ args = 0, pretend = 0, frame = 0
 714              		@ frame_needed = 0, uses_anonymous_args = 0
 715              		@ link register save eliminated.
 326:../freertos/portable/MemMang/heap_4.c **** /*-----------------------------------------------------------*/
 716              		.loc 1 326 1 view .LVU208
 717 0174 7047     		bx	lr	@
 718              		.cfi_endproc
 719              	.LFE9:
 720              		.size	vPortInitialiseBlocks, .-vPortInitialiseBlocks
 721              		.bss
 722              		.align	2
 723              		.set	.LANCHOR0,. + 0
 724              		.type	xStart, %object
 725              		.size	xStart, 8
 726              	xStart:
 727 0000 00000000 		.space	8
 727      00000000 
 728              		.type	pxEnd, %object
 729              		.size	pxEnd, 4
 730              	pxEnd:
 731 0008 00000000 		.space	4
 732              		.type	xMinimumEverFreeBytesRemaining, %object
 733              		.size	xMinimumEverFreeBytesRemaining, 4
 734              	xMinimumEverFreeBytesRemaining:
 735 000c 00000000 		.space	4
 736              		.type	xFreeBytesRemaining, %object
 737              		.size	xFreeBytesRemaining, 4
 738              	xFreeBytesRemaining:
 739 0010 00000000 		.space	4
 740              		.type	xBlockAllocatedBit, %object
 741              		.size	xBlockAllocatedBit, 4
 742              	xBlockAllocatedBit:
 743 0014 00000000 		.space	4
 744              		.type	ucHeap, %object
 745              		.size	ucHeap, 18432
 746              	ucHeap:
 747 0018 00000000 		.space	18432
 747      00000000 
 747      00000000 
 747      00000000 
 747      00000000 
 748              		.text
 749              	.Letext0:
 750              		.file 2 "/usr/lib/gcc/arm-none-eabi/10.3.1/include/stddef.h"
 751              		.file 3 "/usr/arm-none-eabi/include/machine/_default_types.h"
 752              		.file 4 "/usr/arm-none-eabi/include/sys/_stdint.h"
 753              		.file 5 "../freertos/include/task.h"