ARM GAS  /tmp/cch27VDe.s 			page 1


   1              		.cpu cortex-m3
   2              		.arch armv7-m
   3              		.fpu softvfp
   4              		.eabi_attribute 20, 1	@ Tag_ABI_FP_denormal
   5              		.eabi_attribute 21, 1	@ Tag_ABI_FP_exceptions
   6              		.eabi_attribute 23, 3	@ Tag_ABI_FP_number_model
   7              		.eabi_attribute 24, 1	@ Tag_ABI_align8_needed
   8              		.eabi_attribute 25, 1	@ Tag_ABI_align8_preserved
   9              		.eabi_attribute 26, 1	@ Tag_ABI_enum_size
  10              		.eabi_attribute 30, 4	@ Tag_ABI_optimization_goals
  11              		.eabi_attribute 34, 1	@ Tag_CPU_unaligned_access
  12              		.eabi_attribute 18, 4	@ Tag_ABI_PCS_wchar_t
  13              		.file	"main.c"
  14              	@ GNU C17 (GNU Arm Embedded Toolchain 10.3-2021.10) version 10.3.1 20210824 (release) (arm-none-eab
  15              	@	compiled by GNU C version 4.8.4, GMP version 6.1.0, MPFR version 3.1.4, MPC version 1.0.3, isl ve
  16              	
  17              	@ GGC heuristics: --param ggc-min-expand=100 --param ggc-min-heapsize=131072
  18              	@ options passed:  -I . -I ../3-ComProcessos
  19              	@ -I ../stm32f10x_lib/CMSIS/CM3/CoreSupport
  20              	@ -I ../stm32f10x_lib/CMSIS/CM3/DeviceSupport/ST/STM32F10x
  21              	@ -I ../stm32f10x_lib/STM32F10x_StdPeriph_Driver/inc
  22              	@ -I ../stm32f10x_lib/STM32F10x_StdPeriph_Driver -I ../freertos/include
  23              	@ -I ../freertos/portable/GCC/ARM_CM3 -imultilib thumb/v7-m/nofp
  24              	@ -iprefix /usr/bin/../lib/gcc/arm-none-eabi/10.3.1/
  25              	@ -isysroot /usr/bin/../arm-none-eabi -D__USES_INITFINI__ -D STM32F10X_MD
  26              	@ -D USE_STDPERIPH_DRIVER -D HSE_VALUE=8000000 -D RUN_FROM_FLASH=1
  27              	@ ../3-ComProcessos/main.c -mcpu=cortex-m3 -mthumb -mfloat-abi=soft
  28              	@ -mlibarch=armv7-m -march=armv7-m -auxbase-strip ../3-ComProcessos/main.o
  29              	@ -g -gdwarf-2 -Os -Wall -fomit-frame-pointer -fverbose-asm
  30              	@ options enabled:  -faggressive-loop-optimizations -fallocation-dce
  31              	@ -fauto-inc-dec -fbranch-count-reg -fcaller-saves -fcode-hoisting
  32              	@ -fcombine-stack-adjustments -fcompare-elim -fcprop-registers
  33              	@ -fcrossjumping -fcse-follow-jumps -fdefer-pop
  34              	@ -fdelete-null-pointer-checks -fdevirtualize -fdevirtualize-speculatively
  35              	@ -fdwarf2-cfi-asm -fearly-inlining -feliminate-unused-debug-symbols
  36              	@ -feliminate-unused-debug-types -fexpensive-optimizations
  37              	@ -fforward-propagate -ffp-int-builtin-inexact -ffunction-cse -fgcse
  38              	@ -fgcse-lm -fgnu-unique -fguess-branch-probability -fhoist-adjacent-loads
  39              	@ -fident -fif-conversion -fif-conversion2 -findirect-inlining -finline
  40              	@ -finline-atomics -finline-functions -finline-functions-called-once
  41              	@ -finline-small-functions -fipa-bit-cp -fipa-cp -fipa-icf
  42              	@ -fipa-icf-functions -fipa-icf-variables -fipa-profile -fipa-pure-const
  43              	@ -fipa-ra -fipa-reference -fipa-reference-addressable -fipa-sra
  44              	@ -fipa-stack-alignment -fipa-vrp -fira-hoist-pressure
  45              	@ -fira-share-save-slots -fira-share-spill-slots
  46              	@ -fisolate-erroneous-paths-dereference -fivopts -fkeep-static-consts
  47              	@ -fleading-underscore -flifetime-dse -flra-remat -fmath-errno
  48              	@ -fmerge-constants -fmerge-debug-strings -fmove-loop-invariants
  49              	@ -fomit-frame-pointer -foptimize-sibling-calls -fpartial-inlining
  50              	@ -fpeephole -fpeephole2 -fplt -fprefetch-loop-arrays -freg-struct-return
  51              	@ -freorder-blocks -freorder-functions -frerun-cse-after-loop
  52              	@ -fsched-critical-path-heuristic -fsched-dep-count-heuristic
  53              	@ -fsched-group-heuristic -fsched-interblock -fsched-last-insn-heuristic
  54              	@ -fsched-pressure -fsched-rank-heuristic -fsched-spec
  55              	@ -fsched-spec-insn-heuristic -fsched-stalled-insns-dep -fschedule-insns2
  56              	@ -fsection-anchors -fsemantic-interposition -fshow-column
  57              	@ -fshrink-wrap-separate -fsigned-zeros -fsplit-ivs-in-unroller
ARM GAS  /tmp/cch27VDe.s 			page 2


  58              	@ -fsplit-wide-types -fssa-backprop -fssa-phiopt -fstdarg-opt
  59              	@ -fstore-merging -fstrict-aliasing -fstrict-volatile-bitfields
  60              	@ -fsync-libcalls -fthread-jumps -ftoplevel-reorder -ftrapping-math
  61              	@ -ftree-bit-ccp -ftree-builtin-call-dce -ftree-ccp -ftree-ch
  62              	@ -ftree-coalesce-vars -ftree-copy-prop -ftree-cselim -ftree-dce
  63              	@ -ftree-dominator-opts -ftree-dse -ftree-forwprop -ftree-fre
  64              	@ -ftree-loop-distribute-patterns -ftree-loop-if-convert -ftree-loop-im
  65              	@ -ftree-loop-ivcanon -ftree-loop-optimize -ftree-parallelize-loops=
  66              	@ -ftree-phiprop -ftree-pre -ftree-pta -ftree-reassoc -ftree-scev-cprop
  67              	@ -ftree-sink -ftree-slsr -ftree-sra -ftree-switch-conversion
  68              	@ -ftree-tail-merge -ftree-ter -ftree-vrp -funit-at-a-time -fvar-tracking
  69              	@ -fvar-tracking-assignments -fverbose-asm -fzero-initialized-in-bss
  70              	@ -masm-syntax-unified -mbe32 -mfix-cortex-m3-ldrd -mlittle-endian
  71              	@ -mpic-data-is-text-relative -msched-prolog -mthumb -munaligned-access
  72              	@ -mvectorize-with-neon-quad
  73              	
  74              		.text
  75              	.Ltext0:
  76              		.cfi_sections	.debug_frame
  77              		.align	1
  78              		.syntax unified
  79              		.thumb
  80              		.thumb_func
  81              		.type	task1, %function
  82              	task1:
  83              	.LFB40:
  84              		.file 1 "../3-ComProcessos/main.c"
   1:../3-ComProcessos/main.c **** #include "stm32f10x.h"
   2:../3-ComProcessos/main.c **** #include "Me.h"
   3:../3-ComProcessos/main.c **** /* #include "stm32f10x_adc.h" */
   4:../3-ComProcessos/main.c **** 
   5:../3-ComProcessos/main.c **** // FreeRTOS: 
   6:../3-ComProcessos/main.c **** #include "FreeRTOS.h"
   7:../3-ComProcessos/main.c **** #include "queue.h"
   8:../3-ComProcessos/main.c **** #include "task.h"
   9:../3-ComProcessos/main.c **** 
  10:../3-ComProcessos/main.c **** #define __delay_ms( TEMPO ) vTaskDelay(pdMS_TO_TICKS( TEMPO ))
  11:../3-ComProcessos/main.c **** #define __delay( TEMPO ) vTaskDelay( TEMPO )
  12:../3-ComProcessos/main.c **** 
  13:../3-ComProcessos/main.c **** 
  14:../3-ComProcessos/main.c **** static QueueHandle_t xQueue; 
  15:../3-ComProcessos/main.c **** 
  16:../3-ComProcessos/main.c **** static void task1(void *args __attribute((unused))) {
  85              		.loc 1 16 53 view -0
  86              		.cfi_startproc
  87              		@ Volatile: function does not return.
  88              		@ args = 0, pretend = 0, frame = 0
  89              		@ frame_needed = 0, uses_anonymous_args = 0
  90              		@ link register save eliminated.
  91              	.LVL0:
  92              	.L2:
  17:../3-ComProcessos/main.c **** 	while(1){
  93              		.loc 1 17 2 discriminator 1 view .LVU1
  18:../3-ComProcessos/main.c **** 
  19:../3-ComProcessos/main.c **** 	}
  94              		.loc 1 19 2 discriminator 1 view .LVU2
  17:../3-ComProcessos/main.c **** 	while(1){
ARM GAS  /tmp/cch27VDe.s 			page 3


  95              		.loc 1 17 7 discriminator 1 view .LVU3
  96 0000 FEE7     		b	.L2		@
  97              		.cfi_endproc
  98              	.LFE40:
  99              		.size	task1, .-task1
 100              		.align	1
 101              		.syntax unified
 102              		.thumb
 103              		.thumb_func
 104              		.type	task2, %function
 105              	task2:
 106              	.LFB41:
  20:../3-ComProcessos/main.c **** }
  21:../3-ComProcessos/main.c **** 
  22:../3-ComProcessos/main.c **** static void task2(void *args __attribute ((unused))){
 107              		.loc 1 22 53 view -0
 108              		.cfi_startproc
 109              		@ Volatile: function does not return.
 110              		@ args = 0, pretend = 0, frame = 0
 111              		@ frame_needed = 0, uses_anonymous_args = 0
 112              		@ link register save eliminated.
 113              	.LVL1:
 114              	.L4:
  23:../3-ComProcessos/main.c **** 	while(1){
 115              		.loc 1 23 2 discriminator 1 view .LVU5
  24:../3-ComProcessos/main.c **** 		}
 116              		.loc 1 24 3 discriminator 1 view .LVU6
  23:../3-ComProcessos/main.c **** 	while(1){
 117              		.loc 1 23 7 discriminator 1 view .LVU7
 118 0002 FEE7     		b	.L4		@
 119              		.cfi_endproc
 120              	.LFE41:
 121              		.size	task2, .-task2
 122              		.align	1
 123              		.syntax unified
 124              		.thumb
 125              		.thumb_func
 126              		.type	task3, %function
 127              	task3:
 128              	.LFB42:
  25:../3-ComProcessos/main.c **** }
  26:../3-ComProcessos/main.c **** 
  27:../3-ComProcessos/main.c **** static void task3(void *args __attribute ((unused))){
 129              		.loc 1 27 53 view -0
 130              		.cfi_startproc
 131              		@ Volatile: function does not return.
 132              		@ args = 0, pretend = 0, frame = 0
 133              		@ frame_needed = 0, uses_anonymous_args = 0
 134              		@ link register save eliminated.
 135              	.LVL2:
 136              	.L6:
  28:../3-ComProcessos/main.c **** 	while(1){
 137              		.loc 1 28 2 discriminator 1 view .LVU9
  29:../3-ComProcessos/main.c **** 	}
 138              		.loc 1 29 2 discriminator 1 view .LVU10
  28:../3-ComProcessos/main.c **** 	while(1){
 139              		.loc 1 28 7 discriminator 1 view .LVU11
ARM GAS  /tmp/cch27VDe.s 			page 4


 140 0004 FEE7     		b	.L6		@
 141              		.cfi_endproc
 142              	.LFE42:
 143              		.size	task3, .-task3
 144              		.align	1
 145              		.global	ADC1_configure
 146              		.syntax unified
 147              		.thumb
 148              		.thumb_func
 149              		.type	ADC1_configure, %function
 150              	ADC1_configure:
 151              	.LFB29:
 152              		.file 2 "../3-ComProcessos/Me.h"
   1:../3-ComProcessos/Me.h **** #define __IO volatile
   2:../3-ComProcessos/Me.h **** 
   3:../3-ComProcessos/Me.h **** void SystemInit (void);
   4:../3-ComProcessos/Me.h **** void nvic_IntDisble(u8 IRQn);
   5:../3-ComProcessos/Me.h **** void nvic_intEnable(u8 IRQn);
   6:../3-ComProcessos/Me.h **** void set_system_clock_to_25Mhz (void);
   7:../3-ComProcessos/Me.h **** void set_system_clock_to_72Mhz(void);
   8:../3-ComProcessos/Me.h **** void Delay ( __IO u32 T );
   9:../3-ComProcessos/Me.h **** void enable_TIM3_delay (void);
  10:../3-ComProcessos/Me.h **** void ADC1_configure();
  11:../3-ComProcessos/Me.h **** 
  12:../3-ComProcessos/Me.h **** void ADC1_configure(){
 153              		.loc 2 12 22 view -0
 154              		.cfi_startproc
 155              		@ args = 0, pretend = 0, frame = 0
 156              		@ frame_needed = 0, uses_anonymous_args = 0
 157              		@ link register save eliminated.
  13:../3-ComProcessos/Me.h **** 	RCC->APB2ENR |= 1UL<<2 ; // Hab. GPIOA
 158              		.loc 2 13 2 view .LVU13
 159              	@ ../3-ComProcessos/Me.h:13: 	RCC->APB2ENR |= 1UL<<2 ; // Hab. GPIOA
 160              		.loc 2 13 15 is_stmt 0 view .LVU14
 161 0006 204B     		ldr	r3, .L12	@ tmp141,
 162              	@ ../3-ComProcessos/Me.h:14: 	GPIOA->CRL &= ~(0x0F << 4); // Define A1 Input Analogic
  14:../3-ComProcessos/Me.h **** 	GPIOA->CRL &= ~(0x0F << 4); // Define A1 Input Analogic
 163              		.loc 2 14 13 view .LVU15
 164 0008 2049     		ldr	r1, .L12+4	@ tmp143,
 165              	@ ../3-ComProcessos/Me.h:13: 	RCC->APB2ENR |= 1UL<<2 ; // Hab. GPIOA
  13:../3-ComProcessos/Me.h **** 	RCC->APB2ENR |= 1UL<<2 ; // Hab. GPIOA
 166              		.loc 2 13 15 view .LVU16
 167 000a 9A69     		ldr	r2, [r3, #24]	@ _1, MEM[(struct RCC_TypeDef *)1073876992B].APB2ENR
 168 000c 42F00402 		orr	r2, r2, #4	@ _2, _1,
 169 0010 9A61     		str	r2, [r3, #24]	@ _2, MEM[(struct RCC_TypeDef *)1073876992B].APB2ENR
 170              		.loc 2 14 2 is_stmt 1 view .LVU17
 171              	@ ../3-ComProcessos/Me.h:14: 	GPIOA->CRL &= ~(0x0F << 4); // Define A1 Input Analogic
 172              		.loc 2 14 13 is_stmt 0 view .LVU18
 173 0012 0A68     		ldr	r2, [r1]	@ _3, MEM[(struct GPIO_TypeDef *)1073809408B].CRL
 174 0014 22F0F002 		bic	r2, r2, #240	@ _4, _3,
 175 0018 0A60     		str	r2, [r1]	@ _4, MEM[(struct GPIO_TypeDef *)1073809408B].CRL
  15:../3-ComProcessos/Me.h **** 	
  16:../3-ComProcessos/Me.h **** 	RCC->APB2ENR |= (1<<9); // Bit 9 ADC1EN: ADC 1 
 176              		.loc 2 16 2 is_stmt 1 view .LVU19
 177              	@ ../3-ComProcessos/Me.h:16: 	RCC->APB2ENR |= (1<<9); // Bit 9 ADC1EN: ADC 1 
 178              		.loc 2 16 15 is_stmt 0 view .LVU20
 179 001a 9A69     		ldr	r2, [r3, #24]	@ _5, MEM[(struct RCC_TypeDef *)1073876992B].APB2ENR
ARM GAS  /tmp/cch27VDe.s 			page 5


 180 001c 42F40072 		orr	r2, r2, #512	@ _6, _5,
 181 0020 9A61     		str	r2, [r3, #24]	@ _6, MEM[(struct RCC_TypeDef *)1073876992B].APB2ENR
  17:../3-ComProcessos/Me.h **** 									// interface clock enable
  18:../3-ComProcessos/Me.h **** 
  19:../3-ComProcessos/Me.h **** 	RCC->CFGR	|= (0b10 << 14); // Bits 15:14 ADCPRE:
 182              		.loc 2 19 2 is_stmt 1 view .LVU21
 183              	@ ../3-ComProcessos/Me.h:19: 	RCC->CFGR	|= (0b10 << 14); // Bits 15:14 ADCPRE:
 184              		.loc 2 19 12 is_stmt 0 view .LVU22
 185 0022 5A68     		ldr	r2, [r3, #4]	@ _7, MEM[(struct RCC_TypeDef *)1073876992B].CFGR
 186 0024 42F40042 		orr	r2, r2, #32768	@ _8, _7,
 187 0028 5A60     		str	r2, [r3, #4]	@ _8, MEM[(struct RCC_TypeDef *)1073876992B].CFGR
  20:../3-ComProcessos/Me.h **** 										  // ADC prescaler 10:
  21:../3-ComProcessos/Me.h **** 										  //    PCLK2 divided by 6
  22:../3-ComProcessos/Me.h **** 	// Enable End of Conversion (EOC) interrupt
  23:../3-ComProcessos/Me.h **** 	ADC1->CR1 |= (1 << 5);
 188              		.loc 2 23 2 is_stmt 1 view .LVU23
 189              	@ ../3-ComProcessos/Me.h:23: 	ADC1->CR1 |= (1 << 5);
 190              		.loc 2 23 12 is_stmt 0 view .LVU24
 191 002a A3F56C43 		sub	r3, r3, #60416	@ tmp149, tmp149,
 192 002e 5A68     		ldr	r2, [r3, #4]	@ _9, MEM[(struct ADC_TypeDef *)1073816576B].CR1
 193 0030 42F02002 		orr	r2, r2, #32	@ _10, _9,
 194 0034 5A60     		str	r2, [r3, #4]	@ _10, MEM[(struct ADC_TypeDef *)1073816576B].CR1
  24:../3-ComProcessos/Me.h **** 
  25:../3-ComProcessos/Me.h **** 	// One conversion
  26:../3-ComProcessos/Me.h **** 	ADC1->SQR1 = 0x00000000;
 195              		.loc 2 26 2 is_stmt 1 view .LVU25
 196              	@ ../3-ComProcessos/Me.h:26: 	ADC1->SQR1 = 0x00000000;
 197              		.loc 2 26 13 is_stmt 0 view .LVU26
 198 0036 0022     		movs	r2, #0	@ tmp152,
 199 0038 DA62     		str	r2, [r3, #44]	@ tmp152, MEM[(struct ADC_TypeDef *)1073816576B].SQR1
  27:../3-ComProcessos/Me.h **** 
  28:../3-ComProcessos/Me.h **** 	// Choose the analog channel to read
  29:../3-ComProcessos/Me.h **** 	// Since we want channel 10 to be the first
  30:../3-ComProcessos/Me.h **** 	//   conversion we write 10 to SQ1 bits (3:0)
  31:../3-ComProcessos/Me.h **** 	//   which is in SQR3 register. For multiple conversions
  32:../3-ComProcessos/Me.h **** 	//   keep writing the channel numbers to SQx bits.
  33:../3-ComProcessos/Me.h **** 	 ADC1->SQR3 = (10 << 0);
 200              		.loc 2 33 3 is_stmt 1 view .LVU27
 201              	@ ../3-ComProcessos/Me.h:33: 	 ADC1->SQR3 = (10 << 0);
 202              		.loc 2 33 14 is_stmt 0 view .LVU28
 203 003a 0A22     		movs	r2, #10	@ tmp154,
 204 003c 5A63     		str	r2, [r3, #52]	@ tmp154, MEM[(struct ADC_TypeDef *)1073816576B].SQR3
  34:../3-ComProcessos/Me.h **** 
  35:../3-ComProcessos/Me.h **** 	// Set up software trigger to start conversion
  36:../3-ComProcessos/Me.h **** 	ADC1->CR2 |= (7 << 17);  // Select SWSTART as trigger
 205              		.loc 2 36 2 is_stmt 1 view .LVU29
 206              	@ ../3-ComProcessos/Me.h:36: 	ADC1->CR2 |= (7 << 17);  // Select SWSTART as trigger
 207              		.loc 2 36 12 is_stmt 0 view .LVU30
 208 003e 9A68     		ldr	r2, [r3, #8]	@ _11, MEM[(struct ADC_TypeDef *)1073816576B].CR2
 209 0040 42F46022 		orr	r2, r2, #917504	@ _12, _11,
 210 0044 9A60     		str	r2, [r3, #8]	@ _12, MEM[(struct ADC_TypeDef *)1073816576B].CR2
  37:../3-ComProcessos/Me.h **** 	ADC1->CR2 |= (1 << 20);  // Enable external trigger
 211              		.loc 2 37 2 is_stmt 1 view .LVU31
 212              	@ ../3-ComProcessos/Me.h:37: 	ADC1->CR2 |= (1 << 20);  // Enable external trigger
 213              		.loc 2 37 12 is_stmt 0 view .LVU32
 214 0046 9A68     		ldr	r2, [r3, #8]	@ _13, MEM[(struct ADC_TypeDef *)1073816576B].CR2
 215 0048 42F48012 		orr	r2, r2, #1048576	@ _14, _13,
ARM GAS  /tmp/cch27VDe.s 			page 6


 216 004c 9A60     		str	r2, [r3, #8]	@ _14, MEM[(struct ADC_TypeDef *)1073816576B].CR2
  38:../3-ComProcessos/Me.h **** 
  39:../3-ComProcessos/Me.h **** 	// Enable continuous conversion
  40:../3-ComProcessos/Me.h **** 	ADC1->CR2 |= (1 << 1);
 217              		.loc 2 40 2 is_stmt 1 view .LVU33
 218              	@ ../3-ComProcessos/Me.h:40: 	ADC1->CR2 |= (1 << 1);
 219              		.loc 2 40 12 is_stmt 0 view .LVU34
 220 004e 9A68     		ldr	r2, [r3, #8]	@ _15, MEM[(struct ADC_TypeDef *)1073816576B].CR2
 221 0050 42F00202 		orr	r2, r2, #2	@ _16, _15,
 222 0054 9A60     		str	r2, [r3, #8]	@ _16, MEM[(struct ADC_TypeDef *)1073816576B].CR2
  41:../3-ComProcessos/Me.h **** 
  42:../3-ComProcessos/Me.h **** 	// enable_interrupt(ADC1_2_IRQn);
  43:../3-ComProcessos/Me.h **** 
  44:../3-ComProcessos/Me.h **** 	// Enable A/D conversion
  45:../3-ComProcessos/Me.h **** 	ADC1->CR2 |= (1 << 0);
 223              		.loc 2 45 2 is_stmt 1 view .LVU35
 224              	@ ../3-ComProcessos/Me.h:45: 	ADC1->CR2 |= (1 << 0);
 225              		.loc 2 45 12 is_stmt 0 view .LVU36
 226 0056 9A68     		ldr	r2, [r3, #8]	@ _17, MEM[(struct ADC_TypeDef *)1073816576B].CR2
 227 0058 42F00102 		orr	r2, r2, #1	@ _18, _17,
 228 005c 9A60     		str	r2, [r3, #8]	@ _18, MEM[(struct ADC_TypeDef *)1073816576B].CR2
  46:../3-ComProcessos/Me.h **** 
  47:../3-ComProcessos/Me.h **** 	// Calibration reset and start
  48:../3-ComProcessos/Me.h **** 	//    Optional for better accuracy.
  49:../3-ComProcessos/Me.h **** 	ADC1->CR2 |= (1 << 3);
 229              		.loc 2 49 2 is_stmt 1 view .LVU37
 230              	@ ../3-ComProcessos/Me.h:49: 	ADC1->CR2 |= (1 << 3);
 231              		.loc 2 49 12 is_stmt 0 view .LVU38
 232 005e 9A68     		ldr	r2, [r3, #8]	@ _19, MEM[(struct ADC_TypeDef *)1073816576B].CR2
 233 0060 42F00802 		orr	r2, r2, #8	@ _20, _19,
 234 0064 9A60     		str	r2, [r3, #8]	@ _20, MEM[(struct ADC_TypeDef *)1073816576B].CR2
  50:../3-ComProcessos/Me.h **** 	while((ADC1->CR2 & (1 << 3)));
 235              		.loc 2 50 2 is_stmt 1 view .LVU39
 236              	.L8:
 237              		.loc 2 50 31 discriminator 1 view .LVU40
 238              		.loc 2 50 7 discriminator 1 view .LVU41
 239              	@ ../3-ComProcessos/Me.h:50: 	while((ADC1->CR2 & (1 << 3)));
 240              		.loc 2 50 13 is_stmt 0 discriminator 1 view .LVU42
 241 0066 9A68     		ldr	r2, [r3, #8]	@ _21, MEM[(struct ADC_TypeDef *)1073816576B].CR2
 242              	@ ../3-ComProcessos/Me.h:50: 	while((ADC1->CR2 & (1 << 3)));
 243              		.loc 2 50 7 discriminator 1 view .LVU43
 244 0068 1107     		lsls	r1, r2, #28	@, _21,
 245 006a FCD4     		bmi	.L8		@,
  51:../3-ComProcessos/Me.h **** 	ADC1->CR2 |= (1 << 2);
 246              		.loc 2 51 2 is_stmt 1 view .LVU44
 247              	@ ../3-ComProcessos/Me.h:51: 	ADC1->CR2 |= (1 << 2);
 248              		.loc 2 51 12 is_stmt 0 view .LVU45
 249 006c 9A68     		ldr	r2, [r3, #8]	@ _23, MEM[(struct ADC_TypeDef *)1073816576B].CR2
 250 006e 42F00402 		orr	r2, r2, #4	@ _24, _23,
 251 0072 9A60     		str	r2, [r3, #8]	@ _24, MEM[(struct ADC_TypeDef *)1073816576B].CR2
  52:../3-ComProcessos/Me.h **** 	while((ADC1->CR2 & (1 << 2)));
 252              		.loc 2 52 2 is_stmt 1 view .LVU46
 253              	@ ../3-ComProcessos/Me.h:52: 	while((ADC1->CR2 & (1 << 2)));
 254              		.loc 2 52 13 is_stmt 0 view .LVU47
 255 0074 064B     		ldr	r3, .L12+8	@ tmp169,
 256              	.L9:
 257              		.loc 2 52 31 is_stmt 1 discriminator 1 view .LVU48
ARM GAS  /tmp/cch27VDe.s 			page 7


 258              		.loc 2 52 7 discriminator 1 view .LVU49
 259              	@ ../3-ComProcessos/Me.h:52: 	while((ADC1->CR2 & (1 << 2)));
 260              		.loc 2 52 13 is_stmt 0 discriminator 1 view .LVU50
 261 0076 9A68     		ldr	r2, [r3, #8]	@ _25, MEM[(struct ADC_TypeDef *)1073816576B].CR2
 262              	@ ../3-ComProcessos/Me.h:52: 	while((ADC1->CR2 & (1 << 2)));
 263              		.loc 2 52 7 discriminator 1 view .LVU51
 264 0078 5207     		lsls	r2, r2, #29	@, _25,
 265 007a FCD4     		bmi	.L9		@,
  53:../3-ComProcessos/Me.h **** 
  54:../3-ComProcessos/Me.h **** 	// Start conversion with software trigger
  55:../3-ComProcessos/Me.h **** 	ADC1->CR2 |= (1<<22);
 266              		.loc 2 55 2 is_stmt 1 view .LVU52
 267              	@ ../3-ComProcessos/Me.h:55: 	ADC1->CR2 |= (1<<22);
 268              		.loc 2 55 12 is_stmt 0 view .LVU53
 269 007c 9A68     		ldr	r2, [r3, #8]	@ _27, MEM[(struct ADC_TypeDef *)1073816576B].CR2
 270 007e 42F48002 		orr	r2, r2, #4194304	@ _28, _27,
 271 0082 9A60     		str	r2, [r3, #8]	@ _28, MEM[(struct ADC_TypeDef *)1073816576B].CR2
 272              	@ ../3-ComProcessos/Me.h:58: }
  56:../3-ComProcessos/Me.h **** 	//
  57:../3-ComProcessos/Me.h **** 	// Leitura  ADC1->DR  -> Data Register
  58:../3-ComProcessos/Me.h **** }
 273              		.loc 2 58 1 view .LVU54
 274 0084 7047     		bx	lr	@
 275              	.L13:
 276 0086 00BF     		.align	2
 277              	.L12:
 278 0088 00100240 		.word	1073876992
 279 008c 00080140 		.word	1073809408
 280 0090 00240140 		.word	1073816576
 281              		.cfi_endproc
 282              	.LFE29:
 283              		.size	ADC1_configure, .-ADC1_configure
 284              		.align	1
 285              		.global	set_system_clock_to_72Mhz
 286              		.syntax unified
 287              		.thumb
 288              		.thumb_func
 289              		.type	set_system_clock_to_72Mhz, %function
 290              	set_system_clock_to_72Mhz:
 291              	.LFB30:
  59:../3-ComProcessos/Me.h **** 
  60:../3-ComProcessos/Me.h **** void set_system_clock_to_72Mhz(void)
  61:../3-ComProcessos/Me.h **** {
 292              		.loc 2 61 1 is_stmt 1 view -0
 293              		.cfi_startproc
 294              		@ args = 0, pretend = 0, frame = 0
 295              		@ frame_needed = 0, uses_anonymous_args = 0
 296              		@ link register save eliminated.
  62:../3-ComProcessos/Me.h ****    // Necessary wait states for Flash for high speeds
  63:../3-ComProcessos/Me.h ****    FLASH->ACR = 0x12;
 297              		.loc 2 63 4 view .LVU56
 298              	@ ../3-ComProcessos/Me.h:63:    FLASH->ACR = 0x12;
 299              		.loc 2 63 15 is_stmt 0 view .LVU57
 300 0094 1222     		movs	r2, #18	@ tmp140,
 301 0096 1B4B     		ldr	r3, .L21	@ tmp139,
 302 0098 1A60     		str	r2, [r3]	@ tmp140, MEM[(struct FLASH_TypeDef *)1073881088B].ACR
  64:../3-ComProcessos/Me.h ****    // Enable HSE
ARM GAS  /tmp/cch27VDe.s 			page 8


  65:../3-ComProcessos/Me.h ****    RCC->CR |= (1 << 16);
 303              		.loc 2 65 4 is_stmt 1 view .LVU58
 304              	@ ../3-ComProcessos/Me.h:65:    RCC->CR |= (1 << 16);
 305              		.loc 2 65 12 is_stmt 0 view .LVU59
 306 009a A3F58053 		sub	r3, r3, #4096	@ tmp141, tmp141,
 307 009e 1A68     		ldr	r2, [r3]	@ _1, MEM[(struct RCC_TypeDef *)1073876992B].CR
 308 00a0 42F48032 		orr	r2, r2, #65536	@ _2, _1,
 309 00a4 1A60     		str	r2, [r3]	@ _2, MEM[(struct RCC_TypeDef *)1073876992B].CR
  66:../3-ComProcessos/Me.h ****    // Wait untill HSE settles down
  67:../3-ComProcessos/Me.h ****    while (!(RCC->CR & (1 << 17)));
 310              		.loc 2 67 4 is_stmt 1 view .LVU60
 311              	.L15:
 312              		.loc 2 67 34 discriminator 1 view .LVU61
 313              		.loc 2 67 10 discriminator 1 view .LVU62
 314              	@ ../3-ComProcessos/Me.h:67:    while (!(RCC->CR & (1 << 17)));
 315              		.loc 2 67 16 is_stmt 0 discriminator 1 view .LVU63
 316 00a6 1A68     		ldr	r2, [r3]	@ _3, MEM[(struct RCC_TypeDef *)1073876992B].CR
 317              	@ ../3-ComProcessos/Me.h:67:    while (!(RCC->CR & (1 << 17)));
 318              		.loc 2 67 10 discriminator 1 view .LVU64
 319 00a8 9103     		lsls	r1, r2, #14	@, _3,
 320 00aa FCD5     		bpl	.L15		@,
  68:../3-ComProcessos/Me.h ****    // Set PREDIV2 division factor to 5
  69:../3-ComProcessos/Me.h ****    RCC->CFGR2 |= (0b0100 << 4);
 321              		.loc 2 69 4 is_stmt 1 view .LVU65
 322              	@ ../3-ComProcessos/Me.h:69:    RCC->CFGR2 |= (0b0100 << 4);
 323              		.loc 2 69 15 is_stmt 0 view .LVU66
 324 00ac DA6A     		ldr	r2, [r3, #44]	@ _5, MEM[(struct RCC_TypeDef *)1073876992B].CFGR2
 325 00ae 42F04002 		orr	r2, r2, #64	@ _6, _5,
 326 00b2 DA62     		str	r2, [r3, #44]	@ _6, MEM[(struct RCC_TypeDef *)1073876992B].CFGR2
  70:../3-ComProcessos/Me.h ****    // Set PLL2 multiplication factor to 8
  71:../3-ComProcessos/Me.h ****    RCC->CFGR2 |= (0b0110 << 8);
 327              		.loc 2 71 4 is_stmt 1 view .LVU67
 328              	@ ../3-ComProcessos/Me.h:71:    RCC->CFGR2 |= (0b0110 << 8);
 329              		.loc 2 71 15 is_stmt 0 view .LVU68
 330 00b4 DA6A     		ldr	r2, [r3, #44]	@ _7, MEM[(struct RCC_TypeDef *)1073876992B].CFGR2
 331 00b6 42F4C062 		orr	r2, r2, #1536	@ _8, _7,
 332 00ba DA62     		str	r2, [r3, #44]	@ _8, MEM[(struct RCC_TypeDef *)1073876992B].CFGR2
  72:../3-ComProcessos/Me.h ****    // Enable PLL2
  73:../3-ComProcessos/Me.h ****    RCC->CR |= (1 << 26);
 333              		.loc 2 73 4 is_stmt 1 view .LVU69
 334              	@ ../3-ComProcessos/Me.h:73:    RCC->CR |= (1 << 26);
 335              		.loc 2 73 12 is_stmt 0 view .LVU70
 336 00bc 1A68     		ldr	r2, [r3]	@ _9, MEM[(struct RCC_TypeDef *)1073876992B].CR
 337 00be 42F08062 		orr	r2, r2, #67108864	@ _10, _9,
 338 00c2 1A60     		str	r2, [r3]	@ _10, MEM[(struct RCC_TypeDef *)1073876992B].CR
  74:../3-ComProcessos/Me.h ****    // Wait untill PLL2 settles down
  75:../3-ComProcessos/Me.h **** 	// while (!(RCC->CR & (1 << 27)));
  76:../3-ComProcessos/Me.h ****    // Set PLL2 as PREDIV1 clock source
  77:../3-ComProcessos/Me.h ****    RCC->CFGR2 |= (1 << 16);
 339              		.loc 2 77 4 is_stmt 1 view .LVU71
 340              	@ ../3-ComProcessos/Me.h:77:    RCC->CFGR2 |= (1 << 16);
 341              		.loc 2 77 15 is_stmt 0 view .LVU72
 342 00c4 DA6A     		ldr	r2, [r3, #44]	@ _11, MEM[(struct RCC_TypeDef *)1073876992B].CFGR2
 343 00c6 42F48032 		orr	r2, r2, #65536	@ _12, _11,
 344 00ca DA62     		str	r2, [r3, #44]	@ _12, MEM[(struct RCC_TypeDef *)1073876992B].CFGR2
  78:../3-ComProcessos/Me.h ****    // Set PREDIV1 division factor to 5
  79:../3-ComProcessos/Me.h ****    RCC->CFGR2 |= (0b0100 << 0);
ARM GAS  /tmp/cch27VDe.s 			page 9


 345              		.loc 2 79 4 is_stmt 1 view .LVU73
 346              	@ ../3-ComProcessos/Me.h:79:    RCC->CFGR2 |= (0b0100 << 0);
 347              		.loc 2 79 15 is_stmt 0 view .LVU74
 348 00cc DA6A     		ldr	r2, [r3, #44]	@ _13, MEM[(struct RCC_TypeDef *)1073876992B].CFGR2
 349 00ce 42F00402 		orr	r2, r2, #4	@ _14, _13,
 350 00d2 DA62     		str	r2, [r3, #44]	@ _14, MEM[(struct RCC_TypeDef *)1073876992B].CFGR2
  80:../3-ComProcessos/Me.h ****    // Select Prediv1 as PLL source
  81:../3-ComProcessos/Me.h ****    RCC->CFGR |= (1 << 16);
 351              		.loc 2 81 4 is_stmt 1 view .LVU75
 352              	@ ../3-ComProcessos/Me.h:81:    RCC->CFGR |= (1 << 16);
 353              		.loc 2 81 14 is_stmt 0 view .LVU76
 354 00d4 5A68     		ldr	r2, [r3, #4]	@ _15, MEM[(struct RCC_TypeDef *)1073876992B].CFGR
 355 00d6 42F48032 		orr	r2, r2, #65536	@ _16, _15,
 356 00da 5A60     		str	r2, [r3, #4]	@ _16, MEM[(struct RCC_TypeDef *)1073876992B].CFGR
  82:../3-ComProcessos/Me.h ****    // Set PLL1 multiplication factor to 9
  83:../3-ComProcessos/Me.h ****    RCC->CFGR |= (0b0111 << 18);
 357              		.loc 2 83 4 is_stmt 1 view .LVU77
 358              	@ ../3-ComProcessos/Me.h:83:    RCC->CFGR |= (0b0111 << 18);
 359              		.loc 2 83 14 is_stmt 0 view .LVU78
 360 00dc 5A68     		ldr	r2, [r3, #4]	@ _17, MEM[(struct RCC_TypeDef *)1073876992B].CFGR
 361 00de 42F4E012 		orr	r2, r2, #1835008	@ _18, _17,
 362 00e2 5A60     		str	r2, [r3, #4]	@ _18, MEM[(struct RCC_TypeDef *)1073876992B].CFGR
  84:../3-ComProcessos/Me.h ****    // Set APB1 to 36MHz
  85:../3-ComProcessos/Me.h ****    RCC->CFGR |= 1 << 10;
 363              		.loc 2 85 4 is_stmt 1 view .LVU79
 364              	@ ../3-ComProcessos/Me.h:85:    RCC->CFGR |= 1 << 10;
 365              		.loc 2 85 14 is_stmt 0 view .LVU80
 366 00e4 5A68     		ldr	r2, [r3, #4]	@ _19, MEM[(struct RCC_TypeDef *)1073876992B].CFGR
 367 00e6 42F48062 		orr	r2, r2, #1024	@ _20, _19,
 368 00ea 5A60     		str	r2, [r3, #4]	@ _20, MEM[(struct RCC_TypeDef *)1073876992B].CFGR
  86:../3-ComProcessos/Me.h ****    // Enable PLL
  87:../3-ComProcessos/Me.h ****    RCC->CR |= (1 << 24);
 369              		.loc 2 87 4 is_stmt 1 view .LVU81
 370              	@ ../3-ComProcessos/Me.h:87:    RCC->CR |= (1 << 24);
 371              		.loc 2 87 12 is_stmt 0 view .LVU82
 372 00ec 1A68     		ldr	r2, [r3]	@ _21, MEM[(struct RCC_TypeDef *)1073876992B].CR
 373 00ee 42F08072 		orr	r2, r2, #16777216	@ _22, _21,
 374 00f2 1A60     		str	r2, [r3]	@ _22, MEM[(struct RCC_TypeDef *)1073876992B].CR
  88:../3-ComProcessos/Me.h ****    // Wait untill PLL settles down
  89:../3-ComProcessos/Me.h ****    while (!(RCC->CR & (1 << 25)));
 375              		.loc 2 89 4 is_stmt 1 view .LVU83
 376              	.L16:
 377              		.loc 2 89 34 discriminator 1 view .LVU84
 378              		.loc 2 89 10 discriminator 1 view .LVU85
 379              	@ ../3-ComProcessos/Me.h:89:    while (!(RCC->CR & (1 << 25)));
 380              		.loc 2 89 16 is_stmt 0 discriminator 1 view .LVU86
 381 00f4 1A68     		ldr	r2, [r3]	@ _23, MEM[(struct RCC_TypeDef *)1073876992B].CR
 382              	@ ../3-ComProcessos/Me.h:89:    while (!(RCC->CR & (1 << 25)));
 383              		.loc 2 89 10 discriminator 1 view .LVU87
 384 00f6 9201     		lsls	r2, r2, #6	@, _23,
 385 00f8 FCD5     		bpl	.L16		@,
  90:../3-ComProcessos/Me.h ****    // Finally, choose PLL as the system clock
  91:../3-ComProcessos/Me.h ****    RCC->CFGR |= (0b10 << 0);
 386              		.loc 2 91 4 is_stmt 1 view .LVU88
 387              	@ ../3-ComProcessos/Me.h:91:    RCC->CFGR |= (0b10 << 0);
 388              		.loc 2 91 14 is_stmt 0 view .LVU89
 389 00fa 5A68     		ldr	r2, [r3, #4]	@ _25, MEM[(struct RCC_TypeDef *)1073876992B].CFGR
ARM GAS  /tmp/cch27VDe.s 			page 10


 390 00fc 42F00202 		orr	r2, r2, #2	@ _26, _25,
 391 0100 5A60     		str	r2, [r3, #4]	@ _26, MEM[(struct RCC_TypeDef *)1073876992B].CFGR
 392              	@ ../3-ComProcessos/Me.h:92: } 
  92:../3-ComProcessos/Me.h **** } 
 393              		.loc 2 92 1 view .LVU90
 394 0102 7047     		bx	lr	@
 395              	.L22:
 396              		.align	2
 397              	.L21:
 398 0104 00200240 		.word	1073881088
 399              		.cfi_endproc
 400              	.LFE30:
 401              		.size	set_system_clock_to_72Mhz, .-set_system_clock_to_72Mhz
 402              		.align	1
 403              		.global	Delay
 404              		.syntax unified
 405              		.thumb
 406              		.thumb_func
 407              		.type	Delay, %function
 408              	Delay:
 409              	.LVL3:
 410              	.LFB31:
  93:../3-ComProcessos/Me.h **** 
  94:../3-ComProcessos/Me.h **** void Delay ( __IO u32 T ) { // T=1 ;  868µs -> T=1 ~ 526µs
 411              		.loc 2 94 27 is_stmt 1 view -0
 412              		.cfi_startproc
 413              		@ args = 0, pretend = 0, frame = 8
 414              		@ frame_needed = 0, uses_anonymous_args = 0
 415              		@ link register save eliminated.
  95:../3-ComProcessos/Me.h ****   for ( T ; T > 0 ; T-- ){
 416              		.loc 2 95 3 view .LVU92
 417              	@ ../3-ComProcessos/Me.h:94: void Delay ( __IO u32 T ) { // T=1 ;  868µs -> T=1 ~ 526µs
  94:../3-ComProcessos/Me.h ****   for ( T ; T > 0 ; T-- ){
 418              		.loc 2 94 27 is_stmt 0 view .LVU93
 419 0108 82B0     		sub	sp, sp, #8	@,,
 420              	.LCFI0:
 421              		.cfi_def_cfa_offset 8
 422              	@ ../3-ComProcessos/Me.h:94: void Delay ( __IO u32 T ) { // T=1 ;  868µs -> T=1 ~ 526µs
  94:../3-ComProcessos/Me.h ****   for ( T ; T > 0 ; T-- ){
 423              		.loc 2 94 27 view .LVU94
 424 010a 0190     		str	r0, [sp, #4]	@ T, T
 425              	@ ../3-ComProcessos/Me.h:95:   for ( T ; T > 0 ; T-- ){
 426              		.loc 2 95 3 view .LVU95
 427 010c 019B     		ldr	r3, [sp, #4]	@ vol.0_9, T
 428              	@ ../3-ComProcessos/Me.h:96:    TIM3->EGR |= ( 1 << 0 );
  96:../3-ComProcessos/Me.h ****    TIM3->EGR |= ( 1 << 0 );
 429              		.loc 2 96 14 view .LVU96
 430 010e 094A     		ldr	r2, .L28	@ tmp132,
 431              	.L24:
  95:../3-ComProcessos/Me.h ****   for ( T ; T > 0 ; T-- ){
 432              		.loc 2 95 13 is_stmt 1 discriminator 1 view .LVU97
 433              	@ ../3-ComProcessos/Me.h:95:   for ( T ; T > 0 ; T-- ){
  95:../3-ComProcessos/Me.h ****   for ( T ; T > 0 ; T-- ){
 434              		.loc 2 95 15 is_stmt 0 discriminator 1 view .LVU98
 435 0110 019B     		ldr	r3, [sp, #4]	@ T.2_6, T
 436              	@ ../3-ComProcessos/Me.h:95:   for ( T ; T > 0 ; T-- ){
  95:../3-ComProcessos/Me.h ****   for ( T ; T > 0 ; T-- ){
ARM GAS  /tmp/cch27VDe.s 			page 11


 437              		.loc 2 95 3 discriminator 1 view .LVU99
 438 0112 0BB9     		cbnz	r3, .L26	@ T.2_6,
 439              	@ ../3-ComProcessos/Me.h:99: }
  97:../3-ComProcessos/Me.h ****    while ( TIM3->CNT < 5 ) ; /* 5 * 10-- Configurar para IR */
  98:../3-ComProcessos/Me.h ****   }
  99:../3-ComProcessos/Me.h **** }
 440              		.loc 2 99 1 view .LVU100
 441 0114 02B0     		add	sp, sp, #8	@,,
 442              	.LCFI1:
 443              		.cfi_remember_state
 444              		.cfi_def_cfa_offset 0
 445              		@ sp needed	@
 446 0116 7047     		bx	lr	@
 447              	.L26:
 448              	.LCFI2:
 449              		.cfi_restore_state
  96:../3-ComProcessos/Me.h ****    TIM3->EGR |= ( 1 << 0 );
 450              		.loc 2 96 4 is_stmt 1 view .LVU101
 451              	@ ../3-ComProcessos/Me.h:96:    TIM3->EGR |= ( 1 << 0 );
  96:../3-ComProcessos/Me.h ****    TIM3->EGR |= ( 1 << 0 );
 452              		.loc 2 96 14 is_stmt 0 view .LVU102
 453 0118 938A     		ldrh	r3, [r2, #20]	@, MEM[(struct TIM_TypeDef *)1073742848B].EGR
 454 011a 9BB2     		uxth	r3, r3	@ _1, MEM[(struct TIM_TypeDef *)1073742848B].EGR
 455 011c 43F00103 		orr	r3, r3, #1	@ _2, _1,
 456 0120 9382     		strh	r3, [r2, #20]	@ movhi	@ _2, MEM[(struct TIM_TypeDef *)1073742848B].EGR
  97:../3-ComProcessos/Me.h ****    while ( TIM3->CNT < 5 ) ; /* 5 * 10-- Configurar para IR */
 457              		.loc 2 97 4 is_stmt 1 view .LVU103
 458              	.L25:
  97:../3-ComProcessos/Me.h ****    while ( TIM3->CNT < 5 ) ; /* 5 * 10-- Configurar para IR */
 459              		.loc 2 97 28 discriminator 1 view .LVU104
  97:../3-ComProcessos/Me.h ****    while ( TIM3->CNT < 5 ) ; /* 5 * 10-- Configurar para IR */
 460              		.loc 2 97 10 discriminator 1 view .LVU105
 461              	@ ../3-ComProcessos/Me.h:97:    while ( TIM3->CNT < 5 ) ; /* 5 * 10-- Configurar para IR */
  97:../3-ComProcessos/Me.h ****    while ( TIM3->CNT < 5 ) ; /* 5 * 10-- Configurar para IR */
 462              		.loc 2 97 16 is_stmt 0 discriminator 1 view .LVU106
 463 0122 938C     		ldrh	r3, [r2, #36]	@, MEM[(struct TIM_TypeDef *)1073742848B].CNT
 464 0124 9BB2     		uxth	r3, r3	@ _3, MEM[(struct TIM_TypeDef *)1073742848B].CNT
 465              	@ ../3-ComProcessos/Me.h:97:    while ( TIM3->CNT < 5 ) ; /* 5 * 10-- Configurar para IR */
  97:../3-ComProcessos/Me.h ****    while ( TIM3->CNT < 5 ) ; /* 5 * 10-- Configurar para IR */
 466              		.loc 2 97 10 discriminator 1 view .LVU107
 467 0126 042B     		cmp	r3, #4	@ _3,
 468 0128 FBD9     		bls	.L25		@,
  95:../3-ComProcessos/Me.h ****    TIM3->EGR |= ( 1 << 0 );
 469              		.loc 2 95 21 is_stmt 1 discriminator 2 view .LVU108
 470              	@ ../3-ComProcessos/Me.h:95:   for ( T ; T > 0 ; T-- ){
  95:../3-ComProcessos/Me.h ****    TIM3->EGR |= ( 1 << 0 );
 471              		.loc 2 95 22 is_stmt 0 discriminator 2 view .LVU109
 472 012a 019B     		ldr	r3, [sp, #4]	@ T.1_4, T
 473 012c 013B     		subs	r3, r3, #1	@ _5, T.1_4,
 474 012e 0193     		str	r3, [sp, #4]	@ _5, T
 475 0130 EEE7     		b	.L24		@
 476              	.L29:
 477 0132 00BF     		.align	2
 478              	.L28:
 479 0134 00040040 		.word	1073742848
 480              		.cfi_endproc
 481              	.LFE31:
ARM GAS  /tmp/cch27VDe.s 			page 12


 482              		.size	Delay, .-Delay
 483              		.align	1
 484              		.global	enable_TIM3_delay
 485              		.syntax unified
 486              		.thumb
 487              		.thumb_func
 488              		.type	enable_TIM3_delay, %function
 489              	enable_TIM3_delay:
 490              	.LFB32:
 100:../3-ComProcessos/Me.h **** 
 101:../3-ComProcessos/Me.h **** void enable_TIM3_delay (void) {
 491              		.loc 2 101 31 is_stmt 1 view -0
 492              		.cfi_startproc
 493              		@ args = 0, pretend = 0, frame = 0
 494              		@ frame_needed = 0, uses_anonymous_args = 0
 495              		@ link register save eliminated.
 102:../3-ComProcessos/Me.h ****    RCC->APB1ENR |= 1<<1 ;
 496              		.loc 2 102 4 view .LVU111
 497              	@ ../3-ComProcessos/Me.h:102:    RCC->APB1ENR |= 1<<1 ;
 498              		.loc 2 102 17 is_stmt 0 view .LVU112
 499 0138 084A     		ldr	r2, .L31	@ tmp117,
 500 013a D369     		ldr	r3, [r2, #28]	@ _1, MEM[(struct RCC_TypeDef *)1073876992B].APB1ENR
 501 013c 43F00203 		orr	r3, r3, #2	@ _2, _1,
 502 0140 D361     		str	r3, [r2, #28]	@ _2, MEM[(struct RCC_TypeDef *)1073876992B].APB1ENR
 103:../3-ComProcessos/Me.h ****    TIM3->CR1 = 0x0000;
 503              		.loc 2 103 4 is_stmt 1 view .LVU113
 504              	@ ../3-ComProcessos/Me.h:103:    TIM3->CR1 = 0x0000;
 505              		.loc 2 103 14 is_stmt 0 view .LVU114
 506 0142 0023     		movs	r3, #0	@ tmp121,
 507 0144 A2F50332 		sub	r2, r2, #134144	@ tmp119, tmp119,
 508 0148 1380     		strh	r3, [r2]	@ movhi	@ tmp121, MEM[(struct TIM_TypeDef *)1073742848B].CR1
 104:../3-ComProcessos/Me.h ****    //TIM3->ARR = 21699;
 105:../3-ComProcessos/Me.h ****    TIM3->ARR = 250-1; // 10µs
 509              		.loc 2 105 4 is_stmt 1 view .LVU115
 510              	@ ../3-ComProcessos/Me.h:105:    TIM3->ARR = 250-1; // 10µs
 511              		.loc 2 105 14 is_stmt 0 view .LVU116
 512 014a F923     		movs	r3, #249	@ tmp124,
 513 014c 9385     		strh	r3, [r2, #44]	@ movhi	@ tmp124, MEM[(struct TIM_TypeDef *)1073742848B].ARR
 106:../3-ComProcessos/Me.h ****    // para obter o período de 868µs
 107:../3-ComProcessos/Me.h **** /*https://www.vishay.com/docs/80071/dataform.pdf PAG 2
 108:../3-ComProcessos/Me.h ****  * https://controllerstech.com/ir-remote-with-stm32/
 109:../3-ComProcessos/Me.h ****  * Per=(1+ARR)/Clock_system */
 110:../3-ComProcessos/Me.h ****    TIM3->CR1 |= 1<<0;
 514              		.loc 2 110 4 is_stmt 1 view .LVU117
 515              	@ ../3-ComProcessos/Me.h:110:    TIM3->CR1 |= 1<<0;
 516              		.loc 2 110 14 is_stmt 0 view .LVU118
 517 014e 1388     		ldrh	r3, [r2]	@, MEM[(struct TIM_TypeDef *)1073742848B].CR1
 518 0150 9BB2     		uxth	r3, r3	@ _3, MEM[(struct TIM_TypeDef *)1073742848B].CR1
 519 0152 43F00103 		orr	r3, r3, #1	@ _4, _3,
 520 0156 1380     		strh	r3, [r2]	@ movhi	@ _4, MEM[(struct TIM_TypeDef *)1073742848B].CR1
 521              	@ ../3-ComProcessos/Me.h:111: }
 111:../3-ComProcessos/Me.h **** }
 522              		.loc 2 111 1 view .LVU119
 523 0158 7047     		bx	lr	@
 524              	.L32:
 525 015a 00BF     		.align	2
 526              	.L31:
ARM GAS  /tmp/cch27VDe.s 			page 13


 527 015c 00100240 		.word	1073876992
 528              		.cfi_endproc
 529              	.LFE32:
 530              		.size	enable_TIM3_delay, .-enable_TIM3_delay
 531              		.align	1
 532              		.global	enable_interrupt
 533              		.syntax unified
 534              		.thumb
 535              		.thumb_func
 536              		.type	enable_interrupt, %function
 537              	enable_interrupt:
 538              	.LVL4:
 539              	.LFB33:
 112:../3-ComProcessos/Me.h **** 
 113:../3-ComProcessos/Me.h **** void enable_interrupt(IRQn_Type IRQn)
 114:../3-ComProcessos/Me.h **** {
 540              		.loc 2 114 1 is_stmt 1 view -0
 541              		.cfi_startproc
 542              		@ args = 0, pretend = 0, frame = 0
 543              		@ frame_needed = 0, uses_anonymous_args = 0
 544              		@ link register save eliminated.
 115:../3-ComProcessos/Me.h ****    NVIC->ISER[((uint32_t)(IRQn) >> 5)] = (1 << ((uint32_t)(IRQn) & 0x1F));
 545              		.loc 2 115 4 view .LVU121
 546              	@ ../3-ComProcessos/Me.h:115:    NVIC->ISER[((uint32_t)(IRQn) >> 5)] = (1 << ((uint32_t)(IRQn) & 0x
 547              		.loc 2 115 45 is_stmt 0 view .LVU122
 548 0160 0123     		movs	r3, #1	@ tmp124,
 549              	@ ../3-ComProcessos/Me.h:115:    NVIC->ISER[((uint32_t)(IRQn) >> 5)] = (1 << ((uint32_t)(IRQn) & 0x
 550              		.loc 2 115 33 view .LVU123
 551 0162 4209     		lsrs	r2, r0, #5	@ _6, IRQn,
 552              	@ ../3-ComProcessos/Me.h:115:    NVIC->ISER[((uint32_t)(IRQn) >> 5)] = (1 << ((uint32_t)(IRQn) & 0x
 553              		.loc 2 115 66 view .LVU124
 554 0164 00F01F00 		and	r0, r0, #31	@ tmp123, IRQn,
 555              	.LVL5:
 556              	@ ../3-ComProcessos/Me.h:115:    NVIC->ISER[((uint32_t)(IRQn) >> 5)] = (1 << ((uint32_t)(IRQn) & 0x
 557              		.loc 2 115 45 view .LVU125
 558 0168 03FA00F0 		lsl	r0, r3, r0	@ _7, tmp124, tmp123
 559              	@ ../3-ComProcessos/Me.h:115:    NVIC->ISER[((uint32_t)(IRQn) >> 5)] = (1 << ((uint32_t)(IRQn) & 0x
 560              		.loc 2 115 40 view .LVU126
 561 016c 014B     		ldr	r3, .L34	@ tmp125,
 562 016e 43F82200 		str	r0, [r3, r2, lsl #2]	@ _7, MEM[(struct NVIC_Type *)3758153984B].ISER[_6]
 563              	@ ../3-ComProcessos/Me.h:116: }  
 116:../3-ComProcessos/Me.h **** }  
 564              		.loc 2 116 1 view .LVU127
 565 0172 7047     		bx	lr	@
 566              	.L35:
 567              		.align	2
 568              	.L34:
 569 0174 00E100E0 		.word	-536813312
 570              		.cfi_endproc
 571              	.LFE33:
 572              		.size	enable_interrupt, .-enable_interrupt
 573              		.align	1
 574              		.global	disable_interrupt
 575              		.syntax unified
 576              		.thumb
 577              		.thumb_func
 578              		.type	disable_interrupt, %function
ARM GAS  /tmp/cch27VDe.s 			page 14


 579              	disable_interrupt:
 580              	.LVL6:
 581              	.LFB34:
 117:../3-ComProcessos/Me.h ****    
 118:../3-ComProcessos/Me.h **** /* 
 119:../3-ComProcessos/Me.h ****  * Disable given interrupt
 120:../3-ComProcessos/Me.h ****  */
 121:../3-ComProcessos/Me.h **** void disable_interrupt(IRQn_Type IRQn)
 122:../3-ComProcessos/Me.h **** {
 582              		.loc 2 122 1 is_stmt 1 view -0
 583              		.cfi_startproc
 584              		@ args = 0, pretend = 0, frame = 0
 585              		@ frame_needed = 0, uses_anonymous_args = 0
 586              		@ link register save eliminated.
 123:../3-ComProcessos/Me.h ****    NVIC->ICER[((uint32_t)(IRQn) >> 5)] = (1 << ((uint32_t)(IRQn) & 0x1F));
 587              		.loc 2 123 4 view .LVU129
 588              	@ ../3-ComProcessos/Me.h:123:    NVIC->ICER[((uint32_t)(IRQn) >> 5)] = (1 << ((uint32_t)(IRQn) & 0x
 589              		.loc 2 123 45 is_stmt 0 view .LVU130
 590 0178 0122     		movs	r2, #1	@ tmp124,
 591              	@ ../3-ComProcessos/Me.h:123:    NVIC->ICER[((uint32_t)(IRQn) >> 5)] = (1 << ((uint32_t)(IRQn) & 0x
 592              		.loc 2 123 33 view .LVU131
 593 017a 4309     		lsrs	r3, r0, #5	@ _6, IRQn,
 594              	@ ../3-ComProcessos/Me.h:123:    NVIC->ICER[((uint32_t)(IRQn) >> 5)] = (1 << ((uint32_t)(IRQn) & 0x
 595              		.loc 2 123 66 view .LVU132
 596 017c 00F01F00 		and	r0, r0, #31	@ tmp123, IRQn,
 597              	.LVL7:
 598              	@ ../3-ComProcessos/Me.h:123:    NVIC->ICER[((uint32_t)(IRQn) >> 5)] = (1 << ((uint32_t)(IRQn) & 0x
 599              		.loc 2 123 45 view .LVU133
 600 0180 02FA00F0 		lsl	r0, r2, r0	@ _7, tmp124, tmp123
 601              	@ ../3-ComProcessos/Me.h:123:    NVIC->ICER[((uint32_t)(IRQn) >> 5)] = (1 << ((uint32_t)(IRQn) & 0x
 602              		.loc 2 123 40 view .LVU134
 603 0184 024A     		ldr	r2, .L37	@ tmp125,
 604 0186 2033     		adds	r3, r3, #32	@ tmp126, _6,
 605 0188 42F82300 		str	r0, [r2, r3, lsl #2]	@ _7, MEM[(struct NVIC_Type *)3758153984B].ICER[_6]
 606              	@ ../3-ComProcessos/Me.h:124: }
 124:../3-ComProcessos/Me.h **** }
 607              		.loc 2 124 1 view .LVU135
 608 018c 7047     		bx	lr	@
 609              	.L38:
 610 018e 00BF     		.align	2
 611              	.L37:
 612 0190 00E100E0 		.word	-536813312
 613              		.cfi_endproc
 614              	.LFE34:
 615              		.size	disable_interrupt, .-disable_interrupt
 616              		.section	.rodata.str1.1,"aMS",%progbits,1
 617              	.LC0:
 618 0000 50574D5F 		.ascii	"PWM_Control\000"
 618      436F6E74 
 618      726F6C00 
 619              	.LC1:
 620 000c 4144435F 		.ascii	"ADC_Read\000"
 620      52656164 
 620      00
 621              	.LC2:
 622 0015 4C65645F 		.ascii	"Led_C13\000"
 622      43313300 
ARM GAS  /tmp/cch27VDe.s 			page 15


 623              		.section	.text.startup,"ax",%progbits
 624              		.align	1
 625              		.global	main
 626              		.syntax unified
 627              		.thumb
 628              		.thumb_func
 629              		.type	main, %function
 630              	main:
 631              	.LFB43:
  30:../3-ComProcessos/main.c **** }
  31:../3-ComProcessos/main.c **** 
  32:../3-ComProcessos/main.c **** int main(void) {
 632              		.loc 1 32 16 is_stmt 1 view -0
 633              		.cfi_startproc
 634              		@ Volatile: function does not return.
 635              		@ args = 0, pretend = 0, frame = 0
 636              		@ frame_needed = 0, uses_anonymous_args = 0
  33:../3-ComProcessos/main.c **** 	xQueue = xQueueCreate(5 /* Tamanho máximo da fila. */,
 637              		.loc 1 33 2 view .LVU137
 638              	@ ../3-ComProcessos/main.c:38: 	xTaskCreate(task1,"PWM_Control", 100 ,NULL, 4 ,NULL);
  34:../3-ComProcessos/main.c **** 								sizeof(u32) /* Largura máxima da fila. */);
  35:../3-ComProcessos/main.c **** 
  36:../3-ComProcessos/main.c **** 	set_system_clock_to_72Mhz();
  37:../3-ComProcessos/main.c **** 
  38:../3-ComProcessos/main.c **** 	xTaskCreate(task1,"PWM_Control", 100 ,NULL, 4 ,NULL);
 639              		.loc 1 38 2 is_stmt 0 view .LVU138
 640 0000 0024     		movs	r4, #0	@ tmp116,
 641 0002 0425     		movs	r5, #4	@ tmp117,
 642              	@ ../3-ComProcessos/main.c:32: int main(void) {
  32:../3-ComProcessos/main.c **** 	xQueue = xQueueCreate(5 /* Tamanho máximo da fila. */,
 643              		.loc 1 32 16 view .LVU139
 644 0004 07B5     		push	{r0, r1, r2, lr}	@
 645              	.LCFI3:
 646              		.cfi_def_cfa_offset 16
 647              		.cfi_offset 14, -4
 648              	@ ../3-ComProcessos/main.c:33: 	xQueue = xQueueCreate(5 /* Tamanho máximo da fila. */,
  33:../3-ComProcessos/main.c **** 	xQueue = xQueueCreate(5 /* Tamanho máximo da fila. */,
 649              		.loc 1 33 11 view .LVU140
 650 0006 0022     		movs	r2, #0	@,
 651 0008 0421     		movs	r1, #4	@,
 652 000a 0520     		movs	r0, #5	@,
 653 000c FFF7FEFF 		bl	xQueueGenericCreate		@
 654              	.LVL8:
  36:../3-ComProcessos/main.c **** 
 655              		.loc 1 36 2 is_stmt 1 view .LVU141
 656 0010 FFF7FEFF 		bl	set_system_clock_to_72Mhz		@
 657              	.LVL9:
 658              		.loc 1 38 2 view .LVU142
 659 0014 0D48     		ldr	r0, .L41	@,
 660 0016 2346     		mov	r3, r4	@, tmp116
 661 0018 6422     		movs	r2, #100	@,
 662 001a 0D49     		ldr	r1, .L41+4	@,
 663 001c CDE90054 		strd	r5, r4, [sp]	@ tmp117, tmp116,
 664 0020 FFF7FEFF 		bl	xTaskCreate		@
 665              	.LVL10:
  39:../3-ComProcessos/main.c **** 	xTaskCreate(task2, "ADC_Read", 200 , NULL, 4 , NULL);
 666              		.loc 1 39 2 view .LVU143
ARM GAS  /tmp/cch27VDe.s 			page 16


 667 0024 2346     		mov	r3, r4	@, tmp116
 668 0026 C822     		movs	r2, #200	@,
 669 0028 0A49     		ldr	r1, .L41+8	@,
 670 002a CDE90054 		strd	r5, r4, [sp]	@ tmp117, tmp116,
 671 002e 0A48     		ldr	r0, .L41+12	@,
 672 0030 FFF7FEFF 		bl	xTaskCreate		@
 673              	.LVL11:
  40:../3-ComProcessos/main.c **** 	xTaskCreate(task3, "Led_C13", 100 , NULL, 4 , NULL);
 674              		.loc 1 40 2 view .LVU144
 675 0034 2346     		mov	r3, r4	@, tmp116
 676 0036 6422     		movs	r2, #100	@,
 677 0038 0849     		ldr	r1, .L41+16	@,
 678 003a CDE90054 		strd	r5, r4, [sp]	@ tmp117, tmp116,
 679 003e 0848     		ldr	r0, .L41+20	@,
 680 0040 FFF7FEFF 		bl	xTaskCreate		@
 681              	.LVL12:
  41:../3-ComProcessos/main.c **** 
  42:../3-ComProcessos/main.c **** 	vTaskStartScheduler(); // inicia o escalonador de
 682              		.loc 1 42 2 view .LVU145
 683 0044 FFF7FEFF 		bl	vTaskStartScheduler		@
 684              	.LVL13:
 685              	.L40:
  43:../3-ComProcessos/main.c **** 								  // processos.
  44:../3-ComProcessos/main.c **** 	while(1);
 686              		.loc 1 44 2 discriminator 1 view .LVU146
 687              		.loc 1 44 10 discriminator 1 view .LVU147
 688              		.loc 1 44 7 discriminator 1 view .LVU148
 689 0048 FEE7     		b	.L40		@
 690              	.L42:
 691 004a 00BF     		.align	2
 692              	.L41:
 693 004c 00000000 		.word	task1
 694 0050 00000000 		.word	.LC0
 695 0054 0C000000 		.word	.LC1
 696 0058 00000000 		.word	task2
 697 005c 15000000 		.word	.LC2
 698 0060 00000000 		.word	task3
 699              		.cfi_endproc
 700              	.LFE43:
 701              		.size	main, .-main
 702              		.text
 703              	.Letext0:
 704              		.file 3 "../stm32f10x_lib/CMSIS/CM3/DeviceSupport/ST/STM32F10x/stm32f10x.h"
 705              		.file 4 "/usr/arm-none-eabi/include/machine/_default_types.h"
 706              		.file 5 "/usr/arm-none-eabi/include/sys/_stdint.h"
 707              		.file 6 "../stm32f10x_lib/CMSIS/CM3/CoreSupport/core_cm3.h"
 708              		.file 7 "../freertos/include/queue.h"
 709              		.file 8 "../freertos/include/task.h"
 710              		.section	.debug_info,"",%progbits
 711              	.Ldebug_info0:
 712 0000 080C0000 		.4byte	0xc08
 713 0004 0200     		.2byte	0x2
 714 0006 00000000 		.4byte	.Ldebug_abbrev0
 715 000a 04       		.byte	0x4
 716 000b 01       		.uleb128 0x1
 717 000c EC020000 		.4byte	.LASF156
 718 0010 0C       		.byte	0xc
ARM GAS  /tmp/cch27VDe.s 			page 17


 719 0011 63040000 		.4byte	.LASF157
 720 0015 C0030000 		.4byte	.LASF158
 721 0019 00000000 		.4byte	.Ldebug_ranges0+0
 722 001d 00000000 		.4byte	0
 723 0021 00000000 		.4byte	0
 724 0025 00000000 		.4byte	.Ldebug_line0
 725 0029 02       		.uleb128 0x2
 726 002a 90030000 		.4byte	.LASF147
 727 002e 05       		.byte	0x5
 728 002f 01       		.byte	0x1
 729 0030 6E010000 		.4byte	0x16e
 730 0034 03       		.byte	0x3
 731 0035 A7       		.byte	0xa7
 732 0036 0E       		.byte	0xe
 733 0037 6E010000 		.4byte	0x16e
 734 003b 03       		.uleb128 0x3
 735 003c 51060000 		.4byte	.LASF0
 736 0040 72       		.sleb128 -14
 737 0041 03       		.uleb128 0x3
 738 0042 5F020000 		.4byte	.LASF1
 739 0046 74       		.sleb128 -12
 740 0047 03       		.uleb128 0x3
 741 0048 26020000 		.4byte	.LASF2
 742 004c 75       		.sleb128 -11
 743 004d 03       		.uleb128 0x3
 744 004e F7050000 		.4byte	.LASF3
 745 0052 76       		.sleb128 -10
 746 0053 03       		.uleb128 0x3
 747 0054 FF030000 		.4byte	.LASF4
 748 0058 7B       		.sleb128 -5
 749 0059 03       		.uleb128 0x3
 750 005a A8060000 		.4byte	.LASF5
 751 005e 7C       		.sleb128 -4
 752 005f 03       		.uleb128 0x3
 753 0060 CC010000 		.4byte	.LASF6
 754 0064 7E       		.sleb128 -2
 755 0065 03       		.uleb128 0x3
 756 0066 76030000 		.4byte	.LASF7
 757 006a 7F       		.sleb128 -1
 758 006b 04       		.uleb128 0x4
 759 006c 99000000 		.4byte	.LASF8
 760 0070 00       		.byte	0
 761 0071 04       		.uleb128 0x4
 762 0072 0A000000 		.4byte	.LASF9
 763 0076 01       		.byte	0x1
 764 0077 04       		.uleb128 0x4
 765 0078 80060000 		.4byte	.LASF10
 766 007c 02       		.byte	0x2
 767 007d 04       		.uleb128 0x4
 768 007e 4D000000 		.4byte	.LASF11
 769 0082 03       		.byte	0x3
 770 0083 04       		.uleb128 0x4
 771 0084 B1050000 		.4byte	.LASF12
 772 0088 04       		.byte	0x4
 773 0089 04       		.uleb128 0x4
 774 008a 63070000 		.4byte	.LASF13
 775 008e 05       		.byte	0x5
ARM GAS  /tmp/cch27VDe.s 			page 18


 776 008f 04       		.uleb128 0x4
 777 0090 D8000000 		.4byte	.LASF14
 778 0094 06       		.byte	0x6
 779 0095 04       		.uleb128 0x4
 780 0096 76070000 		.4byte	.LASF15
 781 009a 07       		.byte	0x7
 782 009b 04       		.uleb128 0x4
 783 009c 8E000000 		.4byte	.LASF16
 784 00a0 08       		.byte	0x8
 785 00a1 04       		.uleb128 0x4
 786 00a2 EB060000 		.4byte	.LASF17
 787 00a6 09       		.byte	0x9
 788 00a7 04       		.uleb128 0x4
 789 00a8 44050000 		.4byte	.LASF18
 790 00ac 0A       		.byte	0xa
 791 00ad 04       		.uleb128 0x4
 792 00ae 8B040000 		.4byte	.LASF19
 793 00b2 0B       		.byte	0xb
 794 00b3 04       		.uleb128 0x4
 795 00b4 AD030000 		.4byte	.LASF20
 796 00b8 0C       		.byte	0xc
 797 00b9 04       		.uleb128 0x4
 798 00ba 18060000 		.4byte	.LASF21
 799 00be 0D       		.byte	0xd
 800 00bf 04       		.uleb128 0x4
 801 00c0 EB010000 		.4byte	.LASF22
 802 00c4 0E       		.byte	0xe
 803 00c5 04       		.uleb128 0x4
 804 00c6 B2020000 		.4byte	.LASF23
 805 00ca 0F       		.byte	0xf
 806 00cb 04       		.uleb128 0x4
 807 00cc 65060000 		.4byte	.LASF24
 808 00d0 10       		.byte	0x10
 809 00d1 04       		.uleb128 0x4
 810 00d2 26070000 		.4byte	.LASF25
 811 00d6 11       		.byte	0x11
 812 00d7 04       		.uleb128 0x4
 813 00d8 C0010000 		.4byte	.LASF26
 814 00dc 12       		.byte	0x12
 815 00dd 04       		.uleb128 0x4
 816 00de 30050000 		.4byte	.LASF27
 817 00e2 13       		.byte	0x13
 818 00e3 04       		.uleb128 0x4
 819 00e4 71050000 		.4byte	.LASF28
 820 00e8 14       		.byte	0x14
 821 00e9 04       		.uleb128 0x4
 822 00ea 56000000 		.4byte	.LASF29
 823 00ee 15       		.byte	0x15
 824 00ef 04       		.uleb128 0x4
 825 00f0 55070000 		.4byte	.LASF30
 826 00f4 16       		.byte	0x16
 827 00f5 04       		.uleb128 0x4
 828 00f6 91010000 		.4byte	.LASF31
 829 00fa 17       		.byte	0x17
 830 00fb 04       		.uleb128 0x4
 831 00fc 30060000 		.4byte	.LASF32
 832 0100 18       		.byte	0x18
ARM GAS  /tmp/cch27VDe.s 			page 19


 833 0101 04       		.uleb128 0x4
 834 0102 8C060000 		.4byte	.LASF33
 835 0106 19       		.byte	0x19
 836 0107 04       		.uleb128 0x4
 837 0108 18000000 		.4byte	.LASF34
 838 010c 1A       		.byte	0x1a
 839 010d 04       		.uleb128 0x4
 840 010e 83030000 		.4byte	.LASF35
 841 0112 1B       		.byte	0x1b
 842 0113 04       		.uleb128 0x4
 843 0114 CB060000 		.4byte	.LASF36
 844 0118 1C       		.byte	0x1c
 845 0119 04       		.uleb128 0x4
 846 011a 6C070000 		.4byte	.LASF37
 847 011e 1D       		.byte	0x1d
 848 011f 04       		.uleb128 0x4
 849 0120 76000000 		.4byte	.LASF38
 850 0124 1E       		.byte	0x1e
 851 0125 04       		.uleb128 0x4
 852 0126 2A000000 		.4byte	.LASF39
 853 012a 1F       		.byte	0x1f
 854 012b 04       		.uleb128 0x4
 855 012c 3E070000 		.4byte	.LASF40
 856 0130 20       		.byte	0x20
 857 0131 04       		.uleb128 0x4
 858 0132 0B040000 		.4byte	.LASF41
 859 0136 21       		.byte	0x21
 860 0137 04       		.uleb128 0x4
 861 0138 69000000 		.4byte	.LASF42
 862 013c 22       		.byte	0x22
 863 013d 04       		.uleb128 0x4
 864 013e 6C030000 		.4byte	.LASF43
 865 0142 23       		.byte	0x23
 866 0143 04       		.uleb128 0x4
 867 0144 2F040000 		.4byte	.LASF44
 868 0148 24       		.byte	0x24
 869 0149 04       		.uleb128 0x4
 870 014a CA020000 		.4byte	.LASF45
 871 014e 25       		.byte	0x25
 872 014f 04       		.uleb128 0x4
 873 0150 EB050000 		.4byte	.LASF46
 874 0154 26       		.byte	0x26
 875 0155 04       		.uleb128 0x4
 876 0156 BA060000 		.4byte	.LASF47
 877 015a 27       		.byte	0x27
 878 015b 04       		.uleb128 0x4
 879 015c DD020000 		.4byte	.LASF48
 880 0160 28       		.byte	0x28
 881 0161 04       		.uleb128 0x4
 882 0162 43060000 		.4byte	.LASF49
 883 0166 29       		.byte	0x29
 884 0167 04       		.uleb128 0x4
 885 0168 99060000 		.4byte	.LASF50
 886 016c 2A       		.byte	0x2a
 887 016d 00       		.byte	0
 888 016e 05       		.uleb128 0x5
 889 016f 01       		.byte	0x1
ARM GAS  /tmp/cch27VDe.s 			page 20


 890 0170 06       		.byte	0x6
 891 0171 C7000000 		.4byte	.LASF53
 892 0175 06       		.uleb128 0x6
 893 0176 CE050000 		.4byte	.LASF51
 894 017a 03       		.byte	0x3
 895 017b D801     		.2byte	0x1d8
 896 017d 03       		.byte	0x3
 897 017e 29000000 		.4byte	0x29
 898 0182 07       		.uleb128 0x7
 899 0183 37000000 		.4byte	.LASF52
 900 0187 04       		.byte	0x4
 901 0188 2B       		.byte	0x2b
 902 0189 18       		.byte	0x18
 903 018a 8E010000 		.4byte	0x18e
 904 018e 05       		.uleb128 0x5
 905 018f 01       		.byte	0x1
 906 0190 08       		.byte	0x8
 907 0191 22050000 		.4byte	.LASF54
 908 0195 05       		.uleb128 0x5
 909 0196 02       		.byte	0x2
 910 0197 05       		.byte	0x5
 911 0198 4F050000 		.4byte	.LASF55
 912 019c 07       		.uleb128 0x7
 913 019d FE010000 		.4byte	.LASF56
 914 01a1 04       		.byte	0x4
 915 01a2 39       		.byte	0x39
 916 01a3 19       		.byte	0x19
 917 01a4 A8010000 		.4byte	0x1a8
 918 01a8 05       		.uleb128 0x5
 919 01a9 02       		.byte	0x2
 920 01aa 07       		.byte	0x7
 921 01ab D8010000 		.4byte	.LASF57
 922 01af 05       		.uleb128 0x5
 923 01b0 04       		.byte	0x4
 924 01b1 05       		.byte	0x5
 925 01b2 7F010000 		.4byte	.LASF58
 926 01b6 07       		.uleb128 0x7
 927 01b7 09020000 		.4byte	.LASF59
 928 01bb 04       		.byte	0x4
 929 01bc 4F       		.byte	0x4f
 930 01bd 19       		.byte	0x19
 931 01be C2010000 		.4byte	0x1c2
 932 01c2 05       		.uleb128 0x5
 933 01c3 04       		.byte	0x4
 934 01c4 07       		.byte	0x7
 935 01c5 75020000 		.4byte	.LASF60
 936 01c9 05       		.uleb128 0x5
 937 01ca 08       		.byte	0x8
 938 01cb 05       		.byte	0x5
 939 01cc B9000000 		.4byte	.LASF61
 940 01d0 05       		.uleb128 0x5
 941 01d1 08       		.byte	0x8
 942 01d2 07       		.byte	0x7
 943 01d3 F1000000 		.4byte	.LASF62
 944 01d7 08       		.uleb128 0x8
 945 01d8 04       		.byte	0x4
 946 01d9 05       		.byte	0x5
ARM GAS  /tmp/cch27VDe.s 			page 21


 947 01da 696E7400 		.ascii	"int\000"
 948 01de 05       		.uleb128 0x5
 949 01df 04       		.byte	0x4
 950 01e0 07       		.byte	0x7
 951 01e1 52020000 		.4byte	.LASF63
 952 01e5 07       		.uleb128 0x7
 953 01e6 FC060000 		.4byte	.LASF64
 954 01ea 05       		.byte	0x5
 955 01eb 18       		.byte	0x18
 956 01ec 13       		.byte	0x13
 957 01ed 82010000 		.4byte	0x182
 958 01f1 09       		.uleb128 0x9
 959 01f2 E5010000 		.4byte	0x1e5
 960 01f6 07       		.uleb128 0x7
 961 01f7 AB010000 		.4byte	.LASF65
 962 01fb 05       		.byte	0x5
 963 01fc 24       		.byte	0x24
 964 01fd 14       		.byte	0x14
 965 01fe 9C010000 		.4byte	0x19c
 966 0202 09       		.uleb128 0x9
 967 0203 F6010000 		.4byte	0x1f6
 968 0207 07       		.uleb128 0x7
 969 0208 D8050000 		.4byte	.LASF66
 970 020c 05       		.byte	0x5
 971 020d 30       		.byte	0x30
 972 020e 14       		.byte	0x14
 973 020f B6010000 		.4byte	0x1b6
 974 0213 09       		.uleb128 0x9
 975 0214 07020000 		.4byte	0x207
 976 0218 0A       		.uleb128 0xa
 977 0219 040E     		.2byte	0xe04
 978 021b 06       		.byte	0x6
 979 021c 84       		.byte	0x84
 980 021d 09       		.byte	0x9
 981 021e F0020000 		.4byte	0x2f0
 982 0222 0B       		.uleb128 0xb
 983 0223 59050000 		.4byte	.LASF67
 984 0227 06       		.byte	0x6
 985 0228 86       		.byte	0x86
 986 0229 11       		.byte	0x11
 987 022a 00030000 		.4byte	0x300
 988 022e 02       		.byte	0x2
 989 022f 23       		.byte	0x23
 990 0230 00       		.uleb128 0
 991 0231 0B       		.uleb128 0xb
 992 0232 9E040000 		.4byte	.LASF68
 993 0236 06       		.byte	0x6
 994 0237 87       		.byte	0x87
 995 0238 11       		.byte	0x11
 996 0239 05030000 		.4byte	0x305
 997 023d 02       		.byte	0x2
 998 023e 23       		.byte	0x23
 999 023f 20       		.uleb128 0x20
 1000 0240 0B       		.uleb128 0xb
 1001 0241 56040000 		.4byte	.LASF69
 1002 0245 06       		.byte	0x6
 1003 0246 88       		.byte	0x88
ARM GAS  /tmp/cch27VDe.s 			page 22


 1004 0247 11       		.byte	0x11
 1005 0248 00030000 		.4byte	0x300
 1006 024c 03       		.byte	0x3
 1007 024d 23       		.byte	0x23
 1008 024e 8001     		.uleb128 0x80
 1009 0250 0B       		.uleb128 0xb
 1010 0251 04070000 		.4byte	.LASF70
 1011 0255 06       		.byte	0x6
 1012 0256 89       		.byte	0x89
 1013 0257 11       		.byte	0x11
 1014 0258 05030000 		.4byte	0x305
 1015 025c 03       		.byte	0x3
 1016 025d 23       		.byte	0x23
 1017 025e A001     		.uleb128 0xa0
 1018 0260 0B       		.uleb128 0xb
 1019 0261 A3000000 		.4byte	.LASF71
 1020 0265 06       		.byte	0x6
 1021 0266 8A       		.byte	0x8a
 1022 0267 11       		.byte	0x11
 1023 0268 00030000 		.4byte	0x300
 1024 026c 03       		.byte	0x3
 1025 026d 23       		.byte	0x23
 1026 026e 8002     		.uleb128 0x100
 1027 0270 0B       		.uleb128 0xb
 1028 0271 B2040000 		.4byte	.LASF72
 1029 0275 06       		.byte	0x6
 1030 0276 8B       		.byte	0x8b
 1031 0277 11       		.byte	0x11
 1032 0278 05030000 		.4byte	0x305
 1033 027c 03       		.byte	0x3
 1034 027d 23       		.byte	0x23
 1035 027e A002     		.uleb128 0x120
 1036 0280 0B       		.uleb128 0xb
 1037 0281 00000000 		.4byte	.LASF73
 1038 0285 06       		.byte	0x6
 1039 0286 8C       		.byte	0x8c
 1040 0287 11       		.byte	0x11
 1041 0288 00030000 		.4byte	0x300
 1042 028c 03       		.byte	0x3
 1043 028d 23       		.byte	0x23
 1044 028e 8003     		.uleb128 0x180
 1045 0290 0B       		.uleb128 0xb
 1046 0291 BC040000 		.4byte	.LASF74
 1047 0295 06       		.byte	0x6
 1048 0296 8D       		.byte	0x8d
 1049 0297 11       		.byte	0x11
 1050 0298 05030000 		.4byte	0x305
 1051 029c 03       		.byte	0x3
 1052 029d 23       		.byte	0x23
 1053 029e A003     		.uleb128 0x1a0
 1054 02a0 0B       		.uleb128 0xb
 1055 02a1 24040000 		.4byte	.LASF75
 1056 02a5 06       		.byte	0x6
 1057 02a6 8E       		.byte	0x8e
 1058 02a7 11       		.byte	0x11
 1059 02a8 00030000 		.4byte	0x300
 1060 02ac 03       		.byte	0x3
ARM GAS  /tmp/cch27VDe.s 			page 23


 1061 02ad 23       		.byte	0x23
 1062 02ae 8004     		.uleb128 0x200
 1063 02b0 0B       		.uleb128 0xb
 1064 02b1 C6040000 		.4byte	.LASF76
 1065 02b5 06       		.byte	0x6
 1066 02b6 8F       		.byte	0x8f
 1067 02b7 11       		.byte	0x11
 1068 02b8 15030000 		.4byte	0x315
 1069 02bc 03       		.byte	0x3
 1070 02bd 23       		.byte	0x23
 1071 02be A004     		.uleb128 0x220
 1072 02c0 0C       		.uleb128 0xc
 1073 02c1 495000   		.ascii	"IP\000"
 1074 02c4 06       		.byte	0x6
 1075 02c5 90       		.byte	0x90
 1076 02c6 11       		.byte	0x11
 1077 02c7 35030000 		.4byte	0x335
 1078 02cb 03       		.byte	0x3
 1079 02cc 23       		.byte	0x23
 1080 02cd 8006     		.uleb128 0x300
 1081 02cf 0B       		.uleb128 0xb
 1082 02d0 D0040000 		.4byte	.LASF77
 1083 02d4 06       		.byte	0x6
 1084 02d5 91       		.byte	0x91
 1085 02d6 11       		.byte	0x11
 1086 02d7 3A030000 		.4byte	0x33a
 1087 02db 03       		.byte	0x3
 1088 02dc 23       		.byte	0x23
 1089 02dd F007     		.uleb128 0x3f0
 1090 02df 0B       		.uleb128 0xb
 1091 02e0 0D070000 		.4byte	.LASF78
 1092 02e4 06       		.byte	0x6
 1093 02e5 92       		.byte	0x92
 1094 02e6 11       		.byte	0x11
 1095 02e7 13020000 		.4byte	0x213
 1096 02eb 03       		.byte	0x3
 1097 02ec 23       		.byte	0x23
 1098 02ed 801C     		.uleb128 0xe00
 1099 02ef 00       		.byte	0
 1100 02f0 0D       		.uleb128 0xd
 1101 02f1 13020000 		.4byte	0x213
 1102 02f5 00030000 		.4byte	0x300
 1103 02f9 0E       		.uleb128 0xe
 1104 02fa DE010000 		.4byte	0x1de
 1105 02fe 07       		.byte	0x7
 1106 02ff 00       		.byte	0
 1107 0300 09       		.uleb128 0x9
 1108 0301 F0020000 		.4byte	0x2f0
 1109 0305 0D       		.uleb128 0xd
 1110 0306 07020000 		.4byte	0x207
 1111 030a 15030000 		.4byte	0x315
 1112 030e 0E       		.uleb128 0xe
 1113 030f DE010000 		.4byte	0x1de
 1114 0313 17       		.byte	0x17
 1115 0314 00       		.byte	0
 1116 0315 0D       		.uleb128 0xd
 1117 0316 07020000 		.4byte	0x207
ARM GAS  /tmp/cch27VDe.s 			page 24


 1118 031a 25030000 		.4byte	0x325
 1119 031e 0E       		.uleb128 0xe
 1120 031f DE010000 		.4byte	0x1de
 1121 0323 37       		.byte	0x37
 1122 0324 00       		.byte	0
 1123 0325 0D       		.uleb128 0xd
 1124 0326 F1010000 		.4byte	0x1f1
 1125 032a 35030000 		.4byte	0x335
 1126 032e 0E       		.uleb128 0xe
 1127 032f DE010000 		.4byte	0x1de
 1128 0333 EF       		.byte	0xef
 1129 0334 00       		.byte	0
 1130 0335 09       		.uleb128 0x9
 1131 0336 25030000 		.4byte	0x325
 1132 033a 0D       		.uleb128 0xd
 1133 033b 07020000 		.4byte	0x207
 1134 033f 4B030000 		.4byte	0x34b
 1135 0343 0F       		.uleb128 0xf
 1136 0344 DE010000 		.4byte	0x1de
 1137 0348 8302     		.2byte	0x283
 1138 034a 00       		.byte	0
 1139 034b 07       		.uleb128 0x7
 1140 034c 5E050000 		.4byte	.LASF79
 1141 0350 06       		.byte	0x6
 1142 0351 93       		.byte	0x93
 1143 0352 04       		.byte	0x4
 1144 0353 18020000 		.4byte	0x218
 1145 0357 10       		.uleb128 0x10
 1146 0358 75333200 		.ascii	"u32\000"
 1147 035c 03       		.byte	0x3
 1148 035d F701     		.2byte	0x1f7
 1149 035f 13       		.byte	0x13
 1150 0360 07020000 		.4byte	0x207
 1151 0364 09       		.uleb128 0x9
 1152 0365 57030000 		.4byte	0x357
 1153 0369 11       		.uleb128 0x11
 1154 036a 50       		.byte	0x50
 1155 036b 03       		.byte	0x3
 1156 036c 1E02     		.2byte	0x21e
 1157 036e 09       		.byte	0x9
 1158 036f B2040000 		.4byte	0x4b2
 1159 0373 12       		.uleb128 0x12
 1160 0374 535200   		.ascii	"SR\000"
 1161 0377 03       		.byte	0x3
 1162 0378 2002     		.2byte	0x220
 1163 037a 11       		.byte	0x11
 1164 037b 13020000 		.4byte	0x213
 1165 037f 02       		.byte	0x2
 1166 0380 23       		.byte	0x23
 1167 0381 00       		.uleb128 0
 1168 0382 12       		.uleb128 0x12
 1169 0383 43523100 		.ascii	"CR1\000"
 1170 0387 03       		.byte	0x3
 1171 0388 2102     		.2byte	0x221
 1172 038a 11       		.byte	0x11
 1173 038b 13020000 		.4byte	0x213
 1174 038f 02       		.byte	0x2
ARM GAS  /tmp/cch27VDe.s 			page 25


 1175 0390 23       		.byte	0x23
 1176 0391 04       		.uleb128 0x4
 1177 0392 12       		.uleb128 0x12
 1178 0393 43523200 		.ascii	"CR2\000"
 1179 0397 03       		.byte	0x3
 1180 0398 2202     		.2byte	0x222
 1181 039a 11       		.byte	0x11
 1182 039b 13020000 		.4byte	0x213
 1183 039f 02       		.byte	0x2
 1184 03a0 23       		.byte	0x23
 1185 03a1 08       		.uleb128 0x8
 1186 03a2 13       		.uleb128 0x13
 1187 03a3 4A040000 		.4byte	.LASF80
 1188 03a7 03       		.byte	0x3
 1189 03a8 2302     		.2byte	0x223
 1190 03aa 11       		.byte	0x11
 1191 03ab 13020000 		.4byte	0x213
 1192 03af 02       		.byte	0x2
 1193 03b0 23       		.byte	0x23
 1194 03b1 0C       		.uleb128 0xc
 1195 03b2 13       		.uleb128 0x13
 1196 03b3 50040000 		.4byte	.LASF81
 1197 03b7 03       		.byte	0x3
 1198 03b8 2402     		.2byte	0x224
 1199 03ba 11       		.byte	0x11
 1200 03bb 13020000 		.4byte	0x213
 1201 03bf 02       		.byte	0x2
 1202 03c0 23       		.byte	0x23
 1203 03c1 10       		.uleb128 0x10
 1204 03c2 13       		.uleb128 0x13
 1205 03c3 95030000 		.4byte	.LASF82
 1206 03c7 03       		.byte	0x3
 1207 03c8 2502     		.2byte	0x225
 1208 03ca 11       		.byte	0x11
 1209 03cb 13020000 		.4byte	0x213
 1210 03cf 02       		.byte	0x2
 1211 03d0 23       		.byte	0x23
 1212 03d1 14       		.uleb128 0x14
 1213 03d2 13       		.uleb128 0x13
 1214 03d3 9B030000 		.4byte	.LASF83
 1215 03d7 03       		.byte	0x3
 1216 03d8 2602     		.2byte	0x226
 1217 03da 11       		.byte	0x11
 1218 03db 13020000 		.4byte	0x213
 1219 03df 02       		.byte	0x2
 1220 03e0 23       		.byte	0x23
 1221 03e1 18       		.uleb128 0x18
 1222 03e2 13       		.uleb128 0x13
 1223 03e3 A1030000 		.4byte	.LASF84
 1224 03e7 03       		.byte	0x3
 1225 03e8 2702     		.2byte	0x227
 1226 03ea 11       		.byte	0x11
 1227 03eb 13020000 		.4byte	0x213
 1228 03ef 02       		.byte	0x2
 1229 03f0 23       		.byte	0x23
 1230 03f1 1C       		.uleb128 0x1c
 1231 03f2 13       		.uleb128 0x13
ARM GAS  /tmp/cch27VDe.s 			page 26


 1232 03f3 A7030000 		.4byte	.LASF85
 1233 03f7 03       		.byte	0x3
 1234 03f8 2802     		.2byte	0x228
 1235 03fa 11       		.byte	0x11
 1236 03fb 13020000 		.4byte	0x213
 1237 03ff 02       		.byte	0x2
 1238 0400 23       		.byte	0x23
 1239 0401 20       		.uleb128 0x20
 1240 0402 12       		.uleb128 0x12
 1241 0403 48545200 		.ascii	"HTR\000"
 1242 0407 03       		.byte	0x3
 1243 0408 2902     		.2byte	0x229
 1244 040a 11       		.byte	0x11
 1245 040b 13020000 		.4byte	0x213
 1246 040f 02       		.byte	0x2
 1247 0410 23       		.byte	0x23
 1248 0411 24       		.uleb128 0x24
 1249 0412 12       		.uleb128 0x12
 1250 0413 4C545200 		.ascii	"LTR\000"
 1251 0417 03       		.byte	0x3
 1252 0418 2A02     		.2byte	0x22a
 1253 041a 11       		.byte	0x11
 1254 041b 13020000 		.4byte	0x213
 1255 041f 02       		.byte	0x2
 1256 0420 23       		.byte	0x23
 1257 0421 28       		.uleb128 0x28
 1258 0422 13       		.uleb128 0x13
 1259 0423 7C040000 		.4byte	.LASF86
 1260 0427 03       		.byte	0x3
 1261 0428 2B02     		.2byte	0x22b
 1262 042a 11       		.byte	0x11
 1263 042b 13020000 		.4byte	0x213
 1264 042f 02       		.byte	0x2
 1265 0430 23       		.byte	0x23
 1266 0431 2C       		.uleb128 0x2c
 1267 0432 13       		.uleb128 0x13
 1268 0433 81040000 		.4byte	.LASF87
 1269 0437 03       		.byte	0x3
 1270 0438 2C02     		.2byte	0x22c
 1271 043a 11       		.byte	0x11
 1272 043b 13020000 		.4byte	0x213
 1273 043f 02       		.byte	0x2
 1274 0440 23       		.byte	0x23
 1275 0441 30       		.uleb128 0x30
 1276 0442 13       		.uleb128 0x13
 1277 0443 86040000 		.4byte	.LASF88
 1278 0447 03       		.byte	0x3
 1279 0448 2D02     		.2byte	0x22d
 1280 044a 11       		.byte	0x11
 1281 044b 13020000 		.4byte	0x213
 1282 044f 02       		.byte	0x2
 1283 0450 23       		.byte	0x23
 1284 0451 34       		.uleb128 0x34
 1285 0452 13       		.uleb128 0x13
 1286 0453 A8000000 		.4byte	.LASF89
 1287 0457 03       		.byte	0x3
 1288 0458 2E02     		.2byte	0x22e
ARM GAS  /tmp/cch27VDe.s 			page 27


 1289 045a 11       		.byte	0x11
 1290 045b 13020000 		.4byte	0x213
 1291 045f 02       		.byte	0x2
 1292 0460 23       		.byte	0x23
 1293 0461 38       		.uleb128 0x38
 1294 0462 13       		.uleb128 0x13
 1295 0463 12070000 		.4byte	.LASF90
 1296 0467 03       		.byte	0x3
 1297 0468 2F02     		.2byte	0x22f
 1298 046a 11       		.byte	0x11
 1299 046b 13020000 		.4byte	0x213
 1300 046f 02       		.byte	0x2
 1301 0470 23       		.byte	0x23
 1302 0471 3C       		.uleb128 0x3c
 1303 0472 13       		.uleb128 0x13
 1304 0473 17070000 		.4byte	.LASF91
 1305 0477 03       		.byte	0x3
 1306 0478 3002     		.2byte	0x230
 1307 047a 11       		.byte	0x11
 1308 047b 13020000 		.4byte	0x213
 1309 047f 02       		.byte	0x2
 1310 0480 23       		.byte	0x23
 1311 0481 40       		.uleb128 0x40
 1312 0482 13       		.uleb128 0x13
 1313 0483 1C070000 		.4byte	.LASF92
 1314 0487 03       		.byte	0x3
 1315 0488 3102     		.2byte	0x231
 1316 048a 11       		.byte	0x11
 1317 048b 13020000 		.4byte	0x213
 1318 048f 02       		.byte	0x2
 1319 0490 23       		.byte	0x23
 1320 0491 44       		.uleb128 0x44
 1321 0492 13       		.uleb128 0x13
 1322 0493 21070000 		.4byte	.LASF93
 1323 0497 03       		.byte	0x3
 1324 0498 3202     		.2byte	0x232
 1325 049a 11       		.byte	0x11
 1326 049b 13020000 		.4byte	0x213
 1327 049f 02       		.byte	0x2
 1328 04a0 23       		.byte	0x23
 1329 04a1 48       		.uleb128 0x48
 1330 04a2 12       		.uleb128 0x12
 1331 04a3 445200   		.ascii	"DR\000"
 1332 04a6 03       		.byte	0x3
 1333 04a7 3302     		.2byte	0x233
 1334 04a9 11       		.byte	0x11
 1335 04aa 13020000 		.4byte	0x213
 1336 04ae 02       		.byte	0x2
 1337 04af 23       		.byte	0x23
 1338 04b0 4C       		.uleb128 0x4c
 1339 04b1 00       		.byte	0
 1340 04b2 06       		.uleb128 0x6
 1341 04b3 B4010000 		.4byte	.LASF94
 1342 04b7 03       		.byte	0x3
 1343 04b8 3402     		.2byte	0x234
 1344 04ba 03       		.byte	0x3
 1345 04bb 69030000 		.4byte	0x369
ARM GAS  /tmp/cch27VDe.s 			page 28


 1346 04bf 11       		.uleb128 0x11
 1347 04c0 24       		.byte	0x24
 1348 04c1 03       		.byte	0x3
 1349 04c2 8503     		.2byte	0x385
 1350 04c4 09       		.byte	0x9
 1351 04c5 57050000 		.4byte	0x557
 1352 04c9 12       		.uleb128 0x12
 1353 04ca 41435200 		.ascii	"ACR\000"
 1354 04ce 03       		.byte	0x3
 1355 04cf 8703     		.2byte	0x387
 1356 04d1 11       		.byte	0x11
 1357 04d2 13020000 		.4byte	0x213
 1358 04d6 02       		.byte	0x2
 1359 04d7 23       		.byte	0x23
 1360 04d8 00       		.uleb128 0
 1361 04d9 13       		.uleb128 0x13
 1362 04da 48020000 		.4byte	.LASF95
 1363 04de 03       		.byte	0x3
 1364 04df 8803     		.2byte	0x388
 1365 04e1 11       		.byte	0x11
 1366 04e2 13020000 		.4byte	0x213
 1367 04e6 02       		.byte	0x2
 1368 04e7 23       		.byte	0x23
 1369 04e8 04       		.uleb128 0x4
 1370 04e9 13       		.uleb128 0x13
 1371 04ea A3010000 		.4byte	.LASF96
 1372 04ee 03       		.byte	0x3
 1373 04ef 8903     		.2byte	0x389
 1374 04f1 11       		.byte	0x11
 1375 04f2 13020000 		.4byte	0x213
 1376 04f6 02       		.byte	0x2
 1377 04f7 23       		.byte	0x23
 1378 04f8 08       		.uleb128 0x8
 1379 04f9 12       		.uleb128 0x12
 1380 04fa 535200   		.ascii	"SR\000"
 1381 04fd 03       		.byte	0x3
 1382 04fe 8A03     		.2byte	0x38a
 1383 0500 11       		.byte	0x11
 1384 0501 13020000 		.4byte	0x213
 1385 0505 02       		.byte	0x2
 1386 0506 23       		.byte	0x23
 1387 0507 0C       		.uleb128 0xc
 1388 0508 12       		.uleb128 0x12
 1389 0509 435200   		.ascii	"CR\000"
 1390 050c 03       		.byte	0x3
 1391 050d 8B03     		.2byte	0x38b
 1392 050f 11       		.byte	0x11
 1393 0510 13020000 		.4byte	0x213
 1394 0514 02       		.byte	0x2
 1395 0515 23       		.byte	0x23
 1396 0516 10       		.uleb128 0x10
 1397 0517 12       		.uleb128 0x12
 1398 0518 415200   		.ascii	"AR\000"
 1399 051b 03       		.byte	0x3
 1400 051c 8C03     		.2byte	0x38c
 1401 051e 11       		.byte	0x11
 1402 051f 13020000 		.4byte	0x213
ARM GAS  /tmp/cch27VDe.s 			page 29


 1403 0523 02       		.byte	0x2
 1404 0524 23       		.byte	0x23
 1405 0525 14       		.uleb128 0x14
 1406 0526 13       		.uleb128 0x13
 1407 0527 68050000 		.4byte	.LASF97
 1408 052b 03       		.byte	0x3
 1409 052c 8D03     		.2byte	0x38d
 1410 052e 11       		.byte	0x11
 1411 052f 13020000 		.4byte	0x213
 1412 0533 02       		.byte	0x2
 1413 0534 23       		.byte	0x23
 1414 0535 18       		.uleb128 0x18
 1415 0536 12       		.uleb128 0x12
 1416 0537 4F425200 		.ascii	"OBR\000"
 1417 053b 03       		.byte	0x3
 1418 053c 8E03     		.2byte	0x38e
 1419 053e 11       		.byte	0x11
 1420 053f 13020000 		.4byte	0x213
 1421 0543 02       		.byte	0x2
 1422 0544 23       		.byte	0x23
 1423 0545 1C       		.uleb128 0x1c
 1424 0546 13       		.uleb128 0x13
 1425 0547 13060000 		.4byte	.LASF98
 1426 054b 03       		.byte	0x3
 1427 054c 8F03     		.2byte	0x38f
 1428 054e 11       		.byte	0x11
 1429 054f 13020000 		.4byte	0x213
 1430 0553 02       		.byte	0x2
 1431 0554 23       		.byte	0x23
 1432 0555 20       		.uleb128 0x20
 1433 0556 00       		.byte	0
 1434 0557 06       		.uleb128 0x6
 1435 0558 E3000000 		.4byte	.LASF99
 1436 055c 03       		.byte	0x3
 1437 055d 9803     		.2byte	0x398
 1438 055f 03       		.byte	0x3
 1439 0560 BF040000 		.4byte	0x4bf
 1440 0564 11       		.uleb128 0x11
 1441 0565 1C       		.byte	0x1c
 1442 0566 03       		.byte	0x3
 1443 0567 E903     		.2byte	0x3e9
 1444 0569 09       		.byte	0x9
 1445 056a DF050000 		.4byte	0x5df
 1446 056e 12       		.uleb128 0x12
 1447 056f 43524C00 		.ascii	"CRL\000"
 1448 0573 03       		.byte	0x3
 1449 0574 EB03     		.2byte	0x3eb
 1450 0576 11       		.byte	0x11
 1451 0577 13020000 		.4byte	0x213
 1452 057b 02       		.byte	0x2
 1453 057c 23       		.byte	0x23
 1454 057d 00       		.uleb128 0
 1455 057e 12       		.uleb128 0x12
 1456 057f 43524800 		.ascii	"CRH\000"
 1457 0583 03       		.byte	0x3
 1458 0584 EC03     		.2byte	0x3ec
 1459 0586 11       		.byte	0x11
ARM GAS  /tmp/cch27VDe.s 			page 30


 1460 0587 13020000 		.4byte	0x213
 1461 058b 02       		.byte	0x2
 1462 058c 23       		.byte	0x23
 1463 058d 04       		.uleb128 0x4
 1464 058e 12       		.uleb128 0x12
 1465 058f 49445200 		.ascii	"IDR\000"
 1466 0593 03       		.byte	0x3
 1467 0594 ED03     		.2byte	0x3ed
 1468 0596 11       		.byte	0x11
 1469 0597 13020000 		.4byte	0x213
 1470 059b 02       		.byte	0x2
 1471 059c 23       		.byte	0x23
 1472 059d 08       		.uleb128 0x8
 1473 059e 12       		.uleb128 0x12
 1474 059f 4F445200 		.ascii	"ODR\000"
 1475 05a3 03       		.byte	0x3
 1476 05a4 EE03     		.2byte	0x3ee
 1477 05a6 11       		.byte	0x11
 1478 05a7 13020000 		.4byte	0x213
 1479 05ab 02       		.byte	0x2
 1480 05ac 23       		.byte	0x23
 1481 05ad 0C       		.uleb128 0xc
 1482 05ae 13       		.uleb128 0x13
 1483 05af D3000000 		.4byte	.LASF100
 1484 05b3 03       		.byte	0x3
 1485 05b4 EF03     		.2byte	0x3ef
 1486 05b6 11       		.byte	0x11
 1487 05b7 13020000 		.4byte	0x213
 1488 05bb 02       		.byte	0x2
 1489 05bc 23       		.byte	0x23
 1490 05bd 10       		.uleb128 0x10
 1491 05be 12       		.uleb128 0x12
 1492 05bf 42525200 		.ascii	"BRR\000"
 1493 05c3 03       		.byte	0x3
 1494 05c4 F003     		.2byte	0x3f0
 1495 05c6 11       		.byte	0x11
 1496 05c7 13020000 		.4byte	0x213
 1497 05cb 02       		.byte	0x2
 1498 05cc 23       		.byte	0x23
 1499 05cd 14       		.uleb128 0x14
 1500 05ce 13       		.uleb128 0x13
 1501 05cf 05000000 		.4byte	.LASF101
 1502 05d3 03       		.byte	0x3
 1503 05d4 F103     		.2byte	0x3f1
 1504 05d6 11       		.byte	0x11
 1505 05d7 13020000 		.4byte	0x213
 1506 05db 02       		.byte	0x2
 1507 05dc 23       		.byte	0x23
 1508 05dd 18       		.uleb128 0x18
 1509 05de 00       		.byte	0
 1510 05df 06       		.uleb128 0x6
 1511 05e0 87020000 		.4byte	.LASF102
 1512 05e4 03       		.byte	0x3
 1513 05e5 F203     		.2byte	0x3f2
 1514 05e7 03       		.byte	0x3
 1515 05e8 64050000 		.4byte	0x564
 1516 05ec 11       		.uleb128 0x11
ARM GAS  /tmp/cch27VDe.s 			page 31


 1517 05ed 30       		.byte	0x30
 1518 05ee 03       		.byte	0x3
 1519 05ef 3404     		.2byte	0x434
 1520 05f1 09       		.byte	0x9
 1521 05f2 B6060000 		.4byte	0x6b6
 1522 05f6 12       		.uleb128 0x12
 1523 05f7 435200   		.ascii	"CR\000"
 1524 05fa 03       		.byte	0x3
 1525 05fb 3604     		.2byte	0x436
 1526 05fd 11       		.byte	0x11
 1527 05fe 13020000 		.4byte	0x213
 1528 0602 02       		.byte	0x2
 1529 0603 23       		.byte	0x23
 1530 0604 00       		.uleb128 0
 1531 0605 13       		.uleb128 0x13
 1532 0606 39070000 		.4byte	.LASF103
 1533 060a 03       		.byte	0x3
 1534 060b 3704     		.2byte	0x437
 1535 060d 11       		.byte	0x11
 1536 060e 13020000 		.4byte	0x213
 1537 0612 02       		.byte	0x2
 1538 0613 23       		.byte	0x23
 1539 0614 04       		.uleb128 0x4
 1540 0615 12       		.uleb128 0x12
 1541 0616 43495200 		.ascii	"CIR\000"
 1542 061a 03       		.byte	0x3
 1543 061b 3804     		.2byte	0x438
 1544 061d 11       		.byte	0x11
 1545 061e 13020000 		.4byte	0x213
 1546 0622 02       		.byte	0x2
 1547 0623 23       		.byte	0x23
 1548 0624 08       		.uleb128 0x8
 1549 0625 13       		.uleb128 0x13
 1550 0626 88010000 		.4byte	.LASF104
 1551 062a 03       		.byte	0x3
 1552 062b 3904     		.2byte	0x439
 1553 062d 11       		.byte	0x11
 1554 062e 13020000 		.4byte	0x213
 1555 0632 02       		.byte	0x2
 1556 0633 23       		.byte	0x23
 1557 0634 0C       		.uleb128 0xc
 1558 0635 13       		.uleb128 0x13
 1559 0636 08010000 		.4byte	.LASF105
 1560 063a 03       		.byte	0x3
 1561 063b 3A04     		.2byte	0x43a
 1562 063d 11       		.byte	0x11
 1563 063e 13020000 		.4byte	0x213
 1564 0642 02       		.byte	0x2
 1565 0643 23       		.byte	0x23
 1566 0644 10       		.uleb128 0x10
 1567 0645 13       		.uleb128 0x13
 1568 0646 D6020000 		.4byte	.LASF106
 1569 064a 03       		.byte	0x3
 1570 064b 3B04     		.2byte	0x43b
 1571 064d 11       		.byte	0x11
 1572 064e 13020000 		.4byte	0x213
 1573 0652 02       		.byte	0x2
ARM GAS  /tmp/cch27VDe.s 			page 32


 1574 0653 23       		.byte	0x23
 1575 0654 14       		.uleb128 0x14
 1576 0655 13       		.uleb128 0x13
 1577 0656 A9050000 		.4byte	.LASF107
 1578 065a 03       		.byte	0x3
 1579 065b 3C04     		.2byte	0x43c
 1580 065d 11       		.byte	0x11
 1581 065e 13020000 		.4byte	0x213
 1582 0662 02       		.byte	0x2
 1583 0663 23       		.byte	0x23
 1584 0664 18       		.uleb128 0x18
 1585 0665 13       		.uleb128 0x13
 1586 0666 78060000 		.4byte	.LASF108
 1587 066a 03       		.byte	0x3
 1588 066b 3D04     		.2byte	0x43d
 1589 066d 11       		.byte	0x11
 1590 066e 13020000 		.4byte	0x213
 1591 0672 02       		.byte	0x2
 1592 0673 23       		.byte	0x23
 1593 0674 1C       		.uleb128 0x1c
 1594 0675 13       		.uleb128 0x13
 1595 0676 E6060000 		.4byte	.LASF109
 1596 067a 03       		.byte	0x3
 1597 067b 3E04     		.2byte	0x43e
 1598 067d 11       		.byte	0x11
 1599 067e 13020000 		.4byte	0x213
 1600 0682 02       		.byte	0x2
 1601 0683 23       		.byte	0x23
 1602 0684 20       		.uleb128 0x20
 1603 0685 12       		.uleb128 0x12
 1604 0686 43535200 		.ascii	"CSR\000"
 1605 068a 03       		.byte	0x3
 1606 068b 3F04     		.2byte	0x43f
 1607 068d 11       		.byte	0x11
 1608 068e 13020000 		.4byte	0x213
 1609 0692 02       		.byte	0x2
 1610 0693 23       		.byte	0x23
 1611 0694 24       		.uleb128 0x24
 1612 0695 13       		.uleb128 0x13
 1613 0696 5B040000 		.4byte	.LASF110
 1614 069a 03       		.byte	0x3
 1615 069b 4004     		.2byte	0x440
 1616 069d 11       		.byte	0x11
 1617 069e 13020000 		.4byte	0x213
 1618 06a2 02       		.byte	0x2
 1619 06a3 23       		.byte	0x23
 1620 06a4 28       		.uleb128 0x28
 1621 06a5 13       		.uleb128 0x13
 1622 06a6 F6060000 		.4byte	.LASF111
 1623 06aa 03       		.byte	0x3
 1624 06ab 4104     		.2byte	0x441
 1625 06ad 11       		.byte	0x11
 1626 06ae 13020000 		.4byte	0x213
 1627 06b2 02       		.byte	0x2
 1628 06b3 23       		.byte	0x23
 1629 06b4 2C       		.uleb128 0x2c
 1630 06b5 00       		.byte	0
ARM GAS  /tmp/cch27VDe.s 			page 33


 1631 06b6 06       		.uleb128 0x6
 1632 06b7 94020000 		.4byte	.LASF112
 1633 06bb 03       		.byte	0x3
 1634 06bc 4204     		.2byte	0x442
 1635 06be 03       		.byte	0x3
 1636 06bf EC050000 		.4byte	0x5ec
 1637 06c3 11       		.uleb128 0x11
 1638 06c4 50       		.byte	0x50
 1639 06c5 03       		.byte	0x3
 1640 06c6 9A04     		.2byte	0x49a
 1641 06c8 09       		.byte	0x9
 1642 06c9 4D090000 		.4byte	0x94d
 1643 06cd 12       		.uleb128 0x12
 1644 06ce 43523100 		.ascii	"CR1\000"
 1645 06d2 03       		.byte	0x3
 1646 06d3 9C04     		.2byte	0x49c
 1647 06d5 11       		.byte	0x11
 1648 06d6 02020000 		.4byte	0x202
 1649 06da 02       		.byte	0x2
 1650 06db 23       		.byte	0x23
 1651 06dc 00       		.uleb128 0
 1652 06dd 13       		.uleb128 0x13
 1653 06de 9E040000 		.4byte	.LASF68
 1654 06e2 03       		.byte	0x3
 1655 06e3 9D04     		.2byte	0x49d
 1656 06e5 0D       		.byte	0xd
 1657 06e6 F6010000 		.4byte	0x1f6
 1658 06ea 02       		.byte	0x2
 1659 06eb 23       		.byte	0x23
 1660 06ec 02       		.uleb128 0x2
 1661 06ed 12       		.uleb128 0x12
 1662 06ee 43523200 		.ascii	"CR2\000"
 1663 06f2 03       		.byte	0x3
 1664 06f3 9E04     		.2byte	0x49e
 1665 06f5 11       		.byte	0x11
 1666 06f6 02020000 		.4byte	0x202
 1667 06fa 02       		.byte	0x2
 1668 06fb 23       		.byte	0x23
 1669 06fc 04       		.uleb128 0x4
 1670 06fd 13       		.uleb128 0x13
 1671 06fe A8040000 		.4byte	.LASF113
 1672 0702 03       		.byte	0x3
 1673 0703 9F04     		.2byte	0x49f
 1674 0705 0D       		.byte	0xd
 1675 0706 F6010000 		.4byte	0x1f6
 1676 070a 02       		.byte	0x2
 1677 070b 23       		.byte	0x23
 1678 070c 06       		.uleb128 0x6
 1679 070d 13       		.uleb128 0x13
 1680 070e C5020000 		.4byte	.LASF114
 1681 0712 03       		.byte	0x3
 1682 0713 A004     		.2byte	0x4a0
 1683 0715 11       		.byte	0x11
 1684 0716 02020000 		.4byte	0x202
 1685 071a 02       		.byte	0x2
 1686 071b 23       		.byte	0x23
 1687 071c 08       		.uleb128 0x8
ARM GAS  /tmp/cch27VDe.s 			page 34


 1688 071d 13       		.uleb128 0x13
 1689 071e B2040000 		.4byte	.LASF72
 1690 0722 03       		.byte	0x3
 1691 0723 A104     		.2byte	0x4a1
 1692 0725 0D       		.byte	0xd
 1693 0726 F6010000 		.4byte	0x1f6
 1694 072a 02       		.byte	0x2
 1695 072b 23       		.byte	0x23
 1696 072c 0A       		.uleb128 0xa
 1697 072d 13       		.uleb128 0x13
 1698 072e 13000000 		.4byte	.LASF115
 1699 0732 03       		.byte	0x3
 1700 0733 A204     		.2byte	0x4a2
 1701 0735 11       		.byte	0x11
 1702 0736 02020000 		.4byte	0x202
 1703 073a 02       		.byte	0x2
 1704 073b 23       		.byte	0x23
 1705 073c 0C       		.uleb128 0xc
 1706 073d 13       		.uleb128 0x13
 1707 073e BC040000 		.4byte	.LASF74
 1708 0742 03       		.byte	0x3
 1709 0743 A304     		.2byte	0x4a3
 1710 0745 0D       		.byte	0xd
 1711 0746 F6010000 		.4byte	0x1f6
 1712 074a 02       		.byte	0x2
 1713 074b 23       		.byte	0x23
 1714 074c 0E       		.uleb128 0xe
 1715 074d 12       		.uleb128 0x12
 1716 074e 535200   		.ascii	"SR\000"
 1717 0751 03       		.byte	0x3
 1718 0752 A404     		.2byte	0x4a4
 1719 0754 11       		.byte	0x11
 1720 0755 02020000 		.4byte	0x202
 1721 0759 02       		.byte	0x2
 1722 075a 23       		.byte	0x23
 1723 075b 10       		.uleb128 0x10
 1724 075c 13       		.uleb128 0x13
 1725 075d C6040000 		.4byte	.LASF76
 1726 0761 03       		.byte	0x3
 1727 0762 A504     		.2byte	0x4a5
 1728 0764 0D       		.byte	0xd
 1729 0765 F6010000 		.4byte	0x1f6
 1730 0769 02       		.byte	0x2
 1731 076a 23       		.byte	0x23
 1732 076b 12       		.uleb128 0x12
 1733 076c 12       		.uleb128 0x12
 1734 076d 45475200 		.ascii	"EGR\000"
 1735 0771 03       		.byte	0x3
 1736 0772 A604     		.2byte	0x4a6
 1737 0774 11       		.byte	0x11
 1738 0775 02020000 		.4byte	0x202
 1739 0779 02       		.byte	0x2
 1740 077a 23       		.byte	0x23
 1741 077b 14       		.uleb128 0x14
 1742 077c 13       		.uleb128 0x13
 1743 077d D0040000 		.4byte	.LASF77
 1744 0781 03       		.byte	0x3
ARM GAS  /tmp/cch27VDe.s 			page 35


 1745 0782 A704     		.2byte	0x4a7
 1746 0784 0D       		.byte	0xd
 1747 0785 F6010000 		.4byte	0x1f6
 1748 0789 02       		.byte	0x2
 1749 078a 23       		.byte	0x23
 1750 078b 16       		.uleb128 0x16
 1751 078c 13       		.uleb128 0x13
 1752 078d AD000000 		.4byte	.LASF116
 1753 0791 03       		.byte	0x3
 1754 0792 A804     		.2byte	0x4a8
 1755 0794 11       		.byte	0x11
 1756 0795 02020000 		.4byte	0x202
 1757 0799 02       		.byte	0x2
 1758 079a 23       		.byte	0x23
 1759 079b 18       		.uleb128 0x18
 1760 079c 13       		.uleb128 0x13
 1761 079d DA040000 		.4byte	.LASF117
 1762 07a1 03       		.byte	0x3
 1763 07a2 A904     		.2byte	0x4a9
 1764 07a4 0D       		.byte	0xd
 1765 07a5 F6010000 		.4byte	0x1f6
 1766 07a9 02       		.byte	0x2
 1767 07aa 23       		.byte	0x23
 1768 07ab 1A       		.uleb128 0x1a
 1769 07ac 13       		.uleb128 0x13
 1770 07ad B3000000 		.4byte	.LASF118
 1771 07b1 03       		.byte	0x3
 1772 07b2 AA04     		.2byte	0x4aa
 1773 07b4 11       		.byte	0x11
 1774 07b5 02020000 		.4byte	0x202
 1775 07b9 02       		.byte	0x2
 1776 07ba 23       		.byte	0x23
 1777 07bb 1C       		.uleb128 0x1c
 1778 07bc 13       		.uleb128 0x13
 1779 07bd E1050000 		.4byte	.LASF119
 1780 07c1 03       		.byte	0x3
 1781 07c2 AB04     		.2byte	0x4ab
 1782 07c4 0D       		.byte	0xd
 1783 07c5 F6010000 		.4byte	0x1f6
 1784 07c9 02       		.byte	0x2
 1785 07ca 23       		.byte	0x23
 1786 07cb 1E       		.uleb128 0x1e
 1787 07cc 13       		.uleb128 0x13
 1788 07cd 9E010000 		.4byte	.LASF120
 1789 07d1 03       		.byte	0x3
 1790 07d2 AC04     		.2byte	0x4ac
 1791 07d4 11       		.byte	0x11
 1792 07d5 02020000 		.4byte	0x202
 1793 07d9 02       		.byte	0x2
 1794 07da 23       		.byte	0x23
 1795 07db 20       		.uleb128 0x20
 1796 07dc 13       		.uleb128 0x13
 1797 07dd E4040000 		.4byte	.LASF121
 1798 07e1 03       		.byte	0x3
 1799 07e2 AD04     		.2byte	0x4ad
 1800 07e4 0D       		.byte	0xd
 1801 07e5 F6010000 		.4byte	0x1f6
ARM GAS  /tmp/cch27VDe.s 			page 36


 1802 07e9 02       		.byte	0x2
 1803 07ea 23       		.byte	0x23
 1804 07eb 22       		.uleb128 0x22
 1805 07ec 12       		.uleb128 0x12
 1806 07ed 434E5400 		.ascii	"CNT\000"
 1807 07f1 03       		.byte	0x3
 1808 07f2 AE04     		.2byte	0x4ae
 1809 07f4 11       		.byte	0x11
 1810 07f5 02020000 		.4byte	0x202
 1811 07f9 02       		.byte	0x2
 1812 07fa 23       		.byte	0x23
 1813 07fb 24       		.uleb128 0x24
 1814 07fc 13       		.uleb128 0x13
 1815 07fd EE040000 		.4byte	.LASF122
 1816 0801 03       		.byte	0x3
 1817 0802 AF04     		.2byte	0x4af
 1818 0804 0D       		.byte	0xd
 1819 0805 F6010000 		.4byte	0x1f6
 1820 0809 02       		.byte	0x2
 1821 080a 23       		.byte	0x23
 1822 080b 26       		.uleb128 0x26
 1823 080c 12       		.uleb128 0x12
 1824 080d 50534300 		.ascii	"PSC\000"
 1825 0811 03       		.byte	0x3
 1826 0812 B004     		.2byte	0x4b0
 1827 0814 11       		.byte	0x11
 1828 0815 02020000 		.4byte	0x202
 1829 0819 02       		.byte	0x2
 1830 081a 23       		.byte	0x23
 1831 081b 28       		.uleb128 0x28
 1832 081c 13       		.uleb128 0x13
 1833 081d 11010000 		.4byte	.LASF123
 1834 0821 03       		.byte	0x3
 1835 0822 B104     		.2byte	0x4b1
 1836 0824 0D       		.byte	0xd
 1837 0825 F6010000 		.4byte	0x1f6
 1838 0829 02       		.byte	0x2
 1839 082a 23       		.byte	0x23
 1840 082b 2A       		.uleb128 0x2a
 1841 082c 12       		.uleb128 0x12
 1842 082d 41525200 		.ascii	"ARR\000"
 1843 0831 03       		.byte	0x3
 1844 0832 B204     		.2byte	0x4b2
 1845 0834 11       		.byte	0x11
 1846 0835 02020000 		.4byte	0x202
 1847 0839 02       		.byte	0x2
 1848 083a 23       		.byte	0x23
 1849 083b 2C       		.uleb128 0x2c
 1850 083c 13       		.uleb128 0x13
 1851 083d 1C010000 		.4byte	.LASF124
 1852 0841 03       		.byte	0x3
 1853 0842 B304     		.2byte	0x4b3
 1854 0844 0D       		.byte	0xd
 1855 0845 F6010000 		.4byte	0x1f6
 1856 0849 02       		.byte	0x2
 1857 084a 23       		.byte	0x23
 1858 084b 2E       		.uleb128 0x2e
ARM GAS  /tmp/cch27VDe.s 			page 37


 1859 084c 12       		.uleb128 0x12
 1860 084d 52435200 		.ascii	"RCR\000"
 1861 0851 03       		.byte	0x3
 1862 0852 B404     		.2byte	0x4b4
 1863 0854 11       		.byte	0x11
 1864 0855 02020000 		.4byte	0x202
 1865 0859 02       		.byte	0x2
 1866 085a 23       		.byte	0x23
 1867 085b 30       		.uleb128 0x30
 1868 085c 13       		.uleb128 0x13
 1869 085d 27010000 		.4byte	.LASF125
 1870 0861 03       		.byte	0x3
 1871 0862 B504     		.2byte	0x4b5
 1872 0864 0D       		.byte	0xd
 1873 0865 F6010000 		.4byte	0x1f6
 1874 0869 02       		.byte	0x2
 1875 086a 23       		.byte	0x23
 1876 086b 32       		.uleb128 0x32
 1877 086c 13       		.uleb128 0x13
 1878 086d C6060000 		.4byte	.LASF126
 1879 0871 03       		.byte	0x3
 1880 0872 B604     		.2byte	0x4b6
 1881 0874 11       		.byte	0x11
 1882 0875 02020000 		.4byte	0x202
 1883 0879 02       		.byte	0x2
 1884 087a 23       		.byte	0x23
 1885 087b 34       		.uleb128 0x34
 1886 087c 13       		.uleb128 0x13
 1887 087d 32010000 		.4byte	.LASF127
 1888 0881 03       		.byte	0x3
 1889 0882 B704     		.2byte	0x4b7
 1890 0884 0D       		.byte	0xd
 1891 0885 F6010000 		.4byte	0x1f6
 1892 0889 02       		.byte	0x2
 1893 088a 23       		.byte	0x23
 1894 088b 36       		.uleb128 0x36
 1895 088c 13       		.uleb128 0x13
 1896 088d 64000000 		.4byte	.LASF128
 1897 0891 03       		.byte	0x3
 1898 0892 B804     		.2byte	0x4b8
 1899 0894 11       		.byte	0x11
 1900 0895 02020000 		.4byte	0x202
 1901 0899 02       		.byte	0x2
 1902 089a 23       		.byte	0x23
 1903 089b 38       		.uleb128 0x38
 1904 089c 13       		.uleb128 0x13
 1905 089d 3D010000 		.4byte	.LASF129
 1906 08a1 03       		.byte	0x3
 1907 08a2 B904     		.2byte	0x4b9
 1908 08a4 0D       		.byte	0xd
 1909 08a5 F6010000 		.4byte	0x1f6
 1910 08a9 02       		.byte	0x2
 1911 08aa 23       		.byte	0x23
 1912 08ab 3A       		.uleb128 0x3a
 1913 08ac 13       		.uleb128 0x13
 1914 08ad D5060000 		.4byte	.LASF130
 1915 08b1 03       		.byte	0x3
ARM GAS  /tmp/cch27VDe.s 			page 38


 1916 08b2 BA04     		.2byte	0x4ba
 1917 08b4 11       		.byte	0x11
 1918 08b5 02020000 		.4byte	0x202
 1919 08b9 02       		.byte	0x2
 1920 08ba 23       		.byte	0x23
 1921 08bb 3C       		.uleb128 0x3c
 1922 08bc 13       		.uleb128 0x13
 1923 08bd 48010000 		.4byte	.LASF131
 1924 08c1 03       		.byte	0x3
 1925 08c2 BB04     		.2byte	0x4bb
 1926 08c4 0D       		.byte	0xd
 1927 08c5 F6010000 		.4byte	0x1f6
 1928 08c9 02       		.byte	0x2
 1929 08ca 23       		.byte	0x23
 1930 08cb 3E       		.uleb128 0x3e
 1931 08cc 13       		.uleb128 0x13
 1932 08cd DA060000 		.4byte	.LASF132
 1933 08d1 03       		.byte	0x3
 1934 08d2 BC04     		.2byte	0x4bc
 1935 08d4 11       		.byte	0x11
 1936 08d5 02020000 		.4byte	0x202
 1937 08d9 02       		.byte	0x2
 1938 08da 23       		.byte	0x23
 1939 08db 40       		.uleb128 0x40
 1940 08dc 13       		.uleb128 0x13
 1941 08dd 53010000 		.4byte	.LASF133
 1942 08e1 03       		.byte	0x3
 1943 08e2 BD04     		.2byte	0x4bd
 1944 08e4 0D       		.byte	0xd
 1945 08e5 F6010000 		.4byte	0x1f6
 1946 08e9 02       		.byte	0x2
 1947 08ea 23       		.byte	0x23
 1948 08eb 42       		.uleb128 0x42
 1949 08ec 13       		.uleb128 0x13
 1950 08ed 4D020000 		.4byte	.LASF134
 1951 08f1 03       		.byte	0x3
 1952 08f2 BE04     		.2byte	0x4be
 1953 08f4 11       		.byte	0x11
 1954 08f5 02020000 		.4byte	0x202
 1955 08f9 02       		.byte	0x2
 1956 08fa 23       		.byte	0x23
 1957 08fb 44       		.uleb128 0x44
 1958 08fc 13       		.uleb128 0x13
 1959 08fd 5E010000 		.4byte	.LASF135
 1960 0901 03       		.byte	0x3
 1961 0902 BF04     		.2byte	0x4bf
 1962 0904 0D       		.byte	0xd
 1963 0905 F6010000 		.4byte	0x1f6
 1964 0909 02       		.byte	0x2
 1965 090a 23       		.byte	0x23
 1966 090b 46       		.uleb128 0x46
 1967 090c 12       		.uleb128 0x12
 1968 090d 44435200 		.ascii	"DCR\000"
 1969 0911 03       		.byte	0x3
 1970 0912 C004     		.2byte	0x4c0
 1971 0914 11       		.byte	0x11
 1972 0915 02020000 		.4byte	0x202
ARM GAS  /tmp/cch27VDe.s 			page 39


 1973 0919 02       		.byte	0x2
 1974 091a 23       		.byte	0x23
 1975 091b 48       		.uleb128 0x48
 1976 091c 13       		.uleb128 0x13
 1977 091d 69010000 		.4byte	.LASF136
 1978 0921 03       		.byte	0x3
 1979 0922 C104     		.2byte	0x4c1
 1980 0924 0D       		.byte	0xd
 1981 0925 F6010000 		.4byte	0x1f6
 1982 0929 02       		.byte	0x2
 1983 092a 23       		.byte	0x23
 1984 092b 4A       		.uleb128 0x4a
 1985 092c 13       		.uleb128 0x13
 1986 092d 3E060000 		.4byte	.LASF137
 1987 0931 03       		.byte	0x3
 1988 0932 C204     		.2byte	0x4c2
 1989 0934 11       		.byte	0x11
 1990 0935 02020000 		.4byte	0x202
 1991 0939 02       		.byte	0x2
 1992 093a 23       		.byte	0x23
 1993 093b 4C       		.uleb128 0x4c
 1994 093c 13       		.uleb128 0x13
 1995 093d 74010000 		.4byte	.LASF138
 1996 0941 03       		.byte	0x3
 1997 0942 C304     		.2byte	0x4c3
 1998 0944 0D       		.byte	0xd
 1999 0945 F6010000 		.4byte	0x1f6
 2000 0949 02       		.byte	0x2
 2001 094a 23       		.byte	0x23
 2002 094b 4E       		.uleb128 0x4e
 2003 094c 00       		.byte	0
 2004 094d 06       		.uleb128 0x6
 2005 094e 41000000 		.4byte	.LASF139
 2006 0952 03       		.byte	0x3
 2007 0953 C404     		.2byte	0x4c4
 2008 0955 03       		.byte	0x3
 2009 0956 C3060000 		.4byte	0x6c3
 2010 095a 05       		.uleb128 0x5
 2011 095b 08       		.byte	0x8
 2012 095c 04       		.byte	0x4
 2013 095d 07060000 		.4byte	.LASF140
 2014 0961 14       		.uleb128 0x14
 2015 0962 04       		.byte	0x4
 2016 0963 05       		.uleb128 0x5
 2017 0964 01       		.byte	0x1
 2018 0965 08       		.byte	0x8
 2019 0966 2B060000 		.4byte	.LASF141
 2020 096a 07       		.uleb128 0x7
 2021 096b 80000000 		.4byte	.LASF142
 2022 096f 07       		.byte	0x7
 2023 0970 30       		.byte	0x30
 2024 0971 22       		.byte	0x22
 2025 0972 76090000 		.4byte	0x976
 2026 0976 15       		.uleb128 0x15
 2027 0977 04       		.byte	0x4
 2028 0978 7C090000 		.4byte	0x97c
 2029 097c 16       		.uleb128 0x16
ARM GAS  /tmp/cch27VDe.s 			page 40


 2030 097d F8040000 		.4byte	.LASF159
 2031 0981 01       		.byte	0x1
 2032 0982 17       		.uleb128 0x17
 2033 0983 DF060000 		.4byte	.LASF160
 2034 0987 01       		.byte	0x1
 2035 0988 0E       		.byte	0xe
 2036 0989 16       		.byte	0x16
 2037 098a 6A090000 		.4byte	0x96a
 2038 098e 18       		.uleb128 0x18
 2039 098f 01       		.byte	0x1
 2040 0990 50070000 		.4byte	.LASF161
 2041 0994 01       		.byte	0x1
 2042 0995 20       		.byte	0x20
 2043 0996 05       		.byte	0x5
 2044 0997 01       		.byte	0x1
 2045 0998 D7010000 		.4byte	0x1d7
 2046 099c 00000000 		.4byte	.LFB43
 2047 09a0 64000000 		.4byte	.LFE43
 2048 09a4 00000000 		.4byte	.LLST6
 2049 09a8 01       		.byte	0x1
 2050 09a9 8D0A0000 		.4byte	0xa8d
 2051 09ad 19       		.uleb128 0x19
 2052 09ae 10000000 		.4byte	.LVL8
 2053 09b2 DE0B0000 		.4byte	0xbde
 2054 09b6 CC090000 		.4byte	0x9cc
 2055 09ba 1A       		.uleb128 0x1a
 2056 09bb 01       		.byte	0x1
 2057 09bc 50       		.byte	0x50
 2058 09bd 01       		.byte	0x1
 2059 09be 35       		.byte	0x35
 2060 09bf 1A       		.uleb128 0x1a
 2061 09c0 01       		.byte	0x1
 2062 09c1 51       		.byte	0x51
 2063 09c2 02       		.byte	0x2
 2064 09c3 75       		.byte	0x75
 2065 09c4 00       		.sleb128 0
 2066 09c5 1A       		.uleb128 0x1a
 2067 09c6 01       		.byte	0x1
 2068 09c7 52       		.byte	0x52
 2069 09c8 02       		.byte	0x2
 2070 09c9 74       		.byte	0x74
 2071 09ca 00       		.sleb128 0
 2072 09cb 00       		.byte	0
 2073 09cc 1B       		.uleb128 0x1b
 2074 09cd 14000000 		.4byte	.LVL9
 2075 09d1 B30B0000 		.4byte	0xbb3
 2076 09d5 19       		.uleb128 0x19
 2077 09d6 24000000 		.4byte	.LVL10
 2078 09da ED0B0000 		.4byte	0xbed
 2079 09de 0F0A0000 		.4byte	0xa0f
 2080 09e2 1A       		.uleb128 0x1a
 2081 09e3 01       		.byte	0x1
 2082 09e4 50       		.byte	0x50
 2083 09e5 05       		.byte	0x5
 2084 09e6 03       		.byte	0x3
 2085 09e7 00000000 		.4byte	task1
 2086 09eb 1A       		.uleb128 0x1a
ARM GAS  /tmp/cch27VDe.s 			page 41


 2087 09ec 01       		.byte	0x1
 2088 09ed 51       		.byte	0x51
 2089 09ee 05       		.byte	0x5
 2090 09ef 03       		.byte	0x3
 2091 09f0 00000000 		.4byte	.LC0
 2092 09f4 1A       		.uleb128 0x1a
 2093 09f5 01       		.byte	0x1
 2094 09f6 52       		.byte	0x52
 2095 09f7 02       		.byte	0x2
 2096 09f8 08       		.byte	0x8
 2097 09f9 64       		.byte	0x64
 2098 09fa 1A       		.uleb128 0x1a
 2099 09fb 01       		.byte	0x1
 2100 09fc 53       		.byte	0x53
 2101 09fd 02       		.byte	0x2
 2102 09fe 74       		.byte	0x74
 2103 09ff 00       		.sleb128 0
 2104 0a00 1A       		.uleb128 0x1a
 2105 0a01 02       		.byte	0x2
 2106 0a02 7D       		.byte	0x7d
 2107 0a03 00       		.sleb128 0
 2108 0a04 02       		.byte	0x2
 2109 0a05 75       		.byte	0x75
 2110 0a06 00       		.sleb128 0
 2111 0a07 1A       		.uleb128 0x1a
 2112 0a08 02       		.byte	0x2
 2113 0a09 7D       		.byte	0x7d
 2114 0a0a 04       		.sleb128 4
 2115 0a0b 02       		.byte	0x2
 2116 0a0c 74       		.byte	0x74
 2117 0a0d 00       		.sleb128 0
 2118 0a0e 00       		.byte	0
 2119 0a0f 19       		.uleb128 0x19
 2120 0a10 34000000 		.4byte	.LVL11
 2121 0a14 ED0B0000 		.4byte	0xbed
 2122 0a18 490A0000 		.4byte	0xa49
 2123 0a1c 1A       		.uleb128 0x1a
 2124 0a1d 01       		.byte	0x1
 2125 0a1e 50       		.byte	0x50
 2126 0a1f 05       		.byte	0x5
 2127 0a20 03       		.byte	0x3
 2128 0a21 00000000 		.4byte	task2
 2129 0a25 1A       		.uleb128 0x1a
 2130 0a26 01       		.byte	0x1
 2131 0a27 51       		.byte	0x51
 2132 0a28 05       		.byte	0x5
 2133 0a29 03       		.byte	0x3
 2134 0a2a 0C000000 		.4byte	.LC1
 2135 0a2e 1A       		.uleb128 0x1a
 2136 0a2f 01       		.byte	0x1
 2137 0a30 52       		.byte	0x52
 2138 0a31 02       		.byte	0x2
 2139 0a32 08       		.byte	0x8
 2140 0a33 C8       		.byte	0xc8
 2141 0a34 1A       		.uleb128 0x1a
 2142 0a35 01       		.byte	0x1
 2143 0a36 53       		.byte	0x53
ARM GAS  /tmp/cch27VDe.s 			page 42


 2144 0a37 02       		.byte	0x2
 2145 0a38 74       		.byte	0x74
 2146 0a39 00       		.sleb128 0
 2147 0a3a 1A       		.uleb128 0x1a
 2148 0a3b 02       		.byte	0x2
 2149 0a3c 7D       		.byte	0x7d
 2150 0a3d 00       		.sleb128 0
 2151 0a3e 02       		.byte	0x2
 2152 0a3f 75       		.byte	0x75
 2153 0a40 00       		.sleb128 0
 2154 0a41 1A       		.uleb128 0x1a
 2155 0a42 02       		.byte	0x2
 2156 0a43 7D       		.byte	0x7d
 2157 0a44 04       		.sleb128 4
 2158 0a45 02       		.byte	0x2
 2159 0a46 74       		.byte	0x74
 2160 0a47 00       		.sleb128 0
 2161 0a48 00       		.byte	0
 2162 0a49 19       		.uleb128 0x19
 2163 0a4a 44000000 		.4byte	.LVL12
 2164 0a4e ED0B0000 		.4byte	0xbed
 2165 0a52 830A0000 		.4byte	0xa83
 2166 0a56 1A       		.uleb128 0x1a
 2167 0a57 01       		.byte	0x1
 2168 0a58 50       		.byte	0x50
 2169 0a59 05       		.byte	0x5
 2170 0a5a 03       		.byte	0x3
 2171 0a5b 00000000 		.4byte	task3
 2172 0a5f 1A       		.uleb128 0x1a
 2173 0a60 01       		.byte	0x1
 2174 0a61 51       		.byte	0x51
 2175 0a62 05       		.byte	0x5
 2176 0a63 03       		.byte	0x3
 2177 0a64 15000000 		.4byte	.LC2
 2178 0a68 1A       		.uleb128 0x1a
 2179 0a69 01       		.byte	0x1
 2180 0a6a 52       		.byte	0x52
 2181 0a6b 02       		.byte	0x2
 2182 0a6c 08       		.byte	0x8
 2183 0a6d 64       		.byte	0x64
 2184 0a6e 1A       		.uleb128 0x1a
 2185 0a6f 01       		.byte	0x1
 2186 0a70 53       		.byte	0x53
 2187 0a71 02       		.byte	0x2
 2188 0a72 74       		.byte	0x74
 2189 0a73 00       		.sleb128 0
 2190 0a74 1A       		.uleb128 0x1a
 2191 0a75 02       		.byte	0x2
 2192 0a76 7D       		.byte	0x7d
 2193 0a77 00       		.sleb128 0
 2194 0a78 02       		.byte	0x2
 2195 0a79 75       		.byte	0x75
 2196 0a7a 00       		.sleb128 0
 2197 0a7b 1A       		.uleb128 0x1a
 2198 0a7c 02       		.byte	0x2
 2199 0a7d 7D       		.byte	0x7d
 2200 0a7e 04       		.sleb128 4
ARM GAS  /tmp/cch27VDe.s 			page 43


 2201 0a7f 02       		.byte	0x2
 2202 0a80 74       		.byte	0x74
 2203 0a81 00       		.sleb128 0
 2204 0a82 00       		.byte	0
 2205 0a83 1B       		.uleb128 0x1b
 2206 0a84 48000000 		.4byte	.LVL13
 2207 0a88 FC0B0000 		.4byte	0xbfc
 2208 0a8c 00       		.byte	0
 2209 0a8d 1C       		.uleb128 0x1c
 2210 0a8e AC020000 		.4byte	.LASF143
 2211 0a92 01       		.byte	0x1
 2212 0a93 1B       		.byte	0x1b
 2213 0a94 0D       		.byte	0xd
 2214 0a95 01       		.byte	0x1
 2215 0a96 04000000 		.4byte	.LFB42
 2216 0a9a 06000000 		.4byte	.LFE42
 2217 0a9e 02       		.byte	0x2
 2218 0a9f 7D       		.byte	0x7d
 2219 0aa0 00       		.sleb128 0
 2220 0aa1 01       		.byte	0x1
 2221 0aa2 BB0A0000 		.4byte	0xabb
 2222 0aa6 1D       		.uleb128 0x1d
 2223 0aa7 4B070000 		.4byte	.LASF145
 2224 0aab 01       		.byte	0x1
 2225 0aac 1B       		.byte	0x1b
 2226 0aad 19       		.byte	0x19
 2227 0aae 61090000 		.4byte	0x961
 2228 0ab2 22000000 		.4byte	.LLST2
 2229 0ab6 20000000 		.4byte	.LVUS2
 2230 0aba 00       		.byte	0
 2231 0abb 1C       		.uleb128 0x1c
 2232 0abc A6020000 		.4byte	.LASF144
 2233 0ac0 01       		.byte	0x1
 2234 0ac1 16       		.byte	0x16
 2235 0ac2 0D       		.byte	0xd
 2236 0ac3 01       		.byte	0x1
 2237 0ac4 02000000 		.4byte	.LFB41
 2238 0ac8 04000000 		.4byte	.LFE41
 2239 0acc 02       		.byte	0x2
 2240 0acd 7D       		.byte	0x7d
 2241 0ace 00       		.sleb128 0
 2242 0acf 01       		.byte	0x1
 2243 0ad0 E90A0000 		.4byte	0xae9
 2244 0ad4 1D       		.uleb128 0x1d
 2245 0ad5 4B070000 		.4byte	.LASF145
 2246 0ad9 01       		.byte	0x1
 2247 0ada 16       		.byte	0x16
 2248 0adb 19       		.byte	0x19
 2249 0adc 61090000 		.4byte	0x961
 2250 0ae0 37000000 		.4byte	.LLST1
 2251 0ae4 35000000 		.4byte	.LVUS1
 2252 0ae8 00       		.byte	0
 2253 0ae9 1C       		.uleb128 0x1c
 2254 0aea A0020000 		.4byte	.LASF146
 2255 0aee 01       		.byte	0x1
 2256 0aef 10       		.byte	0x10
 2257 0af0 0D       		.byte	0xd
ARM GAS  /tmp/cch27VDe.s 			page 44


 2258 0af1 01       		.byte	0x1
 2259 0af2 00000000 		.4byte	.LFB40
 2260 0af6 02000000 		.4byte	.LFE40
 2261 0afa 02       		.byte	0x2
 2262 0afb 7D       		.byte	0x7d
 2263 0afc 00       		.sleb128 0
 2264 0afd 01       		.byte	0x1
 2265 0afe 170B0000 		.4byte	0xb17
 2266 0b02 1D       		.uleb128 0x1d
 2267 0b03 4B070000 		.4byte	.LASF145
 2268 0b07 01       		.byte	0x1
 2269 0b08 10       		.byte	0x10
 2270 0b09 19       		.byte	0x19
 2271 0b0a 61090000 		.4byte	0x961
 2272 0b0e 4C000000 		.4byte	.LLST0
 2273 0b12 4A000000 		.4byte	.LVUS0
 2274 0b16 00       		.byte	0
 2275 0b17 1E       		.uleb128 0x1e
 2276 0b18 01       		.byte	0x1
 2277 0b19 BC050000 		.4byte	.LASF148
 2278 0b1d 02       		.byte	0x2
 2279 0b1e 79       		.byte	0x79
 2280 0b1f 06       		.byte	0x6
 2281 0b20 01       		.byte	0x1
 2282 0b21 78010000 		.4byte	.LFB34
 2283 0b25 94010000 		.4byte	.LFE34
 2284 0b29 02       		.byte	0x2
 2285 0b2a 7D       		.byte	0x7d
 2286 0b2b 00       		.sleb128 0
 2287 0b2c 01       		.byte	0x1
 2288 0b2d 460B0000 		.4byte	0xb46
 2289 0b31 1D       		.uleb128 0x1d
 2290 0b32 90030000 		.4byte	.LASF147
 2291 0b36 02       		.byte	0x2
 2292 0b37 79       		.byte	0x79
 2293 0b38 22       		.byte	0x22
 2294 0b39 75010000 		.4byte	0x175
 2295 0b3d 63000000 		.4byte	.LLST5
 2296 0b41 5F000000 		.4byte	.LVUS5
 2297 0b45 00       		.byte	0
 2298 0b46 1E       		.uleb128 0x1e
 2299 0b47 01       		.byte	0x1
 2300 0b48 39040000 		.4byte	.LASF149
 2301 0b4c 02       		.byte	0x2
 2302 0b4d 71       		.byte	0x71
 2303 0b4e 06       		.byte	0x6
 2304 0b4f 01       		.byte	0x1
 2305 0b50 60010000 		.4byte	.LFB33
 2306 0b54 78010000 		.4byte	.LFE33
 2307 0b58 02       		.byte	0x2
 2308 0b59 7D       		.byte	0x7d
 2309 0b5a 00       		.sleb128 0
 2310 0b5b 01       		.byte	0x1
 2311 0b5c 750B0000 		.4byte	0xb75
 2312 0b60 1D       		.uleb128 0x1d
 2313 0b61 90030000 		.4byte	.LASF147
 2314 0b65 02       		.byte	0x2
ARM GAS  /tmp/cch27VDe.s 			page 45


 2315 0b66 71       		.byte	0x71
 2316 0b67 21       		.byte	0x21
 2317 0b68 75010000 		.4byte	0x175
 2318 0b6c 88000000 		.4byte	.LLST4
 2319 0b70 84000000 		.4byte	.LVUS4
 2320 0b74 00       		.byte	0
 2321 0b75 1F       		.uleb128 0x1f
 2322 0b76 01       		.byte	0x1
 2323 0b77 14020000 		.4byte	.LASF151
 2324 0b7b 02       		.byte	0x2
 2325 0b7c 65       		.byte	0x65
 2326 0b7d 06       		.byte	0x6
 2327 0b7e 01       		.byte	0x1
 2328 0b7f 38010000 		.4byte	.LFB32
 2329 0b83 60010000 		.4byte	.LFE32
 2330 0b87 02       		.byte	0x2
 2331 0b88 7D       		.byte	0x7d
 2332 0b89 00       		.sleb128 0
 2333 0b8a 01       		.byte	0x1
 2334 0b8b 20       		.uleb128 0x20
 2335 0b8c 01       		.byte	0x1
 2336 0b8d 29040000 		.4byte	.LASF150
 2337 0b91 02       		.byte	0x2
 2338 0b92 5E       		.byte	0x5e
 2339 0b93 06       		.byte	0x6
 2340 0b94 01       		.byte	0x1
 2341 0b95 08010000 		.4byte	.LFB31
 2342 0b99 38010000 		.4byte	.LFE31
 2343 0b9d A9000000 		.4byte	.LLST3
 2344 0ba1 01       		.byte	0x1
 2345 0ba2 B30B0000 		.4byte	0xbb3
 2346 0ba6 21       		.uleb128 0x21
 2347 0ba7 5400     		.ascii	"T\000"
 2348 0ba9 02       		.byte	0x2
 2349 0baa 5E       		.byte	0x5e
 2350 0bab 17       		.byte	0x17
 2351 0bac 64030000 		.4byte	0x364
 2352 0bb0 01       		.byte	0x1
 2353 0bb1 50       		.byte	0x50
 2354 0bb2 00       		.byte	0
 2355 0bb3 1F       		.uleb128 0x1f
 2356 0bb4 01       		.byte	0x1
 2357 0bb5 08050000 		.4byte	.LASF152
 2358 0bb9 02       		.byte	0x2
 2359 0bba 3C       		.byte	0x3c
 2360 0bbb 06       		.byte	0x6
 2361 0bbc 01       		.byte	0x1
 2362 0bbd 94000000 		.4byte	.LFB30
 2363 0bc1 08010000 		.4byte	.LFE30
 2364 0bc5 02       		.byte	0x2
 2365 0bc6 7D       		.byte	0x7d
 2366 0bc7 00       		.sleb128 0
 2367 0bc8 01       		.byte	0x1
 2368 0bc9 22       		.uleb128 0x22
 2369 0bca 01       		.byte	0x1
 2370 0bcb 9A050000 		.4byte	.LASF162
 2371 0bcf 02       		.byte	0x2
ARM GAS  /tmp/cch27VDe.s 			page 46


 2372 0bd0 0C       		.byte	0xc
 2373 0bd1 06       		.byte	0x6
 2374 0bd2 06000000 		.4byte	.LFB29
 2375 0bd6 94000000 		.4byte	.LFE29
 2376 0bda 02       		.byte	0x2
 2377 0bdb 7D       		.byte	0x7d
 2378 0bdc 00       		.sleb128 0
 2379 0bdd 01       		.byte	0x1
 2380 0bde 23       		.uleb128 0x23
 2381 0bdf 01       		.byte	0x1
 2382 0be0 01       		.byte	0x1
 2383 0be1 86050000 		.4byte	.LASF153
 2384 0be5 86050000 		.4byte	.LASF153
 2385 0be9 07       		.byte	0x7
 2386 0bea D805     		.2byte	0x5d8
 2387 0bec 10       		.byte	0x10
 2388 0bed 23       		.uleb128 0x23
 2389 0bee 01       		.byte	0x1
 2390 0bef 01       		.byte	0x1
 2391 0bf0 18040000 		.4byte	.LASF154
 2392 0bf4 18040000 		.4byte	.LASF154
 2393 0bf8 08       		.byte	0x8
 2394 0bf9 4A01     		.2byte	0x14a
 2395 0bfb 0D       		.byte	0xd
 2396 0bfc 23       		.uleb128 0x23
 2397 0bfd 01       		.byte	0x1
 2398 0bfe 01       		.byte	0x1
 2399 0bff 34020000 		.4byte	.LASF155
 2400 0c03 34020000 		.4byte	.LASF155
 2401 0c07 08       		.byte	0x8
 2402 0c08 9704     		.2byte	0x497
 2403 0c0a 06       		.byte	0x6
 2404 0c0b 00       		.byte	0
 2405              		.section	.debug_abbrev,"",%progbits
 2406              	.Ldebug_abbrev0:
 2407 0000 01       		.uleb128 0x1
 2408 0001 11       		.uleb128 0x11
 2409 0002 01       		.byte	0x1
 2410 0003 25       		.uleb128 0x25
 2411 0004 0E       		.uleb128 0xe
 2412 0005 13       		.uleb128 0x13
 2413 0006 0B       		.uleb128 0xb
 2414 0007 03       		.uleb128 0x3
 2415 0008 0E       		.uleb128 0xe
 2416 0009 1B       		.uleb128 0x1b
 2417 000a 0E       		.uleb128 0xe
 2418 000b 55       		.uleb128 0x55
 2419 000c 06       		.uleb128 0x6
 2420 000d 11       		.uleb128 0x11
 2421 000e 01       		.uleb128 0x1
 2422 000f 52       		.uleb128 0x52
 2423 0010 01       		.uleb128 0x1
 2424 0011 10       		.uleb128 0x10
 2425 0012 06       		.uleb128 0x6
 2426 0013 00       		.byte	0
 2427 0014 00       		.byte	0
 2428 0015 02       		.uleb128 0x2
ARM GAS  /tmp/cch27VDe.s 			page 47


 2429 0016 04       		.uleb128 0x4
 2430 0017 01       		.byte	0x1
 2431 0018 03       		.uleb128 0x3
 2432 0019 0E       		.uleb128 0xe
 2433 001a 3E       		.uleb128 0x3e
 2434 001b 0B       		.uleb128 0xb
 2435 001c 0B       		.uleb128 0xb
 2436 001d 0B       		.uleb128 0xb
 2437 001e 49       		.uleb128 0x49
 2438 001f 13       		.uleb128 0x13
 2439 0020 3A       		.uleb128 0x3a
 2440 0021 0B       		.uleb128 0xb
 2441 0022 3B       		.uleb128 0x3b
 2442 0023 0B       		.uleb128 0xb
 2443 0024 39       		.uleb128 0x39
 2444 0025 0B       		.uleb128 0xb
 2445 0026 01       		.uleb128 0x1
 2446 0027 13       		.uleb128 0x13
 2447 0028 00       		.byte	0
 2448 0029 00       		.byte	0
 2449 002a 03       		.uleb128 0x3
 2450 002b 28       		.uleb128 0x28
 2451 002c 00       		.byte	0
 2452 002d 03       		.uleb128 0x3
 2453 002e 0E       		.uleb128 0xe
 2454 002f 1C       		.uleb128 0x1c
 2455 0030 0D       		.uleb128 0xd
 2456 0031 00       		.byte	0
 2457 0032 00       		.byte	0
 2458 0033 04       		.uleb128 0x4
 2459 0034 28       		.uleb128 0x28
 2460 0035 00       		.byte	0
 2461 0036 03       		.uleb128 0x3
 2462 0037 0E       		.uleb128 0xe
 2463 0038 1C       		.uleb128 0x1c
 2464 0039 0B       		.uleb128 0xb
 2465 003a 00       		.byte	0
 2466 003b 00       		.byte	0
 2467 003c 05       		.uleb128 0x5
 2468 003d 24       		.uleb128 0x24
 2469 003e 00       		.byte	0
 2470 003f 0B       		.uleb128 0xb
 2471 0040 0B       		.uleb128 0xb
 2472 0041 3E       		.uleb128 0x3e
 2473 0042 0B       		.uleb128 0xb
 2474 0043 03       		.uleb128 0x3
 2475 0044 0E       		.uleb128 0xe
 2476 0045 00       		.byte	0
 2477 0046 00       		.byte	0
 2478 0047 06       		.uleb128 0x6
 2479 0048 16       		.uleb128 0x16
 2480 0049 00       		.byte	0
 2481 004a 03       		.uleb128 0x3
 2482 004b 0E       		.uleb128 0xe
 2483 004c 3A       		.uleb128 0x3a
 2484 004d 0B       		.uleb128 0xb
 2485 004e 3B       		.uleb128 0x3b
ARM GAS  /tmp/cch27VDe.s 			page 48


 2486 004f 05       		.uleb128 0x5
 2487 0050 39       		.uleb128 0x39
 2488 0051 0B       		.uleb128 0xb
 2489 0052 49       		.uleb128 0x49
 2490 0053 13       		.uleb128 0x13
 2491 0054 00       		.byte	0
 2492 0055 00       		.byte	0
 2493 0056 07       		.uleb128 0x7
 2494 0057 16       		.uleb128 0x16
 2495 0058 00       		.byte	0
 2496 0059 03       		.uleb128 0x3
 2497 005a 0E       		.uleb128 0xe
 2498 005b 3A       		.uleb128 0x3a
 2499 005c 0B       		.uleb128 0xb
 2500 005d 3B       		.uleb128 0x3b
 2501 005e 0B       		.uleb128 0xb
 2502 005f 39       		.uleb128 0x39
 2503 0060 0B       		.uleb128 0xb
 2504 0061 49       		.uleb128 0x49
 2505 0062 13       		.uleb128 0x13
 2506 0063 00       		.byte	0
 2507 0064 00       		.byte	0
 2508 0065 08       		.uleb128 0x8
 2509 0066 24       		.uleb128 0x24
 2510 0067 00       		.byte	0
 2511 0068 0B       		.uleb128 0xb
 2512 0069 0B       		.uleb128 0xb
 2513 006a 3E       		.uleb128 0x3e
 2514 006b 0B       		.uleb128 0xb
 2515 006c 03       		.uleb128 0x3
 2516 006d 08       		.uleb128 0x8
 2517 006e 00       		.byte	0
 2518 006f 00       		.byte	0
 2519 0070 09       		.uleb128 0x9
 2520 0071 35       		.uleb128 0x35
 2521 0072 00       		.byte	0
 2522 0073 49       		.uleb128 0x49
 2523 0074 13       		.uleb128 0x13
 2524 0075 00       		.byte	0
 2525 0076 00       		.byte	0
 2526 0077 0A       		.uleb128 0xa
 2527 0078 13       		.uleb128 0x13
 2528 0079 01       		.byte	0x1
 2529 007a 0B       		.uleb128 0xb
 2530 007b 05       		.uleb128 0x5
 2531 007c 3A       		.uleb128 0x3a
 2532 007d 0B       		.uleb128 0xb
 2533 007e 3B       		.uleb128 0x3b
 2534 007f 0B       		.uleb128 0xb
 2535 0080 39       		.uleb128 0x39
 2536 0081 0B       		.uleb128 0xb
 2537 0082 01       		.uleb128 0x1
 2538 0083 13       		.uleb128 0x13
 2539 0084 00       		.byte	0
 2540 0085 00       		.byte	0
 2541 0086 0B       		.uleb128 0xb
 2542 0087 0D       		.uleb128 0xd
ARM GAS  /tmp/cch27VDe.s 			page 49


 2543 0088 00       		.byte	0
 2544 0089 03       		.uleb128 0x3
 2545 008a 0E       		.uleb128 0xe
 2546 008b 3A       		.uleb128 0x3a
 2547 008c 0B       		.uleb128 0xb
 2548 008d 3B       		.uleb128 0x3b
 2549 008e 0B       		.uleb128 0xb
 2550 008f 39       		.uleb128 0x39
 2551 0090 0B       		.uleb128 0xb
 2552 0091 49       		.uleb128 0x49
 2553 0092 13       		.uleb128 0x13
 2554 0093 38       		.uleb128 0x38
 2555 0094 0A       		.uleb128 0xa
 2556 0095 00       		.byte	0
 2557 0096 00       		.byte	0
 2558 0097 0C       		.uleb128 0xc
 2559 0098 0D       		.uleb128 0xd
 2560 0099 00       		.byte	0
 2561 009a 03       		.uleb128 0x3
 2562 009b 08       		.uleb128 0x8
 2563 009c 3A       		.uleb128 0x3a
 2564 009d 0B       		.uleb128 0xb
 2565 009e 3B       		.uleb128 0x3b
 2566 009f 0B       		.uleb128 0xb
 2567 00a0 39       		.uleb128 0x39
 2568 00a1 0B       		.uleb128 0xb
 2569 00a2 49       		.uleb128 0x49
 2570 00a3 13       		.uleb128 0x13
 2571 00a4 38       		.uleb128 0x38
 2572 00a5 0A       		.uleb128 0xa
 2573 00a6 00       		.byte	0
 2574 00a7 00       		.byte	0
 2575 00a8 0D       		.uleb128 0xd
 2576 00a9 01       		.uleb128 0x1
 2577 00aa 01       		.byte	0x1
 2578 00ab 49       		.uleb128 0x49
 2579 00ac 13       		.uleb128 0x13
 2580 00ad 01       		.uleb128 0x1
 2581 00ae 13       		.uleb128 0x13
 2582 00af 00       		.byte	0
 2583 00b0 00       		.byte	0
 2584 00b1 0E       		.uleb128 0xe
 2585 00b2 21       		.uleb128 0x21
 2586 00b3 00       		.byte	0
 2587 00b4 49       		.uleb128 0x49
 2588 00b5 13       		.uleb128 0x13
 2589 00b6 2F       		.uleb128 0x2f
 2590 00b7 0B       		.uleb128 0xb
 2591 00b8 00       		.byte	0
 2592 00b9 00       		.byte	0
 2593 00ba 0F       		.uleb128 0xf
 2594 00bb 21       		.uleb128 0x21
 2595 00bc 00       		.byte	0
 2596 00bd 49       		.uleb128 0x49
 2597 00be 13       		.uleb128 0x13
 2598 00bf 2F       		.uleb128 0x2f
 2599 00c0 05       		.uleb128 0x5
ARM GAS  /tmp/cch27VDe.s 			page 50


 2600 00c1 00       		.byte	0
 2601 00c2 00       		.byte	0
 2602 00c3 10       		.uleb128 0x10
 2603 00c4 16       		.uleb128 0x16
 2604 00c5 00       		.byte	0
 2605 00c6 03       		.uleb128 0x3
 2606 00c7 08       		.uleb128 0x8
 2607 00c8 3A       		.uleb128 0x3a
 2608 00c9 0B       		.uleb128 0xb
 2609 00ca 3B       		.uleb128 0x3b
 2610 00cb 05       		.uleb128 0x5
 2611 00cc 39       		.uleb128 0x39
 2612 00cd 0B       		.uleb128 0xb
 2613 00ce 49       		.uleb128 0x49
 2614 00cf 13       		.uleb128 0x13
 2615 00d0 00       		.byte	0
 2616 00d1 00       		.byte	0
 2617 00d2 11       		.uleb128 0x11
 2618 00d3 13       		.uleb128 0x13
 2619 00d4 01       		.byte	0x1
 2620 00d5 0B       		.uleb128 0xb
 2621 00d6 0B       		.uleb128 0xb
 2622 00d7 3A       		.uleb128 0x3a
 2623 00d8 0B       		.uleb128 0xb
 2624 00d9 3B       		.uleb128 0x3b
 2625 00da 05       		.uleb128 0x5
 2626 00db 39       		.uleb128 0x39
 2627 00dc 0B       		.uleb128 0xb
 2628 00dd 01       		.uleb128 0x1
 2629 00de 13       		.uleb128 0x13
 2630 00df 00       		.byte	0
 2631 00e0 00       		.byte	0
 2632 00e1 12       		.uleb128 0x12
 2633 00e2 0D       		.uleb128 0xd
 2634 00e3 00       		.byte	0
 2635 00e4 03       		.uleb128 0x3
 2636 00e5 08       		.uleb128 0x8
 2637 00e6 3A       		.uleb128 0x3a
 2638 00e7 0B       		.uleb128 0xb
 2639 00e8 3B       		.uleb128 0x3b
 2640 00e9 05       		.uleb128 0x5
 2641 00ea 39       		.uleb128 0x39
 2642 00eb 0B       		.uleb128 0xb
 2643 00ec 49       		.uleb128 0x49
 2644 00ed 13       		.uleb128 0x13
 2645 00ee 38       		.uleb128 0x38
 2646 00ef 0A       		.uleb128 0xa
 2647 00f0 00       		.byte	0
 2648 00f1 00       		.byte	0
 2649 00f2 13       		.uleb128 0x13
 2650 00f3 0D       		.uleb128 0xd
 2651 00f4 00       		.byte	0
 2652 00f5 03       		.uleb128 0x3
 2653 00f6 0E       		.uleb128 0xe
 2654 00f7 3A       		.uleb128 0x3a
 2655 00f8 0B       		.uleb128 0xb
 2656 00f9 3B       		.uleb128 0x3b
ARM GAS  /tmp/cch27VDe.s 			page 51


 2657 00fa 05       		.uleb128 0x5
 2658 00fb 39       		.uleb128 0x39
 2659 00fc 0B       		.uleb128 0xb
 2660 00fd 49       		.uleb128 0x49
 2661 00fe 13       		.uleb128 0x13
 2662 00ff 38       		.uleb128 0x38
 2663 0100 0A       		.uleb128 0xa
 2664 0101 00       		.byte	0
 2665 0102 00       		.byte	0
 2666 0103 14       		.uleb128 0x14
 2667 0104 0F       		.uleb128 0xf
 2668 0105 00       		.byte	0
 2669 0106 0B       		.uleb128 0xb
 2670 0107 0B       		.uleb128 0xb
 2671 0108 00       		.byte	0
 2672 0109 00       		.byte	0
 2673 010a 15       		.uleb128 0x15
 2674 010b 0F       		.uleb128 0xf
 2675 010c 00       		.byte	0
 2676 010d 0B       		.uleb128 0xb
 2677 010e 0B       		.uleb128 0xb
 2678 010f 49       		.uleb128 0x49
 2679 0110 13       		.uleb128 0x13
 2680 0111 00       		.byte	0
 2681 0112 00       		.byte	0
 2682 0113 16       		.uleb128 0x16
 2683 0114 13       		.uleb128 0x13
 2684 0115 00       		.byte	0
 2685 0116 03       		.uleb128 0x3
 2686 0117 0E       		.uleb128 0xe
 2687 0118 3C       		.uleb128 0x3c
 2688 0119 0C       		.uleb128 0xc
 2689 011a 00       		.byte	0
 2690 011b 00       		.byte	0
 2691 011c 17       		.uleb128 0x17
 2692 011d 34       		.uleb128 0x34
 2693 011e 00       		.byte	0
 2694 011f 03       		.uleb128 0x3
 2695 0120 0E       		.uleb128 0xe
 2696 0121 3A       		.uleb128 0x3a
 2697 0122 0B       		.uleb128 0xb
 2698 0123 3B       		.uleb128 0x3b
 2699 0124 0B       		.uleb128 0xb
 2700 0125 39       		.uleb128 0x39
 2701 0126 0B       		.uleb128 0xb
 2702 0127 49       		.uleb128 0x49
 2703 0128 13       		.uleb128 0x13
 2704 0129 00       		.byte	0
 2705 012a 00       		.byte	0
 2706 012b 18       		.uleb128 0x18
 2707 012c 2E       		.uleb128 0x2e
 2708 012d 01       		.byte	0x1
 2709 012e 3F       		.uleb128 0x3f
 2710 012f 0C       		.uleb128 0xc
 2711 0130 03       		.uleb128 0x3
 2712 0131 0E       		.uleb128 0xe
 2713 0132 3A       		.uleb128 0x3a
ARM GAS  /tmp/cch27VDe.s 			page 52


 2714 0133 0B       		.uleb128 0xb
 2715 0134 3B       		.uleb128 0x3b
 2716 0135 0B       		.uleb128 0xb
 2717 0136 39       		.uleb128 0x39
 2718 0137 0B       		.uleb128 0xb
 2719 0138 27       		.uleb128 0x27
 2720 0139 0C       		.uleb128 0xc
 2721 013a 49       		.uleb128 0x49
 2722 013b 13       		.uleb128 0x13
 2723 013c 11       		.uleb128 0x11
 2724 013d 01       		.uleb128 0x1
 2725 013e 12       		.uleb128 0x12
 2726 013f 01       		.uleb128 0x1
 2727 0140 40       		.uleb128 0x40
 2728 0141 06       		.uleb128 0x6
 2729 0142 9742     		.uleb128 0x2117
 2730 0144 0C       		.uleb128 0xc
 2731 0145 01       		.uleb128 0x1
 2732 0146 13       		.uleb128 0x13
 2733 0147 00       		.byte	0
 2734 0148 00       		.byte	0
 2735 0149 19       		.uleb128 0x19
 2736 014a 898201   		.uleb128 0x4109
 2737 014d 01       		.byte	0x1
 2738 014e 11       		.uleb128 0x11
 2739 014f 01       		.uleb128 0x1
 2740 0150 31       		.uleb128 0x31
 2741 0151 13       		.uleb128 0x13
 2742 0152 01       		.uleb128 0x1
 2743 0153 13       		.uleb128 0x13
 2744 0154 00       		.byte	0
 2745 0155 00       		.byte	0
 2746 0156 1A       		.uleb128 0x1a
 2747 0157 8A8201   		.uleb128 0x410a
 2748 015a 00       		.byte	0
 2749 015b 02       		.uleb128 0x2
 2750 015c 0A       		.uleb128 0xa
 2751 015d 9142     		.uleb128 0x2111
 2752 015f 0A       		.uleb128 0xa
 2753 0160 00       		.byte	0
 2754 0161 00       		.byte	0
 2755 0162 1B       		.uleb128 0x1b
 2756 0163 898201   		.uleb128 0x4109
 2757 0166 00       		.byte	0
 2758 0167 11       		.uleb128 0x11
 2759 0168 01       		.uleb128 0x1
 2760 0169 31       		.uleb128 0x31
 2761 016a 13       		.uleb128 0x13
 2762 016b 00       		.byte	0
 2763 016c 00       		.byte	0
 2764 016d 1C       		.uleb128 0x1c
 2765 016e 2E       		.uleb128 0x2e
 2766 016f 01       		.byte	0x1
 2767 0170 03       		.uleb128 0x3
 2768 0171 0E       		.uleb128 0xe
 2769 0172 3A       		.uleb128 0x3a
 2770 0173 0B       		.uleb128 0xb
ARM GAS  /tmp/cch27VDe.s 			page 53


 2771 0174 3B       		.uleb128 0x3b
 2772 0175 0B       		.uleb128 0xb
 2773 0176 39       		.uleb128 0x39
 2774 0177 0B       		.uleb128 0xb
 2775 0178 27       		.uleb128 0x27
 2776 0179 0C       		.uleb128 0xc
 2777 017a 11       		.uleb128 0x11
 2778 017b 01       		.uleb128 0x1
 2779 017c 12       		.uleb128 0x12
 2780 017d 01       		.uleb128 0x1
 2781 017e 40       		.uleb128 0x40
 2782 017f 0A       		.uleb128 0xa
 2783 0180 9742     		.uleb128 0x2117
 2784 0182 0C       		.uleb128 0xc
 2785 0183 01       		.uleb128 0x1
 2786 0184 13       		.uleb128 0x13
 2787 0185 00       		.byte	0
 2788 0186 00       		.byte	0
 2789 0187 1D       		.uleb128 0x1d
 2790 0188 05       		.uleb128 0x5
 2791 0189 00       		.byte	0
 2792 018a 03       		.uleb128 0x3
 2793 018b 0E       		.uleb128 0xe
 2794 018c 3A       		.uleb128 0x3a
 2795 018d 0B       		.uleb128 0xb
 2796 018e 3B       		.uleb128 0x3b
 2797 018f 0B       		.uleb128 0xb
 2798 0190 39       		.uleb128 0x39
 2799 0191 0B       		.uleb128 0xb
 2800 0192 49       		.uleb128 0x49
 2801 0193 13       		.uleb128 0x13
 2802 0194 02       		.uleb128 0x2
 2803 0195 06       		.uleb128 0x6
 2804 0196 B742     		.uleb128 0x2137
 2805 0198 06       		.uleb128 0x6
 2806 0199 00       		.byte	0
 2807 019a 00       		.byte	0
 2808 019b 1E       		.uleb128 0x1e
 2809 019c 2E       		.uleb128 0x2e
 2810 019d 01       		.byte	0x1
 2811 019e 3F       		.uleb128 0x3f
 2812 019f 0C       		.uleb128 0xc
 2813 01a0 03       		.uleb128 0x3
 2814 01a1 0E       		.uleb128 0xe
 2815 01a2 3A       		.uleb128 0x3a
 2816 01a3 0B       		.uleb128 0xb
 2817 01a4 3B       		.uleb128 0x3b
 2818 01a5 0B       		.uleb128 0xb
 2819 01a6 39       		.uleb128 0x39
 2820 01a7 0B       		.uleb128 0xb
 2821 01a8 27       		.uleb128 0x27
 2822 01a9 0C       		.uleb128 0xc
 2823 01aa 11       		.uleb128 0x11
 2824 01ab 01       		.uleb128 0x1
 2825 01ac 12       		.uleb128 0x12
 2826 01ad 01       		.uleb128 0x1
 2827 01ae 40       		.uleb128 0x40
ARM GAS  /tmp/cch27VDe.s 			page 54


 2828 01af 0A       		.uleb128 0xa
 2829 01b0 9742     		.uleb128 0x2117
 2830 01b2 0C       		.uleb128 0xc
 2831 01b3 01       		.uleb128 0x1
 2832 01b4 13       		.uleb128 0x13
 2833 01b5 00       		.byte	0
 2834 01b6 00       		.byte	0
 2835 01b7 1F       		.uleb128 0x1f
 2836 01b8 2E       		.uleb128 0x2e
 2837 01b9 00       		.byte	0
 2838 01ba 3F       		.uleb128 0x3f
 2839 01bb 0C       		.uleb128 0xc
 2840 01bc 03       		.uleb128 0x3
 2841 01bd 0E       		.uleb128 0xe
 2842 01be 3A       		.uleb128 0x3a
 2843 01bf 0B       		.uleb128 0xb
 2844 01c0 3B       		.uleb128 0x3b
 2845 01c1 0B       		.uleb128 0xb
 2846 01c2 39       		.uleb128 0x39
 2847 01c3 0B       		.uleb128 0xb
 2848 01c4 27       		.uleb128 0x27
 2849 01c5 0C       		.uleb128 0xc
 2850 01c6 11       		.uleb128 0x11
 2851 01c7 01       		.uleb128 0x1
 2852 01c8 12       		.uleb128 0x12
 2853 01c9 01       		.uleb128 0x1
 2854 01ca 40       		.uleb128 0x40
 2855 01cb 0A       		.uleb128 0xa
 2856 01cc 9742     		.uleb128 0x2117
 2857 01ce 0C       		.uleb128 0xc
 2858 01cf 00       		.byte	0
 2859 01d0 00       		.byte	0
 2860 01d1 20       		.uleb128 0x20
 2861 01d2 2E       		.uleb128 0x2e
 2862 01d3 01       		.byte	0x1
 2863 01d4 3F       		.uleb128 0x3f
 2864 01d5 0C       		.uleb128 0xc
 2865 01d6 03       		.uleb128 0x3
 2866 01d7 0E       		.uleb128 0xe
 2867 01d8 3A       		.uleb128 0x3a
 2868 01d9 0B       		.uleb128 0xb
 2869 01da 3B       		.uleb128 0x3b
 2870 01db 0B       		.uleb128 0xb
 2871 01dc 39       		.uleb128 0x39
 2872 01dd 0B       		.uleb128 0xb
 2873 01de 27       		.uleb128 0x27
 2874 01df 0C       		.uleb128 0xc
 2875 01e0 11       		.uleb128 0x11
 2876 01e1 01       		.uleb128 0x1
 2877 01e2 12       		.uleb128 0x12
 2878 01e3 01       		.uleb128 0x1
 2879 01e4 40       		.uleb128 0x40
 2880 01e5 06       		.uleb128 0x6
 2881 01e6 9742     		.uleb128 0x2117
 2882 01e8 0C       		.uleb128 0xc
 2883 01e9 01       		.uleb128 0x1
 2884 01ea 13       		.uleb128 0x13
ARM GAS  /tmp/cch27VDe.s 			page 55


 2885 01eb 00       		.byte	0
 2886 01ec 00       		.byte	0
 2887 01ed 21       		.uleb128 0x21
 2888 01ee 05       		.uleb128 0x5
 2889 01ef 00       		.byte	0
 2890 01f0 03       		.uleb128 0x3
 2891 01f1 08       		.uleb128 0x8
 2892 01f2 3A       		.uleb128 0x3a
 2893 01f3 0B       		.uleb128 0xb
 2894 01f4 3B       		.uleb128 0x3b
 2895 01f5 0B       		.uleb128 0xb
 2896 01f6 39       		.uleb128 0x39
 2897 01f7 0B       		.uleb128 0xb
 2898 01f8 49       		.uleb128 0x49
 2899 01f9 13       		.uleb128 0x13
 2900 01fa 02       		.uleb128 0x2
 2901 01fb 0A       		.uleb128 0xa
 2902 01fc 00       		.byte	0
 2903 01fd 00       		.byte	0
 2904 01fe 22       		.uleb128 0x22
 2905 01ff 2E       		.uleb128 0x2e
 2906 0200 00       		.byte	0
 2907 0201 3F       		.uleb128 0x3f
 2908 0202 0C       		.uleb128 0xc
 2909 0203 03       		.uleb128 0x3
 2910 0204 0E       		.uleb128 0xe
 2911 0205 3A       		.uleb128 0x3a
 2912 0206 0B       		.uleb128 0xb
 2913 0207 3B       		.uleb128 0x3b
 2914 0208 0B       		.uleb128 0xb
 2915 0209 39       		.uleb128 0x39
 2916 020a 0B       		.uleb128 0xb
 2917 020b 11       		.uleb128 0x11
 2918 020c 01       		.uleb128 0x1
 2919 020d 12       		.uleb128 0x12
 2920 020e 01       		.uleb128 0x1
 2921 020f 40       		.uleb128 0x40
 2922 0210 0A       		.uleb128 0xa
 2923 0211 9742     		.uleb128 0x2117
 2924 0213 0C       		.uleb128 0xc
 2925 0214 00       		.byte	0
 2926 0215 00       		.byte	0
 2927 0216 23       		.uleb128 0x23
 2928 0217 2E       		.uleb128 0x2e
 2929 0218 00       		.byte	0
 2930 0219 3F       		.uleb128 0x3f
 2931 021a 0C       		.uleb128 0xc
 2932 021b 3C       		.uleb128 0x3c
 2933 021c 0C       		.uleb128 0xc
 2934 021d 8740     		.uleb128 0x2007
 2935 021f 0E       		.uleb128 0xe
 2936 0220 03       		.uleb128 0x3
 2937 0221 0E       		.uleb128 0xe
 2938 0222 3A       		.uleb128 0x3a
 2939 0223 0B       		.uleb128 0xb
 2940 0224 3B       		.uleb128 0x3b
 2941 0225 05       		.uleb128 0x5
ARM GAS  /tmp/cch27VDe.s 			page 56


 2942 0226 39       		.uleb128 0x39
 2943 0227 0B       		.uleb128 0xb
 2944 0228 00       		.byte	0
 2945 0229 00       		.byte	0
 2946 022a 00       		.byte	0
 2947              		.section	.debug_loc,"",%progbits
 2948              	.Ldebug_loc0:
 2949              	.LLST6:
 2950 0000 00000000 		.4byte	.LFB43
 2951 0004 06000000 		.4byte	.LCFI3
 2952 0008 0200     		.2byte	0x2
 2953 000a 7D       		.byte	0x7d
 2954 000b 00       		.sleb128 0
 2955 000c 06000000 		.4byte	.LCFI3
 2956 0010 64000000 		.4byte	.LFE43
 2957 0014 0200     		.2byte	0x2
 2958 0016 7D       		.byte	0x7d
 2959 0017 10       		.sleb128 16
 2960 0018 00000000 		.4byte	0
 2961 001c 00000000 		.4byte	0
 2962              	.LVUS2:
 2963 0020 01       		.uleb128 .LVU9
 2964 0021 00       		.uleb128 0
 2965              	.LLST2:
 2966 0022 04000000 		.4byte	.LVL2
 2967 0026 06000000 		.4byte	.LFE42
 2968 002a 0100     		.2byte	0x1
 2969 002c 50       		.byte	0x50
 2970 002d 00000000 		.4byte	0
 2971 0031 00000000 		.4byte	0
 2972              	.LVUS1:
 2973 0035 01       		.uleb128 .LVU5
 2974 0036 00       		.uleb128 0
 2975              	.LLST1:
 2976 0037 02000000 		.4byte	.LVL1
 2977 003b 04000000 		.4byte	.LFE41
 2978 003f 0100     		.2byte	0x1
 2979 0041 50       		.byte	0x50
 2980 0042 00000000 		.4byte	0
 2981 0046 00000000 		.4byte	0
 2982              	.LVUS0:
 2983 004a 01       		.uleb128 .LVU1
 2984 004b 00       		.uleb128 0
 2985              	.LLST0:
 2986 004c 00000000 		.4byte	.LVL0
 2987 0050 02000000 		.4byte	.LFE40
 2988 0054 0100     		.2byte	0x1
 2989 0056 50       		.byte	0x50
 2990 0057 00000000 		.4byte	0
 2991 005b 00000000 		.4byte	0
 2992              	.LVUS5:
 2993 005f 00       		.uleb128 0
 2994 0060 00       		.uleb128 .LVU133
 2995 0061 00       		.uleb128 .LVU133
 2996 0062 00       		.uleb128 0
 2997              	.LLST5:
 2998 0063 78010000 		.4byte	.LVL6
ARM GAS  /tmp/cch27VDe.s 			page 57


 2999 0067 80010000 		.4byte	.LVL7
 3000 006b 0100     		.2byte	0x1
 3001 006d 50       		.byte	0x50
 3002 006e 80010000 		.4byte	.LVL7
 3003 0072 94010000 		.4byte	.LFE34
 3004 0076 0400     		.2byte	0x4
 3005 0078 F3       		.byte	0xf3
 3006 0079 01       		.uleb128 0x1
 3007 007a 50       		.byte	0x50
 3008 007b 9F       		.byte	0x9f
 3009 007c 00000000 		.4byte	0
 3010 0080 00000000 		.4byte	0
 3011              	.LVUS4:
 3012 0084 00       		.uleb128 0
 3013 0085 00       		.uleb128 .LVU125
 3014 0086 00       		.uleb128 .LVU125
 3015 0087 00       		.uleb128 0
 3016              	.LLST4:
 3017 0088 60010000 		.4byte	.LVL4
 3018 008c 68010000 		.4byte	.LVL5
 3019 0090 0100     		.2byte	0x1
 3020 0092 50       		.byte	0x50
 3021 0093 68010000 		.4byte	.LVL5
 3022 0097 78010000 		.4byte	.LFE33
 3023 009b 0400     		.2byte	0x4
 3024 009d F3       		.byte	0xf3
 3025 009e 01       		.uleb128 0x1
 3026 009f 50       		.byte	0x50
 3027 00a0 9F       		.byte	0x9f
 3028 00a1 00000000 		.4byte	0
 3029 00a5 00000000 		.4byte	0
 3030              	.LLST3:
 3031 00a9 08010000 		.4byte	.LFB31
 3032 00ad 0A010000 		.4byte	.LCFI0
 3033 00b1 0200     		.2byte	0x2
 3034 00b3 7D       		.byte	0x7d
 3035 00b4 00       		.sleb128 0
 3036 00b5 0A010000 		.4byte	.LCFI0
 3037 00b9 16010000 		.4byte	.LCFI1
 3038 00bd 0200     		.2byte	0x2
 3039 00bf 7D       		.byte	0x7d
 3040 00c0 08       		.sleb128 8
 3041 00c1 16010000 		.4byte	.LCFI1
 3042 00c5 18010000 		.4byte	.LCFI2
 3043 00c9 0200     		.2byte	0x2
 3044 00cb 7D       		.byte	0x7d
 3045 00cc 00       		.sleb128 0
 3046 00cd 18010000 		.4byte	.LCFI2
 3047 00d1 38010000 		.4byte	.LFE31
 3048 00d5 0200     		.2byte	0x2
 3049 00d7 7D       		.byte	0x7d
 3050 00d8 08       		.sleb128 8
 3051 00d9 00000000 		.4byte	0
 3052 00dd 00000000 		.4byte	0
 3053              		.section	.debug_aranges,"",%progbits
 3054 0000 24000000 		.4byte	0x24
 3055 0004 0200     		.2byte	0x2
ARM GAS  /tmp/cch27VDe.s 			page 58


 3056 0006 00000000 		.4byte	.Ldebug_info0
 3057 000a 04       		.byte	0x4
 3058 000b 00       		.byte	0
 3059 000c 0000     		.2byte	0
 3060 000e 0000     		.2byte	0
 3061 0010 00000000 		.4byte	.Ltext0
 3062 0014 94010000 		.4byte	.Letext0-.Ltext0
 3063 0018 00000000 		.4byte	.LFB43
 3064 001c 64000000 		.4byte	.LFE43-.LFB43
 3065 0020 00000000 		.4byte	0
 3066 0024 00000000 		.4byte	0
 3067              		.section	.debug_ranges,"",%progbits
 3068              	.Ldebug_ranges0:
 3069 0000 00000000 		.4byte	.Ltext0
 3070 0004 94010000 		.4byte	.Letext0
 3071 0008 00000000 		.4byte	.LFB43
 3072 000c 64000000 		.4byte	.LFE43
 3073 0010 00000000 		.4byte	0
 3074 0014 00000000 		.4byte	0
 3075              		.section	.debug_line,"",%progbits
 3076              	.Ldebug_line0:
 3077 0000 2D040000 		.section	.debug_str,"MS",%progbits,1
 3077      03003D01 
 3077      00000201 
 3077      FB0E0D00 
 3077      01010101 
 3078              	.LASF73:
 3079 0000 49435052 		.ascii	"ICPR\000"
 3079      00
 3080              	.LASF101:
 3081 0005 4C434B52 		.ascii	"LCKR\000"
 3081      00
 3082              	.LASF9:
 3083 000a 5056445F 		.ascii	"PVD_IRQn\000"
 3083      4952516E 
 3083      00
 3084              	.LASF115:
 3085 0013 44494552 		.ascii	"DIER\000"
 3085      00
 3086              	.LASF34:
 3087 0018 54494D31 		.ascii	"TIM1_TRG_COM_IRQn\000"
 3087      5F545247 
 3087      5F434F4D 
 3087      5F495251 
 3087      6E00
 3088              	.LASF39:
 3089 002a 49324331 		.ascii	"I2C1_EV_IRQn\000"
 3089      5F45565F 
 3089      4952516E 
 3089      00
 3090              	.LASF52:
 3091 0037 5F5F7569 		.ascii	"__uint8_t\000"
 3091      6E74385F 
 3091      7400
 3092              	.LASF139:
 3093 0041 54494D5F 		.ascii	"TIM_TypeDef\000"
 3093      54797065 
ARM GAS  /tmp/cch27VDe.s 			page 59


 3093      44656600 
 3094              	.LASF11:
 3095 004d 5254435F 		.ascii	"RTC_IRQn\000"
 3095      4952516E 
 3095      00
 3096              	.LASF29:
 3097 0056 43414E31 		.ascii	"CAN1_RX1_IRQn\000"
 3097      5F525831 
 3097      5F495251 
 3097      6E00
 3098              	.LASF128:
 3099 0064 43435232 		.ascii	"CCR2\000"
 3099      00
 3100              	.LASF42:
 3101 0069 49324332 		.ascii	"I2C2_ER_IRQn\000"
 3101      5F45525F 
 3101      4952516E 
 3101      00
 3102              	.LASF38:
 3103 0076 54494D34 		.ascii	"TIM4_IRQn\000"
 3103      5F495251 
 3103      6E00
 3104              	.LASF142:
 3105 0080 51756575 		.ascii	"QueueHandle_t\000"
 3105      6548616E 
 3105      646C655F 
 3105      7400
 3106              	.LASF16:
 3107 008e 45585449 		.ascii	"EXTI2_IRQn\000"
 3107      325F4952 
 3107      516E00
 3108              	.LASF8:
 3109 0099 57574447 		.ascii	"WWDG_IRQn\000"
 3109      5F495251 
 3109      6E00
 3110              	.LASF71:
 3111 00a3 49535052 		.ascii	"ISPR\000"
 3111      00
 3112              	.LASF89:
 3113 00a8 4A535152 		.ascii	"JSQR\000"
 3113      00
 3114              	.LASF116:
 3115 00ad 43434D52 		.ascii	"CCMR1\000"
 3115      3100
 3116              	.LASF118:
 3117 00b3 43434D52 		.ascii	"CCMR2\000"
 3117      3200
 3118              	.LASF61:
 3119 00b9 6C6F6E67 		.ascii	"long long int\000"
 3119      206C6F6E 
 3119      6720696E 
 3119      7400
 3120              	.LASF53:
 3121 00c7 7369676E 		.ascii	"signed char\000"
 3121      65642063 
 3121      68617200 
 3122              	.LASF100:
ARM GAS  /tmp/cch27VDe.s 			page 60


 3123 00d3 42535252 		.ascii	"BSRR\000"
 3123      00
 3124              	.LASF14:
 3125 00d8 45585449 		.ascii	"EXTI0_IRQn\000"
 3125      305F4952 
 3125      516E00
 3126              	.LASF99:
 3127 00e3 464C4153 		.ascii	"FLASH_TypeDef\000"
 3127      485F5479 
 3127      70654465 
 3127      6600
 3128              	.LASF62:
 3129 00f1 6C6F6E67 		.ascii	"long long unsigned int\000"
 3129      206C6F6E 
 3129      6720756E 
 3129      7369676E 
 3129      65642069 
 3130              	.LASF105:
 3131 0108 41504231 		.ascii	"APB1RSTR\000"
 3131      52535452 
 3131      00
 3132              	.LASF123:
 3133 0111 52455345 		.ascii	"RESERVED10\000"
 3133      52564544 
 3133      313000
 3134              	.LASF124:
 3135 011c 52455345 		.ascii	"RESERVED11\000"
 3135      52564544 
 3135      313100
 3136              	.LASF125:
 3137 0127 52455345 		.ascii	"RESERVED12\000"
 3137      52564544 
 3137      313200
 3138              	.LASF127:
 3139 0132 52455345 		.ascii	"RESERVED13\000"
 3139      52564544 
 3139      313300
 3140              	.LASF129:
 3141 013d 52455345 		.ascii	"RESERVED14\000"
 3141      52564544 
 3141      313400
 3142              	.LASF131:
 3143 0148 52455345 		.ascii	"RESERVED15\000"
 3143      52564544 
 3143      313500
 3144              	.LASF133:
 3145 0153 52455345 		.ascii	"RESERVED16\000"
 3145      52564544 
 3145      313600
 3146              	.LASF135:
 3147 015e 52455345 		.ascii	"RESERVED17\000"
 3147      52564544 
 3147      313700
 3148              	.LASF136:
 3149 0169 52455345 		.ascii	"RESERVED18\000"
 3149      52564544 
 3149      313800
ARM GAS  /tmp/cch27VDe.s 			page 61


 3150              	.LASF138:
 3151 0174 52455345 		.ascii	"RESERVED19\000"
 3151      52564544 
 3151      313900
 3152              	.LASF58:
 3153 017f 6C6F6E67 		.ascii	"long int\000"
 3153      20696E74 
 3153      00
 3154              	.LASF104:
 3155 0188 41504232 		.ascii	"APB2RSTR\000"
 3155      52535452 
 3155      00
 3156              	.LASF31:
 3157 0191 45585449 		.ascii	"EXTI9_5_IRQn\000"
 3157      395F355F 
 3157      4952516E 
 3157      00
 3158              	.LASF120:
 3159 019e 43434552 		.ascii	"CCER\000"
 3159      00
 3160              	.LASF96:
 3161 01a3 4F50544B 		.ascii	"OPTKEYR\000"
 3161      45595200 
 3162              	.LASF65:
 3163 01ab 75696E74 		.ascii	"uint16_t\000"
 3163      31365F74 
 3163      00
 3164              	.LASF94:
 3165 01b4 4144435F 		.ascii	"ADC_TypeDef\000"
 3165      54797065 
 3165      44656600 
 3166              	.LASF26:
 3167 01c0 41444331 		.ascii	"ADC1_2_IRQn\000"
 3167      5F325F49 
 3167      52516E00 
 3168              	.LASF6:
 3169 01cc 50656E64 		.ascii	"PendSV_IRQn\000"
 3169      53565F49 
 3169      52516E00 
 3170              	.LASF57:
 3171 01d8 73686F72 		.ascii	"short unsigned int\000"
 3171      7420756E 
 3171      7369676E 
 3171      65642069 
 3171      6E7400
 3172              	.LASF22:
 3173 01eb 444D4131 		.ascii	"DMA1_Channel4_IRQn\000"
 3173      5F436861 
 3173      6E6E656C 
 3173      345F4952 
 3173      516E00
 3174              	.LASF56:
 3175 01fe 5F5F7569 		.ascii	"__uint16_t\000"
 3175      6E743136 
 3175      5F7400
 3176              	.LASF59:
 3177 0209 5F5F7569 		.ascii	"__uint32_t\000"
ARM GAS  /tmp/cch27VDe.s 			page 62


 3177      6E743332 
 3177      5F7400
 3178              	.LASF151:
 3179 0214 656E6162 		.ascii	"enable_TIM3_delay\000"
 3179      6C655F54 
 3179      494D335F 
 3179      64656C61 
 3179      7900
 3180              	.LASF2:
 3181 0226 42757346 		.ascii	"BusFault_IRQn\000"
 3181      61756C74 
 3181      5F495251 
 3181      6E00
 3182              	.LASF155:
 3183 0234 76546173 		.ascii	"vTaskStartScheduler\000"
 3183      6B537461 
 3183      72745363 
 3183      68656475 
 3183      6C657200 
 3184              	.LASF95:
 3185 0248 4B455952 		.ascii	"KEYR\000"
 3185      00
 3186              	.LASF134:
 3187 024d 42445452 		.ascii	"BDTR\000"
 3187      00
 3188              	.LASF63:
 3189 0252 756E7369 		.ascii	"unsigned int\000"
 3189      676E6564 
 3189      20696E74 
 3189      00
 3190              	.LASF1:
 3191 025f 4D656D6F 		.ascii	"MemoryManagement_IRQn\000"
 3191      72794D61 
 3191      6E616765 
 3191      6D656E74 
 3191      5F495251 
 3192              	.LASF60:
 3193 0275 6C6F6E67 		.ascii	"long unsigned int\000"
 3193      20756E73 
 3193      69676E65 
 3193      6420696E 
 3193      7400
 3194              	.LASF102:
 3195 0287 4750494F 		.ascii	"GPIO_TypeDef\000"
 3195      5F547970 
 3195      65446566 
 3195      00
 3196              	.LASF112:
 3197 0294 5243435F 		.ascii	"RCC_TypeDef\000"
 3197      54797065 
 3197      44656600 
 3198              	.LASF146:
 3199 02a0 7461736B 		.ascii	"task1\000"
 3199      3100
 3200              	.LASF144:
 3201 02a6 7461736B 		.ascii	"task2\000"
 3201      3200
ARM GAS  /tmp/cch27VDe.s 			page 63


 3202              	.LASF143:
 3203 02ac 7461736B 		.ascii	"task3\000"
 3203      3300
 3204              	.LASF23:
 3205 02b2 444D4131 		.ascii	"DMA1_Channel5_IRQn\000"
 3205      5F436861 
 3205      6E6E656C 
 3205      355F4952 
 3205      516E00
 3206              	.LASF114:
 3207 02c5 534D4352 		.ascii	"SMCR\000"
 3207      00
 3208              	.LASF45:
 3209 02ca 55534152 		.ascii	"USART1_IRQn\000"
 3209      54315F49 
 3209      52516E00 
 3210              	.LASF106:
 3211 02d6 41484245 		.ascii	"AHBENR\000"
 3211      4E5200
 3212              	.LASF48:
 3213 02dd 45585449 		.ascii	"EXTI15_10_IRQn\000"
 3213      31355F31 
 3213      305F4952 
 3213      516E00
 3214              	.LASF156:
 3215 02ec 474E5520 		.ascii	"GNU C17 10.3.1 20210824 (release) -mcpu=cortex-m3 -"
 3215      43313720 
 3215      31302E33 
 3215      2E312032 
 3215      30323130 
 3216 031f 6D746875 		.ascii	"mthumb -mfloat-abi=soft -march=armv7-m -g -gdwarf-2"
 3216      6D62202D 
 3216      6D666C6F 
 3216      61742D61 
 3216      62693D73 
 3217 0352 202D4F73 		.ascii	" -Os -fomit-frame-pointer\000"
 3217      202D666F 
 3217      6D69742D 
 3217      6672616D 
 3217      652D706F 
 3218              	.LASF43:
 3219 036c 53504931 		.ascii	"SPI1_IRQn\000"
 3219      5F495251 
 3219      6E00
 3220              	.LASF7:
 3221 0376 53797354 		.ascii	"SysTick_IRQn\000"
 3221      69636B5F 
 3221      4952516E 
 3221      00
 3222              	.LASF35:
 3223 0383 54494D31 		.ascii	"TIM1_CC_IRQn\000"
 3223      5F43435F 
 3223      4952516E 
 3223      00
 3224              	.LASF147:
 3225 0390 4952516E 		.ascii	"IRQn\000"
 3225      00
ARM GAS  /tmp/cch27VDe.s 			page 64


 3226              	.LASF82:
 3227 0395 4A4F4652 		.ascii	"JOFR1\000"
 3227      3100
 3228              	.LASF83:
 3229 039b 4A4F4652 		.ascii	"JOFR2\000"
 3229      3200
 3230              	.LASF84:
 3231 03a1 4A4F4652 		.ascii	"JOFR3\000"
 3231      3300
 3232              	.LASF85:
 3233 03a7 4A4F4652 		.ascii	"JOFR4\000"
 3233      3400
 3234              	.LASF20:
 3235 03ad 444D4131 		.ascii	"DMA1_Channel2_IRQn\000"
 3235      5F436861 
 3235      6E6E656C 
 3235      325F4952 
 3235      516E00
 3236              	.LASF158:
 3237 03c0 2F686F6D 		.ascii	"/home/junior/Codigos/6-Stm32_GCC_FreeRTOS10.2.1/3-C"
 3237      652F6A75 
 3237      6E696F72 
 3237      2F436F64 
 3237      69676F73 
 3238 03f3 6F6D5072 		.ascii	"omProcessos\000"
 3238      6F636573 
 3238      736F7300 
 3239              	.LASF4:
 3240 03ff 53564361 		.ascii	"SVCall_IRQn\000"
 3240      6C6C5F49 
 3240      52516E00 
 3241              	.LASF41:
 3242 040b 49324332 		.ascii	"I2C2_EV_IRQn\000"
 3242      5F45565F 
 3242      4952516E 
 3242      00
 3243              	.LASF154:
 3244 0418 78546173 		.ascii	"xTaskCreate\000"
 3244      6B437265 
 3244      61746500 
 3245              	.LASF75:
 3246 0424 49414252 		.ascii	"IABR\000"
 3246      00
 3247              	.LASF150:
 3248 0429 44656C61 		.ascii	"Delay\000"
 3248      7900
 3249              	.LASF44:
 3250 042f 53504932 		.ascii	"SPI2_IRQn\000"
 3250      5F495251 
 3250      6E00
 3251              	.LASF149:
 3252 0439 656E6162 		.ascii	"enable_interrupt\000"
 3252      6C655F69 
 3252      6E746572 
 3252      72757074 
 3252      00
 3253              	.LASF80:
ARM GAS  /tmp/cch27VDe.s 			page 65


 3254 044a 534D5052 		.ascii	"SMPR1\000"
 3254      3100
 3255              	.LASF81:
 3256 0450 534D5052 		.ascii	"SMPR2\000"
 3256      3200
 3257              	.LASF69:
 3258 0456 49434552 		.ascii	"ICER\000"
 3258      00
 3259              	.LASF110:
 3260 045b 41484252 		.ascii	"AHBRSTR\000"
 3260      53545200 
 3261              	.LASF157:
 3262 0463 2E2E2F33 		.ascii	"../3-ComProcessos/main.c\000"
 3262      2D436F6D 
 3262      50726F63 
 3262      6573736F 
 3262      732F6D61 
 3263              	.LASF86:
 3264 047c 53515231 		.ascii	"SQR1\000"
 3264      00
 3265              	.LASF87:
 3266 0481 53515232 		.ascii	"SQR2\000"
 3266      00
 3267              	.LASF88:
 3268 0486 53515233 		.ascii	"SQR3\000"
 3268      00
 3269              	.LASF19:
 3270 048b 444D4131 		.ascii	"DMA1_Channel1_IRQn\000"
 3270      5F436861 
 3270      6E6E656C 
 3270      315F4952 
 3270      516E00
 3271              	.LASF68:
 3272 049e 52455345 		.ascii	"RESERVED0\000"
 3272      52564544 
 3272      3000
 3273              	.LASF113:
 3274 04a8 52455345 		.ascii	"RESERVED1\000"
 3274      52564544 
 3274      3100
 3275              	.LASF72:
 3276 04b2 52455345 		.ascii	"RESERVED2\000"
 3276      52564544 
 3276      3200
 3277              	.LASF74:
 3278 04bc 52455345 		.ascii	"RESERVED3\000"
 3278      52564544 
 3278      3300
 3279              	.LASF76:
 3280 04c6 52455345 		.ascii	"RESERVED4\000"
 3280      52564544 
 3280      3400
 3281              	.LASF77:
 3282 04d0 52455345 		.ascii	"RESERVED5\000"
 3282      52564544 
 3282      3500
 3283              	.LASF117:
ARM GAS  /tmp/cch27VDe.s 			page 66


 3284 04da 52455345 		.ascii	"RESERVED6\000"
 3284      52564544 
 3284      3600
 3285              	.LASF121:
 3286 04e4 52455345 		.ascii	"RESERVED8\000"
 3286      52564544 
 3286      3800
 3287              	.LASF122:
 3288 04ee 52455345 		.ascii	"RESERVED9\000"
 3288      52564544 
 3288      3900
 3289              	.LASF159:
 3290 04f8 51756575 		.ascii	"QueueDefinition\000"
 3290      65446566 
 3290      696E6974 
 3290      696F6E00 
 3291              	.LASF152:
 3292 0508 7365745F 		.ascii	"set_system_clock_to_72Mhz\000"
 3292      73797374 
 3292      656D5F63 
 3292      6C6F636B 
 3292      5F746F5F 
 3293              	.LASF54:
 3294 0522 756E7369 		.ascii	"unsigned char\000"
 3294      676E6564 
 3294      20636861 
 3294      7200
 3295              	.LASF27:
 3296 0530 5553425F 		.ascii	"USB_HP_CAN1_TX_IRQn\000"
 3296      48505F43 
 3296      414E315F 
 3296      54585F49 
 3296      52516E00 
 3297              	.LASF18:
 3298 0544 45585449 		.ascii	"EXTI4_IRQn\000"
 3298      345F4952 
 3298      516E00
 3299              	.LASF55:
 3300 054f 73686F72 		.ascii	"short int\000"
 3300      7420696E 
 3300      7400
 3301              	.LASF67:
 3302 0559 49534552 		.ascii	"ISER\000"
 3302      00
 3303              	.LASF79:
 3304 055e 4E564943 		.ascii	"NVIC_Type\000"
 3304      5F547970 
 3304      6500
 3305              	.LASF97:
 3306 0568 52455345 		.ascii	"RESERVED\000"
 3306      52564544 
 3306      00
 3307              	.LASF28:
 3308 0571 5553425F 		.ascii	"USB_LP_CAN1_RX0_IRQn\000"
 3308      4C505F43 
 3308      414E315F 
 3308      5258305F 
ARM GAS  /tmp/cch27VDe.s 			page 67


 3308      4952516E 
 3309              	.LASF153:
 3310 0586 78517565 		.ascii	"xQueueGenericCreate\000"
 3310      75654765 
 3310      6E657269 
 3310      63437265 
 3310      61746500 
 3311              	.LASF162:
 3312 059a 41444331 		.ascii	"ADC1_configure\000"
 3312      5F636F6E 
 3312      66696775 
 3312      726500
 3313              	.LASF107:
 3314 05a9 41504232 		.ascii	"APB2ENR\000"
 3314      454E5200 
 3315              	.LASF12:
 3316 05b1 464C4153 		.ascii	"FLASH_IRQn\000"
 3316      485F4952 
 3316      516E00
 3317              	.LASF148:
 3318 05bc 64697361 		.ascii	"disable_interrupt\000"
 3318      626C655F 
 3318      696E7465 
 3318      72727570 
 3318      7400
 3319              	.LASF51:
 3320 05ce 4952516E 		.ascii	"IRQn_Type\000"
 3320      5F547970 
 3320      6500
 3321              	.LASF66:
 3322 05d8 75696E74 		.ascii	"uint32_t\000"
 3322      33325F74 
 3322      00
 3323              	.LASF119:
 3324 05e1 52455345 		.ascii	"RESERVED7\000"
 3324      52564544 
 3324      3700
 3325              	.LASF46:
 3326 05eb 55534152 		.ascii	"USART2_IRQn\000"
 3326      54325F49 
 3326      52516E00 
 3327              	.LASF3:
 3328 05f7 55736167 		.ascii	"UsageFault_IRQn\000"
 3328      65466175 
 3328      6C745F49 
 3328      52516E00 
 3329              	.LASF140:
 3330 0607 6C6F6E67 		.ascii	"long double\000"
 3330      20646F75 
 3330      626C6500 
 3331              	.LASF98:
 3332 0613 57525052 		.ascii	"WRPR\000"
 3332      00
 3333              	.LASF21:
 3334 0618 444D4131 		.ascii	"DMA1_Channel3_IRQn\000"
 3334      5F436861 
 3334      6E6E656C 
ARM GAS  /tmp/cch27VDe.s 			page 68


 3334      335F4952 
 3334      516E00
 3335              	.LASF141:
 3336 062b 63686172 		.ascii	"char\000"
 3336      00
 3337              	.LASF32:
 3338 0630 54494D31 		.ascii	"TIM1_BRK_IRQn\000"
 3338      5F42524B 
 3338      5F495251 
 3338      6E00
 3339              	.LASF137:
 3340 063e 444D4152 		.ascii	"DMAR\000"
 3340      00
 3341              	.LASF49:
 3342 0643 52544341 		.ascii	"RTCAlarm_IRQn\000"
 3342      6C61726D 
 3342      5F495251 
 3342      6E00
 3343              	.LASF0:
 3344 0651 4E6F6E4D 		.ascii	"NonMaskableInt_IRQn\000"
 3344      61736B61 
 3344      626C6549 
 3344      6E745F49 
 3344      52516E00 
 3345              	.LASF24:
 3346 0665 444D4131 		.ascii	"DMA1_Channel6_IRQn\000"
 3346      5F436861 
 3346      6E6E656C 
 3346      365F4952 
 3346      516E00
 3347              	.LASF108:
 3348 0678 41504231 		.ascii	"APB1ENR\000"
 3348      454E5200 
 3349              	.LASF10:
 3350 0680 54414D50 		.ascii	"TAMPER_IRQn\000"
 3350      45525F49 
 3350      52516E00 
 3351              	.LASF33:
 3352 068c 54494D31 		.ascii	"TIM1_UP_IRQn\000"
 3352      5F55505F 
 3352      4952516E 
 3352      00
 3353              	.LASF50:
 3354 0699 55534257 		.ascii	"USBWakeUp_IRQn\000"
 3354      616B6555 
 3354      705F4952 
 3354      516E00
 3355              	.LASF5:
 3356 06a8 44656275 		.ascii	"DebugMonitor_IRQn\000"
 3356      674D6F6E 
 3356      69746F72 
 3356      5F495251 
 3356      6E00
 3357              	.LASF47:
 3358 06ba 55534152 		.ascii	"USART3_IRQn\000"
 3358      54335F49 
 3358      52516E00 
ARM GAS  /tmp/cch27VDe.s 			page 69


 3359              	.LASF126:
 3360 06c6 43435231 		.ascii	"CCR1\000"
 3360      00
 3361              	.LASF36:
 3362 06cb 54494D32 		.ascii	"TIM2_IRQn\000"
 3362      5F495251 
 3362      6E00
 3363              	.LASF130:
 3364 06d5 43435233 		.ascii	"CCR3\000"
 3364      00
 3365              	.LASF132:
 3366 06da 43435234 		.ascii	"CCR4\000"
 3366      00
 3367              	.LASF160:
 3368 06df 78517565 		.ascii	"xQueue\000"
 3368      756500
 3369              	.LASF109:
 3370 06e6 42444352 		.ascii	"BDCR\000"
 3370      00
 3371              	.LASF17:
 3372 06eb 45585449 		.ascii	"EXTI3_IRQn\000"
 3372      335F4952 
 3372      516E00
 3373              	.LASF111:
 3374 06f6 43464752 		.ascii	"CFGR2\000"
 3374      3200
 3375              	.LASF64:
 3376 06fc 75696E74 		.ascii	"uint8_t\000"
 3376      385F7400 
 3377              	.LASF70:
 3378 0704 52534552 		.ascii	"RSERVED1\000"
 3378      56454431 
 3378      00
 3379              	.LASF78:
 3380 070d 53544952 		.ascii	"STIR\000"
 3380      00
 3381              	.LASF90:
 3382 0712 4A445231 		.ascii	"JDR1\000"
 3382      00
 3383              	.LASF91:
 3384 0717 4A445232 		.ascii	"JDR2\000"
 3384      00
 3385              	.LASF92:
 3386 071c 4A445233 		.ascii	"JDR3\000"
 3386      00
 3387              	.LASF93:
 3388 0721 4A445234 		.ascii	"JDR4\000"
 3388      00
 3389              	.LASF25:
 3390 0726 444D4131 		.ascii	"DMA1_Channel7_IRQn\000"
 3390      5F436861 
 3390      6E6E656C 
 3390      375F4952 
 3390      516E00
 3391              	.LASF103:
 3392 0739 43464752 		.ascii	"CFGR\000"
 3392      00
ARM GAS  /tmp/cch27VDe.s 			page 70


 3393              	.LASF40:
 3394 073e 49324331 		.ascii	"I2C1_ER_IRQn\000"
 3394      5F45525F 
 3394      4952516E 
 3394      00
 3395              	.LASF145:
 3396 074b 61726773 		.ascii	"args\000"
 3396      00
 3397              	.LASF161:
 3398 0750 6D61696E 		.ascii	"main\000"
 3398      00
 3399              	.LASF30:
 3400 0755 43414E31 		.ascii	"CAN1_SCE_IRQn\000"
 3400      5F534345 
 3400      5F495251 
 3400      6E00
 3401              	.LASF13:
 3402 0763 5243435F 		.ascii	"RCC_IRQn\000"
 3402      4952516E 
 3402      00
 3403              	.LASF37:
 3404 076c 54494D33 		.ascii	"TIM3_IRQn\000"
 3404      5F495251 
 3404      6E00
 3405              	.LASF15:
 3406 0776 45585449 		.ascii	"EXTI1_IRQn\000"
 3406      315F4952 
 3406      516E00
 3407              		.ident	"GCC: (GNU Arm Embedded Toolchain 10.3-2021.10) 10.3.1 20210824 (release)"
ARM GAS  /tmp/cch27VDe.s 			page 71


DEFINED SYMBOLS
                            *ABS*:0000000000000000 main.c
     /tmp/cch27VDe.s:77     .text:0000000000000000 $t
     /tmp/cch27VDe.s:82     .text:0000000000000000 task1
     /tmp/cch27VDe.s:105    .text:0000000000000002 task2
     /tmp/cch27VDe.s:127    .text:0000000000000004 task3
     /tmp/cch27VDe.s:150    .text:0000000000000006 ADC1_configure
     /tmp/cch27VDe.s:278    .text:0000000000000088 $d
     /tmp/cch27VDe.s:284    .text:0000000000000094 $t
     /tmp/cch27VDe.s:290    .text:0000000000000094 set_system_clock_to_72Mhz
     /tmp/cch27VDe.s:398    .text:0000000000000104 $d
     /tmp/cch27VDe.s:402    .text:0000000000000108 $t
     /tmp/cch27VDe.s:408    .text:0000000000000108 Delay
     /tmp/cch27VDe.s:479    .text:0000000000000134 $d
     /tmp/cch27VDe.s:483    .text:0000000000000138 $t
     /tmp/cch27VDe.s:489    .text:0000000000000138 enable_TIM3_delay
     /tmp/cch27VDe.s:527    .text:000000000000015c $d
     /tmp/cch27VDe.s:531    .text:0000000000000160 $t
     /tmp/cch27VDe.s:537    .text:0000000000000160 enable_interrupt
     /tmp/cch27VDe.s:569    .text:0000000000000174 $d
     /tmp/cch27VDe.s:573    .text:0000000000000178 $t
     /tmp/cch27VDe.s:579    .text:0000000000000178 disable_interrupt
     /tmp/cch27VDe.s:612    .text:0000000000000190 $d
     /tmp/cch27VDe.s:624    .text.startup:0000000000000000 $t
     /tmp/cch27VDe.s:630    .text.startup:0000000000000000 main
     /tmp/cch27VDe.s:693    .text.startup:000000000000004c $d

UNDEFINED SYMBOLS
xQueueGenericCreate
xTaskCreate
vTaskStartScheduler
