ARM GAS  /tmp/ccbw8mZO.s 			page 1


   1              		.cpu cortex-m3
   2              		.arch armv7-m
   3              		.fpu softvfp
   4              		.eabi_attribute 20, 1	@ Tag_ABI_FP_denormal
   5              		.eabi_attribute 21, 1	@ Tag_ABI_FP_exceptions
   6              		.eabi_attribute 23, 3	@ Tag_ABI_FP_number_model
   7              		.eabi_attribute 24, 1	@ Tag_ABI_align8_needed
   8              		.eabi_attribute 25, 1	@ Tag_ABI_align8_preserved
   9              		.eabi_attribute 26, 1	@ Tag_ABI_enum_size
  10              		.eabi_attribute 30, 4	@ Tag_ABI_optimization_goals
  11              		.eabi_attribute 34, 1	@ Tag_CPU_unaligned_access
  12              		.eabi_attribute 18, 4	@ Tag_ABI_PCS_wchar_t
  13              		.file	"main.c"
  14              	@ GNU C17 (GNU Arm Embedded Toolchain 10.3-2021.10) version 10.3.1 20210824 (release) (arm-none-eab
  15              	@	compiled by GNU C version 4.8.4, GMP version 6.1.0, MPFR version 3.1.4, MPC version 1.0.3, isl ve
  16              	
  17              	@ GGC heuristics: --param ggc-min-expand=100 --param ggc-min-heapsize=131072
  18              	@ options passed:  -I . -I ../3-ComProcessos
  19              	@ -I ../stm32f10x_lib/CMSIS/CM3/CoreSupport
  20              	@ -I ../stm32f10x_lib/CMSIS/CM3/DeviceSupport/ST/STM32F10x
  21              	@ -I ../stm32f10x_lib/STM32F10x_StdPeriph_Driver/inc
  22              	@ -I ../stm32f10x_lib/STM32F10x_StdPeriph_Driver -I ../freertos/include
  23              	@ -I ../freertos/portable/GCC/ARM_CM3 -imultilib thumb/v7-m/nofp
  24              	@ -iprefix /usr/bin/../lib/gcc/arm-none-eabi/10.3.1/
  25              	@ -isysroot /usr/bin/../arm-none-eabi -D__USES_INITFINI__ -D STM32F10X_MD
  26              	@ -D USE_STDPERIPH_DRIVER -D HSE_VALUE=8000000 -D RUN_FROM_FLASH=1
  27              	@ ../3-ComProcessos/main.c -mcpu=cortex-m3 -mthumb -mfloat-abi=soft
  28              	@ -mlibarch=armv7-m -march=armv7-m -auxbase-strip ../3-ComProcessos/main.o
  29              	@ -g -gdwarf-2 -Os -Wall -fomit-frame-pointer -fverbose-asm
  30              	@ options enabled:  -faggressive-loop-optimizations -fallocation-dce
  31              	@ -fauto-inc-dec -fbranch-count-reg -fcaller-saves -fcode-hoisting
  32              	@ -fcombine-stack-adjustments -fcompare-elim -fcprop-registers
  33              	@ -fcrossjumping -fcse-follow-jumps -fdefer-pop
  34              	@ -fdelete-null-pointer-checks -fdevirtualize -fdevirtualize-speculatively
  35              	@ -fdwarf2-cfi-asm -fearly-inlining -feliminate-unused-debug-symbols
  36              	@ -feliminate-unused-debug-types -fexpensive-optimizations
  37              	@ -fforward-propagate -ffp-int-builtin-inexact -ffunction-cse -fgcse
  38              	@ -fgcse-lm -fgnu-unique -fguess-branch-probability -fhoist-adjacent-loads
  39              	@ -fident -fif-conversion -fif-conversion2 -findirect-inlining -finline
  40              	@ -finline-atomics -finline-functions -finline-functions-called-once
  41              	@ -finline-small-functions -fipa-bit-cp -fipa-cp -fipa-icf
  42              	@ -fipa-icf-functions -fipa-icf-variables -fipa-profile -fipa-pure-const
  43              	@ -fipa-ra -fipa-reference -fipa-reference-addressable -fipa-sra
  44              	@ -fipa-stack-alignment -fipa-vrp -fira-hoist-pressure
  45              	@ -fira-share-save-slots -fira-share-spill-slots
  46              	@ -fisolate-erroneous-paths-dereference -fivopts -fkeep-static-consts
  47              	@ -fleading-underscore -flifetime-dse -flra-remat -fmath-errno
  48              	@ -fmerge-constants -fmerge-debug-strings -fmove-loop-invariants
  49              	@ -fomit-frame-pointer -foptimize-sibling-calls -fpartial-inlining
  50              	@ -fpeephole -fpeephole2 -fplt -fprefetch-loop-arrays -freg-struct-return
  51              	@ -freorder-blocks -freorder-functions -frerun-cse-after-loop
  52              	@ -fsched-critical-path-heuristic -fsched-dep-count-heuristic
  53              	@ -fsched-group-heuristic -fsched-interblock -fsched-last-insn-heuristic
  54              	@ -fsched-pressure -fsched-rank-heuristic -fsched-spec
  55              	@ -fsched-spec-insn-heuristic -fsched-stalled-insns-dep -fschedule-insns2
  56              	@ -fsection-anchors -fsemantic-interposition -fshow-column
  57              	@ -fshrink-wrap-separate -fsigned-zeros -fsplit-ivs-in-unroller
ARM GAS  /tmp/ccbw8mZO.s 			page 2


  58              	@ -fsplit-wide-types -fssa-backprop -fssa-phiopt -fstdarg-opt
  59              	@ -fstore-merging -fstrict-aliasing -fstrict-volatile-bitfields
  60              	@ -fsync-libcalls -fthread-jumps -ftoplevel-reorder -ftrapping-math
  61              	@ -ftree-bit-ccp -ftree-builtin-call-dce -ftree-ccp -ftree-ch
  62              	@ -ftree-coalesce-vars -ftree-copy-prop -ftree-cselim -ftree-dce
  63              	@ -ftree-dominator-opts -ftree-dse -ftree-forwprop -ftree-fre
  64              	@ -ftree-loop-distribute-patterns -ftree-loop-if-convert -ftree-loop-im
  65              	@ -ftree-loop-ivcanon -ftree-loop-optimize -ftree-parallelize-loops=
  66              	@ -ftree-phiprop -ftree-pre -ftree-pta -ftree-reassoc -ftree-scev-cprop
  67              	@ -ftree-sink -ftree-slsr -ftree-sra -ftree-switch-conversion
  68              	@ -ftree-tail-merge -ftree-ter -ftree-vrp -funit-at-a-time -fvar-tracking
  69              	@ -fvar-tracking-assignments -fverbose-asm -fzero-initialized-in-bss
  70              	@ -masm-syntax-unified -mbe32 -mfix-cortex-m3-ldrd -mlittle-endian
  71              	@ -mpic-data-is-text-relative -msched-prolog -mthumb -munaligned-access
  72              	@ -mvectorize-with-neon-quad
  73              	
  74              		.text
  75              	.Ltext0:
  76              		.cfi_sections	.debug_frame
  77              		.align	1
  78              		.syntax unified
  79              		.thumb
  80              		.thumb_func
  81              		.type	task2, %function
  82              	task2:
  83              	.LVL0:
  84              	.LFB43:
  85              		.file 1 "../3-ComProcessos/main.c"
   1:../3-ComProcessos/main.c **** /*
   2:../3-ComProcessos/main.c ****  * Projeto LCD
   3:../3-ComProcessos/main.c ****  *		Modificações necessárias: 
   4:../3-ComProcessos/main.c ****  *		  FreeRTOSConfig:
   5:../3-ComProcessos/main.c ****  *			 TICK_RATE_HZ definido em (100000)Hz -> 1µs
   6:../3-ComProcessos/main.c ****  *
   7:../3-ComProcessos/main.c ****  *	Clock do sistema: 
   8:../3-ComProcessos/main.c ****  *		72Mhz
   9:../3-ComProcessos/main.c ****  *	
  10:../3-ComProcessos/main.c ****  *	Lib construída para Arduíno UNO:
  11:../3-ComProcessos/main.c ****  *		myLcd.h
  12:../3-ComProcessos/main.c ****  *			#define delayMicroseconds(X)   vTaskDelay(X)
  13:../3-ComProcessos/main.c ****  *			#define delay(X)  vTaskDelay(X)
  14:../3-ComProcessos/main.c ****  *
  15:../3-ComProcessos/main.c ****  * Pinos do LCD 16x2:
  16:../3-ComProcessos/main.c ****  *		GPIOA
  17:../3-ComProcessos/main.c ****  *			RS -> P2		| EN -> P3
  18:../3-ComProcessos/main.c ****  *			D4	-> P4		| D5 -> P5
  19:../3-ComProcessos/main.c ****  *			D6 -> P6		| D7 -> P7
  20:../3-ComProcessos/main.c ****  * */
  21:../3-ComProcessos/main.c **** //
  22:../3-ComProcessos/main.c **** // FreeRTOS: 
  23:../3-ComProcessos/main.c **** #include "FreeRTOS.h"
  24:../3-ComProcessos/main.c **** #include "queue.h"
  25:../3-ComProcessos/main.c **** #include "task.h"
  26:../3-ComProcessos/main.c **** 
  27:../3-ComProcessos/main.c **** #include <string.h>
  28:../3-ComProcessos/main.c **** #include <stdlib.h>
  29:../3-ComProcessos/main.c **** 
ARM GAS  /tmp/ccbw8mZO.s 			page 3


  30:../3-ComProcessos/main.c **** #define __delay_ms( TEMPO ) vTaskDelay(pdMS_TO_TICKS( TEMPO ))
  31:../3-ComProcessos/main.c **** #define __delay( TEMPO ) vTaskDelay( TEMPO )
  32:../3-ComProcessos/main.c **** 
  33:../3-ComProcessos/main.c **** // LCD 16x2
  34:../3-ComProcessos/main.c **** #include "stm32f10x.h"
  35:../3-ComProcessos/main.c **** #include "Me.h"
  36:../3-ComProcessos/main.c **** #include "myLcd.h"
  37:../3-ComProcessos/main.c **** #include "Serial.h"
  38:../3-ComProcessos/main.c **** 
  39:../3-ComProcessos/main.c **** #define BIN 2
  40:../3-ComProcessos/main.c **** #define OCT 8
  41:../3-ComProcessos/main.c **** #define DEC 10
  42:../3-ComProcessos/main.c **** #define HEX 16
  43:../3-ComProcessos/main.c **** 
  44:../3-ComProcessos/main.c **** static QueueHandle_t xQueue; 
  45:../3-ComProcessos/main.c **** 
  46:../3-ComProcessos/main.c **** static void task1(void *args __attribute((unused))) {
  47:../3-ComProcessos/main.c **** 	RCC->APB2ENR |= (1<<2);
  48:../3-ComProcessos/main.c **** 	GPIOA->CRL	 = 0x33333300; // Hab PA(2-7) out PP
  49:../3-ComProcessos/main.c **** 
  50:../3-ComProcessos/main.c **** 	set_bit(IO,RS);
  51:../3-ComProcessos/main.c **** 	set_bit(IO,RS);
  52:../3-ComProcessos/main.c **** 	set_bit(IO,EN);
  53:../3-ComProcessos/main.c **** 	set_bit(IO,D4);
  54:../3-ComProcessos/main.c **** 	set_bit(IO,D5);
  55:../3-ComProcessos/main.c **** 	set_bit(IO,D6);
  56:../3-ComProcessos/main.c **** 	set_bit(IO,D7);
  57:../3-ComProcessos/main.c **** 
  58:../3-ComProcessos/main.c ****   disp_init();
  59:../3-ComProcessos/main.c ****   disp_cmd(0x0C);
  60:../3-ComProcessos/main.c **** 
  61:../3-ComProcessos/main.c ****   disp_text("Teste De\\ !&(#@!%@",0,0);
  62:../3-ComProcessos/main.c ****   u8 cont = 0;
  63:../3-ComProcessos/main.c **** 	while(1){
  64:../3-ComProcessos/main.c **** 
  65:../3-ComProcessos/main.c **** 		cont ++;
  66:../3-ComProcessos/main.c **** 		cont &= 0x00ff;
  67:../3-ComProcessos/main.c **** 		disp_text("CONTADOR: ", 1, 0);
  68:../3-ComProcessos/main.c **** 		disp_number( cont, 1, 11);
  69:../3-ComProcessos/main.c **** 		__delay_ms(10);
  70:../3-ComProcessos/main.c **** 		
  71:../3-ComProcessos/main.c **** 	}
  72:../3-ComProcessos/main.c **** }
  73:../3-ComProcessos/main.c **** 
  74:../3-ComProcessos/main.c **** static void task2(void *args __attribute ((unused))){
  86              		.loc 1 74 53 view -0
  87              		.cfi_startproc
  88              		@ Volatile: function does not return.
  89              		@ args = 0, pretend = 0, frame = 0
  90              		@ frame_needed = 0, uses_anonymous_args = 0
  75:../3-ComProcessos/main.c **** 	RCC->APB2ENR |= (1<<4); // En GPIOC
  91              		.loc 1 75 2 view .LVU1
  92              	@ ../3-ComProcessos/main.c:75: 	RCC->APB2ENR |= (1<<4); // En GPIOC
  93              		.loc 1 75 15 is_stmt 0 view .LVU2
  94 0000 094A     		ldr	r2, .L3	@ tmp120,
  95              	@ ../3-ComProcessos/main.c:74: static void task2(void *args __attribute ((unused))){
  74:../3-ComProcessos/main.c **** 	RCC->APB2ENR |= (1<<4); // En GPIOC
ARM GAS  /tmp/ccbw8mZO.s 			page 4


  96              		.loc 1 74 53 view .LVU3
  97 0002 08B5     		push	{r3, lr}	@
  98              	.LCFI0:
  99              		.cfi_def_cfa_offset 8
 100              		.cfi_offset 3, -8
 101              		.cfi_offset 14, -4
 102              	@ ../3-ComProcessos/main.c:75: 	RCC->APB2ENR |= (1<<4); // En GPIOC
 103              		.loc 1 75 15 view .LVU4
 104 0004 9369     		ldr	r3, [r2, #24]	@ _1, MEM[(struct RCC_TypeDef *)1073876992B].APB2ENR
 105              	@ ../3-ComProcessos/main.c:76: 	GPIOC->CRH	|= (0b11<< 20); // PC13 out PP 
  76:../3-ComProcessos/main.c **** 	GPIOC->CRH	|= (0b11<< 20); // PC13 out PP 
 106              		.loc 1 76 13 view .LVU5
 107 0006 094C     		ldr	r4, .L3+4	@ tmp122,
 108              	@ ../3-ComProcessos/main.c:75: 	RCC->APB2ENR |= (1<<4); // En GPIOC
  75:../3-ComProcessos/main.c **** 	RCC->APB2ENR |= (1<<4); // En GPIOC
 109              		.loc 1 75 15 view .LVU6
 110 0008 43F01003 		orr	r3, r3, #16	@ _2, _1,
 111 000c 9361     		str	r3, [r2, #24]	@ _2, MEM[(struct RCC_TypeDef *)1073876992B].APB2ENR
 112              		.loc 1 76 2 is_stmt 1 view .LVU7
 113              	@ ../3-ComProcessos/main.c:76: 	GPIOC->CRH	|= (0b11<< 20); // PC13 out PP 
 114              		.loc 1 76 13 is_stmt 0 view .LVU8
 115 000e 6368     		ldr	r3, [r4, #4]	@ _3, MEM[(struct GPIO_TypeDef *)1073811456B].CRH
 116 0010 43F44013 		orr	r3, r3, #3145728	@ _4, _3,
 117 0014 6360     		str	r3, [r4, #4]	@ _4, MEM[(struct GPIO_TypeDef *)1073811456B].CRH
 118              	.LVL1:
 119              	.L2:
  77:../3-ComProcessos/main.c **** 
  78:../3-ComProcessos/main.c **** 	while(1){
 120              		.loc 1 78 2 is_stmt 1 discriminator 1 view .LVU9
  79:../3-ComProcessos/main.c **** 		GPIOC->ODR	^= (1<<13);
 121              		.loc 1 79 3 discriminator 1 view .LVU10
 122              	@ ../3-ComProcessos/main.c:79: 		GPIOC->ODR	^= (1<<13);
 123              		.loc 1 79 14 is_stmt 0 discriminator 1 view .LVU11
 124 0016 E368     		ldr	r3, [r4, #12]	@ _5, MEM[(struct GPIO_TypeDef *)1073811456B].ODR
 125              	@ ../3-ComProcessos/main.c:80: 		__delay_ms(50);
  80:../3-ComProcessos/main.c **** 		__delay_ms(50);
 126              		.loc 1 80 3 discriminator 1 view .LVU12
 127 0018 41F28830 		movw	r0, #5000	@,
 128              	@ ../3-ComProcessos/main.c:79: 		GPIOC->ODR	^= (1<<13);
  79:../3-ComProcessos/main.c **** 		GPIOC->ODR	^= (1<<13);
 129              		.loc 1 79 14 discriminator 1 view .LVU13
 130 001c 83F40053 		eor	r3, r3, #8192	@ _6, _5,
 131 0020 E360     		str	r3, [r4, #12]	@ _6, MEM[(struct GPIO_TypeDef *)1073811456B].ODR
 132              		.loc 1 80 3 is_stmt 1 discriminator 1 view .LVU14
 133 0022 FFF7FEFF 		bl	vTaskDelay		@
 134              	.LVL2:
  78:../3-ComProcessos/main.c **** 		GPIOC->ODR	^= (1<<13);
 135              		.loc 1 78 7 discriminator 1 view .LVU15
 136 0026 F6E7     		b	.L2		@
 137              	.L4:
 138              		.align	2
 139              	.L3:
 140 0028 00100240 		.word	1073876992
 141 002c 00100140 		.word	1073811456
 142              		.cfi_endproc
 143              	.LFE43:
 144              		.size	task2, .-task2
ARM GAS  /tmp/ccbw8mZO.s 			page 5


 145              		.section	.rodata.str1.1,"aMS",%progbits,1
 146              	.LC0:
 147 0000 54657374 		.ascii	"Teste De\\ !&(#@!%@\000"
 147      65204465 
 147      5C202126 
 147      28234021 
 147      254000
 148              	.LC1:
 149 0013 434F4E54 		.ascii	"CONTADOR: \000"
 149      41444F52 
 149      3A2000
 150              		.text
 151              		.align	1
 152              		.syntax unified
 153              		.thumb
 154              		.thumb_func
 155              		.type	task1, %function
 156              	task1:
 157              	.LVL3:
 158              	.LFB42:
  46:../3-ComProcessos/main.c **** 	RCC->APB2ENR |= (1<<2);
 159              		.loc 1 46 53 view -0
 160              		.cfi_startproc
 161              		@ args = 0, pretend = 0, frame = 0
 162              		@ frame_needed = 0, uses_anonymous_args = 0
  47:../3-ComProcessos/main.c **** 	GPIOA->CRL	 = 0x33333300; // Hab PA(2-7) out PP
 163              		.loc 1 47 2 view .LVU17
 164              	@ ../3-ComProcessos/main.c:47: 	RCC->APB2ENR |= (1<<2);
  47:../3-ComProcessos/main.c **** 	GPIOA->CRL	 = 0x33333300; // Hab PA(2-7) out PP
 165              		.loc 1 47 15 is_stmt 0 view .LVU18
 166 0030 204A     		ldr	r2, .L7	@ tmp132,
 167              	@ ../3-ComProcessos/main.c:46: static void task1(void *args __attribute((unused))) {
  46:../3-ComProcessos/main.c **** 	RCC->APB2ENR |= (1<<2);
 168              		.loc 1 46 53 view .LVU19
 169 0032 38B5     		push	{r3, r4, r5, lr}	@
 170              	.LCFI1:
 171              		.cfi_def_cfa_offset 16
 172              		.cfi_offset 3, -16
 173              		.cfi_offset 4, -12
 174              		.cfi_offset 5, -8
 175              		.cfi_offset 14, -4
 176              	@ ../3-ComProcessos/main.c:47: 	RCC->APB2ENR |= (1<<2);
  47:../3-ComProcessos/main.c **** 	GPIOA->CRL	 = 0x33333300; // Hab PA(2-7) out PP
 177              		.loc 1 47 15 view .LVU20
 178 0034 9369     		ldr	r3, [r2, #24]	@ _1, MEM[(struct RCC_TypeDef *)1073876992B].APB2ENR
 179              	@ ../3-ComProcessos/main.c:62:   u8 cont = 0;
  62:../3-ComProcessos/main.c **** 	while(1){
 180              		.loc 1 62 6 view .LVU21
 181 0036 0024     		movs	r4, #0	@ cont,
 182              	@ ../3-ComProcessos/main.c:47: 	RCC->APB2ENR |= (1<<2);
  47:../3-ComProcessos/main.c **** 	GPIOA->CRL	 = 0x33333300; // Hab PA(2-7) out PP
 183              		.loc 1 47 15 view .LVU22
 184 0038 43F00403 		orr	r3, r3, #4	@ _2, _1,
 185 003c 9361     		str	r3, [r2, #24]	@ _2, MEM[(struct RCC_TypeDef *)1073876992B].APB2ENR
  48:../3-ComProcessos/main.c **** 
 186              		.loc 1 48 2 is_stmt 1 view .LVU23
 187              	@ ../3-ComProcessos/main.c:48: 	GPIOA->CRL	 = 0x33333300; // Hab PA(2-7) out PP
ARM GAS  /tmp/ccbw8mZO.s 			page 6


  48:../3-ComProcessos/main.c **** 
 188              		.loc 1 48 14 is_stmt 0 view .LVU24
 189 003e 1E4B     		ldr	r3, .L7+4	@ tmp134,
 190 0040 1E4A     		ldr	r2, .L7+8	@ tmp135,
 191              	@ ../3-ComProcessos/main.c:67: 		disp_text("CONTADOR: ", 1, 0);
  67:../3-ComProcessos/main.c **** 		disp_number( cont, 1, 11);
 192              		.loc 1 67 3 view .LVU25
 193 0042 1F4D     		ldr	r5, .L7+12	@ tmp155,
 194              	@ ../3-ComProcessos/main.c:48: 	GPIOA->CRL	 = 0x33333300; // Hab PA(2-7) out PP
  48:../3-ComProcessos/main.c **** 
 195              		.loc 1 48 14 view .LVU26
 196 0044 1A60     		str	r2, [r3]	@ tmp135, MEM[(struct GPIO_TypeDef *)1073809408B].CRL
  50:../3-ComProcessos/main.c **** 	set_bit(IO,RS);
 197              		.loc 1 50 2 is_stmt 1 view .LVU27
 198 0046 DA68     		ldr	r2, [r3, #12]	@ _3, MEM[(struct GPIO_TypeDef *)1073809408B].ODR
 199 0048 42F00402 		orr	r2, r2, #4	@ _4, _3,
 200 004c DA60     		str	r2, [r3, #12]	@ _4, MEM[(struct GPIO_TypeDef *)1073809408B].ODR
  51:../3-ComProcessos/main.c **** 	set_bit(IO,EN);
 201              		.loc 1 51 2 view .LVU28
 202 004e DA68     		ldr	r2, [r3, #12]	@ _5, MEM[(struct GPIO_TypeDef *)1073809408B].ODR
 203 0050 42F00402 		orr	r2, r2, #4	@ _6, _5,
 204 0054 DA60     		str	r2, [r3, #12]	@ _6, MEM[(struct GPIO_TypeDef *)1073809408B].ODR
  52:../3-ComProcessos/main.c **** 	set_bit(IO,D4);
 205              		.loc 1 52 2 view .LVU29
 206 0056 DA68     		ldr	r2, [r3, #12]	@ _7, MEM[(struct GPIO_TypeDef *)1073809408B].ODR
 207 0058 42F00802 		orr	r2, r2, #8	@ _8, _7,
 208 005c DA60     		str	r2, [r3, #12]	@ _8, MEM[(struct GPIO_TypeDef *)1073809408B].ODR
  53:../3-ComProcessos/main.c **** 	set_bit(IO,D5);
 209              		.loc 1 53 2 view .LVU30
 210 005e DA68     		ldr	r2, [r3, #12]	@ _9, MEM[(struct GPIO_TypeDef *)1073809408B].ODR
 211 0060 42F01002 		orr	r2, r2, #16	@ _10, _9,
 212 0064 DA60     		str	r2, [r3, #12]	@ _10, MEM[(struct GPIO_TypeDef *)1073809408B].ODR
  54:../3-ComProcessos/main.c **** 	set_bit(IO,D6);
 213              		.loc 1 54 2 view .LVU31
 214 0066 DA68     		ldr	r2, [r3, #12]	@ _11, MEM[(struct GPIO_TypeDef *)1073809408B].ODR
 215 0068 42F02002 		orr	r2, r2, #32	@ _12, _11,
 216 006c DA60     		str	r2, [r3, #12]	@ _12, MEM[(struct GPIO_TypeDef *)1073809408B].ODR
  55:../3-ComProcessos/main.c **** 	set_bit(IO,D7);
 217              		.loc 1 55 2 view .LVU32
 218 006e DA68     		ldr	r2, [r3, #12]	@ _13, MEM[(struct GPIO_TypeDef *)1073809408B].ODR
 219 0070 42F04002 		orr	r2, r2, #64	@ _14, _13,
 220 0074 DA60     		str	r2, [r3, #12]	@ _14, MEM[(struct GPIO_TypeDef *)1073809408B].ODR
  56:../3-ComProcessos/main.c **** 
 221              		.loc 1 56 2 view .LVU33
 222 0076 DA68     		ldr	r2, [r3, #12]	@ _15, MEM[(struct GPIO_TypeDef *)1073809408B].ODR
 223 0078 42F08002 		orr	r2, r2, #128	@ _16, _15,
 224 007c DA60     		str	r2, [r3, #12]	@ _16, MEM[(struct GPIO_TypeDef *)1073809408B].ODR
  58:../3-ComProcessos/main.c ****   disp_cmd(0x0C);
 225              		.loc 1 58 3 view .LVU34
 226 007e FFF7FEFF 		bl	disp_init		@
 227              	.LVL4:
  59:../3-ComProcessos/main.c **** 
 228              		.loc 1 59 3 view .LVU35
 229 0082 0C20     		movs	r0, #12	@,
 230 0084 FFF7FEFF 		bl	disp_cmd		@
 231              	.LVL5:
  61:../3-ComProcessos/main.c ****   u8 cont = 0;
ARM GAS  /tmp/ccbw8mZO.s 			page 7


 232              		.loc 1 61 3 view .LVU36
 233 0088 0022     		movs	r2, #0	@,
 234 008a 0E48     		ldr	r0, .L7+16	@,
 235 008c 1146     		mov	r1, r2	@,
 236 008e FFF7FEFF 		bl	disp_text		@
 237              	.LVL6:
  62:../3-ComProcessos/main.c **** 	while(1){
 238              		.loc 1 62 3 view .LVU37
 239              	.L6:
  63:../3-ComProcessos/main.c **** 
 240              		.loc 1 63 2 discriminator 1 view .LVU38
  65:../3-ComProcessos/main.c **** 		cont &= 0x00ff;
 241              		.loc 1 65 3 discriminator 1 view .LVU39
 242              	@ ../3-ComProcessos/main.c:65: 		cont ++;
  65:../3-ComProcessos/main.c **** 		cont &= 0x00ff;
 243              		.loc 1 65 8 is_stmt 0 discriminator 1 view .LVU40
 244 0092 0134     		adds	r4, r4, #1	@ tmp151, cont,
 245              	.LVL7:
 246              	@ ../3-ComProcessos/main.c:67: 		disp_text("CONTADOR: ", 1, 0);
  67:../3-ComProcessos/main.c **** 		disp_number( cont, 1, 11);
 247              		.loc 1 67 3 discriminator 1 view .LVU41
 248 0094 2846     		mov	r0, r5	@, tmp155
 249 0096 0022     		movs	r2, #0	@,
 250 0098 0121     		movs	r1, #1	@,
 251              	@ ../3-ComProcessos/main.c:65: 		cont ++;
  65:../3-ComProcessos/main.c **** 		cont &= 0x00ff;
 252              		.loc 1 65 8 discriminator 1 view .LVU42
 253 009a E4B2     		uxtb	r4, r4	@ cont, tmp151
 254              	.LVL8:
  66:../3-ComProcessos/main.c **** 		disp_text("CONTADOR: ", 1, 0);
 255              		.loc 1 66 3 is_stmt 1 discriminator 1 view .LVU43
  67:../3-ComProcessos/main.c **** 		disp_number( cont, 1, 11);
 256              		.loc 1 67 3 discriminator 1 view .LVU44
 257 009c FFF7FEFF 		bl	disp_text		@
 258              	.LVL9:
  68:../3-ComProcessos/main.c **** 		__delay_ms(10);
 259              		.loc 1 68 3 discriminator 1 view .LVU45
 260 00a0 2046     		mov	r0, r4	@, cont
 261 00a2 0B22     		movs	r2, #11	@,
 262 00a4 0121     		movs	r1, #1	@,
 263 00a6 FFF7FEFF 		bl	disp_number		@
 264              	.LVL10:
  69:../3-ComProcessos/main.c **** 		
 265              		.loc 1 69 3 discriminator 1 view .LVU46
 266 00aa 4FF47A70 		mov	r0, #1000	@,
 267 00ae FFF7FEFF 		bl	vTaskDelay		@
 268              	.LVL11:
  63:../3-ComProcessos/main.c **** 
 269              		.loc 1 63 7 discriminator 1 view .LVU47
 270 00b2 EEE7     		b	.L6		@
 271              	.L8:
 272              		.align	2
 273              	.L7:
 274 00b4 00100240 		.word	1073876992
 275 00b8 00080140 		.word	1073809408
 276 00bc 00333333 		.word	858993408
 277 00c0 13000000 		.word	.LC1
ARM GAS  /tmp/ccbw8mZO.s 			page 8


 278 00c4 00000000 		.word	.LC0
 279              		.cfi_endproc
 280              	.LFE42:
 281              		.size	task1, .-task1
 282              		.align	1
 283              		.global	ADC1_configure
 284              		.syntax unified
 285              		.thumb
 286              		.thumb_func
 287              		.type	ADC1_configure, %function
 288              	ADC1_configure:
 289              	.LFB34:
 290              		.file 2 "../3-ComProcessos/Me.h"
   1:../3-ComProcessos/Me.h **** #define __IO volatile
   2:../3-ComProcessos/Me.h **** 
   3:../3-ComProcessos/Me.h **** void SystemInit (void);
   4:../3-ComProcessos/Me.h **** void nvic_IntDisble(u8 IRQn);
   5:../3-ComProcessos/Me.h **** void nvic_intEnable(u8 IRQn);
   6:../3-ComProcessos/Me.h **** void set_system_clock_to_25Mhz (void);
   7:../3-ComProcessos/Me.h **** void set_system_clock_to_72Mhz(void);
   8:../3-ComProcessos/Me.h **** void Delay ( __IO u32 T );
   9:../3-ComProcessos/Me.h **** void enable_TIM3_delay (void);
  10:../3-ComProcessos/Me.h **** void ADC1_configure();
  11:../3-ComProcessos/Me.h **** 
  12:../3-ComProcessos/Me.h **** #define DelayUs(X) Delay(X)
  13:../3-ComProcessos/Me.h **** 
  14:../3-ComProcessos/Me.h **** void ADC1_configure(){
 291              		.loc 2 14 22 view -0
 292              		.cfi_startproc
 293              		@ args = 0, pretend = 0, frame = 0
 294              		@ frame_needed = 0, uses_anonymous_args = 0
 295              		@ link register save eliminated.
  15:../3-ComProcessos/Me.h **** 	RCC->APB2ENR |= 1UL<<2 ; // Hab. GPIOA
 296              		.loc 2 15 2 view .LVU49
 297              	@ ../3-ComProcessos/Me.h:15: 	RCC->APB2ENR |= 1UL<<2 ; // Hab. GPIOA
 298              		.loc 2 15 15 is_stmt 0 view .LVU50
 299 00c8 1F4B     		ldr	r3, .L14	@ tmp141,
 300              	@ ../3-ComProcessos/Me.h:16: 	GPIOA->CRL &= ~(0x0F << 4); // Define A1 Input Analogic
  16:../3-ComProcessos/Me.h **** 	GPIOA->CRL &= ~(0x0F << 4); // Define A1 Input Analogic
 301              		.loc 2 16 13 view .LVU51
 302 00ca 2049     		ldr	r1, .L14+4	@ tmp143,
 303              	@ ../3-ComProcessos/Me.h:15: 	RCC->APB2ENR |= 1UL<<2 ; // Hab. GPIOA
  15:../3-ComProcessos/Me.h **** 	RCC->APB2ENR |= 1UL<<2 ; // Hab. GPIOA
 304              		.loc 2 15 15 view .LVU52
 305 00cc 9A69     		ldr	r2, [r3, #24]	@ _1, MEM[(struct RCC_TypeDef *)1073876992B].APB2ENR
 306 00ce 42F00402 		orr	r2, r2, #4	@ _2, _1,
 307 00d2 9A61     		str	r2, [r3, #24]	@ _2, MEM[(struct RCC_TypeDef *)1073876992B].APB2ENR
 308              		.loc 2 16 2 is_stmt 1 view .LVU53
 309              	@ ../3-ComProcessos/Me.h:16: 	GPIOA->CRL &= ~(0x0F << 4); // Define A1 Input Analogic
 310              		.loc 2 16 13 is_stmt 0 view .LVU54
 311 00d4 0A68     		ldr	r2, [r1]	@ _3, MEM[(struct GPIO_TypeDef *)1073809408B].CRL
 312 00d6 22F0F002 		bic	r2, r2, #240	@ _4, _3,
 313 00da 0A60     		str	r2, [r1]	@ _4, MEM[(struct GPIO_TypeDef *)1073809408B].CRL
  17:../3-ComProcessos/Me.h **** 	
  18:../3-ComProcessos/Me.h **** 	RCC->APB2ENR |= (1<<9); // Bit 9 ADC1EN: ADC 1 
 314              		.loc 2 18 2 is_stmt 1 view .LVU55
 315              	@ ../3-ComProcessos/Me.h:18: 	RCC->APB2ENR |= (1<<9); // Bit 9 ADC1EN: ADC 1 
ARM GAS  /tmp/ccbw8mZO.s 			page 9


 316              		.loc 2 18 15 is_stmt 0 view .LVU56
 317 00dc 9A69     		ldr	r2, [r3, #24]	@ _5, MEM[(struct RCC_TypeDef *)1073876992B].APB2ENR
 318 00de 42F40072 		orr	r2, r2, #512	@ _6, _5,
 319 00e2 9A61     		str	r2, [r3, #24]	@ _6, MEM[(struct RCC_TypeDef *)1073876992B].APB2ENR
  19:../3-ComProcessos/Me.h **** 									// interface clock enable
  20:../3-ComProcessos/Me.h **** 
  21:../3-ComProcessos/Me.h **** 	RCC->CFGR	|= (0b10 << 14); // Bits 15:14 ADCPRE:
 320              		.loc 2 21 2 is_stmt 1 view .LVU57
 321              	@ ../3-ComProcessos/Me.h:21: 	RCC->CFGR	|= (0b10 << 14); // Bits 15:14 ADCPRE:
 322              		.loc 2 21 12 is_stmt 0 view .LVU58
 323 00e4 5A68     		ldr	r2, [r3, #4]	@ _7, MEM[(struct RCC_TypeDef *)1073876992B].CFGR
 324 00e6 42F40042 		orr	r2, r2, #32768	@ _8, _7,
 325 00ea 5A60     		str	r2, [r3, #4]	@ _8, MEM[(struct RCC_TypeDef *)1073876992B].CFGR
  22:../3-ComProcessos/Me.h **** 										  // ADC prescaler 10:
  23:../3-ComProcessos/Me.h **** 										  //    PCLK2 divided by 6
  24:../3-ComProcessos/Me.h **** 	// Enable End of Conversion (EOC) interrupt
  25:../3-ComProcessos/Me.h **** 	ADC1->CR1 |= (1 << 5);
 326              		.loc 2 25 2 is_stmt 1 view .LVU59
 327              	@ ../3-ComProcessos/Me.h:25: 	ADC1->CR1 |= (1 << 5);
 328              		.loc 2 25 12 is_stmt 0 view .LVU60
 329 00ec A3F56C43 		sub	r3, r3, #60416	@ tmp149, tmp149,
 330 00f0 5A68     		ldr	r2, [r3, #4]	@ _9, MEM[(struct ADC_TypeDef *)1073816576B].CR1
 331 00f2 42F02002 		orr	r2, r2, #32	@ _10, _9,
 332 00f6 5A60     		str	r2, [r3, #4]	@ _10, MEM[(struct ADC_TypeDef *)1073816576B].CR1
  26:../3-ComProcessos/Me.h **** 
  27:../3-ComProcessos/Me.h **** 	// One conversion
  28:../3-ComProcessos/Me.h **** 	ADC1->SQR1 = 0x00000000;
 333              		.loc 2 28 2 is_stmt 1 view .LVU61
 334              	@ ../3-ComProcessos/Me.h:28: 	ADC1->SQR1 = 0x00000000;
 335              		.loc 2 28 13 is_stmt 0 view .LVU62
 336 00f8 0022     		movs	r2, #0	@ tmp152,
 337 00fa DA62     		str	r2, [r3, #44]	@ tmp152, MEM[(struct ADC_TypeDef *)1073816576B].SQR1
  29:../3-ComProcessos/Me.h **** 
  30:../3-ComProcessos/Me.h **** 	// Choose the analog channel to read
  31:../3-ComProcessos/Me.h **** 	// Since we want channel 10 to be the first
  32:../3-ComProcessos/Me.h **** 	//   conversion we write 10 to SQ1 bits (3:0)
  33:../3-ComProcessos/Me.h **** 	//   which is in SQR3 register. For multiple conversions
  34:../3-ComProcessos/Me.h **** 	//   keep writing the channel numbers to SQx bits.
  35:../3-ComProcessos/Me.h **** 	 ADC1->SQR3 = (10 << 0);
 338              		.loc 2 35 3 is_stmt 1 view .LVU63
 339              	@ ../3-ComProcessos/Me.h:35: 	 ADC1->SQR3 = (10 << 0);
 340              		.loc 2 35 14 is_stmt 0 view .LVU64
 341 00fc 0A22     		movs	r2, #10	@ tmp154,
 342 00fe 5A63     		str	r2, [r3, #52]	@ tmp154, MEM[(struct ADC_TypeDef *)1073816576B].SQR3
  36:../3-ComProcessos/Me.h **** 
  37:../3-ComProcessos/Me.h **** 	// Set up software trigger to start conversion
  38:../3-ComProcessos/Me.h **** 	ADC1->CR2 |= (7 << 17);  // Select SWSTART as trigger
 343              		.loc 2 38 2 is_stmt 1 view .LVU65
 344              	@ ../3-ComProcessos/Me.h:38: 	ADC1->CR2 |= (7 << 17);  // Select SWSTART as trigger
 345              		.loc 2 38 12 is_stmt 0 view .LVU66
 346 0100 9A68     		ldr	r2, [r3, #8]	@ _11, MEM[(struct ADC_TypeDef *)1073816576B].CR2
 347 0102 42F46022 		orr	r2, r2, #917504	@ _12, _11,
 348 0106 9A60     		str	r2, [r3, #8]	@ _12, MEM[(struct ADC_TypeDef *)1073816576B].CR2
  39:../3-ComProcessos/Me.h **** 	ADC1->CR2 |= (1 << 20);  // Enable external trigger
 349              		.loc 2 39 2 is_stmt 1 view .LVU67
 350              	@ ../3-ComProcessos/Me.h:39: 	ADC1->CR2 |= (1 << 20);  // Enable external trigger
 351              		.loc 2 39 12 is_stmt 0 view .LVU68
ARM GAS  /tmp/ccbw8mZO.s 			page 10


 352 0108 9A68     		ldr	r2, [r3, #8]	@ _13, MEM[(struct ADC_TypeDef *)1073816576B].CR2
 353 010a 42F48012 		orr	r2, r2, #1048576	@ _14, _13,
 354 010e 9A60     		str	r2, [r3, #8]	@ _14, MEM[(struct ADC_TypeDef *)1073816576B].CR2
  40:../3-ComProcessos/Me.h **** 
  41:../3-ComProcessos/Me.h **** 	// Enable continuous conversion
  42:../3-ComProcessos/Me.h **** 	ADC1->CR2 |= (1 << 1);
 355              		.loc 2 42 2 is_stmt 1 view .LVU69
 356              	@ ../3-ComProcessos/Me.h:42: 	ADC1->CR2 |= (1 << 1);
 357              		.loc 2 42 12 is_stmt 0 view .LVU70
 358 0110 9A68     		ldr	r2, [r3, #8]	@ _15, MEM[(struct ADC_TypeDef *)1073816576B].CR2
 359 0112 42F00202 		orr	r2, r2, #2	@ _16, _15,
 360 0116 9A60     		str	r2, [r3, #8]	@ _16, MEM[(struct ADC_TypeDef *)1073816576B].CR2
  43:../3-ComProcessos/Me.h **** 
  44:../3-ComProcessos/Me.h **** 	// enable_interrupt(ADC1_2_IRQn);
  45:../3-ComProcessos/Me.h **** 
  46:../3-ComProcessos/Me.h **** 	// Enable A/D conversion
  47:../3-ComProcessos/Me.h **** 	ADC1->CR2 |= (1 << 0);
 361              		.loc 2 47 2 is_stmt 1 view .LVU71
 362              	@ ../3-ComProcessos/Me.h:47: 	ADC1->CR2 |= (1 << 0);
 363              		.loc 2 47 12 is_stmt 0 view .LVU72
 364 0118 9A68     		ldr	r2, [r3, #8]	@ _17, MEM[(struct ADC_TypeDef *)1073816576B].CR2
 365 011a 42F00102 		orr	r2, r2, #1	@ _18, _17,
 366 011e 9A60     		str	r2, [r3, #8]	@ _18, MEM[(struct ADC_TypeDef *)1073816576B].CR2
  48:../3-ComProcessos/Me.h **** 
  49:../3-ComProcessos/Me.h **** 	// Calibration reset and start
  50:../3-ComProcessos/Me.h **** 	//    Optional for better accuracy.
  51:../3-ComProcessos/Me.h **** 	ADC1->CR2 |= (1 << 3);
 367              		.loc 2 51 2 is_stmt 1 view .LVU73
 368              	@ ../3-ComProcessos/Me.h:51: 	ADC1->CR2 |= (1 << 3);
 369              		.loc 2 51 12 is_stmt 0 view .LVU74
 370 0120 9A68     		ldr	r2, [r3, #8]	@ _19, MEM[(struct ADC_TypeDef *)1073816576B].CR2
 371 0122 42F00802 		orr	r2, r2, #8	@ _20, _19,
 372 0126 9A60     		str	r2, [r3, #8]	@ _20, MEM[(struct ADC_TypeDef *)1073816576B].CR2
  52:../3-ComProcessos/Me.h **** 	while((ADC1->CR2 & (1 << 3)));
 373              		.loc 2 52 2 is_stmt 1 view .LVU75
 374              	.L10:
 375              		.loc 2 52 31 discriminator 1 view .LVU76
 376              		.loc 2 52 7 discriminator 1 view .LVU77
 377              	@ ../3-ComProcessos/Me.h:52: 	while((ADC1->CR2 & (1 << 3)));
 378              		.loc 2 52 13 is_stmt 0 discriminator 1 view .LVU78
 379 0128 9A68     		ldr	r2, [r3, #8]	@ _21, MEM[(struct ADC_TypeDef *)1073816576B].CR2
 380              	@ ../3-ComProcessos/Me.h:52: 	while((ADC1->CR2 & (1 << 3)));
 381              		.loc 2 52 7 discriminator 1 view .LVU79
 382 012a 1107     		lsls	r1, r2, #28	@, _21,
 383 012c FCD4     		bmi	.L10		@,
  53:../3-ComProcessos/Me.h **** 	ADC1->CR2 |= (1 << 2);
 384              		.loc 2 53 2 is_stmt 1 view .LVU80
 385              	@ ../3-ComProcessos/Me.h:53: 	ADC1->CR2 |= (1 << 2);
 386              		.loc 2 53 12 is_stmt 0 view .LVU81
 387 012e 9A68     		ldr	r2, [r3, #8]	@ _23, MEM[(struct ADC_TypeDef *)1073816576B].CR2
 388 0130 42F00402 		orr	r2, r2, #4	@ _24, _23,
 389 0134 9A60     		str	r2, [r3, #8]	@ _24, MEM[(struct ADC_TypeDef *)1073816576B].CR2
  54:../3-ComProcessos/Me.h **** 	while((ADC1->CR2 & (1 << 2)));
 390              		.loc 2 54 2 is_stmt 1 view .LVU82
 391              	@ ../3-ComProcessos/Me.h:54: 	while((ADC1->CR2 & (1 << 2)));
 392              		.loc 2 54 13 is_stmt 0 view .LVU83
 393 0136 064B     		ldr	r3, .L14+8	@ tmp169,
ARM GAS  /tmp/ccbw8mZO.s 			page 11


 394              	.L11:
 395              		.loc 2 54 31 is_stmt 1 discriminator 1 view .LVU84
 396              		.loc 2 54 7 discriminator 1 view .LVU85
 397              	@ ../3-ComProcessos/Me.h:54: 	while((ADC1->CR2 & (1 << 2)));
 398              		.loc 2 54 13 is_stmt 0 discriminator 1 view .LVU86
 399 0138 9A68     		ldr	r2, [r3, #8]	@ _25, MEM[(struct ADC_TypeDef *)1073816576B].CR2
 400              	@ ../3-ComProcessos/Me.h:54: 	while((ADC1->CR2 & (1 << 2)));
 401              		.loc 2 54 7 discriminator 1 view .LVU87
 402 013a 5207     		lsls	r2, r2, #29	@, _25,
 403 013c FCD4     		bmi	.L11		@,
  55:../3-ComProcessos/Me.h **** 
  56:../3-ComProcessos/Me.h **** 	// Start conversion with software trigger
  57:../3-ComProcessos/Me.h **** 	ADC1->CR2 |= (1<<22);
 404              		.loc 2 57 2 is_stmt 1 view .LVU88
 405              	@ ../3-ComProcessos/Me.h:57: 	ADC1->CR2 |= (1<<22);
 406              		.loc 2 57 12 is_stmt 0 view .LVU89
 407 013e 9A68     		ldr	r2, [r3, #8]	@ _27, MEM[(struct ADC_TypeDef *)1073816576B].CR2
 408 0140 42F48002 		orr	r2, r2, #4194304	@ _28, _27,
 409 0144 9A60     		str	r2, [r3, #8]	@ _28, MEM[(struct ADC_TypeDef *)1073816576B].CR2
 410              	@ ../3-ComProcessos/Me.h:60: }
  58:../3-ComProcessos/Me.h **** 	//
  59:../3-ComProcessos/Me.h **** 	// Leitura  ADC1->DR  -> Data Register
  60:../3-ComProcessos/Me.h **** }
 411              		.loc 2 60 1 view .LVU90
 412 0146 7047     		bx	lr	@
 413              	.L15:
 414              		.align	2
 415              	.L14:
 416 0148 00100240 		.word	1073876992
 417 014c 00080140 		.word	1073809408
 418 0150 00240140 		.word	1073816576
 419              		.cfi_endproc
 420              	.LFE34:
 421              		.size	ADC1_configure, .-ADC1_configure
 422              		.align	1
 423              		.global	set_system_clock_to_72Mhz
 424              		.syntax unified
 425              		.thumb
 426              		.thumb_func
 427              		.type	set_system_clock_to_72Mhz, %function
 428              	set_system_clock_to_72Mhz:
 429              	.LFB35:
  61:../3-ComProcessos/Me.h **** 
  62:../3-ComProcessos/Me.h **** void set_system_clock_to_72Mhz(void)
  63:../3-ComProcessos/Me.h **** {
 430              		.loc 2 63 1 is_stmt 1 view -0
 431              		.cfi_startproc
 432              		@ args = 0, pretend = 0, frame = 0
 433              		@ frame_needed = 0, uses_anonymous_args = 0
 434              		@ link register save eliminated.
  64:../3-ComProcessos/Me.h ****    // Necessary wait states for Flash for high speeds
  65:../3-ComProcessos/Me.h ****    FLASH->ACR = 0x12;
 435              		.loc 2 65 4 view .LVU92
 436              	@ ../3-ComProcessos/Me.h:65:    FLASH->ACR = 0x12;
 437              		.loc 2 65 15 is_stmt 0 view .LVU93
 438 0154 1222     		movs	r2, #18	@ tmp140,
 439 0156 1B4B     		ldr	r3, .L23	@ tmp139,
ARM GAS  /tmp/ccbw8mZO.s 			page 12


 440 0158 1A60     		str	r2, [r3]	@ tmp140, MEM[(struct FLASH_TypeDef *)1073881088B].ACR
  66:../3-ComProcessos/Me.h ****    // Enable HSE
  67:../3-ComProcessos/Me.h ****    RCC->CR |= (1 << 16);
 441              		.loc 2 67 4 is_stmt 1 view .LVU94
 442              	@ ../3-ComProcessos/Me.h:67:    RCC->CR |= (1 << 16);
 443              		.loc 2 67 12 is_stmt 0 view .LVU95
 444 015a A3F58053 		sub	r3, r3, #4096	@ tmp141, tmp141,
 445 015e 1A68     		ldr	r2, [r3]	@ _1, MEM[(struct RCC_TypeDef *)1073876992B].CR
 446 0160 42F48032 		orr	r2, r2, #65536	@ _2, _1,
 447 0164 1A60     		str	r2, [r3]	@ _2, MEM[(struct RCC_TypeDef *)1073876992B].CR
  68:../3-ComProcessos/Me.h ****    // Wait untill HSE settles down
  69:../3-ComProcessos/Me.h ****    while (!(RCC->CR & (1 << 17)));
 448              		.loc 2 69 4 is_stmt 1 view .LVU96
 449              	.L17:
 450              		.loc 2 69 34 discriminator 1 view .LVU97
 451              		.loc 2 69 10 discriminator 1 view .LVU98
 452              	@ ../3-ComProcessos/Me.h:69:    while (!(RCC->CR & (1 << 17)));
 453              		.loc 2 69 16 is_stmt 0 discriminator 1 view .LVU99
 454 0166 1A68     		ldr	r2, [r3]	@ _3, MEM[(struct RCC_TypeDef *)1073876992B].CR
 455              	@ ../3-ComProcessos/Me.h:69:    while (!(RCC->CR & (1 << 17)));
 456              		.loc 2 69 10 discriminator 1 view .LVU100
 457 0168 9103     		lsls	r1, r2, #14	@, _3,
 458 016a FCD5     		bpl	.L17		@,
  70:../3-ComProcessos/Me.h ****    // Set PREDIV2 division factor to 5
  71:../3-ComProcessos/Me.h ****    RCC->CFGR2 |= (0b0100 << 4);
 459              		.loc 2 71 4 is_stmt 1 view .LVU101
 460              	@ ../3-ComProcessos/Me.h:71:    RCC->CFGR2 |= (0b0100 << 4);
 461              		.loc 2 71 15 is_stmt 0 view .LVU102
 462 016c DA6A     		ldr	r2, [r3, #44]	@ _5, MEM[(struct RCC_TypeDef *)1073876992B].CFGR2
 463 016e 42F04002 		orr	r2, r2, #64	@ _6, _5,
 464 0172 DA62     		str	r2, [r3, #44]	@ _6, MEM[(struct RCC_TypeDef *)1073876992B].CFGR2
  72:../3-ComProcessos/Me.h ****    // Set PLL2 multiplication factor to 8
  73:../3-ComProcessos/Me.h ****    RCC->CFGR2 |= (0b0110 << 8);
 465              		.loc 2 73 4 is_stmt 1 view .LVU103
 466              	@ ../3-ComProcessos/Me.h:73:    RCC->CFGR2 |= (0b0110 << 8);
 467              		.loc 2 73 15 is_stmt 0 view .LVU104
 468 0174 DA6A     		ldr	r2, [r3, #44]	@ _7, MEM[(struct RCC_TypeDef *)1073876992B].CFGR2
 469 0176 42F4C062 		orr	r2, r2, #1536	@ _8, _7,
 470 017a DA62     		str	r2, [r3, #44]	@ _8, MEM[(struct RCC_TypeDef *)1073876992B].CFGR2
  74:../3-ComProcessos/Me.h ****    // Enable PLL2
  75:../3-ComProcessos/Me.h ****    RCC->CR |= (1 << 26);
 471              		.loc 2 75 4 is_stmt 1 view .LVU105
 472              	@ ../3-ComProcessos/Me.h:75:    RCC->CR |= (1 << 26);
 473              		.loc 2 75 12 is_stmt 0 view .LVU106
 474 017c 1A68     		ldr	r2, [r3]	@ _9, MEM[(struct RCC_TypeDef *)1073876992B].CR
 475 017e 42F08062 		orr	r2, r2, #67108864	@ _10, _9,
 476 0182 1A60     		str	r2, [r3]	@ _10, MEM[(struct RCC_TypeDef *)1073876992B].CR
  76:../3-ComProcessos/Me.h ****    // Wait untill PLL2 settles down
  77:../3-ComProcessos/Me.h **** 	// while (!(RCC->CR & (1 << 27)));
  78:../3-ComProcessos/Me.h ****    // Set PLL2 as PREDIV1 clock source
  79:../3-ComProcessos/Me.h ****    RCC->CFGR2 |= (1 << 16);
 477              		.loc 2 79 4 is_stmt 1 view .LVU107
 478              	@ ../3-ComProcessos/Me.h:79:    RCC->CFGR2 |= (1 << 16);
 479              		.loc 2 79 15 is_stmt 0 view .LVU108
 480 0184 DA6A     		ldr	r2, [r3, #44]	@ _11, MEM[(struct RCC_TypeDef *)1073876992B].CFGR2
 481 0186 42F48032 		orr	r2, r2, #65536	@ _12, _11,
 482 018a DA62     		str	r2, [r3, #44]	@ _12, MEM[(struct RCC_TypeDef *)1073876992B].CFGR2
ARM GAS  /tmp/ccbw8mZO.s 			page 13


  80:../3-ComProcessos/Me.h ****    // Set PREDIV1 division factor to 5
  81:../3-ComProcessos/Me.h ****    RCC->CFGR2 |= (0b0100 << 0);
 483              		.loc 2 81 4 is_stmt 1 view .LVU109
 484              	@ ../3-ComProcessos/Me.h:81:    RCC->CFGR2 |= (0b0100 << 0);
 485              		.loc 2 81 15 is_stmt 0 view .LVU110
 486 018c DA6A     		ldr	r2, [r3, #44]	@ _13, MEM[(struct RCC_TypeDef *)1073876992B].CFGR2
 487 018e 42F00402 		orr	r2, r2, #4	@ _14, _13,
 488 0192 DA62     		str	r2, [r3, #44]	@ _14, MEM[(struct RCC_TypeDef *)1073876992B].CFGR2
  82:../3-ComProcessos/Me.h ****    // Select Prediv1 as PLL source
  83:../3-ComProcessos/Me.h ****    RCC->CFGR |= (1 << 16);
 489              		.loc 2 83 4 is_stmt 1 view .LVU111
 490              	@ ../3-ComProcessos/Me.h:83:    RCC->CFGR |= (1 << 16);
 491              		.loc 2 83 14 is_stmt 0 view .LVU112
 492 0194 5A68     		ldr	r2, [r3, #4]	@ _15, MEM[(struct RCC_TypeDef *)1073876992B].CFGR
 493 0196 42F48032 		orr	r2, r2, #65536	@ _16, _15,
 494 019a 5A60     		str	r2, [r3, #4]	@ _16, MEM[(struct RCC_TypeDef *)1073876992B].CFGR
  84:../3-ComProcessos/Me.h ****    // Set PLL1 multiplication factor to 9
  85:../3-ComProcessos/Me.h ****    RCC->CFGR |= (0b0111 << 18);
 495              		.loc 2 85 4 is_stmt 1 view .LVU113
 496              	@ ../3-ComProcessos/Me.h:85:    RCC->CFGR |= (0b0111 << 18);
 497              		.loc 2 85 14 is_stmt 0 view .LVU114
 498 019c 5A68     		ldr	r2, [r3, #4]	@ _17, MEM[(struct RCC_TypeDef *)1073876992B].CFGR
 499 019e 42F4E012 		orr	r2, r2, #1835008	@ _18, _17,
 500 01a2 5A60     		str	r2, [r3, #4]	@ _18, MEM[(struct RCC_TypeDef *)1073876992B].CFGR
  86:../3-ComProcessos/Me.h ****    // Set APB1 to 36MHz
  87:../3-ComProcessos/Me.h ****    RCC->CFGR |= 1 << 10;
 501              		.loc 2 87 4 is_stmt 1 view .LVU115
 502              	@ ../3-ComProcessos/Me.h:87:    RCC->CFGR |= 1 << 10;
 503              		.loc 2 87 14 is_stmt 0 view .LVU116
 504 01a4 5A68     		ldr	r2, [r3, #4]	@ _19, MEM[(struct RCC_TypeDef *)1073876992B].CFGR
 505 01a6 42F48062 		orr	r2, r2, #1024	@ _20, _19,
 506 01aa 5A60     		str	r2, [r3, #4]	@ _20, MEM[(struct RCC_TypeDef *)1073876992B].CFGR
  88:../3-ComProcessos/Me.h ****    // Enable PLL
  89:../3-ComProcessos/Me.h ****    RCC->CR |= (1 << 24);
 507              		.loc 2 89 4 is_stmt 1 view .LVU117
 508              	@ ../3-ComProcessos/Me.h:89:    RCC->CR |= (1 << 24);
 509              		.loc 2 89 12 is_stmt 0 view .LVU118
 510 01ac 1A68     		ldr	r2, [r3]	@ _21, MEM[(struct RCC_TypeDef *)1073876992B].CR
 511 01ae 42F08072 		orr	r2, r2, #16777216	@ _22, _21,
 512 01b2 1A60     		str	r2, [r3]	@ _22, MEM[(struct RCC_TypeDef *)1073876992B].CR
  90:../3-ComProcessos/Me.h ****    // Wait untill PLL settles down
  91:../3-ComProcessos/Me.h ****    while (!(RCC->CR & (1 << 25)));
 513              		.loc 2 91 4 is_stmt 1 view .LVU119
 514              	.L18:
 515              		.loc 2 91 34 discriminator 1 view .LVU120
 516              		.loc 2 91 10 discriminator 1 view .LVU121
 517              	@ ../3-ComProcessos/Me.h:91:    while (!(RCC->CR & (1 << 25)));
 518              		.loc 2 91 16 is_stmt 0 discriminator 1 view .LVU122
 519 01b4 1A68     		ldr	r2, [r3]	@ _23, MEM[(struct RCC_TypeDef *)1073876992B].CR
 520              	@ ../3-ComProcessos/Me.h:91:    while (!(RCC->CR & (1 << 25)));
 521              		.loc 2 91 10 discriminator 1 view .LVU123
 522 01b6 9201     		lsls	r2, r2, #6	@, _23,
 523 01b8 FCD5     		bpl	.L18		@,
  92:../3-ComProcessos/Me.h ****    // Finally, choose PLL as the system clock
  93:../3-ComProcessos/Me.h ****    RCC->CFGR |= (0b10 << 0);
 524              		.loc 2 93 4 is_stmt 1 view .LVU124
 525              	@ ../3-ComProcessos/Me.h:93:    RCC->CFGR |= (0b10 << 0);
ARM GAS  /tmp/ccbw8mZO.s 			page 14


 526              		.loc 2 93 14 is_stmt 0 view .LVU125
 527 01ba 5A68     		ldr	r2, [r3, #4]	@ _25, MEM[(struct RCC_TypeDef *)1073876992B].CFGR
 528 01bc 42F00202 		orr	r2, r2, #2	@ _26, _25,
 529 01c0 5A60     		str	r2, [r3, #4]	@ _26, MEM[(struct RCC_TypeDef *)1073876992B].CFGR
 530              	@ ../3-ComProcessos/Me.h:94: } 
  94:../3-ComProcessos/Me.h **** } 
 531              		.loc 2 94 1 view .LVU126
 532 01c2 7047     		bx	lr	@
 533              	.L24:
 534              		.align	2
 535              	.L23:
 536 01c4 00200240 		.word	1073881088
 537              		.cfi_endproc
 538              	.LFE35:
 539              		.size	set_system_clock_to_72Mhz, .-set_system_clock_to_72Mhz
 540              		.align	1
 541              		.global	Delay
 542              		.syntax unified
 543              		.thumb
 544              		.thumb_func
 545              		.type	Delay, %function
 546              	Delay:
 547              	.LVL12:
 548              	.LFB36:
  95:../3-ComProcessos/Me.h **** 
  96:../3-ComProcessos/Me.h **** void Delay ( __IO u32 T ) { // T=1 ;  868µs -> T=1 ~ 526µs
 549              		.loc 2 96 27 is_stmt 1 view -0
 550              		.cfi_startproc
 551              		@ args = 0, pretend = 0, frame = 8
 552              		@ frame_needed = 0, uses_anonymous_args = 0
 553              		@ link register save eliminated.
  97:../3-ComProcessos/Me.h ****   for ( T ; T > 0 ; T-- ){
 554              		.loc 2 97 3 view .LVU128
 555              	@ ../3-ComProcessos/Me.h:96: void Delay ( __IO u32 T ) { // T=1 ;  868µs -> T=1 ~ 526µs
  96:../3-ComProcessos/Me.h ****   for ( T ; T > 0 ; T-- ){
 556              		.loc 2 96 27 is_stmt 0 view .LVU129
 557 01c8 82B0     		sub	sp, sp, #8	@,,
 558              	.LCFI2:
 559              		.cfi_def_cfa_offset 8
 560              	@ ../3-ComProcessos/Me.h:96: void Delay ( __IO u32 T ) { // T=1 ;  868µs -> T=1 ~ 526µs
  96:../3-ComProcessos/Me.h ****   for ( T ; T > 0 ; T-- ){
 561              		.loc 2 96 27 view .LVU130
 562 01ca 0190     		str	r0, [sp, #4]	@ T, T
 563              	@ ../3-ComProcessos/Me.h:97:   for ( T ; T > 0 ; T-- ){
 564              		.loc 2 97 3 view .LVU131
 565 01cc 019B     		ldr	r3, [sp, #4]	@ vol.0_9, T
 566              	@ ../3-ComProcessos/Me.h:98:    TIM3->EGR |= ( 1 << 0 );
  98:../3-ComProcessos/Me.h ****    TIM3->EGR |= ( 1 << 0 );
 567              		.loc 2 98 14 view .LVU132
 568 01ce 094A     		ldr	r2, .L30	@ tmp132,
 569              	.L26:
  97:../3-ComProcessos/Me.h ****   for ( T ; T > 0 ; T-- ){
 570              		.loc 2 97 13 is_stmt 1 discriminator 1 view .LVU133
 571              	@ ../3-ComProcessos/Me.h:97:   for ( T ; T > 0 ; T-- ){
  97:../3-ComProcessos/Me.h ****   for ( T ; T > 0 ; T-- ){
 572              		.loc 2 97 15 is_stmt 0 discriminator 1 view .LVU134
 573 01d0 019B     		ldr	r3, [sp, #4]	@ T.2_6, T
ARM GAS  /tmp/ccbw8mZO.s 			page 15


 574              	@ ../3-ComProcessos/Me.h:97:   for ( T ; T > 0 ; T-- ){
  97:../3-ComProcessos/Me.h ****   for ( T ; T > 0 ; T-- ){
 575              		.loc 2 97 3 discriminator 1 view .LVU135
 576 01d2 0BB9     		cbnz	r3, .L28	@ T.2_6,
 577              	@ ../3-ComProcessos/Me.h:101: }
  99:../3-ComProcessos/Me.h ****    while ( TIM3->CNT < 5 ) ; /* 5 * 10-- Configurar para IR */
 100:../3-ComProcessos/Me.h ****   }
 101:../3-ComProcessos/Me.h **** }
 578              		.loc 2 101 1 view .LVU136
 579 01d4 02B0     		add	sp, sp, #8	@,,
 580              	.LCFI3:
 581              		.cfi_remember_state
 582              		.cfi_def_cfa_offset 0
 583              		@ sp needed	@
 584 01d6 7047     		bx	lr	@
 585              	.L28:
 586              	.LCFI4:
 587              		.cfi_restore_state
  98:../3-ComProcessos/Me.h ****    TIM3->EGR |= ( 1 << 0 );
 588              		.loc 2 98 4 is_stmt 1 view .LVU137
 589              	@ ../3-ComProcessos/Me.h:98:    TIM3->EGR |= ( 1 << 0 );
  98:../3-ComProcessos/Me.h ****    TIM3->EGR |= ( 1 << 0 );
 590              		.loc 2 98 14 is_stmt 0 view .LVU138
 591 01d8 938A     		ldrh	r3, [r2, #20]	@, MEM[(struct TIM_TypeDef *)1073742848B].EGR
 592 01da 9BB2     		uxth	r3, r3	@ _1, MEM[(struct TIM_TypeDef *)1073742848B].EGR
 593 01dc 43F00103 		orr	r3, r3, #1	@ _2, _1,
 594 01e0 9382     		strh	r3, [r2, #20]	@ movhi	@ _2, MEM[(struct TIM_TypeDef *)1073742848B].EGR
  99:../3-ComProcessos/Me.h ****    while ( TIM3->CNT < 5 ) ; /* 5 * 10-- Configurar para IR */
 595              		.loc 2 99 4 is_stmt 1 view .LVU139
 596              	.L27:
  99:../3-ComProcessos/Me.h ****    while ( TIM3->CNT < 5 ) ; /* 5 * 10-- Configurar para IR */
 597              		.loc 2 99 28 discriminator 1 view .LVU140
  99:../3-ComProcessos/Me.h ****    while ( TIM3->CNT < 5 ) ; /* 5 * 10-- Configurar para IR */
 598              		.loc 2 99 10 discriminator 1 view .LVU141
 599              	@ ../3-ComProcessos/Me.h:99:    while ( TIM3->CNT < 5 ) ; /* 5 * 10-- Configurar para IR */
  99:../3-ComProcessos/Me.h ****    while ( TIM3->CNT < 5 ) ; /* 5 * 10-- Configurar para IR */
 600              		.loc 2 99 16 is_stmt 0 discriminator 1 view .LVU142
 601 01e2 938C     		ldrh	r3, [r2, #36]	@, MEM[(struct TIM_TypeDef *)1073742848B].CNT
 602 01e4 9BB2     		uxth	r3, r3	@ _3, MEM[(struct TIM_TypeDef *)1073742848B].CNT
 603              	@ ../3-ComProcessos/Me.h:99:    while ( TIM3->CNT < 5 ) ; /* 5 * 10-- Configurar para IR */
  99:../3-ComProcessos/Me.h ****    while ( TIM3->CNT < 5 ) ; /* 5 * 10-- Configurar para IR */
 604              		.loc 2 99 10 discriminator 1 view .LVU143
 605 01e6 042B     		cmp	r3, #4	@ _3,
 606 01e8 FBD9     		bls	.L27		@,
  97:../3-ComProcessos/Me.h ****    TIM3->EGR |= ( 1 << 0 );
 607              		.loc 2 97 21 is_stmt 1 discriminator 2 view .LVU144
 608              	@ ../3-ComProcessos/Me.h:97:   for ( T ; T > 0 ; T-- ){
  97:../3-ComProcessos/Me.h ****    TIM3->EGR |= ( 1 << 0 );
 609              		.loc 2 97 22 is_stmt 0 discriminator 2 view .LVU145
 610 01ea 019B     		ldr	r3, [sp, #4]	@ T.1_4, T
 611 01ec 013B     		subs	r3, r3, #1	@ _5, T.1_4,
 612 01ee 0193     		str	r3, [sp, #4]	@ _5, T
 613 01f0 EEE7     		b	.L26		@
 614              	.L31:
 615 01f2 00BF     		.align	2
 616              	.L30:
 617 01f4 00040040 		.word	1073742848
ARM GAS  /tmp/ccbw8mZO.s 			page 16


 618              		.cfi_endproc
 619              	.LFE36:
 620              		.size	Delay, .-Delay
 621              		.align	1
 622              		.global	enable_TIM3_delay
 623              		.syntax unified
 624              		.thumb
 625              		.thumb_func
 626              		.type	enable_TIM3_delay, %function
 627              	enable_TIM3_delay:
 628              	.LFB37:
 102:../3-ComProcessos/Me.h **** 
 103:../3-ComProcessos/Me.h **** void enable_TIM3_delay (void) {
 629              		.loc 2 103 31 is_stmt 1 view -0
 630              		.cfi_startproc
 631              		@ args = 0, pretend = 0, frame = 0
 632              		@ frame_needed = 0, uses_anonymous_args = 0
 633              		@ link register save eliminated.
 104:../3-ComProcessos/Me.h ****    RCC->APB1ENR |= 1<<1 ;
 634              		.loc 2 104 4 view .LVU147
 635              	@ ../3-ComProcessos/Me.h:104:    RCC->APB1ENR |= 1<<1 ;
 636              		.loc 2 104 17 is_stmt 0 view .LVU148
 637 01f8 084A     		ldr	r2, .L33	@ tmp117,
 638 01fa D369     		ldr	r3, [r2, #28]	@ _1, MEM[(struct RCC_TypeDef *)1073876992B].APB1ENR
 639 01fc 43F00203 		orr	r3, r3, #2	@ _2, _1,
 640 0200 D361     		str	r3, [r2, #28]	@ _2, MEM[(struct RCC_TypeDef *)1073876992B].APB1ENR
 105:../3-ComProcessos/Me.h ****    TIM3->CR1 = 0x0000;
 641              		.loc 2 105 4 is_stmt 1 view .LVU149
 642              	@ ../3-ComProcessos/Me.h:105:    TIM3->CR1 = 0x0000;
 643              		.loc 2 105 14 is_stmt 0 view .LVU150
 644 0202 0023     		movs	r3, #0	@ tmp121,
 645 0204 A2F50332 		sub	r2, r2, #134144	@ tmp119, tmp119,
 646 0208 1380     		strh	r3, [r2]	@ movhi	@ tmp121, MEM[(struct TIM_TypeDef *)1073742848B].CR1
 106:../3-ComProcessos/Me.h ****    //TIM3->ARR = 21699;
 107:../3-ComProcessos/Me.h ****    // TIM3->ARR = 250-1; // 10µs
 108:../3-ComProcessos/Me.h ****    TIM3->ARR = 720-1; // 10µs
 647              		.loc 2 108 4 is_stmt 1 view .LVU151
 648              	@ ../3-ComProcessos/Me.h:108:    TIM3->ARR = 720-1; // 10µs
 649              		.loc 2 108 14 is_stmt 0 view .LVU152
 650 020a 40F2CF23 		movw	r3, #719	@ tmp124,
 651 020e 9385     		strh	r3, [r2, #44]	@ movhi	@ tmp124, MEM[(struct TIM_TypeDef *)1073742848B].ARR
 109:../3-ComProcessos/Me.h ****    // para obter o período de 868µs
 110:../3-ComProcessos/Me.h **** /*https://www.vishay.com/docs/80071/dataform.pdf PAG 2
 111:../3-ComProcessos/Me.h ****  * https://controllerstech.com/ir-remote-with-stm32/
 112:../3-ComProcessos/Me.h ****  * Per=(1+ARR)/Clock_system */
 113:../3-ComProcessos/Me.h ****    TIM3->CR1 |= 1<<0;
 652              		.loc 2 113 4 is_stmt 1 view .LVU153
 653              	@ ../3-ComProcessos/Me.h:113:    TIM3->CR1 |= 1<<0;
 654              		.loc 2 113 14 is_stmt 0 view .LVU154
 655 0210 1388     		ldrh	r3, [r2]	@, MEM[(struct TIM_TypeDef *)1073742848B].CR1
 656 0212 9BB2     		uxth	r3, r3	@ _3, MEM[(struct TIM_TypeDef *)1073742848B].CR1
 657 0214 43F00103 		orr	r3, r3, #1	@ _4, _3,
 658 0218 1380     		strh	r3, [r2]	@ movhi	@ _4, MEM[(struct TIM_TypeDef *)1073742848B].CR1
 659              	@ ../3-ComProcessos/Me.h:114: }
 114:../3-ComProcessos/Me.h **** }
 660              		.loc 2 114 1 view .LVU155
 661 021a 7047     		bx	lr	@
ARM GAS  /tmp/ccbw8mZO.s 			page 17


 662              	.L34:
 663              		.align	2
 664              	.L33:
 665 021c 00100240 		.word	1073876992
 666              		.cfi_endproc
 667              	.LFE37:
 668              		.size	enable_TIM3_delay, .-enable_TIM3_delay
 669              		.align	1
 670              		.global	enable_interrupt
 671              		.syntax unified
 672              		.thumb
 673              		.thumb_func
 674              		.type	enable_interrupt, %function
 675              	enable_interrupt:
 676              	.LVL13:
 677              	.LFB38:
 115:../3-ComProcessos/Me.h **** 
 116:../3-ComProcessos/Me.h **** void enable_interrupt(IRQn_Type IRQn)
 117:../3-ComProcessos/Me.h **** {
 678              		.loc 2 117 1 is_stmt 1 view -0
 679              		.cfi_startproc
 680              		@ args = 0, pretend = 0, frame = 0
 681              		@ frame_needed = 0, uses_anonymous_args = 0
 682              		@ link register save eliminated.
 118:../3-ComProcessos/Me.h ****    NVIC->ISER[((uint32_t)(IRQn) >> 5)] = (1 << ((uint32_t)(IRQn) & 0x1F));
 683              		.loc 2 118 4 view .LVU157
 684              	@ ../3-ComProcessos/Me.h:118:    NVIC->ISER[((uint32_t)(IRQn) >> 5)] = (1 << ((uint32_t)(IRQn) & 0x
 685              		.loc 2 118 45 is_stmt 0 view .LVU158
 686 0220 0123     		movs	r3, #1	@ tmp124,
 687              	@ ../3-ComProcessos/Me.h:118:    NVIC->ISER[((uint32_t)(IRQn) >> 5)] = (1 << ((uint32_t)(IRQn) & 0x
 688              		.loc 2 118 33 view .LVU159
 689 0222 4209     		lsrs	r2, r0, #5	@ _6, IRQn,
 690              	@ ../3-ComProcessos/Me.h:118:    NVIC->ISER[((uint32_t)(IRQn) >> 5)] = (1 << ((uint32_t)(IRQn) & 0x
 691              		.loc 2 118 66 view .LVU160
 692 0224 00F01F00 		and	r0, r0, #31	@ tmp123, IRQn,
 693              	.LVL14:
 694              	@ ../3-ComProcessos/Me.h:118:    NVIC->ISER[((uint32_t)(IRQn) >> 5)] = (1 << ((uint32_t)(IRQn) & 0x
 695              		.loc 2 118 45 view .LVU161
 696 0228 03FA00F0 		lsl	r0, r3, r0	@ _7, tmp124, tmp123
 697              	@ ../3-ComProcessos/Me.h:118:    NVIC->ISER[((uint32_t)(IRQn) >> 5)] = (1 << ((uint32_t)(IRQn) & 0x
 698              		.loc 2 118 40 view .LVU162
 699 022c 014B     		ldr	r3, .L36	@ tmp125,
 700 022e 43F82200 		str	r0, [r3, r2, lsl #2]	@ _7, MEM[(struct NVIC_Type *)3758153984B].ISER[_6]
 701              	@ ../3-ComProcessos/Me.h:119: }  
 119:../3-ComProcessos/Me.h **** }  
 702              		.loc 2 119 1 view .LVU163
 703 0232 7047     		bx	lr	@
 704              	.L37:
 705              		.align	2
 706              	.L36:
 707 0234 00E100E0 		.word	-536813312
 708              		.cfi_endproc
 709              	.LFE38:
 710              		.size	enable_interrupt, .-enable_interrupt
 711              		.align	1
 712              		.global	disable_interrupt
 713              		.syntax unified
ARM GAS  /tmp/ccbw8mZO.s 			page 18


 714              		.thumb
 715              		.thumb_func
 716              		.type	disable_interrupt, %function
 717              	disable_interrupt:
 718              	.LVL15:
 719              	.LFB39:
 120:../3-ComProcessos/Me.h ****    
 121:../3-ComProcessos/Me.h **** /* 
 122:../3-ComProcessos/Me.h ****  * Disable given interrupt
 123:../3-ComProcessos/Me.h ****  */
 124:../3-ComProcessos/Me.h **** void disable_interrupt(IRQn_Type IRQn)
 125:../3-ComProcessos/Me.h **** {
 720              		.loc 2 125 1 is_stmt 1 view -0
 721              		.cfi_startproc
 722              		@ args = 0, pretend = 0, frame = 0
 723              		@ frame_needed = 0, uses_anonymous_args = 0
 724              		@ link register save eliminated.
 126:../3-ComProcessos/Me.h ****    NVIC->ICER[((uint32_t)(IRQn) >> 5)] = (1 << ((uint32_t)(IRQn) & 0x1F));
 725              		.loc 2 126 4 view .LVU165
 726              	@ ../3-ComProcessos/Me.h:126:    NVIC->ICER[((uint32_t)(IRQn) >> 5)] = (1 << ((uint32_t)(IRQn) & 0x
 727              		.loc 2 126 45 is_stmt 0 view .LVU166
 728 0238 0122     		movs	r2, #1	@ tmp124,
 729              	@ ../3-ComProcessos/Me.h:126:    NVIC->ICER[((uint32_t)(IRQn) >> 5)] = (1 << ((uint32_t)(IRQn) & 0x
 730              		.loc 2 126 33 view .LVU167
 731 023a 4309     		lsrs	r3, r0, #5	@ _6, IRQn,
 732              	@ ../3-ComProcessos/Me.h:126:    NVIC->ICER[((uint32_t)(IRQn) >> 5)] = (1 << ((uint32_t)(IRQn) & 0x
 733              		.loc 2 126 66 view .LVU168
 734 023c 00F01F00 		and	r0, r0, #31	@ tmp123, IRQn,
 735              	.LVL16:
 736              	@ ../3-ComProcessos/Me.h:126:    NVIC->ICER[((uint32_t)(IRQn) >> 5)] = (1 << ((uint32_t)(IRQn) & 0x
 737              		.loc 2 126 45 view .LVU169
 738 0240 02FA00F0 		lsl	r0, r2, r0	@ _7, tmp124, tmp123
 739              	@ ../3-ComProcessos/Me.h:126:    NVIC->ICER[((uint32_t)(IRQn) >> 5)] = (1 << ((uint32_t)(IRQn) & 0x
 740              		.loc 2 126 40 view .LVU170
 741 0244 024A     		ldr	r2, .L39	@ tmp125,
 742 0246 2033     		adds	r3, r3, #32	@ tmp126, _6,
 743 0248 42F82300 		str	r0, [r2, r3, lsl #2]	@ _7, MEM[(struct NVIC_Type *)3758153984B].ICER[_6]
 744              	@ ../3-ComProcessos/Me.h:127: }
 127:../3-ComProcessos/Me.h **** }
 745              		.loc 2 127 1 view .LVU171
 746 024c 7047     		bx	lr	@
 747              	.L40:
 748 024e 00BF     		.align	2
 749              	.L39:
 750 0250 00E100E0 		.word	-536813312
 751              		.cfi_endproc
 752              	.LFE39:
 753              		.size	disable_interrupt, .-disable_interrupt
 754              		.align	1
 755              		.global	USART_init
 756              		.syntax unified
 757              		.thumb
 758              		.thumb_func
 759              		.type	USART_init, %function
 760              	USART_init:
 761              	.LFB40:
 762              		.file 3 "../3-ComProcessos/Serial.h"
ARM GAS  /tmp/ccbw8mZO.s 			page 19


   1:../3-ComProcessos/Serial.h **** // #ifndef	SERIAL_K
   2:../3-ComProcessos/Serial.h **** // #define 	SERIAL_K
   3:../3-ComProcessos/Serial.h **** 
   4:../3-ComProcessos/Serial.h **** void USARTSend(char *pucBuffer);
   5:../3-ComProcessos/Serial.h **** void USART_init(void);
   6:../3-ComProcessos/Serial.h **** 
   7:../3-ComProcessos/Serial.h **** void USART_init(void) {
 763              		.loc 3 7 23 is_stmt 1 view -0
 764              		.cfi_startproc
 765              		@ args = 0, pretend = 0, frame = 24
 766              		@ frame_needed = 0, uses_anonymous_args = 0
   8:../3-ComProcessos/Serial.h ****    /* Enable USART1 and GPIOA clock */
   9:../3-ComProcessos/Serial.h ****    RCC_APB2PeriphClockCmd(RCC_APB2Periph_USART1 | RCC_APB2Periph_GPIOA, ENABLE);
 767              		.loc 3 9 4 view .LVU173
 768              	@ ../3-ComProcessos/Serial.h:7: void USART_init(void) {
   7:../3-ComProcessos/Serial.h ****    /* Enable USART1 and GPIOA clock */
 769              		.loc 3 7 23 is_stmt 0 view .LVU174
 770 0254 10B5     		push	{r4, lr}	@
 771              	.LCFI5:
 772              		.cfi_def_cfa_offset 8
 773              		.cfi_offset 4, -8
 774              		.cfi_offset 14, -4
 775              	@ ../3-ComProcessos/Serial.h:9:    RCC_APB2PeriphClockCmd(RCC_APB2Periph_USART1 | RCC_APB2Periph_GP
 776              		.loc 3 9 4 view .LVU175
 777 0256 0121     		movs	r1, #1	@,
 778              	@ ../3-ComProcessos/Serial.h:7: void USART_init(void) {
   7:../3-ComProcessos/Serial.h ****    /* Enable USART1 and GPIOA clock */
 779              		.loc 3 7 23 view .LVU176
 780 0258 86B0     		sub	sp, sp, #24	@,,
 781              	.LCFI6:
 782              		.cfi_def_cfa_offset 32
 783              	@ ../3-ComProcessos/Serial.h:9:    RCC_APB2PeriphClockCmd(RCC_APB2Periph_USART1 | RCC_APB2Periph_GP
 784              		.loc 3 9 4 view .LVU177
 785 025a 44F20400 		movw	r0, #16388	@,
 786 025e FFF7FEFF 		bl	RCC_APB2PeriphClockCmd		@
 787              	.LVL17:
  10:../3-ComProcessos/Serial.h **** 
  11:../3-ComProcessos/Serial.h ****    /* Configure the GPIOs */
  12:../3-ComProcessos/Serial.h ****    GPIO_InitTypeDef GPIO_InitStructure;
 788              		.loc 3 12 4 is_stmt 1 view .LVU178
  13:../3-ComProcessos/Serial.h **** 
  14:../3-ComProcessos/Serial.h ****    /* Configure USART1 Tx (PA.09) as alternate function push-pull */
  15:../3-ComProcessos/Serial.h ****    GPIO_InitStructure.GPIO_Pin = GPIO_Pin_9;
 789              		.loc 3 15 4 view .LVU179
  16:../3-ComProcessos/Serial.h ****    GPIO_InitStructure.GPIO_Mode = GPIO_Mode_AF_PP;
 790              		.loc 3 16 4 view .LVU180
  17:../3-ComProcessos/Serial.h ****    GPIO_InitStructure.GPIO_Speed = GPIO_Speed_50MHz;
 791              		.loc 3 17 4 view .LVU181
 792              	@ ../3-ComProcessos/Serial.h:15:    GPIO_InitStructure.GPIO_Pin = GPIO_Pin_9;
  15:../3-ComProcessos/Serial.h ****    GPIO_InitStructure.GPIO_Mode = GPIO_Mode_AF_PP;
 793              		.loc 3 15 32 is_stmt 0 view .LVU182
 794 0262 4FF40073 		mov	r3, #512	@ tmp114,
 795 0266 ADF80430 		strh	r3, [sp, #4]	@ movhi	@ tmp114, GPIO_InitStructure.GPIO_Pin
 796              	@ ../3-ComProcessos/Serial.h:17:    GPIO_InitStructure.GPIO_Speed = GPIO_Speed_50MHz;
 797              		.loc 3 17 34 view .LVU183
 798 026a 41F60303 		movw	r3, #6147	@ tmp116,
 799              	@ ../3-ComProcessos/Serial.h:18:    GPIO_Init(GPIOA, &GPIO_InitStructure);
ARM GAS  /tmp/ccbw8mZO.s 			page 20


  18:../3-ComProcessos/Serial.h ****    GPIO_Init(GPIOA, &GPIO_InitStructure);
 800              		.loc 3 18 4 view .LVU184
 801 026e 144C     		ldr	r4, .L42	@ tmp118,
 802 0270 01A9     		add	r1, sp, #4	@ tmp134,,
 803 0272 2046     		mov	r0, r4	@, tmp118
 804              	@ ../3-ComProcessos/Serial.h:17:    GPIO_InitStructure.GPIO_Speed = GPIO_Speed_50MHz;
  17:../3-ComProcessos/Serial.h ****    GPIO_InitStructure.GPIO_Speed = GPIO_Speed_50MHz;
 805              		.loc 3 17 34 view .LVU185
 806 0274 ADF80630 		strh	r3, [sp, #6]	@ movhi	@ tmp116, MEM <unsigned short> [(void *)&GPIO_InitStructure + 2B]
 807              		.loc 3 18 4 is_stmt 1 view .LVU186
 808 0278 FFF7FEFF 		bl	GPIO_Init		@
 809              	.LVL18:
  19:../3-ComProcessos/Serial.h **** 
  20:../3-ComProcessos/Serial.h ****    /* Configure USART1 Rx (PA.10) as input floating */
  21:../3-ComProcessos/Serial.h ****    GPIO_InitStructure.GPIO_Pin = GPIO_Pin_10;
 810              		.loc 3 21 4 view .LVU187
 811              	@ ../3-ComProcessos/Serial.h:21:    GPIO_InitStructure.GPIO_Pin = GPIO_Pin_10;
 812              		.loc 3 21 32 is_stmt 0 view .LVU188
 813 027c 4FF48063 		mov	r3, #1024	@ tmp120,
 814 0280 ADF80430 		strh	r3, [sp, #4]	@ movhi	@ tmp120, GPIO_InitStructure.GPIO_Pin
  22:../3-ComProcessos/Serial.h ****    GPIO_InitStructure.GPIO_Mode = GPIO_Mode_IN_FLOATING;
 815              		.loc 3 22 4 is_stmt 1 view .LVU189
 816              	@ ../3-ComProcessos/Serial.h:22:    GPIO_InitStructure.GPIO_Mode = GPIO_Mode_IN_FLOATING;
 817              		.loc 3 22 33 is_stmt 0 view .LVU190
 818 0284 0423     		movs	r3, #4	@ tmp121,
 819              	@ ../3-ComProcessos/Serial.h:23:    GPIO_Init(GPIOA, &GPIO_InitStructure);
  23:../3-ComProcessos/Serial.h ****    GPIO_Init(GPIOA, &GPIO_InitStructure);
 820              		.loc 3 23 4 view .LVU191
 821 0286 2046     		mov	r0, r4	@, tmp118
 822 0288 0DEB0301 		add	r1, sp, r3	@ tmp135,,
 823              	@ ../3-ComProcessos/Serial.h:22:    GPIO_InitStructure.GPIO_Mode = GPIO_Mode_IN_FLOATING;
  22:../3-ComProcessos/Serial.h ****    GPIO_InitStructure.GPIO_Mode = GPIO_Mode_IN_FLOATING;
 824              		.loc 3 22 33 view .LVU192
 825 028c 8DF80730 		strb	r3, [sp, #7]	@ tmp121, GPIO_InitStructure.GPIO_Mode
 826              		.loc 3 23 4 is_stmt 1 view .LVU193
 827 0290 FFF7FEFF 		bl	GPIO_Init		@
 828              	.LVL19:
  24:../3-ComProcessos/Serial.h **** 
  25:../3-ComProcessos/Serial.h ****    /* Configure the USART1 */
  26:../3-ComProcessos/Serial.h ****    USART_InitTypeDef USART_InitStructure;
 829              		.loc 3 26 4 view .LVU194
  27:../3-ComProcessos/Serial.h ****    USART_InitStructure.USART_BaudRate = 115200;
 830              		.loc 3 27 4 view .LVU195
  28:../3-ComProcessos/Serial.h ****    USART_InitStructure.USART_WordLength = USART_WordLength_8b;
 831              		.loc 3 28 4 view .LVU196
  29:../3-ComProcessos/Serial.h ****    USART_InitStructure.USART_StopBits = USART_StopBits_1;
 832              		.loc 3 29 4 view .LVU197
  30:../3-ComProcessos/Serial.h ****    USART_InitStructure.USART_Parity = USART_Parity_No;
 833              		.loc 3 30 4 view .LVU198
  31:../3-ComProcessos/Serial.h ****    USART_InitStructure.USART_HardwareFlowControl = USART_HardwareFlowControl_None;
 834              		.loc 3 31 4 view .LVU199
  32:../3-ComProcessos/Serial.h ****    USART_InitStructure.USART_Mode = USART_Mode_Rx | USART_Mode_Tx;
 835              		.loc 3 32 4 view .LVU200
 836              	@ ../3-ComProcessos/Serial.h:28:    USART_InitStructure.USART_WordLength = USART_WordLength_8b;
  28:../3-ComProcessos/Serial.h ****    USART_InitStructure.USART_StopBits = USART_StopBits_1;
 837              		.loc 3 28 41 is_stmt 0 view .LVU201
 838 0294 0023     		movs	r3, #0	@ tmp126,
ARM GAS  /tmp/ccbw8mZO.s 			page 21


 839 0296 4FF4E132 		mov	r2, #115200	@,
 840 029a CDE90223 		strd	r2, r3, [sp, #8]	@, tmp126,,
 841              	@ ../3-ComProcessos/Serial.h:30:    USART_InitStructure.USART_Parity = USART_Parity_No;
  30:../3-ComProcessos/Serial.h ****    USART_InitStructure.USART_HardwareFlowControl = USART_HardwareFlowControl_None;
 842              		.loc 3 30 37 view .LVU202
 843 029e 4FF44022 		mov	r2, #786432	@ tmp127,
 844              	@ ../3-ComProcessos/Serial.h:34:    USART_Init(USART1, &USART_InitStructure);
  33:../3-ComProcessos/Serial.h **** 
  34:../3-ComProcessos/Serial.h ****    USART_Init(USART1, &USART_InitStructure);
 845              		.loc 3 34 4 view .LVU203
 846 02a2 04F54054 		add	r4, r4, #12288	@ tmp131, tmp131,
 847 02a6 2046     		mov	r0, r4	@, tmp131
 848 02a8 02A9     		add	r1, sp, #8	@,,
 849              	@ ../3-ComProcessos/Serial.h:30:    USART_InitStructure.USART_Parity = USART_Parity_No;
  30:../3-ComProcessos/Serial.h ****    USART_InitStructure.USART_HardwareFlowControl = USART_HardwareFlowControl_None;
 850              		.loc 3 30 37 view .LVU204
 851 02aa 0492     		str	r2, [sp, #16]	@ tmp127, MEM <unsigned int> [(short unsigned int *)&USART_InitStructure + 8B]
 852              	@ ../3-ComProcessos/Serial.h:31:    USART_InitStructure.USART_HardwareFlowControl = USART_HardwareF
  31:../3-ComProcessos/Serial.h ****    USART_InitStructure.USART_Mode = USART_Mode_Rx | USART_Mode_Tx;
 853              		.loc 3 31 50 view .LVU205
 854 02ac ADF81430 		strh	r3, [sp, #20]	@ movhi	@ tmp126, USART_InitStructure.USART_HardwareFlowControl
 855              		.loc 3 34 4 is_stmt 1 view .LVU206
 856 02b0 FFF7FEFF 		bl	USART_Init		@
 857              	.LVL20:
  35:../3-ComProcessos/Serial.h **** 
  36:../3-ComProcessos/Serial.h ****    /* Enable USART1 */
  37:../3-ComProcessos/Serial.h ****    USART_Cmd(USART1, ENABLE);
 858              		.loc 3 37 4 view .LVU207
 859 02b4 0121     		movs	r1, #1	@,
 860 02b6 2046     		mov	r0, r4	@, tmp131
 861 02b8 FFF7FEFF 		bl	USART_Cmd		@
 862              	.LVL21:
 863              	@ ../3-ComProcessos/Serial.h:38: }
  38:../3-ComProcessos/Serial.h **** }
 864              		.loc 3 38 1 is_stmt 0 view .LVU208
 865 02bc 06B0     		add	sp, sp, #24	@,,
 866              	.LCFI7:
 867              		.cfi_def_cfa_offset 8
 868              		@ sp needed	@
 869 02be 10BD     		pop	{r4, pc}	@
 870              	.L43:
 871              		.align	2
 872              	.L42:
 873 02c0 00080140 		.word	1073809408
 874              		.cfi_endproc
 875              	.LFE40:
 876              		.size	USART_init, .-USART_init
 877              		.align	1
 878              		.global	USARTSend
 879              		.syntax unified
 880              		.thumb
 881              		.thumb_func
 882              		.type	USARTSend, %function
 883              	USARTSend:
 884              	.LVL22:
 885              	.LFB41:
  39:../3-ComProcessos/Serial.h **** 
ARM GAS  /tmp/ccbw8mZO.s 			page 22


  40:../3-ComProcessos/Serial.h **** void USARTSend(char *pucBuffer) {
 886              		.loc 3 40 33 is_stmt 1 view -0
 887              		.cfi_startproc
 888              		@ args = 0, pretend = 0, frame = 0
 889              		@ frame_needed = 0, uses_anonymous_args = 0
  41:../3-ComProcessos/Serial.h ****     while (*pucBuffer)
 890              		.loc 3 41 5 view .LVU210
 891              	@ ../3-ComProcessos/Serial.h:40: void USARTSend(char *pucBuffer) {
  40:../3-ComProcessos/Serial.h ****     while (*pucBuffer)
 892              		.loc 3 40 33 is_stmt 0 view .LVU211
 893 02c4 38B5     		push	{r3, r4, r5, lr}	@
 894              	.LCFI8:
 895              		.cfi_def_cfa_offset 16
 896              		.cfi_offset 3, -16
 897              		.cfi_offset 4, -12
 898              		.cfi_offset 5, -8
 899              		.cfi_offset 14, -4
 900              	@ ../3-ComProcessos/Serial.h:43:         USART_SendData(USART1, *pucBuffer++);
  42:../3-ComProcessos/Serial.h ****     {
  43:../3-ComProcessos/Serial.h ****         USART_SendData(USART1, *pucBuffer++);
 901              		.loc 3 43 9 view .LVU212
 902 02c6 084D     		ldr	r5, .L50	@ tmp126,
 903 02c8 441E     		subs	r4, r0, #1	@ ivtmp.56, tmp128,
 904              	.LVL23:
 905              	.L45:
  41:../3-ComProcessos/Serial.h ****     {
 906              		.loc 3 41 11 is_stmt 1 view .LVU213
 907              	@ ../3-ComProcessos/Serial.h:41:     while (*pucBuffer)
  41:../3-ComProcessos/Serial.h ****     {
 908              		.loc 3 41 12 is_stmt 0 view .LVU214
 909 02ca 14F8011F 		ldrb	r1, [r4, #1]!	@ zero_extendqisi2	@ _3, MEM[base: _16, offset: 0B]
 910              	.LVL24:
 911              	@ ../3-ComProcessos/Serial.h:41:     while (*pucBuffer)
  41:../3-ComProcessos/Serial.h ****     {
 912              		.loc 3 41 11 view .LVU215
 913 02ce 01B9     		cbnz	r1, .L47	@ _3,
 914              	@ ../3-ComProcessos/Serial.h:48: }
  44:../3-ComProcessos/Serial.h ****         while(USART_GetFlagStatus(USART1, USART_FLAG_TC) == RESET)
  45:../3-ComProcessos/Serial.h ****         {
  46:../3-ComProcessos/Serial.h ****         }
  47:../3-ComProcessos/Serial.h ****     }
  48:../3-ComProcessos/Serial.h **** }
 915              		.loc 3 48 1 view .LVU216
 916 02d0 38BD     		pop	{r3, r4, r5, pc}	@
 917              	.LVL25:
 918              	.L47:
  43:../3-ComProcessos/Serial.h ****         while(USART_GetFlagStatus(USART1, USART_FLAG_TC) == RESET)
 919              		.loc 3 43 9 is_stmt 1 view .LVU217
  43:../3-ComProcessos/Serial.h ****         while(USART_GetFlagStatus(USART1, USART_FLAG_TC) == RESET)
 920              		.loc 3 43 9 is_stmt 0 view .LVU218
 921 02d2 2846     		mov	r0, r5	@, tmp126
 922 02d4 FFF7FEFF 		bl	USART_SendData		@
 923              	.LVL26:
  44:../3-ComProcessos/Serial.h ****         while(USART_GetFlagStatus(USART1, USART_FLAG_TC) == RESET)
 924              		.loc 3 44 9 is_stmt 1 view .LVU219
 925              	.L46:
  46:../3-ComProcessos/Serial.h ****     }
ARM GAS  /tmp/ccbw8mZO.s 			page 23


 926              		.loc 3 46 9 discriminator 1 view .LVU220
  44:../3-ComProcessos/Serial.h ****         while(USART_GetFlagStatus(USART1, USART_FLAG_TC) == RESET)
 927              		.loc 3 44 14 discriminator 1 view .LVU221
 928              	@ ../3-ComProcessos/Serial.h:44:         while(USART_GetFlagStatus(USART1, USART_FLAG_TC) == RESET)
  44:../3-ComProcessos/Serial.h ****         while(USART_GetFlagStatus(USART1, USART_FLAG_TC) == RESET)
 929              		.loc 3 44 15 is_stmt 0 discriminator 1 view .LVU222
 930 02d8 4021     		movs	r1, #64	@,
 931 02da 2846     		mov	r0, r5	@, tmp126
 932 02dc FFF7FEFF 		bl	USART_GetFlagStatus		@
 933              	.LVL27:
 934              	@ ../3-ComProcessos/Serial.h:44:         while(USART_GetFlagStatus(USART1, USART_FLAG_TC) == RESET)
  44:../3-ComProcessos/Serial.h ****         while(USART_GetFlagStatus(USART1, USART_FLAG_TC) == RESET)
 935              		.loc 3 44 14 discriminator 1 view .LVU223
 936 02e0 0028     		cmp	r0, #0	@ tmp129
 937 02e2 F9D0     		beq	.L46	@
 938 02e4 F1E7     		b	.L45		@
 939              	.L51:
 940 02e6 00BF     		.align	2
 941              	.L50:
 942 02e8 00380140 		.word	1073821696
 943              		.cfi_endproc
 944              	.LFE41:
 945              		.size	USARTSend, .-USARTSend
 946              		.section	.rodata.str1.1
 947              	.LC2:
 948 001e 0D0A5465 		.ascii	"\015\012Teste: \000"
 948      7374653A 
 948      2000
 949              		.text
 950              		.align	1
 951              		.syntax unified
 952              		.thumb
 953              		.thumb_func
 954              		.type	task3, %function
 955              	task3:
 956              	.LVL28:
 957              	.LFB44:
  81:../3-ComProcessos/main.c **** 	}
  82:../3-ComProcessos/main.c **** }
  83:../3-ComProcessos/main.c **** 
  84:../3-ComProcessos/main.c **** static void task3(void *args __attribute ((unused))){
 958              		.loc 1 84 53 is_stmt 1 view -0
 959              		.cfi_startproc
 960              		@ args = 0, pretend = 0, frame = 8
 961              		@ frame_needed = 0, uses_anonymous_args = 0
  85:../3-ComProcessos/main.c **** 	USART_init();
 962              		.loc 1 85 2 view .LVU225
 963              	@ ../3-ComProcessos/main.c:84: static void task3(void *args __attribute ((unused))){
  84:../3-ComProcessos/main.c **** 	USART_init();
 964              		.loc 1 84 53 is_stmt 0 view .LVU226
 965 02ec 37B5     		push	{r0, r1, r2, r4, r5, lr}	@
 966              	.LCFI9:
 967              		.cfi_def_cfa_offset 24
 968              		.cfi_offset 4, -12
 969              		.cfi_offset 5, -8
 970              		.cfi_offset 14, -4
 971              	@ ../3-ComProcessos/main.c:85: 	USART_init();
ARM GAS  /tmp/ccbw8mZO.s 			page 24


 972              		.loc 1 85 2 view .LVU227
 973 02ee FFF7FEFF 		bl	USART_init		@
 974              	.LVL29:
  86:../3-ComProcessos/main.c **** 	u8 cont = 0;
 975              		.loc 1 86 2 is_stmt 1 view .LVU228
 976              	@ ../3-ComProcessos/main.c:86: 	u8 cont = 0;
 977              		.loc 1 86 5 is_stmt 0 view .LVU229
 978 02f2 0024     		movs	r4, #0	@ cont,
 979              	@ ../3-ComProcessos/main.c:90: 		USARTSend("\r\nTeste: ");
  87:../3-ComProcessos/main.c **** 	char info[8]; // tamanho max de um numero é de 32 bits
  88:../3-ComProcessos/main.c **** 	while(1){
  89:../3-ComProcessos/main.c **** 		cont ++;
  90:../3-ComProcessos/main.c **** 		USARTSend("\r\nTeste: ");
 980              		.loc 1 90 3 view .LVU230
 981 02f4 094D     		ldr	r5, .L54	@ tmp120,
 982              	.LVL30:
 983              	.L53:
  87:../3-ComProcessos/main.c **** 	char info[8]; // tamanho max de um numero é de 32 bits
 984              		.loc 1 87 2 is_stmt 1 discriminator 1 view .LVU231
  88:../3-ComProcessos/main.c **** 		cont ++;
 985              		.loc 1 88 2 discriminator 1 view .LVU232
  89:../3-ComProcessos/main.c **** 		USARTSend("\r\nTeste: ");
 986              		.loc 1 89 3 discriminator 1 view .LVU233
 987              	@ ../3-ComProcessos/main.c:89: 		cont ++;
  89:../3-ComProcessos/main.c **** 		USARTSend("\r\nTeste: ");
 988              		.loc 1 89 8 is_stmt 0 discriminator 1 view .LVU234
 989 02f6 0134     		adds	r4, r4, #1	@ tmp116, cont,
 990              	.LVL31:
 991              	@ ../3-ComProcessos/main.c:90: 		USARTSend("\r\nTeste: ");
 992              		.loc 1 90 3 discriminator 1 view .LVU235
 993 02f8 2846     		mov	r0, r5	@, tmp120
 994              	@ ../3-ComProcessos/main.c:89: 		cont ++;
  89:../3-ComProcessos/main.c **** 		USARTSend("\r\nTeste: ");
 995              		.loc 1 89 8 discriminator 1 view .LVU236
 996 02fa E4B2     		uxtb	r4, r4	@ cont, tmp116
 997              	.LVL32:
 998              		.loc 1 90 3 is_stmt 1 discriminator 1 view .LVU237
 999 02fc FFF7FEFF 		bl	USARTSend		@
 1000              	.LVL33:
  91:../3-ComProcessos/main.c **** 		itoa( cont, info, HEX); // Base: 2 8 10 16
 1001              		.loc 1 91 3 discriminator 1 view .LVU238
 1002 0300 1022     		movs	r2, #16	@,
 1003 0302 6946     		mov	r1, sp	@,
 1004 0304 2046     		mov	r0, r4	@, cont
 1005 0306 FFF7FEFF 		bl	itoa		@
 1006              	.LVL34:
  92:../3-ComProcessos/main.c **** 		USARTSend( info );
 1007              		.loc 1 92 3 discriminator 1 view .LVU239
 1008 030a 6846     		mov	r0, sp	@,
 1009 030c FFF7FEFF 		bl	USARTSend		@
 1010              	.LVL35:
  93:../3-ComProcessos/main.c **** 		__delay_ms(100);
 1011              		.loc 1 93 3 discriminator 1 view .LVU240
 1012 0310 42F21070 		movw	r0, #10000	@,
 1013 0314 FFF7FEFF 		bl	vTaskDelay		@
 1014              	.LVL36:
  88:../3-ComProcessos/main.c **** 		cont ++;
ARM GAS  /tmp/ccbw8mZO.s 			page 25


 1015              		.loc 1 88 7 discriminator 1 view .LVU241
 1016 0318 EDE7     		b	.L53		@
 1017              	.L55:
 1018 031a 00BF     		.align	2
 1019              	.L54:
 1020 031c 1E000000 		.word	.LC2
 1021              		.cfi_endproc
 1022              	.LFE44:
 1023              		.size	task3, .-task3
 1024              		.section	.rodata.str1.1
 1025              	.LC3:
 1026 0028 4C43445F 		.ascii	"LCD_16x2\000"
 1026      31367832 
 1026      00
 1027              	.LC4:
 1028 0031 4C45445F 		.ascii	"LED_13\000"
 1028      313300
 1029              	.LC5:
 1030 0038 55534172 		.ascii	"USArt\000"
 1030      7400
 1031              		.section	.text.startup,"ax",%progbits
 1032              		.align	1
 1033              		.global	main
 1034              		.syntax unified
 1035              		.thumb
 1036              		.thumb_func
 1037              		.type	main, %function
 1038              	main:
 1039              	.LFB45:
  94:../3-ComProcessos/main.c **** 	}
  95:../3-ComProcessos/main.c **** }
  96:../3-ComProcessos/main.c **** 
  97:../3-ComProcessos/main.c **** int main(void) {
 1040              		.loc 1 97 16 view -0
 1041              		.cfi_startproc
 1042              		@ Volatile: function does not return.
 1043              		@ args = 0, pretend = 0, frame = 0
 1044              		@ frame_needed = 0, uses_anonymous_args = 0
  98:../3-ComProcessos/main.c **** 	xQueue = xQueueCreate(5 /* Tamanho máximo da fila. */,
 1045              		.loc 1 98 2 view .LVU243
 1046              	@ ../3-ComProcessos/main.c:103: 	xTaskCreate(task1,"LCD_16x2", 100 ,NULL, 4 ,NULL);
  99:../3-ComProcessos/main.c **** 								sizeof(u32) /* Largura máxima da fila. */);
 100:../3-ComProcessos/main.c **** 
 101:../3-ComProcessos/main.c **** 	set_system_clock_to_72Mhz();
 102:../3-ComProcessos/main.c **** 
 103:../3-ComProcessos/main.c **** 	xTaskCreate(task1,"LCD_16x2", 100 ,NULL, 4 ,NULL);
 1047              		.loc 1 103 2 is_stmt 0 view .LVU244
 1048 0000 0024     		movs	r4, #0	@ tmp116,
 1049 0002 0425     		movs	r5, #4	@ tmp117,
 1050              	@ ../3-ComProcessos/main.c:97: int main(void) {
  97:../3-ComProcessos/main.c **** 	xQueue = xQueueCreate(5 /* Tamanho máximo da fila. */,
 1051              		.loc 1 97 16 view .LVU245
 1052 0004 07B5     		push	{r0, r1, r2, lr}	@
 1053              	.LCFI10:
 1054              		.cfi_def_cfa_offset 16
 1055              		.cfi_offset 14, -4
 1056              	@ ../3-ComProcessos/main.c:98: 	xQueue = xQueueCreate(5 /* Tamanho máximo da fila. */,
ARM GAS  /tmp/ccbw8mZO.s 			page 26


  98:../3-ComProcessos/main.c **** 	xQueue = xQueueCreate(5 /* Tamanho máximo da fila. */,
 1057              		.loc 1 98 11 view .LVU246
 1058 0006 0022     		movs	r2, #0	@,
 1059 0008 0421     		movs	r1, #4	@,
 1060 000a 0520     		movs	r0, #5	@,
 1061 000c FFF7FEFF 		bl	xQueueGenericCreate		@
 1062              	.LVL37:
 101:../3-ComProcessos/main.c **** 
 1063              		.loc 1 101 2 is_stmt 1 view .LVU247
 1064 0010 FFF7FEFF 		bl	set_system_clock_to_72Mhz		@
 1065              	.LVL38:
 1066              		.loc 1 103 2 view .LVU248
 1067 0014 0D48     		ldr	r0, .L58	@,
 1068 0016 2346     		mov	r3, r4	@, tmp116
 1069 0018 6422     		movs	r2, #100	@,
 1070 001a 0D49     		ldr	r1, .L58+4	@,
 1071 001c CDE90054 		strd	r5, r4, [sp]	@ tmp117, tmp116,
 1072 0020 FFF7FEFF 		bl	xTaskCreate		@
 1073              	.LVL39:
 104:../3-ComProcessos/main.c **** 	xTaskCreate(task2, "LED_13", 100 , NULL, 4 , NULL);
 1074              		.loc 1 104 2 view .LVU249
 1075 0024 2346     		mov	r3, r4	@, tmp116
 1076 0026 6422     		movs	r2, #100	@,
 1077 0028 0A49     		ldr	r1, .L58+8	@,
 1078 002a CDE90054 		strd	r5, r4, [sp]	@ tmp117, tmp116,
 1079 002e 0A48     		ldr	r0, .L58+12	@,
 1080 0030 FFF7FEFF 		bl	xTaskCreate		@
 1081              	.LVL40:
 105:../3-ComProcessos/main.c **** 	xTaskCreate(task3, "USArt", 100 , NULL, 4 , NULL);
 1082              		.loc 1 105 2 view .LVU250
 1083 0034 2346     		mov	r3, r4	@, tmp116
 1084 0036 6422     		movs	r2, #100	@,
 1085 0038 0849     		ldr	r1, .L58+16	@,
 1086 003a CDE90054 		strd	r5, r4, [sp]	@ tmp117, tmp116,
 1087 003e 0848     		ldr	r0, .L58+20	@,
 1088 0040 FFF7FEFF 		bl	xTaskCreate		@
 1089              	.LVL41:
 106:../3-ComProcessos/main.c **** 
 107:../3-ComProcessos/main.c **** 	vTaskStartScheduler(); // inicia o escalonador de
 1090              		.loc 1 107 2 view .LVU251
 1091 0044 FFF7FEFF 		bl	vTaskStartScheduler		@
 1092              	.LVL42:
 1093              	.L57:
 108:../3-ComProcessos/main.c **** 								  // processos.
 109:../3-ComProcessos/main.c **** 	while(1);
 1094              		.loc 1 109 2 discriminator 1 view .LVU252
 1095              		.loc 1 109 10 discriminator 1 view .LVU253
 1096              		.loc 1 109 7 discriminator 1 view .LVU254
 1097 0048 FEE7     		b	.L57		@
 1098              	.L59:
 1099 004a 00BF     		.align	2
 1100              	.L58:
 1101 004c 00000000 		.word	task1
 1102 0050 28000000 		.word	.LC3
 1103 0054 31000000 		.word	.LC4
 1104 0058 00000000 		.word	task2
 1105 005c 38000000 		.word	.LC5
ARM GAS  /tmp/ccbw8mZO.s 			page 27


 1106 0060 00000000 		.word	task3
 1107              		.cfi_endproc
 1108              	.LFE45:
 1109              		.size	main, .-main
 1110              		.text
 1111              	.Letext0:
 1112              		.file 4 "/usr/arm-none-eabi/include/machine/_default_types.h"
 1113              		.file 5 "/usr/arm-none-eabi/include/sys/_stdint.h"
 1114              		.file 6 "../freertos/portable/GCC/ARM_CM3/portmacro.h"
 1115              		.file 7 "../freertos/include/queue.h"
 1116              		.file 8 "../stm32f10x_lib/CMSIS/CM3/DeviceSupport/ST/STM32F10x/stm32f10x.h"
 1117              		.file 9 "../stm32f10x_lib/CMSIS/CM3/CoreSupport/core_cm3.h"
 1118              		.file 10 "../stm32f10x_lib/STM32F10x_StdPeriph_Driver/inc/stm32f10x_gpio.h"
 1119              		.file 11 "../stm32f10x_lib/STM32F10x_StdPeriph_Driver/inc/stm32f10x_usart.h"
 1120              		.file 12 "../freertos/include/task.h"
 1121              		.file 13 "/usr/arm-none-eabi/include/stdlib.h"
 1122              		.file 14 "../3-ComProcessos/myLcd.h"
 1123              		.file 15 "../stm32f10x_lib/STM32F10x_StdPeriph_Driver/inc/stm32f10x_rcc.h"
 1124              		.section	.debug_info,"",%progbits
 1125              	.Ldebug_info0:
 1126 0000 87110000 		.4byte	0x1187
 1127 0004 0200     		.2byte	0x2
 1128 0006 00000000 		.4byte	.Ldebug_abbrev0
 1129 000a 04       		.byte	0x4
 1130 000b 01       		.uleb128 0x1
 1131 000c 41040000 		.4byte	.LASF205
 1132 0010 0C       		.byte	0xc
 1133 0011 5B060000 		.4byte	.LASF206
 1134 0015 61050000 		.4byte	.LASF207
 1135 0019 00000000 		.4byte	.Ldebug_ranges0+0
 1136 001d 00000000 		.4byte	0
 1137 0021 00000000 		.4byte	0
 1138 0025 00000000 		.4byte	.Ldebug_line0
 1139 0029 02       		.uleb128 0x2
 1140 002a 04       		.byte	0x4
 1141 002b 05       		.byte	0x5
 1142 002c 696E7400 		.ascii	"int\000"
 1143 0030 03       		.uleb128 0x3
 1144 0031 04       		.byte	0x4
 1145 0032 07       		.byte	0x7
 1146 0033 66030000 		.4byte	.LASF0
 1147 0037 03       		.uleb128 0x3
 1148 0038 08       		.byte	0x8
 1149 0039 05       		.byte	0x5
 1150 003a 12010000 		.4byte	.LASF1
 1151 003e 03       		.uleb128 0x3
 1152 003f 08       		.byte	0x8
 1153 0040 04       		.byte	0x4
 1154 0041 25080000 		.4byte	.LASF2
 1155 0045 03       		.uleb128 0x3
 1156 0046 01       		.byte	0x1
 1157 0047 06       		.byte	0x6
 1158 0048 20010000 		.4byte	.LASF3
 1159 004c 04       		.uleb128 0x4
 1160 004d 62000000 		.4byte	.LASF6
 1161 0051 04       		.byte	0x4
 1162 0052 2B       		.byte	0x2b
ARM GAS  /tmp/ccbw8mZO.s 			page 28


 1163 0053 18       		.byte	0x18
 1164 0054 58000000 		.4byte	0x58
 1165 0058 03       		.uleb128 0x3
 1166 0059 01       		.byte	0x1
 1167 005a 08       		.byte	0x8
 1168 005b 2E070000 		.4byte	.LASF4
 1169 005f 03       		.uleb128 0x3
 1170 0060 02       		.byte	0x2
 1171 0061 05       		.byte	0x5
 1172 0062 EB040000 		.4byte	.LASF5
 1173 0066 04       		.uleb128 0x4
 1174 0067 E7020000 		.4byte	.LASF7
 1175 006b 04       		.byte	0x4
 1176 006c 39       		.byte	0x39
 1177 006d 19       		.byte	0x19
 1178 006e 72000000 		.4byte	0x72
 1179 0072 03       		.uleb128 0x3
 1180 0073 02       		.byte	0x2
 1181 0074 07       		.byte	0x7
 1182 0075 C1020000 		.4byte	.LASF8
 1183 0079 03       		.uleb128 0x3
 1184 007a 04       		.byte	0x4
 1185 007b 05       		.byte	0x5
 1186 007c 07020000 		.4byte	.LASF9
 1187 0080 04       		.uleb128 0x4
 1188 0081 F2020000 		.4byte	.LASF10
 1189 0085 04       		.byte	0x4
 1190 0086 4F       		.byte	0x4f
 1191 0087 19       		.byte	0x19
 1192 0088 8C000000 		.4byte	0x8c
 1193 008c 03       		.uleb128 0x3
 1194 008d 04       		.byte	0x4
 1195 008e 07       		.byte	0x7
 1196 008f 97030000 		.4byte	.LASF11
 1197 0093 03       		.uleb128 0x3
 1198 0094 08       		.byte	0x8
 1199 0095 07       		.byte	0x7
 1200 0096 72010000 		.4byte	.LASF12
 1201 009a 04       		.uleb128 0x4
 1202 009b 61090000 		.4byte	.LASF13
 1203 009f 05       		.byte	0x5
 1204 00a0 18       		.byte	0x18
 1205 00a1 13       		.byte	0x13
 1206 00a2 4C000000 		.4byte	0x4c
 1207 00a6 05       		.uleb128 0x5
 1208 00a7 9A000000 		.4byte	0x9a
 1209 00ab 04       		.uleb128 0x4
 1210 00ac 5A020000 		.4byte	.LASF14
 1211 00b0 05       		.byte	0x5
 1212 00b1 24       		.byte	0x24
 1213 00b2 14       		.byte	0x14
 1214 00b3 66000000 		.4byte	0x66
 1215 00b7 05       		.uleb128 0x5
 1216 00b8 AB000000 		.4byte	0xab
 1217 00bc 04       		.uleb128 0x4
 1218 00bd E9070000 		.4byte	.LASF15
 1219 00c1 05       		.byte	0x5
ARM GAS  /tmp/ccbw8mZO.s 			page 29


 1220 00c2 30       		.byte	0x30
 1221 00c3 14       		.byte	0x14
 1222 00c4 80000000 		.4byte	0x80
 1223 00c8 05       		.uleb128 0x5
 1224 00c9 BC000000 		.4byte	0xbc
 1225 00cd 06       		.uleb128 0x6
 1226 00ce 04       		.byte	0x4
 1227 00cf 04       		.uleb128 0x4
 1228 00d0 CA050000 		.4byte	.LASF16
 1229 00d4 06       		.byte	0x6
 1230 00d5 3F       		.byte	0x3f
 1231 00d6 13       		.byte	0x13
 1232 00d7 BC000000 		.4byte	0xbc
 1233 00db 03       		.uleb128 0x3
 1234 00dc 01       		.byte	0x1
 1235 00dd 08       		.byte	0x8
 1236 00de 49080000 		.4byte	.LASF17
 1237 00e2 04       		.uleb128 0x4
 1238 00e3 D4000000 		.4byte	.LASF18
 1239 00e7 07       		.byte	0x7
 1240 00e8 30       		.byte	0x30
 1241 00e9 22       		.byte	0x22
 1242 00ea EE000000 		.4byte	0xee
 1243 00ee 07       		.uleb128 0x7
 1244 00ef 04       		.byte	0x4
 1245 00f0 F4000000 		.4byte	0xf4
 1246 00f4 08       		.uleb128 0x8
 1247 00f5 F0060000 		.4byte	.LASF208
 1248 00f9 01       		.byte	0x1
 1249 00fa 07       		.uleb128 0x7
 1250 00fb 04       		.byte	0x4
 1251 00fc DB000000 		.4byte	0xdb
 1252 0100 09       		.uleb128 0x9
 1253 0101 DB000000 		.4byte	0xdb
 1254 0105 10010000 		.4byte	0x110
 1255 0109 0A       		.uleb128 0xa
 1256 010a 30000000 		.4byte	0x30
 1257 010e 07       		.byte	0x7
 1258 010f 00       		.byte	0
 1259 0110 0B       		.uleb128 0xb
 1260 0111 2C050000 		.4byte	.LASF185
 1261 0115 05       		.byte	0x5
 1262 0116 01       		.byte	0x1
 1263 0117 45000000 		.4byte	0x45
 1264 011b 08       		.byte	0x8
 1265 011c A7       		.byte	0xa7
 1266 011d 0E       		.byte	0xe
 1267 011e 55020000 		.4byte	0x255
 1268 0122 0C       		.uleb128 0xc
 1269 0123 B3080000 		.4byte	.LASF19
 1270 0127 72       		.sleb128 -14
 1271 0128 0C       		.uleb128 0xc
 1272 0129 81030000 		.4byte	.LASF20
 1273 012d 74       		.sleb128 -12
 1274 012e 0C       		.uleb128 0xc
 1275 012f 4E080000 		.4byte	.LASF21
 1276 0133 75       		.sleb128 -11
ARM GAS  /tmp/ccbw8mZO.s 			page 30


 1277 0134 0C       		.uleb128 0xc
 1278 0135 08080000 		.4byte	.LASF22
 1279 0139 76       		.sleb128 -10
 1280 013a 0C       		.uleb128 0xc
 1281 013b A0050000 		.4byte	.LASF23
 1282 013f 7B       		.sleb128 -5
 1283 0140 0C       		.uleb128 0xc
 1284 0141 D9040000 		.4byte	.LASF24
 1285 0145 7C       		.sleb128 -4
 1286 0146 0C       		.uleb128 0xc
 1287 0147 B5020000 		.4byte	.LASF25
 1288 014b 7E       		.sleb128 -2
 1289 014c 0C       		.uleb128 0xc
 1290 014d FA040000 		.4byte	.LASF26
 1291 0151 7F       		.sleb128 -1
 1292 0152 0D       		.uleb128 0xd
 1293 0153 ED000000 		.4byte	.LASF27
 1294 0157 00       		.byte	0
 1295 0158 0D       		.uleb128 0xd
 1296 0159 24000000 		.4byte	.LASF28
 1297 015d 01       		.byte	0x1
 1298 015e 0D       		.uleb128 0xd
 1299 015f E2080000 		.4byte	.LASF29
 1300 0163 02       		.byte	0x2
 1301 0164 0D       		.uleb128 0xd
 1302 0165 91000000 		.4byte	.LASF30
 1303 0169 03       		.byte	0x3
 1304 016a 0D       		.uleb128 0xd
 1305 016b C2070000 		.4byte	.LASF31
 1306 016f 04       		.byte	0x4
 1307 0170 0D       		.uleb128 0xd
 1308 0171 F1090000 		.4byte	.LASF32
 1309 0175 05       		.byte	0x5
 1310 0176 0D       		.uleb128 0xd
 1311 0177 4D010000 		.4byte	.LASF33
 1312 017b 06       		.byte	0x6
 1313 017c 0D       		.uleb128 0xd
 1314 017d 040A0000 		.4byte	.LASF34
 1315 0181 07       		.byte	0x7
 1316 0182 0D       		.uleb128 0xd
 1317 0183 E2000000 		.4byte	.LASF35
 1318 0187 08       		.byte	0x8
 1319 0188 0D       		.uleb128 0xd
 1320 0189 6F020000 		.4byte	.LASF36
 1321 018d 09       		.byte	0x9
 1322 018e 0D       		.uleb128 0xd
 1323 018f 50070000 		.4byte	.LASF37
 1324 0193 0A       		.byte	0xa
 1325 0194 0D       		.uleb128 0xd
 1326 0195 83060000 		.4byte	.LASF38
 1327 0199 0B       		.byte	0xb
 1328 019a 0D       		.uleb128 0xd
 1329 019b 4E050000 		.4byte	.LASF39
 1330 019f 0C       		.byte	0xc
 1331 01a0 0D       		.uleb128 0xd
 1332 01a1 36080000 		.4byte	.LASF40
 1333 01a5 0D       		.byte	0xd
ARM GAS  /tmp/ccbw8mZO.s 			page 31


 1334 01a6 0D       		.uleb128 0xd
 1335 01a7 D4020000 		.4byte	.LASF41
 1336 01ab 0E       		.byte	0xe
 1337 01ac 0D       		.uleb128 0xd
 1338 01ad E4030000 		.4byte	.LASF42
 1339 01b1 0F       		.byte	0xf
 1340 01b2 0D       		.uleb128 0xd
 1341 01b3 C7080000 		.4byte	.LASF43
 1342 01b7 10       		.byte	0x10
 1343 01b8 0D       		.uleb128 0xd
 1344 01b9 95090000 		.4byte	.LASF44
 1345 01bd 11       		.byte	0x11
 1346 01be 0D       		.uleb128 0xd
 1347 01bf 7A020000 		.4byte	.LASF45
 1348 01c3 12       		.byte	0x12
 1349 01c4 0D       		.uleb128 0xd
 1350 01c5 3C070000 		.4byte	.LASF46
 1351 01c9 13       		.byte	0x13
 1352 01ca 0D       		.uleb128 0xd
 1353 01cb 88070000 		.4byte	.LASF47
 1354 01cf 14       		.byte	0x14
 1355 01d0 0D       		.uleb128 0xd
 1356 01d1 3D000000 		.4byte	.LASF48
 1357 01d5 15       		.byte	0x15
 1358 01d6 0D       		.uleb128 0xd
 1359 01d7 E3090000 		.4byte	.LASF49
 1360 01db 16       		.byte	0x16
 1361 01dc 0D       		.uleb128 0xd
 1362 01dd 25020000 		.4byte	.LASF50
 1363 01e1 17       		.byte	0x17
 1364 01e2 0D       		.uleb128 0xd
 1365 01e3 5C080000 		.4byte	.LASF51
 1366 01e7 18       		.byte	0x18
 1367 01e8 0D       		.uleb128 0xd
 1368 01e9 EE080000 		.4byte	.LASF52
 1369 01ed 19       		.byte	0x19
 1370 01ee 0D       		.uleb128 0xd
 1371 01ef FC030000 		.4byte	.LASF53
 1372 01f3 1A       		.byte	0x1a
 1373 01f4 0D       		.uleb128 0xd
 1374 01f5 07050000 		.4byte	.LASF54
 1375 01f9 1B       		.byte	0x1b
 1376 01fa 0D       		.uleb128 0xd
 1377 01fb 25090000 		.4byte	.LASF55
 1378 01ff 1C       		.byte	0x1c
 1379 0200 0D       		.uleb128 0xd
 1380 0201 FA090000 		.4byte	.LASF56
 1381 0205 1D       		.byte	0x1d
 1382 0206 0D       		.uleb128 0xd
 1383 0207 CA000000 		.4byte	.LASF57
 1384 020b 1E       		.byte	0x1e
 1385 020c 0D       		.uleb128 0xd
 1386 020d 18080000 		.4byte	.LASF58
 1387 0211 1F       		.byte	0x1f
 1388 0212 0D       		.uleb128 0xd
 1389 0213 BE090000 		.4byte	.LASF59
 1390 0217 20       		.byte	0x20
ARM GAS  /tmp/ccbw8mZO.s 			page 32


 1391 0218 0D       		.uleb128 0xd
 1392 0219 AC050000 		.4byte	.LASF60
 1393 021d 21       		.byte	0x21
 1394 021e 0D       		.uleb128 0xd
 1395 021f BD000000 		.4byte	.LASF61
 1396 0223 22       		.byte	0x22
 1397 0224 0D       		.uleb128 0xd
 1398 0225 C1040000 		.4byte	.LASF62
 1399 0229 23       		.byte	0x23
 1400 022a 0D       		.uleb128 0xd
 1401 022b DB050000 		.4byte	.LASF63
 1402 022f 24       		.byte	0x24
 1403 0230 0D       		.uleb128 0xd
 1404 0231 0E040000 		.4byte	.LASF64
 1405 0235 25       		.byte	0x25
 1406 0236 0D       		.uleb128 0xd
 1407 0237 FC070000 		.4byte	.LASF65
 1408 023b 26       		.byte	0x26
 1409 023c 0D       		.uleb128 0xd
 1410 023d 14090000 		.4byte	.LASF66
 1411 0241 27       		.byte	0x27
 1412 0242 0D       		.uleb128 0xd
 1413 0243 32040000 		.4byte	.LASF67
 1414 0247 28       		.byte	0x28
 1415 0248 0D       		.uleb128 0xd
 1416 0249 6F080000 		.4byte	.LASF68
 1417 024d 29       		.byte	0x29
 1418 024e 0D       		.uleb128 0xd
 1419 024f FB080000 		.4byte	.LASF69
 1420 0253 2A       		.byte	0x2a
 1421 0254 00       		.byte	0
 1422 0255 0E       		.uleb128 0xe
 1423 0256 DF070000 		.4byte	.LASF70
 1424 025a 08       		.byte	0x8
 1425 025b D801     		.2byte	0x1d8
 1426 025d 03       		.byte	0x3
 1427 025e 10010000 		.4byte	0x110
 1428 0262 0F       		.uleb128 0xf
 1429 0263 040E     		.2byte	0xe04
 1430 0265 09       		.byte	0x9
 1431 0266 84       		.byte	0x84
 1432 0267 09       		.byte	0x9
 1433 0268 3A030000 		.4byte	0x33a
 1434 026c 10       		.uleb128 0x10
 1435 026d 37020000 		.4byte	.LASF71
 1436 0271 09       		.byte	0x9
 1437 0272 86       		.byte	0x86
 1438 0273 11       		.byte	0x11
 1439 0274 4A030000 		.4byte	0x34a
 1440 0278 02       		.byte	0x2
 1441 0279 23       		.byte	0x23
 1442 027a 00       		.uleb128 0
 1443 027b 10       		.uleb128 0x10
 1444 027c 96060000 		.4byte	.LASF72
 1445 0280 09       		.byte	0x9
 1446 0281 87       		.byte	0x87
 1447 0282 11       		.byte	0x11
ARM GAS  /tmp/ccbw8mZO.s 			page 33


 1448 0283 4F030000 		.4byte	0x34f
 1449 0287 02       		.byte	0x2
 1450 0288 23       		.byte	0x23
 1451 0289 20       		.uleb128 0x20
 1452 028a 10       		.uleb128 0x10
 1453 028b F5040000 		.4byte	.LASF73
 1454 028f 09       		.byte	0x9
 1455 0290 88       		.byte	0x88
 1456 0291 11       		.byte	0x11
 1457 0292 4A030000 		.4byte	0x34a
 1458 0296 03       		.byte	0x3
 1459 0297 23       		.byte	0x23
 1460 0298 8001     		.uleb128 0x80
 1461 029a 10       		.uleb128 0x10
 1462 029b 73090000 		.4byte	.LASF74
 1463 029f 09       		.byte	0x9
 1464 02a0 89       		.byte	0x89
 1465 02a1 11       		.byte	0x11
 1466 02a2 4F030000 		.4byte	0x34f
 1467 02a6 03       		.byte	0x3
 1468 02a7 23       		.byte	0x23
 1469 02a8 A001     		.uleb128 0xa0
 1470 02aa 10       		.uleb128 0x10
 1471 02ab F7000000 		.4byte	.LASF75
 1472 02af 09       		.byte	0x9
 1473 02b0 8A       		.byte	0x8a
 1474 02b1 11       		.byte	0x11
 1475 02b2 4A030000 		.4byte	0x34a
 1476 02b6 03       		.byte	0x3
 1477 02b7 23       		.byte	0x23
 1478 02b8 8002     		.uleb128 0x100
 1479 02ba 10       		.uleb128 0x10
 1480 02bb AA060000 		.4byte	.LASF76
 1481 02bf 09       		.byte	0x9
 1482 02c0 8B       		.byte	0x8b
 1483 02c1 11       		.byte	0x11
 1484 02c2 4F030000 		.4byte	0x34f
 1485 02c6 03       		.byte	0x3
 1486 02c7 23       		.byte	0x23
 1487 02c8 A002     		.uleb128 0x120
 1488 02ca 10       		.uleb128 0x10
 1489 02cb 0A000000 		.4byte	.LASF77
 1490 02cf 09       		.byte	0x9
 1491 02d0 8C       		.byte	0x8c
 1492 02d1 11       		.byte	0x11
 1493 02d2 4A030000 		.4byte	0x34a
 1494 02d6 03       		.byte	0x3
 1495 02d7 23       		.byte	0x23
 1496 02d8 8003     		.uleb128 0x180
 1497 02da 10       		.uleb128 0x10
 1498 02db B4060000 		.4byte	.LASF78
 1499 02df 09       		.byte	0x9
 1500 02e0 8D       		.byte	0x8d
 1501 02e1 11       		.byte	0x11
 1502 02e2 4F030000 		.4byte	0x34f
 1503 02e6 03       		.byte	0x3
 1504 02e7 23       		.byte	0x23
ARM GAS  /tmp/ccbw8mZO.s 			page 34


 1505 02e8 A003     		.uleb128 0x1a0
 1506 02ea 10       		.uleb128 0x10
 1507 02eb C5050000 		.4byte	.LASF79
 1508 02ef 09       		.byte	0x9
 1509 02f0 8E       		.byte	0x8e
 1510 02f1 11       		.byte	0x11
 1511 02f2 4A030000 		.4byte	0x34a
 1512 02f6 03       		.byte	0x3
 1513 02f7 23       		.byte	0x23
 1514 02f8 8004     		.uleb128 0x200
 1515 02fa 10       		.uleb128 0x10
 1516 02fb BE060000 		.4byte	.LASF80
 1517 02ff 09       		.byte	0x9
 1518 0300 8F       		.byte	0x8f
 1519 0301 11       		.byte	0x11
 1520 0302 5F030000 		.4byte	0x35f
 1521 0306 03       		.byte	0x3
 1522 0307 23       		.byte	0x23
 1523 0308 A004     		.uleb128 0x220
 1524 030a 11       		.uleb128 0x11
 1525 030b 495000   		.ascii	"IP\000"
 1526 030e 09       		.byte	0x9
 1527 030f 90       		.byte	0x90
 1528 0310 11       		.byte	0x11
 1529 0311 7F030000 		.4byte	0x37f
 1530 0315 03       		.byte	0x3
 1531 0316 23       		.byte	0x23
 1532 0317 8006     		.uleb128 0x300
 1533 0319 10       		.uleb128 0x10
 1534 031a C8060000 		.4byte	.LASF81
 1535 031e 09       		.byte	0x9
 1536 031f 91       		.byte	0x91
 1537 0320 11       		.byte	0x11
 1538 0321 84030000 		.4byte	0x384
 1539 0325 03       		.byte	0x3
 1540 0326 23       		.byte	0x23
 1541 0327 F007     		.uleb128 0x3f0
 1542 0329 10       		.uleb128 0x10
 1543 032a 7C090000 		.4byte	.LASF82
 1544 032e 09       		.byte	0x9
 1545 032f 92       		.byte	0x92
 1546 0330 11       		.byte	0x11
 1547 0331 C8000000 		.4byte	0xc8
 1548 0335 03       		.byte	0x3
 1549 0336 23       		.byte	0x23
 1550 0337 801C     		.uleb128 0xe00
 1551 0339 00       		.byte	0
 1552 033a 09       		.uleb128 0x9
 1553 033b C8000000 		.4byte	0xc8
 1554 033f 4A030000 		.4byte	0x34a
 1555 0343 0A       		.uleb128 0xa
 1556 0344 30000000 		.4byte	0x30
 1557 0348 07       		.byte	0x7
 1558 0349 00       		.byte	0
 1559 034a 05       		.uleb128 0x5
 1560 034b 3A030000 		.4byte	0x33a
 1561 034f 09       		.uleb128 0x9
ARM GAS  /tmp/ccbw8mZO.s 			page 35


 1562 0350 BC000000 		.4byte	0xbc
 1563 0354 5F030000 		.4byte	0x35f
 1564 0358 0A       		.uleb128 0xa
 1565 0359 30000000 		.4byte	0x30
 1566 035d 17       		.byte	0x17
 1567 035e 00       		.byte	0
 1568 035f 09       		.uleb128 0x9
 1569 0360 BC000000 		.4byte	0xbc
 1570 0364 6F030000 		.4byte	0x36f
 1571 0368 0A       		.uleb128 0xa
 1572 0369 30000000 		.4byte	0x30
 1573 036d 37       		.byte	0x37
 1574 036e 00       		.byte	0
 1575 036f 09       		.uleb128 0x9
 1576 0370 A6000000 		.4byte	0xa6
 1577 0374 7F030000 		.4byte	0x37f
 1578 0378 0A       		.uleb128 0xa
 1579 0379 30000000 		.4byte	0x30
 1580 037d EF       		.byte	0xef
 1581 037e 00       		.byte	0
 1582 037f 05       		.uleb128 0x5
 1583 0380 6F030000 		.4byte	0x36f
 1584 0384 09       		.uleb128 0x9
 1585 0385 BC000000 		.4byte	0xbc
 1586 0389 95030000 		.4byte	0x395
 1587 038d 12       		.uleb128 0x12
 1588 038e 30000000 		.4byte	0x30
 1589 0392 8302     		.2byte	0x283
 1590 0394 00       		.byte	0
 1591 0395 04       		.uleb128 0x4
 1592 0396 70070000 		.4byte	.LASF83
 1593 039a 09       		.byte	0x9
 1594 039b 93       		.byte	0x93
 1595 039c 04       		.byte	0x4
 1596 039d 62020000 		.4byte	0x262
 1597 03a1 13       		.uleb128 0x13
 1598 03a2 75333200 		.ascii	"u32\000"
 1599 03a6 08       		.byte	0x8
 1600 03a7 F701     		.2byte	0x1f7
 1601 03a9 13       		.byte	0x13
 1602 03aa BC000000 		.4byte	0xbc
 1603 03ae 05       		.uleb128 0x5
 1604 03af A1030000 		.4byte	0x3a1
 1605 03b3 13       		.uleb128 0x13
 1606 03b4 753800   		.ascii	"u8\000"
 1607 03b7 08       		.byte	0x8
 1608 03b8 F901     		.2byte	0x1f9
 1609 03ba 12       		.byte	0x12
 1610 03bb 9A000000 		.4byte	0x9a
 1611 03bf 14       		.uleb128 0x14
 1612 03c0 07       		.byte	0x7
 1613 03c1 01       		.byte	0x1
 1614 03c2 58000000 		.4byte	0x58
 1615 03c6 08       		.byte	0x8
 1616 03c7 0702     		.2byte	0x207
 1617 03c9 0E       		.byte	0xe
 1618 03ca DB030000 		.4byte	0x3db
ARM GAS  /tmp/ccbw8mZO.s 			page 36


 1619 03ce 0D       		.uleb128 0xd
 1620 03cf 26050000 		.4byte	.LASF84
 1621 03d3 00       		.byte	0
 1622 03d4 15       		.uleb128 0x15
 1623 03d5 53455400 		.ascii	"SET\000"
 1624 03d9 01       		.byte	0x1
 1625 03da 00       		.byte	0
 1626 03db 14       		.uleb128 0x14
 1627 03dc 07       		.byte	0x7
 1628 03dd 01       		.byte	0x1
 1629 03de 58000000 		.4byte	0x58
 1630 03e2 08       		.byte	0x8
 1631 03e3 0902     		.2byte	0x209
 1632 03e5 0E       		.byte	0xe
 1633 03e6 F7030000 		.4byte	0x3f7
 1634 03ea 0D       		.uleb128 0xd
 1635 03eb 89000000 		.4byte	.LASF85
 1636 03ef 00       		.byte	0
 1637 03f0 0D       		.uleb128 0xd
 1638 03f1 10020000 		.4byte	.LASF86
 1639 03f5 01       		.byte	0x1
 1640 03f6 00       		.byte	0
 1641 03f7 16       		.uleb128 0x16
 1642 03f8 50       		.byte	0x50
 1643 03f9 08       		.byte	0x8
 1644 03fa 1E02     		.2byte	0x21e
 1645 03fc 09       		.byte	0x9
 1646 03fd 40050000 		.4byte	0x540
 1647 0401 17       		.uleb128 0x17
 1648 0402 535200   		.ascii	"SR\000"
 1649 0405 08       		.byte	0x8
 1650 0406 2002     		.2byte	0x220
 1651 0408 11       		.byte	0x11
 1652 0409 C8000000 		.4byte	0xc8
 1653 040d 02       		.byte	0x2
 1654 040e 23       		.byte	0x23
 1655 040f 00       		.uleb128 0
 1656 0410 17       		.uleb128 0x17
 1657 0411 43523100 		.ascii	"CR1\000"
 1658 0415 08       		.byte	0x8
 1659 0416 2102     		.2byte	0x221
 1660 0418 11       		.byte	0x11
 1661 0419 C8000000 		.4byte	0xc8
 1662 041d 02       		.byte	0x2
 1663 041e 23       		.byte	0x23
 1664 041f 04       		.uleb128 0x4
 1665 0420 17       		.uleb128 0x17
 1666 0421 43523200 		.ascii	"CR2\000"
 1667 0425 08       		.byte	0x8
 1668 0426 2202     		.2byte	0x222
 1669 0428 11       		.byte	0x11
 1670 0429 C8000000 		.4byte	0xc8
 1671 042d 02       		.byte	0x2
 1672 042e 23       		.byte	0x23
 1673 042f 08       		.uleb128 0x8
 1674 0430 18       		.uleb128 0x18
 1675 0431 25060000 		.4byte	.LASF87
ARM GAS  /tmp/ccbw8mZO.s 			page 37


 1676 0435 08       		.byte	0x8
 1677 0436 2302     		.2byte	0x223
 1678 0438 11       		.byte	0x11
 1679 0439 C8000000 		.4byte	0xc8
 1680 043d 02       		.byte	0x2
 1681 043e 23       		.byte	0x23
 1682 043f 0C       		.uleb128 0xc
 1683 0440 18       		.uleb128 0x18
 1684 0441 2B060000 		.4byte	.LASF88
 1685 0445 08       		.byte	0x8
 1686 0446 2402     		.2byte	0x224
 1687 0448 11       		.byte	0x11
 1688 0449 C8000000 		.4byte	0xc8
 1689 044d 02       		.byte	0x2
 1690 044e 23       		.byte	0x23
 1691 044f 10       		.uleb128 0x10
 1692 0450 18       		.uleb128 0x18
 1693 0451 55090000 		.4byte	.LASF89
 1694 0455 08       		.byte	0x8
 1695 0456 2502     		.2byte	0x225
 1696 0458 11       		.byte	0x11
 1697 0459 C8000000 		.4byte	0xc8
 1698 045d 02       		.byte	0x2
 1699 045e 23       		.byte	0x23
 1700 045f 14       		.uleb128 0x14
 1701 0460 18       		.uleb128 0x18
 1702 0461 3C050000 		.4byte	.LASF90
 1703 0465 08       		.byte	0x8
 1704 0466 2602     		.2byte	0x226
 1705 0468 11       		.byte	0x11
 1706 0469 C8000000 		.4byte	0xc8
 1707 046d 02       		.byte	0x2
 1708 046e 23       		.byte	0x23
 1709 046f 18       		.uleb128 0x18
 1710 0470 18       		.uleb128 0x18
 1711 0471 42050000 		.4byte	.LASF91
 1712 0475 08       		.byte	0x8
 1713 0476 2702     		.2byte	0x227
 1714 0478 11       		.byte	0x11
 1715 0479 C8000000 		.4byte	0xc8
 1716 047d 02       		.byte	0x2
 1717 047e 23       		.byte	0x23
 1718 047f 1C       		.uleb128 0x1c
 1719 0480 18       		.uleb128 0x18
 1720 0481 48050000 		.4byte	.LASF92
 1721 0485 08       		.byte	0x8
 1722 0486 2802     		.2byte	0x228
 1723 0488 11       		.byte	0x11
 1724 0489 C8000000 		.4byte	0xc8
 1725 048d 02       		.byte	0x2
 1726 048e 23       		.byte	0x23
 1727 048f 20       		.uleb128 0x20
 1728 0490 17       		.uleb128 0x17
 1729 0491 48545200 		.ascii	"HTR\000"
 1730 0495 08       		.byte	0x8
 1731 0496 2902     		.2byte	0x229
 1732 0498 11       		.byte	0x11
ARM GAS  /tmp/ccbw8mZO.s 			page 38


 1733 0499 C8000000 		.4byte	0xc8
 1734 049d 02       		.byte	0x2
 1735 049e 23       		.byte	0x23
 1736 049f 24       		.uleb128 0x24
 1737 04a0 17       		.uleb128 0x17
 1738 04a1 4C545200 		.ascii	"LTR\000"
 1739 04a5 08       		.byte	0x8
 1740 04a6 2A02     		.2byte	0x22a
 1741 04a8 11       		.byte	0x11
 1742 04a9 C8000000 		.4byte	0xc8
 1743 04ad 02       		.byte	0x2
 1744 04ae 23       		.byte	0x23
 1745 04af 28       		.uleb128 0x28
 1746 04b0 18       		.uleb128 0x18
 1747 04b1 74060000 		.4byte	.LASF93
 1748 04b5 08       		.byte	0x8
 1749 04b6 2B02     		.2byte	0x22b
 1750 04b8 11       		.byte	0x11
 1751 04b9 C8000000 		.4byte	0xc8
 1752 04bd 02       		.byte	0x2
 1753 04be 23       		.byte	0x23
 1754 04bf 2C       		.uleb128 0x2c
 1755 04c0 18       		.uleb128 0x18
 1756 04c1 79060000 		.4byte	.LASF94
 1757 04c5 08       		.byte	0x8
 1758 04c6 2C02     		.2byte	0x22c
 1759 04c8 11       		.byte	0x11
 1760 04c9 C8000000 		.4byte	0xc8
 1761 04cd 02       		.byte	0x2
 1762 04ce 23       		.byte	0x23
 1763 04cf 30       		.uleb128 0x30
 1764 04d0 18       		.uleb128 0x18
 1765 04d1 7E060000 		.4byte	.LASF95
 1766 04d5 08       		.byte	0x8
 1767 04d6 2D02     		.2byte	0x22d
 1768 04d8 11       		.byte	0x11
 1769 04d9 C8000000 		.4byte	0xc8
 1770 04dd 02       		.byte	0x2
 1771 04de 23       		.byte	0x23
 1772 04df 34       		.uleb128 0x34
 1773 04e0 18       		.uleb128 0x18
 1774 04e1 01010000 		.4byte	.LASF96
 1775 04e5 08       		.byte	0x8
 1776 04e6 2E02     		.2byte	0x22e
 1777 04e8 11       		.byte	0x11
 1778 04e9 C8000000 		.4byte	0xc8
 1779 04ed 02       		.byte	0x2
 1780 04ee 23       		.byte	0x23
 1781 04ef 38       		.uleb128 0x38
 1782 04f0 18       		.uleb128 0x18
 1783 04f1 81090000 		.4byte	.LASF97
 1784 04f5 08       		.byte	0x8
 1785 04f6 2F02     		.2byte	0x22f
 1786 04f8 11       		.byte	0x11
 1787 04f9 C8000000 		.4byte	0xc8
 1788 04fd 02       		.byte	0x2
 1789 04fe 23       		.byte	0x23
ARM GAS  /tmp/ccbw8mZO.s 			page 39


 1790 04ff 3C       		.uleb128 0x3c
 1791 0500 18       		.uleb128 0x18
 1792 0501 86090000 		.4byte	.LASF98
 1793 0505 08       		.byte	0x8
 1794 0506 3002     		.2byte	0x230
 1795 0508 11       		.byte	0x11
 1796 0509 C8000000 		.4byte	0xc8
 1797 050d 02       		.byte	0x2
 1798 050e 23       		.byte	0x23
 1799 050f 40       		.uleb128 0x40
 1800 0510 18       		.uleb128 0x18
 1801 0511 8B090000 		.4byte	.LASF99
 1802 0515 08       		.byte	0x8
 1803 0516 3102     		.2byte	0x231
 1804 0518 11       		.byte	0x11
 1805 0519 C8000000 		.4byte	0xc8
 1806 051d 02       		.byte	0x2
 1807 051e 23       		.byte	0x23
 1808 051f 44       		.uleb128 0x44
 1809 0520 18       		.uleb128 0x18
 1810 0521 90090000 		.4byte	.LASF100
 1811 0525 08       		.byte	0x8
 1812 0526 3202     		.2byte	0x232
 1813 0528 11       		.byte	0x11
 1814 0529 C8000000 		.4byte	0xc8
 1815 052d 02       		.byte	0x2
 1816 052e 23       		.byte	0x23
 1817 052f 48       		.uleb128 0x48
 1818 0530 17       		.uleb128 0x17
 1819 0531 445200   		.ascii	"DR\000"
 1820 0534 08       		.byte	0x8
 1821 0535 3302     		.2byte	0x233
 1822 0537 11       		.byte	0x11
 1823 0538 C8000000 		.4byte	0xc8
 1824 053c 02       		.byte	0x2
 1825 053d 23       		.byte	0x23
 1826 053e 4C       		.uleb128 0x4c
 1827 053f 00       		.byte	0
 1828 0540 0E       		.uleb128 0xe
 1829 0541 63020000 		.4byte	.LASF101
 1830 0545 08       		.byte	0x8
 1831 0546 3402     		.2byte	0x234
 1832 0548 03       		.byte	0x3
 1833 0549 F7030000 		.4byte	0x3f7
 1834 054d 16       		.uleb128 0x16
 1835 054e 24       		.byte	0x24
 1836 054f 08       		.byte	0x8
 1837 0550 8503     		.2byte	0x385
 1838 0552 09       		.byte	0x9
 1839 0553 E5050000 		.4byte	0x5e5
 1840 0557 17       		.uleb128 0x17
 1841 0558 41435200 		.ascii	"ACR\000"
 1842 055c 08       		.byte	0x8
 1843 055d 8703     		.2byte	0x387
 1844 055f 11       		.byte	0x11
 1845 0560 C8000000 		.4byte	0xc8
 1846 0564 02       		.byte	0x2
ARM GAS  /tmp/ccbw8mZO.s 			page 40


 1847 0565 23       		.byte	0x23
 1848 0566 00       		.uleb128 0
 1849 0567 18       		.uleb128 0x18
 1850 0568 32030000 		.4byte	.LASF102
 1851 056c 08       		.byte	0x8
 1852 056d 8803     		.2byte	0x388
 1853 056f 11       		.byte	0x11
 1854 0570 C8000000 		.4byte	0xc8
 1855 0574 02       		.byte	0x2
 1856 0575 23       		.byte	0x23
 1857 0576 04       		.uleb128 0x4
 1858 0577 18       		.uleb128 0x18
 1859 0578 52020000 		.4byte	.LASF103
 1860 057c 08       		.byte	0x8
 1861 057d 8903     		.2byte	0x389
 1862 057f 11       		.byte	0x11
 1863 0580 C8000000 		.4byte	0xc8
 1864 0584 02       		.byte	0x2
 1865 0585 23       		.byte	0x23
 1866 0586 08       		.uleb128 0x8
 1867 0587 17       		.uleb128 0x17
 1868 0588 535200   		.ascii	"SR\000"
 1869 058b 08       		.byte	0x8
 1870 058c 8A03     		.2byte	0x38a
 1871 058e 11       		.byte	0x11
 1872 058f C8000000 		.4byte	0xc8
 1873 0593 02       		.byte	0x2
 1874 0594 23       		.byte	0x23
 1875 0595 0C       		.uleb128 0xc
 1876 0596 17       		.uleb128 0x17
 1877 0597 435200   		.ascii	"CR\000"
 1878 059a 08       		.byte	0x8
 1879 059b 8B03     		.2byte	0x38b
 1880 059d 11       		.byte	0x11
 1881 059e C8000000 		.4byte	0xc8
 1882 05a2 02       		.byte	0x2
 1883 05a3 23       		.byte	0x23
 1884 05a4 10       		.uleb128 0x10
 1885 05a5 17       		.uleb128 0x17
 1886 05a6 415200   		.ascii	"AR\000"
 1887 05a9 08       		.byte	0x8
 1888 05aa 8C03     		.2byte	0x38c
 1889 05ac 11       		.byte	0x11
 1890 05ad C8000000 		.4byte	0xc8
 1891 05b1 02       		.byte	0x2
 1892 05b2 23       		.byte	0x23
 1893 05b3 14       		.uleb128 0x14
 1894 05b4 18       		.uleb128 0x18
 1895 05b5 7F070000 		.4byte	.LASF104
 1896 05b9 08       		.byte	0x8
 1897 05ba 8D03     		.2byte	0x38d
 1898 05bc 11       		.byte	0x11
 1899 05bd C8000000 		.4byte	0xc8
 1900 05c1 02       		.byte	0x2
 1901 05c2 23       		.byte	0x23
 1902 05c3 18       		.uleb128 0x18
 1903 05c4 17       		.uleb128 0x17
ARM GAS  /tmp/ccbw8mZO.s 			page 41


 1904 05c5 4F425200 		.ascii	"OBR\000"
 1905 05c9 08       		.byte	0x8
 1906 05ca 8E03     		.2byte	0x38e
 1907 05cc 11       		.byte	0x11
 1908 05cd C8000000 		.4byte	0xc8
 1909 05d1 02       		.byte	0x2
 1910 05d2 23       		.byte	0x23
 1911 05d3 1C       		.uleb128 0x1c
 1912 05d4 18       		.uleb128 0x18
 1913 05d5 31080000 		.4byte	.LASF105
 1914 05d9 08       		.byte	0x8
 1915 05da 8F03     		.2byte	0x38f
 1916 05dc 11       		.byte	0x11
 1917 05dd C8000000 		.4byte	0xc8
 1918 05e1 02       		.byte	0x2
 1919 05e2 23       		.byte	0x23
 1920 05e3 20       		.uleb128 0x20
 1921 05e4 00       		.byte	0
 1922 05e5 0E       		.uleb128 0xe
 1923 05e6 CB090000 		.4byte	.LASF106
 1924 05ea 08       		.byte	0x8
 1925 05eb 9803     		.2byte	0x398
 1926 05ed 03       		.byte	0x3
 1927 05ee 4D050000 		.4byte	0x54d
 1928 05f2 16       		.uleb128 0x16
 1929 05f3 1C       		.byte	0x1c
 1930 05f4 08       		.byte	0x8
 1931 05f5 E903     		.2byte	0x3e9
 1932 05f7 09       		.byte	0x9
 1933 05f8 6D060000 		.4byte	0x66d
 1934 05fc 17       		.uleb128 0x17
 1935 05fd 43524C00 		.ascii	"CRL\000"
 1936 0601 08       		.byte	0x8
 1937 0602 EB03     		.2byte	0x3eb
 1938 0604 11       		.byte	0x11
 1939 0605 C8000000 		.4byte	0xc8
 1940 0609 02       		.byte	0x2
 1941 060a 23       		.byte	0x23
 1942 060b 00       		.uleb128 0
 1943 060c 17       		.uleb128 0x17
 1944 060d 43524800 		.ascii	"CRH\000"
 1945 0611 08       		.byte	0x8
 1946 0612 EC03     		.2byte	0x3ec
 1947 0614 11       		.byte	0x11
 1948 0615 C8000000 		.4byte	0xc8
 1949 0619 02       		.byte	0x2
 1950 061a 23       		.byte	0x23
 1951 061b 04       		.uleb128 0x4
 1952 061c 17       		.uleb128 0x17
 1953 061d 49445200 		.ascii	"IDR\000"
 1954 0621 08       		.byte	0x8
 1955 0622 ED03     		.2byte	0x3ed
 1956 0624 11       		.byte	0x11
 1957 0625 C8000000 		.4byte	0xc8
 1958 0629 02       		.byte	0x2
 1959 062a 23       		.byte	0x23
 1960 062b 08       		.uleb128 0x8
ARM GAS  /tmp/ccbw8mZO.s 			page 42


 1961 062c 17       		.uleb128 0x17
 1962 062d 4F445200 		.ascii	"ODR\000"
 1963 0631 08       		.byte	0x8
 1964 0632 EE03     		.2byte	0x3ee
 1965 0634 11       		.byte	0x11
 1966 0635 C8000000 		.4byte	0xc8
 1967 0639 02       		.byte	0x2
 1968 063a 23       		.byte	0x23
 1969 063b 0C       		.uleb128 0xc
 1970 063c 18       		.uleb128 0x18
 1971 063d 39090000 		.4byte	.LASF107
 1972 0641 08       		.byte	0x8
 1973 0642 EF03     		.2byte	0x3ef
 1974 0644 11       		.byte	0x11
 1975 0645 C8000000 		.4byte	0xc8
 1976 0649 02       		.byte	0x2
 1977 064a 23       		.byte	0x23
 1978 064b 10       		.uleb128 0x10
 1979 064c 17       		.uleb128 0x17
 1980 064d 42525200 		.ascii	"BRR\000"
 1981 0651 08       		.byte	0x8
 1982 0652 F003     		.2byte	0x3f0
 1983 0654 11       		.byte	0x11
 1984 0655 C8000000 		.4byte	0xc8
 1985 0659 02       		.byte	0x2
 1986 065a 23       		.byte	0x23
 1987 065b 14       		.uleb128 0x14
 1988 065c 18       		.uleb128 0x18
 1989 065d 0F000000 		.4byte	.LASF108
 1990 0661 08       		.byte	0x8
 1991 0662 F103     		.2byte	0x3f1
 1992 0664 11       		.byte	0x11
 1993 0665 C8000000 		.4byte	0xc8
 1994 0669 02       		.byte	0x2
 1995 066a 23       		.byte	0x23
 1996 066b 18       		.uleb128 0x18
 1997 066c 00       		.byte	0
 1998 066d 0E       		.uleb128 0xe
 1999 066e A9030000 		.4byte	.LASF109
 2000 0672 08       		.byte	0x8
 2001 0673 F203     		.2byte	0x3f2
 2002 0675 03       		.byte	0x3
 2003 0676 F2050000 		.4byte	0x5f2
 2004 067a 16       		.uleb128 0x16
 2005 067b 30       		.byte	0x30
 2006 067c 08       		.byte	0x8
 2007 067d 3404     		.2byte	0x434
 2008 067f 09       		.byte	0x9
 2009 0680 44070000 		.4byte	0x744
 2010 0684 17       		.uleb128 0x17
 2011 0685 435200   		.ascii	"CR\000"
 2012 0688 08       		.byte	0x8
 2013 0689 3604     		.2byte	0x436
 2014 068b 11       		.byte	0x11
 2015 068c C8000000 		.4byte	0xc8
 2016 0690 02       		.byte	0x2
 2017 0691 23       		.byte	0x23
ARM GAS  /tmp/ccbw8mZO.s 			page 43


 2018 0692 00       		.uleb128 0
 2019 0693 18       		.uleb128 0x18
 2020 0694 A8090000 		.4byte	.LASF110
 2021 0698 08       		.byte	0x8
 2022 0699 3704     		.2byte	0x437
 2023 069b 11       		.byte	0x11
 2024 069c C8000000 		.4byte	0xc8
 2025 06a0 02       		.byte	0x2
 2026 06a1 23       		.byte	0x23
 2027 06a2 04       		.uleb128 0x4
 2028 06a3 17       		.uleb128 0x17
 2029 06a4 43495200 		.ascii	"CIR\000"
 2030 06a8 08       		.byte	0x8
 2031 06a9 3804     		.2byte	0x438
 2032 06ab 11       		.byte	0x11
 2033 06ac C8000000 		.4byte	0xc8
 2034 06b0 02       		.byte	0x2
 2035 06b1 23       		.byte	0x23
 2036 06b2 08       		.uleb128 0x8
 2037 06b3 18       		.uleb128 0x18
 2038 06b4 17020000 		.4byte	.LASF111
 2039 06b8 08       		.byte	0x8
 2040 06b9 3904     		.2byte	0x439
 2041 06bb 11       		.byte	0x11
 2042 06bc C8000000 		.4byte	0xc8
 2043 06c0 02       		.byte	0x2
 2044 06c1 23       		.byte	0x23
 2045 06c2 0C       		.uleb128 0xc
 2046 06c3 18       		.uleb128 0x18
 2047 06c4 89010000 		.4byte	.LASF112
 2048 06c8 08       		.byte	0x8
 2049 06c9 3A04     		.2byte	0x43a
 2050 06cb 11       		.byte	0x11
 2051 06cc C8000000 		.4byte	0xc8
 2052 06d0 02       		.byte	0x2
 2053 06d1 23       		.byte	0x23
 2054 06d2 10       		.uleb128 0x10
 2055 06d3 18       		.uleb128 0x18
 2056 06d4 2B040000 		.4byte	.LASF113
 2057 06d8 08       		.byte	0x8
 2058 06d9 3B04     		.2byte	0x43b
 2059 06db 11       		.byte	0x11
 2060 06dc C8000000 		.4byte	0xc8
 2061 06e0 02       		.byte	0x2
 2062 06e1 23       		.byte	0x23
 2063 06e2 14       		.uleb128 0x14
 2064 06e3 18       		.uleb128 0x18
 2065 06e4 BA070000 		.4byte	.LASF114
 2066 06e8 08       		.byte	0x8
 2067 06e9 3C04     		.2byte	0x43c
 2068 06eb 11       		.byte	0x11
 2069 06ec C8000000 		.4byte	0xc8
 2070 06f0 02       		.byte	0x2
 2071 06f1 23       		.byte	0x23
 2072 06f2 18       		.uleb128 0x18
 2073 06f3 18       		.uleb128 0x18
 2074 06f4 DA080000 		.4byte	.LASF115
ARM GAS  /tmp/ccbw8mZO.s 			page 44


 2075 06f8 08       		.byte	0x8
 2076 06f9 3D04     		.2byte	0x43d
 2077 06fb 11       		.byte	0x11
 2078 06fc C8000000 		.4byte	0xc8
 2079 0700 02       		.byte	0x2
 2080 0701 23       		.byte	0x23
 2081 0702 1C       		.uleb128 0x1c
 2082 0703 18       		.uleb128 0x18
 2083 0704 50090000 		.4byte	.LASF116
 2084 0708 08       		.byte	0x8
 2085 0709 3E04     		.2byte	0x43e
 2086 070b 11       		.byte	0x11
 2087 070c C8000000 		.4byte	0xc8
 2088 0710 02       		.byte	0x2
 2089 0711 23       		.byte	0x23
 2090 0712 20       		.uleb128 0x20
 2091 0713 17       		.uleb128 0x17
 2092 0714 43535200 		.ascii	"CSR\000"
 2093 0718 08       		.byte	0x8
 2094 0719 3F04     		.2byte	0x43f
 2095 071b 11       		.byte	0x11
 2096 071c C8000000 		.4byte	0xc8
 2097 0720 02       		.byte	0x2
 2098 0721 23       		.byte	0x23
 2099 0722 24       		.uleb128 0x24
 2100 0723 18       		.uleb128 0x18
 2101 0724 42060000 		.4byte	.LASF117
 2102 0728 08       		.byte	0x8
 2103 0729 4004     		.2byte	0x440
 2104 072b 11       		.byte	0x11
 2105 072c C8000000 		.4byte	0xc8
 2106 0730 02       		.byte	0x2
 2107 0731 23       		.byte	0x23
 2108 0732 28       		.uleb128 0x28
 2109 0733 18       		.uleb128 0x18
 2110 0734 5B090000 		.4byte	.LASF118
 2111 0738 08       		.byte	0x8
 2112 0739 4104     		.2byte	0x441
 2113 073b 11       		.byte	0x11
 2114 073c C8000000 		.4byte	0xc8
 2115 0740 02       		.byte	0x2
 2116 0741 23       		.byte	0x23
 2117 0742 2C       		.uleb128 0x2c
 2118 0743 00       		.byte	0
 2119 0744 0E       		.uleb128 0xe
 2120 0745 B6030000 		.4byte	.LASF119
 2121 0749 08       		.byte	0x8
 2122 074a 4204     		.2byte	0x442
 2123 074c 03       		.byte	0x3
 2124 074d 7A060000 		.4byte	0x67a
 2125 0751 16       		.uleb128 0x16
 2126 0752 50       		.byte	0x50
 2127 0753 08       		.byte	0x8
 2128 0754 9A04     		.2byte	0x49a
 2129 0756 09       		.byte	0x9
 2130 0757 DB090000 		.4byte	0x9db
 2131 075b 17       		.uleb128 0x17
ARM GAS  /tmp/ccbw8mZO.s 			page 45


 2132 075c 43523100 		.ascii	"CR1\000"
 2133 0760 08       		.byte	0x8
 2134 0761 9C04     		.2byte	0x49c
 2135 0763 11       		.byte	0x11
 2136 0764 B7000000 		.4byte	0xb7
 2137 0768 02       		.byte	0x2
 2138 0769 23       		.byte	0x23
 2139 076a 00       		.uleb128 0
 2140 076b 18       		.uleb128 0x18
 2141 076c 96060000 		.4byte	.LASF72
 2142 0770 08       		.byte	0x8
 2143 0771 9D04     		.2byte	0x49d
 2144 0773 0D       		.byte	0xd
 2145 0774 AB000000 		.4byte	0xab
 2146 0778 02       		.byte	0x2
 2147 0779 23       		.byte	0x23
 2148 077a 02       		.uleb128 0x2
 2149 077b 17       		.uleb128 0x17
 2150 077c 43523200 		.ascii	"CR2\000"
 2151 0780 08       		.byte	0x8
 2152 0781 9E04     		.2byte	0x49e
 2153 0783 11       		.byte	0x11
 2154 0784 B7000000 		.4byte	0xb7
 2155 0788 02       		.byte	0x2
 2156 0789 23       		.byte	0x23
 2157 078a 04       		.uleb128 0x4
 2158 078b 18       		.uleb128 0x18
 2159 078c A0060000 		.4byte	.LASF120
 2160 0790 08       		.byte	0x8
 2161 0791 9F04     		.2byte	0x49f
 2162 0793 0D       		.byte	0xd
 2163 0794 AB000000 		.4byte	0xab
 2164 0798 02       		.byte	0x2
 2165 0799 23       		.byte	0x23
 2166 079a 06       		.uleb128 0x6
 2167 079b 18       		.uleb128 0x18
 2168 079c F7030000 		.4byte	.LASF121
 2169 07a0 08       		.byte	0x8
 2170 07a1 A004     		.2byte	0x4a0
 2171 07a3 11       		.byte	0x11
 2172 07a4 B7000000 		.4byte	0xb7
 2173 07a8 02       		.byte	0x2
 2174 07a9 23       		.byte	0x23
 2175 07aa 08       		.uleb128 0x8
 2176 07ab 18       		.uleb128 0x18
 2177 07ac AA060000 		.4byte	.LASF76
 2178 07b0 08       		.byte	0x8
 2179 07b1 A104     		.2byte	0x4a1
 2180 07b3 0D       		.byte	0xd
 2181 07b4 AB000000 		.4byte	0xab
 2182 07b8 02       		.byte	0x2
 2183 07b9 23       		.byte	0x23
 2184 07ba 0A       		.uleb128 0xa
 2185 07bb 18       		.uleb128 0x18
 2186 07bc 2D000000 		.4byte	.LASF122
 2187 07c0 08       		.byte	0x8
 2188 07c1 A204     		.2byte	0x4a2
ARM GAS  /tmp/ccbw8mZO.s 			page 46


 2189 07c3 11       		.byte	0x11
 2190 07c4 B7000000 		.4byte	0xb7
 2191 07c8 02       		.byte	0x2
 2192 07c9 23       		.byte	0x23
 2193 07ca 0C       		.uleb128 0xc
 2194 07cb 18       		.uleb128 0x18
 2195 07cc B4060000 		.4byte	.LASF78
 2196 07d0 08       		.byte	0x8
 2197 07d1 A304     		.2byte	0x4a3
 2198 07d3 0D       		.byte	0xd
 2199 07d4 AB000000 		.4byte	0xab
 2200 07d8 02       		.byte	0x2
 2201 07d9 23       		.byte	0x23
 2202 07da 0E       		.uleb128 0xe
 2203 07db 17       		.uleb128 0x17
 2204 07dc 535200   		.ascii	"SR\000"
 2205 07df 08       		.byte	0x8
 2206 07e0 A404     		.2byte	0x4a4
 2207 07e2 11       		.byte	0x11
 2208 07e3 B7000000 		.4byte	0xb7
 2209 07e7 02       		.byte	0x2
 2210 07e8 23       		.byte	0x23
 2211 07e9 10       		.uleb128 0x10
 2212 07ea 18       		.uleb128 0x18
 2213 07eb BE060000 		.4byte	.LASF80
 2214 07ef 08       		.byte	0x8
 2215 07f0 A504     		.2byte	0x4a5
 2216 07f2 0D       		.byte	0xd
 2217 07f3 AB000000 		.4byte	0xab
 2218 07f7 02       		.byte	0x2
 2219 07f8 23       		.byte	0x23
 2220 07f9 12       		.uleb128 0x12
 2221 07fa 17       		.uleb128 0x17
 2222 07fb 45475200 		.ascii	"EGR\000"
 2223 07ff 08       		.byte	0x8
 2224 0800 A604     		.2byte	0x4a6
 2225 0802 11       		.byte	0x11
 2226 0803 B7000000 		.4byte	0xb7
 2227 0807 02       		.byte	0x2
 2228 0808 23       		.byte	0x23
 2229 0809 14       		.uleb128 0x14
 2230 080a 18       		.uleb128 0x18
 2231 080b C8060000 		.4byte	.LASF81
 2232 080f 08       		.byte	0x8
 2233 0810 A704     		.2byte	0x4a7
 2234 0812 0D       		.byte	0xd
 2235 0813 AB000000 		.4byte	0xab
 2236 0817 02       		.byte	0x2
 2237 0818 23       		.byte	0x23
 2238 0819 16       		.uleb128 0x16
 2239 081a 18       		.uleb128 0x18
 2240 081b 06010000 		.4byte	.LASF123
 2241 081f 08       		.byte	0x8
 2242 0820 A804     		.2byte	0x4a8
 2243 0822 11       		.byte	0x11
 2244 0823 B7000000 		.4byte	0xb7
 2245 0827 02       		.byte	0x2
ARM GAS  /tmp/ccbw8mZO.s 			page 47


 2246 0828 23       		.byte	0x23
 2247 0829 18       		.uleb128 0x18
 2248 082a 18       		.uleb128 0x18
 2249 082b D2060000 		.4byte	.LASF124
 2250 082f 08       		.byte	0x8
 2251 0830 A904     		.2byte	0x4a9
 2252 0832 0D       		.byte	0xd
 2253 0833 AB000000 		.4byte	0xab
 2254 0837 02       		.byte	0x2
 2255 0838 23       		.byte	0x23
 2256 0839 1A       		.uleb128 0x1a
 2257 083a 18       		.uleb128 0x18
 2258 083b 0C010000 		.4byte	.LASF125
 2259 083f 08       		.byte	0x8
 2260 0840 AA04     		.2byte	0x4aa
 2261 0842 11       		.byte	0x11
 2262 0843 B7000000 		.4byte	0xb7
 2263 0847 02       		.byte	0x2
 2264 0848 23       		.byte	0x23
 2265 0849 1C       		.uleb128 0x1c
 2266 084a 18       		.uleb128 0x18
 2267 084b F2070000 		.4byte	.LASF126
 2268 084f 08       		.byte	0x8
 2269 0850 AB04     		.2byte	0x4ab
 2270 0852 0D       		.byte	0xd
 2271 0853 AB000000 		.4byte	0xab
 2272 0857 02       		.byte	0x2
 2273 0858 23       		.byte	0x23
 2274 0859 1E       		.uleb128 0x1e
 2275 085a 18       		.uleb128 0x18
 2276 085b 32020000 		.4byte	.LASF127
 2277 085f 08       		.byte	0x8
 2278 0860 AC04     		.2byte	0x4ac
 2279 0862 11       		.byte	0x11
 2280 0863 B7000000 		.4byte	0xb7
 2281 0867 02       		.byte	0x2
 2282 0868 23       		.byte	0x23
 2283 0869 20       		.uleb128 0x20
 2284 086a 18       		.uleb128 0x18
 2285 086b DC060000 		.4byte	.LASF128
 2286 086f 08       		.byte	0x8
 2287 0870 AD04     		.2byte	0x4ad
 2288 0872 0D       		.byte	0xd
 2289 0873 AB000000 		.4byte	0xab
 2290 0877 02       		.byte	0x2
 2291 0878 23       		.byte	0x23
 2292 0879 22       		.uleb128 0x22
 2293 087a 17       		.uleb128 0x17
 2294 087b 434E5400 		.ascii	"CNT\000"
 2295 087f 08       		.byte	0x8
 2296 0880 AE04     		.2byte	0x4ae
 2297 0882 11       		.byte	0x11
 2298 0883 B7000000 		.4byte	0xb7
 2299 0887 02       		.byte	0x2
 2300 0888 23       		.byte	0x23
 2301 0889 24       		.uleb128 0x24
 2302 088a 18       		.uleb128 0x18
ARM GAS  /tmp/ccbw8mZO.s 			page 48


 2303 088b E6060000 		.4byte	.LASF129
 2304 088f 08       		.byte	0x8
 2305 0890 AF04     		.2byte	0x4af
 2306 0892 0D       		.byte	0xd
 2307 0893 AB000000 		.4byte	0xab
 2308 0897 02       		.byte	0x2
 2309 0898 23       		.byte	0x23
 2310 0899 26       		.uleb128 0x26
 2311 089a 17       		.uleb128 0x17
 2312 089b 50534300 		.ascii	"PSC\000"
 2313 089f 08       		.byte	0x8
 2314 08a0 B004     		.2byte	0x4b0
 2315 08a2 11       		.byte	0x11
 2316 08a3 B7000000 		.4byte	0xb7
 2317 08a7 02       		.byte	0x2
 2318 08a8 23       		.byte	0x23
 2319 08a9 28       		.uleb128 0x28
 2320 08aa 18       		.uleb128 0x18
 2321 08ab 92010000 		.4byte	.LASF130
 2322 08af 08       		.byte	0x8
 2323 08b0 B104     		.2byte	0x4b1
 2324 08b2 0D       		.byte	0xd
 2325 08b3 AB000000 		.4byte	0xab
 2326 08b7 02       		.byte	0x2
 2327 08b8 23       		.byte	0x23
 2328 08b9 2A       		.uleb128 0x2a
 2329 08ba 17       		.uleb128 0x17
 2330 08bb 41525200 		.ascii	"ARR\000"
 2331 08bf 08       		.byte	0x8
 2332 08c0 B204     		.2byte	0x4b2
 2333 08c2 11       		.byte	0x11
 2334 08c3 B7000000 		.4byte	0xb7
 2335 08c7 02       		.byte	0x2
 2336 08c8 23       		.byte	0x23
 2337 08c9 2C       		.uleb128 0x2c
 2338 08ca 18       		.uleb128 0x18
 2339 08cb 9D010000 		.4byte	.LASF131
 2340 08cf 08       		.byte	0x8
 2341 08d0 B304     		.2byte	0x4b3
 2342 08d2 0D       		.byte	0xd
 2343 08d3 AB000000 		.4byte	0xab
 2344 08d7 02       		.byte	0x2
 2345 08d8 23       		.byte	0x23
 2346 08d9 2E       		.uleb128 0x2e
 2347 08da 17       		.uleb128 0x17
 2348 08db 52435200 		.ascii	"RCR\000"
 2349 08df 08       		.byte	0x8
 2350 08e0 B404     		.2byte	0x4b4
 2351 08e2 11       		.byte	0x11
 2352 08e3 B7000000 		.4byte	0xb7
 2353 08e7 02       		.byte	0x2
 2354 08e8 23       		.byte	0x23
 2355 08e9 30       		.uleb128 0x30
 2356 08ea 18       		.uleb128 0x18
 2357 08eb E5050000 		.4byte	.LASF132
 2358 08ef 08       		.byte	0x8
 2359 08f0 B504     		.2byte	0x4b5
ARM GAS  /tmp/ccbw8mZO.s 			page 49


 2360 08f2 0D       		.byte	0xd
 2361 08f3 AB000000 		.4byte	0xab
 2362 08f7 02       		.byte	0x2
 2363 08f8 23       		.byte	0x23
 2364 08f9 32       		.uleb128 0x32
 2365 08fa 18       		.uleb128 0x18
 2366 08fb 20090000 		.4byte	.LASF133
 2367 08ff 08       		.byte	0x8
 2368 0900 B604     		.2byte	0x4b6
 2369 0902 11       		.byte	0x11
 2370 0903 B7000000 		.4byte	0xb7
 2371 0907 02       		.byte	0x2
 2372 0908 23       		.byte	0x23
 2373 0909 34       		.uleb128 0x34
 2374 090a 18       		.uleb128 0x18
 2375 090b B3010000 		.4byte	.LASF134
 2376 090f 08       		.byte	0x8
 2377 0910 B704     		.2byte	0x4b7
 2378 0912 0D       		.byte	0xd
 2379 0913 AB000000 		.4byte	0xab
 2380 0917 02       		.byte	0x2
 2381 0918 23       		.byte	0x23
 2382 0919 36       		.uleb128 0x36
 2383 091a 18       		.uleb128 0x18
 2384 091b A4000000 		.4byte	.LASF135
 2385 091f 08       		.byte	0x8
 2386 0920 B804     		.2byte	0x4b8
 2387 0922 11       		.byte	0x11
 2388 0923 B7000000 		.4byte	0xb7
 2389 0927 02       		.byte	0x2
 2390 0928 23       		.byte	0x23
 2391 0929 38       		.uleb128 0x38
 2392 092a 18       		.uleb128 0x18
 2393 092b BE010000 		.4byte	.LASF136
 2394 092f 08       		.byte	0x8
 2395 0930 B904     		.2byte	0x4b9
 2396 0932 0D       		.byte	0xd
 2397 0933 AB000000 		.4byte	0xab
 2398 0937 02       		.byte	0x2
 2399 0938 23       		.byte	0x23
 2400 0939 3A       		.uleb128 0x3a
 2401 093a 18       		.uleb128 0x18
 2402 093b 2F090000 		.4byte	.LASF137
 2403 093f 08       		.byte	0x8
 2404 0940 BA04     		.2byte	0x4ba
 2405 0942 11       		.byte	0x11
 2406 0943 B7000000 		.4byte	0xb7
 2407 0947 02       		.byte	0x2
 2408 0948 23       		.byte	0x23
 2409 0949 3C       		.uleb128 0x3c
 2410 094a 18       		.uleb128 0x18
 2411 094b 90020000 		.4byte	.LASF138
 2412 094f 08       		.byte	0x8
 2413 0950 BB04     		.2byte	0x4bb
 2414 0952 0D       		.byte	0xd
 2415 0953 AB000000 		.4byte	0xab
 2416 0957 02       		.byte	0x2
ARM GAS  /tmp/ccbw8mZO.s 			page 50


 2417 0958 23       		.byte	0x23
 2418 0959 3E       		.uleb128 0x3e
 2419 095a 18       		.uleb128 0x18
 2420 095b 34090000 		.4byte	.LASF139
 2421 095f 08       		.byte	0x8
 2422 0960 BC04     		.2byte	0x4bc
 2423 0962 11       		.byte	0x11
 2424 0963 B7000000 		.4byte	0xb7
 2425 0967 02       		.byte	0x2
 2426 0968 23       		.byte	0x23
 2427 0969 40       		.uleb128 0x40
 2428 096a 18       		.uleb128 0x18
 2429 096b D7010000 		.4byte	.LASF140
 2430 096f 08       		.byte	0x8
 2431 0970 BD04     		.2byte	0x4bd
 2432 0972 0D       		.byte	0xd
 2433 0973 AB000000 		.4byte	0xab
 2434 0977 02       		.byte	0x2
 2435 0978 23       		.byte	0x23
 2436 0979 42       		.uleb128 0x42
 2437 097a 18       		.uleb128 0x18
 2438 097b 7A070000 		.4byte	.LASF141
 2439 097f 08       		.byte	0x8
 2440 0980 BE04     		.2byte	0x4be
 2441 0982 11       		.byte	0x11
 2442 0983 B7000000 		.4byte	0xb7
 2443 0987 02       		.byte	0x2
 2444 0988 23       		.byte	0x23
 2445 0989 44       		.uleb128 0x44
 2446 098a 18       		.uleb128 0x18
 2447 098b E2010000 		.4byte	.LASF142
 2448 098f 08       		.byte	0x8
 2449 0990 BF04     		.2byte	0x4bf
 2450 0992 0D       		.byte	0xd
 2451 0993 AB000000 		.4byte	0xab
 2452 0997 02       		.byte	0x2
 2453 0998 23       		.byte	0x23
 2454 0999 46       		.uleb128 0x46
 2455 099a 17       		.uleb128 0x17
 2456 099b 44435200 		.ascii	"DCR\000"
 2457 099f 08       		.byte	0x8
 2458 09a0 C004     		.2byte	0x4c0
 2459 09a2 11       		.byte	0x11
 2460 09a3 B7000000 		.4byte	0xb7
 2461 09a7 02       		.byte	0x2
 2462 09a8 23       		.byte	0x23
 2463 09a9 48       		.uleb128 0x48
 2464 09aa 18       		.uleb128 0x18
 2465 09ab 45090000 		.4byte	.LASF143
 2466 09af 08       		.byte	0x8
 2467 09b0 C104     		.2byte	0x4c1
 2468 09b2 0D       		.byte	0xd
 2469 09b3 AB000000 		.4byte	0xab
 2470 09b7 02       		.byte	0x2
 2471 09b8 23       		.byte	0x23
 2472 09b9 4A       		.uleb128 0x4a
 2473 09ba 18       		.uleb128 0x18
ARM GAS  /tmp/ccbw8mZO.s 			page 51


 2474 09bb 6A080000 		.4byte	.LASF144
 2475 09bf 08       		.byte	0x8
 2476 09c0 C204     		.2byte	0x4c2
 2477 09c2 11       		.byte	0x11
 2478 09c3 B7000000 		.4byte	0xb7
 2479 09c7 02       		.byte	0x2
 2480 09c8 23       		.byte	0x23
 2481 09c9 4C       		.uleb128 0x4c
 2482 09ca 18       		.uleb128 0x18
 2483 09cb FC010000 		.4byte	.LASF145
 2484 09cf 08       		.byte	0x8
 2485 09d0 C304     		.2byte	0x4c3
 2486 09d2 0D       		.byte	0xd
 2487 09d3 AB000000 		.4byte	0xab
 2488 09d7 02       		.byte	0x2
 2489 09d8 23       		.byte	0x23
 2490 09d9 4E       		.uleb128 0x4e
 2491 09da 00       		.byte	0
 2492 09db 0E       		.uleb128 0xe
 2493 09dc 7D000000 		.4byte	.LASF146
 2494 09e0 08       		.byte	0x8
 2495 09e1 C404     		.2byte	0x4c4
 2496 09e3 03       		.byte	0x3
 2497 09e4 51070000 		.4byte	0x751
 2498 09e8 16       		.uleb128 0x16
 2499 09e9 1C       		.byte	0x1c
 2500 09ea 08       		.byte	0x8
 2501 09eb CA04     		.2byte	0x4ca
 2502 09ed 09       		.byte	0x9
 2503 09ee D10A0000 		.4byte	0xad1
 2504 09f2 17       		.uleb128 0x17
 2505 09f3 535200   		.ascii	"SR\000"
 2506 09f6 08       		.byte	0x8
 2507 09f7 CC04     		.2byte	0x4cc
 2508 09f9 11       		.byte	0x11
 2509 09fa B7000000 		.4byte	0xb7
 2510 09fe 02       		.byte	0x2
 2511 09ff 23       		.byte	0x23
 2512 0a00 00       		.uleb128 0
 2513 0a01 18       		.uleb128 0x18
 2514 0a02 96060000 		.4byte	.LASF72
 2515 0a06 08       		.byte	0x8
 2516 0a07 CD04     		.2byte	0x4cd
 2517 0a09 0D       		.byte	0xd
 2518 0a0a AB000000 		.4byte	0xab
 2519 0a0e 02       		.byte	0x2
 2520 0a0f 23       		.byte	0x23
 2521 0a10 02       		.uleb128 0x2
 2522 0a11 17       		.uleb128 0x17
 2523 0a12 445200   		.ascii	"DR\000"
 2524 0a15 08       		.byte	0x8
 2525 0a16 CE04     		.2byte	0x4ce
 2526 0a18 11       		.byte	0x11
 2527 0a19 B7000000 		.4byte	0xb7
 2528 0a1d 02       		.byte	0x2
 2529 0a1e 23       		.byte	0x23
 2530 0a1f 04       		.uleb128 0x4
ARM GAS  /tmp/ccbw8mZO.s 			page 52


 2531 0a20 18       		.uleb128 0x18
 2532 0a21 A0060000 		.4byte	.LASF120
 2533 0a25 08       		.byte	0x8
 2534 0a26 CF04     		.2byte	0x4cf
 2535 0a28 0D       		.byte	0xd
 2536 0a29 AB000000 		.4byte	0xab
 2537 0a2d 02       		.byte	0x2
 2538 0a2e 23       		.byte	0x23
 2539 0a2f 06       		.uleb128 0x6
 2540 0a30 17       		.uleb128 0x17
 2541 0a31 42525200 		.ascii	"BRR\000"
 2542 0a35 08       		.byte	0x8
 2543 0a36 D004     		.2byte	0x4d0
 2544 0a38 11       		.byte	0x11
 2545 0a39 B7000000 		.4byte	0xb7
 2546 0a3d 02       		.byte	0x2
 2547 0a3e 23       		.byte	0x23
 2548 0a3f 08       		.uleb128 0x8
 2549 0a40 18       		.uleb128 0x18
 2550 0a41 AA060000 		.4byte	.LASF76
 2551 0a45 08       		.byte	0x8
 2552 0a46 D104     		.2byte	0x4d1
 2553 0a48 0D       		.byte	0xd
 2554 0a49 AB000000 		.4byte	0xab
 2555 0a4d 02       		.byte	0x2
 2556 0a4e 23       		.byte	0x23
 2557 0a4f 0A       		.uleb128 0xa
 2558 0a50 17       		.uleb128 0x17
 2559 0a51 43523100 		.ascii	"CR1\000"
 2560 0a55 08       		.byte	0x8
 2561 0a56 D204     		.2byte	0x4d2
 2562 0a58 11       		.byte	0x11
 2563 0a59 B7000000 		.4byte	0xb7
 2564 0a5d 02       		.byte	0x2
 2565 0a5e 23       		.byte	0x23
 2566 0a5f 0C       		.uleb128 0xc
 2567 0a60 18       		.uleb128 0x18
 2568 0a61 B4060000 		.4byte	.LASF78
 2569 0a65 08       		.byte	0x8
 2570 0a66 D304     		.2byte	0x4d3
 2571 0a68 0D       		.byte	0xd
 2572 0a69 AB000000 		.4byte	0xab
 2573 0a6d 02       		.byte	0x2
 2574 0a6e 23       		.byte	0x23
 2575 0a6f 0E       		.uleb128 0xe
 2576 0a70 17       		.uleb128 0x17
 2577 0a71 43523200 		.ascii	"CR2\000"
 2578 0a75 08       		.byte	0x8
 2579 0a76 D404     		.2byte	0x4d4
 2580 0a78 11       		.byte	0x11
 2581 0a79 B7000000 		.4byte	0xb7
 2582 0a7d 02       		.byte	0x2
 2583 0a7e 23       		.byte	0x23
 2584 0a7f 10       		.uleb128 0x10
 2585 0a80 18       		.uleb128 0x18
 2586 0a81 BE060000 		.4byte	.LASF80
 2587 0a85 08       		.byte	0x8
ARM GAS  /tmp/ccbw8mZO.s 			page 53


 2588 0a86 D504     		.2byte	0x4d5
 2589 0a88 0D       		.byte	0xd
 2590 0a89 AB000000 		.4byte	0xab
 2591 0a8d 02       		.byte	0x2
 2592 0a8e 23       		.byte	0x23
 2593 0a8f 12       		.uleb128 0x12
 2594 0a90 17       		.uleb128 0x17
 2595 0a91 43523300 		.ascii	"CR3\000"
 2596 0a95 08       		.byte	0x8
 2597 0a96 D604     		.2byte	0x4d6
 2598 0a98 11       		.byte	0x11
 2599 0a99 B7000000 		.4byte	0xb7
 2600 0a9d 02       		.byte	0x2
 2601 0a9e 23       		.byte	0x23
 2602 0a9f 14       		.uleb128 0x14
 2603 0aa0 18       		.uleb128 0x18
 2604 0aa1 C8060000 		.4byte	.LASF81
 2605 0aa5 08       		.byte	0x8
 2606 0aa6 D704     		.2byte	0x4d7
 2607 0aa8 0D       		.byte	0xd
 2608 0aa9 AB000000 		.4byte	0xab
 2609 0aad 02       		.byte	0x2
 2610 0aae 23       		.byte	0x23
 2611 0aaf 16       		.uleb128 0x16
 2612 0ab0 18       		.uleb128 0x18
 2613 0ab1 58010000 		.4byte	.LASF147
 2614 0ab5 08       		.byte	0x8
 2615 0ab6 D804     		.2byte	0x4d8
 2616 0ab8 11       		.byte	0x11
 2617 0ab9 B7000000 		.4byte	0xb7
 2618 0abd 02       		.byte	0x2
 2619 0abe 23       		.byte	0x23
 2620 0abf 18       		.uleb128 0x18
 2621 0ac0 18       		.uleb128 0x18
 2622 0ac1 D2060000 		.4byte	.LASF124
 2623 0ac5 08       		.byte	0x8
 2624 0ac6 D904     		.2byte	0x4d9
 2625 0ac8 0D       		.byte	0xd
 2626 0ac9 AB000000 		.4byte	0xab
 2627 0acd 02       		.byte	0x2
 2628 0ace 23       		.byte	0x23
 2629 0acf 1A       		.uleb128 0x1a
 2630 0ad0 00       		.byte	0
 2631 0ad1 0E       		.uleb128 0xe
 2632 0ad2 CB040000 		.4byte	.LASF148
 2633 0ad6 08       		.byte	0x8
 2634 0ad7 DA04     		.2byte	0x4da
 2635 0ad9 03       		.byte	0x3
 2636 0ada E8090000 		.4byte	0x9e8
 2637 0ade 19       		.uleb128 0x19
 2638 0adf 07       		.byte	0x7
 2639 0ae0 01       		.byte	0x1
 2640 0ae1 58000000 		.4byte	0x58
 2641 0ae5 0A       		.byte	0xa
 2642 0ae6 3B       		.byte	0x3b
 2643 0ae7 01       		.byte	0x1
 2644 0ae8 FF0A0000 		.4byte	0xaff
ARM GAS  /tmp/ccbw8mZO.s 			page 54


 2645 0aec 0D       		.uleb128 0xd
 2646 0aed 6C000000 		.4byte	.LASF149
 2647 0af1 01       		.byte	0x1
 2648 0af2 0D       		.uleb128 0xd
 2649 0af3 5B070000 		.4byte	.LASF150
 2650 0af7 02       		.byte	0x2
 2651 0af8 0D       		.uleb128 0xd
 2652 0af9 4A060000 		.4byte	.LASF151
 2653 0afd 03       		.byte	0x3
 2654 0afe 00       		.byte	0
 2655 0aff 04       		.uleb128 0x4
 2656 0b00 4B030000 		.4byte	.LASF152
 2657 0b04 0A       		.byte	0xa
 2658 0b05 3F       		.byte	0x3f
 2659 0b06 02       		.byte	0x2
 2660 0b07 DE0A0000 		.4byte	0xade
 2661 0b0b 19       		.uleb128 0x19
 2662 0b0c 07       		.byte	0x7
 2663 0b0d 01       		.byte	0x1
 2664 0b0e 58000000 		.4byte	0x58
 2665 0b12 0A       		.byte	0xa
 2666 0b13 48       		.byte	0x48
 2667 0b14 01       		.byte	0x1
 2668 0b15 4A0B0000 		.4byte	0xb4a
 2669 0b19 0D       		.uleb128 0xd
 2670 0b1a 9D070000 		.4byte	.LASF153
 2671 0b1e 00       		.byte	0
 2672 0b1f 0D       		.uleb128 0xd
 2673 0b20 3C020000 		.4byte	.LASF154
 2674 0b24 04       		.byte	0x4
 2675 0b25 0D       		.uleb128 0xd
 2676 0b26 73030000 		.4byte	.LASF155
 2677 0b2a 28       		.byte	0x28
 2678 0b2b 0D       		.uleb128 0xd
 2679 0b2c C9010000 		.4byte	.LASF156
 2680 0b30 48       		.byte	0x48
 2681 0b31 0D       		.uleb128 0xd
 2682 0b32 1A040000 		.4byte	.LASF157
 2683 0b36 14       		.byte	0x14
 2684 0b37 0D       		.uleb128 0xd
 2685 0b38 31060000 		.4byte	.LASF158
 2686 0b3c 10       		.byte	0x10
 2687 0b3d 0D       		.uleb128 0xd
 2688 0b3e D4030000 		.4byte	.LASF159
 2689 0b42 1C       		.byte	0x1c
 2690 0b43 0D       		.uleb128 0xd
 2691 0b44 14000000 		.4byte	.LASF160
 2692 0b48 18       		.byte	0x18
 2693 0b49 00       		.byte	0
 2694 0b4a 04       		.uleb128 0x4
 2695 0b4b AD090000 		.4byte	.LASF161
 2696 0b4f 0A       		.byte	0xa
 2697 0b50 50       		.byte	0x50
 2698 0b51 02       		.byte	0x2
 2699 0b52 0B0B0000 		.4byte	0xb0b
 2700 0b56 1A       		.uleb128 0x1a
 2701 0b57 04       		.byte	0x4
ARM GAS  /tmp/ccbw8mZO.s 			page 55


 2702 0b58 0A       		.byte	0xa
 2703 0b59 5B       		.byte	0x5b
 2704 0b5a 09       		.byte	0x9
 2705 0b5b 8D0B0000 		.4byte	0xb8d
 2706 0b5f 10       		.uleb128 0x10
 2707 0b60 5D030000 		.4byte	.LASF162
 2708 0b64 0A       		.byte	0xa
 2709 0b65 5D       		.byte	0x5d
 2710 0b66 0C       		.byte	0xc
 2711 0b67 AB000000 		.4byte	0xab
 2712 0b6b 02       		.byte	0x2
 2713 0b6c 23       		.byte	0x23
 2714 0b6d 00       		.uleb128 0
 2715 0b6e 10       		.uleb128 0x10
 2716 0b6f B2000000 		.4byte	.LASF163
 2717 0b73 0A       		.byte	0xa
 2718 0b74 60       		.byte	0x60
 2719 0b75 15       		.byte	0x15
 2720 0b76 FF0A0000 		.4byte	0xaff
 2721 0b7a 02       		.byte	0x2
 2722 0b7b 23       		.byte	0x23
 2723 0b7c 02       		.uleb128 0x2
 2724 0b7d 10       		.uleb128 0x10
 2725 0b7e 86020000 		.4byte	.LASF164
 2726 0b82 0A       		.byte	0xa
 2727 0b83 63       		.byte	0x63
 2728 0b84 14       		.byte	0x14
 2729 0b85 4A0B0000 		.4byte	0xb4a
 2730 0b89 02       		.byte	0x2
 2731 0b8a 23       		.byte	0x23
 2732 0b8b 03       		.uleb128 0x3
 2733 0b8c 00       		.byte	0
 2734 0b8d 04       		.uleb128 0x4
 2735 0b8e 14060000 		.4byte	.LASF165
 2736 0b92 0A       		.byte	0xa
 2737 0b93 65       		.byte	0x65
 2738 0b94 02       		.byte	0x2
 2739 0b95 560B0000 		.4byte	0xb56
 2740 0b99 1A       		.uleb128 0x1a
 2741 0b9a 10       		.byte	0x10
 2742 0b9b 0B       		.byte	0xb
 2743 0b9c 32       		.byte	0x32
 2744 0b9d 09       		.byte	0x9
 2745 0b9e FD0B0000 		.4byte	0xbfd
 2746 0ba2 10       		.uleb128 0x10
 2747 0ba3 ED010000 		.4byte	.LASF166
 2748 0ba7 0B       		.byte	0xb
 2749 0ba8 34       		.byte	0x34
 2750 0ba9 0C       		.byte	0xc
 2751 0baa BC000000 		.4byte	0xbc
 2752 0bae 02       		.byte	0x2
 2753 0baf 23       		.byte	0x23
 2754 0bb0 00       		.uleb128 0
 2755 0bb1 10       		.uleb128 0x10
 2756 0bb2 87080000 		.4byte	.LASF167
 2757 0bb6 0B       		.byte	0xb
 2758 0bb7 39       		.byte	0x39
ARM GAS  /tmp/ccbw8mZO.s 			page 56


 2759 0bb8 0C       		.byte	0xc
 2760 0bb9 AB000000 		.4byte	0xab
 2761 0bbd 02       		.byte	0x2
 2762 0bbe 23       		.byte	0x23
 2763 0bbf 04       		.uleb128 0x4
 2764 0bc0 10       		.uleb128 0x10
 2765 0bc1 0F030000 		.4byte	.LASF168
 2766 0bc5 0B       		.byte	0xb
 2767 0bc6 3C       		.byte	0x3c
 2768 0bc7 0C       		.byte	0xc
 2769 0bc8 AB000000 		.4byte	0xab
 2770 0bcc 02       		.byte	0x2
 2771 0bcd 23       		.byte	0x23
 2772 0bce 06       		.uleb128 0x6
 2773 0bcf 10       		.uleb128 0x10
 2774 0bd0 40010000 		.4byte	.LASF169
 2775 0bd4 0B       		.byte	0xb
 2776 0bd5 3F       		.byte	0x3f
 2777 0bd6 0C       		.byte	0xc
 2778 0bd7 AB000000 		.4byte	0xab
 2779 0bdb 02       		.byte	0x2
 2780 0bdc 23       		.byte	0x23
 2781 0bdd 08       		.uleb128 0x8
 2782 0bde 10       		.uleb128 0x10
 2783 0bdf A8010000 		.4byte	.LASF170
 2784 0be3 0B       		.byte	0xb
 2785 0be4 46       		.byte	0x46
 2786 0be5 0C       		.byte	0xc
 2787 0be6 AB000000 		.4byte	0xab
 2788 0bea 02       		.byte	0x2
 2789 0beb 23       		.byte	0x23
 2790 0bec 0A       		.uleb128 0xa
 2791 0bed 10       		.uleb128 0x10
 2792 0bee 9B020000 		.4byte	.LASF171
 2793 0bf2 0B       		.byte	0xb
 2794 0bf3 49       		.byte	0x49
 2795 0bf4 0C       		.byte	0xc
 2796 0bf5 AB000000 		.4byte	0xab
 2797 0bf9 02       		.byte	0x2
 2798 0bfa 23       		.byte	0x23
 2799 0bfb 0C       		.uleb128 0xc
 2800 0bfc 00       		.byte	0
 2801 0bfd 04       		.uleb128 0x4
 2802 0bfe 14050000 		.4byte	.LASF172
 2803 0c02 0B       		.byte	0xb
 2804 0c03 4C       		.byte	0x4c
 2805 0c04 03       		.byte	0x3
 2806 0c05 990B0000 		.4byte	0xb99
 2807 0c09 1B       		.uleb128 0x1b
 2808 0c0a 3E090000 		.4byte	.LASF209
 2809 0c0e 01       		.byte	0x1
 2810 0c0f 2C       		.byte	0x2c
 2811 0c10 16       		.byte	0x16
 2812 0c11 E2000000 		.4byte	0xe2
 2813 0c15 1C       		.uleb128 0x1c
 2814 0c16 01       		.byte	0x1
 2815 0c17 DE090000 		.4byte	.LASF210
ARM GAS  /tmp/ccbw8mZO.s 			page 57


 2816 0c1b 01       		.byte	0x1
 2817 0c1c 61       		.byte	0x61
 2818 0c1d 05       		.byte	0x5
 2819 0c1e 01       		.byte	0x1
 2820 0c1f 29000000 		.4byte	0x29
 2821 0c23 00000000 		.4byte	.LFB45
 2822 0c27 64000000 		.4byte	.LFE45
 2823 0c2b 00000000 		.4byte	.LLST14
 2824 0c2f 01       		.byte	0x1
 2825 0c30 140D0000 		.4byte	0xd14
 2826 0c34 1D       		.uleb128 0x1d
 2827 0c35 10000000 		.4byte	.LVL37
 2828 0c39 AE100000 		.4byte	0x10ae
 2829 0c3d 530C0000 		.4byte	0xc53
 2830 0c41 1E       		.uleb128 0x1e
 2831 0c42 01       		.byte	0x1
 2832 0c43 50       		.byte	0x50
 2833 0c44 01       		.byte	0x1
 2834 0c45 35       		.byte	0x35
 2835 0c46 1E       		.uleb128 0x1e
 2836 0c47 01       		.byte	0x1
 2837 0c48 51       		.byte	0x51
 2838 0c49 02       		.byte	0x2
 2839 0c4a 75       		.byte	0x75
 2840 0c4b 00       		.sleb128 0
 2841 0c4c 1E       		.uleb128 0x1e
 2842 0c4d 01       		.byte	0x1
 2843 0c4e 52       		.byte	0x52
 2844 0c4f 02       		.byte	0x2
 2845 0c50 74       		.byte	0x74
 2846 0c51 00       		.sleb128 0
 2847 0c52 00       		.byte	0
 2848 0c53 1F       		.uleb128 0x1f
 2849 0c54 14000000 		.4byte	.LVL38
 2850 0c58 83100000 		.4byte	0x1083
 2851 0c5c 1D       		.uleb128 0x1d
 2852 0c5d 24000000 		.4byte	.LVL39
 2853 0c61 BD100000 		.4byte	0x10bd
 2854 0c65 960C0000 		.4byte	0xc96
 2855 0c69 1E       		.uleb128 0x1e
 2856 0c6a 01       		.byte	0x1
 2857 0c6b 50       		.byte	0x50
 2858 0c6c 05       		.byte	0x5
 2859 0c6d 03       		.byte	0x3
 2860 0c6e 00000000 		.4byte	task1
 2861 0c72 1E       		.uleb128 0x1e
 2862 0c73 01       		.byte	0x1
 2863 0c74 51       		.byte	0x51
 2864 0c75 05       		.byte	0x5
 2865 0c76 03       		.byte	0x3
 2866 0c77 28000000 		.4byte	.LC3
 2867 0c7b 1E       		.uleb128 0x1e
 2868 0c7c 01       		.byte	0x1
 2869 0c7d 52       		.byte	0x52
 2870 0c7e 02       		.byte	0x2
 2871 0c7f 08       		.byte	0x8
 2872 0c80 64       		.byte	0x64
ARM GAS  /tmp/ccbw8mZO.s 			page 58


 2873 0c81 1E       		.uleb128 0x1e
 2874 0c82 01       		.byte	0x1
 2875 0c83 53       		.byte	0x53
 2876 0c84 02       		.byte	0x2
 2877 0c85 74       		.byte	0x74
 2878 0c86 00       		.sleb128 0
 2879 0c87 1E       		.uleb128 0x1e
 2880 0c88 02       		.byte	0x2
 2881 0c89 7D       		.byte	0x7d
 2882 0c8a 00       		.sleb128 0
 2883 0c8b 02       		.byte	0x2
 2884 0c8c 75       		.byte	0x75
 2885 0c8d 00       		.sleb128 0
 2886 0c8e 1E       		.uleb128 0x1e
 2887 0c8f 02       		.byte	0x2
 2888 0c90 7D       		.byte	0x7d
 2889 0c91 04       		.sleb128 4
 2890 0c92 02       		.byte	0x2
 2891 0c93 74       		.byte	0x74
 2892 0c94 00       		.sleb128 0
 2893 0c95 00       		.byte	0
 2894 0c96 1D       		.uleb128 0x1d
 2895 0c97 34000000 		.4byte	.LVL40
 2896 0c9b BD100000 		.4byte	0x10bd
 2897 0c9f D00C0000 		.4byte	0xcd0
 2898 0ca3 1E       		.uleb128 0x1e
 2899 0ca4 01       		.byte	0x1
 2900 0ca5 50       		.byte	0x50
 2901 0ca6 05       		.byte	0x5
 2902 0ca7 03       		.byte	0x3
 2903 0ca8 00000000 		.4byte	task2
 2904 0cac 1E       		.uleb128 0x1e
 2905 0cad 01       		.byte	0x1
 2906 0cae 51       		.byte	0x51
 2907 0caf 05       		.byte	0x5
 2908 0cb0 03       		.byte	0x3
 2909 0cb1 31000000 		.4byte	.LC4
 2910 0cb5 1E       		.uleb128 0x1e
 2911 0cb6 01       		.byte	0x1
 2912 0cb7 52       		.byte	0x52
 2913 0cb8 02       		.byte	0x2
 2914 0cb9 08       		.byte	0x8
 2915 0cba 64       		.byte	0x64
 2916 0cbb 1E       		.uleb128 0x1e
 2917 0cbc 01       		.byte	0x1
 2918 0cbd 53       		.byte	0x53
 2919 0cbe 02       		.byte	0x2
 2920 0cbf 74       		.byte	0x74
 2921 0cc0 00       		.sleb128 0
 2922 0cc1 1E       		.uleb128 0x1e
 2923 0cc2 02       		.byte	0x2
 2924 0cc3 7D       		.byte	0x7d
 2925 0cc4 00       		.sleb128 0
 2926 0cc5 02       		.byte	0x2
 2927 0cc6 75       		.byte	0x75
 2928 0cc7 00       		.sleb128 0
 2929 0cc8 1E       		.uleb128 0x1e
ARM GAS  /tmp/ccbw8mZO.s 			page 59


 2930 0cc9 02       		.byte	0x2
 2931 0cca 7D       		.byte	0x7d
 2932 0ccb 04       		.sleb128 4
 2933 0ccc 02       		.byte	0x2
 2934 0ccd 74       		.byte	0x74
 2935 0cce 00       		.sleb128 0
 2936 0ccf 00       		.byte	0
 2937 0cd0 1D       		.uleb128 0x1d
 2938 0cd1 44000000 		.4byte	.LVL41
 2939 0cd5 BD100000 		.4byte	0x10bd
 2940 0cd9 0A0D0000 		.4byte	0xd0a
 2941 0cdd 1E       		.uleb128 0x1e
 2942 0cde 01       		.byte	0x1
 2943 0cdf 50       		.byte	0x50
 2944 0ce0 05       		.byte	0x5
 2945 0ce1 03       		.byte	0x3
 2946 0ce2 00000000 		.4byte	task3
 2947 0ce6 1E       		.uleb128 0x1e
 2948 0ce7 01       		.byte	0x1
 2949 0ce8 51       		.byte	0x51
 2950 0ce9 05       		.byte	0x5
 2951 0cea 03       		.byte	0x3
 2952 0ceb 38000000 		.4byte	.LC5
 2953 0cef 1E       		.uleb128 0x1e
 2954 0cf0 01       		.byte	0x1
 2955 0cf1 52       		.byte	0x52
 2956 0cf2 02       		.byte	0x2
 2957 0cf3 08       		.byte	0x8
 2958 0cf4 64       		.byte	0x64
 2959 0cf5 1E       		.uleb128 0x1e
 2960 0cf6 01       		.byte	0x1
 2961 0cf7 53       		.byte	0x53
 2962 0cf8 02       		.byte	0x2
 2963 0cf9 74       		.byte	0x74
 2964 0cfa 00       		.sleb128 0
 2965 0cfb 1E       		.uleb128 0x1e
 2966 0cfc 02       		.byte	0x2
 2967 0cfd 7D       		.byte	0x7d
 2968 0cfe 00       		.sleb128 0
 2969 0cff 02       		.byte	0x2
 2970 0d00 75       		.byte	0x75
 2971 0d01 00       		.sleb128 0
 2972 0d02 1E       		.uleb128 0x1e
 2973 0d03 02       		.byte	0x2
 2974 0d04 7D       		.byte	0x7d
 2975 0d05 04       		.sleb128 4
 2976 0d06 02       		.byte	0x2
 2977 0d07 74       		.byte	0x74
 2978 0d08 00       		.sleb128 0
 2979 0d09 00       		.byte	0
 2980 0d0a 1F       		.uleb128 0x1f
 2981 0d0b 48000000 		.4byte	.LVL42
 2982 0d0f CC100000 		.4byte	0x10cc
 2983 0d13 00       		.byte	0
 2984 0d14 20       		.uleb128 0x20
 2985 0d15 CE030000 		.4byte	.LASF173
 2986 0d19 01       		.byte	0x1
ARM GAS  /tmp/ccbw8mZO.s 			page 60


 2987 0d1a 54       		.byte	0x54
 2988 0d1b 0D       		.byte	0xd
 2989 0d1c 01       		.byte	0x1
 2990 0d1d EC020000 		.4byte	.LFB44
 2991 0d21 20030000 		.4byte	.LFE44
 2992 0d25 20000000 		.4byte	.LLST11
 2993 0d29 01       		.byte	0x1
 2994 0d2a C70D0000 		.4byte	0xdc7
 2995 0d2e 21       		.uleb128 0x21
 2996 0d2f D9090000 		.4byte	.LASF175
 2997 0d33 01       		.byte	0x1
 2998 0d34 54       		.byte	0x54
 2999 0d35 19       		.byte	0x19
 3000 0d36 CD000000 		.4byte	0xcd
 3001 0d3a 44000000 		.4byte	.LLST12
 3002 0d3e 40000000 		.4byte	.LVUS12
 3003 0d42 22       		.uleb128 0x22
 3004 0d43 20020000 		.4byte	.LASF177
 3005 0d47 01       		.byte	0x1
 3006 0d48 56       		.byte	0x56
 3007 0d49 05       		.byte	0x5
 3008 0d4a B3030000 		.4byte	0x3b3
 3009 0d4e 6B000000 		.4byte	.LLST13
 3010 0d52 65000000 		.4byte	.LVUS13
 3011 0d56 23       		.uleb128 0x23
 3012 0d57 6B070000 		.4byte	.LASF181
 3013 0d5b 01       		.byte	0x1
 3014 0d5c 57       		.byte	0x57
 3015 0d5d 07       		.byte	0x7
 3016 0d5e 00010000 		.4byte	0x100
 3017 0d62 02       		.byte	0x2
 3018 0d63 91       		.byte	0x91
 3019 0d64 68       		.sleb128 -24
 3020 0d65 1F       		.uleb128 0x1f
 3021 0d66 F2020000 		.4byte	.LVL29
 3022 0d6a 300F0000 		.4byte	0xf30
 3023 0d6e 1D       		.uleb128 0x1d
 3024 0d6f 00030000 		.4byte	.LVL33
 3025 0d73 D60E0000 		.4byte	0xed6
 3026 0d77 820D0000 		.4byte	0xd82
 3027 0d7b 1E       		.uleb128 0x1e
 3028 0d7c 01       		.byte	0x1
 3029 0d7d 50       		.byte	0x50
 3030 0d7e 02       		.byte	0x2
 3031 0d7f 75       		.byte	0x75
 3032 0d80 00       		.sleb128 0
 3033 0d81 00       		.byte	0
 3034 0d82 1D       		.uleb128 0x1d
 3035 0d83 0A030000 		.4byte	.LVL34
 3036 0d87 DB100000 		.4byte	0x10db
 3037 0d8b A10D0000 		.4byte	0xda1
 3038 0d8f 1E       		.uleb128 0x1e
 3039 0d90 01       		.byte	0x1
 3040 0d91 50       		.byte	0x50
 3041 0d92 02       		.byte	0x2
 3042 0d93 74       		.byte	0x74
 3043 0d94 00       		.sleb128 0
ARM GAS  /tmp/ccbw8mZO.s 			page 61


 3044 0d95 1E       		.uleb128 0x1e
 3045 0d96 01       		.byte	0x1
 3046 0d97 51       		.byte	0x51
 3047 0d98 02       		.byte	0x2
 3048 0d99 7D       		.byte	0x7d
 3049 0d9a 00       		.sleb128 0
 3050 0d9b 1E       		.uleb128 0x1e
 3051 0d9c 01       		.byte	0x1
 3052 0d9d 52       		.byte	0x52
 3053 0d9e 01       		.byte	0x1
 3054 0d9f 40       		.byte	0x40
 3055 0da0 00       		.byte	0
 3056 0da1 1D       		.uleb128 0x1d
 3057 0da2 10030000 		.4byte	.LVL35
 3058 0da6 D60E0000 		.4byte	0xed6
 3059 0daa B50D0000 		.4byte	0xdb5
 3060 0dae 1E       		.uleb128 0x1e
 3061 0daf 01       		.byte	0x1
 3062 0db0 50       		.byte	0x50
 3063 0db1 02       		.byte	0x2
 3064 0db2 7D       		.byte	0x7d
 3065 0db3 00       		.sleb128 0
 3066 0db4 00       		.byte	0
 3067 0db5 24       		.uleb128 0x24
 3068 0db6 18030000 		.4byte	.LVL36
 3069 0dba E9100000 		.4byte	0x10e9
 3070 0dbe 1E       		.uleb128 0x1e
 3071 0dbf 01       		.byte	0x1
 3072 0dc0 50       		.byte	0x50
 3073 0dc1 03       		.byte	0x3
 3074 0dc2 0A       		.byte	0xa
 3075 0dc3 1027     		.2byte	0x2710
 3076 0dc5 00       		.byte	0
 3077 0dc6 00       		.byte	0
 3078 0dc7 20       		.uleb128 0x20
 3079 0dc8 C8030000 		.4byte	.LASF174
 3080 0dcc 01       		.byte	0x1
 3081 0dcd 4A       		.byte	0x4a
 3082 0dce 0D       		.byte	0xd
 3083 0dcf 01       		.byte	0x1
 3084 0dd0 00000000 		.4byte	.LFB43
 3085 0dd4 30000000 		.4byte	.LFE43
 3086 0dd8 95000000 		.4byte	.LLST0
 3087 0ddc 01       		.byte	0x1
 3088 0ddd 070E0000 		.4byte	0xe07
 3089 0de1 21       		.uleb128 0x21
 3090 0de2 D9090000 		.4byte	.LASF175
 3091 0de6 01       		.byte	0x1
 3092 0de7 4A       		.byte	0x4a
 3093 0de8 19       		.byte	0x19
 3094 0de9 CD000000 		.4byte	0xcd
 3095 0ded B9000000 		.4byte	.LLST1
 3096 0df1 B5000000 		.4byte	.LVUS1
 3097 0df5 24       		.uleb128 0x24
 3098 0df6 26000000 		.4byte	.LVL2
 3099 0dfa E9100000 		.4byte	0x10e9
 3100 0dfe 1E       		.uleb128 0x1e
ARM GAS  /tmp/ccbw8mZO.s 			page 62


 3101 0dff 01       		.byte	0x1
 3102 0e00 50       		.byte	0x50
 3103 0e01 03       		.byte	0x3
 3104 0e02 0A       		.byte	0xa
 3105 0e03 8813     		.2byte	0x1388
 3106 0e05 00       		.byte	0
 3107 0e06 00       		.byte	0
 3108 0e07 20       		.uleb128 0x20
 3109 0e08 C2030000 		.4byte	.LASF176
 3110 0e0c 01       		.byte	0x1
 3111 0e0d 2E       		.byte	0x2e
 3112 0e0e 0D       		.byte	0xd
 3113 0e0f 01       		.byte	0x1
 3114 0e10 30000000 		.4byte	.LFB42
 3115 0e14 C8000000 		.4byte	.LFE42
 3116 0e18 DA000000 		.4byte	.LLST2
 3117 0e1c 01       		.byte	0x1
 3118 0e1d D60E0000 		.4byte	0xed6
 3119 0e21 21       		.uleb128 0x21
 3120 0e22 D9090000 		.4byte	.LASF175
 3121 0e26 01       		.byte	0x1
 3122 0e27 2E       		.byte	0x2e
 3123 0e28 19       		.byte	0x19
 3124 0e29 CD000000 		.4byte	0xcd
 3125 0e2d FE000000 		.4byte	.LLST3
 3126 0e31 FA000000 		.4byte	.LVUS3
 3127 0e35 22       		.uleb128 0x22
 3128 0e36 20020000 		.4byte	.LASF177
 3129 0e3a 01       		.byte	0x1
 3130 0e3b 3E       		.byte	0x3e
 3131 0e3c 06       		.byte	0x6
 3132 0e3d B3030000 		.4byte	0x3b3
 3133 0e41 23010000 		.4byte	.LLST4
 3134 0e45 1F010000 		.4byte	.LVUS4
 3135 0e49 1F       		.uleb128 0x1f
 3136 0e4a 82000000 		.4byte	.LVL4
 3137 0e4e F8100000 		.4byte	0x10f8
 3138 0e52 1D       		.uleb128 0x1d
 3139 0e53 88000000 		.4byte	.LVL5
 3140 0e57 06110000 		.4byte	0x1106
 3141 0e5b 650E0000 		.4byte	0xe65
 3142 0e5f 1E       		.uleb128 0x1e
 3143 0e60 01       		.byte	0x1
 3144 0e61 50       		.byte	0x50
 3145 0e62 01       		.byte	0x1
 3146 0e63 3C       		.byte	0x3c
 3147 0e64 00       		.byte	0
 3148 0e65 1D       		.uleb128 0x1d
 3149 0e66 92000000 		.4byte	.LVL6
 3150 0e6a 14110000 		.4byte	0x1114
 3151 0e6e 880E0000 		.4byte	0xe88
 3152 0e72 1E       		.uleb128 0x1e
 3153 0e73 01       		.byte	0x1
 3154 0e74 50       		.byte	0x50
 3155 0e75 05       		.byte	0x5
 3156 0e76 03       		.byte	0x3
 3157 0e77 00000000 		.4byte	.LC0
ARM GAS  /tmp/ccbw8mZO.s 			page 63


 3158 0e7b 1E       		.uleb128 0x1e
 3159 0e7c 01       		.byte	0x1
 3160 0e7d 51       		.byte	0x51
 3161 0e7e 02       		.byte	0x2
 3162 0e7f 74       		.byte	0x74
 3163 0e80 00       		.sleb128 0
 3164 0e81 1E       		.uleb128 0x1e
 3165 0e82 01       		.byte	0x1
 3166 0e83 52       		.byte	0x52
 3167 0e84 02       		.byte	0x2
 3168 0e85 74       		.byte	0x74
 3169 0e86 00       		.sleb128 0
 3170 0e87 00       		.byte	0
 3171 0e88 1D       		.uleb128 0x1d
 3172 0e89 A0000000 		.4byte	.LVL9
 3173 0e8d 14110000 		.4byte	0x1114
 3174 0e91 A60E0000 		.4byte	0xea6
 3175 0e95 1E       		.uleb128 0x1e
 3176 0e96 01       		.byte	0x1
 3177 0e97 50       		.byte	0x50
 3178 0e98 02       		.byte	0x2
 3179 0e99 75       		.byte	0x75
 3180 0e9a 00       		.sleb128 0
 3181 0e9b 1E       		.uleb128 0x1e
 3182 0e9c 01       		.byte	0x1
 3183 0e9d 51       		.byte	0x51
 3184 0e9e 01       		.byte	0x1
 3185 0e9f 31       		.byte	0x31
 3186 0ea0 1E       		.uleb128 0x1e
 3187 0ea1 01       		.byte	0x1
 3188 0ea2 52       		.byte	0x52
 3189 0ea3 01       		.byte	0x1
 3190 0ea4 30       		.byte	0x30
 3191 0ea5 00       		.byte	0
 3192 0ea6 1D       		.uleb128 0x1d
 3193 0ea7 AA000000 		.4byte	.LVL10
 3194 0eab 22110000 		.4byte	0x1122
 3195 0eaf C40E0000 		.4byte	0xec4
 3196 0eb3 1E       		.uleb128 0x1e
 3197 0eb4 01       		.byte	0x1
 3198 0eb5 50       		.byte	0x50
 3199 0eb6 02       		.byte	0x2
 3200 0eb7 74       		.byte	0x74
 3201 0eb8 00       		.sleb128 0
 3202 0eb9 1E       		.uleb128 0x1e
 3203 0eba 01       		.byte	0x1
 3204 0ebb 51       		.byte	0x51
 3205 0ebc 01       		.byte	0x1
 3206 0ebd 31       		.byte	0x31
 3207 0ebe 1E       		.uleb128 0x1e
 3208 0ebf 01       		.byte	0x1
 3209 0ec0 52       		.byte	0x52
 3210 0ec1 01       		.byte	0x1
 3211 0ec2 3B       		.byte	0x3b
 3212 0ec3 00       		.byte	0
 3213 0ec4 24       		.uleb128 0x24
 3214 0ec5 B2000000 		.4byte	.LVL11
ARM GAS  /tmp/ccbw8mZO.s 			page 64


 3215 0ec9 E9100000 		.4byte	0x10e9
 3216 0ecd 1E       		.uleb128 0x1e
 3217 0ece 01       		.byte	0x1
 3218 0ecf 50       		.byte	0x50
 3219 0ed0 03       		.byte	0x3
 3220 0ed1 0A       		.byte	0xa
 3221 0ed2 E803     		.2byte	0x3e8
 3222 0ed4 00       		.byte	0
 3223 0ed5 00       		.byte	0
 3224 0ed6 25       		.uleb128 0x25
 3225 0ed7 01       		.byte	0x1
 3226 0ed8 9A000000 		.4byte	.LASF179
 3227 0edc 03       		.byte	0x3
 3228 0edd 28       		.byte	0x28
 3229 0ede 06       		.byte	0x6
 3230 0edf 01       		.byte	0x1
 3231 0ee0 C4020000 		.4byte	.LFB41
 3232 0ee4 EC020000 		.4byte	.LFE41
 3233 0ee8 41010000 		.4byte	.LLST9
 3234 0eec 01       		.byte	0x1
 3235 0eed 300F0000 		.4byte	0xf30
 3236 0ef1 21       		.uleb128 0x21
 3237 0ef2 00000000 		.4byte	.LASF178
 3238 0ef6 03       		.byte	0x3
 3239 0ef7 28       		.byte	0x28
 3240 0ef8 16       		.byte	0x16
 3241 0ef9 FA000000 		.4byte	0xfa
 3242 0efd 69010000 		.4byte	.LLST10
 3243 0f01 61010000 		.4byte	.LVUS10
 3244 0f05 1D       		.uleb128 0x1d
 3245 0f06 D8020000 		.4byte	.LVL26
 3246 0f0a 30110000 		.4byte	0x1130
 3247 0f0e 190F0000 		.4byte	0xf19
 3248 0f12 1E       		.uleb128 0x1e
 3249 0f13 01       		.byte	0x1
 3250 0f14 50       		.byte	0x50
 3251 0f15 02       		.byte	0x2
 3252 0f16 75       		.byte	0x75
 3253 0f17 00       		.sleb128 0
 3254 0f18 00       		.byte	0
 3255 0f19 24       		.uleb128 0x24
 3256 0f1a E0020000 		.4byte	.LVL27
 3257 0f1e 3F110000 		.4byte	0x113f
 3258 0f22 1E       		.uleb128 0x1e
 3259 0f23 01       		.byte	0x1
 3260 0f24 50       		.byte	0x50
 3261 0f25 02       		.byte	0x2
 3262 0f26 75       		.byte	0x75
 3263 0f27 00       		.sleb128 0
 3264 0f28 1E       		.uleb128 0x1e
 3265 0f29 01       		.byte	0x1
 3266 0f2a 51       		.byte	0x51
 3267 0f2b 02       		.byte	0x2
 3268 0f2c 08       		.byte	0x8
 3269 0f2d 40       		.byte	0x40
 3270 0f2e 00       		.byte	0
 3271 0f2f 00       		.byte	0
ARM GAS  /tmp/ccbw8mZO.s 			page 65


 3272 0f30 25       		.uleb128 0x25
 3273 0f31 01       		.byte	0x1
 3274 0f32 32000000 		.4byte	.LASF180
 3275 0f36 03       		.byte	0x3
 3276 0f37 07       		.byte	0x7
 3277 0f38 06       		.byte	0x6
 3278 0f39 01       		.byte	0x1
 3279 0f3a 54020000 		.4byte	.LFB40
 3280 0f3e C4020000 		.4byte	.LFE40
 3281 0f42 A1010000 		.4byte	.LLST8
 3282 0f46 01       		.byte	0x1
 3283 0f47 E70F0000 		.4byte	0xfe7
 3284 0f4b 23       		.uleb128 0x23
 3285 0f4c 01060000 		.4byte	.LASF182
 3286 0f50 03       		.byte	0x3
 3287 0f51 0C       		.byte	0xc
 3288 0f52 15       		.byte	0x15
 3289 0f53 8D0B0000 		.4byte	0xb8d
 3290 0f57 02       		.byte	0x2
 3291 0f58 91       		.byte	0x91
 3292 0f59 64       		.sleb128 -28
 3293 0f5a 23       		.uleb128 0x23
 3294 0f5b 1A070000 		.4byte	.LASF183
 3295 0f5f 03       		.byte	0x3
 3296 0f60 1A       		.byte	0x1a
 3297 0f61 16       		.byte	0x16
 3298 0f62 FD0B0000 		.4byte	0xbfd
 3299 0f66 02       		.byte	0x2
 3300 0f67 91       		.byte	0x91
 3301 0f68 68       		.sleb128 -24
 3302 0f69 1D       		.uleb128 0x1d
 3303 0f6a 62020000 		.4byte	.LVL17
 3304 0f6e 4E110000 		.4byte	0x114e
 3305 0f72 830F0000 		.4byte	0xf83
 3306 0f76 1E       		.uleb128 0x1e
 3307 0f77 01       		.byte	0x1
 3308 0f78 50       		.byte	0x50
 3309 0f79 03       		.byte	0x3
 3310 0f7a 0A       		.byte	0xa
 3311 0f7b 0440     		.2byte	0x4004
 3312 0f7d 1E       		.uleb128 0x1e
 3313 0f7e 01       		.byte	0x1
 3314 0f7f 51       		.byte	0x51
 3315 0f80 01       		.byte	0x1
 3316 0f81 31       		.byte	0x31
 3317 0f82 00       		.byte	0
 3318 0f83 1D       		.uleb128 0x1d
 3319 0f84 7C020000 		.4byte	.LVL18
 3320 0f88 5D110000 		.4byte	0x115d
 3321 0f8c 9D0F0000 		.4byte	0xf9d
 3322 0f90 1E       		.uleb128 0x1e
 3323 0f91 01       		.byte	0x1
 3324 0f92 50       		.byte	0x50
 3325 0f93 02       		.byte	0x2
 3326 0f94 74       		.byte	0x74
 3327 0f95 00       		.sleb128 0
 3328 0f96 1E       		.uleb128 0x1e
ARM GAS  /tmp/ccbw8mZO.s 			page 66


 3329 0f97 01       		.byte	0x1
 3330 0f98 51       		.byte	0x51
 3331 0f99 02       		.byte	0x2
 3332 0f9a 91       		.byte	0x91
 3333 0f9b 64       		.sleb128 -28
 3334 0f9c 00       		.byte	0
 3335 0f9d 1D       		.uleb128 0x1d
 3336 0f9e 94020000 		.4byte	.LVL19
 3337 0fa2 5D110000 		.4byte	0x115d
 3338 0fa6 B70F0000 		.4byte	0xfb7
 3339 0faa 1E       		.uleb128 0x1e
 3340 0fab 01       		.byte	0x1
 3341 0fac 50       		.byte	0x50
 3342 0fad 02       		.byte	0x2
 3343 0fae 74       		.byte	0x74
 3344 0faf 00       		.sleb128 0
 3345 0fb0 1E       		.uleb128 0x1e
 3346 0fb1 01       		.byte	0x1
 3347 0fb2 51       		.byte	0x51
 3348 0fb3 02       		.byte	0x2
 3349 0fb4 91       		.byte	0x91
 3350 0fb5 64       		.sleb128 -28
 3351 0fb6 00       		.byte	0
 3352 0fb7 1D       		.uleb128 0x1d
 3353 0fb8 B4020000 		.4byte	.LVL20
 3354 0fbc 6C110000 		.4byte	0x116c
 3355 0fc0 D10F0000 		.4byte	0xfd1
 3356 0fc4 1E       		.uleb128 0x1e
 3357 0fc5 01       		.byte	0x1
 3358 0fc6 50       		.byte	0x50
 3359 0fc7 02       		.byte	0x2
 3360 0fc8 74       		.byte	0x74
 3361 0fc9 00       		.sleb128 0
 3362 0fca 1E       		.uleb128 0x1e
 3363 0fcb 01       		.byte	0x1
 3364 0fcc 51       		.byte	0x51
 3365 0fcd 02       		.byte	0x2
 3366 0fce 91       		.byte	0x91
 3367 0fcf 68       		.sleb128 -24
 3368 0fd0 00       		.byte	0
 3369 0fd1 24       		.uleb128 0x24
 3370 0fd2 BC020000 		.4byte	.LVL21
 3371 0fd6 7B110000 		.4byte	0x117b
 3372 0fda 1E       		.uleb128 0x1e
 3373 0fdb 01       		.byte	0x1
 3374 0fdc 50       		.byte	0x50
 3375 0fdd 02       		.byte	0x2
 3376 0fde 74       		.byte	0x74
 3377 0fdf 00       		.sleb128 0
 3378 0fe0 1E       		.uleb128 0x1e
 3379 0fe1 01       		.byte	0x1
 3380 0fe2 51       		.byte	0x51
 3381 0fe3 01       		.byte	0x1
 3382 0fe4 31       		.byte	0x31
 3383 0fe5 00       		.byte	0
 3384 0fe6 00       		.byte	0
 3385 0fe7 26       		.uleb128 0x26
ARM GAS  /tmp/ccbw8mZO.s 			page 67


 3386 0fe8 01       		.byte	0x1
 3387 0fe9 CD070000 		.4byte	.LASF184
 3388 0fed 02       		.byte	0x2
 3389 0fee 7C       		.byte	0x7c
 3390 0fef 06       		.byte	0x6
 3391 0ff0 01       		.byte	0x1
 3392 0ff1 38020000 		.4byte	.LFB39
 3393 0ff5 54020000 		.4byte	.LFE39
 3394 0ff9 02       		.byte	0x2
 3395 0ffa 7D       		.byte	0x7d
 3396 0ffb 00       		.sleb128 0
 3397 0ffc 01       		.byte	0x1
 3398 0ffd 16100000 		.4byte	0x1016
 3399 1001 21       		.uleb128 0x21
 3400 1002 2C050000 		.4byte	.LASF185
 3401 1006 02       		.byte	0x2
 3402 1007 7C       		.byte	0x7c
 3403 1008 22       		.byte	0x22
 3404 1009 55020000 		.4byte	0x255
 3405 100d DD010000 		.4byte	.LLST7
 3406 1011 D9010000 		.4byte	.LVUS7
 3407 1015 00       		.byte	0
 3408 1016 26       		.uleb128 0x26
 3409 1017 01       		.byte	0x1
 3410 1018 F0050000 		.4byte	.LASF186
 3411 101c 02       		.byte	0x2
 3412 101d 74       		.byte	0x74
 3413 101e 06       		.byte	0x6
 3414 101f 01       		.byte	0x1
 3415 1020 20020000 		.4byte	.LFB38
 3416 1024 38020000 		.4byte	.LFE38
 3417 1028 02       		.byte	0x2
 3418 1029 7D       		.byte	0x7d
 3419 102a 00       		.sleb128 0
 3420 102b 01       		.byte	0x1
 3421 102c 45100000 		.4byte	0x1045
 3422 1030 21       		.uleb128 0x21
 3423 1031 2C050000 		.4byte	.LASF185
 3424 1035 02       		.byte	0x2
 3425 1036 74       		.byte	0x74
 3426 1037 21       		.byte	0x21
 3427 1038 55020000 		.4byte	0x255
 3428 103c 02020000 		.4byte	.LLST6
 3429 1040 FE010000 		.4byte	.LVUS6
 3430 1044 00       		.byte	0
 3431 1045 27       		.uleb128 0x27
 3432 1046 01       		.byte	0x1
 3433 1047 FD020000 		.4byte	.LASF188
 3434 104b 02       		.byte	0x2
 3435 104c 67       		.byte	0x67
 3436 104d 06       		.byte	0x6
 3437 104e 01       		.byte	0x1
 3438 104f F8010000 		.4byte	.LFB37
 3439 1053 20020000 		.4byte	.LFE37
 3440 1057 02       		.byte	0x2
 3441 1058 7D       		.byte	0x7d
 3442 1059 00       		.sleb128 0
ARM GAS  /tmp/ccbw8mZO.s 			page 68


 3443 105a 01       		.byte	0x1
 3444 105b 25       		.uleb128 0x25
 3445 105c 01       		.byte	0x1
 3446 105d D5050000 		.4byte	.LASF187
 3447 1061 02       		.byte	0x2
 3448 1062 60       		.byte	0x60
 3449 1063 06       		.byte	0x6
 3450 1064 01       		.byte	0x1
 3451 1065 C8010000 		.4byte	.LFB36
 3452 1069 F8010000 		.4byte	.LFE36
 3453 106d 23020000 		.4byte	.LLST5
 3454 1071 01       		.byte	0x1
 3455 1072 83100000 		.4byte	0x1083
 3456 1076 28       		.uleb128 0x28
 3457 1077 5400     		.ascii	"T\000"
 3458 1079 02       		.byte	0x2
 3459 107a 60       		.byte	0x60
 3460 107b 17       		.byte	0x17
 3461 107c AE030000 		.4byte	0x3ae
 3462 1080 01       		.byte	0x1
 3463 1081 50       		.byte	0x50
 3464 1082 00       		.byte	0
 3465 1083 27       		.uleb128 0x27
 3466 1084 01       		.byte	0x1
 3467 1085 00070000 		.4byte	.LASF189
 3468 1089 02       		.byte	0x2
 3469 108a 3E       		.byte	0x3e
 3470 108b 06       		.byte	0x6
 3471 108c 01       		.byte	0x1
 3472 108d 54010000 		.4byte	.LFB35
 3473 1091 C8010000 		.4byte	.LFE35
 3474 1095 02       		.byte	0x2
 3475 1096 7D       		.byte	0x7d
 3476 1097 00       		.sleb128 0
 3477 1098 01       		.byte	0x1
 3478 1099 29       		.uleb128 0x29
 3479 109a 01       		.byte	0x1
 3480 109b AB070000 		.4byte	.LASF211
 3481 109f 02       		.byte	0x2
 3482 10a0 0E       		.byte	0xe
 3483 10a1 06       		.byte	0x6
 3484 10a2 C8000000 		.4byte	.LFB34
 3485 10a6 54010000 		.4byte	.LFE34
 3486 10aa 02       		.byte	0x2
 3487 10ab 7D       		.byte	0x7d
 3488 10ac 00       		.sleb128 0
 3489 10ad 01       		.byte	0x1
 3490 10ae 2A       		.uleb128 0x2a
 3491 10af 01       		.byte	0x1
 3492 10b0 01       		.byte	0x1
 3493 10b1 37030000 		.4byte	.LASF190
 3494 10b5 37030000 		.4byte	.LASF190
 3495 10b9 07       		.byte	0x7
 3496 10ba D805     		.2byte	0x5d8
 3497 10bc 10       		.byte	0x10
 3498 10bd 2A       		.uleb128 0x2a
 3499 10be 01       		.byte	0x1
ARM GAS  /tmp/ccbw8mZO.s 			page 69


 3500 10bf 01       		.byte	0x1
 3501 10c0 B9050000 		.4byte	.LASF191
 3502 10c4 B9050000 		.4byte	.LASF191
 3503 10c8 0C       		.byte	0xc
 3504 10c9 4A01     		.2byte	0x14a
 3505 10cb 0D       		.byte	0xd
 3506 10cc 2A       		.uleb128 0x2a
 3507 10cd 01       		.byte	0x1
 3508 10ce 01       		.byte	0x1
 3509 10cf 1E030000 		.4byte	.LASF192
 3510 10d3 1E030000 		.4byte	.LASF192
 3511 10d7 0C       		.byte	0xc
 3512 10d8 9704     		.2byte	0x497
 3513 10da 06       		.byte	0x6
 3514 10db 2B       		.uleb128 0x2b
 3515 10dc 01       		.byte	0x1
 3516 10dd 01       		.byte	0x1
 3517 10de FC000000 		.4byte	.LASF193
 3518 10e2 FC000000 		.4byte	.LASF193
 3519 10e6 0D       		.byte	0xd
 3520 10e7 E3       		.byte	0xe3
 3521 10e8 08       		.byte	0x8
 3522 10e9 2A       		.uleb128 0x2a
 3523 10ea 01       		.byte	0x1
 3524 10eb 01       		.byte	0x1
 3525 10ec 67010000 		.4byte	.LASF194
 3526 10f0 67010000 		.4byte	.LASF194
 3527 10f4 0C       		.byte	0xc
 3528 10f5 F602     		.2byte	0x2f6
 3529 10f7 06       		.byte	0x6
 3530 10f8 2B       		.uleb128 0x2b
 3531 10f9 01       		.byte	0x1
 3532 10fa 01       		.byte	0x1
 3533 10fb 0A090000 		.4byte	.LASF195
 3534 10ff 0A090000 		.4byte	.LASF195
 3535 1103 0E       		.byte	0xe
 3536 1104 39       		.byte	0x39
 3537 1105 06       		.byte	0x6
 3538 1106 2B       		.uleb128 0x2b
 3539 1107 01       		.byte	0x1
 3540 1108 01       		.byte	0x1
 3541 1109 A9000000 		.4byte	.LASF196
 3542 110d A9000000 		.4byte	.LASF196
 3543 1111 0E       		.byte	0xe
 3544 1112 38       		.byte	0x38
 3545 1113 06       		.byte	0x6
 3546 1114 2B       		.uleb128 0x2b
 3547 1115 01       		.byte	0x1
 3548 1116 01       		.byte	0x1
 3549 1117 5D010000 		.4byte	.LASF197
 3550 111b 5D010000 		.4byte	.LASF197
 3551 111f 0E       		.byte	0xe
 3552 1120 36       		.byte	0x36
 3553 1121 06       		.byte	0x6
 3554 1122 2B       		.uleb128 0x2b
 3555 1123 01       		.byte	0x1
 3556 1124 01       		.byte	0x1
ARM GAS  /tmp/ccbw8mZO.s 			page 70


 3557 1125 A7080000 		.4byte	.LASF198
 3558 1129 A7080000 		.4byte	.LASF198
 3559 112d 0E       		.byte	0xe
 3560 112e 34       		.byte	0x34
 3561 112f 06       		.byte	0x6
 3562 1130 2A       		.uleb128 0x2a
 3563 1131 01       		.byte	0x1
 3564 1132 01       		.byte	0x1
 3565 1133 98080000 		.4byte	.LASF199
 3566 1137 98080000 		.4byte	.LASF199
 3567 113b 0B       		.byte	0xb
 3568 113c 7A01     		.2byte	0x17a
 3569 113e 06       		.byte	0x6
 3570 113f 2A       		.uleb128 0x2a
 3571 1140 01       		.byte	0x1
 3572 1141 01       		.byte	0x1
 3573 1142 2C010000 		.4byte	.LASF200
 3574 1146 2C010000 		.4byte	.LASF200
 3575 114a 0B       		.byte	0xb
 3576 114b 8601     		.2byte	0x186
 3577 114d 0C       		.byte	0xc
 3578 114e 2A       		.uleb128 0x2a
 3579 114f 01       		.byte	0x1
 3580 1150 01       		.byte	0x1
 3581 1151 4B000000 		.4byte	.LASF201
 3582 1155 4B000000 		.4byte	.LASF201
 3583 1159 0F       		.byte	0xf
 3584 115a B502     		.2byte	0x2b5
 3585 115c 06       		.byte	0x6
 3586 115d 2A       		.uleb128 0x2a
 3587 115e 01       		.byte	0x1
 3588 115f 01       		.byte	0x1
 3589 1160 69090000 		.4byte	.LASF202
 3590 1164 69090000 		.4byte	.LASF202
 3591 1168 0A       		.byte	0xa
 3592 1169 5F01     		.2byte	0x15f
 3593 116b 06       		.byte	0x6
 3594 116c 2A       		.uleb128 0x2a
 3595 116d 01       		.byte	0x1
 3596 116e 01       		.byte	0x1
 3597 116f 31050000 		.4byte	.LASF203
 3598 1173 31050000 		.4byte	.LASF203
 3599 1177 0B       		.byte	0xb
 3600 1178 6E01     		.2byte	0x16e
 3601 117a 06       		.byte	0x6
 3602 117b 2A       		.uleb128 0x2a
 3603 117c 01       		.byte	0x1
 3604 117d 01       		.byte	0x1
 3605 117e 7D080000 		.4byte	.LASF204
 3606 1182 7D080000 		.4byte	.LASF204
 3607 1186 0B       		.byte	0xb
 3608 1187 7201     		.2byte	0x172
 3609 1189 06       		.byte	0x6
 3610 118a 00       		.byte	0
 3611              		.section	.debug_abbrev,"",%progbits
 3612              	.Ldebug_abbrev0:
 3613 0000 01       		.uleb128 0x1
ARM GAS  /tmp/ccbw8mZO.s 			page 71


 3614 0001 11       		.uleb128 0x11
 3615 0002 01       		.byte	0x1
 3616 0003 25       		.uleb128 0x25
 3617 0004 0E       		.uleb128 0xe
 3618 0005 13       		.uleb128 0x13
 3619 0006 0B       		.uleb128 0xb
 3620 0007 03       		.uleb128 0x3
 3621 0008 0E       		.uleb128 0xe
 3622 0009 1B       		.uleb128 0x1b
 3623 000a 0E       		.uleb128 0xe
 3624 000b 55       		.uleb128 0x55
 3625 000c 06       		.uleb128 0x6
 3626 000d 11       		.uleb128 0x11
 3627 000e 01       		.uleb128 0x1
 3628 000f 52       		.uleb128 0x52
 3629 0010 01       		.uleb128 0x1
 3630 0011 10       		.uleb128 0x10
 3631 0012 06       		.uleb128 0x6
 3632 0013 00       		.byte	0
 3633 0014 00       		.byte	0
 3634 0015 02       		.uleb128 0x2
 3635 0016 24       		.uleb128 0x24
 3636 0017 00       		.byte	0
 3637 0018 0B       		.uleb128 0xb
 3638 0019 0B       		.uleb128 0xb
 3639 001a 3E       		.uleb128 0x3e
 3640 001b 0B       		.uleb128 0xb
 3641 001c 03       		.uleb128 0x3
 3642 001d 08       		.uleb128 0x8
 3643 001e 00       		.byte	0
 3644 001f 00       		.byte	0
 3645 0020 03       		.uleb128 0x3
 3646 0021 24       		.uleb128 0x24
 3647 0022 00       		.byte	0
 3648 0023 0B       		.uleb128 0xb
 3649 0024 0B       		.uleb128 0xb
 3650 0025 3E       		.uleb128 0x3e
 3651 0026 0B       		.uleb128 0xb
 3652 0027 03       		.uleb128 0x3
 3653 0028 0E       		.uleb128 0xe
 3654 0029 00       		.byte	0
 3655 002a 00       		.byte	0
 3656 002b 04       		.uleb128 0x4
 3657 002c 16       		.uleb128 0x16
 3658 002d 00       		.byte	0
 3659 002e 03       		.uleb128 0x3
 3660 002f 0E       		.uleb128 0xe
 3661 0030 3A       		.uleb128 0x3a
 3662 0031 0B       		.uleb128 0xb
 3663 0032 3B       		.uleb128 0x3b
 3664 0033 0B       		.uleb128 0xb
 3665 0034 39       		.uleb128 0x39
 3666 0035 0B       		.uleb128 0xb
 3667 0036 49       		.uleb128 0x49
 3668 0037 13       		.uleb128 0x13
 3669 0038 00       		.byte	0
 3670 0039 00       		.byte	0
ARM GAS  /tmp/ccbw8mZO.s 			page 72


 3671 003a 05       		.uleb128 0x5
 3672 003b 35       		.uleb128 0x35
 3673 003c 00       		.byte	0
 3674 003d 49       		.uleb128 0x49
 3675 003e 13       		.uleb128 0x13
 3676 003f 00       		.byte	0
 3677 0040 00       		.byte	0
 3678 0041 06       		.uleb128 0x6
 3679 0042 0F       		.uleb128 0xf
 3680 0043 00       		.byte	0
 3681 0044 0B       		.uleb128 0xb
 3682 0045 0B       		.uleb128 0xb
 3683 0046 00       		.byte	0
 3684 0047 00       		.byte	0
 3685 0048 07       		.uleb128 0x7
 3686 0049 0F       		.uleb128 0xf
 3687 004a 00       		.byte	0
 3688 004b 0B       		.uleb128 0xb
 3689 004c 0B       		.uleb128 0xb
 3690 004d 49       		.uleb128 0x49
 3691 004e 13       		.uleb128 0x13
 3692 004f 00       		.byte	0
 3693 0050 00       		.byte	0
 3694 0051 08       		.uleb128 0x8
 3695 0052 13       		.uleb128 0x13
 3696 0053 00       		.byte	0
 3697 0054 03       		.uleb128 0x3
 3698 0055 0E       		.uleb128 0xe
 3699 0056 3C       		.uleb128 0x3c
 3700 0057 0C       		.uleb128 0xc
 3701 0058 00       		.byte	0
 3702 0059 00       		.byte	0
 3703 005a 09       		.uleb128 0x9
 3704 005b 01       		.uleb128 0x1
 3705 005c 01       		.byte	0x1
 3706 005d 49       		.uleb128 0x49
 3707 005e 13       		.uleb128 0x13
 3708 005f 01       		.uleb128 0x1
 3709 0060 13       		.uleb128 0x13
 3710 0061 00       		.byte	0
 3711 0062 00       		.byte	0
 3712 0063 0A       		.uleb128 0xa
 3713 0064 21       		.uleb128 0x21
 3714 0065 00       		.byte	0
 3715 0066 49       		.uleb128 0x49
 3716 0067 13       		.uleb128 0x13
 3717 0068 2F       		.uleb128 0x2f
 3718 0069 0B       		.uleb128 0xb
 3719 006a 00       		.byte	0
 3720 006b 00       		.byte	0
 3721 006c 0B       		.uleb128 0xb
 3722 006d 04       		.uleb128 0x4
 3723 006e 01       		.byte	0x1
 3724 006f 03       		.uleb128 0x3
 3725 0070 0E       		.uleb128 0xe
 3726 0071 3E       		.uleb128 0x3e
 3727 0072 0B       		.uleb128 0xb
ARM GAS  /tmp/ccbw8mZO.s 			page 73


 3728 0073 0B       		.uleb128 0xb
 3729 0074 0B       		.uleb128 0xb
 3730 0075 49       		.uleb128 0x49
 3731 0076 13       		.uleb128 0x13
 3732 0077 3A       		.uleb128 0x3a
 3733 0078 0B       		.uleb128 0xb
 3734 0079 3B       		.uleb128 0x3b
 3735 007a 0B       		.uleb128 0xb
 3736 007b 39       		.uleb128 0x39
 3737 007c 0B       		.uleb128 0xb
 3738 007d 01       		.uleb128 0x1
 3739 007e 13       		.uleb128 0x13
 3740 007f 00       		.byte	0
 3741 0080 00       		.byte	0
 3742 0081 0C       		.uleb128 0xc
 3743 0082 28       		.uleb128 0x28
 3744 0083 00       		.byte	0
 3745 0084 03       		.uleb128 0x3
 3746 0085 0E       		.uleb128 0xe
 3747 0086 1C       		.uleb128 0x1c
 3748 0087 0D       		.uleb128 0xd
 3749 0088 00       		.byte	0
 3750 0089 00       		.byte	0
 3751 008a 0D       		.uleb128 0xd
 3752 008b 28       		.uleb128 0x28
 3753 008c 00       		.byte	0
 3754 008d 03       		.uleb128 0x3
 3755 008e 0E       		.uleb128 0xe
 3756 008f 1C       		.uleb128 0x1c
 3757 0090 0B       		.uleb128 0xb
 3758 0091 00       		.byte	0
 3759 0092 00       		.byte	0
 3760 0093 0E       		.uleb128 0xe
 3761 0094 16       		.uleb128 0x16
 3762 0095 00       		.byte	0
 3763 0096 03       		.uleb128 0x3
 3764 0097 0E       		.uleb128 0xe
 3765 0098 3A       		.uleb128 0x3a
 3766 0099 0B       		.uleb128 0xb
 3767 009a 3B       		.uleb128 0x3b
 3768 009b 05       		.uleb128 0x5
 3769 009c 39       		.uleb128 0x39
 3770 009d 0B       		.uleb128 0xb
 3771 009e 49       		.uleb128 0x49
 3772 009f 13       		.uleb128 0x13
 3773 00a0 00       		.byte	0
 3774 00a1 00       		.byte	0
 3775 00a2 0F       		.uleb128 0xf
 3776 00a3 13       		.uleb128 0x13
 3777 00a4 01       		.byte	0x1
 3778 00a5 0B       		.uleb128 0xb
 3779 00a6 05       		.uleb128 0x5
 3780 00a7 3A       		.uleb128 0x3a
 3781 00a8 0B       		.uleb128 0xb
 3782 00a9 3B       		.uleb128 0x3b
 3783 00aa 0B       		.uleb128 0xb
 3784 00ab 39       		.uleb128 0x39
ARM GAS  /tmp/ccbw8mZO.s 			page 74


 3785 00ac 0B       		.uleb128 0xb
 3786 00ad 01       		.uleb128 0x1
 3787 00ae 13       		.uleb128 0x13
 3788 00af 00       		.byte	0
 3789 00b0 00       		.byte	0
 3790 00b1 10       		.uleb128 0x10
 3791 00b2 0D       		.uleb128 0xd
 3792 00b3 00       		.byte	0
 3793 00b4 03       		.uleb128 0x3
 3794 00b5 0E       		.uleb128 0xe
 3795 00b6 3A       		.uleb128 0x3a
 3796 00b7 0B       		.uleb128 0xb
 3797 00b8 3B       		.uleb128 0x3b
 3798 00b9 0B       		.uleb128 0xb
 3799 00ba 39       		.uleb128 0x39
 3800 00bb 0B       		.uleb128 0xb
 3801 00bc 49       		.uleb128 0x49
 3802 00bd 13       		.uleb128 0x13
 3803 00be 38       		.uleb128 0x38
 3804 00bf 0A       		.uleb128 0xa
 3805 00c0 00       		.byte	0
 3806 00c1 00       		.byte	0
 3807 00c2 11       		.uleb128 0x11
 3808 00c3 0D       		.uleb128 0xd
 3809 00c4 00       		.byte	0
 3810 00c5 03       		.uleb128 0x3
 3811 00c6 08       		.uleb128 0x8
 3812 00c7 3A       		.uleb128 0x3a
 3813 00c8 0B       		.uleb128 0xb
 3814 00c9 3B       		.uleb128 0x3b
 3815 00ca 0B       		.uleb128 0xb
 3816 00cb 39       		.uleb128 0x39
 3817 00cc 0B       		.uleb128 0xb
 3818 00cd 49       		.uleb128 0x49
 3819 00ce 13       		.uleb128 0x13
 3820 00cf 38       		.uleb128 0x38
 3821 00d0 0A       		.uleb128 0xa
 3822 00d1 00       		.byte	0
 3823 00d2 00       		.byte	0
 3824 00d3 12       		.uleb128 0x12
 3825 00d4 21       		.uleb128 0x21
 3826 00d5 00       		.byte	0
 3827 00d6 49       		.uleb128 0x49
 3828 00d7 13       		.uleb128 0x13
 3829 00d8 2F       		.uleb128 0x2f
 3830 00d9 05       		.uleb128 0x5
 3831 00da 00       		.byte	0
 3832 00db 00       		.byte	0
 3833 00dc 13       		.uleb128 0x13
 3834 00dd 16       		.uleb128 0x16
 3835 00de 00       		.byte	0
 3836 00df 03       		.uleb128 0x3
 3837 00e0 08       		.uleb128 0x8
 3838 00e1 3A       		.uleb128 0x3a
 3839 00e2 0B       		.uleb128 0xb
 3840 00e3 3B       		.uleb128 0x3b
 3841 00e4 05       		.uleb128 0x5
ARM GAS  /tmp/ccbw8mZO.s 			page 75


 3842 00e5 39       		.uleb128 0x39
 3843 00e6 0B       		.uleb128 0xb
 3844 00e7 49       		.uleb128 0x49
 3845 00e8 13       		.uleb128 0x13
 3846 00e9 00       		.byte	0
 3847 00ea 00       		.byte	0
 3848 00eb 14       		.uleb128 0x14
 3849 00ec 04       		.uleb128 0x4
 3850 00ed 01       		.byte	0x1
 3851 00ee 3E       		.uleb128 0x3e
 3852 00ef 0B       		.uleb128 0xb
 3853 00f0 0B       		.uleb128 0xb
 3854 00f1 0B       		.uleb128 0xb
 3855 00f2 49       		.uleb128 0x49
 3856 00f3 13       		.uleb128 0x13
 3857 00f4 3A       		.uleb128 0x3a
 3858 00f5 0B       		.uleb128 0xb
 3859 00f6 3B       		.uleb128 0x3b
 3860 00f7 05       		.uleb128 0x5
 3861 00f8 39       		.uleb128 0x39
 3862 00f9 0B       		.uleb128 0xb
 3863 00fa 01       		.uleb128 0x1
 3864 00fb 13       		.uleb128 0x13
 3865 00fc 00       		.byte	0
 3866 00fd 00       		.byte	0
 3867 00fe 15       		.uleb128 0x15
 3868 00ff 28       		.uleb128 0x28
 3869 0100 00       		.byte	0
 3870 0101 03       		.uleb128 0x3
 3871 0102 08       		.uleb128 0x8
 3872 0103 1C       		.uleb128 0x1c
 3873 0104 0B       		.uleb128 0xb
 3874 0105 00       		.byte	0
 3875 0106 00       		.byte	0
 3876 0107 16       		.uleb128 0x16
 3877 0108 13       		.uleb128 0x13
 3878 0109 01       		.byte	0x1
 3879 010a 0B       		.uleb128 0xb
 3880 010b 0B       		.uleb128 0xb
 3881 010c 3A       		.uleb128 0x3a
 3882 010d 0B       		.uleb128 0xb
 3883 010e 3B       		.uleb128 0x3b
 3884 010f 05       		.uleb128 0x5
 3885 0110 39       		.uleb128 0x39
 3886 0111 0B       		.uleb128 0xb
 3887 0112 01       		.uleb128 0x1
 3888 0113 13       		.uleb128 0x13
 3889 0114 00       		.byte	0
 3890 0115 00       		.byte	0
 3891 0116 17       		.uleb128 0x17
 3892 0117 0D       		.uleb128 0xd
 3893 0118 00       		.byte	0
 3894 0119 03       		.uleb128 0x3
 3895 011a 08       		.uleb128 0x8
 3896 011b 3A       		.uleb128 0x3a
 3897 011c 0B       		.uleb128 0xb
 3898 011d 3B       		.uleb128 0x3b
ARM GAS  /tmp/ccbw8mZO.s 			page 76


 3899 011e 05       		.uleb128 0x5
 3900 011f 39       		.uleb128 0x39
 3901 0120 0B       		.uleb128 0xb
 3902 0121 49       		.uleb128 0x49
 3903 0122 13       		.uleb128 0x13
 3904 0123 38       		.uleb128 0x38
 3905 0124 0A       		.uleb128 0xa
 3906 0125 00       		.byte	0
 3907 0126 00       		.byte	0
 3908 0127 18       		.uleb128 0x18
 3909 0128 0D       		.uleb128 0xd
 3910 0129 00       		.byte	0
 3911 012a 03       		.uleb128 0x3
 3912 012b 0E       		.uleb128 0xe
 3913 012c 3A       		.uleb128 0x3a
 3914 012d 0B       		.uleb128 0xb
 3915 012e 3B       		.uleb128 0x3b
 3916 012f 05       		.uleb128 0x5
 3917 0130 39       		.uleb128 0x39
 3918 0131 0B       		.uleb128 0xb
 3919 0132 49       		.uleb128 0x49
 3920 0133 13       		.uleb128 0x13
 3921 0134 38       		.uleb128 0x38
 3922 0135 0A       		.uleb128 0xa
 3923 0136 00       		.byte	0
 3924 0137 00       		.byte	0
 3925 0138 19       		.uleb128 0x19
 3926 0139 04       		.uleb128 0x4
 3927 013a 01       		.byte	0x1
 3928 013b 3E       		.uleb128 0x3e
 3929 013c 0B       		.uleb128 0xb
 3930 013d 0B       		.uleb128 0xb
 3931 013e 0B       		.uleb128 0xb
 3932 013f 49       		.uleb128 0x49
 3933 0140 13       		.uleb128 0x13
 3934 0141 3A       		.uleb128 0x3a
 3935 0142 0B       		.uleb128 0xb
 3936 0143 3B       		.uleb128 0x3b
 3937 0144 0B       		.uleb128 0xb
 3938 0145 39       		.uleb128 0x39
 3939 0146 0B       		.uleb128 0xb
 3940 0147 01       		.uleb128 0x1
 3941 0148 13       		.uleb128 0x13
 3942 0149 00       		.byte	0
 3943 014a 00       		.byte	0
 3944 014b 1A       		.uleb128 0x1a
 3945 014c 13       		.uleb128 0x13
 3946 014d 01       		.byte	0x1
 3947 014e 0B       		.uleb128 0xb
 3948 014f 0B       		.uleb128 0xb
 3949 0150 3A       		.uleb128 0x3a
 3950 0151 0B       		.uleb128 0xb
 3951 0152 3B       		.uleb128 0x3b
 3952 0153 0B       		.uleb128 0xb
 3953 0154 39       		.uleb128 0x39
 3954 0155 0B       		.uleb128 0xb
 3955 0156 01       		.uleb128 0x1
ARM GAS  /tmp/ccbw8mZO.s 			page 77


 3956 0157 13       		.uleb128 0x13
 3957 0158 00       		.byte	0
 3958 0159 00       		.byte	0
 3959 015a 1B       		.uleb128 0x1b
 3960 015b 34       		.uleb128 0x34
 3961 015c 00       		.byte	0
 3962 015d 03       		.uleb128 0x3
 3963 015e 0E       		.uleb128 0xe
 3964 015f 3A       		.uleb128 0x3a
 3965 0160 0B       		.uleb128 0xb
 3966 0161 3B       		.uleb128 0x3b
 3967 0162 0B       		.uleb128 0xb
 3968 0163 39       		.uleb128 0x39
 3969 0164 0B       		.uleb128 0xb
 3970 0165 49       		.uleb128 0x49
 3971 0166 13       		.uleb128 0x13
 3972 0167 00       		.byte	0
 3973 0168 00       		.byte	0
 3974 0169 1C       		.uleb128 0x1c
 3975 016a 2E       		.uleb128 0x2e
 3976 016b 01       		.byte	0x1
 3977 016c 3F       		.uleb128 0x3f
 3978 016d 0C       		.uleb128 0xc
 3979 016e 03       		.uleb128 0x3
 3980 016f 0E       		.uleb128 0xe
 3981 0170 3A       		.uleb128 0x3a
 3982 0171 0B       		.uleb128 0xb
 3983 0172 3B       		.uleb128 0x3b
 3984 0173 0B       		.uleb128 0xb
 3985 0174 39       		.uleb128 0x39
 3986 0175 0B       		.uleb128 0xb
 3987 0176 27       		.uleb128 0x27
 3988 0177 0C       		.uleb128 0xc
 3989 0178 49       		.uleb128 0x49
 3990 0179 13       		.uleb128 0x13
 3991 017a 11       		.uleb128 0x11
 3992 017b 01       		.uleb128 0x1
 3993 017c 12       		.uleb128 0x12
 3994 017d 01       		.uleb128 0x1
 3995 017e 40       		.uleb128 0x40
 3996 017f 06       		.uleb128 0x6
 3997 0180 9742     		.uleb128 0x2117
 3998 0182 0C       		.uleb128 0xc
 3999 0183 01       		.uleb128 0x1
 4000 0184 13       		.uleb128 0x13
 4001 0185 00       		.byte	0
 4002 0186 00       		.byte	0
 4003 0187 1D       		.uleb128 0x1d
 4004 0188 898201   		.uleb128 0x4109
 4005 018b 01       		.byte	0x1
 4006 018c 11       		.uleb128 0x11
 4007 018d 01       		.uleb128 0x1
 4008 018e 31       		.uleb128 0x31
 4009 018f 13       		.uleb128 0x13
 4010 0190 01       		.uleb128 0x1
 4011 0191 13       		.uleb128 0x13
 4012 0192 00       		.byte	0
ARM GAS  /tmp/ccbw8mZO.s 			page 78


 4013 0193 00       		.byte	0
 4014 0194 1E       		.uleb128 0x1e
 4015 0195 8A8201   		.uleb128 0x410a
 4016 0198 00       		.byte	0
 4017 0199 02       		.uleb128 0x2
 4018 019a 0A       		.uleb128 0xa
 4019 019b 9142     		.uleb128 0x2111
 4020 019d 0A       		.uleb128 0xa
 4021 019e 00       		.byte	0
 4022 019f 00       		.byte	0
 4023 01a0 1F       		.uleb128 0x1f
 4024 01a1 898201   		.uleb128 0x4109
 4025 01a4 00       		.byte	0
 4026 01a5 11       		.uleb128 0x11
 4027 01a6 01       		.uleb128 0x1
 4028 01a7 31       		.uleb128 0x31
 4029 01a8 13       		.uleb128 0x13
 4030 01a9 00       		.byte	0
 4031 01aa 00       		.byte	0
 4032 01ab 20       		.uleb128 0x20
 4033 01ac 2E       		.uleb128 0x2e
 4034 01ad 01       		.byte	0x1
 4035 01ae 03       		.uleb128 0x3
 4036 01af 0E       		.uleb128 0xe
 4037 01b0 3A       		.uleb128 0x3a
 4038 01b1 0B       		.uleb128 0xb
 4039 01b2 3B       		.uleb128 0x3b
 4040 01b3 0B       		.uleb128 0xb
 4041 01b4 39       		.uleb128 0x39
 4042 01b5 0B       		.uleb128 0xb
 4043 01b6 27       		.uleb128 0x27
 4044 01b7 0C       		.uleb128 0xc
 4045 01b8 11       		.uleb128 0x11
 4046 01b9 01       		.uleb128 0x1
 4047 01ba 12       		.uleb128 0x12
 4048 01bb 01       		.uleb128 0x1
 4049 01bc 40       		.uleb128 0x40
 4050 01bd 06       		.uleb128 0x6
 4051 01be 9742     		.uleb128 0x2117
 4052 01c0 0C       		.uleb128 0xc
 4053 01c1 01       		.uleb128 0x1
 4054 01c2 13       		.uleb128 0x13
 4055 01c3 00       		.byte	0
 4056 01c4 00       		.byte	0
 4057 01c5 21       		.uleb128 0x21
 4058 01c6 05       		.uleb128 0x5
 4059 01c7 00       		.byte	0
 4060 01c8 03       		.uleb128 0x3
 4061 01c9 0E       		.uleb128 0xe
 4062 01ca 3A       		.uleb128 0x3a
 4063 01cb 0B       		.uleb128 0xb
 4064 01cc 3B       		.uleb128 0x3b
 4065 01cd 0B       		.uleb128 0xb
 4066 01ce 39       		.uleb128 0x39
 4067 01cf 0B       		.uleb128 0xb
 4068 01d0 49       		.uleb128 0x49
 4069 01d1 13       		.uleb128 0x13
ARM GAS  /tmp/ccbw8mZO.s 			page 79


 4070 01d2 02       		.uleb128 0x2
 4071 01d3 06       		.uleb128 0x6
 4072 01d4 B742     		.uleb128 0x2137
 4073 01d6 06       		.uleb128 0x6
 4074 01d7 00       		.byte	0
 4075 01d8 00       		.byte	0
 4076 01d9 22       		.uleb128 0x22
 4077 01da 34       		.uleb128 0x34
 4078 01db 00       		.byte	0
 4079 01dc 03       		.uleb128 0x3
 4080 01dd 0E       		.uleb128 0xe
 4081 01de 3A       		.uleb128 0x3a
 4082 01df 0B       		.uleb128 0xb
 4083 01e0 3B       		.uleb128 0x3b
 4084 01e1 0B       		.uleb128 0xb
 4085 01e2 39       		.uleb128 0x39
 4086 01e3 0B       		.uleb128 0xb
 4087 01e4 49       		.uleb128 0x49
 4088 01e5 13       		.uleb128 0x13
 4089 01e6 02       		.uleb128 0x2
 4090 01e7 06       		.uleb128 0x6
 4091 01e8 B742     		.uleb128 0x2137
 4092 01ea 06       		.uleb128 0x6
 4093 01eb 00       		.byte	0
 4094 01ec 00       		.byte	0
 4095 01ed 23       		.uleb128 0x23
 4096 01ee 34       		.uleb128 0x34
 4097 01ef 00       		.byte	0
 4098 01f0 03       		.uleb128 0x3
 4099 01f1 0E       		.uleb128 0xe
 4100 01f2 3A       		.uleb128 0x3a
 4101 01f3 0B       		.uleb128 0xb
 4102 01f4 3B       		.uleb128 0x3b
 4103 01f5 0B       		.uleb128 0xb
 4104 01f6 39       		.uleb128 0x39
 4105 01f7 0B       		.uleb128 0xb
 4106 01f8 49       		.uleb128 0x49
 4107 01f9 13       		.uleb128 0x13
 4108 01fa 02       		.uleb128 0x2
 4109 01fb 0A       		.uleb128 0xa
 4110 01fc 00       		.byte	0
 4111 01fd 00       		.byte	0
 4112 01fe 24       		.uleb128 0x24
 4113 01ff 898201   		.uleb128 0x4109
 4114 0202 01       		.byte	0x1
 4115 0203 11       		.uleb128 0x11
 4116 0204 01       		.uleb128 0x1
 4117 0205 31       		.uleb128 0x31
 4118 0206 13       		.uleb128 0x13
 4119 0207 00       		.byte	0
 4120 0208 00       		.byte	0
 4121 0209 25       		.uleb128 0x25
 4122 020a 2E       		.uleb128 0x2e
 4123 020b 01       		.byte	0x1
 4124 020c 3F       		.uleb128 0x3f
 4125 020d 0C       		.uleb128 0xc
 4126 020e 03       		.uleb128 0x3
ARM GAS  /tmp/ccbw8mZO.s 			page 80


 4127 020f 0E       		.uleb128 0xe
 4128 0210 3A       		.uleb128 0x3a
 4129 0211 0B       		.uleb128 0xb
 4130 0212 3B       		.uleb128 0x3b
 4131 0213 0B       		.uleb128 0xb
 4132 0214 39       		.uleb128 0x39
 4133 0215 0B       		.uleb128 0xb
 4134 0216 27       		.uleb128 0x27
 4135 0217 0C       		.uleb128 0xc
 4136 0218 11       		.uleb128 0x11
 4137 0219 01       		.uleb128 0x1
 4138 021a 12       		.uleb128 0x12
 4139 021b 01       		.uleb128 0x1
 4140 021c 40       		.uleb128 0x40
 4141 021d 06       		.uleb128 0x6
 4142 021e 9742     		.uleb128 0x2117
 4143 0220 0C       		.uleb128 0xc
 4144 0221 01       		.uleb128 0x1
 4145 0222 13       		.uleb128 0x13
 4146 0223 00       		.byte	0
 4147 0224 00       		.byte	0
 4148 0225 26       		.uleb128 0x26
 4149 0226 2E       		.uleb128 0x2e
 4150 0227 01       		.byte	0x1
 4151 0228 3F       		.uleb128 0x3f
 4152 0229 0C       		.uleb128 0xc
 4153 022a 03       		.uleb128 0x3
 4154 022b 0E       		.uleb128 0xe
 4155 022c 3A       		.uleb128 0x3a
 4156 022d 0B       		.uleb128 0xb
 4157 022e 3B       		.uleb128 0x3b
 4158 022f 0B       		.uleb128 0xb
 4159 0230 39       		.uleb128 0x39
 4160 0231 0B       		.uleb128 0xb
 4161 0232 27       		.uleb128 0x27
 4162 0233 0C       		.uleb128 0xc
 4163 0234 11       		.uleb128 0x11
 4164 0235 01       		.uleb128 0x1
 4165 0236 12       		.uleb128 0x12
 4166 0237 01       		.uleb128 0x1
 4167 0238 40       		.uleb128 0x40
 4168 0239 0A       		.uleb128 0xa
 4169 023a 9742     		.uleb128 0x2117
 4170 023c 0C       		.uleb128 0xc
 4171 023d 01       		.uleb128 0x1
 4172 023e 13       		.uleb128 0x13
 4173 023f 00       		.byte	0
 4174 0240 00       		.byte	0
 4175 0241 27       		.uleb128 0x27
 4176 0242 2E       		.uleb128 0x2e
 4177 0243 00       		.byte	0
 4178 0244 3F       		.uleb128 0x3f
 4179 0245 0C       		.uleb128 0xc
 4180 0246 03       		.uleb128 0x3
 4181 0247 0E       		.uleb128 0xe
 4182 0248 3A       		.uleb128 0x3a
 4183 0249 0B       		.uleb128 0xb
ARM GAS  /tmp/ccbw8mZO.s 			page 81


 4184 024a 3B       		.uleb128 0x3b
 4185 024b 0B       		.uleb128 0xb
 4186 024c 39       		.uleb128 0x39
 4187 024d 0B       		.uleb128 0xb
 4188 024e 27       		.uleb128 0x27
 4189 024f 0C       		.uleb128 0xc
 4190 0250 11       		.uleb128 0x11
 4191 0251 01       		.uleb128 0x1
 4192 0252 12       		.uleb128 0x12
 4193 0253 01       		.uleb128 0x1
 4194 0254 40       		.uleb128 0x40
 4195 0255 0A       		.uleb128 0xa
 4196 0256 9742     		.uleb128 0x2117
 4197 0258 0C       		.uleb128 0xc
 4198 0259 00       		.byte	0
 4199 025a 00       		.byte	0
 4200 025b 28       		.uleb128 0x28
 4201 025c 05       		.uleb128 0x5
 4202 025d 00       		.byte	0
 4203 025e 03       		.uleb128 0x3
 4204 025f 08       		.uleb128 0x8
 4205 0260 3A       		.uleb128 0x3a
 4206 0261 0B       		.uleb128 0xb
 4207 0262 3B       		.uleb128 0x3b
 4208 0263 0B       		.uleb128 0xb
 4209 0264 39       		.uleb128 0x39
 4210 0265 0B       		.uleb128 0xb
 4211 0266 49       		.uleb128 0x49
 4212 0267 13       		.uleb128 0x13
 4213 0268 02       		.uleb128 0x2
 4214 0269 0A       		.uleb128 0xa
 4215 026a 00       		.byte	0
 4216 026b 00       		.byte	0
 4217 026c 29       		.uleb128 0x29
 4218 026d 2E       		.uleb128 0x2e
 4219 026e 00       		.byte	0
 4220 026f 3F       		.uleb128 0x3f
 4221 0270 0C       		.uleb128 0xc
 4222 0271 03       		.uleb128 0x3
 4223 0272 0E       		.uleb128 0xe
 4224 0273 3A       		.uleb128 0x3a
 4225 0274 0B       		.uleb128 0xb
 4226 0275 3B       		.uleb128 0x3b
 4227 0276 0B       		.uleb128 0xb
 4228 0277 39       		.uleb128 0x39
 4229 0278 0B       		.uleb128 0xb
 4230 0279 11       		.uleb128 0x11
 4231 027a 01       		.uleb128 0x1
 4232 027b 12       		.uleb128 0x12
 4233 027c 01       		.uleb128 0x1
 4234 027d 40       		.uleb128 0x40
 4235 027e 0A       		.uleb128 0xa
 4236 027f 9742     		.uleb128 0x2117
 4237 0281 0C       		.uleb128 0xc
 4238 0282 00       		.byte	0
 4239 0283 00       		.byte	0
 4240 0284 2A       		.uleb128 0x2a
ARM GAS  /tmp/ccbw8mZO.s 			page 82


 4241 0285 2E       		.uleb128 0x2e
 4242 0286 00       		.byte	0
 4243 0287 3F       		.uleb128 0x3f
 4244 0288 0C       		.uleb128 0xc
 4245 0289 3C       		.uleb128 0x3c
 4246 028a 0C       		.uleb128 0xc
 4247 028b 8740     		.uleb128 0x2007
 4248 028d 0E       		.uleb128 0xe
 4249 028e 03       		.uleb128 0x3
 4250 028f 0E       		.uleb128 0xe
 4251 0290 3A       		.uleb128 0x3a
 4252 0291 0B       		.uleb128 0xb
 4253 0292 3B       		.uleb128 0x3b
 4254 0293 05       		.uleb128 0x5
 4255 0294 39       		.uleb128 0x39
 4256 0295 0B       		.uleb128 0xb
 4257 0296 00       		.byte	0
 4258 0297 00       		.byte	0
 4259 0298 2B       		.uleb128 0x2b
 4260 0299 2E       		.uleb128 0x2e
 4261 029a 00       		.byte	0
 4262 029b 3F       		.uleb128 0x3f
 4263 029c 0C       		.uleb128 0xc
 4264 029d 3C       		.uleb128 0x3c
 4265 029e 0C       		.uleb128 0xc
 4266 029f 8740     		.uleb128 0x2007
 4267 02a1 0E       		.uleb128 0xe
 4268 02a2 03       		.uleb128 0x3
 4269 02a3 0E       		.uleb128 0xe
 4270 02a4 3A       		.uleb128 0x3a
 4271 02a5 0B       		.uleb128 0xb
 4272 02a6 3B       		.uleb128 0x3b
 4273 02a7 0B       		.uleb128 0xb
 4274 02a8 39       		.uleb128 0x39
 4275 02a9 0B       		.uleb128 0xb
 4276 02aa 00       		.byte	0
 4277 02ab 00       		.byte	0
 4278 02ac 00       		.byte	0
 4279              		.section	.debug_loc,"",%progbits
 4280              	.Ldebug_loc0:
 4281              	.LLST14:
 4282 0000 00000000 		.4byte	.LFB45
 4283 0004 06000000 		.4byte	.LCFI10
 4284 0008 0200     		.2byte	0x2
 4285 000a 7D       		.byte	0x7d
 4286 000b 00       		.sleb128 0
 4287 000c 06000000 		.4byte	.LCFI10
 4288 0010 64000000 		.4byte	.LFE45
 4289 0014 0200     		.2byte	0x2
 4290 0016 7D       		.byte	0x7d
 4291 0017 10       		.sleb128 16
 4292 0018 00000000 		.4byte	0
 4293 001c 00000000 		.4byte	0
 4294              	.LLST11:
 4295 0020 EC020000 		.4byte	.LFB44
 4296 0024 EE020000 		.4byte	.LCFI9
 4297 0028 0200     		.2byte	0x2
ARM GAS  /tmp/ccbw8mZO.s 			page 83


 4298 002a 7D       		.byte	0x7d
 4299 002b 00       		.sleb128 0
 4300 002c EE020000 		.4byte	.LCFI9
 4301 0030 20030000 		.4byte	.LFE44
 4302 0034 0200     		.2byte	0x2
 4303 0036 7D       		.byte	0x7d
 4304 0037 18       		.sleb128 24
 4305 0038 00000000 		.4byte	0
 4306 003c 00000000 		.4byte	0
 4307              	.LVUS12:
 4308 0040 00       		.uleb128 0
 4309 0041 00       		.uleb128 .LVU228
 4310 0042 00       		.uleb128 .LVU228
 4311 0043 00       		.uleb128 0
 4312              	.LLST12:
 4313 0044 EC020000 		.4byte	.LVL28
 4314 0048 F1020000 		.4byte	.LVL29-1
 4315 004c 0100     		.2byte	0x1
 4316 004e 50       		.byte	0x50
 4317 004f F1020000 		.4byte	.LVL29-1
 4318 0053 20030000 		.4byte	.LFE44
 4319 0057 0400     		.2byte	0x4
 4320 0059 F3       		.byte	0xf3
 4321 005a 01       		.uleb128 0x1
 4322 005b 50       		.byte	0x50
 4323 005c 9F       		.byte	0x9f
 4324 005d 00000000 		.4byte	0
 4325 0061 00000000 		.4byte	0
 4326              	.LVUS13:
 4327 0065 01       		.uleb128 .LVU229
 4328 0066 00       		.uleb128 .LVU231
 4329 0067 00       		.uleb128 .LVU231
 4330 0068 00       		.uleb128 .LVU235
 4331 0069 00       		.uleb128 .LVU237
 4332 006a 00       		.uleb128 0
 4333              	.LLST13:
 4334 006b F2020000 		.4byte	.LVL29
 4335 006f F6020000 		.4byte	.LVL30
 4336 0073 0200     		.2byte	0x2
 4337 0075 30       		.byte	0x30
 4338 0076 9F       		.byte	0x9f
 4339 0077 F6020000 		.4byte	.LVL30
 4340 007b F8020000 		.4byte	.LVL31
 4341 007f 0100     		.2byte	0x1
 4342 0081 54       		.byte	0x54
 4343 0082 FC020000 		.4byte	.LVL32
 4344 0086 20030000 		.4byte	.LFE44
 4345 008a 0100     		.2byte	0x1
 4346 008c 54       		.byte	0x54
 4347 008d 00000000 		.4byte	0
 4348 0091 00000000 		.4byte	0
 4349              	.LLST0:
 4350 0095 00000000 		.4byte	.LFB43
 4351 0099 04000000 		.4byte	.LCFI0
 4352 009d 0200     		.2byte	0x2
 4353 009f 7D       		.byte	0x7d
 4354 00a0 00       		.sleb128 0
ARM GAS  /tmp/ccbw8mZO.s 			page 84


 4355 00a1 04000000 		.4byte	.LCFI0
 4356 00a5 30000000 		.4byte	.LFE43
 4357 00a9 0200     		.2byte	0x2
 4358 00ab 7D       		.byte	0x7d
 4359 00ac 08       		.sleb128 8
 4360 00ad 00000000 		.4byte	0
 4361 00b1 00000000 		.4byte	0
 4362              	.LVUS1:
 4363 00b5 00       		.uleb128 0
 4364 00b6 00       		.uleb128 .LVU9
 4365 00b7 00       		.uleb128 .LVU9
 4366 00b8 00       		.uleb128 0
 4367              	.LLST1:
 4368 00b9 00000000 		.4byte	.LVL0
 4369 00bd 16000000 		.4byte	.LVL1
 4370 00c1 0100     		.2byte	0x1
 4371 00c3 50       		.byte	0x50
 4372 00c4 16000000 		.4byte	.LVL1
 4373 00c8 30000000 		.4byte	.LFE43
 4374 00cc 0400     		.2byte	0x4
 4375 00ce F3       		.byte	0xf3
 4376 00cf 01       		.uleb128 0x1
 4377 00d0 50       		.byte	0x50
 4378 00d1 9F       		.byte	0x9f
 4379 00d2 00000000 		.4byte	0
 4380 00d6 00000000 		.4byte	0
 4381              	.LLST2:
 4382 00da 30000000 		.4byte	.LFB42
 4383 00de 34000000 		.4byte	.LCFI1
 4384 00e2 0200     		.2byte	0x2
 4385 00e4 7D       		.byte	0x7d
 4386 00e5 00       		.sleb128 0
 4387 00e6 34000000 		.4byte	.LCFI1
 4388 00ea C8000000 		.4byte	.LFE42
 4389 00ee 0200     		.2byte	0x2
 4390 00f0 7D       		.byte	0x7d
 4391 00f1 10       		.sleb128 16
 4392 00f2 00000000 		.4byte	0
 4393 00f6 00000000 		.4byte	0
 4394              	.LVUS3:
 4395 00fa 00       		.uleb128 0
 4396 00fb 00       		.uleb128 .LVU35
 4397 00fc 00       		.uleb128 .LVU35
 4398 00fd 00       		.uleb128 0
 4399              	.LLST3:
 4400 00fe 30000000 		.4byte	.LVL3
 4401 0102 81000000 		.4byte	.LVL4-1
 4402 0106 0100     		.2byte	0x1
 4403 0108 50       		.byte	0x50
 4404 0109 81000000 		.4byte	.LVL4-1
 4405 010d C8000000 		.4byte	.LFE42
 4406 0111 0400     		.2byte	0x4
 4407 0113 F3       		.byte	0xf3
 4408 0114 01       		.uleb128 0x1
 4409 0115 50       		.byte	0x50
 4410 0116 9F       		.byte	0x9f
 4411 0117 00000000 		.4byte	0
ARM GAS  /tmp/ccbw8mZO.s 			page 85


 4412 011b 00000000 		.4byte	0
 4413              	.LVUS4:
 4414 011f 01       		.uleb128 .LVU38
 4415 0120 00       		.uleb128 .LVU41
 4416 0121 00       		.uleb128 .LVU43
 4417 0122 00       		.uleb128 0
 4418              	.LLST4:
 4419 0123 92000000 		.4byte	.LVL6
 4420 0127 94000000 		.4byte	.LVL7
 4421 012b 0100     		.2byte	0x1
 4422 012d 54       		.byte	0x54
 4423 012e 9C000000 		.4byte	.LVL8
 4424 0132 C8000000 		.4byte	.LFE42
 4425 0136 0100     		.2byte	0x1
 4426 0138 54       		.byte	0x54
 4427 0139 00000000 		.4byte	0
 4428 013d 00000000 		.4byte	0
 4429              	.LLST9:
 4430 0141 C4020000 		.4byte	.LFB41
 4431 0145 C6020000 		.4byte	.LCFI8
 4432 0149 0200     		.2byte	0x2
 4433 014b 7D       		.byte	0x7d
 4434 014c 00       		.sleb128 0
 4435 014d C6020000 		.4byte	.LCFI8
 4436 0151 EC020000 		.4byte	.LFE41
 4437 0155 0200     		.2byte	0x2
 4438 0157 7D       		.byte	0x7d
 4439 0158 10       		.sleb128 16
 4440 0159 00000000 		.4byte	0
 4441 015d 00000000 		.4byte	0
 4442              	.LVUS10:
 4443 0161 00       		.uleb128 0
 4444 0162 00       		.uleb128 .LVU213
 4445 0163 00       		.uleb128 .LVU213
 4446 0164 00       		.uleb128 .LVU215
 4447 0165 00       		.uleb128 .LVU215
 4448 0166 01       		.uleb128 .LVU218
 4449 0167 01       		.uleb128 .LVU218
 4450 0168 00       		.uleb128 0
 4451              	.LLST10:
 4452 0169 C4020000 		.4byte	.LVL22
 4453 016d CA020000 		.4byte	.LVL23
 4454 0171 0100     		.2byte	0x1
 4455 0173 50       		.byte	0x50
 4456 0174 CA020000 		.4byte	.LVL23
 4457 0178 CE020000 		.4byte	.LVL24
 4458 017c 0300     		.2byte	0x3
 4459 017e 74       		.byte	0x74
 4460 017f 01       		.sleb128 1
 4461 0180 9F       		.byte	0x9f
 4462 0181 CE020000 		.4byte	.LVL24
 4463 0185 D2020000 		.4byte	.LVL25
 4464 0189 0100     		.2byte	0x1
 4465 018b 54       		.byte	0x54
 4466 018c D2020000 		.4byte	.LVL25
 4467 0190 EC020000 		.4byte	.LFE41
 4468 0194 0300     		.2byte	0x3
ARM GAS  /tmp/ccbw8mZO.s 			page 86


 4469 0196 74       		.byte	0x74
 4470 0197 01       		.sleb128 1
 4471 0198 9F       		.byte	0x9f
 4472 0199 00000000 		.4byte	0
 4473 019d 00000000 		.4byte	0
 4474              	.LLST8:
 4475 01a1 54020000 		.4byte	.LFB40
 4476 01a5 56020000 		.4byte	.LCFI5
 4477 01a9 0200     		.2byte	0x2
 4478 01ab 7D       		.byte	0x7d
 4479 01ac 00       		.sleb128 0
 4480 01ad 56020000 		.4byte	.LCFI5
 4481 01b1 5A020000 		.4byte	.LCFI6
 4482 01b5 0200     		.2byte	0x2
 4483 01b7 7D       		.byte	0x7d
 4484 01b8 08       		.sleb128 8
 4485 01b9 5A020000 		.4byte	.LCFI6
 4486 01bd BE020000 		.4byte	.LCFI7
 4487 01c1 0200     		.2byte	0x2
 4488 01c3 7D       		.byte	0x7d
 4489 01c4 20       		.sleb128 32
 4490 01c5 BE020000 		.4byte	.LCFI7
 4491 01c9 C4020000 		.4byte	.LFE40
 4492 01cd 0200     		.2byte	0x2
 4493 01cf 7D       		.byte	0x7d
 4494 01d0 08       		.sleb128 8
 4495 01d1 00000000 		.4byte	0
 4496 01d5 00000000 		.4byte	0
 4497              	.LVUS7:
 4498 01d9 00       		.uleb128 0
 4499 01da 00       		.uleb128 .LVU169
 4500 01db 00       		.uleb128 .LVU169
 4501 01dc 00       		.uleb128 0
 4502              	.LLST7:
 4503 01dd 38020000 		.4byte	.LVL15
 4504 01e1 40020000 		.4byte	.LVL16
 4505 01e5 0100     		.2byte	0x1
 4506 01e7 50       		.byte	0x50
 4507 01e8 40020000 		.4byte	.LVL16
 4508 01ec 54020000 		.4byte	.LFE39
 4509 01f0 0400     		.2byte	0x4
 4510 01f2 F3       		.byte	0xf3
 4511 01f3 01       		.uleb128 0x1
 4512 01f4 50       		.byte	0x50
 4513 01f5 9F       		.byte	0x9f
 4514 01f6 00000000 		.4byte	0
 4515 01fa 00000000 		.4byte	0
 4516              	.LVUS6:
 4517 01fe 00       		.uleb128 0
 4518 01ff 00       		.uleb128 .LVU161
 4519 0200 00       		.uleb128 .LVU161
 4520 0201 00       		.uleb128 0
 4521              	.LLST6:
 4522 0202 20020000 		.4byte	.LVL13
 4523 0206 28020000 		.4byte	.LVL14
 4524 020a 0100     		.2byte	0x1
 4525 020c 50       		.byte	0x50
ARM GAS  /tmp/ccbw8mZO.s 			page 87


 4526 020d 28020000 		.4byte	.LVL14
 4527 0211 38020000 		.4byte	.LFE38
 4528 0215 0400     		.2byte	0x4
 4529 0217 F3       		.byte	0xf3
 4530 0218 01       		.uleb128 0x1
 4531 0219 50       		.byte	0x50
 4532 021a 9F       		.byte	0x9f
 4533 021b 00000000 		.4byte	0
 4534 021f 00000000 		.4byte	0
 4535              	.LLST5:
 4536 0223 C8010000 		.4byte	.LFB36
 4537 0227 CA010000 		.4byte	.LCFI2
 4538 022b 0200     		.2byte	0x2
 4539 022d 7D       		.byte	0x7d
 4540 022e 00       		.sleb128 0
 4541 022f CA010000 		.4byte	.LCFI2
 4542 0233 D6010000 		.4byte	.LCFI3
 4543 0237 0200     		.2byte	0x2
 4544 0239 7D       		.byte	0x7d
 4545 023a 08       		.sleb128 8
 4546 023b D6010000 		.4byte	.LCFI3
 4547 023f D8010000 		.4byte	.LCFI4
 4548 0243 0200     		.2byte	0x2
 4549 0245 7D       		.byte	0x7d
 4550 0246 00       		.sleb128 0
 4551 0247 D8010000 		.4byte	.LCFI4
 4552 024b F8010000 		.4byte	.LFE36
 4553 024f 0200     		.2byte	0x2
 4554 0251 7D       		.byte	0x7d
 4555 0252 08       		.sleb128 8
 4556 0253 00000000 		.4byte	0
 4557 0257 00000000 		.4byte	0
 4558              		.section	.debug_aranges,"",%progbits
 4559 0000 24000000 		.4byte	0x24
 4560 0004 0200     		.2byte	0x2
 4561 0006 00000000 		.4byte	.Ldebug_info0
 4562 000a 04       		.byte	0x4
 4563 000b 00       		.byte	0
 4564 000c 0000     		.2byte	0
 4565 000e 0000     		.2byte	0
 4566 0010 00000000 		.4byte	.Ltext0
 4567 0014 20030000 		.4byte	.Letext0-.Ltext0
 4568 0018 00000000 		.4byte	.LFB45
 4569 001c 64000000 		.4byte	.LFE45-.LFB45
 4570 0020 00000000 		.4byte	0
 4571 0024 00000000 		.4byte	0
 4572              		.section	.debug_ranges,"",%progbits
 4573              	.Ldebug_ranges0:
 4574 0000 00000000 		.4byte	.Ltext0
 4575 0004 20030000 		.4byte	.Letext0
 4576 0008 00000000 		.4byte	.LFB45
 4577 000c 64000000 		.4byte	.LFE45
 4578 0010 00000000 		.4byte	0
 4579 0014 00000000 		.4byte	0
 4580              		.section	.debug_line,"",%progbits
 4581              	.Ldebug_line0:
 4582 0000 AF060000 		.section	.debug_str,"MS",%progbits,1
ARM GAS  /tmp/ccbw8mZO.s 			page 88


 4582      03001702 
 4582      00000201 
 4582      FB0E0D00 
 4582      01010101 
 4583              	.LASF178:
 4584 0000 70756342 		.ascii	"pucBuffer\000"
 4584      75666665 
 4584      7200
 4585              	.LASF77:
 4586 000a 49435052 		.ascii	"ICPR\000"
 4586      00
 4587              	.LASF108:
 4588 000f 4C434B52 		.ascii	"LCKR\000"
 4588      00
 4589              	.LASF160:
 4590 0014 4750494F 		.ascii	"GPIO_Mode_AF_PP\000"
 4590      5F4D6F64 
 4590      655F4146 
 4590      5F505000 
 4591              	.LASF28:
 4592 0024 5056445F 		.ascii	"PVD_IRQn\000"
 4592      4952516E 
 4592      00
 4593              	.LASF122:
 4594 002d 44494552 		.ascii	"DIER\000"
 4594      00
 4595              	.LASF180:
 4596 0032 55534152 		.ascii	"USART_init\000"
 4596      545F696E 
 4596      697400
 4597              	.LASF48:
 4598 003d 43414E31 		.ascii	"CAN1_RX1_IRQn\000"
 4598      5F525831 
 4598      5F495251 
 4598      6E00
 4599              	.LASF201:
 4600 004b 5243435F 		.ascii	"RCC_APB2PeriphClockCmd\000"
 4600      41504232 
 4600      50657269 
 4600      7068436C 
 4600      6F636B43 
 4601              	.LASF6:
 4602 0062 5F5F7569 		.ascii	"__uint8_t\000"
 4602      6E74385F 
 4602      7400
 4603              	.LASF149:
 4604 006c 4750494F 		.ascii	"GPIO_Speed_10MHz\000"
 4604      5F537065 
 4604      65645F31 
 4604      304D487A 
 4604      00
 4605              	.LASF146:
 4606 007d 54494D5F 		.ascii	"TIM_TypeDef\000"
 4606      54797065 
 4606      44656600 
 4607              	.LASF85:
 4608 0089 44495341 		.ascii	"DISABLE\000"
ARM GAS  /tmp/ccbw8mZO.s 			page 89


 4608      424C4500 
 4609              	.LASF30:
 4610 0091 5254435F 		.ascii	"RTC_IRQn\000"
 4610      4952516E 
 4610      00
 4611              	.LASF179:
 4612 009a 55534152 		.ascii	"USARTSend\000"
 4612      5453656E 
 4612      6400
 4613              	.LASF135:
 4614 00a4 43435232 		.ascii	"CCR2\000"
 4614      00
 4615              	.LASF196:
 4616 00a9 64697370 		.ascii	"disp_cmd\000"
 4616      5F636D64 
 4616      00
 4617              	.LASF163:
 4618 00b2 4750494F 		.ascii	"GPIO_Speed\000"
 4618      5F537065 
 4618      656400
 4619              	.LASF61:
 4620 00bd 49324332 		.ascii	"I2C2_ER_IRQn\000"
 4620      5F45525F 
 4620      4952516E 
 4620      00
 4621              	.LASF57:
 4622 00ca 54494D34 		.ascii	"TIM4_IRQn\000"
 4622      5F495251 
 4622      6E00
 4623              	.LASF18:
 4624 00d4 51756575 		.ascii	"QueueHandle_t\000"
 4624      6548616E 
 4624      646C655F 
 4624      7400
 4625              	.LASF35:
 4626 00e2 45585449 		.ascii	"EXTI2_IRQn\000"
 4626      325F4952 
 4626      516E00
 4627              	.LASF27:
 4628 00ed 57574447 		.ascii	"WWDG_IRQn\000"
 4628      5F495251 
 4628      6E00
 4629              	.LASF75:
 4630 00f7 49535052 		.ascii	"ISPR\000"
 4630      00
 4631              	.LASF193:
 4632 00fc 69746F61 		.ascii	"itoa\000"
 4632      00
 4633              	.LASF96:
 4634 0101 4A535152 		.ascii	"JSQR\000"
 4634      00
 4635              	.LASF123:
 4636 0106 43434D52 		.ascii	"CCMR1\000"
 4636      3100
 4637              	.LASF125:
 4638 010c 43434D52 		.ascii	"CCMR2\000"
 4638      3200
ARM GAS  /tmp/ccbw8mZO.s 			page 90


 4639              	.LASF1:
 4640 0112 6C6F6E67 		.ascii	"long long int\000"
 4640      206C6F6E 
 4640      6720696E 
 4640      7400
 4641              	.LASF3:
 4642 0120 7369676E 		.ascii	"signed char\000"
 4642      65642063 
 4642      68617200 
 4643              	.LASF200:
 4644 012c 55534152 		.ascii	"USART_GetFlagStatus\000"
 4644      545F4765 
 4644      74466C61 
 4644      67537461 
 4644      74757300 
 4645              	.LASF169:
 4646 0140 55534152 		.ascii	"USART_Parity\000"
 4646      545F5061 
 4646      72697479 
 4646      00
 4647              	.LASF33:
 4648 014d 45585449 		.ascii	"EXTI0_IRQn\000"
 4648      305F4952 
 4648      516E00
 4649              	.LASF147:
 4650 0158 47545052 		.ascii	"GTPR\000"
 4650      00
 4651              	.LASF197:
 4652 015d 64697370 		.ascii	"disp_text\000"
 4652      5F746578 
 4652      7400
 4653              	.LASF194:
 4654 0167 76546173 		.ascii	"vTaskDelay\000"
 4654      6B44656C 
 4654      617900
 4655              	.LASF12:
 4656 0172 6C6F6E67 		.ascii	"long long unsigned int\000"
 4656      206C6F6E 
 4656      6720756E 
 4656      7369676E 
 4656      65642069 
 4657              	.LASF112:
 4658 0189 41504231 		.ascii	"APB1RSTR\000"
 4658      52535452 
 4658      00
 4659              	.LASF130:
 4660 0192 52455345 		.ascii	"RESERVED10\000"
 4660      52564544 
 4660      313000
 4661              	.LASF131:
 4662 019d 52455345 		.ascii	"RESERVED11\000"
 4662      52564544 
 4662      313100
 4663              	.LASF170:
 4664 01a8 55534152 		.ascii	"USART_Mode\000"
 4664      545F4D6F 
 4664      646500
ARM GAS  /tmp/ccbw8mZO.s 			page 91


 4665              	.LASF134:
 4666 01b3 52455345 		.ascii	"RESERVED13\000"
 4666      52564544 
 4666      313300
 4667              	.LASF136:
 4668 01be 52455345 		.ascii	"RESERVED14\000"
 4668      52564544 
 4668      313400
 4669              	.LASF156:
 4670 01c9 4750494F 		.ascii	"GPIO_Mode_IPU\000"
 4670      5F4D6F64 
 4670      655F4950 
 4670      5500
 4671              	.LASF140:
 4672 01d7 52455345 		.ascii	"RESERVED16\000"
 4672      52564544 
 4672      313600
 4673              	.LASF142:
 4674 01e2 52455345 		.ascii	"RESERVED17\000"
 4674      52564544 
 4674      313700
 4675              	.LASF166:
 4676 01ed 55534152 		.ascii	"USART_BaudRate\000"
 4676      545F4261 
 4676      75645261 
 4676      746500
 4677              	.LASF145:
 4678 01fc 52455345 		.ascii	"RESERVED19\000"
 4678      52564544 
 4678      313900
 4679              	.LASF9:
 4680 0207 6C6F6E67 		.ascii	"long int\000"
 4680      20696E74 
 4680      00
 4681              	.LASF86:
 4682 0210 454E4142 		.ascii	"ENABLE\000"
 4682      4C4500
 4683              	.LASF111:
 4684 0217 41504232 		.ascii	"APB2RSTR\000"
 4684      52535452 
 4684      00
 4685              	.LASF177:
 4686 0220 636F6E74 		.ascii	"cont\000"
 4686      00
 4687              	.LASF50:
 4688 0225 45585449 		.ascii	"EXTI9_5_IRQn\000"
 4688      395F355F 
 4688      4952516E 
 4688      00
 4689              	.LASF127:
 4690 0232 43434552 		.ascii	"CCER\000"
 4690      00
 4691              	.LASF71:
 4692 0237 49534552 		.ascii	"ISER\000"
 4692      00
 4693              	.LASF154:
 4694 023c 4750494F 		.ascii	"GPIO_Mode_IN_FLOATING\000"
ARM GAS  /tmp/ccbw8mZO.s 			page 92


 4694      5F4D6F64 
 4694      655F494E 
 4694      5F464C4F 
 4694      4154494E 
 4695              	.LASF103:
 4696 0252 4F50544B 		.ascii	"OPTKEYR\000"
 4696      45595200 
 4697              	.LASF14:
 4698 025a 75696E74 		.ascii	"uint16_t\000"
 4698      31365F74 
 4698      00
 4699              	.LASF101:
 4700 0263 4144435F 		.ascii	"ADC_TypeDef\000"
 4700      54797065 
 4700      44656600 
 4701              	.LASF36:
 4702 026f 45585449 		.ascii	"EXTI3_IRQn\000"
 4702      335F4952 
 4702      516E00
 4703              	.LASF45:
 4704 027a 41444331 		.ascii	"ADC1_2_IRQn\000"
 4704      5F325F49 
 4704      52516E00 
 4705              	.LASF164:
 4706 0286 4750494F 		.ascii	"GPIO_Mode\000"
 4706      5F4D6F64 
 4706      6500
 4707              	.LASF138:
 4708 0290 52455345 		.ascii	"RESERVED15\000"
 4708      52564544 
 4708      313500
 4709              	.LASF171:
 4710 029b 55534152 		.ascii	"USART_HardwareFlowControl\000"
 4710      545F4861 
 4710      72647761 
 4710      7265466C 
 4710      6F77436F 
 4711              	.LASF25:
 4712 02b5 50656E64 		.ascii	"PendSV_IRQn\000"
 4712      53565F49 
 4712      52516E00 
 4713              	.LASF8:
 4714 02c1 73686F72 		.ascii	"short unsigned int\000"
 4714      7420756E 
 4714      7369676E 
 4714      65642069 
 4714      6E7400
 4715              	.LASF41:
 4716 02d4 444D4131 		.ascii	"DMA1_Channel4_IRQn\000"
 4716      5F436861 
 4716      6E6E656C 
 4716      345F4952 
 4716      516E00
 4717              	.LASF7:
 4718 02e7 5F5F7569 		.ascii	"__uint16_t\000"
 4718      6E743136 
 4718      5F7400
ARM GAS  /tmp/ccbw8mZO.s 			page 93


 4719              	.LASF10:
 4720 02f2 5F5F7569 		.ascii	"__uint32_t\000"
 4720      6E743332 
 4720      5F7400
 4721              	.LASF188:
 4722 02fd 656E6162 		.ascii	"enable_TIM3_delay\000"
 4722      6C655F54 
 4722      494D335F 
 4722      64656C61 
 4722      7900
 4723              	.LASF168:
 4724 030f 55534152 		.ascii	"USART_StopBits\000"
 4724      545F5374 
 4724      6F704269 
 4724      747300
 4725              	.LASF192:
 4726 031e 76546173 		.ascii	"vTaskStartScheduler\000"
 4726      6B537461 
 4726      72745363 
 4726      68656475 
 4726      6C657200 
 4727              	.LASF102:
 4728 0332 4B455952 		.ascii	"KEYR\000"
 4728      00
 4729              	.LASF190:
 4730 0337 78517565 		.ascii	"xQueueGenericCreate\000"
 4730      75654765 
 4730      6E657269 
 4730      63437265 
 4730      61746500 
 4731              	.LASF152:
 4732 034b 4750494F 		.ascii	"GPIOSpeed_TypeDef\000"
 4732      53706565 
 4732      645F5479 
 4732      70654465 
 4732      6600
 4733              	.LASF162:
 4734 035d 4750494F 		.ascii	"GPIO_Pin\000"
 4734      5F50696E 
 4734      00
 4735              	.LASF0:
 4736 0366 756E7369 		.ascii	"unsigned int\000"
 4736      676E6564 
 4736      20696E74 
 4736      00
 4737              	.LASF155:
 4738 0373 4750494F 		.ascii	"GPIO_Mode_IPD\000"
 4738      5F4D6F64 
 4738      655F4950 
 4738      4400
 4739              	.LASF20:
 4740 0381 4D656D6F 		.ascii	"MemoryManagement_IRQn\000"
 4740      72794D61 
 4740      6E616765 
 4740      6D656E74 
 4740      5F495251 
 4741              	.LASF11:
ARM GAS  /tmp/ccbw8mZO.s 			page 94


 4742 0397 6C6F6E67 		.ascii	"long unsigned int\000"
 4742      20756E73 
 4742      69676E65 
 4742      6420696E 
 4742      7400
 4743              	.LASF109:
 4744 03a9 4750494F 		.ascii	"GPIO_TypeDef\000"
 4744      5F547970 
 4744      65446566 
 4744      00
 4745              	.LASF119:
 4746 03b6 5243435F 		.ascii	"RCC_TypeDef\000"
 4746      54797065 
 4746      44656600 
 4747              	.LASF176:
 4748 03c2 7461736B 		.ascii	"task1\000"
 4748      3100
 4749              	.LASF174:
 4750 03c8 7461736B 		.ascii	"task2\000"
 4750      3200
 4751              	.LASF173:
 4752 03ce 7461736B 		.ascii	"task3\000"
 4752      3300
 4753              	.LASF159:
 4754 03d4 4750494F 		.ascii	"GPIO_Mode_AF_OD\000"
 4754      5F4D6F64 
 4754      655F4146 
 4754      5F4F4400 
 4755              	.LASF42:
 4756 03e4 444D4131 		.ascii	"DMA1_Channel5_IRQn\000"
 4756      5F436861 
 4756      6E6E656C 
 4756      355F4952 
 4756      516E00
 4757              	.LASF121:
 4758 03f7 534D4352 		.ascii	"SMCR\000"
 4758      00
 4759              	.LASF53:
 4760 03fc 54494D31 		.ascii	"TIM1_TRG_COM_IRQn\000"
 4760      5F545247 
 4760      5F434F4D 
 4760      5F495251 
 4760      6E00
 4761              	.LASF64:
 4762 040e 55534152 		.ascii	"USART1_IRQn\000"
 4762      54315F49 
 4762      52516E00 
 4763              	.LASF157:
 4764 041a 4750494F 		.ascii	"GPIO_Mode_Out_OD\000"
 4764      5F4D6F64 
 4764      655F4F75 
 4764      745F4F44 
 4764      00
 4765              	.LASF113:
 4766 042b 41484245 		.ascii	"AHBENR\000"
 4766      4E5200
 4767              	.LASF67:
ARM GAS  /tmp/ccbw8mZO.s 			page 95


 4768 0432 45585449 		.ascii	"EXTI15_10_IRQn\000"
 4768      31355F31 
 4768      305F4952 
 4768      516E00
 4769              	.LASF205:
 4770 0441 474E5520 		.ascii	"GNU C17 10.3.1 20210824 (release) -mcpu=cortex-m3 -"
 4770      43313720 
 4770      31302E33 
 4770      2E312032 
 4770      30323130 
 4771 0474 6D746875 		.ascii	"mthumb -mfloat-abi=soft -march=armv7-m -g -gdwarf-2"
 4771      6D62202D 
 4771      6D666C6F 
 4771      61742D61 
 4771      62693D73 
 4772 04a7 202D4F73 		.ascii	" -Os -fomit-frame-pointer\000"
 4772      202D666F 
 4772      6D69742D 
 4772      6672616D 
 4772      652D706F 
 4773              	.LASF62:
 4774 04c1 53504931 		.ascii	"SPI1_IRQn\000"
 4774      5F495251 
 4774      6E00
 4775              	.LASF148:
 4776 04cb 55534152 		.ascii	"USART_TypeDef\000"
 4776      545F5479 
 4776      70654465 
 4776      6600
 4777              	.LASF24:
 4778 04d9 44656275 		.ascii	"DebugMonitor_IRQn\000"
 4778      674D6F6E 
 4778      69746F72 
 4778      5F495251 
 4778      6E00
 4779              	.LASF5:
 4780 04eb 73686F72 		.ascii	"short int\000"
 4780      7420696E 
 4780      7400
 4781              	.LASF73:
 4782 04f5 49434552 		.ascii	"ICER\000"
 4782      00
 4783              	.LASF26:
 4784 04fa 53797354 		.ascii	"SysTick_IRQn\000"
 4784      69636B5F 
 4784      4952516E 
 4784      00
 4785              	.LASF54:
 4786 0507 54494D31 		.ascii	"TIM1_CC_IRQn\000"
 4786      5F43435F 
 4786      4952516E 
 4786      00
 4787              	.LASF172:
 4788 0514 55534152 		.ascii	"USART_InitTypeDef\000"
 4788      545F496E 
 4788      69745479 
 4788      70654465 
ARM GAS  /tmp/ccbw8mZO.s 			page 96


 4788      6600
 4789              	.LASF84:
 4790 0526 52455345 		.ascii	"RESET\000"
 4790      5400
 4791              	.LASF185:
 4792 052c 4952516E 		.ascii	"IRQn\000"
 4792      00
 4793              	.LASF203:
 4794 0531 55534152 		.ascii	"USART_Init\000"
 4794      545F496E 
 4794      697400
 4795              	.LASF90:
 4796 053c 4A4F4652 		.ascii	"JOFR2\000"
 4796      3200
 4797              	.LASF91:
 4798 0542 4A4F4652 		.ascii	"JOFR3\000"
 4798      3300
 4799              	.LASF92:
 4800 0548 4A4F4652 		.ascii	"JOFR4\000"
 4800      3400
 4801              	.LASF39:
 4802 054e 444D4131 		.ascii	"DMA1_Channel2_IRQn\000"
 4802      5F436861 
 4802      6E6E656C 
 4802      325F4952 
 4802      516E00
 4803              	.LASF207:
 4804 0561 2F686F6D 		.ascii	"/home/junior/Codigos/6-Stm32_GCC_FreeRTOS10.2.1/3-C"
 4804      652F6A75 
 4804      6E696F72 
 4804      2F436F64 
 4804      69676F73 
 4805 0594 6F6D5072 		.ascii	"omProcessos\000"
 4805      6F636573 
 4805      736F7300 
 4806              	.LASF23:
 4807 05a0 53564361 		.ascii	"SVCall_IRQn\000"
 4807      6C6C5F49 
 4807      52516E00 
 4808              	.LASF60:
 4809 05ac 49324332 		.ascii	"I2C2_EV_IRQn\000"
 4809      5F45565F 
 4809      4952516E 
 4809      00
 4810              	.LASF191:
 4811 05b9 78546173 		.ascii	"xTaskCreate\000"
 4811      6B437265 
 4811      61746500 
 4812              	.LASF79:
 4813 05c5 49414252 		.ascii	"IABR\000"
 4813      00
 4814              	.LASF16:
 4815 05ca 5469636B 		.ascii	"TickType_t\000"
 4815      54797065 
 4815      5F7400
 4816              	.LASF187:
 4817 05d5 44656C61 		.ascii	"Delay\000"
ARM GAS  /tmp/ccbw8mZO.s 			page 97


 4817      7900
 4818              	.LASF63:
 4819 05db 53504932 		.ascii	"SPI2_IRQn\000"
 4819      5F495251 
 4819      6E00
 4820              	.LASF132:
 4821 05e5 52455345 		.ascii	"RESERVED12\000"
 4821      52564544 
 4821      313200
 4822              	.LASF186:
 4823 05f0 656E6162 		.ascii	"enable_interrupt\000"
 4823      6C655F69 
 4823      6E746572 
 4823      72757074 
 4823      00
 4824              	.LASF182:
 4825 0601 4750494F 		.ascii	"GPIO_InitStructure\000"
 4825      5F496E69 
 4825      74537472 
 4825      75637475 
 4825      726500
 4826              	.LASF165:
 4827 0614 4750494F 		.ascii	"GPIO_InitTypeDef\000"
 4827      5F496E69 
 4827      74547970 
 4827      65446566 
 4827      00
 4828              	.LASF87:
 4829 0625 534D5052 		.ascii	"SMPR1\000"
 4829      3100
 4830              	.LASF88:
 4831 062b 534D5052 		.ascii	"SMPR2\000"
 4831      3200
 4832              	.LASF158:
 4833 0631 4750494F 		.ascii	"GPIO_Mode_Out_PP\000"
 4833      5F4D6F64 
 4833      655F4F75 
 4833      745F5050 
 4833      00
 4834              	.LASF117:
 4835 0642 41484252 		.ascii	"AHBRSTR\000"
 4835      53545200 
 4836              	.LASF151:
 4837 064a 4750494F 		.ascii	"GPIO_Speed_50MHz\000"
 4837      5F537065 
 4837      65645F35 
 4837      304D487A 
 4837      00
 4838              	.LASF206:
 4839 065b 2E2E2F33 		.ascii	"../3-ComProcessos/main.c\000"
 4839      2D436F6D 
 4839      50726F63 
 4839      6573736F 
 4839      732F6D61 
 4840              	.LASF93:
 4841 0674 53515231 		.ascii	"SQR1\000"
 4841      00
ARM GAS  /tmp/ccbw8mZO.s 			page 98


 4842              	.LASF94:
 4843 0679 53515232 		.ascii	"SQR2\000"
 4843      00
 4844              	.LASF95:
 4845 067e 53515233 		.ascii	"SQR3\000"
 4845      00
 4846              	.LASF38:
 4847 0683 444D4131 		.ascii	"DMA1_Channel1_IRQn\000"
 4847      5F436861 
 4847      6E6E656C 
 4847      315F4952 
 4847      516E00
 4848              	.LASF72:
 4849 0696 52455345 		.ascii	"RESERVED0\000"
 4849      52564544 
 4849      3000
 4850              	.LASF120:
 4851 06a0 52455345 		.ascii	"RESERVED1\000"
 4851      52564544 
 4851      3100
 4852              	.LASF76:
 4853 06aa 52455345 		.ascii	"RESERVED2\000"
 4853      52564544 
 4853      3200
 4854              	.LASF78:
 4855 06b4 52455345 		.ascii	"RESERVED3\000"
 4855      52564544 
 4855      3300
 4856              	.LASF80:
 4857 06be 52455345 		.ascii	"RESERVED4\000"
 4857      52564544 
 4857      3400
 4858              	.LASF81:
 4859 06c8 52455345 		.ascii	"RESERVED5\000"
 4859      52564544 
 4859      3500
 4860              	.LASF124:
 4861 06d2 52455345 		.ascii	"RESERVED6\000"
 4861      52564544 
 4861      3600
 4862              	.LASF128:
 4863 06dc 52455345 		.ascii	"RESERVED8\000"
 4863      52564544 
 4863      3800
 4864              	.LASF129:
 4865 06e6 52455345 		.ascii	"RESERVED9\000"
 4865      52564544 
 4865      3900
 4866              	.LASF208:
 4867 06f0 51756575 		.ascii	"QueueDefinition\000"
 4867      65446566 
 4867      696E6974 
 4867      696F6E00 
 4868              	.LASF189:
 4869 0700 7365745F 		.ascii	"set_system_clock_to_72Mhz\000"
 4869      73797374 
 4869      656D5F63 
ARM GAS  /tmp/ccbw8mZO.s 			page 99


 4869      6C6F636B 
 4869      5F746F5F 
 4870              	.LASF183:
 4871 071a 55534152 		.ascii	"USART_InitStructure\000"
 4871      545F496E 
 4871      69745374 
 4871      72756374 
 4871      75726500 
 4872              	.LASF4:
 4873 072e 756E7369 		.ascii	"unsigned char\000"
 4873      676E6564 
 4873      20636861 
 4873      7200
 4874              	.LASF46:
 4875 073c 5553425F 		.ascii	"USB_HP_CAN1_TX_IRQn\000"
 4875      48505F43 
 4875      414E315F 
 4875      54585F49 
 4875      52516E00 
 4876              	.LASF37:
 4877 0750 45585449 		.ascii	"EXTI4_IRQn\000"
 4877      345F4952 
 4877      516E00
 4878              	.LASF150:
 4879 075b 4750494F 		.ascii	"GPIO_Speed_2MHz\000"
 4879      5F537065 
 4879      65645F32 
 4879      4D487A00 
 4880              	.LASF181:
 4881 076b 696E666F 		.ascii	"info\000"
 4881      00
 4882              	.LASF83:
 4883 0770 4E564943 		.ascii	"NVIC_Type\000"
 4883      5F547970 
 4883      6500
 4884              	.LASF141:
 4885 077a 42445452 		.ascii	"BDTR\000"
 4885      00
 4886              	.LASF104:
 4887 077f 52455345 		.ascii	"RESERVED\000"
 4887      52564544 
 4887      00
 4888              	.LASF47:
 4889 0788 5553425F 		.ascii	"USB_LP_CAN1_RX0_IRQn\000"
 4889      4C505F43 
 4889      414E315F 
 4889      5258305F 
 4889      4952516E 
 4890              	.LASF153:
 4891 079d 4750494F 		.ascii	"GPIO_Mode_AIN\000"
 4891      5F4D6F64 
 4891      655F4149 
 4891      4E00
 4892              	.LASF211:
 4893 07ab 41444331 		.ascii	"ADC1_configure\000"
 4893      5F636F6E 
 4893      66696775 
ARM GAS  /tmp/ccbw8mZO.s 			page 100


 4893      726500
 4894              	.LASF114:
 4895 07ba 41504232 		.ascii	"APB2ENR\000"
 4895      454E5200 
 4896              	.LASF31:
 4897 07c2 464C4153 		.ascii	"FLASH_IRQn\000"
 4897      485F4952 
 4897      516E00
 4898              	.LASF184:
 4899 07cd 64697361 		.ascii	"disable_interrupt\000"
 4899      626C655F 
 4899      696E7465 
 4899      72727570 
 4899      7400
 4900              	.LASF70:
 4901 07df 4952516E 		.ascii	"IRQn_Type\000"
 4901      5F547970 
 4901      6500
 4902              	.LASF15:
 4903 07e9 75696E74 		.ascii	"uint32_t\000"
 4903      33325F74 
 4903      00
 4904              	.LASF126:
 4905 07f2 52455345 		.ascii	"RESERVED7\000"
 4905      52564544 
 4905      3700
 4906              	.LASF65:
 4907 07fc 55534152 		.ascii	"USART2_IRQn\000"
 4907      54325F49 
 4907      52516E00 
 4908              	.LASF22:
 4909 0808 55736167 		.ascii	"UsageFault_IRQn\000"
 4909      65466175 
 4909      6C745F49 
 4909      52516E00 
 4910              	.LASF58:
 4911 0818 49324331 		.ascii	"I2C1_EV_IRQn\000"
 4911      5F45565F 
 4911      4952516E 
 4911      00
 4912              	.LASF2:
 4913 0825 6C6F6E67 		.ascii	"long double\000"
 4913      20646F75 
 4913      626C6500 
 4914              	.LASF105:
 4915 0831 57525052 		.ascii	"WRPR\000"
 4915      00
 4916              	.LASF40:
 4917 0836 444D4131 		.ascii	"DMA1_Channel3_IRQn\000"
 4917      5F436861 
 4917      6E6E656C 
 4917      335F4952 
 4917      516E00
 4918              	.LASF17:
 4919 0849 63686172 		.ascii	"char\000"
 4919      00
 4920              	.LASF21:
ARM GAS  /tmp/ccbw8mZO.s 			page 101


 4921 084e 42757346 		.ascii	"BusFault_IRQn\000"
 4921      61756C74 
 4921      5F495251 
 4921      6E00
 4922              	.LASF51:
 4923 085c 54494D31 		.ascii	"TIM1_BRK_IRQn\000"
 4923      5F42524B 
 4923      5F495251 
 4923      6E00
 4924              	.LASF144:
 4925 086a 444D4152 		.ascii	"DMAR\000"
 4925      00
 4926              	.LASF68:
 4927 086f 52544341 		.ascii	"RTCAlarm_IRQn\000"
 4927      6C61726D 
 4927      5F495251 
 4927      6E00
 4928              	.LASF204:
 4929 087d 55534152 		.ascii	"USART_Cmd\000"
 4929      545F436D 
 4929      6400
 4930              	.LASF167:
 4931 0887 55534152 		.ascii	"USART_WordLength\000"
 4931      545F576F 
 4931      72644C65 
 4931      6E677468 
 4931      00
 4932              	.LASF199:
 4933 0898 55534152 		.ascii	"USART_SendData\000"
 4933      545F5365 
 4933      6E644461 
 4933      746100
 4934              	.LASF198:
 4935 08a7 64697370 		.ascii	"disp_number\000"
 4935      5F6E756D 
 4935      62657200 
 4936              	.LASF19:
 4937 08b3 4E6F6E4D 		.ascii	"NonMaskableInt_IRQn\000"
 4937      61736B61 
 4937      626C6549 
 4937      6E745F49 
 4937      52516E00 
 4938              	.LASF43:
 4939 08c7 444D4131 		.ascii	"DMA1_Channel6_IRQn\000"
 4939      5F436861 
 4939      6E6E656C 
 4939      365F4952 
 4939      516E00
 4940              	.LASF115:
 4941 08da 41504231 		.ascii	"APB1ENR\000"
 4941      454E5200 
 4942              	.LASF29:
 4943 08e2 54414D50 		.ascii	"TAMPER_IRQn\000"
 4943      45525F49 
 4943      52516E00 
 4944              	.LASF52:
 4945 08ee 54494D31 		.ascii	"TIM1_UP_IRQn\000"
ARM GAS  /tmp/ccbw8mZO.s 			page 102


 4945      5F55505F 
 4945      4952516E 
 4945      00
 4946              	.LASF69:
 4947 08fb 55534257 		.ascii	"USBWakeUp_IRQn\000"
 4947      616B6555 
 4947      705F4952 
 4947      516E00
 4948              	.LASF195:
 4949 090a 64697370 		.ascii	"disp_init\000"
 4949      5F696E69 
 4949      7400
 4950              	.LASF66:
 4951 0914 55534152 		.ascii	"USART3_IRQn\000"
 4951      54335F49 
 4951      52516E00 
 4952              	.LASF133:
 4953 0920 43435231 		.ascii	"CCR1\000"
 4953      00
 4954              	.LASF55:
 4955 0925 54494D32 		.ascii	"TIM2_IRQn\000"
 4955      5F495251 
 4955      6E00
 4956              	.LASF137:
 4957 092f 43435233 		.ascii	"CCR3\000"
 4957      00
 4958              	.LASF139:
 4959 0934 43435234 		.ascii	"CCR4\000"
 4959      00
 4960              	.LASF107:
 4961 0939 42535252 		.ascii	"BSRR\000"
 4961      00
 4962              	.LASF209:
 4963 093e 78517565 		.ascii	"xQueue\000"
 4963      756500
 4964              	.LASF143:
 4965 0945 52455345 		.ascii	"RESERVED18\000"
 4965      52564544 
 4965      313800
 4966              	.LASF116:
 4967 0950 42444352 		.ascii	"BDCR\000"
 4967      00
 4968              	.LASF89:
 4969 0955 4A4F4652 		.ascii	"JOFR1\000"
 4969      3100
 4970              	.LASF118:
 4971 095b 43464752 		.ascii	"CFGR2\000"
 4971      3200
 4972              	.LASF13:
 4973 0961 75696E74 		.ascii	"uint8_t\000"
 4973      385F7400 
 4974              	.LASF202:
 4975 0969 4750494F 		.ascii	"GPIO_Init\000"
 4975      5F496E69 
 4975      7400
 4976              	.LASF74:
 4977 0973 52534552 		.ascii	"RSERVED1\000"
ARM GAS  /tmp/ccbw8mZO.s 			page 103


 4977      56454431 
 4977      00
 4978              	.LASF82:
 4979 097c 53544952 		.ascii	"STIR\000"
 4979      00
 4980              	.LASF97:
 4981 0981 4A445231 		.ascii	"JDR1\000"
 4981      00
 4982              	.LASF98:
 4983 0986 4A445232 		.ascii	"JDR2\000"
 4983      00
 4984              	.LASF99:
 4985 098b 4A445233 		.ascii	"JDR3\000"
 4985      00
 4986              	.LASF100:
 4987 0990 4A445234 		.ascii	"JDR4\000"
 4987      00
 4988              	.LASF44:
 4989 0995 444D4131 		.ascii	"DMA1_Channel7_IRQn\000"
 4989      5F436861 
 4989      6E6E656C 
 4989      375F4952 
 4989      516E00
 4990              	.LASF110:
 4991 09a8 43464752 		.ascii	"CFGR\000"
 4991      00
 4992              	.LASF161:
 4993 09ad 4750494F 		.ascii	"GPIOMode_TypeDef\000"
 4993      4D6F6465 
 4993      5F547970 
 4993      65446566 
 4993      00
 4994              	.LASF59:
 4995 09be 49324331 		.ascii	"I2C1_ER_IRQn\000"
 4995      5F45525F 
 4995      4952516E 
 4995      00
 4996              	.LASF106:
 4997 09cb 464C4153 		.ascii	"FLASH_TypeDef\000"
 4997      485F5479 
 4997      70654465 
 4997      6600
 4998              	.LASF175:
 4999 09d9 61726773 		.ascii	"args\000"
 4999      00
 5000              	.LASF210:
 5001 09de 6D61696E 		.ascii	"main\000"
 5001      00
 5002              	.LASF49:
 5003 09e3 43414E31 		.ascii	"CAN1_SCE_IRQn\000"
 5003      5F534345 
 5003      5F495251 
 5003      6E00
 5004              	.LASF32:
 5005 09f1 5243435F 		.ascii	"RCC_IRQn\000"
 5005      4952516E 
 5005      00
ARM GAS  /tmp/ccbw8mZO.s 			page 104


 5006              	.LASF56:
 5007 09fa 54494D33 		.ascii	"TIM3_IRQn\000"
 5007      5F495251 
 5007      6E00
 5008              	.LASF34:
 5009 0a04 45585449 		.ascii	"EXTI1_IRQn\000"
 5009      315F4952 
 5009      516E00
 5010              		.ident	"GCC: (GNU Arm Embedded Toolchain 10.3-2021.10) 10.3.1 20210824 (release)"
ARM GAS  /tmp/ccbw8mZO.s 			page 105


DEFINED SYMBOLS
                            *ABS*:0000000000000000 main.c
     /tmp/ccbw8mZO.s:77     .text:0000000000000000 $t
     /tmp/ccbw8mZO.s:82     .text:0000000000000000 task2
     /tmp/ccbw8mZO.s:140    .text:0000000000000028 $d
     /tmp/ccbw8mZO.s:151    .text:0000000000000030 $t
     /tmp/ccbw8mZO.s:156    .text:0000000000000030 task1
     /tmp/ccbw8mZO.s:274    .text:00000000000000b4 $d
     /tmp/ccbw8mZO.s:282    .text:00000000000000c8 $t
     /tmp/ccbw8mZO.s:288    .text:00000000000000c8 ADC1_configure
     /tmp/ccbw8mZO.s:416    .text:0000000000000148 $d
     /tmp/ccbw8mZO.s:422    .text:0000000000000154 $t
     /tmp/ccbw8mZO.s:428    .text:0000000000000154 set_system_clock_to_72Mhz
     /tmp/ccbw8mZO.s:536    .text:00000000000001c4 $d
     /tmp/ccbw8mZO.s:540    .text:00000000000001c8 $t
     /tmp/ccbw8mZO.s:546    .text:00000000000001c8 Delay
     /tmp/ccbw8mZO.s:617    .text:00000000000001f4 $d
     /tmp/ccbw8mZO.s:621    .text:00000000000001f8 $t
     /tmp/ccbw8mZO.s:627    .text:00000000000001f8 enable_TIM3_delay
     /tmp/ccbw8mZO.s:665    .text:000000000000021c $d
     /tmp/ccbw8mZO.s:669    .text:0000000000000220 $t
     /tmp/ccbw8mZO.s:675    .text:0000000000000220 enable_interrupt
     /tmp/ccbw8mZO.s:707    .text:0000000000000234 $d
     /tmp/ccbw8mZO.s:711    .text:0000000000000238 $t
     /tmp/ccbw8mZO.s:717    .text:0000000000000238 disable_interrupt
     /tmp/ccbw8mZO.s:750    .text:0000000000000250 $d
     /tmp/ccbw8mZO.s:754    .text:0000000000000254 $t
     /tmp/ccbw8mZO.s:760    .text:0000000000000254 USART_init
     /tmp/ccbw8mZO.s:873    .text:00000000000002c0 $d
     /tmp/ccbw8mZO.s:877    .text:00000000000002c4 $t
     /tmp/ccbw8mZO.s:883    .text:00000000000002c4 USARTSend
     /tmp/ccbw8mZO.s:942    .text:00000000000002e8 $d
     /tmp/ccbw8mZO.s:950    .text:00000000000002ec $t
     /tmp/ccbw8mZO.s:955    .text:00000000000002ec task3
     /tmp/ccbw8mZO.s:1020   .text:000000000000031c $d
     /tmp/ccbw8mZO.s:1032   .text.startup:0000000000000000 $t
     /tmp/ccbw8mZO.s:1038   .text.startup:0000000000000000 main
     /tmp/ccbw8mZO.s:1101   .text.startup:000000000000004c $d

UNDEFINED SYMBOLS
vTaskDelay
disp_init
disp_cmd
disp_text
disp_number
RCC_APB2PeriphClockCmd
GPIO_Init
USART_Init
USART_Cmd
USART_SendData
USART_GetFlagStatus
itoa
xQueueGenericCreate
xTaskCreate
vTaskStartScheduler
