ARM GAS  /tmp/ccb3qL8s.s 			page 1


   1              		.cpu cortex-m3
   2              		.arch armv7-m
   3              		.fpu softvfp
   4              		.eabi_attribute 20, 1	@ Tag_ABI_FP_denormal
   5              		.eabi_attribute 21, 1	@ Tag_ABI_FP_exceptions
   6              		.eabi_attribute 23, 3	@ Tag_ABI_FP_number_model
   7              		.eabi_attribute 24, 1	@ Tag_ABI_align8_needed
   8              		.eabi_attribute 25, 1	@ Tag_ABI_align8_preserved
   9              		.eabi_attribute 26, 1	@ Tag_ABI_enum_size
  10              		.eabi_attribute 30, 4	@ Tag_ABI_optimization_goals
  11              		.eabi_attribute 34, 1	@ Tag_CPU_unaligned_access
  12              		.eabi_attribute 18, 4	@ Tag_ABI_PCS_wchar_t
  13              		.file	"main.c"
  14              	@ GNU C17 (GNU Arm Embedded Toolchain 10.3-2021.10) version 10.3.1 20210824 (release) (arm-none-eab
  15              	@	compiled by GNU C version 4.8.4, GMP version 6.1.0, MPFR version 3.1.4, MPC version 1.0.3, isl ve
  16              	
  17              	@ GGC heuristics: --param ggc-min-expand=100 --param ggc-min-heapsize=131072
  18              	@ options passed:  -I . -I ../3-ComProcessos
  19              	@ -I ../stm32f10x_lib/CMSIS/CM3/CoreSupport
  20              	@ -I ../stm32f10x_lib/CMSIS/CM3/DeviceSupport/ST/STM32F10x
  21              	@ -I ../stm32f10x_lib/STM32F10x_StdPeriph_Driver/inc
  22              	@ -I ../stm32f10x_lib/STM32F10x_StdPeriph_Driver -I ../freertos/include
  23              	@ -I ../freertos/portable/GCC/ARM_CM3 -imultilib thumb/v7-m/nofp
  24              	@ -iprefix /usr/bin/../lib/gcc/arm-none-eabi/10.3.1/
  25              	@ -isysroot /usr/bin/../arm-none-eabi -D__USES_INITFINI__ -D STM32F10X_MD
  26              	@ -D USE_STDPERIPH_DRIVER -D HSE_VALUE=8000000 -D RUN_FROM_FLASH=1
  27              	@ ../3-ComProcessos/main.c -mcpu=cortex-m3 -mthumb -mfloat-abi=soft
  28              	@ -mlibarch=armv7-m -march=armv7-m -auxbase-strip ../3-ComProcessos/main.o
  29              	@ -g -gdwarf-2 -Os -Wall -fomit-frame-pointer -fverbose-asm
  30              	@ options enabled:  -faggressive-loop-optimizations -fallocation-dce
  31              	@ -fauto-inc-dec -fbranch-count-reg -fcaller-saves -fcode-hoisting
  32              	@ -fcombine-stack-adjustments -fcompare-elim -fcprop-registers
  33              	@ -fcrossjumping -fcse-follow-jumps -fdefer-pop
  34              	@ -fdelete-null-pointer-checks -fdevirtualize -fdevirtualize-speculatively
  35              	@ -fdwarf2-cfi-asm -fearly-inlining -feliminate-unused-debug-symbols
  36              	@ -feliminate-unused-debug-types -fexpensive-optimizations
  37              	@ -fforward-propagate -ffp-int-builtin-inexact -ffunction-cse -fgcse
  38              	@ -fgcse-lm -fgnu-unique -fguess-branch-probability -fhoist-adjacent-loads
  39              	@ -fident -fif-conversion -fif-conversion2 -findirect-inlining -finline
  40              	@ -finline-atomics -finline-functions -finline-functions-called-once
  41              	@ -finline-small-functions -fipa-bit-cp -fipa-cp -fipa-icf
  42              	@ -fipa-icf-functions -fipa-icf-variables -fipa-profile -fipa-pure-const
  43              	@ -fipa-ra -fipa-reference -fipa-reference-addressable -fipa-sra
  44              	@ -fipa-stack-alignment -fipa-vrp -fira-hoist-pressure
  45              	@ -fira-share-save-slots -fira-share-spill-slots
  46              	@ -fisolate-erroneous-paths-dereference -fivopts -fkeep-static-consts
  47              	@ -fleading-underscore -flifetime-dse -flra-remat -fmath-errno
  48              	@ -fmerge-constants -fmerge-debug-strings -fmove-loop-invariants
  49              	@ -fomit-frame-pointer -foptimize-sibling-calls -fpartial-inlining
  50              	@ -fpeephole -fpeephole2 -fplt -fprefetch-loop-arrays -freg-struct-return
  51              	@ -freorder-blocks -freorder-functions -frerun-cse-after-loop
  52              	@ -fsched-critical-path-heuristic -fsched-dep-count-heuristic
  53              	@ -fsched-group-heuristic -fsched-interblock -fsched-last-insn-heuristic
  54              	@ -fsched-pressure -fsched-rank-heuristic -fsched-spec
  55              	@ -fsched-spec-insn-heuristic -fsched-stalled-insns-dep -fschedule-insns2
  56              	@ -fsection-anchors -fsemantic-interposition -fshow-column
  57              	@ -fshrink-wrap-separate -fsigned-zeros -fsplit-ivs-in-unroller
ARM GAS  /tmp/ccb3qL8s.s 			page 2


  58              	@ -fsplit-wide-types -fssa-backprop -fssa-phiopt -fstdarg-opt
  59              	@ -fstore-merging -fstrict-aliasing -fstrict-volatile-bitfields
  60              	@ -fsync-libcalls -fthread-jumps -ftoplevel-reorder -ftrapping-math
  61              	@ -ftree-bit-ccp -ftree-builtin-call-dce -ftree-ccp -ftree-ch
  62              	@ -ftree-coalesce-vars -ftree-copy-prop -ftree-cselim -ftree-dce
  63              	@ -ftree-dominator-opts -ftree-dse -ftree-forwprop -ftree-fre
  64              	@ -ftree-loop-distribute-patterns -ftree-loop-if-convert -ftree-loop-im
  65              	@ -ftree-loop-ivcanon -ftree-loop-optimize -ftree-parallelize-loops=
  66              	@ -ftree-phiprop -ftree-pre -ftree-pta -ftree-reassoc -ftree-scev-cprop
  67              	@ -ftree-sink -ftree-slsr -ftree-sra -ftree-switch-conversion
  68              	@ -ftree-tail-merge -ftree-ter -ftree-vrp -funit-at-a-time -fvar-tracking
  69              	@ -fvar-tracking-assignments -fverbose-asm -fzero-initialized-in-bss
  70              	@ -masm-syntax-unified -mbe32 -mfix-cortex-m3-ldrd -mlittle-endian
  71              	@ -mpic-data-is-text-relative -msched-prolog -mthumb -munaligned-access
  72              	@ -mvectorize-with-neon-quad
  73              	
  74              		.text
  75              	.Ltext0:
  76              		.cfi_sections	.debug_frame
  77              		.align	1
  78              		.syntax unified
  79              		.thumb
  80              		.thumb_func
  81              		.type	task3, %function
  82              	task3:
  83              	.LFB42:
  84              		.file 1 "../3-ComProcessos/main.c"
   1:../3-ComProcessos/main.c **** #include "stm32f10x.h"
   2:../3-ComProcessos/main.c **** #include "Me.h"
   3:../3-ComProcessos/main.c **** 
   4:../3-ComProcessos/main.c **** // FreeRTOS: 
   5:../3-ComProcessos/main.c **** #include "FreeRTOS.h"
   6:../3-ComProcessos/main.c **** #include "queue.h"
   7:../3-ComProcessos/main.c **** #include "task.h"
   8:../3-ComProcessos/main.c **** 
   9:../3-ComProcessos/main.c **** // LCD 16x2
  10:../3-ComProcessos/main.c **** #include "delay.h"
  11:../3-ComProcessos/main.c **** #include "lcd16x2.h"
  12:../3-ComProcessos/main.c **** 
  13:../3-ComProcessos/main.c **** #define __delay_ms( TEMPO ) vTaskDelay(pdMS_TO_TICKS( TEMPO ))
  14:../3-ComProcessos/main.c **** #define __delay( TEMPO ) vTaskDelay( TEMPO )
  15:../3-ComProcessos/main.c **** 
  16:../3-ComProcessos/main.c **** static QueueHandle_t xQueue; 
  17:../3-ComProcessos/main.c **** 
  18:../3-ComProcessos/main.c **** static void task1(void *args __attribute((unused))) {
  19:../3-ComProcessos/main.c **** 	while(1){
  20:../3-ComProcessos/main.c **** 		lcd16x2_put_custom_char(0, 0, 0);
  21:../3-ComProcessos/main.c **** 		lcd16x2_puts(" Battery Low");
  22:../3-ComProcessos/main.c **** 		DelayMs(500);
  23:../3-ComProcessos/main.c **** 		// Clear display
  24:../3-ComProcessos/main.c **** 		lcd16x2_clrscr();
  25:../3-ComProcessos/main.c **** 		DelayMs(500);
  26:../3-ComProcessos/main.c **** 	}
  27:../3-ComProcessos/main.c **** }
  28:../3-ComProcessos/main.c **** 
  29:../3-ComProcessos/main.c **** static void task2(void *args __attribute ((unused))){
  30:../3-ComProcessos/main.c **** 	RCC->APB2ENR |= (1<<4); // En GPIOC
ARM GAS  /tmp/ccb3qL8s.s 			page 3


  31:../3-ComProcessos/main.c **** 	GPIOC->CRH	|= (0b11<< 20); // PC13 out PP 
  32:../3-ComProcessos/main.c **** 
  33:../3-ComProcessos/main.c **** 	while(1){
  34:../3-ComProcessos/main.c **** 		GPIOC->ODR	^= (1<<13);
  35:../3-ComProcessos/main.c **** 		__delay(50);
  36:../3-ComProcessos/main.c **** 	}
  37:../3-ComProcessos/main.c **** }
  38:../3-ComProcessos/main.c **** 
  39:../3-ComProcessos/main.c **** static void task3(void *args __attribute ((unused))){
  85              		.loc 1 39 53 view -0
  86              		.cfi_startproc
  87              		@ Volatile: function does not return.
  88              		@ args = 0, pretend = 0, frame = 0
  89              		@ frame_needed = 0, uses_anonymous_args = 0
  90              		@ link register save eliminated.
  91              	.LVL0:
  92              	.L2:
  40:../3-ComProcessos/main.c **** 	while(1){
  93              		.loc 1 40 2 discriminator 1 view .LVU1
  41:../3-ComProcessos/main.c **** 	}
  94              		.loc 1 41 2 discriminator 1 view .LVU2
  40:../3-ComProcessos/main.c **** 	while(1){
  95              		.loc 1 40 7 discriminator 1 view .LVU3
  96 0000 FEE7     		b	.L2		@
  97              		.cfi_endproc
  98              	.LFE42:
  99              		.size	task3, .-task3
 100              		.align	1
 101              		.syntax unified
 102              		.thumb
 103              		.thumb_func
 104              		.type	task2, %function
 105              	task2:
 106              	.LVL1:
 107              	.LFB41:
  29:../3-ComProcessos/main.c **** 	RCC->APB2ENR |= (1<<4); // En GPIOC
 108              		.loc 1 29 53 view -0
 109              		.cfi_startproc
 110              		@ Volatile: function does not return.
 111              		@ args = 0, pretend = 0, frame = 0
 112              		@ frame_needed = 0, uses_anonymous_args = 0
  30:../3-ComProcessos/main.c **** 	GPIOC->CRH	|= (0b11<< 20); // PC13 out PP 
 113              		.loc 1 30 2 view .LVU5
 114              	@ ../3-ComProcessos/main.c:30: 	RCC->APB2ENR |= (1<<4); // En GPIOC
  30:../3-ComProcessos/main.c **** 	GPIOC->CRH	|= (0b11<< 20); // PC13 out PP 
 115              		.loc 1 30 15 is_stmt 0 view .LVU6
 116 0002 094A     		ldr	r2, .L5	@ tmp120,
 117              	@ ../3-ComProcessos/main.c:29: static void task2(void *args __attribute ((unused))){
  29:../3-ComProcessos/main.c **** 	RCC->APB2ENR |= (1<<4); // En GPIOC
 118              		.loc 1 29 53 view .LVU7
 119 0004 08B5     		push	{r3, lr}	@
 120              	.LCFI0:
 121              		.cfi_def_cfa_offset 8
 122              		.cfi_offset 3, -8
 123              		.cfi_offset 14, -4
 124              	@ ../3-ComProcessos/main.c:30: 	RCC->APB2ENR |= (1<<4); // En GPIOC
  30:../3-ComProcessos/main.c **** 	GPIOC->CRH	|= (0b11<< 20); // PC13 out PP 
ARM GAS  /tmp/ccb3qL8s.s 			page 4


 125              		.loc 1 30 15 view .LVU8
 126 0006 9369     		ldr	r3, [r2, #24]	@ _1, MEM[(struct RCC_TypeDef *)1073876992B].APB2ENR
 127              	@ ../3-ComProcessos/main.c:31: 	GPIOC->CRH	|= (0b11<< 20); // PC13 out PP 
  31:../3-ComProcessos/main.c **** 
 128              		.loc 1 31 13 view .LVU9
 129 0008 084C     		ldr	r4, .L5+4	@ tmp122,
 130              	@ ../3-ComProcessos/main.c:30: 	RCC->APB2ENR |= (1<<4); // En GPIOC
  30:../3-ComProcessos/main.c **** 	GPIOC->CRH	|= (0b11<< 20); // PC13 out PP 
 131              		.loc 1 30 15 view .LVU10
 132 000a 43F01003 		orr	r3, r3, #16	@ _2, _1,
 133 000e 9361     		str	r3, [r2, #24]	@ _2, MEM[(struct RCC_TypeDef *)1073876992B].APB2ENR
  31:../3-ComProcessos/main.c **** 
 134              		.loc 1 31 2 is_stmt 1 view .LVU11
 135              	@ ../3-ComProcessos/main.c:31: 	GPIOC->CRH	|= (0b11<< 20); // PC13 out PP 
  31:../3-ComProcessos/main.c **** 
 136              		.loc 1 31 13 is_stmt 0 view .LVU12
 137 0010 6368     		ldr	r3, [r4, #4]	@ _3, MEM[(struct GPIO_TypeDef *)1073811456B].CRH
 138 0012 43F44013 		orr	r3, r3, #3145728	@ _4, _3,
 139 0016 6360     		str	r3, [r4, #4]	@ _4, MEM[(struct GPIO_TypeDef *)1073811456B].CRH
 140              	.LVL2:
 141              	.L4:
  33:../3-ComProcessos/main.c **** 		GPIOC->ODR	^= (1<<13);
 142              		.loc 1 33 2 is_stmt 1 discriminator 1 view .LVU13
  34:../3-ComProcessos/main.c **** 		__delay(50);
 143              		.loc 1 34 3 discriminator 1 view .LVU14
 144              	@ ../3-ComProcessos/main.c:34: 		GPIOC->ODR	^= (1<<13);
  34:../3-ComProcessos/main.c **** 		__delay(50);
 145              		.loc 1 34 14 is_stmt 0 discriminator 1 view .LVU15
 146 0018 E368     		ldr	r3, [r4, #12]	@ _5, MEM[(struct GPIO_TypeDef *)1073811456B].ODR
 147              	@ ../3-ComProcessos/main.c:35: 		__delay(50);
  35:../3-ComProcessos/main.c **** 	}
 148              		.loc 1 35 3 discriminator 1 view .LVU16
 149 001a 3220     		movs	r0, #50	@,
 150              	@ ../3-ComProcessos/main.c:34: 		GPIOC->ODR	^= (1<<13);
  34:../3-ComProcessos/main.c **** 		__delay(50);
 151              		.loc 1 34 14 discriminator 1 view .LVU17
 152 001c 83F40053 		eor	r3, r3, #8192	@ _6, _5,
 153 0020 E360     		str	r3, [r4, #12]	@ _6, MEM[(struct GPIO_TypeDef *)1073811456B].ODR
  35:../3-ComProcessos/main.c **** 	}
 154              		.loc 1 35 3 is_stmt 1 discriminator 1 view .LVU18
 155 0022 FFF7FEFF 		bl	vTaskDelay		@
 156              	.LVL3:
  33:../3-ComProcessos/main.c **** 		GPIOC->ODR	^= (1<<13);
 157              		.loc 1 33 7 discriminator 1 view .LVU19
 158 0026 F7E7     		b	.L4		@
 159              	.L6:
 160              		.align	2
 161              	.L5:
 162 0028 00100240 		.word	1073876992
 163 002c 00100140 		.word	1073811456
 164              		.cfi_endproc
 165              	.LFE41:
 166              		.size	task2, .-task2
 167              		.section	.rodata.str1.1,"aMS",%progbits,1
 168              	.LC0:
 169 0000 20426174 		.ascii	" Battery Low\000"
 169      74657279 
ARM GAS  /tmp/ccb3qL8s.s 			page 5


 169      204C6F77 
 169      00
 170              		.text
 171              		.align	1
 172              		.syntax unified
 173              		.thumb
 174              		.thumb_func
 175              		.type	task1, %function
 176              	task1:
 177              	.LVL4:
 178              	.LFB40:
  18:../3-ComProcessos/main.c **** 	while(1){
 179              		.loc 1 18 53 view -0
 180              		.cfi_startproc
 181              		@ Volatile: function does not return.
 182              		@ args = 0, pretend = 0, frame = 0
 183              		@ frame_needed = 0, uses_anonymous_args = 0
  18:../3-ComProcessos/main.c **** 	while(1){
 184              		.loc 1 18 53 is_stmt 0 view .LVU21
 185 0030 08B5     		push	{r3, lr}	@
 186              	.LCFI1:
 187              		.cfi_def_cfa_offset 8
 188              		.cfi_offset 3, -8
 189              		.cfi_offset 14, -4
 190              	@ ../3-ComProcessos/main.c:21: 		lcd16x2_puts(" Battery Low");
  21:../3-ComProcessos/main.c **** 		DelayMs(500);
 191              		.loc 1 21 3 view .LVU22
 192 0032 0A4C     		ldr	r4, .L9	@ tmp116,
 193              	.LVL5:
 194              	.L8:
  19:../3-ComProcessos/main.c **** 		lcd16x2_put_custom_char(0, 0, 0);
 195              		.loc 1 19 2 is_stmt 1 discriminator 1 view .LVU23
  20:../3-ComProcessos/main.c **** 		lcd16x2_puts(" Battery Low");
 196              		.loc 1 20 3 discriminator 1 view .LVU24
 197 0034 0022     		movs	r2, #0	@,
 198 0036 1046     		mov	r0, r2	@,
 199 0038 1146     		mov	r1, r2	@,
 200 003a FFF7FEFF 		bl	lcd16x2_put_custom_char		@
 201              	.LVL6:
  21:../3-ComProcessos/main.c **** 		DelayMs(500);
 202              		.loc 1 21 3 discriminator 1 view .LVU25
 203 003e 2046     		mov	r0, r4	@, tmp116
 204 0040 FFF7FEFF 		bl	lcd16x2_puts		@
 205              	.LVL7:
  22:../3-ComProcessos/main.c **** 		// Clear display
 206              		.loc 1 22 3 discriminator 1 view .LVU26
 207 0044 4FF4FA70 		mov	r0, #500	@,
 208 0048 FFF7FEFF 		bl	DelayMs		@
 209              	.LVL8:
  24:../3-ComProcessos/main.c **** 		DelayMs(500);
 210              		.loc 1 24 3 discriminator 1 view .LVU27
 211 004c FFF7FEFF 		bl	lcd16x2_clrscr		@
 212              	.LVL9:
  25:../3-ComProcessos/main.c **** 	}
 213              		.loc 1 25 3 discriminator 1 view .LVU28
 214 0050 4FF4FA70 		mov	r0, #500	@,
 215 0054 FFF7FEFF 		bl	DelayMs		@
ARM GAS  /tmp/ccb3qL8s.s 			page 6


 216              	.LVL10:
  19:../3-ComProcessos/main.c **** 		lcd16x2_put_custom_char(0, 0, 0);
 217              		.loc 1 19 7 discriminator 1 view .LVU29
 218 0058 ECE7     		b	.L8		@
 219              	.L10:
 220 005a 00BF     		.align	2
 221              	.L9:
 222 005c 00000000 		.word	.LC0
 223              		.cfi_endproc
 224              	.LFE40:
 225              		.size	task1, .-task1
 226              		.align	1
 227              		.global	ADC1_configure
 228              		.syntax unified
 229              		.thumb
 230              		.thumb_func
 231              		.type	ADC1_configure, %function
 232              	ADC1_configure:
 233              	.LFB29:
 234              		.file 2 "../3-ComProcessos/Me.h"
   1:../3-ComProcessos/Me.h **** #define __IO volatile
   2:../3-ComProcessos/Me.h **** 
   3:../3-ComProcessos/Me.h **** void SystemInit (void);
   4:../3-ComProcessos/Me.h **** void nvic_IntDisble(u8 IRQn);
   5:../3-ComProcessos/Me.h **** void nvic_intEnable(u8 IRQn);
   6:../3-ComProcessos/Me.h **** void set_system_clock_to_25Mhz (void);
   7:../3-ComProcessos/Me.h **** void set_system_clock_to_72Mhz(void);
   8:../3-ComProcessos/Me.h **** void Delay ( __IO u32 T );
   9:../3-ComProcessos/Me.h **** void enable_TIM3_delay (void);
  10:../3-ComProcessos/Me.h **** void ADC1_configure();
  11:../3-ComProcessos/Me.h **** 
  12:../3-ComProcessos/Me.h **** void ADC1_configure(){
 235              		.loc 2 12 22 view -0
 236              		.cfi_startproc
 237              		@ args = 0, pretend = 0, frame = 0
 238              		@ frame_needed = 0, uses_anonymous_args = 0
 239              		@ link register save eliminated.
  13:../3-ComProcessos/Me.h **** 	RCC->APB2ENR |= 1UL<<2 ; // Hab. GPIOA
 240              		.loc 2 13 2 view .LVU31
 241              	@ ../3-ComProcessos/Me.h:13: 	RCC->APB2ENR |= 1UL<<2 ; // Hab. GPIOA
 242              		.loc 2 13 15 is_stmt 0 view .LVU32
 243 0060 1F4B     		ldr	r3, .L16	@ tmp141,
 244              	@ ../3-ComProcessos/Me.h:14: 	GPIOA->CRL &= ~(0x0F << 4); // Define A1 Input Analogic
  14:../3-ComProcessos/Me.h **** 	GPIOA->CRL &= ~(0x0F << 4); // Define A1 Input Analogic
 245              		.loc 2 14 13 view .LVU33
 246 0062 2049     		ldr	r1, .L16+4	@ tmp143,
 247              	@ ../3-ComProcessos/Me.h:13: 	RCC->APB2ENR |= 1UL<<2 ; // Hab. GPIOA
  13:../3-ComProcessos/Me.h **** 	RCC->APB2ENR |= 1UL<<2 ; // Hab. GPIOA
 248              		.loc 2 13 15 view .LVU34
 249 0064 9A69     		ldr	r2, [r3, #24]	@ _1, MEM[(struct RCC_TypeDef *)1073876992B].APB2ENR
 250 0066 42F00402 		orr	r2, r2, #4	@ _2, _1,
 251 006a 9A61     		str	r2, [r3, #24]	@ _2, MEM[(struct RCC_TypeDef *)1073876992B].APB2ENR
 252              		.loc 2 14 2 is_stmt 1 view .LVU35
 253              	@ ../3-ComProcessos/Me.h:14: 	GPIOA->CRL &= ~(0x0F << 4); // Define A1 Input Analogic
 254              		.loc 2 14 13 is_stmt 0 view .LVU36
 255 006c 0A68     		ldr	r2, [r1]	@ _3, MEM[(struct GPIO_TypeDef *)1073809408B].CRL
 256 006e 22F0F002 		bic	r2, r2, #240	@ _4, _3,
ARM GAS  /tmp/ccb3qL8s.s 			page 7


 257 0072 0A60     		str	r2, [r1]	@ _4, MEM[(struct GPIO_TypeDef *)1073809408B].CRL
  15:../3-ComProcessos/Me.h **** 	
  16:../3-ComProcessos/Me.h **** 	RCC->APB2ENR |= (1<<9); // Bit 9 ADC1EN: ADC 1 
 258              		.loc 2 16 2 is_stmt 1 view .LVU37
 259              	@ ../3-ComProcessos/Me.h:16: 	RCC->APB2ENR |= (1<<9); // Bit 9 ADC1EN: ADC 1 
 260              		.loc 2 16 15 is_stmt 0 view .LVU38
 261 0074 9A69     		ldr	r2, [r3, #24]	@ _5, MEM[(struct RCC_TypeDef *)1073876992B].APB2ENR
 262 0076 42F40072 		orr	r2, r2, #512	@ _6, _5,
 263 007a 9A61     		str	r2, [r3, #24]	@ _6, MEM[(struct RCC_TypeDef *)1073876992B].APB2ENR
  17:../3-ComProcessos/Me.h **** 									// interface clock enable
  18:../3-ComProcessos/Me.h **** 
  19:../3-ComProcessos/Me.h **** 	RCC->CFGR	|= (0b10 << 14); // Bits 15:14 ADCPRE:
 264              		.loc 2 19 2 is_stmt 1 view .LVU39
 265              	@ ../3-ComProcessos/Me.h:19: 	RCC->CFGR	|= (0b10 << 14); // Bits 15:14 ADCPRE:
 266              		.loc 2 19 12 is_stmt 0 view .LVU40
 267 007c 5A68     		ldr	r2, [r3, #4]	@ _7, MEM[(struct RCC_TypeDef *)1073876992B].CFGR
 268 007e 42F40042 		orr	r2, r2, #32768	@ _8, _7,
 269 0082 5A60     		str	r2, [r3, #4]	@ _8, MEM[(struct RCC_TypeDef *)1073876992B].CFGR
  20:../3-ComProcessos/Me.h **** 										  // ADC prescaler 10:
  21:../3-ComProcessos/Me.h **** 										  //    PCLK2 divided by 6
  22:../3-ComProcessos/Me.h **** 	// Enable End of Conversion (EOC) interrupt
  23:../3-ComProcessos/Me.h **** 	ADC1->CR1 |= (1 << 5);
 270              		.loc 2 23 2 is_stmt 1 view .LVU41
 271              	@ ../3-ComProcessos/Me.h:23: 	ADC1->CR1 |= (1 << 5);
 272              		.loc 2 23 12 is_stmt 0 view .LVU42
 273 0084 A3F56C43 		sub	r3, r3, #60416	@ tmp149, tmp149,
 274 0088 5A68     		ldr	r2, [r3, #4]	@ _9, MEM[(struct ADC_TypeDef *)1073816576B].CR1
 275 008a 42F02002 		orr	r2, r2, #32	@ _10, _9,
 276 008e 5A60     		str	r2, [r3, #4]	@ _10, MEM[(struct ADC_TypeDef *)1073816576B].CR1
  24:../3-ComProcessos/Me.h **** 
  25:../3-ComProcessos/Me.h **** 	// One conversion
  26:../3-ComProcessos/Me.h **** 	ADC1->SQR1 = 0x00000000;
 277              		.loc 2 26 2 is_stmt 1 view .LVU43
 278              	@ ../3-ComProcessos/Me.h:26: 	ADC1->SQR1 = 0x00000000;
 279              		.loc 2 26 13 is_stmt 0 view .LVU44
 280 0090 0022     		movs	r2, #0	@ tmp152,
 281 0092 DA62     		str	r2, [r3, #44]	@ tmp152, MEM[(struct ADC_TypeDef *)1073816576B].SQR1
  27:../3-ComProcessos/Me.h **** 
  28:../3-ComProcessos/Me.h **** 	// Choose the analog channel to read
  29:../3-ComProcessos/Me.h **** 	// Since we want channel 10 to be the first
  30:../3-ComProcessos/Me.h **** 	//   conversion we write 10 to SQ1 bits (3:0)
  31:../3-ComProcessos/Me.h **** 	//   which is in SQR3 register. For multiple conversions
  32:../3-ComProcessos/Me.h **** 	//   keep writing the channel numbers to SQx bits.
  33:../3-ComProcessos/Me.h **** 	 ADC1->SQR3 = (10 << 0);
 282              		.loc 2 33 3 is_stmt 1 view .LVU45
 283              	@ ../3-ComProcessos/Me.h:33: 	 ADC1->SQR3 = (10 << 0);
 284              		.loc 2 33 14 is_stmt 0 view .LVU46
 285 0094 0A22     		movs	r2, #10	@ tmp154,
 286 0096 5A63     		str	r2, [r3, #52]	@ tmp154, MEM[(struct ADC_TypeDef *)1073816576B].SQR3
  34:../3-ComProcessos/Me.h **** 
  35:../3-ComProcessos/Me.h **** 	// Set up software trigger to start conversion
  36:../3-ComProcessos/Me.h **** 	ADC1->CR2 |= (7 << 17);  // Select SWSTART as trigger
 287              		.loc 2 36 2 is_stmt 1 view .LVU47
 288              	@ ../3-ComProcessos/Me.h:36: 	ADC1->CR2 |= (7 << 17);  // Select SWSTART as trigger
 289              		.loc 2 36 12 is_stmt 0 view .LVU48
 290 0098 9A68     		ldr	r2, [r3, #8]	@ _11, MEM[(struct ADC_TypeDef *)1073816576B].CR2
 291 009a 42F46022 		orr	r2, r2, #917504	@ _12, _11,
ARM GAS  /tmp/ccb3qL8s.s 			page 8


 292 009e 9A60     		str	r2, [r3, #8]	@ _12, MEM[(struct ADC_TypeDef *)1073816576B].CR2
  37:../3-ComProcessos/Me.h **** 	ADC1->CR2 |= (1 << 20);  // Enable external trigger
 293              		.loc 2 37 2 is_stmt 1 view .LVU49
 294              	@ ../3-ComProcessos/Me.h:37: 	ADC1->CR2 |= (1 << 20);  // Enable external trigger
 295              		.loc 2 37 12 is_stmt 0 view .LVU50
 296 00a0 9A68     		ldr	r2, [r3, #8]	@ _13, MEM[(struct ADC_TypeDef *)1073816576B].CR2
 297 00a2 42F48012 		orr	r2, r2, #1048576	@ _14, _13,
 298 00a6 9A60     		str	r2, [r3, #8]	@ _14, MEM[(struct ADC_TypeDef *)1073816576B].CR2
  38:../3-ComProcessos/Me.h **** 
  39:../3-ComProcessos/Me.h **** 	// Enable continuous conversion
  40:../3-ComProcessos/Me.h **** 	ADC1->CR2 |= (1 << 1);
 299              		.loc 2 40 2 is_stmt 1 view .LVU51
 300              	@ ../3-ComProcessos/Me.h:40: 	ADC1->CR2 |= (1 << 1);
 301              		.loc 2 40 12 is_stmt 0 view .LVU52
 302 00a8 9A68     		ldr	r2, [r3, #8]	@ _15, MEM[(struct ADC_TypeDef *)1073816576B].CR2
 303 00aa 42F00202 		orr	r2, r2, #2	@ _16, _15,
 304 00ae 9A60     		str	r2, [r3, #8]	@ _16, MEM[(struct ADC_TypeDef *)1073816576B].CR2
  41:../3-ComProcessos/Me.h **** 
  42:../3-ComProcessos/Me.h **** 	// enable_interrupt(ADC1_2_IRQn);
  43:../3-ComProcessos/Me.h **** 
  44:../3-ComProcessos/Me.h **** 	// Enable A/D conversion
  45:../3-ComProcessos/Me.h **** 	ADC1->CR2 |= (1 << 0);
 305              		.loc 2 45 2 is_stmt 1 view .LVU53
 306              	@ ../3-ComProcessos/Me.h:45: 	ADC1->CR2 |= (1 << 0);
 307              		.loc 2 45 12 is_stmt 0 view .LVU54
 308 00b0 9A68     		ldr	r2, [r3, #8]	@ _17, MEM[(struct ADC_TypeDef *)1073816576B].CR2
 309 00b2 42F00102 		orr	r2, r2, #1	@ _18, _17,
 310 00b6 9A60     		str	r2, [r3, #8]	@ _18, MEM[(struct ADC_TypeDef *)1073816576B].CR2
  46:../3-ComProcessos/Me.h **** 
  47:../3-ComProcessos/Me.h **** 	// Calibration reset and start
  48:../3-ComProcessos/Me.h **** 	//    Optional for better accuracy.
  49:../3-ComProcessos/Me.h **** 	ADC1->CR2 |= (1 << 3);
 311              		.loc 2 49 2 is_stmt 1 view .LVU55
 312              	@ ../3-ComProcessos/Me.h:49: 	ADC1->CR2 |= (1 << 3);
 313              		.loc 2 49 12 is_stmt 0 view .LVU56
 314 00b8 9A68     		ldr	r2, [r3, #8]	@ _19, MEM[(struct ADC_TypeDef *)1073816576B].CR2
 315 00ba 42F00802 		orr	r2, r2, #8	@ _20, _19,
 316 00be 9A60     		str	r2, [r3, #8]	@ _20, MEM[(struct ADC_TypeDef *)1073816576B].CR2
  50:../3-ComProcessos/Me.h **** 	while((ADC1->CR2 & (1 << 3)));
 317              		.loc 2 50 2 is_stmt 1 view .LVU57
 318              	.L12:
 319              		.loc 2 50 31 discriminator 1 view .LVU58
 320              		.loc 2 50 7 discriminator 1 view .LVU59
 321              	@ ../3-ComProcessos/Me.h:50: 	while((ADC1->CR2 & (1 << 3)));
 322              		.loc 2 50 13 is_stmt 0 discriminator 1 view .LVU60
 323 00c0 9A68     		ldr	r2, [r3, #8]	@ _21, MEM[(struct ADC_TypeDef *)1073816576B].CR2
 324              	@ ../3-ComProcessos/Me.h:50: 	while((ADC1->CR2 & (1 << 3)));
 325              		.loc 2 50 7 discriminator 1 view .LVU61
 326 00c2 1107     		lsls	r1, r2, #28	@, _21,
 327 00c4 FCD4     		bmi	.L12		@,
  51:../3-ComProcessos/Me.h **** 	ADC1->CR2 |= (1 << 2);
 328              		.loc 2 51 2 is_stmt 1 view .LVU62
 329              	@ ../3-ComProcessos/Me.h:51: 	ADC1->CR2 |= (1 << 2);
 330              		.loc 2 51 12 is_stmt 0 view .LVU63
 331 00c6 9A68     		ldr	r2, [r3, #8]	@ _23, MEM[(struct ADC_TypeDef *)1073816576B].CR2
 332 00c8 42F00402 		orr	r2, r2, #4	@ _24, _23,
 333 00cc 9A60     		str	r2, [r3, #8]	@ _24, MEM[(struct ADC_TypeDef *)1073816576B].CR2
ARM GAS  /tmp/ccb3qL8s.s 			page 9


  52:../3-ComProcessos/Me.h **** 	while((ADC1->CR2 & (1 << 2)));
 334              		.loc 2 52 2 is_stmt 1 view .LVU64
 335              	@ ../3-ComProcessos/Me.h:52: 	while((ADC1->CR2 & (1 << 2)));
 336              		.loc 2 52 13 is_stmt 0 view .LVU65
 337 00ce 064B     		ldr	r3, .L16+8	@ tmp169,
 338              	.L13:
 339              		.loc 2 52 31 is_stmt 1 discriminator 1 view .LVU66
 340              		.loc 2 52 7 discriminator 1 view .LVU67
 341              	@ ../3-ComProcessos/Me.h:52: 	while((ADC1->CR2 & (1 << 2)));
 342              		.loc 2 52 13 is_stmt 0 discriminator 1 view .LVU68
 343 00d0 9A68     		ldr	r2, [r3, #8]	@ _25, MEM[(struct ADC_TypeDef *)1073816576B].CR2
 344              	@ ../3-ComProcessos/Me.h:52: 	while((ADC1->CR2 & (1 << 2)));
 345              		.loc 2 52 7 discriminator 1 view .LVU69
 346 00d2 5207     		lsls	r2, r2, #29	@, _25,
 347 00d4 FCD4     		bmi	.L13		@,
  53:../3-ComProcessos/Me.h **** 
  54:../3-ComProcessos/Me.h **** 	// Start conversion with software trigger
  55:../3-ComProcessos/Me.h **** 	ADC1->CR2 |= (1<<22);
 348              		.loc 2 55 2 is_stmt 1 view .LVU70
 349              	@ ../3-ComProcessos/Me.h:55: 	ADC1->CR2 |= (1<<22);
 350              		.loc 2 55 12 is_stmt 0 view .LVU71
 351 00d6 9A68     		ldr	r2, [r3, #8]	@ _27, MEM[(struct ADC_TypeDef *)1073816576B].CR2
 352 00d8 42F48002 		orr	r2, r2, #4194304	@ _28, _27,
 353 00dc 9A60     		str	r2, [r3, #8]	@ _28, MEM[(struct ADC_TypeDef *)1073816576B].CR2
 354              	@ ../3-ComProcessos/Me.h:58: }
  56:../3-ComProcessos/Me.h **** 	//
  57:../3-ComProcessos/Me.h **** 	// Leitura  ADC1->DR  -> Data Register
  58:../3-ComProcessos/Me.h **** }
 355              		.loc 2 58 1 view .LVU72
 356 00de 7047     		bx	lr	@
 357              	.L17:
 358              		.align	2
 359              	.L16:
 360 00e0 00100240 		.word	1073876992
 361 00e4 00080140 		.word	1073809408
 362 00e8 00240140 		.word	1073816576
 363              		.cfi_endproc
 364              	.LFE29:
 365              		.size	ADC1_configure, .-ADC1_configure
 366              		.align	1
 367              		.global	set_system_clock_to_72Mhz
 368              		.syntax unified
 369              		.thumb
 370              		.thumb_func
 371              		.type	set_system_clock_to_72Mhz, %function
 372              	set_system_clock_to_72Mhz:
 373              	.LFB30:
  59:../3-ComProcessos/Me.h **** 
  60:../3-ComProcessos/Me.h **** void set_system_clock_to_72Mhz(void)
  61:../3-ComProcessos/Me.h **** {
 374              		.loc 2 61 1 is_stmt 1 view -0
 375              		.cfi_startproc
 376              		@ args = 0, pretend = 0, frame = 0
 377              		@ frame_needed = 0, uses_anonymous_args = 0
 378              		@ link register save eliminated.
  62:../3-ComProcessos/Me.h ****    // Necessary wait states for Flash for high speeds
  63:../3-ComProcessos/Me.h ****    FLASH->ACR = 0x12;
ARM GAS  /tmp/ccb3qL8s.s 			page 10


 379              		.loc 2 63 4 view .LVU74
 380              	@ ../3-ComProcessos/Me.h:63:    FLASH->ACR = 0x12;
 381              		.loc 2 63 15 is_stmt 0 view .LVU75
 382 00ec 1222     		movs	r2, #18	@ tmp140,
 383 00ee 1B4B     		ldr	r3, .L25	@ tmp139,
 384 00f0 1A60     		str	r2, [r3]	@ tmp140, MEM[(struct FLASH_TypeDef *)1073881088B].ACR
  64:../3-ComProcessos/Me.h ****    // Enable HSE
  65:../3-ComProcessos/Me.h ****    RCC->CR |= (1 << 16);
 385              		.loc 2 65 4 is_stmt 1 view .LVU76
 386              	@ ../3-ComProcessos/Me.h:65:    RCC->CR |= (1 << 16);
 387              		.loc 2 65 12 is_stmt 0 view .LVU77
 388 00f2 A3F58053 		sub	r3, r3, #4096	@ tmp141, tmp141,
 389 00f6 1A68     		ldr	r2, [r3]	@ _1, MEM[(struct RCC_TypeDef *)1073876992B].CR
 390 00f8 42F48032 		orr	r2, r2, #65536	@ _2, _1,
 391 00fc 1A60     		str	r2, [r3]	@ _2, MEM[(struct RCC_TypeDef *)1073876992B].CR
  66:../3-ComProcessos/Me.h ****    // Wait untill HSE settles down
  67:../3-ComProcessos/Me.h ****    while (!(RCC->CR & (1 << 17)));
 392              		.loc 2 67 4 is_stmt 1 view .LVU78
 393              	.L19:
 394              		.loc 2 67 34 discriminator 1 view .LVU79
 395              		.loc 2 67 10 discriminator 1 view .LVU80
 396              	@ ../3-ComProcessos/Me.h:67:    while (!(RCC->CR & (1 << 17)));
 397              		.loc 2 67 16 is_stmt 0 discriminator 1 view .LVU81
 398 00fe 1A68     		ldr	r2, [r3]	@ _3, MEM[(struct RCC_TypeDef *)1073876992B].CR
 399              	@ ../3-ComProcessos/Me.h:67:    while (!(RCC->CR & (1 << 17)));
 400              		.loc 2 67 10 discriminator 1 view .LVU82
 401 0100 9103     		lsls	r1, r2, #14	@, _3,
 402 0102 FCD5     		bpl	.L19		@,
  68:../3-ComProcessos/Me.h ****    // Set PREDIV2 division factor to 5
  69:../3-ComProcessos/Me.h ****    RCC->CFGR2 |= (0b0100 << 4);
 403              		.loc 2 69 4 is_stmt 1 view .LVU83
 404              	@ ../3-ComProcessos/Me.h:69:    RCC->CFGR2 |= (0b0100 << 4);
 405              		.loc 2 69 15 is_stmt 0 view .LVU84
 406 0104 DA6A     		ldr	r2, [r3, #44]	@ _5, MEM[(struct RCC_TypeDef *)1073876992B].CFGR2
 407 0106 42F04002 		orr	r2, r2, #64	@ _6, _5,
 408 010a DA62     		str	r2, [r3, #44]	@ _6, MEM[(struct RCC_TypeDef *)1073876992B].CFGR2
  70:../3-ComProcessos/Me.h ****    // Set PLL2 multiplication factor to 8
  71:../3-ComProcessos/Me.h ****    RCC->CFGR2 |= (0b0110 << 8);
 409              		.loc 2 71 4 is_stmt 1 view .LVU85
 410              	@ ../3-ComProcessos/Me.h:71:    RCC->CFGR2 |= (0b0110 << 8);
 411              		.loc 2 71 15 is_stmt 0 view .LVU86
 412 010c DA6A     		ldr	r2, [r3, #44]	@ _7, MEM[(struct RCC_TypeDef *)1073876992B].CFGR2
 413 010e 42F4C062 		orr	r2, r2, #1536	@ _8, _7,
 414 0112 DA62     		str	r2, [r3, #44]	@ _8, MEM[(struct RCC_TypeDef *)1073876992B].CFGR2
  72:../3-ComProcessos/Me.h ****    // Enable PLL2
  73:../3-ComProcessos/Me.h ****    RCC->CR |= (1 << 26);
 415              		.loc 2 73 4 is_stmt 1 view .LVU87
 416              	@ ../3-ComProcessos/Me.h:73:    RCC->CR |= (1 << 26);
 417              		.loc 2 73 12 is_stmt 0 view .LVU88
 418 0114 1A68     		ldr	r2, [r3]	@ _9, MEM[(struct RCC_TypeDef *)1073876992B].CR
 419 0116 42F08062 		orr	r2, r2, #67108864	@ _10, _9,
 420 011a 1A60     		str	r2, [r3]	@ _10, MEM[(struct RCC_TypeDef *)1073876992B].CR
  74:../3-ComProcessos/Me.h ****    // Wait untill PLL2 settles down
  75:../3-ComProcessos/Me.h **** 	// while (!(RCC->CR & (1 << 27)));
  76:../3-ComProcessos/Me.h ****    // Set PLL2 as PREDIV1 clock source
  77:../3-ComProcessos/Me.h ****    RCC->CFGR2 |= (1 << 16);
 421              		.loc 2 77 4 is_stmt 1 view .LVU89
ARM GAS  /tmp/ccb3qL8s.s 			page 11


 422              	@ ../3-ComProcessos/Me.h:77:    RCC->CFGR2 |= (1 << 16);
 423              		.loc 2 77 15 is_stmt 0 view .LVU90
 424 011c DA6A     		ldr	r2, [r3, #44]	@ _11, MEM[(struct RCC_TypeDef *)1073876992B].CFGR2
 425 011e 42F48032 		orr	r2, r2, #65536	@ _12, _11,
 426 0122 DA62     		str	r2, [r3, #44]	@ _12, MEM[(struct RCC_TypeDef *)1073876992B].CFGR2
  78:../3-ComProcessos/Me.h ****    // Set PREDIV1 division factor to 5
  79:../3-ComProcessos/Me.h ****    RCC->CFGR2 |= (0b0100 << 0);
 427              		.loc 2 79 4 is_stmt 1 view .LVU91
 428              	@ ../3-ComProcessos/Me.h:79:    RCC->CFGR2 |= (0b0100 << 0);
 429              		.loc 2 79 15 is_stmt 0 view .LVU92
 430 0124 DA6A     		ldr	r2, [r3, #44]	@ _13, MEM[(struct RCC_TypeDef *)1073876992B].CFGR2
 431 0126 42F00402 		orr	r2, r2, #4	@ _14, _13,
 432 012a DA62     		str	r2, [r3, #44]	@ _14, MEM[(struct RCC_TypeDef *)1073876992B].CFGR2
  80:../3-ComProcessos/Me.h ****    // Select Prediv1 as PLL source
  81:../3-ComProcessos/Me.h ****    RCC->CFGR |= (1 << 16);
 433              		.loc 2 81 4 is_stmt 1 view .LVU93
 434              	@ ../3-ComProcessos/Me.h:81:    RCC->CFGR |= (1 << 16);
 435              		.loc 2 81 14 is_stmt 0 view .LVU94
 436 012c 5A68     		ldr	r2, [r3, #4]	@ _15, MEM[(struct RCC_TypeDef *)1073876992B].CFGR
 437 012e 42F48032 		orr	r2, r2, #65536	@ _16, _15,
 438 0132 5A60     		str	r2, [r3, #4]	@ _16, MEM[(struct RCC_TypeDef *)1073876992B].CFGR
  82:../3-ComProcessos/Me.h ****    // Set PLL1 multiplication factor to 9
  83:../3-ComProcessos/Me.h ****    RCC->CFGR |= (0b0111 << 18);
 439              		.loc 2 83 4 is_stmt 1 view .LVU95
 440              	@ ../3-ComProcessos/Me.h:83:    RCC->CFGR |= (0b0111 << 18);
 441              		.loc 2 83 14 is_stmt 0 view .LVU96
 442 0134 5A68     		ldr	r2, [r3, #4]	@ _17, MEM[(struct RCC_TypeDef *)1073876992B].CFGR
 443 0136 42F4E012 		orr	r2, r2, #1835008	@ _18, _17,
 444 013a 5A60     		str	r2, [r3, #4]	@ _18, MEM[(struct RCC_TypeDef *)1073876992B].CFGR
  84:../3-ComProcessos/Me.h ****    // Set APB1 to 36MHz
  85:../3-ComProcessos/Me.h ****    RCC->CFGR |= 1 << 10;
 445              		.loc 2 85 4 is_stmt 1 view .LVU97
 446              	@ ../3-ComProcessos/Me.h:85:    RCC->CFGR |= 1 << 10;
 447              		.loc 2 85 14 is_stmt 0 view .LVU98
 448 013c 5A68     		ldr	r2, [r3, #4]	@ _19, MEM[(struct RCC_TypeDef *)1073876992B].CFGR
 449 013e 42F48062 		orr	r2, r2, #1024	@ _20, _19,
 450 0142 5A60     		str	r2, [r3, #4]	@ _20, MEM[(struct RCC_TypeDef *)1073876992B].CFGR
  86:../3-ComProcessos/Me.h ****    // Enable PLL
  87:../3-ComProcessos/Me.h ****    RCC->CR |= (1 << 24);
 451              		.loc 2 87 4 is_stmt 1 view .LVU99
 452              	@ ../3-ComProcessos/Me.h:87:    RCC->CR |= (1 << 24);
 453              		.loc 2 87 12 is_stmt 0 view .LVU100
 454 0144 1A68     		ldr	r2, [r3]	@ _21, MEM[(struct RCC_TypeDef *)1073876992B].CR
 455 0146 42F08072 		orr	r2, r2, #16777216	@ _22, _21,
 456 014a 1A60     		str	r2, [r3]	@ _22, MEM[(struct RCC_TypeDef *)1073876992B].CR
  88:../3-ComProcessos/Me.h ****    // Wait untill PLL settles down
  89:../3-ComProcessos/Me.h ****    while (!(RCC->CR & (1 << 25)));
 457              		.loc 2 89 4 is_stmt 1 view .LVU101
 458              	.L20:
 459              		.loc 2 89 34 discriminator 1 view .LVU102
 460              		.loc 2 89 10 discriminator 1 view .LVU103
 461              	@ ../3-ComProcessos/Me.h:89:    while (!(RCC->CR & (1 << 25)));
 462              		.loc 2 89 16 is_stmt 0 discriminator 1 view .LVU104
 463 014c 1A68     		ldr	r2, [r3]	@ _23, MEM[(struct RCC_TypeDef *)1073876992B].CR
 464              	@ ../3-ComProcessos/Me.h:89:    while (!(RCC->CR & (1 << 25)));
 465              		.loc 2 89 10 discriminator 1 view .LVU105
 466 014e 9201     		lsls	r2, r2, #6	@, _23,
ARM GAS  /tmp/ccb3qL8s.s 			page 12


 467 0150 FCD5     		bpl	.L20		@,
  90:../3-ComProcessos/Me.h ****    // Finally, choose PLL as the system clock
  91:../3-ComProcessos/Me.h ****    RCC->CFGR |= (0b10 << 0);
 468              		.loc 2 91 4 is_stmt 1 view .LVU106
 469              	@ ../3-ComProcessos/Me.h:91:    RCC->CFGR |= (0b10 << 0);
 470              		.loc 2 91 14 is_stmt 0 view .LVU107
 471 0152 5A68     		ldr	r2, [r3, #4]	@ _25, MEM[(struct RCC_TypeDef *)1073876992B].CFGR
 472 0154 42F00202 		orr	r2, r2, #2	@ _26, _25,
 473 0158 5A60     		str	r2, [r3, #4]	@ _26, MEM[(struct RCC_TypeDef *)1073876992B].CFGR
 474              	@ ../3-ComProcessos/Me.h:92: } 
  92:../3-ComProcessos/Me.h **** } 
 475              		.loc 2 92 1 view .LVU108
 476 015a 7047     		bx	lr	@
 477              	.L26:
 478              		.align	2
 479              	.L25:
 480 015c 00200240 		.word	1073881088
 481              		.cfi_endproc
 482              	.LFE30:
 483              		.size	set_system_clock_to_72Mhz, .-set_system_clock_to_72Mhz
 484              		.align	1
 485              		.global	Delay
 486              		.syntax unified
 487              		.thumb
 488              		.thumb_func
 489              		.type	Delay, %function
 490              	Delay:
 491              	.LVL11:
 492              	.LFB31:
  93:../3-ComProcessos/Me.h **** 
  94:../3-ComProcessos/Me.h **** void Delay ( __IO u32 T ) { // T=1 ;  868µs -> T=1 ~ 526µs
 493              		.loc 2 94 27 is_stmt 1 view -0
 494              		.cfi_startproc
 495              		@ args = 0, pretend = 0, frame = 8
 496              		@ frame_needed = 0, uses_anonymous_args = 0
 497              		@ link register save eliminated.
  95:../3-ComProcessos/Me.h ****   for ( T ; T > 0 ; T-- ){
 498              		.loc 2 95 3 view .LVU110
 499              	@ ../3-ComProcessos/Me.h:94: void Delay ( __IO u32 T ) { // T=1 ;  868µs -> T=1 ~ 526µs
  94:../3-ComProcessos/Me.h ****   for ( T ; T > 0 ; T-- ){
 500              		.loc 2 94 27 is_stmt 0 view .LVU111
 501 0160 82B0     		sub	sp, sp, #8	@,,
 502              	.LCFI2:
 503              		.cfi_def_cfa_offset 8
 504              	@ ../3-ComProcessos/Me.h:94: void Delay ( __IO u32 T ) { // T=1 ;  868µs -> T=1 ~ 526µs
  94:../3-ComProcessos/Me.h ****   for ( T ; T > 0 ; T-- ){
 505              		.loc 2 94 27 view .LVU112
 506 0162 0190     		str	r0, [sp, #4]	@ T, T
 507              	@ ../3-ComProcessos/Me.h:95:   for ( T ; T > 0 ; T-- ){
 508              		.loc 2 95 3 view .LVU113
 509 0164 019B     		ldr	r3, [sp, #4]	@ vol.0_9, T
 510              	@ ../3-ComProcessos/Me.h:96:    TIM3->EGR |= ( 1 << 0 );
  96:../3-ComProcessos/Me.h ****    TIM3->EGR |= ( 1 << 0 );
 511              		.loc 2 96 14 view .LVU114
 512 0166 094A     		ldr	r2, .L32	@ tmp132,
 513              	.L28:
  95:../3-ComProcessos/Me.h ****   for ( T ; T > 0 ; T-- ){
ARM GAS  /tmp/ccb3qL8s.s 			page 13


 514              		.loc 2 95 13 is_stmt 1 discriminator 1 view .LVU115
 515              	@ ../3-ComProcessos/Me.h:95:   for ( T ; T > 0 ; T-- ){
  95:../3-ComProcessos/Me.h ****   for ( T ; T > 0 ; T-- ){
 516              		.loc 2 95 15 is_stmt 0 discriminator 1 view .LVU116
 517 0168 019B     		ldr	r3, [sp, #4]	@ T.2_6, T
 518              	@ ../3-ComProcessos/Me.h:95:   for ( T ; T > 0 ; T-- ){
  95:../3-ComProcessos/Me.h ****   for ( T ; T > 0 ; T-- ){
 519              		.loc 2 95 3 discriminator 1 view .LVU117
 520 016a 0BB9     		cbnz	r3, .L30	@ T.2_6,
 521              	@ ../3-ComProcessos/Me.h:99: }
  97:../3-ComProcessos/Me.h ****    while ( TIM3->CNT < 5 ) ; /* 5 * 10-- Configurar para IR */
  98:../3-ComProcessos/Me.h ****   }
  99:../3-ComProcessos/Me.h **** }
 522              		.loc 2 99 1 view .LVU118
 523 016c 02B0     		add	sp, sp, #8	@,,
 524              	.LCFI3:
 525              		.cfi_remember_state
 526              		.cfi_def_cfa_offset 0
 527              		@ sp needed	@
 528 016e 7047     		bx	lr	@
 529              	.L30:
 530              	.LCFI4:
 531              		.cfi_restore_state
  96:../3-ComProcessos/Me.h ****    TIM3->EGR |= ( 1 << 0 );
 532              		.loc 2 96 4 is_stmt 1 view .LVU119
 533              	@ ../3-ComProcessos/Me.h:96:    TIM3->EGR |= ( 1 << 0 );
  96:../3-ComProcessos/Me.h ****    TIM3->EGR |= ( 1 << 0 );
 534              		.loc 2 96 14 is_stmt 0 view .LVU120
 535 0170 938A     		ldrh	r3, [r2, #20]	@, MEM[(struct TIM_TypeDef *)1073742848B].EGR
 536 0172 9BB2     		uxth	r3, r3	@ _1, MEM[(struct TIM_TypeDef *)1073742848B].EGR
 537 0174 43F00103 		orr	r3, r3, #1	@ _2, _1,
 538 0178 9382     		strh	r3, [r2, #20]	@ movhi	@ _2, MEM[(struct TIM_TypeDef *)1073742848B].EGR
  97:../3-ComProcessos/Me.h ****    while ( TIM3->CNT < 5 ) ; /* 5 * 10-- Configurar para IR */
 539              		.loc 2 97 4 is_stmt 1 view .LVU121
 540              	.L29:
  97:../3-ComProcessos/Me.h ****    while ( TIM3->CNT < 5 ) ; /* 5 * 10-- Configurar para IR */
 541              		.loc 2 97 28 discriminator 1 view .LVU122
  97:../3-ComProcessos/Me.h ****    while ( TIM3->CNT < 5 ) ; /* 5 * 10-- Configurar para IR */
 542              		.loc 2 97 10 discriminator 1 view .LVU123
 543              	@ ../3-ComProcessos/Me.h:97:    while ( TIM3->CNT < 5 ) ; /* 5 * 10-- Configurar para IR */
  97:../3-ComProcessos/Me.h ****    while ( TIM3->CNT < 5 ) ; /* 5 * 10-- Configurar para IR */
 544              		.loc 2 97 16 is_stmt 0 discriminator 1 view .LVU124
 545 017a 938C     		ldrh	r3, [r2, #36]	@, MEM[(struct TIM_TypeDef *)1073742848B].CNT
 546 017c 9BB2     		uxth	r3, r3	@ _3, MEM[(struct TIM_TypeDef *)1073742848B].CNT
 547              	@ ../3-ComProcessos/Me.h:97:    while ( TIM3->CNT < 5 ) ; /* 5 * 10-- Configurar para IR */
  97:../3-ComProcessos/Me.h ****    while ( TIM3->CNT < 5 ) ; /* 5 * 10-- Configurar para IR */
 548              		.loc 2 97 10 discriminator 1 view .LVU125
 549 017e 042B     		cmp	r3, #4	@ _3,
 550 0180 FBD9     		bls	.L29		@,
  95:../3-ComProcessos/Me.h ****    TIM3->EGR |= ( 1 << 0 );
 551              		.loc 2 95 21 is_stmt 1 discriminator 2 view .LVU126
 552              	@ ../3-ComProcessos/Me.h:95:   for ( T ; T > 0 ; T-- ){
  95:../3-ComProcessos/Me.h ****    TIM3->EGR |= ( 1 << 0 );
 553              		.loc 2 95 22 is_stmt 0 discriminator 2 view .LVU127
 554 0182 019B     		ldr	r3, [sp, #4]	@ T.1_4, T
 555 0184 013B     		subs	r3, r3, #1	@ _5, T.1_4,
 556 0186 0193     		str	r3, [sp, #4]	@ _5, T
ARM GAS  /tmp/ccb3qL8s.s 			page 14


 557 0188 EEE7     		b	.L28		@
 558              	.L33:
 559 018a 00BF     		.align	2
 560              	.L32:
 561 018c 00040040 		.word	1073742848
 562              		.cfi_endproc
 563              	.LFE31:
 564              		.size	Delay, .-Delay
 565              		.align	1
 566              		.global	enable_TIM3_delay
 567              		.syntax unified
 568              		.thumb
 569              		.thumb_func
 570              		.type	enable_TIM3_delay, %function
 571              	enable_TIM3_delay:
 572              	.LFB32:
 100:../3-ComProcessos/Me.h **** 
 101:../3-ComProcessos/Me.h **** void enable_TIM3_delay (void) {
 573              		.loc 2 101 31 is_stmt 1 view -0
 574              		.cfi_startproc
 575              		@ args = 0, pretend = 0, frame = 0
 576              		@ frame_needed = 0, uses_anonymous_args = 0
 577              		@ link register save eliminated.
 102:../3-ComProcessos/Me.h ****    RCC->APB1ENR |= 1<<1 ;
 578              		.loc 2 102 4 view .LVU129
 579              	@ ../3-ComProcessos/Me.h:102:    RCC->APB1ENR |= 1<<1 ;
 580              		.loc 2 102 17 is_stmt 0 view .LVU130
 581 0190 084A     		ldr	r2, .L35	@ tmp117,
 582 0192 D369     		ldr	r3, [r2, #28]	@ _1, MEM[(struct RCC_TypeDef *)1073876992B].APB1ENR
 583 0194 43F00203 		orr	r3, r3, #2	@ _2, _1,
 584 0198 D361     		str	r3, [r2, #28]	@ _2, MEM[(struct RCC_TypeDef *)1073876992B].APB1ENR
 103:../3-ComProcessos/Me.h ****    TIM3->CR1 = 0x0000;
 585              		.loc 2 103 4 is_stmt 1 view .LVU131
 586              	@ ../3-ComProcessos/Me.h:103:    TIM3->CR1 = 0x0000;
 587              		.loc 2 103 14 is_stmt 0 view .LVU132
 588 019a 0023     		movs	r3, #0	@ tmp121,
 589 019c A2F50332 		sub	r2, r2, #134144	@ tmp119, tmp119,
 590 01a0 1380     		strh	r3, [r2]	@ movhi	@ tmp121, MEM[(struct TIM_TypeDef *)1073742848B].CR1
 104:../3-ComProcessos/Me.h ****    //TIM3->ARR = 21699;
 105:../3-ComProcessos/Me.h ****    TIM3->ARR = 250-1; // 10µs
 591              		.loc 2 105 4 is_stmt 1 view .LVU133
 592              	@ ../3-ComProcessos/Me.h:105:    TIM3->ARR = 250-1; // 10µs
 593              		.loc 2 105 14 is_stmt 0 view .LVU134
 594 01a2 F923     		movs	r3, #249	@ tmp124,
 595 01a4 9385     		strh	r3, [r2, #44]	@ movhi	@ tmp124, MEM[(struct TIM_TypeDef *)1073742848B].ARR
 106:../3-ComProcessos/Me.h ****    // para obter o período de 868µs
 107:../3-ComProcessos/Me.h **** /*https://www.vishay.com/docs/80071/dataform.pdf PAG 2
 108:../3-ComProcessos/Me.h ****  * https://controllerstech.com/ir-remote-with-stm32/
 109:../3-ComProcessos/Me.h ****  * Per=(1+ARR)/Clock_system */
 110:../3-ComProcessos/Me.h ****    TIM3->CR1 |= 1<<0;
 596              		.loc 2 110 4 is_stmt 1 view .LVU135
 597              	@ ../3-ComProcessos/Me.h:110:    TIM3->CR1 |= 1<<0;
 598              		.loc 2 110 14 is_stmt 0 view .LVU136
 599 01a6 1388     		ldrh	r3, [r2]	@, MEM[(struct TIM_TypeDef *)1073742848B].CR1
 600 01a8 9BB2     		uxth	r3, r3	@ _3, MEM[(struct TIM_TypeDef *)1073742848B].CR1
 601 01aa 43F00103 		orr	r3, r3, #1	@ _4, _3,
 602 01ae 1380     		strh	r3, [r2]	@ movhi	@ _4, MEM[(struct TIM_TypeDef *)1073742848B].CR1
ARM GAS  /tmp/ccb3qL8s.s 			page 15


 603              	@ ../3-ComProcessos/Me.h:111: }
 111:../3-ComProcessos/Me.h **** }
 604              		.loc 2 111 1 view .LVU137
 605 01b0 7047     		bx	lr	@
 606              	.L36:
 607 01b2 00BF     		.align	2
 608              	.L35:
 609 01b4 00100240 		.word	1073876992
 610              		.cfi_endproc
 611              	.LFE32:
 612              		.size	enable_TIM3_delay, .-enable_TIM3_delay
 613              		.align	1
 614              		.global	enable_interrupt
 615              		.syntax unified
 616              		.thumb
 617              		.thumb_func
 618              		.type	enable_interrupt, %function
 619              	enable_interrupt:
 620              	.LVL12:
 621              	.LFB33:
 112:../3-ComProcessos/Me.h **** 
 113:../3-ComProcessos/Me.h **** void enable_interrupt(IRQn_Type IRQn)
 114:../3-ComProcessos/Me.h **** {
 622              		.loc 2 114 1 is_stmt 1 view -0
 623              		.cfi_startproc
 624              		@ args = 0, pretend = 0, frame = 0
 625              		@ frame_needed = 0, uses_anonymous_args = 0
 626              		@ link register save eliminated.
 115:../3-ComProcessos/Me.h ****    NVIC->ISER[((uint32_t)(IRQn) >> 5)] = (1 << ((uint32_t)(IRQn) & 0x1F));
 627              		.loc 2 115 4 view .LVU139
 628              	@ ../3-ComProcessos/Me.h:115:    NVIC->ISER[((uint32_t)(IRQn) >> 5)] = (1 << ((uint32_t)(IRQn) & 0x
 629              		.loc 2 115 45 is_stmt 0 view .LVU140
 630 01b8 0123     		movs	r3, #1	@ tmp124,
 631              	@ ../3-ComProcessos/Me.h:115:    NVIC->ISER[((uint32_t)(IRQn) >> 5)] = (1 << ((uint32_t)(IRQn) & 0x
 632              		.loc 2 115 33 view .LVU141
 633 01ba 4209     		lsrs	r2, r0, #5	@ _6, IRQn,
 634              	@ ../3-ComProcessos/Me.h:115:    NVIC->ISER[((uint32_t)(IRQn) >> 5)] = (1 << ((uint32_t)(IRQn) & 0x
 635              		.loc 2 115 66 view .LVU142
 636 01bc 00F01F00 		and	r0, r0, #31	@ tmp123, IRQn,
 637              	.LVL13:
 638              	@ ../3-ComProcessos/Me.h:115:    NVIC->ISER[((uint32_t)(IRQn) >> 5)] = (1 << ((uint32_t)(IRQn) & 0x
 639              		.loc 2 115 45 view .LVU143
 640 01c0 03FA00F0 		lsl	r0, r3, r0	@ _7, tmp124, tmp123
 641              	@ ../3-ComProcessos/Me.h:115:    NVIC->ISER[((uint32_t)(IRQn) >> 5)] = (1 << ((uint32_t)(IRQn) & 0x
 642              		.loc 2 115 40 view .LVU144
 643 01c4 014B     		ldr	r3, .L38	@ tmp125,
 644 01c6 43F82200 		str	r0, [r3, r2, lsl #2]	@ _7, MEM[(struct NVIC_Type *)3758153984B].ISER[_6]
 645              	@ ../3-ComProcessos/Me.h:116: }  
 116:../3-ComProcessos/Me.h **** }  
 646              		.loc 2 116 1 view .LVU145
 647 01ca 7047     		bx	lr	@
 648              	.L39:
 649              		.align	2
 650              	.L38:
 651 01cc 00E100E0 		.word	-536813312
 652              		.cfi_endproc
 653              	.LFE33:
ARM GAS  /tmp/ccb3qL8s.s 			page 16


 654              		.size	enable_interrupt, .-enable_interrupt
 655              		.align	1
 656              		.global	disable_interrupt
 657              		.syntax unified
 658              		.thumb
 659              		.thumb_func
 660              		.type	disable_interrupt, %function
 661              	disable_interrupt:
 662              	.LVL14:
 663              	.LFB34:
 117:../3-ComProcessos/Me.h ****    
 118:../3-ComProcessos/Me.h **** /* 
 119:../3-ComProcessos/Me.h ****  * Disable given interrupt
 120:../3-ComProcessos/Me.h ****  */
 121:../3-ComProcessos/Me.h **** void disable_interrupt(IRQn_Type IRQn)
 122:../3-ComProcessos/Me.h **** {
 664              		.loc 2 122 1 is_stmt 1 view -0
 665              		.cfi_startproc
 666              		@ args = 0, pretend = 0, frame = 0
 667              		@ frame_needed = 0, uses_anonymous_args = 0
 668              		@ link register save eliminated.
 123:../3-ComProcessos/Me.h ****    NVIC->ICER[((uint32_t)(IRQn) >> 5)] = (1 << ((uint32_t)(IRQn) & 0x1F));
 669              		.loc 2 123 4 view .LVU147
 670              	@ ../3-ComProcessos/Me.h:123:    NVIC->ICER[((uint32_t)(IRQn) >> 5)] = (1 << ((uint32_t)(IRQn) & 0x
 671              		.loc 2 123 45 is_stmt 0 view .LVU148
 672 01d0 0122     		movs	r2, #1	@ tmp124,
 673              	@ ../3-ComProcessos/Me.h:123:    NVIC->ICER[((uint32_t)(IRQn) >> 5)] = (1 << ((uint32_t)(IRQn) & 0x
 674              		.loc 2 123 33 view .LVU149
 675 01d2 4309     		lsrs	r3, r0, #5	@ _6, IRQn,
 676              	@ ../3-ComProcessos/Me.h:123:    NVIC->ICER[((uint32_t)(IRQn) >> 5)] = (1 << ((uint32_t)(IRQn) & 0x
 677              		.loc 2 123 66 view .LVU150
 678 01d4 00F01F00 		and	r0, r0, #31	@ tmp123, IRQn,
 679              	.LVL15:
 680              	@ ../3-ComProcessos/Me.h:123:    NVIC->ICER[((uint32_t)(IRQn) >> 5)] = (1 << ((uint32_t)(IRQn) & 0x
 681              		.loc 2 123 45 view .LVU151
 682 01d8 02FA00F0 		lsl	r0, r2, r0	@ _7, tmp124, tmp123
 683              	@ ../3-ComProcessos/Me.h:123:    NVIC->ICER[((uint32_t)(IRQn) >> 5)] = (1 << ((uint32_t)(IRQn) & 0x
 684              		.loc 2 123 40 view .LVU152
 685 01dc 024A     		ldr	r2, .L41	@ tmp125,
 686 01de 2033     		adds	r3, r3, #32	@ tmp126, _6,
 687 01e0 42F82300 		str	r0, [r2, r3, lsl #2]	@ _7, MEM[(struct NVIC_Type *)3758153984B].ICER[_6]
 688              	@ ../3-ComProcessos/Me.h:124: }
 124:../3-ComProcessos/Me.h **** }
 689              		.loc 2 124 1 view .LVU153
 690 01e4 7047     		bx	lr	@
 691              	.L42:
 692 01e6 00BF     		.align	2
 693              	.L41:
 694 01e8 00E100E0 		.word	-536813312
 695              		.cfi_endproc
 696              	.LFE34:
 697              		.size	disable_interrupt, .-disable_interrupt
 698              		.section	.rodata.str1.1
 699              	.LC1:
 700 000d 3100     		.ascii	"1\000"
 701              	.LC2:
 702 000f 3200     		.ascii	"2\000"
ARM GAS  /tmp/ccb3qL8s.s 			page 17


 703              	.LC3:
 704 0011 3300     		.ascii	"3\000"
 705              		.section	.text.startup,"ax",%progbits
 706              		.align	1
 707              		.global	main
 708              		.syntax unified
 709              		.thumb
 710              		.thumb_func
 711              		.type	main, %function
 712              	main:
 713              	.LFB43:
  42:../3-ComProcessos/main.c **** }
  43:../3-ComProcessos/main.c **** 
  44:../3-ComProcessos/main.c **** int main(void) {
 714              		.loc 1 44 16 is_stmt 1 view -0
 715              		.cfi_startproc
 716              		@ Volatile: function does not return.
 717              		@ args = 0, pretend = 0, frame = 0
 718              		@ frame_needed = 0, uses_anonymous_args = 0
  45:../3-ComProcessos/main.c **** 	xQueue = xQueueCreate(5 /* Tamanho máximo da fila. */,
 719              		.loc 1 45 2 view .LVU155
 720              	@ ../3-ComProcessos/main.c:53: 	xTaskCreate(task1,"1", 100 ,NULL, 4 ,NULL);
  46:../3-ComProcessos/main.c **** 								sizeof(u32) /* Largura máxima da fila. */);
  47:../3-ComProcessos/main.c **** 
  48:../3-ComProcessos/main.c **** 	set_system_clock_to_72Mhz();
  49:../3-ComProcessos/main.c **** // display Init 
  50:../3-ComProcessos/main.c **** 
  51:../3-ComProcessos/main.c **** 	lcd16x2_init(LCD16X2_DISPLAY_ON_CURSOR_OFF_BLINK_OFF);
  52:../3-ComProcessos/main.c **** 
  53:../3-ComProcessos/main.c **** 	xTaskCreate(task1,"1", 100 ,NULL, 4 ,NULL);
 721              		.loc 1 53 2 is_stmt 0 view .LVU156
 722 0000 0024     		movs	r4, #0	@ tmp116,
 723 0002 0425     		movs	r5, #4	@ tmp117,
 724              	@ ../3-ComProcessos/main.c:44: int main(void) {
  44:../3-ComProcessos/main.c **** 	xQueue = xQueueCreate(5 /* Tamanho máximo da fila. */,
 725              		.loc 1 44 16 view .LVU157
 726 0004 07B5     		push	{r0, r1, r2, lr}	@
 727              	.LCFI5:
 728              		.cfi_def_cfa_offset 16
 729              		.cfi_offset 14, -4
 730              	@ ../3-ComProcessos/main.c:45: 	xQueue = xQueueCreate(5 /* Tamanho máximo da fila. */,
  45:../3-ComProcessos/main.c **** 	xQueue = xQueueCreate(5 /* Tamanho máximo da fila. */,
 731              		.loc 1 45 11 view .LVU158
 732 0006 0022     		movs	r2, #0	@,
 733 0008 0421     		movs	r1, #4	@,
 734 000a 0520     		movs	r0, #5	@,
 735 000c FFF7FEFF 		bl	xQueueGenericCreate		@
 736              	.LVL16:
  48:../3-ComProcessos/main.c **** // display Init 
 737              		.loc 1 48 2 is_stmt 1 view .LVU159
 738              	@ ../3-ComProcessos/main.c:51: 	lcd16x2_init(LCD16X2_DISPLAY_ON_CURSOR_OFF_BLINK_OFF);
  51:../3-ComProcessos/main.c **** 
 739              		.loc 1 51 2 is_stmt 0 view .LVU160
 740 0010 0420     		movs	r0, #4	@,
 741              	@ ../3-ComProcessos/main.c:48: 	set_system_clock_to_72Mhz();
  48:../3-ComProcessos/main.c **** // display Init 
 742              		.loc 1 48 2 view .LVU161
ARM GAS  /tmp/ccb3qL8s.s 			page 18


 743 0012 FFF7FEFF 		bl	set_system_clock_to_72Mhz		@
 744              	.LVL17:
  51:../3-ComProcessos/main.c **** 
 745              		.loc 1 51 2 is_stmt 1 view .LVU162
 746 0016 FFF7FEFF 		bl	lcd16x2_init		@
 747              	.LVL18:
 748              		.loc 1 53 2 view .LVU163
 749 001a 2346     		mov	r3, r4	@, tmp116
 750 001c 6422     		movs	r2, #100	@,
 751 001e 0C49     		ldr	r1, .L45	@,
 752 0020 CDE90054 		strd	r5, r4, [sp]	@ tmp117, tmp116,
 753 0024 0B48     		ldr	r0, .L45+4	@,
 754 0026 FFF7FEFF 		bl	xTaskCreate		@
 755              	.LVL19:
  54:../3-ComProcessos/main.c **** 	xTaskCreate(task2, "2", 100 , NULL, 4 , NULL);
 756              		.loc 1 54 2 view .LVU164
 757 002a 2346     		mov	r3, r4	@, tmp116
 758 002c 6422     		movs	r2, #100	@,
 759 002e 0A49     		ldr	r1, .L45+8	@,
 760 0030 CDE90054 		strd	r5, r4, [sp]	@ tmp117, tmp116,
 761 0034 0948     		ldr	r0, .L45+12	@,
 762 0036 FFF7FEFF 		bl	xTaskCreate		@
 763              	.LVL20:
  55:../3-ComProcessos/main.c **** 	xTaskCreate(task3, "3", 100 , NULL, 4 , NULL);
 764              		.loc 1 55 2 view .LVU165
 765 003a 2346     		mov	r3, r4	@, tmp116
 766 003c 6422     		movs	r2, #100	@,
 767 003e 0849     		ldr	r1, .L45+16	@,
 768 0040 CDE90054 		strd	r5, r4, [sp]	@ tmp117, tmp116,
 769 0044 0748     		ldr	r0, .L45+20	@,
 770 0046 FFF7FEFF 		bl	xTaskCreate		@
 771              	.LVL21:
  56:../3-ComProcessos/main.c **** 
  57:../3-ComProcessos/main.c **** 	vTaskStartScheduler(); // inicia o escalonador de
 772              		.loc 1 57 2 view .LVU166
 773 004a FFF7FEFF 		bl	vTaskStartScheduler		@
 774              	.LVL22:
 775              	.L44:
  58:../3-ComProcessos/main.c **** 								  // processos.
  59:../3-ComProcessos/main.c **** 	while(1);
 776              		.loc 1 59 2 discriminator 1 view .LVU167
 777              		.loc 1 59 10 discriminator 1 view .LVU168
 778              		.loc 1 59 7 discriminator 1 view .LVU169
 779 004e FEE7     		b	.L44		@
 780              	.L46:
 781              		.align	2
 782              	.L45:
 783 0050 0D000000 		.word	.LC1
 784 0054 00000000 		.word	task1
 785 0058 0F000000 		.word	.LC2
 786 005c 00000000 		.word	task2
 787 0060 11000000 		.word	.LC3
 788 0064 00000000 		.word	task3
 789              		.cfi_endproc
 790              	.LFE43:
 791              		.size	main, .-main
 792              		.text
ARM GAS  /tmp/ccb3qL8s.s 			page 19


 793              	.Letext0:
 794              		.file 3 "../stm32f10x_lib/CMSIS/CM3/DeviceSupport/ST/STM32F10x/stm32f10x.h"
 795              		.file 4 "/usr/arm-none-eabi/include/machine/_default_types.h"
 796              		.file 5 "/usr/arm-none-eabi/include/sys/_stdint.h"
 797              		.file 6 "../stm32f10x_lib/CMSIS/CM3/CoreSupport/core_cm3.h"
 798              		.file 7 "../freertos/include/queue.h"
 799              		.file 8 "../3-ComProcessos/lcd16x2.h"
 800              		.file 9 "../freertos/include/task.h"
 801              		.file 10 "../3-ComProcessos/delay.h"
 802              		.section	.debug_info,"",%progbits
 803              	.Ldebug_info0:
 804 0000 E30C0000 		.4byte	0xce3
 805 0004 0200     		.2byte	0x2
 806 0006 00000000 		.4byte	.Ldebug_abbrev0
 807 000a 04       		.byte	0x4
 808 000b 01       		.uleb128 0x1
 809 000c 36030000 		.4byte	.LASF162
 810 0010 0C       		.byte	0xc
 811 0011 B6040000 		.4byte	.LASF163
 812 0015 13040000 		.4byte	.LASF164
 813 0019 00000000 		.4byte	.Ldebug_ranges0+0
 814 001d 00000000 		.4byte	0
 815 0021 00000000 		.4byte	0
 816 0025 00000000 		.4byte	.Ldebug_line0
 817 0029 02       		.uleb128 0x2
 818 002a E3030000 		.4byte	.LASF147
 819 002e 05       		.byte	0x5
 820 002f 01       		.byte	0x1
 821 0030 6E010000 		.4byte	0x16e
 822 0034 03       		.byte	0x3
 823 0035 A7       		.byte	0xa7
 824 0036 0E       		.byte	0xe
 825 0037 6E010000 		.4byte	0x16e
 826 003b 03       		.uleb128 0x3
 827 003c A5060000 		.4byte	.LASF0
 828 0040 72       		.sleb128 -14
 829 0041 03       		.uleb128 0x3
 830 0042 9C020000 		.4byte	.LASF1
 831 0046 74       		.sleb128 -12
 832 0047 03       		.uleb128 0x3
 833 0048 4F020000 		.4byte	.LASF2
 834 004c 75       		.sleb128 -11
 835 004d 03       		.uleb128 0x3
 836 004e 3E060000 		.4byte	.LASF3
 837 0052 76       		.sleb128 -10
 838 0053 03       		.uleb128 0x3
 839 0054 52040000 		.4byte	.LASF4
 840 0058 7B       		.sleb128 -5
 841 0059 03       		.uleb128 0x3
 842 005a FC060000 		.4byte	.LASF5
 843 005e 7C       		.sleb128 -4
 844 005f 03       		.uleb128 0x3
 845 0060 F5010000 		.4byte	.LASF6
 846 0064 7E       		.sleb128 -2
 847 0065 03       		.uleb128 0x3
 848 0066 C0030000 		.4byte	.LASF7
 849 006a 7F       		.sleb128 -1
ARM GAS  /tmp/ccb3qL8s.s 			page 20


 850 006b 04       		.uleb128 0x4
 851 006c 99000000 		.4byte	.LASF8
 852 0070 00       		.byte	0
 853 0071 04       		.uleb128 0x4
 854 0072 0A000000 		.4byte	.LASF9
 855 0076 01       		.byte	0x1
 856 0077 04       		.uleb128 0x4
 857 0078 D4060000 		.4byte	.LASF10
 858 007c 02       		.byte	0x2
 859 007d 04       		.uleb128 0x4
 860 007e 4D000000 		.4byte	.LASF11
 861 0082 03       		.byte	0x3
 862 0083 04       		.uleb128 0x4
 863 0084 F8050000 		.4byte	.LASF12
 864 0088 04       		.byte	0x4
 865 0089 04       		.uleb128 0x4
 866 008a B7070000 		.4byte	.LASF13
 867 008e 05       		.byte	0x5
 868 008f 04       		.uleb128 0x4
 869 0090 D8000000 		.4byte	.LASF14
 870 0094 06       		.byte	0x6
 871 0095 04       		.uleb128 0x4
 872 0096 CA070000 		.4byte	.LASF15
 873 009a 07       		.byte	0x7
 874 009b 04       		.uleb128 0x4
 875 009c 8E000000 		.4byte	.LASF16
 876 00a0 08       		.byte	0x8
 877 00a1 04       		.uleb128 0x4
 878 00a2 3F070000 		.4byte	.LASF17
 879 00a6 09       		.byte	0x9
 880 00a7 04       		.uleb128 0x4
 881 00a8 97050000 		.4byte	.LASF18
 882 00ac 0A       		.byte	0xa
 883 00ad 04       		.uleb128 0x4
 884 00ae DE040000 		.4byte	.LASF19
 885 00b2 0B       		.byte	0xb
 886 00b3 04       		.uleb128 0x4
 887 00b4 00040000 		.4byte	.LASF20
 888 00b8 0C       		.byte	0xc
 889 00b9 04       		.uleb128 0x4
 890 00ba 5F060000 		.4byte	.LASF21
 891 00be 0D       		.byte	0xd
 892 00bf 04       		.uleb128 0x4
 893 00c0 14020000 		.4byte	.LASF22
 894 00c4 0E       		.byte	0xe
 895 00c5 04       		.uleb128 0x4
 896 00c6 FC020000 		.4byte	.LASF23
 897 00ca 0F       		.byte	0xf
 898 00cb 04       		.uleb128 0x4
 899 00cc B9060000 		.4byte	.LASF24
 900 00d0 10       		.byte	0x10
 901 00d1 04       		.uleb128 0x4
 902 00d2 7A070000 		.4byte	.LASF25
 903 00d6 11       		.byte	0x11
 904 00d7 04       		.uleb128 0x4
 905 00d8 DA010000 		.4byte	.LASF26
 906 00dc 12       		.byte	0x12
ARM GAS  /tmp/ccb3qL8s.s 			page 21


 907 00dd 04       		.uleb128 0x4
 908 00de 83050000 		.4byte	.LASF27
 909 00e2 13       		.byte	0x13
 910 00e3 04       		.uleb128 0x4
 911 00e4 C4050000 		.4byte	.LASF28
 912 00e8 14       		.byte	0x14
 913 00e9 04       		.uleb128 0x4
 914 00ea 56000000 		.4byte	.LASF29
 915 00ee 15       		.byte	0x15
 916 00ef 04       		.uleb128 0x4
 917 00f0 A9070000 		.4byte	.LASF30
 918 00f4 16       		.byte	0x16
 919 00f5 04       		.uleb128 0x4
 920 00f6 AB010000 		.4byte	.LASF31
 921 00fa 17       		.byte	0x17
 922 00fb 04       		.uleb128 0x4
 923 00fc 84060000 		.4byte	.LASF32
 924 0100 18       		.byte	0x18
 925 0101 04       		.uleb128 0x4
 926 0102 E0060000 		.4byte	.LASF33
 927 0106 19       		.byte	0x19
 928 0107 04       		.uleb128 0x4
 929 0108 18000000 		.4byte	.LASF34
 930 010c 1A       		.byte	0x1a
 931 010d 04       		.uleb128 0x4
 932 010e CD030000 		.4byte	.LASF35
 933 0112 1B       		.byte	0x1b
 934 0113 04       		.uleb128 0x4
 935 0114 1F070000 		.4byte	.LASF36
 936 0118 1C       		.byte	0x1c
 937 0119 04       		.uleb128 0x4
 938 011a C0070000 		.4byte	.LASF37
 939 011e 1D       		.byte	0x1d
 940 011f 04       		.uleb128 0x4
 941 0120 76000000 		.4byte	.LASF38
 942 0124 1E       		.byte	0x1e
 943 0125 04       		.uleb128 0x4
 944 0126 2A000000 		.4byte	.LASF39
 945 012a 1F       		.byte	0x1f
 946 012b 04       		.uleb128 0x4
 947 012c 92070000 		.4byte	.LASF40
 948 0130 20       		.byte	0x20
 949 0131 04       		.uleb128 0x4
 950 0132 5E040000 		.4byte	.LASF41
 951 0136 21       		.byte	0x21
 952 0137 04       		.uleb128 0x4
 953 0138 69000000 		.4byte	.LASF42
 954 013c 22       		.byte	0x22
 955 013d 04       		.uleb128 0x4
 956 013e B6030000 		.4byte	.LASF43
 957 0142 23       		.byte	0x23
 958 0143 04       		.uleb128 0x4
 959 0144 82040000 		.4byte	.LASF44
 960 0148 24       		.byte	0x24
 961 0149 04       		.uleb128 0x4
 962 014a 14030000 		.4byte	.LASF45
 963 014e 25       		.byte	0x25
ARM GAS  /tmp/ccb3qL8s.s 			page 22


 964 014f 04       		.uleb128 0x4
 965 0150 32060000 		.4byte	.LASF46
 966 0154 26       		.byte	0x26
 967 0155 04       		.uleb128 0x4
 968 0156 0E070000 		.4byte	.LASF47
 969 015a 27       		.byte	0x27
 970 015b 04       		.uleb128 0x4
 971 015c 27030000 		.4byte	.LASF48
 972 0160 28       		.byte	0x28
 973 0161 04       		.uleb128 0x4
 974 0162 97060000 		.4byte	.LASF49
 975 0166 29       		.byte	0x29
 976 0167 04       		.uleb128 0x4
 977 0168 ED060000 		.4byte	.LASF50
 978 016c 2A       		.byte	0x2a
 979 016d 00       		.byte	0
 980 016e 05       		.uleb128 0x5
 981 016f 01       		.byte	0x1
 982 0170 06       		.byte	0x6
 983 0171 C7000000 		.4byte	.LASF53
 984 0175 06       		.uleb128 0x6
 985 0176 15060000 		.4byte	.LASF51
 986 017a 03       		.byte	0x3
 987 017b D801     		.2byte	0x1d8
 988 017d 03       		.byte	0x3
 989 017e 29000000 		.4byte	0x29
 990 0182 07       		.uleb128 0x7
 991 0183 37000000 		.4byte	.LASF52
 992 0187 04       		.byte	0x4
 993 0188 2B       		.byte	0x2b
 994 0189 18       		.byte	0x18
 995 018a 8E010000 		.4byte	0x18e
 996 018e 05       		.uleb128 0x5
 997 018f 01       		.byte	0x1
 998 0190 08       		.byte	0x8
 999 0191 75050000 		.4byte	.LASF54
 1000 0195 05       		.uleb128 0x5
 1001 0196 02       		.byte	0x2
 1002 0197 05       		.byte	0x5
 1003 0198 A2050000 		.4byte	.LASF55
 1004 019c 07       		.uleb128 0x7
 1005 019d 27020000 		.4byte	.LASF56
 1006 01a1 04       		.byte	0x4
 1007 01a2 39       		.byte	0x39
 1008 01a3 19       		.byte	0x19
 1009 01a4 A8010000 		.4byte	0x1a8
 1010 01a8 05       		.uleb128 0x5
 1011 01a9 02       		.byte	0x2
 1012 01aa 07       		.byte	0x7
 1013 01ab 01020000 		.4byte	.LASF57
 1014 01af 05       		.uleb128 0x5
 1015 01b0 04       		.byte	0x4
 1016 01b1 05       		.byte	0x5
 1017 01b2 99010000 		.4byte	.LASF58
 1018 01b6 07       		.uleb128 0x7
 1019 01b7 32020000 		.4byte	.LASF59
 1020 01bb 04       		.byte	0x4
ARM GAS  /tmp/ccb3qL8s.s 			page 23


 1021 01bc 4F       		.byte	0x4f
 1022 01bd 19       		.byte	0x19
 1023 01be C2010000 		.4byte	0x1c2
 1024 01c2 05       		.uleb128 0x5
 1025 01c3 04       		.byte	0x4
 1026 01c4 07       		.byte	0x7
 1027 01c5 B2020000 		.4byte	.LASF60
 1028 01c9 05       		.uleb128 0x5
 1029 01ca 08       		.byte	0x8
 1030 01cb 05       		.byte	0x5
 1031 01cc B9000000 		.4byte	.LASF61
 1032 01d0 05       		.uleb128 0x5
 1033 01d1 08       		.byte	0x8
 1034 01d2 07       		.byte	0x7
 1035 01d3 FC000000 		.4byte	.LASF62
 1036 01d7 08       		.uleb128 0x8
 1037 01d8 04       		.byte	0x4
 1038 01d9 05       		.byte	0x5
 1039 01da 696E7400 		.ascii	"int\000"
 1040 01de 05       		.uleb128 0x5
 1041 01df 04       		.byte	0x4
 1042 01e0 07       		.byte	0x7
 1043 01e1 8F020000 		.4byte	.LASF63
 1044 01e5 07       		.uleb128 0x7
 1045 01e6 50070000 		.4byte	.LASF64
 1046 01ea 05       		.byte	0x5
 1047 01eb 18       		.byte	0x18
 1048 01ec 13       		.byte	0x13
 1049 01ed 82010000 		.4byte	0x182
 1050 01f1 09       		.uleb128 0x9
 1051 01f2 E5010000 		.4byte	0x1e5
 1052 01f6 07       		.uleb128 0x7
 1053 01f7 C5010000 		.4byte	.LASF65
 1054 01fb 05       		.byte	0x5
 1055 01fc 24       		.byte	0x24
 1056 01fd 14       		.byte	0x14
 1057 01fe 9C010000 		.4byte	0x19c
 1058 0202 09       		.uleb128 0x9
 1059 0203 F6010000 		.4byte	0x1f6
 1060 0207 07       		.uleb128 0x7
 1061 0208 1F060000 		.4byte	.LASF66
 1062 020c 05       		.byte	0x5
 1063 020d 30       		.byte	0x30
 1064 020e 14       		.byte	0x14
 1065 020f B6010000 		.4byte	0x1b6
 1066 0213 09       		.uleb128 0x9
 1067 0214 07020000 		.4byte	0x207
 1068 0218 0A       		.uleb128 0xa
 1069 0219 040E     		.2byte	0xe04
 1070 021b 06       		.byte	0x6
 1071 021c 84       		.byte	0x84
 1072 021d 09       		.byte	0x9
 1073 021e F0020000 		.4byte	0x2f0
 1074 0222 0B       		.uleb128 0xb
 1075 0223 AC050000 		.4byte	.LASF67
 1076 0227 06       		.byte	0x6
 1077 0228 86       		.byte	0x86
ARM GAS  /tmp/ccb3qL8s.s 			page 24


 1078 0229 11       		.byte	0x11
 1079 022a 00030000 		.4byte	0x300
 1080 022e 02       		.byte	0x2
 1081 022f 23       		.byte	0x23
 1082 0230 00       		.uleb128 0
 1083 0231 0B       		.uleb128 0xb
 1084 0232 F1040000 		.4byte	.LASF68
 1085 0236 06       		.byte	0x6
 1086 0237 87       		.byte	0x87
 1087 0238 11       		.byte	0x11
 1088 0239 05030000 		.4byte	0x305
 1089 023d 02       		.byte	0x2
 1090 023e 23       		.byte	0x23
 1091 023f 20       		.uleb128 0x20
 1092 0240 0B       		.uleb128 0xb
 1093 0241 A9040000 		.4byte	.LASF69
 1094 0245 06       		.byte	0x6
 1095 0246 88       		.byte	0x88
 1096 0247 11       		.byte	0x11
 1097 0248 00030000 		.4byte	0x300
 1098 024c 03       		.byte	0x3
 1099 024d 23       		.byte	0x23
 1100 024e 8001     		.uleb128 0x80
 1101 0250 0B       		.uleb128 0xb
 1102 0251 58070000 		.4byte	.LASF70
 1103 0255 06       		.byte	0x6
 1104 0256 89       		.byte	0x89
 1105 0257 11       		.byte	0x11
 1106 0258 05030000 		.4byte	0x305
 1107 025c 03       		.byte	0x3
 1108 025d 23       		.byte	0x23
 1109 025e A001     		.uleb128 0xa0
 1110 0260 0B       		.uleb128 0xb
 1111 0261 A3000000 		.4byte	.LASF71
 1112 0265 06       		.byte	0x6
 1113 0266 8A       		.byte	0x8a
 1114 0267 11       		.byte	0x11
 1115 0268 00030000 		.4byte	0x300
 1116 026c 03       		.byte	0x3
 1117 026d 23       		.byte	0x23
 1118 026e 8002     		.uleb128 0x100
 1119 0270 0B       		.uleb128 0xb
 1120 0271 05050000 		.4byte	.LASF72
 1121 0275 06       		.byte	0x6
 1122 0276 8B       		.byte	0x8b
 1123 0277 11       		.byte	0x11
 1124 0278 05030000 		.4byte	0x305
 1125 027c 03       		.byte	0x3
 1126 027d 23       		.byte	0x23
 1127 027e A002     		.uleb128 0x120
 1128 0280 0B       		.uleb128 0xb
 1129 0281 00000000 		.4byte	.LASF73
 1130 0285 06       		.byte	0x6
 1131 0286 8C       		.byte	0x8c
 1132 0287 11       		.byte	0x11
 1133 0288 00030000 		.4byte	0x300
 1134 028c 03       		.byte	0x3
ARM GAS  /tmp/ccb3qL8s.s 			page 25


 1135 028d 23       		.byte	0x23
 1136 028e 8003     		.uleb128 0x180
 1137 0290 0B       		.uleb128 0xb
 1138 0291 0F050000 		.4byte	.LASF74
 1139 0295 06       		.byte	0x6
 1140 0296 8D       		.byte	0x8d
 1141 0297 11       		.byte	0x11
 1142 0298 05030000 		.4byte	0x305
 1143 029c 03       		.byte	0x3
 1144 029d 23       		.byte	0x23
 1145 029e A003     		.uleb128 0x1a0
 1146 02a0 0B       		.uleb128 0xb
 1147 02a1 77040000 		.4byte	.LASF75
 1148 02a5 06       		.byte	0x6
 1149 02a6 8E       		.byte	0x8e
 1150 02a7 11       		.byte	0x11
 1151 02a8 00030000 		.4byte	0x300
 1152 02ac 03       		.byte	0x3
 1153 02ad 23       		.byte	0x23
 1154 02ae 8004     		.uleb128 0x200
 1155 02b0 0B       		.uleb128 0xb
 1156 02b1 19050000 		.4byte	.LASF76
 1157 02b5 06       		.byte	0x6
 1158 02b6 8F       		.byte	0x8f
 1159 02b7 11       		.byte	0x11
 1160 02b8 15030000 		.4byte	0x315
 1161 02bc 03       		.byte	0x3
 1162 02bd 23       		.byte	0x23
 1163 02be A004     		.uleb128 0x220
 1164 02c0 0C       		.uleb128 0xc
 1165 02c1 495000   		.ascii	"IP\000"
 1166 02c4 06       		.byte	0x6
 1167 02c5 90       		.byte	0x90
 1168 02c6 11       		.byte	0x11
 1169 02c7 35030000 		.4byte	0x335
 1170 02cb 03       		.byte	0x3
 1171 02cc 23       		.byte	0x23
 1172 02cd 8006     		.uleb128 0x300
 1173 02cf 0B       		.uleb128 0xb
 1174 02d0 23050000 		.4byte	.LASF77
 1175 02d4 06       		.byte	0x6
 1176 02d5 91       		.byte	0x91
 1177 02d6 11       		.byte	0x11
 1178 02d7 3A030000 		.4byte	0x33a
 1179 02db 03       		.byte	0x3
 1180 02dc 23       		.byte	0x23
 1181 02dd F007     		.uleb128 0x3f0
 1182 02df 0B       		.uleb128 0xb
 1183 02e0 61070000 		.4byte	.LASF78
 1184 02e4 06       		.byte	0x6
 1185 02e5 92       		.byte	0x92
 1186 02e6 11       		.byte	0x11
 1187 02e7 13020000 		.4byte	0x213
 1188 02eb 03       		.byte	0x3
 1189 02ec 23       		.byte	0x23
 1190 02ed 801C     		.uleb128 0xe00
 1191 02ef 00       		.byte	0
ARM GAS  /tmp/ccb3qL8s.s 			page 26


 1192 02f0 0D       		.uleb128 0xd
 1193 02f1 13020000 		.4byte	0x213
 1194 02f5 00030000 		.4byte	0x300
 1195 02f9 0E       		.uleb128 0xe
 1196 02fa DE010000 		.4byte	0x1de
 1197 02fe 07       		.byte	0x7
 1198 02ff 00       		.byte	0
 1199 0300 09       		.uleb128 0x9
 1200 0301 F0020000 		.4byte	0x2f0
 1201 0305 0D       		.uleb128 0xd
 1202 0306 07020000 		.4byte	0x207
 1203 030a 15030000 		.4byte	0x315
 1204 030e 0E       		.uleb128 0xe
 1205 030f DE010000 		.4byte	0x1de
 1206 0313 17       		.byte	0x17
 1207 0314 00       		.byte	0
 1208 0315 0D       		.uleb128 0xd
 1209 0316 07020000 		.4byte	0x207
 1210 031a 25030000 		.4byte	0x325
 1211 031e 0E       		.uleb128 0xe
 1212 031f DE010000 		.4byte	0x1de
 1213 0323 37       		.byte	0x37
 1214 0324 00       		.byte	0
 1215 0325 0D       		.uleb128 0xd
 1216 0326 F1010000 		.4byte	0x1f1
 1217 032a 35030000 		.4byte	0x335
 1218 032e 0E       		.uleb128 0xe
 1219 032f DE010000 		.4byte	0x1de
 1220 0333 EF       		.byte	0xef
 1221 0334 00       		.byte	0
 1222 0335 09       		.uleb128 0x9
 1223 0336 25030000 		.4byte	0x325
 1224 033a 0D       		.uleb128 0xd
 1225 033b 07020000 		.4byte	0x207
 1226 033f 4B030000 		.4byte	0x34b
 1227 0343 0F       		.uleb128 0xf
 1228 0344 DE010000 		.4byte	0x1de
 1229 0348 8302     		.2byte	0x283
 1230 034a 00       		.byte	0
 1231 034b 07       		.uleb128 0x7
 1232 034c B1050000 		.4byte	.LASF79
 1233 0350 06       		.byte	0x6
 1234 0351 93       		.byte	0x93
 1235 0352 04       		.byte	0x4
 1236 0353 18020000 		.4byte	0x218
 1237 0357 10       		.uleb128 0x10
 1238 0358 75333200 		.ascii	"u32\000"
 1239 035c 03       		.byte	0x3
 1240 035d F701     		.2byte	0x1f7
 1241 035f 13       		.byte	0x13
 1242 0360 07020000 		.4byte	0x207
 1243 0364 09       		.uleb128 0x9
 1244 0365 57030000 		.4byte	0x357
 1245 0369 11       		.uleb128 0x11
 1246 036a 50       		.byte	0x50
 1247 036b 03       		.byte	0x3
 1248 036c 1E02     		.2byte	0x21e
ARM GAS  /tmp/ccb3qL8s.s 			page 27


 1249 036e 09       		.byte	0x9
 1250 036f B2040000 		.4byte	0x4b2
 1251 0373 12       		.uleb128 0x12
 1252 0374 535200   		.ascii	"SR\000"
 1253 0377 03       		.byte	0x3
 1254 0378 2002     		.2byte	0x220
 1255 037a 11       		.byte	0x11
 1256 037b 13020000 		.4byte	0x213
 1257 037f 02       		.byte	0x2
 1258 0380 23       		.byte	0x23
 1259 0381 00       		.uleb128 0
 1260 0382 12       		.uleb128 0x12
 1261 0383 43523100 		.ascii	"CR1\000"
 1262 0387 03       		.byte	0x3
 1263 0388 2102     		.2byte	0x221
 1264 038a 11       		.byte	0x11
 1265 038b 13020000 		.4byte	0x213
 1266 038f 02       		.byte	0x2
 1267 0390 23       		.byte	0x23
 1268 0391 04       		.uleb128 0x4
 1269 0392 12       		.uleb128 0x12
 1270 0393 43523200 		.ascii	"CR2\000"
 1271 0397 03       		.byte	0x3
 1272 0398 2202     		.2byte	0x222
 1273 039a 11       		.byte	0x11
 1274 039b 13020000 		.4byte	0x213
 1275 039f 02       		.byte	0x2
 1276 03a0 23       		.byte	0x23
 1277 03a1 08       		.uleb128 0x8
 1278 03a2 13       		.uleb128 0x13
 1279 03a3 9D040000 		.4byte	.LASF80
 1280 03a7 03       		.byte	0x3
 1281 03a8 2302     		.2byte	0x223
 1282 03aa 11       		.byte	0x11
 1283 03ab 13020000 		.4byte	0x213
 1284 03af 02       		.byte	0x2
 1285 03b0 23       		.byte	0x23
 1286 03b1 0C       		.uleb128 0xc
 1287 03b2 13       		.uleb128 0x13
 1288 03b3 A3040000 		.4byte	.LASF81
 1289 03b7 03       		.byte	0x3
 1290 03b8 2402     		.2byte	0x224
 1291 03ba 11       		.byte	0x11
 1292 03bb 13020000 		.4byte	0x213
 1293 03bf 02       		.byte	0x2
 1294 03c0 23       		.byte	0x23
 1295 03c1 10       		.uleb128 0x10
 1296 03c2 13       		.uleb128 0x13
 1297 03c3 E8030000 		.4byte	.LASF82
 1298 03c7 03       		.byte	0x3
 1299 03c8 2502     		.2byte	0x225
 1300 03ca 11       		.byte	0x11
 1301 03cb 13020000 		.4byte	0x213
 1302 03cf 02       		.byte	0x2
 1303 03d0 23       		.byte	0x23
 1304 03d1 14       		.uleb128 0x14
 1305 03d2 13       		.uleb128 0x13
ARM GAS  /tmp/ccb3qL8s.s 			page 28


 1306 03d3 EE030000 		.4byte	.LASF83
 1307 03d7 03       		.byte	0x3
 1308 03d8 2602     		.2byte	0x226
 1309 03da 11       		.byte	0x11
 1310 03db 13020000 		.4byte	0x213
 1311 03df 02       		.byte	0x2
 1312 03e0 23       		.byte	0x23
 1313 03e1 18       		.uleb128 0x18
 1314 03e2 13       		.uleb128 0x13
 1315 03e3 F4030000 		.4byte	.LASF84
 1316 03e7 03       		.byte	0x3
 1317 03e8 2702     		.2byte	0x227
 1318 03ea 11       		.byte	0x11
 1319 03eb 13020000 		.4byte	0x213
 1320 03ef 02       		.byte	0x2
 1321 03f0 23       		.byte	0x23
 1322 03f1 1C       		.uleb128 0x1c
 1323 03f2 13       		.uleb128 0x13
 1324 03f3 FA030000 		.4byte	.LASF85
 1325 03f7 03       		.byte	0x3
 1326 03f8 2802     		.2byte	0x228
 1327 03fa 11       		.byte	0x11
 1328 03fb 13020000 		.4byte	0x213
 1329 03ff 02       		.byte	0x2
 1330 0400 23       		.byte	0x23
 1331 0401 20       		.uleb128 0x20
 1332 0402 12       		.uleb128 0x12
 1333 0403 48545200 		.ascii	"HTR\000"
 1334 0407 03       		.byte	0x3
 1335 0408 2902     		.2byte	0x229
 1336 040a 11       		.byte	0x11
 1337 040b 13020000 		.4byte	0x213
 1338 040f 02       		.byte	0x2
 1339 0410 23       		.byte	0x23
 1340 0411 24       		.uleb128 0x24
 1341 0412 12       		.uleb128 0x12
 1342 0413 4C545200 		.ascii	"LTR\000"
 1343 0417 03       		.byte	0x3
 1344 0418 2A02     		.2byte	0x22a
 1345 041a 11       		.byte	0x11
 1346 041b 13020000 		.4byte	0x213
 1347 041f 02       		.byte	0x2
 1348 0420 23       		.byte	0x23
 1349 0421 28       		.uleb128 0x28
 1350 0422 13       		.uleb128 0x13
 1351 0423 CF040000 		.4byte	.LASF86
 1352 0427 03       		.byte	0x3
 1353 0428 2B02     		.2byte	0x22b
 1354 042a 11       		.byte	0x11
 1355 042b 13020000 		.4byte	0x213
 1356 042f 02       		.byte	0x2
 1357 0430 23       		.byte	0x23
 1358 0431 2C       		.uleb128 0x2c
 1359 0432 13       		.uleb128 0x13
 1360 0433 D4040000 		.4byte	.LASF87
 1361 0437 03       		.byte	0x3
 1362 0438 2C02     		.2byte	0x22c
ARM GAS  /tmp/ccb3qL8s.s 			page 29


 1363 043a 11       		.byte	0x11
 1364 043b 13020000 		.4byte	0x213
 1365 043f 02       		.byte	0x2
 1366 0440 23       		.byte	0x23
 1367 0441 30       		.uleb128 0x30
 1368 0442 13       		.uleb128 0x13
 1369 0443 D9040000 		.4byte	.LASF88
 1370 0447 03       		.byte	0x3
 1371 0448 2D02     		.2byte	0x22d
 1372 044a 11       		.byte	0x11
 1373 044b 13020000 		.4byte	0x213
 1374 044f 02       		.byte	0x2
 1375 0450 23       		.byte	0x23
 1376 0451 34       		.uleb128 0x34
 1377 0452 13       		.uleb128 0x13
 1378 0453 A8000000 		.4byte	.LASF89
 1379 0457 03       		.byte	0x3
 1380 0458 2E02     		.2byte	0x22e
 1381 045a 11       		.byte	0x11
 1382 045b 13020000 		.4byte	0x213
 1383 045f 02       		.byte	0x2
 1384 0460 23       		.byte	0x23
 1385 0461 38       		.uleb128 0x38
 1386 0462 13       		.uleb128 0x13
 1387 0463 66070000 		.4byte	.LASF90
 1388 0467 03       		.byte	0x3
 1389 0468 2F02     		.2byte	0x22f
 1390 046a 11       		.byte	0x11
 1391 046b 13020000 		.4byte	0x213
 1392 046f 02       		.byte	0x2
 1393 0470 23       		.byte	0x23
 1394 0471 3C       		.uleb128 0x3c
 1395 0472 13       		.uleb128 0x13
 1396 0473 6B070000 		.4byte	.LASF91
 1397 0477 03       		.byte	0x3
 1398 0478 3002     		.2byte	0x230
 1399 047a 11       		.byte	0x11
 1400 047b 13020000 		.4byte	0x213
 1401 047f 02       		.byte	0x2
 1402 0480 23       		.byte	0x23
 1403 0481 40       		.uleb128 0x40
 1404 0482 13       		.uleb128 0x13
 1405 0483 70070000 		.4byte	.LASF92
 1406 0487 03       		.byte	0x3
 1407 0488 3102     		.2byte	0x231
 1408 048a 11       		.byte	0x11
 1409 048b 13020000 		.4byte	0x213
 1410 048f 02       		.byte	0x2
 1411 0490 23       		.byte	0x23
 1412 0491 44       		.uleb128 0x44
 1413 0492 13       		.uleb128 0x13
 1414 0493 75070000 		.4byte	.LASF93
 1415 0497 03       		.byte	0x3
 1416 0498 3202     		.2byte	0x232
 1417 049a 11       		.byte	0x11
 1418 049b 13020000 		.4byte	0x213
 1419 049f 02       		.byte	0x2
ARM GAS  /tmp/ccb3qL8s.s 			page 30


 1420 04a0 23       		.byte	0x23
 1421 04a1 48       		.uleb128 0x48
 1422 04a2 12       		.uleb128 0x12
 1423 04a3 445200   		.ascii	"DR\000"
 1424 04a6 03       		.byte	0x3
 1425 04a7 3302     		.2byte	0x233
 1426 04a9 11       		.byte	0x11
 1427 04aa 13020000 		.4byte	0x213
 1428 04ae 02       		.byte	0x2
 1429 04af 23       		.byte	0x23
 1430 04b0 4C       		.uleb128 0x4c
 1431 04b1 00       		.byte	0
 1432 04b2 06       		.uleb128 0x6
 1433 04b3 CE010000 		.4byte	.LASF94
 1434 04b7 03       		.byte	0x3
 1435 04b8 3402     		.2byte	0x234
 1436 04ba 03       		.byte	0x3
 1437 04bb 69030000 		.4byte	0x369
 1438 04bf 11       		.uleb128 0x11
 1439 04c0 24       		.byte	0x24
 1440 04c1 03       		.byte	0x3
 1441 04c2 8503     		.2byte	0x385
 1442 04c4 09       		.byte	0x9
 1443 04c5 57050000 		.4byte	0x557
 1444 04c9 12       		.uleb128 0x12
 1445 04ca 41435200 		.ascii	"ACR\000"
 1446 04ce 03       		.byte	0x3
 1447 04cf 8703     		.2byte	0x387
 1448 04d1 11       		.byte	0x11
 1449 04d2 13020000 		.4byte	0x213
 1450 04d6 02       		.byte	0x2
 1451 04d7 23       		.byte	0x23
 1452 04d8 00       		.uleb128 0
 1453 04d9 13       		.uleb128 0x13
 1454 04da 71020000 		.4byte	.LASF95
 1455 04de 03       		.byte	0x3
 1456 04df 8803     		.2byte	0x388
 1457 04e1 11       		.byte	0x11
 1458 04e2 13020000 		.4byte	0x213
 1459 04e6 02       		.byte	0x2
 1460 04e7 23       		.byte	0x23
 1461 04e8 04       		.uleb128 0x4
 1462 04e9 13       		.uleb128 0x13
 1463 04ea BD010000 		.4byte	.LASF96
 1464 04ee 03       		.byte	0x3
 1465 04ef 8903     		.2byte	0x389
 1466 04f1 11       		.byte	0x11
 1467 04f2 13020000 		.4byte	0x213
 1468 04f6 02       		.byte	0x2
 1469 04f7 23       		.byte	0x23
 1470 04f8 08       		.uleb128 0x8
 1471 04f9 12       		.uleb128 0x12
 1472 04fa 535200   		.ascii	"SR\000"
 1473 04fd 03       		.byte	0x3
 1474 04fe 8A03     		.2byte	0x38a
 1475 0500 11       		.byte	0x11
 1476 0501 13020000 		.4byte	0x213
ARM GAS  /tmp/ccb3qL8s.s 			page 31


 1477 0505 02       		.byte	0x2
 1478 0506 23       		.byte	0x23
 1479 0507 0C       		.uleb128 0xc
 1480 0508 12       		.uleb128 0x12
 1481 0509 435200   		.ascii	"CR\000"
 1482 050c 03       		.byte	0x3
 1483 050d 8B03     		.2byte	0x38b
 1484 050f 11       		.byte	0x11
 1485 0510 13020000 		.4byte	0x213
 1486 0514 02       		.byte	0x2
 1487 0515 23       		.byte	0x23
 1488 0516 10       		.uleb128 0x10
 1489 0517 12       		.uleb128 0x12
 1490 0518 415200   		.ascii	"AR\000"
 1491 051b 03       		.byte	0x3
 1492 051c 8C03     		.2byte	0x38c
 1493 051e 11       		.byte	0x11
 1494 051f 13020000 		.4byte	0x213
 1495 0523 02       		.byte	0x2
 1496 0524 23       		.byte	0x23
 1497 0525 14       		.uleb128 0x14
 1498 0526 13       		.uleb128 0x13
 1499 0527 BB050000 		.4byte	.LASF97
 1500 052b 03       		.byte	0x3
 1501 052c 8D03     		.2byte	0x38d
 1502 052e 11       		.byte	0x11
 1503 052f 13020000 		.4byte	0x213
 1504 0533 02       		.byte	0x2
 1505 0534 23       		.byte	0x23
 1506 0535 18       		.uleb128 0x18
 1507 0536 12       		.uleb128 0x12
 1508 0537 4F425200 		.ascii	"OBR\000"
 1509 053b 03       		.byte	0x3
 1510 053c 8E03     		.2byte	0x38e
 1511 053e 11       		.byte	0x11
 1512 053f 13020000 		.4byte	0x213
 1513 0543 02       		.byte	0x2
 1514 0544 23       		.byte	0x23
 1515 0545 1C       		.uleb128 0x1c
 1516 0546 13       		.uleb128 0x13
 1517 0547 5A060000 		.4byte	.LASF98
 1518 054b 03       		.byte	0x3
 1519 054c 8F03     		.2byte	0x38f
 1520 054e 11       		.byte	0x11
 1521 054f 13020000 		.4byte	0x213
 1522 0553 02       		.byte	0x2
 1523 0554 23       		.byte	0x23
 1524 0555 20       		.uleb128 0x20
 1525 0556 00       		.byte	0
 1526 0557 06       		.uleb128 0x6
 1527 0558 E3000000 		.4byte	.LASF99
 1528 055c 03       		.byte	0x3
 1529 055d 9803     		.2byte	0x398
 1530 055f 03       		.byte	0x3
 1531 0560 BF040000 		.4byte	0x4bf
 1532 0564 11       		.uleb128 0x11
 1533 0565 1C       		.byte	0x1c
ARM GAS  /tmp/ccb3qL8s.s 			page 32


 1534 0566 03       		.byte	0x3
 1535 0567 E903     		.2byte	0x3e9
 1536 0569 09       		.byte	0x9
 1537 056a DF050000 		.4byte	0x5df
 1538 056e 12       		.uleb128 0x12
 1539 056f 43524C00 		.ascii	"CRL\000"
 1540 0573 03       		.byte	0x3
 1541 0574 EB03     		.2byte	0x3eb
 1542 0576 11       		.byte	0x11
 1543 0577 13020000 		.4byte	0x213
 1544 057b 02       		.byte	0x2
 1545 057c 23       		.byte	0x23
 1546 057d 00       		.uleb128 0
 1547 057e 12       		.uleb128 0x12
 1548 057f 43524800 		.ascii	"CRH\000"
 1549 0583 03       		.byte	0x3
 1550 0584 EC03     		.2byte	0x3ec
 1551 0586 11       		.byte	0x11
 1552 0587 13020000 		.4byte	0x213
 1553 058b 02       		.byte	0x2
 1554 058c 23       		.byte	0x23
 1555 058d 04       		.uleb128 0x4
 1556 058e 12       		.uleb128 0x12
 1557 058f 49445200 		.ascii	"IDR\000"
 1558 0593 03       		.byte	0x3
 1559 0594 ED03     		.2byte	0x3ed
 1560 0596 11       		.byte	0x11
 1561 0597 13020000 		.4byte	0x213
 1562 059b 02       		.byte	0x2
 1563 059c 23       		.byte	0x23
 1564 059d 08       		.uleb128 0x8
 1565 059e 12       		.uleb128 0x12
 1566 059f 4F445200 		.ascii	"ODR\000"
 1567 05a3 03       		.byte	0x3
 1568 05a4 EE03     		.2byte	0x3ee
 1569 05a6 11       		.byte	0x11
 1570 05a7 13020000 		.4byte	0x213
 1571 05ab 02       		.byte	0x2
 1572 05ac 23       		.byte	0x23
 1573 05ad 0C       		.uleb128 0xc
 1574 05ae 13       		.uleb128 0x13
 1575 05af D3000000 		.4byte	.LASF100
 1576 05b3 03       		.byte	0x3
 1577 05b4 EF03     		.2byte	0x3ef
 1578 05b6 11       		.byte	0x11
 1579 05b7 13020000 		.4byte	0x213
 1580 05bb 02       		.byte	0x2
 1581 05bc 23       		.byte	0x23
 1582 05bd 10       		.uleb128 0x10
 1583 05be 12       		.uleb128 0x12
 1584 05bf 42525200 		.ascii	"BRR\000"
 1585 05c3 03       		.byte	0x3
 1586 05c4 F003     		.2byte	0x3f0
 1587 05c6 11       		.byte	0x11
 1588 05c7 13020000 		.4byte	0x213
 1589 05cb 02       		.byte	0x2
 1590 05cc 23       		.byte	0x23
ARM GAS  /tmp/ccb3qL8s.s 			page 33


 1591 05cd 14       		.uleb128 0x14
 1592 05ce 13       		.uleb128 0x13
 1593 05cf 05000000 		.4byte	.LASF101
 1594 05d3 03       		.byte	0x3
 1595 05d4 F103     		.2byte	0x3f1
 1596 05d6 11       		.byte	0x11
 1597 05d7 13020000 		.4byte	0x213
 1598 05db 02       		.byte	0x2
 1599 05dc 23       		.byte	0x23
 1600 05dd 18       		.uleb128 0x18
 1601 05de 00       		.byte	0
 1602 05df 06       		.uleb128 0x6
 1603 05e0 C4020000 		.4byte	.LASF102
 1604 05e4 03       		.byte	0x3
 1605 05e5 F203     		.2byte	0x3f2
 1606 05e7 03       		.byte	0x3
 1607 05e8 64050000 		.4byte	0x564
 1608 05ec 11       		.uleb128 0x11
 1609 05ed 30       		.byte	0x30
 1610 05ee 03       		.byte	0x3
 1611 05ef 3404     		.2byte	0x434
 1612 05f1 09       		.byte	0x9
 1613 05f2 B6060000 		.4byte	0x6b6
 1614 05f6 12       		.uleb128 0x12
 1615 05f7 435200   		.ascii	"CR\000"
 1616 05fa 03       		.byte	0x3
 1617 05fb 3604     		.2byte	0x436
 1618 05fd 11       		.byte	0x11
 1619 05fe 13020000 		.4byte	0x213
 1620 0602 02       		.byte	0x2
 1621 0603 23       		.byte	0x23
 1622 0604 00       		.uleb128 0
 1623 0605 13       		.uleb128 0x13
 1624 0606 8D070000 		.4byte	.LASF103
 1625 060a 03       		.byte	0x3
 1626 060b 3704     		.2byte	0x437
 1627 060d 11       		.byte	0x11
 1628 060e 13020000 		.4byte	0x213
 1629 0612 02       		.byte	0x2
 1630 0613 23       		.byte	0x23
 1631 0614 04       		.uleb128 0x4
 1632 0615 12       		.uleb128 0x12
 1633 0616 43495200 		.ascii	"CIR\000"
 1634 061a 03       		.byte	0x3
 1635 061b 3804     		.2byte	0x438
 1636 061d 11       		.byte	0x11
 1637 061e 13020000 		.4byte	0x213
 1638 0622 02       		.byte	0x2
 1639 0623 23       		.byte	0x23
 1640 0624 08       		.uleb128 0x8
 1641 0625 13       		.uleb128 0x13
 1642 0626 A2010000 		.4byte	.LASF104
 1643 062a 03       		.byte	0x3
 1644 062b 3904     		.2byte	0x439
 1645 062d 11       		.byte	0x11
 1646 062e 13020000 		.4byte	0x213
 1647 0632 02       		.byte	0x2
ARM GAS  /tmp/ccb3qL8s.s 			page 34


 1648 0633 23       		.byte	0x23
 1649 0634 0C       		.uleb128 0xc
 1650 0635 13       		.uleb128 0x13
 1651 0636 DA030000 		.4byte	.LASF105
 1652 063a 03       		.byte	0x3
 1653 063b 3A04     		.2byte	0x43a
 1654 063d 11       		.byte	0x11
 1655 063e 13020000 		.4byte	0x213
 1656 0642 02       		.byte	0x2
 1657 0643 23       		.byte	0x23
 1658 0644 10       		.uleb128 0x10
 1659 0645 13       		.uleb128 0x13
 1660 0646 20030000 		.4byte	.LASF106
 1661 064a 03       		.byte	0x3
 1662 064b 3B04     		.2byte	0x43b
 1663 064d 11       		.byte	0x11
 1664 064e 13020000 		.4byte	0x213
 1665 0652 02       		.byte	0x2
 1666 0653 23       		.byte	0x23
 1667 0654 14       		.uleb128 0x14
 1668 0655 13       		.uleb128 0x13
 1669 0656 F0050000 		.4byte	.LASF107
 1670 065a 03       		.byte	0x3
 1671 065b 3C04     		.2byte	0x43c
 1672 065d 11       		.byte	0x11
 1673 065e 13020000 		.4byte	0x213
 1674 0662 02       		.byte	0x2
 1675 0663 23       		.byte	0x23
 1676 0664 18       		.uleb128 0x18
 1677 0665 13       		.uleb128 0x13
 1678 0666 CC060000 		.4byte	.LASF108
 1679 066a 03       		.byte	0x3
 1680 066b 3D04     		.2byte	0x43d
 1681 066d 11       		.byte	0x11
 1682 066e 13020000 		.4byte	0x213
 1683 0672 02       		.byte	0x2
 1684 0673 23       		.byte	0x23
 1685 0674 1C       		.uleb128 0x1c
 1686 0675 13       		.uleb128 0x13
 1687 0676 3A070000 		.4byte	.LASF109
 1688 067a 03       		.byte	0x3
 1689 067b 3E04     		.2byte	0x43e
 1690 067d 11       		.byte	0x11
 1691 067e 13020000 		.4byte	0x213
 1692 0682 02       		.byte	0x2
 1693 0683 23       		.byte	0x23
 1694 0684 20       		.uleb128 0x20
 1695 0685 12       		.uleb128 0x12
 1696 0686 43535200 		.ascii	"CSR\000"
 1697 068a 03       		.byte	0x3
 1698 068b 3F04     		.2byte	0x43f
 1699 068d 11       		.byte	0x11
 1700 068e 13020000 		.4byte	0x213
 1701 0692 02       		.byte	0x2
 1702 0693 23       		.byte	0x23
 1703 0694 24       		.uleb128 0x24
 1704 0695 13       		.uleb128 0x13
ARM GAS  /tmp/ccb3qL8s.s 			page 35


 1705 0696 AE040000 		.4byte	.LASF110
 1706 069a 03       		.byte	0x3
 1707 069b 4004     		.2byte	0x440
 1708 069d 11       		.byte	0x11
 1709 069e 13020000 		.4byte	0x213
 1710 06a2 02       		.byte	0x2
 1711 06a3 23       		.byte	0x23
 1712 06a4 28       		.uleb128 0x28
 1713 06a5 13       		.uleb128 0x13
 1714 06a6 4A070000 		.4byte	.LASF111
 1715 06aa 03       		.byte	0x3
 1716 06ab 4104     		.2byte	0x441
 1717 06ad 11       		.byte	0x11
 1718 06ae 13020000 		.4byte	0x213
 1719 06b2 02       		.byte	0x2
 1720 06b3 23       		.byte	0x23
 1721 06b4 2C       		.uleb128 0x2c
 1722 06b5 00       		.byte	0
 1723 06b6 06       		.uleb128 0x6
 1724 06b7 DE020000 		.4byte	.LASF112
 1725 06bb 03       		.byte	0x3
 1726 06bc 4204     		.2byte	0x442
 1727 06be 03       		.byte	0x3
 1728 06bf EC050000 		.4byte	0x5ec
 1729 06c3 11       		.uleb128 0x11
 1730 06c4 50       		.byte	0x50
 1731 06c5 03       		.byte	0x3
 1732 06c6 9A04     		.2byte	0x49a
 1733 06c8 09       		.byte	0x9
 1734 06c9 4D090000 		.4byte	0x94d
 1735 06cd 12       		.uleb128 0x12
 1736 06ce 43523100 		.ascii	"CR1\000"
 1737 06d2 03       		.byte	0x3
 1738 06d3 9C04     		.2byte	0x49c
 1739 06d5 11       		.byte	0x11
 1740 06d6 02020000 		.4byte	0x202
 1741 06da 02       		.byte	0x2
 1742 06db 23       		.byte	0x23
 1743 06dc 00       		.uleb128 0
 1744 06dd 13       		.uleb128 0x13
 1745 06de F1040000 		.4byte	.LASF68
 1746 06e2 03       		.byte	0x3
 1747 06e3 9D04     		.2byte	0x49d
 1748 06e5 0D       		.byte	0xd
 1749 06e6 F6010000 		.4byte	0x1f6
 1750 06ea 02       		.byte	0x2
 1751 06eb 23       		.byte	0x23
 1752 06ec 02       		.uleb128 0x2
 1753 06ed 12       		.uleb128 0x12
 1754 06ee 43523200 		.ascii	"CR2\000"
 1755 06f2 03       		.byte	0x3
 1756 06f3 9E04     		.2byte	0x49e
 1757 06f5 11       		.byte	0x11
 1758 06f6 02020000 		.4byte	0x202
 1759 06fa 02       		.byte	0x2
 1760 06fb 23       		.byte	0x23
 1761 06fc 04       		.uleb128 0x4
ARM GAS  /tmp/ccb3qL8s.s 			page 36


 1762 06fd 13       		.uleb128 0x13
 1763 06fe FB040000 		.4byte	.LASF113
 1764 0702 03       		.byte	0x3
 1765 0703 9F04     		.2byte	0x49f
 1766 0705 0D       		.byte	0xd
 1767 0706 F6010000 		.4byte	0x1f6
 1768 070a 02       		.byte	0x2
 1769 070b 23       		.byte	0x23
 1770 070c 06       		.uleb128 0x6
 1771 070d 13       		.uleb128 0x13
 1772 070e 0F030000 		.4byte	.LASF114
 1773 0712 03       		.byte	0x3
 1774 0713 A004     		.2byte	0x4a0
 1775 0715 11       		.byte	0x11
 1776 0716 02020000 		.4byte	0x202
 1777 071a 02       		.byte	0x2
 1778 071b 23       		.byte	0x23
 1779 071c 08       		.uleb128 0x8
 1780 071d 13       		.uleb128 0x13
 1781 071e 05050000 		.4byte	.LASF72
 1782 0722 03       		.byte	0x3
 1783 0723 A104     		.2byte	0x4a1
 1784 0725 0D       		.byte	0xd
 1785 0726 F6010000 		.4byte	0x1f6
 1786 072a 02       		.byte	0x2
 1787 072b 23       		.byte	0x23
 1788 072c 0A       		.uleb128 0xa
 1789 072d 13       		.uleb128 0x13
 1790 072e 13000000 		.4byte	.LASF115
 1791 0732 03       		.byte	0x3
 1792 0733 A204     		.2byte	0x4a2
 1793 0735 11       		.byte	0x11
 1794 0736 02020000 		.4byte	0x202
 1795 073a 02       		.byte	0x2
 1796 073b 23       		.byte	0x23
 1797 073c 0C       		.uleb128 0xc
 1798 073d 13       		.uleb128 0x13
 1799 073e 0F050000 		.4byte	.LASF74
 1800 0742 03       		.byte	0x3
 1801 0743 A304     		.2byte	0x4a3
 1802 0745 0D       		.byte	0xd
 1803 0746 F6010000 		.4byte	0x1f6
 1804 074a 02       		.byte	0x2
 1805 074b 23       		.byte	0x23
 1806 074c 0E       		.uleb128 0xe
 1807 074d 12       		.uleb128 0x12
 1808 074e 535200   		.ascii	"SR\000"
 1809 0751 03       		.byte	0x3
 1810 0752 A404     		.2byte	0x4a4
 1811 0754 11       		.byte	0x11
 1812 0755 02020000 		.4byte	0x202
 1813 0759 02       		.byte	0x2
 1814 075a 23       		.byte	0x23
 1815 075b 10       		.uleb128 0x10
 1816 075c 13       		.uleb128 0x13
 1817 075d 19050000 		.4byte	.LASF76
 1818 0761 03       		.byte	0x3
ARM GAS  /tmp/ccb3qL8s.s 			page 37


 1819 0762 A504     		.2byte	0x4a5
 1820 0764 0D       		.byte	0xd
 1821 0765 F6010000 		.4byte	0x1f6
 1822 0769 02       		.byte	0x2
 1823 076a 23       		.byte	0x23
 1824 076b 12       		.uleb128 0x12
 1825 076c 12       		.uleb128 0x12
 1826 076d 45475200 		.ascii	"EGR\000"
 1827 0771 03       		.byte	0x3
 1828 0772 A604     		.2byte	0x4a6
 1829 0774 11       		.byte	0x11
 1830 0775 02020000 		.4byte	0x202
 1831 0779 02       		.byte	0x2
 1832 077a 23       		.byte	0x23
 1833 077b 14       		.uleb128 0x14
 1834 077c 13       		.uleb128 0x13
 1835 077d 23050000 		.4byte	.LASF77
 1836 0781 03       		.byte	0x3
 1837 0782 A704     		.2byte	0x4a7
 1838 0784 0D       		.byte	0xd
 1839 0785 F6010000 		.4byte	0x1f6
 1840 0789 02       		.byte	0x2
 1841 078a 23       		.byte	0x23
 1842 078b 16       		.uleb128 0x16
 1843 078c 13       		.uleb128 0x13
 1844 078d AD000000 		.4byte	.LASF116
 1845 0791 03       		.byte	0x3
 1846 0792 A804     		.2byte	0x4a8
 1847 0794 11       		.byte	0x11
 1848 0795 02020000 		.4byte	0x202
 1849 0799 02       		.byte	0x2
 1850 079a 23       		.byte	0x23
 1851 079b 18       		.uleb128 0x18
 1852 079c 13       		.uleb128 0x13
 1853 079d 2D050000 		.4byte	.LASF117
 1854 07a1 03       		.byte	0x3
 1855 07a2 A904     		.2byte	0x4a9
 1856 07a4 0D       		.byte	0xd
 1857 07a5 F6010000 		.4byte	0x1f6
 1858 07a9 02       		.byte	0x2
 1859 07aa 23       		.byte	0x23
 1860 07ab 1A       		.uleb128 0x1a
 1861 07ac 13       		.uleb128 0x13
 1862 07ad B3000000 		.4byte	.LASF118
 1863 07b1 03       		.byte	0x3
 1864 07b2 AA04     		.2byte	0x4aa
 1865 07b4 11       		.byte	0x11
 1866 07b5 02020000 		.4byte	0x202
 1867 07b9 02       		.byte	0x2
 1868 07ba 23       		.byte	0x23
 1869 07bb 1C       		.uleb128 0x1c
 1870 07bc 13       		.uleb128 0x13
 1871 07bd 28060000 		.4byte	.LASF119
 1872 07c1 03       		.byte	0x3
 1873 07c2 AB04     		.2byte	0x4ab
 1874 07c4 0D       		.byte	0xd
 1875 07c5 F6010000 		.4byte	0x1f6
ARM GAS  /tmp/ccb3qL8s.s 			page 38


 1876 07c9 02       		.byte	0x2
 1877 07ca 23       		.byte	0x23
 1878 07cb 1E       		.uleb128 0x1e
 1879 07cc 13       		.uleb128 0x13
 1880 07cd B8010000 		.4byte	.LASF120
 1881 07d1 03       		.byte	0x3
 1882 07d2 AC04     		.2byte	0x4ac
 1883 07d4 11       		.byte	0x11
 1884 07d5 02020000 		.4byte	0x202
 1885 07d9 02       		.byte	0x2
 1886 07da 23       		.byte	0x23
 1887 07db 20       		.uleb128 0x20
 1888 07dc 13       		.uleb128 0x13
 1889 07dd 37050000 		.4byte	.LASF121
 1890 07e1 03       		.byte	0x3
 1891 07e2 AD04     		.2byte	0x4ad
 1892 07e4 0D       		.byte	0xd
 1893 07e5 F6010000 		.4byte	0x1f6
 1894 07e9 02       		.byte	0x2
 1895 07ea 23       		.byte	0x23
 1896 07eb 22       		.uleb128 0x22
 1897 07ec 12       		.uleb128 0x12
 1898 07ed 434E5400 		.ascii	"CNT\000"
 1899 07f1 03       		.byte	0x3
 1900 07f2 AE04     		.2byte	0x4ae
 1901 07f4 11       		.byte	0x11
 1902 07f5 02020000 		.4byte	0x202
 1903 07f9 02       		.byte	0x2
 1904 07fa 23       		.byte	0x23
 1905 07fb 24       		.uleb128 0x24
 1906 07fc 13       		.uleb128 0x13
 1907 07fd 41050000 		.4byte	.LASF122
 1908 0801 03       		.byte	0x3
 1909 0802 AF04     		.2byte	0x4af
 1910 0804 0D       		.byte	0xd
 1911 0805 F6010000 		.4byte	0x1f6
 1912 0809 02       		.byte	0x2
 1913 080a 23       		.byte	0x23
 1914 080b 26       		.uleb128 0x26
 1915 080c 12       		.uleb128 0x12
 1916 080d 50534300 		.ascii	"PSC\000"
 1917 0811 03       		.byte	0x3
 1918 0812 B004     		.2byte	0x4b0
 1919 0814 11       		.byte	0x11
 1920 0815 02020000 		.4byte	0x202
 1921 0819 02       		.byte	0x2
 1922 081a 23       		.byte	0x23
 1923 081b 28       		.uleb128 0x28
 1924 081c 13       		.uleb128 0x13
 1925 081d 2B010000 		.4byte	.LASF123
 1926 0821 03       		.byte	0x3
 1927 0822 B104     		.2byte	0x4b1
 1928 0824 0D       		.byte	0xd
 1929 0825 F6010000 		.4byte	0x1f6
 1930 0829 02       		.byte	0x2
 1931 082a 23       		.byte	0x23
 1932 082b 2A       		.uleb128 0x2a
ARM GAS  /tmp/ccb3qL8s.s 			page 39


 1933 082c 12       		.uleb128 0x12
 1934 082d 41525200 		.ascii	"ARR\000"
 1935 0831 03       		.byte	0x3
 1936 0832 B204     		.2byte	0x4b2
 1937 0834 11       		.byte	0x11
 1938 0835 02020000 		.4byte	0x202
 1939 0839 02       		.byte	0x2
 1940 083a 23       		.byte	0x23
 1941 083b 2C       		.uleb128 0x2c
 1942 083c 13       		.uleb128 0x13
 1943 083d 36010000 		.4byte	.LASF124
 1944 0841 03       		.byte	0x3
 1945 0842 B304     		.2byte	0x4b3
 1946 0844 0D       		.byte	0xd
 1947 0845 F6010000 		.4byte	0x1f6
 1948 0849 02       		.byte	0x2
 1949 084a 23       		.byte	0x23
 1950 084b 2E       		.uleb128 0x2e
 1951 084c 12       		.uleb128 0x12
 1952 084d 52435200 		.ascii	"RCR\000"
 1953 0851 03       		.byte	0x3
 1954 0852 B404     		.2byte	0x4b4
 1955 0854 11       		.byte	0x11
 1956 0855 02020000 		.4byte	0x202
 1957 0859 02       		.byte	0x2
 1958 085a 23       		.byte	0x23
 1959 085b 30       		.uleb128 0x30
 1960 085c 13       		.uleb128 0x13
 1961 085d 41010000 		.4byte	.LASF125
 1962 0861 03       		.byte	0x3
 1963 0862 B504     		.2byte	0x4b5
 1964 0864 0D       		.byte	0xd
 1965 0865 F6010000 		.4byte	0x1f6
 1966 0869 02       		.byte	0x2
 1967 086a 23       		.byte	0x23
 1968 086b 32       		.uleb128 0x32
 1969 086c 13       		.uleb128 0x13
 1970 086d 1A070000 		.4byte	.LASF126
 1971 0871 03       		.byte	0x3
 1972 0872 B604     		.2byte	0x4b6
 1973 0874 11       		.byte	0x11
 1974 0875 02020000 		.4byte	0x202
 1975 0879 02       		.byte	0x2
 1976 087a 23       		.byte	0x23
 1977 087b 34       		.uleb128 0x34
 1978 087c 13       		.uleb128 0x13
 1979 087d 4C010000 		.4byte	.LASF127
 1980 0881 03       		.byte	0x3
 1981 0882 B704     		.2byte	0x4b7
 1982 0884 0D       		.byte	0xd
 1983 0885 F6010000 		.4byte	0x1f6
 1984 0889 02       		.byte	0x2
 1985 088a 23       		.byte	0x23
 1986 088b 36       		.uleb128 0x36
 1987 088c 13       		.uleb128 0x13
 1988 088d 64000000 		.4byte	.LASF128
 1989 0891 03       		.byte	0x3
ARM GAS  /tmp/ccb3qL8s.s 			page 40


 1990 0892 B804     		.2byte	0x4b8
 1991 0894 11       		.byte	0x11
 1992 0895 02020000 		.4byte	0x202
 1993 0899 02       		.byte	0x2
 1994 089a 23       		.byte	0x23
 1995 089b 38       		.uleb128 0x38
 1996 089c 13       		.uleb128 0x13
 1997 089d 57010000 		.4byte	.LASF129
 1998 08a1 03       		.byte	0x3
 1999 08a2 B904     		.2byte	0x4b9
 2000 08a4 0D       		.byte	0xd
 2001 08a5 F6010000 		.4byte	0x1f6
 2002 08a9 02       		.byte	0x2
 2003 08aa 23       		.byte	0x23
 2004 08ab 3A       		.uleb128 0x3a
 2005 08ac 13       		.uleb128 0x13
 2006 08ad 29070000 		.4byte	.LASF130
 2007 08b1 03       		.byte	0x3
 2008 08b2 BA04     		.2byte	0x4ba
 2009 08b4 11       		.byte	0x11
 2010 08b5 02020000 		.4byte	0x202
 2011 08b9 02       		.byte	0x2
 2012 08ba 23       		.byte	0x23
 2013 08bb 3C       		.uleb128 0x3c
 2014 08bc 13       		.uleb128 0x13
 2015 08bd 62010000 		.4byte	.LASF131
 2016 08c1 03       		.byte	0x3
 2017 08c2 BB04     		.2byte	0x4bb
 2018 08c4 0D       		.byte	0xd
 2019 08c5 F6010000 		.4byte	0x1f6
 2020 08c9 02       		.byte	0x2
 2021 08ca 23       		.byte	0x23
 2022 08cb 3E       		.uleb128 0x3e
 2023 08cc 13       		.uleb128 0x13
 2024 08cd 2E070000 		.4byte	.LASF132
 2025 08d1 03       		.byte	0x3
 2026 08d2 BC04     		.2byte	0x4bc
 2027 08d4 11       		.byte	0x11
 2028 08d5 02020000 		.4byte	0x202
 2029 08d9 02       		.byte	0x2
 2030 08da 23       		.byte	0x23
 2031 08db 40       		.uleb128 0x40
 2032 08dc 13       		.uleb128 0x13
 2033 08dd 6D010000 		.4byte	.LASF133
 2034 08e1 03       		.byte	0x3
 2035 08e2 BD04     		.2byte	0x4bd
 2036 08e4 0D       		.byte	0xd
 2037 08e5 F6010000 		.4byte	0x1f6
 2038 08e9 02       		.byte	0x2
 2039 08ea 23       		.byte	0x23
 2040 08eb 42       		.uleb128 0x42
 2041 08ec 13       		.uleb128 0x13
 2042 08ed 8A020000 		.4byte	.LASF134
 2043 08f1 03       		.byte	0x3
 2044 08f2 BE04     		.2byte	0x4be
 2045 08f4 11       		.byte	0x11
 2046 08f5 02020000 		.4byte	0x202
ARM GAS  /tmp/ccb3qL8s.s 			page 41


 2047 08f9 02       		.byte	0x2
 2048 08fa 23       		.byte	0x23
 2049 08fb 44       		.uleb128 0x44
 2050 08fc 13       		.uleb128 0x13
 2051 08fd 78010000 		.4byte	.LASF135
 2052 0901 03       		.byte	0x3
 2053 0902 BF04     		.2byte	0x4bf
 2054 0904 0D       		.byte	0xd
 2055 0905 F6010000 		.4byte	0x1f6
 2056 0909 02       		.byte	0x2
 2057 090a 23       		.byte	0x23
 2058 090b 46       		.uleb128 0x46
 2059 090c 12       		.uleb128 0x12
 2060 090d 44435200 		.ascii	"DCR\000"
 2061 0911 03       		.byte	0x3
 2062 0912 C004     		.2byte	0x4c0
 2063 0914 11       		.byte	0x11
 2064 0915 02020000 		.4byte	0x202
 2065 0919 02       		.byte	0x2
 2066 091a 23       		.byte	0x23
 2067 091b 48       		.uleb128 0x48
 2068 091c 13       		.uleb128 0x13
 2069 091d 83010000 		.4byte	.LASF136
 2070 0921 03       		.byte	0x3
 2071 0922 C104     		.2byte	0x4c1
 2072 0924 0D       		.byte	0xd
 2073 0925 F6010000 		.4byte	0x1f6
 2074 0929 02       		.byte	0x2
 2075 092a 23       		.byte	0x23
 2076 092b 4A       		.uleb128 0x4a
 2077 092c 13       		.uleb128 0x13
 2078 092d 92060000 		.4byte	.LASF137
 2079 0931 03       		.byte	0x3
 2080 0932 C204     		.2byte	0x4c2
 2081 0934 11       		.byte	0x11
 2082 0935 02020000 		.4byte	0x202
 2083 0939 02       		.byte	0x2
 2084 093a 23       		.byte	0x23
 2085 093b 4C       		.uleb128 0x4c
 2086 093c 13       		.uleb128 0x13
 2087 093d 8E010000 		.4byte	.LASF138
 2088 0941 03       		.byte	0x3
 2089 0942 C304     		.2byte	0x4c3
 2090 0944 0D       		.byte	0xd
 2091 0945 F6010000 		.4byte	0x1f6
 2092 0949 02       		.byte	0x2
 2093 094a 23       		.byte	0x23
 2094 094b 4E       		.uleb128 0x4e
 2095 094c 00       		.byte	0
 2096 094d 06       		.uleb128 0x6
 2097 094e 41000000 		.4byte	.LASF139
 2098 0952 03       		.byte	0x3
 2099 0953 C404     		.2byte	0x4c4
 2100 0955 03       		.byte	0x3
 2101 0956 C3060000 		.4byte	0x6c3
 2102 095a 05       		.uleb128 0x5
 2103 095b 08       		.byte	0x8
ARM GAS  /tmp/ccb3qL8s.s 			page 42


 2104 095c 04       		.byte	0x4
 2105 095d 4E060000 		.4byte	.LASF140
 2106 0961 14       		.uleb128 0x14
 2107 0962 04       		.byte	0x4
 2108 0963 05       		.uleb128 0x5
 2109 0964 01       		.byte	0x1
 2110 0965 08       		.byte	0x8
 2111 0966 72060000 		.4byte	.LASF141
 2112 096a 07       		.uleb128 0x7
 2113 096b 80000000 		.4byte	.LASF142
 2114 096f 07       		.byte	0x7
 2115 0970 30       		.byte	0x30
 2116 0971 22       		.byte	0x22
 2117 0972 76090000 		.4byte	0x976
 2118 0976 15       		.uleb128 0x15
 2119 0977 04       		.byte	0x4
 2120 0978 7C090000 		.4byte	0x97c
 2121 097c 16       		.uleb128 0x16
 2122 097d 4B050000 		.4byte	.LASF165
 2123 0981 01       		.byte	0x1
 2124 0982 17       		.uleb128 0x17
 2125 0983 33070000 		.4byte	.LASF166
 2126 0987 01       		.byte	0x1
 2127 0988 10       		.byte	0x10
 2128 0989 16       		.byte	0x16
 2129 098a 6A090000 		.4byte	0x96a
 2130 098e 18       		.uleb128 0x18
 2131 098f 01       		.byte	0x1
 2132 0990 A4070000 		.4byte	.LASF167
 2133 0994 01       		.byte	0x1
 2134 0995 2C       		.byte	0x2c
 2135 0996 05       		.byte	0x5
 2136 0997 01       		.byte	0x1
 2137 0998 D7010000 		.4byte	0x1d7
 2138 099c 00000000 		.4byte	.LFB43
 2139 09a0 68000000 		.4byte	.LFE43
 2140 09a4 00000000 		.4byte	.LLST8
 2141 09a8 01       		.byte	0x1
 2142 09a9 A10A0000 		.4byte	0xaa1
 2143 09ad 19       		.uleb128 0x19
 2144 09ae 10000000 		.4byte	.LVL16
 2145 09b2 640C0000 		.4byte	0xc64
 2146 09b6 CC090000 		.4byte	0x9cc
 2147 09ba 1A       		.uleb128 0x1a
 2148 09bb 01       		.byte	0x1
 2149 09bc 50       		.byte	0x50
 2150 09bd 01       		.byte	0x1
 2151 09be 35       		.byte	0x35
 2152 09bf 1A       		.uleb128 0x1a
 2153 09c0 01       		.byte	0x1
 2154 09c1 51       		.byte	0x51
 2155 09c2 02       		.byte	0x2
 2156 09c3 75       		.byte	0x75
 2157 09c4 00       		.sleb128 0
 2158 09c5 1A       		.uleb128 0x1a
 2159 09c6 01       		.byte	0x1
 2160 09c7 52       		.byte	0x52
ARM GAS  /tmp/ccb3qL8s.s 			page 43


 2161 09c8 02       		.byte	0x2
 2162 09c9 74       		.byte	0x74
 2163 09ca 00       		.sleb128 0
 2164 09cb 00       		.byte	0
 2165 09cc 1B       		.uleb128 0x1b
 2166 09cd 16000000 		.4byte	.LVL17
 2167 09d1 390C0000 		.4byte	0xc39
 2168 09d5 19       		.uleb128 0x19
 2169 09d6 1A000000 		.4byte	.LVL18
 2170 09da 730C0000 		.4byte	0xc73
 2171 09de E9090000 		.4byte	0x9e9
 2172 09e2 1A       		.uleb128 0x1a
 2173 09e3 01       		.byte	0x1
 2174 09e4 50       		.byte	0x50
 2175 09e5 02       		.byte	0x2
 2176 09e6 75       		.byte	0x75
 2177 09e7 00       		.sleb128 0
 2178 09e8 00       		.byte	0
 2179 09e9 19       		.uleb128 0x19
 2180 09ea 2A000000 		.4byte	.LVL19
 2181 09ee 810C0000 		.4byte	0xc81
 2182 09f2 230A0000 		.4byte	0xa23
 2183 09f6 1A       		.uleb128 0x1a
 2184 09f7 01       		.byte	0x1
 2185 09f8 50       		.byte	0x50
 2186 09f9 05       		.byte	0x5
 2187 09fa 03       		.byte	0x3
 2188 09fb 00000000 		.4byte	task1
 2189 09ff 1A       		.uleb128 0x1a
 2190 0a00 01       		.byte	0x1
 2191 0a01 51       		.byte	0x51
 2192 0a02 05       		.byte	0x5
 2193 0a03 03       		.byte	0x3
 2194 0a04 0D000000 		.4byte	.LC1
 2195 0a08 1A       		.uleb128 0x1a
 2196 0a09 01       		.byte	0x1
 2197 0a0a 52       		.byte	0x52
 2198 0a0b 02       		.byte	0x2
 2199 0a0c 08       		.byte	0x8
 2200 0a0d 64       		.byte	0x64
 2201 0a0e 1A       		.uleb128 0x1a
 2202 0a0f 01       		.byte	0x1
 2203 0a10 53       		.byte	0x53
 2204 0a11 02       		.byte	0x2
 2205 0a12 74       		.byte	0x74
 2206 0a13 00       		.sleb128 0
 2207 0a14 1A       		.uleb128 0x1a
 2208 0a15 02       		.byte	0x2
 2209 0a16 7D       		.byte	0x7d
 2210 0a17 00       		.sleb128 0
 2211 0a18 02       		.byte	0x2
 2212 0a19 75       		.byte	0x75
 2213 0a1a 00       		.sleb128 0
 2214 0a1b 1A       		.uleb128 0x1a
 2215 0a1c 02       		.byte	0x2
 2216 0a1d 7D       		.byte	0x7d
 2217 0a1e 04       		.sleb128 4
ARM GAS  /tmp/ccb3qL8s.s 			page 44


 2218 0a1f 02       		.byte	0x2
 2219 0a20 74       		.byte	0x74
 2220 0a21 00       		.sleb128 0
 2221 0a22 00       		.byte	0
 2222 0a23 19       		.uleb128 0x19
 2223 0a24 3A000000 		.4byte	.LVL20
 2224 0a28 810C0000 		.4byte	0xc81
 2225 0a2c 5D0A0000 		.4byte	0xa5d
 2226 0a30 1A       		.uleb128 0x1a
 2227 0a31 01       		.byte	0x1
 2228 0a32 50       		.byte	0x50
 2229 0a33 05       		.byte	0x5
 2230 0a34 03       		.byte	0x3
 2231 0a35 00000000 		.4byte	task2
 2232 0a39 1A       		.uleb128 0x1a
 2233 0a3a 01       		.byte	0x1
 2234 0a3b 51       		.byte	0x51
 2235 0a3c 05       		.byte	0x5
 2236 0a3d 03       		.byte	0x3
 2237 0a3e 0F000000 		.4byte	.LC2
 2238 0a42 1A       		.uleb128 0x1a
 2239 0a43 01       		.byte	0x1
 2240 0a44 52       		.byte	0x52
 2241 0a45 02       		.byte	0x2
 2242 0a46 08       		.byte	0x8
 2243 0a47 64       		.byte	0x64
 2244 0a48 1A       		.uleb128 0x1a
 2245 0a49 01       		.byte	0x1
 2246 0a4a 53       		.byte	0x53
 2247 0a4b 02       		.byte	0x2
 2248 0a4c 74       		.byte	0x74
 2249 0a4d 00       		.sleb128 0
 2250 0a4e 1A       		.uleb128 0x1a
 2251 0a4f 02       		.byte	0x2
 2252 0a50 7D       		.byte	0x7d
 2253 0a51 00       		.sleb128 0
 2254 0a52 02       		.byte	0x2
 2255 0a53 75       		.byte	0x75
 2256 0a54 00       		.sleb128 0
 2257 0a55 1A       		.uleb128 0x1a
 2258 0a56 02       		.byte	0x2
 2259 0a57 7D       		.byte	0x7d
 2260 0a58 04       		.sleb128 4
 2261 0a59 02       		.byte	0x2
 2262 0a5a 74       		.byte	0x74
 2263 0a5b 00       		.sleb128 0
 2264 0a5c 00       		.byte	0
 2265 0a5d 19       		.uleb128 0x19
 2266 0a5e 4A000000 		.4byte	.LVL21
 2267 0a62 810C0000 		.4byte	0xc81
 2268 0a66 970A0000 		.4byte	0xa97
 2269 0a6a 1A       		.uleb128 0x1a
 2270 0a6b 01       		.byte	0x1
 2271 0a6c 50       		.byte	0x50
 2272 0a6d 05       		.byte	0x5
 2273 0a6e 03       		.byte	0x3
 2274 0a6f 00000000 		.4byte	task3
ARM GAS  /tmp/ccb3qL8s.s 			page 45


 2275 0a73 1A       		.uleb128 0x1a
 2276 0a74 01       		.byte	0x1
 2277 0a75 51       		.byte	0x51
 2278 0a76 05       		.byte	0x5
 2279 0a77 03       		.byte	0x3
 2280 0a78 11000000 		.4byte	.LC3
 2281 0a7c 1A       		.uleb128 0x1a
 2282 0a7d 01       		.byte	0x1
 2283 0a7e 52       		.byte	0x52
 2284 0a7f 02       		.byte	0x2
 2285 0a80 08       		.byte	0x8
 2286 0a81 64       		.byte	0x64
 2287 0a82 1A       		.uleb128 0x1a
 2288 0a83 01       		.byte	0x1
 2289 0a84 53       		.byte	0x53
 2290 0a85 02       		.byte	0x2
 2291 0a86 74       		.byte	0x74
 2292 0a87 00       		.sleb128 0
 2293 0a88 1A       		.uleb128 0x1a
 2294 0a89 02       		.byte	0x2
 2295 0a8a 7D       		.byte	0x7d
 2296 0a8b 00       		.sleb128 0
 2297 0a8c 02       		.byte	0x2
 2298 0a8d 75       		.byte	0x75
 2299 0a8e 00       		.sleb128 0
 2300 0a8f 1A       		.uleb128 0x1a
 2301 0a90 02       		.byte	0x2
 2302 0a91 7D       		.byte	0x7d
 2303 0a92 04       		.sleb128 4
 2304 0a93 02       		.byte	0x2
 2305 0a94 74       		.byte	0x74
 2306 0a95 00       		.sleb128 0
 2307 0a96 00       		.byte	0
 2308 0a97 1B       		.uleb128 0x1b
 2309 0a98 4E000000 		.4byte	.LVL22
 2310 0a9c 900C0000 		.4byte	0xc90
 2311 0aa0 00       		.byte	0
 2312 0aa1 1C       		.uleb128 0x1c
 2313 0aa2 F6020000 		.4byte	.LASF143
 2314 0aa6 01       		.byte	0x1
 2315 0aa7 27       		.byte	0x27
 2316 0aa8 0D       		.byte	0xd
 2317 0aa9 01       		.byte	0x1
 2318 0aaa 00000000 		.4byte	.LFB42
 2319 0aae 02000000 		.4byte	.LFE42
 2320 0ab2 02       		.byte	0x2
 2321 0ab3 7D       		.byte	0x7d
 2322 0ab4 00       		.sleb128 0
 2323 0ab5 01       		.byte	0x1
 2324 0ab6 CF0A0000 		.4byte	0xacf
 2325 0aba 1D       		.uleb128 0x1d
 2326 0abb 9F070000 		.4byte	.LASF145
 2327 0abf 01       		.byte	0x1
 2328 0ac0 27       		.byte	0x27
 2329 0ac1 19       		.byte	0x19
 2330 0ac2 61090000 		.4byte	0x961
 2331 0ac6 22000000 		.4byte	.LLST0
ARM GAS  /tmp/ccb3qL8s.s 			page 46


 2332 0aca 20000000 		.4byte	.LVUS0
 2333 0ace 00       		.byte	0
 2334 0acf 1E       		.uleb128 0x1e
 2335 0ad0 F0020000 		.4byte	.LASF144
 2336 0ad4 01       		.byte	0x1
 2337 0ad5 1D       		.byte	0x1d
 2338 0ad6 0D       		.byte	0xd
 2339 0ad7 01       		.byte	0x1
 2340 0ad8 02000000 		.4byte	.LFB41
 2341 0adc 30000000 		.4byte	.LFE41
 2342 0ae0 35000000 		.4byte	.LLST1
 2343 0ae4 01       		.byte	0x1
 2344 0ae5 0E0B0000 		.4byte	0xb0e
 2345 0ae9 1D       		.uleb128 0x1d
 2346 0aea 9F070000 		.4byte	.LASF145
 2347 0aee 01       		.byte	0x1
 2348 0aef 1D       		.byte	0x1d
 2349 0af0 19       		.byte	0x19
 2350 0af1 61090000 		.4byte	0x961
 2351 0af5 59000000 		.4byte	.LLST2
 2352 0af9 55000000 		.4byte	.LVUS2
 2353 0afd 1F       		.uleb128 0x1f
 2354 0afe 26000000 		.4byte	.LVL3
 2355 0b02 9F0C0000 		.4byte	0xc9f
 2356 0b06 1A       		.uleb128 0x1a
 2357 0b07 01       		.byte	0x1
 2358 0b08 50       		.byte	0x50
 2359 0b09 02       		.byte	0x2
 2360 0b0a 08       		.byte	0x8
 2361 0b0b 32       		.byte	0x32
 2362 0b0c 00       		.byte	0
 2363 0b0d 00       		.byte	0
 2364 0b0e 1E       		.uleb128 0x1e
 2365 0b0f EA020000 		.4byte	.LASF146
 2366 0b13 01       		.byte	0x1
 2367 0b14 12       		.byte	0x12
 2368 0b15 0D       		.byte	0xd
 2369 0b16 01       		.byte	0x1
 2370 0b17 30000000 		.4byte	.LFB40
 2371 0b1b 60000000 		.4byte	.LFE40
 2372 0b1f 7A000000 		.4byte	.LLST3
 2373 0b23 01       		.byte	0x1
 2374 0b24 9D0B0000 		.4byte	0xb9d
 2375 0b28 1D       		.uleb128 0x1d
 2376 0b29 9F070000 		.4byte	.LASF145
 2377 0b2d 01       		.byte	0x1
 2378 0b2e 12       		.byte	0x12
 2379 0b2f 19       		.byte	0x19
 2380 0b30 61090000 		.4byte	0x961
 2381 0b34 9E000000 		.4byte	.LLST4
 2382 0b38 9A000000 		.4byte	.LVUS4
 2383 0b3c 19       		.uleb128 0x19
 2384 0b3d 3E000000 		.4byte	.LVL6
 2385 0b41 AE0C0000 		.4byte	0xcae
 2386 0b45 590B0000 		.4byte	0xb59
 2387 0b49 1A       		.uleb128 0x1a
 2388 0b4a 01       		.byte	0x1
ARM GAS  /tmp/ccb3qL8s.s 			page 47


 2389 0b4b 50       		.byte	0x50
 2390 0b4c 01       		.byte	0x1
 2391 0b4d 30       		.byte	0x30
 2392 0b4e 1A       		.uleb128 0x1a
 2393 0b4f 01       		.byte	0x1
 2394 0b50 51       		.byte	0x51
 2395 0b51 01       		.byte	0x1
 2396 0b52 30       		.byte	0x30
 2397 0b53 1A       		.uleb128 0x1a
 2398 0b54 01       		.byte	0x1
 2399 0b55 52       		.byte	0x52
 2400 0b56 01       		.byte	0x1
 2401 0b57 30       		.byte	0x30
 2402 0b58 00       		.byte	0
 2403 0b59 19       		.uleb128 0x19
 2404 0b5a 44000000 		.4byte	.LVL7
 2405 0b5e BC0C0000 		.4byte	0xcbc
 2406 0b62 6D0B0000 		.4byte	0xb6d
 2407 0b66 1A       		.uleb128 0x1a
 2408 0b67 01       		.byte	0x1
 2409 0b68 50       		.byte	0x50
 2410 0b69 02       		.byte	0x2
 2411 0b6a 74       		.byte	0x74
 2412 0b6b 00       		.sleb128 0
 2413 0b6c 00       		.byte	0
 2414 0b6d 19       		.uleb128 0x19
 2415 0b6e 4C000000 		.4byte	.LVL8
 2416 0b72 CA0C0000 		.4byte	0xcca
 2417 0b76 820B0000 		.4byte	0xb82
 2418 0b7a 1A       		.uleb128 0x1a
 2419 0b7b 01       		.byte	0x1
 2420 0b7c 50       		.byte	0x50
 2421 0b7d 03       		.byte	0x3
 2422 0b7e 0A       		.byte	0xa
 2423 0b7f F401     		.2byte	0x1f4
 2424 0b81 00       		.byte	0
 2425 0b82 1B       		.uleb128 0x1b
 2426 0b83 50000000 		.4byte	.LVL9
 2427 0b87 D80C0000 		.4byte	0xcd8
 2428 0b8b 1F       		.uleb128 0x1f
 2429 0b8c 58000000 		.4byte	.LVL10
 2430 0b90 CA0C0000 		.4byte	0xcca
 2431 0b94 1A       		.uleb128 0x1a
 2432 0b95 01       		.byte	0x1
 2433 0b96 50       		.byte	0x50
 2434 0b97 03       		.byte	0x3
 2435 0b98 0A       		.byte	0xa
 2436 0b99 F401     		.2byte	0x1f4
 2437 0b9b 00       		.byte	0
 2438 0b9c 00       		.byte	0
 2439 0b9d 20       		.uleb128 0x20
 2440 0b9e 01       		.byte	0x1
 2441 0b9f 03060000 		.4byte	.LASF148
 2442 0ba3 02       		.byte	0x2
 2443 0ba4 79       		.byte	0x79
 2444 0ba5 06       		.byte	0x6
 2445 0ba6 01       		.byte	0x1
ARM GAS  /tmp/ccb3qL8s.s 			page 48


 2446 0ba7 D0010000 		.4byte	.LFB34
 2447 0bab EC010000 		.4byte	.LFE34
 2448 0baf 02       		.byte	0x2
 2449 0bb0 7D       		.byte	0x7d
 2450 0bb1 00       		.sleb128 0
 2451 0bb2 01       		.byte	0x1
 2452 0bb3 CC0B0000 		.4byte	0xbcc
 2453 0bb7 1D       		.uleb128 0x1d
 2454 0bb8 E3030000 		.4byte	.LASF147
 2455 0bbc 02       		.byte	0x2
 2456 0bbd 79       		.byte	0x79
 2457 0bbe 22       		.byte	0x22
 2458 0bbf 75010000 		.4byte	0x175
 2459 0bc3 C3000000 		.4byte	.LLST7
 2460 0bc7 BF000000 		.4byte	.LVUS7
 2461 0bcb 00       		.byte	0
 2462 0bcc 20       		.uleb128 0x20
 2463 0bcd 01       		.byte	0x1
 2464 0bce 8C040000 		.4byte	.LASF149
 2465 0bd2 02       		.byte	0x2
 2466 0bd3 71       		.byte	0x71
 2467 0bd4 06       		.byte	0x6
 2468 0bd5 01       		.byte	0x1
 2469 0bd6 B8010000 		.4byte	.LFB33
 2470 0bda D0010000 		.4byte	.LFE33
 2471 0bde 02       		.byte	0x2
 2472 0bdf 7D       		.byte	0x7d
 2473 0be0 00       		.sleb128 0
 2474 0be1 01       		.byte	0x1
 2475 0be2 FB0B0000 		.4byte	0xbfb
 2476 0be6 1D       		.uleb128 0x1d
 2477 0be7 E3030000 		.4byte	.LASF147
 2478 0beb 02       		.byte	0x2
 2479 0bec 71       		.byte	0x71
 2480 0bed 21       		.byte	0x21
 2481 0bee 75010000 		.4byte	0x175
 2482 0bf2 E8000000 		.4byte	.LLST6
 2483 0bf6 E4000000 		.4byte	.LVUS6
 2484 0bfa 00       		.byte	0
 2485 0bfb 21       		.uleb128 0x21
 2486 0bfc 01       		.byte	0x1
 2487 0bfd 3D020000 		.4byte	.LASF151
 2488 0c01 02       		.byte	0x2
 2489 0c02 65       		.byte	0x65
 2490 0c03 06       		.byte	0x6
 2491 0c04 01       		.byte	0x1
 2492 0c05 90010000 		.4byte	.LFB32
 2493 0c09 B8010000 		.4byte	.LFE32
 2494 0c0d 02       		.byte	0x2
 2495 0c0e 7D       		.byte	0x7d
 2496 0c0f 00       		.sleb128 0
 2497 0c10 01       		.byte	0x1
 2498 0c11 22       		.uleb128 0x22
 2499 0c12 01       		.byte	0x1
 2500 0c13 7C040000 		.4byte	.LASF150
 2501 0c17 02       		.byte	0x2
 2502 0c18 5E       		.byte	0x5e
ARM GAS  /tmp/ccb3qL8s.s 			page 49


 2503 0c19 06       		.byte	0x6
 2504 0c1a 01       		.byte	0x1
 2505 0c1b 60010000 		.4byte	.LFB31
 2506 0c1f 90010000 		.4byte	.LFE31
 2507 0c23 09010000 		.4byte	.LLST5
 2508 0c27 01       		.byte	0x1
 2509 0c28 390C0000 		.4byte	0xc39
 2510 0c2c 23       		.uleb128 0x23
 2511 0c2d 5400     		.ascii	"T\000"
 2512 0c2f 02       		.byte	0x2
 2513 0c30 5E       		.byte	0x5e
 2514 0c31 17       		.byte	0x17
 2515 0c32 64030000 		.4byte	0x364
 2516 0c36 01       		.byte	0x1
 2517 0c37 50       		.byte	0x50
 2518 0c38 00       		.byte	0
 2519 0c39 21       		.uleb128 0x21
 2520 0c3a 01       		.byte	0x1
 2521 0c3b 5B050000 		.4byte	.LASF152
 2522 0c3f 02       		.byte	0x2
 2523 0c40 3C       		.byte	0x3c
 2524 0c41 06       		.byte	0x6
 2525 0c42 01       		.byte	0x1
 2526 0c43 EC000000 		.4byte	.LFB30
 2527 0c47 60010000 		.4byte	.LFE30
 2528 0c4b 02       		.byte	0x2
 2529 0c4c 7D       		.byte	0x7d
 2530 0c4d 00       		.sleb128 0
 2531 0c4e 01       		.byte	0x1
 2532 0c4f 24       		.uleb128 0x24
 2533 0c50 01       		.byte	0x1
 2534 0c51 E1050000 		.4byte	.LASF168
 2535 0c55 02       		.byte	0x2
 2536 0c56 0C       		.byte	0xc
 2537 0c57 06       		.byte	0x6
 2538 0c58 60000000 		.4byte	.LFB29
 2539 0c5c EC000000 		.4byte	.LFE29
 2540 0c60 02       		.byte	0x2
 2541 0c61 7D       		.byte	0x7d
 2542 0c62 00       		.sleb128 0
 2543 0c63 01       		.byte	0x1
 2544 0c64 25       		.uleb128 0x25
 2545 0c65 01       		.byte	0x1
 2546 0c66 01       		.byte	0x1
 2547 0c67 76020000 		.4byte	.LASF153
 2548 0c6b 76020000 		.4byte	.LASF153
 2549 0c6f 07       		.byte	0x7
 2550 0c70 D805     		.2byte	0x5d8
 2551 0c72 10       		.byte	0x10
 2552 0c73 26       		.uleb128 0x26
 2553 0c74 01       		.byte	0x1
 2554 0c75 01       		.byte	0x1
 2555 0c76 D1020000 		.4byte	.LASF154
 2556 0c7a D1020000 		.4byte	.LASF154
 2557 0c7e 08       		.byte	0x8
 2558 0c7f 7E       		.byte	0x7e
 2559 0c80 06       		.byte	0x6
ARM GAS  /tmp/ccb3qL8s.s 			page 50


 2560 0c81 25       		.uleb128 0x25
 2561 0c82 01       		.byte	0x1
 2562 0c83 01       		.byte	0x1
 2563 0c84 6B040000 		.4byte	.LASF155
 2564 0c88 6B040000 		.4byte	.LASF155
 2565 0c8c 09       		.byte	0x9
 2566 0c8d 4A01     		.2byte	0x14a
 2567 0c8f 0D       		.byte	0xd
 2568 0c90 25       		.uleb128 0x25
 2569 0c91 01       		.byte	0x1
 2570 0c92 01       		.byte	0x1
 2571 0c93 5D020000 		.4byte	.LASF156
 2572 0c97 5D020000 		.4byte	.LASF156
 2573 0c9b 09       		.byte	0x9
 2574 0c9c 9704     		.2byte	0x497
 2575 0c9e 06       		.byte	0x6
 2576 0c9f 25       		.uleb128 0x25
 2577 0ca0 01       		.byte	0x1
 2578 0ca1 01       		.byte	0x1
 2579 0ca2 F1000000 		.4byte	.LASF157
 2580 0ca6 F1000000 		.4byte	.LASF157
 2581 0caa 09       		.byte	0x9
 2582 0cab F602     		.2byte	0x2f6
 2583 0cad 06       		.byte	0x6
 2584 0cae 26       		.uleb128 0x26
 2585 0caf 01       		.byte	0x1
 2586 0cb0 01       		.byte	0x1
 2587 0cb1 13010000 		.4byte	.LASF158
 2588 0cb5 13010000 		.4byte	.LASF158
 2589 0cb9 08       		.byte	0x8
 2590 0cba 96       		.byte	0x96
 2591 0cbb 06       		.byte	0x6
 2592 0cbc 26       		.uleb128 0x26
 2593 0cbd 01       		.byte	0x1
 2594 0cbe 01       		.byte	0x1
 2595 0cbf 77060000 		.4byte	.LASF159
 2596 0cc3 77060000 		.4byte	.LASF159
 2597 0cc7 08       		.byte	0x8
 2598 0cc8 94       		.byte	0x94
 2599 0cc9 06       		.byte	0x6
 2600 0cca 26       		.uleb128 0x26
 2601 0ccb 01       		.byte	0x1
 2602 0ccc 01       		.byte	0x1
 2603 0ccd D9050000 		.4byte	.LASF160
 2604 0cd1 D9050000 		.4byte	.LASF160
 2605 0cd5 0A       		.byte	0xa
 2606 0cd6 14       		.byte	0x14
 2607 0cd7 06       		.byte	0x6
 2608 0cd8 26       		.uleb128 0x26
 2609 0cd9 01       		.byte	0x1
 2610 0cda 01       		.byte	0x1
 2611 0cdb E6010000 		.4byte	.LASF161
 2612 0cdf E6010000 		.4byte	.LASF161
 2613 0ce3 08       		.byte	0x8
 2614 0ce4 81       		.byte	0x81
 2615 0ce5 06       		.byte	0x6
 2616 0ce6 00       		.byte	0
ARM GAS  /tmp/ccb3qL8s.s 			page 51


 2617              		.section	.debug_abbrev,"",%progbits
 2618              	.Ldebug_abbrev0:
 2619 0000 01       		.uleb128 0x1
 2620 0001 11       		.uleb128 0x11
 2621 0002 01       		.byte	0x1
 2622 0003 25       		.uleb128 0x25
 2623 0004 0E       		.uleb128 0xe
 2624 0005 13       		.uleb128 0x13
 2625 0006 0B       		.uleb128 0xb
 2626 0007 03       		.uleb128 0x3
 2627 0008 0E       		.uleb128 0xe
 2628 0009 1B       		.uleb128 0x1b
 2629 000a 0E       		.uleb128 0xe
 2630 000b 55       		.uleb128 0x55
 2631 000c 06       		.uleb128 0x6
 2632 000d 11       		.uleb128 0x11
 2633 000e 01       		.uleb128 0x1
 2634 000f 52       		.uleb128 0x52
 2635 0010 01       		.uleb128 0x1
 2636 0011 10       		.uleb128 0x10
 2637 0012 06       		.uleb128 0x6
 2638 0013 00       		.byte	0
 2639 0014 00       		.byte	0
 2640 0015 02       		.uleb128 0x2
 2641 0016 04       		.uleb128 0x4
 2642 0017 01       		.byte	0x1
 2643 0018 03       		.uleb128 0x3
 2644 0019 0E       		.uleb128 0xe
 2645 001a 3E       		.uleb128 0x3e
 2646 001b 0B       		.uleb128 0xb
 2647 001c 0B       		.uleb128 0xb
 2648 001d 0B       		.uleb128 0xb
 2649 001e 49       		.uleb128 0x49
 2650 001f 13       		.uleb128 0x13
 2651 0020 3A       		.uleb128 0x3a
 2652 0021 0B       		.uleb128 0xb
 2653 0022 3B       		.uleb128 0x3b
 2654 0023 0B       		.uleb128 0xb
 2655 0024 39       		.uleb128 0x39
 2656 0025 0B       		.uleb128 0xb
 2657 0026 01       		.uleb128 0x1
 2658 0027 13       		.uleb128 0x13
 2659 0028 00       		.byte	0
 2660 0029 00       		.byte	0
 2661 002a 03       		.uleb128 0x3
 2662 002b 28       		.uleb128 0x28
 2663 002c 00       		.byte	0
 2664 002d 03       		.uleb128 0x3
 2665 002e 0E       		.uleb128 0xe
 2666 002f 1C       		.uleb128 0x1c
 2667 0030 0D       		.uleb128 0xd
 2668 0031 00       		.byte	0
 2669 0032 00       		.byte	0
 2670 0033 04       		.uleb128 0x4
 2671 0034 28       		.uleb128 0x28
 2672 0035 00       		.byte	0
 2673 0036 03       		.uleb128 0x3
ARM GAS  /tmp/ccb3qL8s.s 			page 52


 2674 0037 0E       		.uleb128 0xe
 2675 0038 1C       		.uleb128 0x1c
 2676 0039 0B       		.uleb128 0xb
 2677 003a 00       		.byte	0
 2678 003b 00       		.byte	0
 2679 003c 05       		.uleb128 0x5
 2680 003d 24       		.uleb128 0x24
 2681 003e 00       		.byte	0
 2682 003f 0B       		.uleb128 0xb
 2683 0040 0B       		.uleb128 0xb
 2684 0041 3E       		.uleb128 0x3e
 2685 0042 0B       		.uleb128 0xb
 2686 0043 03       		.uleb128 0x3
 2687 0044 0E       		.uleb128 0xe
 2688 0045 00       		.byte	0
 2689 0046 00       		.byte	0
 2690 0047 06       		.uleb128 0x6
 2691 0048 16       		.uleb128 0x16
 2692 0049 00       		.byte	0
 2693 004a 03       		.uleb128 0x3
 2694 004b 0E       		.uleb128 0xe
 2695 004c 3A       		.uleb128 0x3a
 2696 004d 0B       		.uleb128 0xb
 2697 004e 3B       		.uleb128 0x3b
 2698 004f 05       		.uleb128 0x5
 2699 0050 39       		.uleb128 0x39
 2700 0051 0B       		.uleb128 0xb
 2701 0052 49       		.uleb128 0x49
 2702 0053 13       		.uleb128 0x13
 2703 0054 00       		.byte	0
 2704 0055 00       		.byte	0
 2705 0056 07       		.uleb128 0x7
 2706 0057 16       		.uleb128 0x16
 2707 0058 00       		.byte	0
 2708 0059 03       		.uleb128 0x3
 2709 005a 0E       		.uleb128 0xe
 2710 005b 3A       		.uleb128 0x3a
 2711 005c 0B       		.uleb128 0xb
 2712 005d 3B       		.uleb128 0x3b
 2713 005e 0B       		.uleb128 0xb
 2714 005f 39       		.uleb128 0x39
 2715 0060 0B       		.uleb128 0xb
 2716 0061 49       		.uleb128 0x49
 2717 0062 13       		.uleb128 0x13
 2718 0063 00       		.byte	0
 2719 0064 00       		.byte	0
 2720 0065 08       		.uleb128 0x8
 2721 0066 24       		.uleb128 0x24
 2722 0067 00       		.byte	0
 2723 0068 0B       		.uleb128 0xb
 2724 0069 0B       		.uleb128 0xb
 2725 006a 3E       		.uleb128 0x3e
 2726 006b 0B       		.uleb128 0xb
 2727 006c 03       		.uleb128 0x3
 2728 006d 08       		.uleb128 0x8
 2729 006e 00       		.byte	0
 2730 006f 00       		.byte	0
ARM GAS  /tmp/ccb3qL8s.s 			page 53


 2731 0070 09       		.uleb128 0x9
 2732 0071 35       		.uleb128 0x35
 2733 0072 00       		.byte	0
 2734 0073 49       		.uleb128 0x49
 2735 0074 13       		.uleb128 0x13
 2736 0075 00       		.byte	0
 2737 0076 00       		.byte	0
 2738 0077 0A       		.uleb128 0xa
 2739 0078 13       		.uleb128 0x13
 2740 0079 01       		.byte	0x1
 2741 007a 0B       		.uleb128 0xb
 2742 007b 05       		.uleb128 0x5
 2743 007c 3A       		.uleb128 0x3a
 2744 007d 0B       		.uleb128 0xb
 2745 007e 3B       		.uleb128 0x3b
 2746 007f 0B       		.uleb128 0xb
 2747 0080 39       		.uleb128 0x39
 2748 0081 0B       		.uleb128 0xb
 2749 0082 01       		.uleb128 0x1
 2750 0083 13       		.uleb128 0x13
 2751 0084 00       		.byte	0
 2752 0085 00       		.byte	0
 2753 0086 0B       		.uleb128 0xb
 2754 0087 0D       		.uleb128 0xd
 2755 0088 00       		.byte	0
 2756 0089 03       		.uleb128 0x3
 2757 008a 0E       		.uleb128 0xe
 2758 008b 3A       		.uleb128 0x3a
 2759 008c 0B       		.uleb128 0xb
 2760 008d 3B       		.uleb128 0x3b
 2761 008e 0B       		.uleb128 0xb
 2762 008f 39       		.uleb128 0x39
 2763 0090 0B       		.uleb128 0xb
 2764 0091 49       		.uleb128 0x49
 2765 0092 13       		.uleb128 0x13
 2766 0093 38       		.uleb128 0x38
 2767 0094 0A       		.uleb128 0xa
 2768 0095 00       		.byte	0
 2769 0096 00       		.byte	0
 2770 0097 0C       		.uleb128 0xc
 2771 0098 0D       		.uleb128 0xd
 2772 0099 00       		.byte	0
 2773 009a 03       		.uleb128 0x3
 2774 009b 08       		.uleb128 0x8
 2775 009c 3A       		.uleb128 0x3a
 2776 009d 0B       		.uleb128 0xb
 2777 009e 3B       		.uleb128 0x3b
 2778 009f 0B       		.uleb128 0xb
 2779 00a0 39       		.uleb128 0x39
 2780 00a1 0B       		.uleb128 0xb
 2781 00a2 49       		.uleb128 0x49
 2782 00a3 13       		.uleb128 0x13
 2783 00a4 38       		.uleb128 0x38
 2784 00a5 0A       		.uleb128 0xa
 2785 00a6 00       		.byte	0
 2786 00a7 00       		.byte	0
 2787 00a8 0D       		.uleb128 0xd
ARM GAS  /tmp/ccb3qL8s.s 			page 54


 2788 00a9 01       		.uleb128 0x1
 2789 00aa 01       		.byte	0x1
 2790 00ab 49       		.uleb128 0x49
 2791 00ac 13       		.uleb128 0x13
 2792 00ad 01       		.uleb128 0x1
 2793 00ae 13       		.uleb128 0x13
 2794 00af 00       		.byte	0
 2795 00b0 00       		.byte	0
 2796 00b1 0E       		.uleb128 0xe
 2797 00b2 21       		.uleb128 0x21
 2798 00b3 00       		.byte	0
 2799 00b4 49       		.uleb128 0x49
 2800 00b5 13       		.uleb128 0x13
 2801 00b6 2F       		.uleb128 0x2f
 2802 00b7 0B       		.uleb128 0xb
 2803 00b8 00       		.byte	0
 2804 00b9 00       		.byte	0
 2805 00ba 0F       		.uleb128 0xf
 2806 00bb 21       		.uleb128 0x21
 2807 00bc 00       		.byte	0
 2808 00bd 49       		.uleb128 0x49
 2809 00be 13       		.uleb128 0x13
 2810 00bf 2F       		.uleb128 0x2f
 2811 00c0 05       		.uleb128 0x5
 2812 00c1 00       		.byte	0
 2813 00c2 00       		.byte	0
 2814 00c3 10       		.uleb128 0x10
 2815 00c4 16       		.uleb128 0x16
 2816 00c5 00       		.byte	0
 2817 00c6 03       		.uleb128 0x3
 2818 00c7 08       		.uleb128 0x8
 2819 00c8 3A       		.uleb128 0x3a
 2820 00c9 0B       		.uleb128 0xb
 2821 00ca 3B       		.uleb128 0x3b
 2822 00cb 05       		.uleb128 0x5
 2823 00cc 39       		.uleb128 0x39
 2824 00cd 0B       		.uleb128 0xb
 2825 00ce 49       		.uleb128 0x49
 2826 00cf 13       		.uleb128 0x13
 2827 00d0 00       		.byte	0
 2828 00d1 00       		.byte	0
 2829 00d2 11       		.uleb128 0x11
 2830 00d3 13       		.uleb128 0x13
 2831 00d4 01       		.byte	0x1
 2832 00d5 0B       		.uleb128 0xb
 2833 00d6 0B       		.uleb128 0xb
 2834 00d7 3A       		.uleb128 0x3a
 2835 00d8 0B       		.uleb128 0xb
 2836 00d9 3B       		.uleb128 0x3b
 2837 00da 05       		.uleb128 0x5
 2838 00db 39       		.uleb128 0x39
 2839 00dc 0B       		.uleb128 0xb
 2840 00dd 01       		.uleb128 0x1
 2841 00de 13       		.uleb128 0x13
 2842 00df 00       		.byte	0
 2843 00e0 00       		.byte	0
 2844 00e1 12       		.uleb128 0x12
ARM GAS  /tmp/ccb3qL8s.s 			page 55


 2845 00e2 0D       		.uleb128 0xd
 2846 00e3 00       		.byte	0
 2847 00e4 03       		.uleb128 0x3
 2848 00e5 08       		.uleb128 0x8
 2849 00e6 3A       		.uleb128 0x3a
 2850 00e7 0B       		.uleb128 0xb
 2851 00e8 3B       		.uleb128 0x3b
 2852 00e9 05       		.uleb128 0x5
 2853 00ea 39       		.uleb128 0x39
 2854 00eb 0B       		.uleb128 0xb
 2855 00ec 49       		.uleb128 0x49
 2856 00ed 13       		.uleb128 0x13
 2857 00ee 38       		.uleb128 0x38
 2858 00ef 0A       		.uleb128 0xa
 2859 00f0 00       		.byte	0
 2860 00f1 00       		.byte	0
 2861 00f2 13       		.uleb128 0x13
 2862 00f3 0D       		.uleb128 0xd
 2863 00f4 00       		.byte	0
 2864 00f5 03       		.uleb128 0x3
 2865 00f6 0E       		.uleb128 0xe
 2866 00f7 3A       		.uleb128 0x3a
 2867 00f8 0B       		.uleb128 0xb
 2868 00f9 3B       		.uleb128 0x3b
 2869 00fa 05       		.uleb128 0x5
 2870 00fb 39       		.uleb128 0x39
 2871 00fc 0B       		.uleb128 0xb
 2872 00fd 49       		.uleb128 0x49
 2873 00fe 13       		.uleb128 0x13
 2874 00ff 38       		.uleb128 0x38
 2875 0100 0A       		.uleb128 0xa
 2876 0101 00       		.byte	0
 2877 0102 00       		.byte	0
 2878 0103 14       		.uleb128 0x14
 2879 0104 0F       		.uleb128 0xf
 2880 0105 00       		.byte	0
 2881 0106 0B       		.uleb128 0xb
 2882 0107 0B       		.uleb128 0xb
 2883 0108 00       		.byte	0
 2884 0109 00       		.byte	0
 2885 010a 15       		.uleb128 0x15
 2886 010b 0F       		.uleb128 0xf
 2887 010c 00       		.byte	0
 2888 010d 0B       		.uleb128 0xb
 2889 010e 0B       		.uleb128 0xb
 2890 010f 49       		.uleb128 0x49
 2891 0110 13       		.uleb128 0x13
 2892 0111 00       		.byte	0
 2893 0112 00       		.byte	0
 2894 0113 16       		.uleb128 0x16
 2895 0114 13       		.uleb128 0x13
 2896 0115 00       		.byte	0
 2897 0116 03       		.uleb128 0x3
 2898 0117 0E       		.uleb128 0xe
 2899 0118 3C       		.uleb128 0x3c
 2900 0119 0C       		.uleb128 0xc
 2901 011a 00       		.byte	0
ARM GAS  /tmp/ccb3qL8s.s 			page 56


 2902 011b 00       		.byte	0
 2903 011c 17       		.uleb128 0x17
 2904 011d 34       		.uleb128 0x34
 2905 011e 00       		.byte	0
 2906 011f 03       		.uleb128 0x3
 2907 0120 0E       		.uleb128 0xe
 2908 0121 3A       		.uleb128 0x3a
 2909 0122 0B       		.uleb128 0xb
 2910 0123 3B       		.uleb128 0x3b
 2911 0124 0B       		.uleb128 0xb
 2912 0125 39       		.uleb128 0x39
 2913 0126 0B       		.uleb128 0xb
 2914 0127 49       		.uleb128 0x49
 2915 0128 13       		.uleb128 0x13
 2916 0129 00       		.byte	0
 2917 012a 00       		.byte	0
 2918 012b 18       		.uleb128 0x18
 2919 012c 2E       		.uleb128 0x2e
 2920 012d 01       		.byte	0x1
 2921 012e 3F       		.uleb128 0x3f
 2922 012f 0C       		.uleb128 0xc
 2923 0130 03       		.uleb128 0x3
 2924 0131 0E       		.uleb128 0xe
 2925 0132 3A       		.uleb128 0x3a
 2926 0133 0B       		.uleb128 0xb
 2927 0134 3B       		.uleb128 0x3b
 2928 0135 0B       		.uleb128 0xb
 2929 0136 39       		.uleb128 0x39
 2930 0137 0B       		.uleb128 0xb
 2931 0138 27       		.uleb128 0x27
 2932 0139 0C       		.uleb128 0xc
 2933 013a 49       		.uleb128 0x49
 2934 013b 13       		.uleb128 0x13
 2935 013c 11       		.uleb128 0x11
 2936 013d 01       		.uleb128 0x1
 2937 013e 12       		.uleb128 0x12
 2938 013f 01       		.uleb128 0x1
 2939 0140 40       		.uleb128 0x40
 2940 0141 06       		.uleb128 0x6
 2941 0142 9742     		.uleb128 0x2117
 2942 0144 0C       		.uleb128 0xc
 2943 0145 01       		.uleb128 0x1
 2944 0146 13       		.uleb128 0x13
 2945 0147 00       		.byte	0
 2946 0148 00       		.byte	0
 2947 0149 19       		.uleb128 0x19
 2948 014a 898201   		.uleb128 0x4109
 2949 014d 01       		.byte	0x1
 2950 014e 11       		.uleb128 0x11
 2951 014f 01       		.uleb128 0x1
 2952 0150 31       		.uleb128 0x31
 2953 0151 13       		.uleb128 0x13
 2954 0152 01       		.uleb128 0x1
 2955 0153 13       		.uleb128 0x13
 2956 0154 00       		.byte	0
 2957 0155 00       		.byte	0
 2958 0156 1A       		.uleb128 0x1a
ARM GAS  /tmp/ccb3qL8s.s 			page 57


 2959 0157 8A8201   		.uleb128 0x410a
 2960 015a 00       		.byte	0
 2961 015b 02       		.uleb128 0x2
 2962 015c 0A       		.uleb128 0xa
 2963 015d 9142     		.uleb128 0x2111
 2964 015f 0A       		.uleb128 0xa
 2965 0160 00       		.byte	0
 2966 0161 00       		.byte	0
 2967 0162 1B       		.uleb128 0x1b
 2968 0163 898201   		.uleb128 0x4109
 2969 0166 00       		.byte	0
 2970 0167 11       		.uleb128 0x11
 2971 0168 01       		.uleb128 0x1
 2972 0169 31       		.uleb128 0x31
 2973 016a 13       		.uleb128 0x13
 2974 016b 00       		.byte	0
 2975 016c 00       		.byte	0
 2976 016d 1C       		.uleb128 0x1c
 2977 016e 2E       		.uleb128 0x2e
 2978 016f 01       		.byte	0x1
 2979 0170 03       		.uleb128 0x3
 2980 0171 0E       		.uleb128 0xe
 2981 0172 3A       		.uleb128 0x3a
 2982 0173 0B       		.uleb128 0xb
 2983 0174 3B       		.uleb128 0x3b
 2984 0175 0B       		.uleb128 0xb
 2985 0176 39       		.uleb128 0x39
 2986 0177 0B       		.uleb128 0xb
 2987 0178 27       		.uleb128 0x27
 2988 0179 0C       		.uleb128 0xc
 2989 017a 11       		.uleb128 0x11
 2990 017b 01       		.uleb128 0x1
 2991 017c 12       		.uleb128 0x12
 2992 017d 01       		.uleb128 0x1
 2993 017e 40       		.uleb128 0x40
 2994 017f 0A       		.uleb128 0xa
 2995 0180 9742     		.uleb128 0x2117
 2996 0182 0C       		.uleb128 0xc
 2997 0183 01       		.uleb128 0x1
 2998 0184 13       		.uleb128 0x13
 2999 0185 00       		.byte	0
 3000 0186 00       		.byte	0
 3001 0187 1D       		.uleb128 0x1d
 3002 0188 05       		.uleb128 0x5
 3003 0189 00       		.byte	0
 3004 018a 03       		.uleb128 0x3
 3005 018b 0E       		.uleb128 0xe
 3006 018c 3A       		.uleb128 0x3a
 3007 018d 0B       		.uleb128 0xb
 3008 018e 3B       		.uleb128 0x3b
 3009 018f 0B       		.uleb128 0xb
 3010 0190 39       		.uleb128 0x39
 3011 0191 0B       		.uleb128 0xb
 3012 0192 49       		.uleb128 0x49
 3013 0193 13       		.uleb128 0x13
 3014 0194 02       		.uleb128 0x2
 3015 0195 06       		.uleb128 0x6
ARM GAS  /tmp/ccb3qL8s.s 			page 58


 3016 0196 B742     		.uleb128 0x2137
 3017 0198 06       		.uleb128 0x6
 3018 0199 00       		.byte	0
 3019 019a 00       		.byte	0
 3020 019b 1E       		.uleb128 0x1e
 3021 019c 2E       		.uleb128 0x2e
 3022 019d 01       		.byte	0x1
 3023 019e 03       		.uleb128 0x3
 3024 019f 0E       		.uleb128 0xe
 3025 01a0 3A       		.uleb128 0x3a
 3026 01a1 0B       		.uleb128 0xb
 3027 01a2 3B       		.uleb128 0x3b
 3028 01a3 0B       		.uleb128 0xb
 3029 01a4 39       		.uleb128 0x39
 3030 01a5 0B       		.uleb128 0xb
 3031 01a6 27       		.uleb128 0x27
 3032 01a7 0C       		.uleb128 0xc
 3033 01a8 11       		.uleb128 0x11
 3034 01a9 01       		.uleb128 0x1
 3035 01aa 12       		.uleb128 0x12
 3036 01ab 01       		.uleb128 0x1
 3037 01ac 40       		.uleb128 0x40
 3038 01ad 06       		.uleb128 0x6
 3039 01ae 9742     		.uleb128 0x2117
 3040 01b0 0C       		.uleb128 0xc
 3041 01b1 01       		.uleb128 0x1
 3042 01b2 13       		.uleb128 0x13
 3043 01b3 00       		.byte	0
 3044 01b4 00       		.byte	0
 3045 01b5 1F       		.uleb128 0x1f
 3046 01b6 898201   		.uleb128 0x4109
 3047 01b9 01       		.byte	0x1
 3048 01ba 11       		.uleb128 0x11
 3049 01bb 01       		.uleb128 0x1
 3050 01bc 31       		.uleb128 0x31
 3051 01bd 13       		.uleb128 0x13
 3052 01be 00       		.byte	0
 3053 01bf 00       		.byte	0
 3054 01c0 20       		.uleb128 0x20
 3055 01c1 2E       		.uleb128 0x2e
 3056 01c2 01       		.byte	0x1
 3057 01c3 3F       		.uleb128 0x3f
 3058 01c4 0C       		.uleb128 0xc
 3059 01c5 03       		.uleb128 0x3
 3060 01c6 0E       		.uleb128 0xe
 3061 01c7 3A       		.uleb128 0x3a
 3062 01c8 0B       		.uleb128 0xb
 3063 01c9 3B       		.uleb128 0x3b
 3064 01ca 0B       		.uleb128 0xb
 3065 01cb 39       		.uleb128 0x39
 3066 01cc 0B       		.uleb128 0xb
 3067 01cd 27       		.uleb128 0x27
 3068 01ce 0C       		.uleb128 0xc
 3069 01cf 11       		.uleb128 0x11
 3070 01d0 01       		.uleb128 0x1
 3071 01d1 12       		.uleb128 0x12
 3072 01d2 01       		.uleb128 0x1
ARM GAS  /tmp/ccb3qL8s.s 			page 59


 3073 01d3 40       		.uleb128 0x40
 3074 01d4 0A       		.uleb128 0xa
 3075 01d5 9742     		.uleb128 0x2117
 3076 01d7 0C       		.uleb128 0xc
 3077 01d8 01       		.uleb128 0x1
 3078 01d9 13       		.uleb128 0x13
 3079 01da 00       		.byte	0
 3080 01db 00       		.byte	0
 3081 01dc 21       		.uleb128 0x21
 3082 01dd 2E       		.uleb128 0x2e
 3083 01de 00       		.byte	0
 3084 01df 3F       		.uleb128 0x3f
 3085 01e0 0C       		.uleb128 0xc
 3086 01e1 03       		.uleb128 0x3
 3087 01e2 0E       		.uleb128 0xe
 3088 01e3 3A       		.uleb128 0x3a
 3089 01e4 0B       		.uleb128 0xb
 3090 01e5 3B       		.uleb128 0x3b
 3091 01e6 0B       		.uleb128 0xb
 3092 01e7 39       		.uleb128 0x39
 3093 01e8 0B       		.uleb128 0xb
 3094 01e9 27       		.uleb128 0x27
 3095 01ea 0C       		.uleb128 0xc
 3096 01eb 11       		.uleb128 0x11
 3097 01ec 01       		.uleb128 0x1
 3098 01ed 12       		.uleb128 0x12
 3099 01ee 01       		.uleb128 0x1
 3100 01ef 40       		.uleb128 0x40
 3101 01f0 0A       		.uleb128 0xa
 3102 01f1 9742     		.uleb128 0x2117
 3103 01f3 0C       		.uleb128 0xc
 3104 01f4 00       		.byte	0
 3105 01f5 00       		.byte	0
 3106 01f6 22       		.uleb128 0x22
 3107 01f7 2E       		.uleb128 0x2e
 3108 01f8 01       		.byte	0x1
 3109 01f9 3F       		.uleb128 0x3f
 3110 01fa 0C       		.uleb128 0xc
 3111 01fb 03       		.uleb128 0x3
 3112 01fc 0E       		.uleb128 0xe
 3113 01fd 3A       		.uleb128 0x3a
 3114 01fe 0B       		.uleb128 0xb
 3115 01ff 3B       		.uleb128 0x3b
 3116 0200 0B       		.uleb128 0xb
 3117 0201 39       		.uleb128 0x39
 3118 0202 0B       		.uleb128 0xb
 3119 0203 27       		.uleb128 0x27
 3120 0204 0C       		.uleb128 0xc
 3121 0205 11       		.uleb128 0x11
 3122 0206 01       		.uleb128 0x1
 3123 0207 12       		.uleb128 0x12
 3124 0208 01       		.uleb128 0x1
 3125 0209 40       		.uleb128 0x40
 3126 020a 06       		.uleb128 0x6
 3127 020b 9742     		.uleb128 0x2117
 3128 020d 0C       		.uleb128 0xc
 3129 020e 01       		.uleb128 0x1
ARM GAS  /tmp/ccb3qL8s.s 			page 60


 3130 020f 13       		.uleb128 0x13
 3131 0210 00       		.byte	0
 3132 0211 00       		.byte	0
 3133 0212 23       		.uleb128 0x23
 3134 0213 05       		.uleb128 0x5
 3135 0214 00       		.byte	0
 3136 0215 03       		.uleb128 0x3
 3137 0216 08       		.uleb128 0x8
 3138 0217 3A       		.uleb128 0x3a
 3139 0218 0B       		.uleb128 0xb
 3140 0219 3B       		.uleb128 0x3b
 3141 021a 0B       		.uleb128 0xb
 3142 021b 39       		.uleb128 0x39
 3143 021c 0B       		.uleb128 0xb
 3144 021d 49       		.uleb128 0x49
 3145 021e 13       		.uleb128 0x13
 3146 021f 02       		.uleb128 0x2
 3147 0220 0A       		.uleb128 0xa
 3148 0221 00       		.byte	0
 3149 0222 00       		.byte	0
 3150 0223 24       		.uleb128 0x24
 3151 0224 2E       		.uleb128 0x2e
 3152 0225 00       		.byte	0
 3153 0226 3F       		.uleb128 0x3f
 3154 0227 0C       		.uleb128 0xc
 3155 0228 03       		.uleb128 0x3
 3156 0229 0E       		.uleb128 0xe
 3157 022a 3A       		.uleb128 0x3a
 3158 022b 0B       		.uleb128 0xb
 3159 022c 3B       		.uleb128 0x3b
 3160 022d 0B       		.uleb128 0xb
 3161 022e 39       		.uleb128 0x39
 3162 022f 0B       		.uleb128 0xb
 3163 0230 11       		.uleb128 0x11
 3164 0231 01       		.uleb128 0x1
 3165 0232 12       		.uleb128 0x12
 3166 0233 01       		.uleb128 0x1
 3167 0234 40       		.uleb128 0x40
 3168 0235 0A       		.uleb128 0xa
 3169 0236 9742     		.uleb128 0x2117
 3170 0238 0C       		.uleb128 0xc
 3171 0239 00       		.byte	0
 3172 023a 00       		.byte	0
 3173 023b 25       		.uleb128 0x25
 3174 023c 2E       		.uleb128 0x2e
 3175 023d 00       		.byte	0
 3176 023e 3F       		.uleb128 0x3f
 3177 023f 0C       		.uleb128 0xc
 3178 0240 3C       		.uleb128 0x3c
 3179 0241 0C       		.uleb128 0xc
 3180 0242 8740     		.uleb128 0x2007
 3181 0244 0E       		.uleb128 0xe
 3182 0245 03       		.uleb128 0x3
 3183 0246 0E       		.uleb128 0xe
 3184 0247 3A       		.uleb128 0x3a
 3185 0248 0B       		.uleb128 0xb
 3186 0249 3B       		.uleb128 0x3b
ARM GAS  /tmp/ccb3qL8s.s 			page 61


 3187 024a 05       		.uleb128 0x5
 3188 024b 39       		.uleb128 0x39
 3189 024c 0B       		.uleb128 0xb
 3190 024d 00       		.byte	0
 3191 024e 00       		.byte	0
 3192 024f 26       		.uleb128 0x26
 3193 0250 2E       		.uleb128 0x2e
 3194 0251 00       		.byte	0
 3195 0252 3F       		.uleb128 0x3f
 3196 0253 0C       		.uleb128 0xc
 3197 0254 3C       		.uleb128 0x3c
 3198 0255 0C       		.uleb128 0xc
 3199 0256 8740     		.uleb128 0x2007
 3200 0258 0E       		.uleb128 0xe
 3201 0259 03       		.uleb128 0x3
 3202 025a 0E       		.uleb128 0xe
 3203 025b 3A       		.uleb128 0x3a
 3204 025c 0B       		.uleb128 0xb
 3205 025d 3B       		.uleb128 0x3b
 3206 025e 0B       		.uleb128 0xb
 3207 025f 39       		.uleb128 0x39
 3208 0260 0B       		.uleb128 0xb
 3209 0261 00       		.byte	0
 3210 0262 00       		.byte	0
 3211 0263 00       		.byte	0
 3212              		.section	.debug_loc,"",%progbits
 3213              	.Ldebug_loc0:
 3214              	.LLST8:
 3215 0000 00000000 		.4byte	.LFB43
 3216 0004 06000000 		.4byte	.LCFI5
 3217 0008 0200     		.2byte	0x2
 3218 000a 7D       		.byte	0x7d
 3219 000b 00       		.sleb128 0
 3220 000c 06000000 		.4byte	.LCFI5
 3221 0010 68000000 		.4byte	.LFE43
 3222 0014 0200     		.2byte	0x2
 3223 0016 7D       		.byte	0x7d
 3224 0017 10       		.sleb128 16
 3225 0018 00000000 		.4byte	0
 3226 001c 00000000 		.4byte	0
 3227              	.LVUS0:
 3228 0020 01       		.uleb128 .LVU1
 3229 0021 00       		.uleb128 0
 3230              	.LLST0:
 3231 0022 00000000 		.4byte	.LVL0
 3232 0026 02000000 		.4byte	.LFE42
 3233 002a 0100     		.2byte	0x1
 3234 002c 50       		.byte	0x50
 3235 002d 00000000 		.4byte	0
 3236 0031 00000000 		.4byte	0
 3237              	.LLST1:
 3238 0035 02000000 		.4byte	.LFB41
 3239 0039 06000000 		.4byte	.LCFI0
 3240 003d 0200     		.2byte	0x2
 3241 003f 7D       		.byte	0x7d
 3242 0040 00       		.sleb128 0
 3243 0041 06000000 		.4byte	.LCFI0
ARM GAS  /tmp/ccb3qL8s.s 			page 62


 3244 0045 30000000 		.4byte	.LFE41
 3245 0049 0200     		.2byte	0x2
 3246 004b 7D       		.byte	0x7d
 3247 004c 08       		.sleb128 8
 3248 004d 00000000 		.4byte	0
 3249 0051 00000000 		.4byte	0
 3250              	.LVUS2:
 3251 0055 00       		.uleb128 0
 3252 0056 00       		.uleb128 .LVU13
 3253 0057 00       		.uleb128 .LVU13
 3254 0058 00       		.uleb128 0
 3255              	.LLST2:
 3256 0059 02000000 		.4byte	.LVL1
 3257 005d 18000000 		.4byte	.LVL2
 3258 0061 0100     		.2byte	0x1
 3259 0063 50       		.byte	0x50
 3260 0064 18000000 		.4byte	.LVL2
 3261 0068 30000000 		.4byte	.LFE41
 3262 006c 0400     		.2byte	0x4
 3263 006e F3       		.byte	0xf3
 3264 006f 01       		.uleb128 0x1
 3265 0070 50       		.byte	0x50
 3266 0071 9F       		.byte	0x9f
 3267 0072 00000000 		.4byte	0
 3268 0076 00000000 		.4byte	0
 3269              	.LLST3:
 3270 007a 30000000 		.4byte	.LFB40
 3271 007e 32000000 		.4byte	.LCFI1
 3272 0082 0200     		.2byte	0x2
 3273 0084 7D       		.byte	0x7d
 3274 0085 00       		.sleb128 0
 3275 0086 32000000 		.4byte	.LCFI1
 3276 008a 60000000 		.4byte	.LFE40
 3277 008e 0200     		.2byte	0x2
 3278 0090 7D       		.byte	0x7d
 3279 0091 08       		.sleb128 8
 3280 0092 00000000 		.4byte	0
 3281 0096 00000000 		.4byte	0
 3282              	.LVUS4:
 3283 009a 00       		.uleb128 0
 3284 009b 00       		.uleb128 .LVU23
 3285 009c 00       		.uleb128 .LVU23
 3286 009d 00       		.uleb128 0
 3287              	.LLST4:
 3288 009e 30000000 		.4byte	.LVL4
 3289 00a2 34000000 		.4byte	.LVL5
 3290 00a6 0100     		.2byte	0x1
 3291 00a8 50       		.byte	0x50
 3292 00a9 34000000 		.4byte	.LVL5
 3293 00ad 60000000 		.4byte	.LFE40
 3294 00b1 0400     		.2byte	0x4
 3295 00b3 F3       		.byte	0xf3
 3296 00b4 01       		.uleb128 0x1
 3297 00b5 50       		.byte	0x50
 3298 00b6 9F       		.byte	0x9f
 3299 00b7 00000000 		.4byte	0
 3300 00bb 00000000 		.4byte	0
ARM GAS  /tmp/ccb3qL8s.s 			page 63


 3301              	.LVUS7:
 3302 00bf 00       		.uleb128 0
 3303 00c0 00       		.uleb128 .LVU151
 3304 00c1 00       		.uleb128 .LVU151
 3305 00c2 00       		.uleb128 0
 3306              	.LLST7:
 3307 00c3 D0010000 		.4byte	.LVL14
 3308 00c7 D8010000 		.4byte	.LVL15
 3309 00cb 0100     		.2byte	0x1
 3310 00cd 50       		.byte	0x50
 3311 00ce D8010000 		.4byte	.LVL15
 3312 00d2 EC010000 		.4byte	.LFE34
 3313 00d6 0400     		.2byte	0x4
 3314 00d8 F3       		.byte	0xf3
 3315 00d9 01       		.uleb128 0x1
 3316 00da 50       		.byte	0x50
 3317 00db 9F       		.byte	0x9f
 3318 00dc 00000000 		.4byte	0
 3319 00e0 00000000 		.4byte	0
 3320              	.LVUS6:
 3321 00e4 00       		.uleb128 0
 3322 00e5 00       		.uleb128 .LVU143
 3323 00e6 00       		.uleb128 .LVU143
 3324 00e7 00       		.uleb128 0
 3325              	.LLST6:
 3326 00e8 B8010000 		.4byte	.LVL12
 3327 00ec C0010000 		.4byte	.LVL13
 3328 00f0 0100     		.2byte	0x1
 3329 00f2 50       		.byte	0x50
 3330 00f3 C0010000 		.4byte	.LVL13
 3331 00f7 D0010000 		.4byte	.LFE33
 3332 00fb 0400     		.2byte	0x4
 3333 00fd F3       		.byte	0xf3
 3334 00fe 01       		.uleb128 0x1
 3335 00ff 50       		.byte	0x50
 3336 0100 9F       		.byte	0x9f
 3337 0101 00000000 		.4byte	0
 3338 0105 00000000 		.4byte	0
 3339              	.LLST5:
 3340 0109 60010000 		.4byte	.LFB31
 3341 010d 62010000 		.4byte	.LCFI2
 3342 0111 0200     		.2byte	0x2
 3343 0113 7D       		.byte	0x7d
 3344 0114 00       		.sleb128 0
 3345 0115 62010000 		.4byte	.LCFI2
 3346 0119 6E010000 		.4byte	.LCFI3
 3347 011d 0200     		.2byte	0x2
 3348 011f 7D       		.byte	0x7d
 3349 0120 08       		.sleb128 8
 3350 0121 6E010000 		.4byte	.LCFI3
 3351 0125 70010000 		.4byte	.LCFI4
 3352 0129 0200     		.2byte	0x2
 3353 012b 7D       		.byte	0x7d
 3354 012c 00       		.sleb128 0
 3355 012d 70010000 		.4byte	.LCFI4
 3356 0131 90010000 		.4byte	.LFE31
 3357 0135 0200     		.2byte	0x2
ARM GAS  /tmp/ccb3qL8s.s 			page 64


 3358 0137 7D       		.byte	0x7d
 3359 0138 08       		.sleb128 8
 3360 0139 00000000 		.4byte	0
 3361 013d 00000000 		.4byte	0
 3362              		.section	.debug_aranges,"",%progbits
 3363 0000 24000000 		.4byte	0x24
 3364 0004 0200     		.2byte	0x2
 3365 0006 00000000 		.4byte	.Ldebug_info0
 3366 000a 04       		.byte	0x4
 3367 000b 00       		.byte	0
 3368 000c 0000     		.2byte	0
 3369 000e 0000     		.2byte	0
 3370 0010 00000000 		.4byte	.Ltext0
 3371 0014 EC010000 		.4byte	.Letext0-.Ltext0
 3372 0018 00000000 		.4byte	.LFB43
 3373 001c 68000000 		.4byte	.LFE43-.LFB43
 3374 0020 00000000 		.4byte	0
 3375 0024 00000000 		.4byte	0
 3376              		.section	.debug_ranges,"",%progbits
 3377              	.Ldebug_ranges0:
 3378 0000 00000000 		.4byte	.Ltext0
 3379 0004 EC010000 		.4byte	.Letext0
 3380 0008 00000000 		.4byte	.LFB43
 3381 000c 68000000 		.4byte	.LFE43
 3382 0010 00000000 		.4byte	0
 3383 0014 00000000 		.4byte	0
 3384              		.section	.debug_line,"",%progbits
 3385              	.Ldebug_line0:
 3386 0000 A6040000 		.section	.debug_str,"MS",%progbits,1
 3386      03005501 
 3386      00000201 
 3386      FB0E0D00 
 3386      01010101 
 3387              	.LASF73:
 3388 0000 49435052 		.ascii	"ICPR\000"
 3388      00
 3389              	.LASF101:
 3390 0005 4C434B52 		.ascii	"LCKR\000"
 3390      00
 3391              	.LASF9:
 3392 000a 5056445F 		.ascii	"PVD_IRQn\000"
 3392      4952516E 
 3392      00
 3393              	.LASF115:
 3394 0013 44494552 		.ascii	"DIER\000"
 3394      00
 3395              	.LASF34:
 3396 0018 54494D31 		.ascii	"TIM1_TRG_COM_IRQn\000"
 3396      5F545247 
 3396      5F434F4D 
 3396      5F495251 
 3396      6E00
 3397              	.LASF39:
 3398 002a 49324331 		.ascii	"I2C1_EV_IRQn\000"
 3398      5F45565F 
 3398      4952516E 
 3398      00
ARM GAS  /tmp/ccb3qL8s.s 			page 65


 3399              	.LASF52:
 3400 0037 5F5F7569 		.ascii	"__uint8_t\000"
 3400      6E74385F 
 3400      7400
 3401              	.LASF139:
 3402 0041 54494D5F 		.ascii	"TIM_TypeDef\000"
 3402      54797065 
 3402      44656600 
 3403              	.LASF11:
 3404 004d 5254435F 		.ascii	"RTC_IRQn\000"
 3404      4952516E 
 3404      00
 3405              	.LASF29:
 3406 0056 43414E31 		.ascii	"CAN1_RX1_IRQn\000"
 3406      5F525831 
 3406      5F495251 
 3406      6E00
 3407              	.LASF128:
 3408 0064 43435232 		.ascii	"CCR2\000"
 3408      00
 3409              	.LASF42:
 3410 0069 49324332 		.ascii	"I2C2_ER_IRQn\000"
 3410      5F45525F 
 3410      4952516E 
 3410      00
 3411              	.LASF38:
 3412 0076 54494D34 		.ascii	"TIM4_IRQn\000"
 3412      5F495251 
 3412      6E00
 3413              	.LASF142:
 3414 0080 51756575 		.ascii	"QueueHandle_t\000"
 3414      6548616E 
 3414      646C655F 
 3414      7400
 3415              	.LASF16:
 3416 008e 45585449 		.ascii	"EXTI2_IRQn\000"
 3416      325F4952 
 3416      516E00
 3417              	.LASF8:
 3418 0099 57574447 		.ascii	"WWDG_IRQn\000"
 3418      5F495251 
 3418      6E00
 3419              	.LASF71:
 3420 00a3 49535052 		.ascii	"ISPR\000"
 3420      00
 3421              	.LASF89:
 3422 00a8 4A535152 		.ascii	"JSQR\000"
 3422      00
 3423              	.LASF116:
 3424 00ad 43434D52 		.ascii	"CCMR1\000"
 3424      3100
 3425              	.LASF118:
 3426 00b3 43434D52 		.ascii	"CCMR2\000"
 3426      3200
 3427              	.LASF61:
 3428 00b9 6C6F6E67 		.ascii	"long long int\000"
 3428      206C6F6E 
ARM GAS  /tmp/ccb3qL8s.s 			page 66


 3428      6720696E 
 3428      7400
 3429              	.LASF53:
 3430 00c7 7369676E 		.ascii	"signed char\000"
 3430      65642063 
 3430      68617200 
 3431              	.LASF100:
 3432 00d3 42535252 		.ascii	"BSRR\000"
 3432      00
 3433              	.LASF14:
 3434 00d8 45585449 		.ascii	"EXTI0_IRQn\000"
 3434      305F4952 
 3434      516E00
 3435              	.LASF99:
 3436 00e3 464C4153 		.ascii	"FLASH_TypeDef\000"
 3436      485F5479 
 3436      70654465 
 3436      6600
 3437              	.LASF157:
 3438 00f1 76546173 		.ascii	"vTaskDelay\000"
 3438      6B44656C 
 3438      617900
 3439              	.LASF62:
 3440 00fc 6C6F6E67 		.ascii	"long long unsigned int\000"
 3440      206C6F6E 
 3440      6720756E 
 3440      7369676E 
 3440      65642069 
 3441              	.LASF158:
 3442 0113 6C636431 		.ascii	"lcd16x2_put_custom_char\000"
 3442      3678325F 
 3442      7075745F 
 3442      63757374 
 3442      6F6D5F63 
 3443              	.LASF123:
 3444 012b 52455345 		.ascii	"RESERVED10\000"
 3444      52564544 
 3444      313000
 3445              	.LASF124:
 3446 0136 52455345 		.ascii	"RESERVED11\000"
 3446      52564544 
 3446      313100
 3447              	.LASF125:
 3448 0141 52455345 		.ascii	"RESERVED12\000"
 3448      52564544 
 3448      313200
 3449              	.LASF127:
 3450 014c 52455345 		.ascii	"RESERVED13\000"
 3450      52564544 
 3450      313300
 3451              	.LASF129:
 3452 0157 52455345 		.ascii	"RESERVED14\000"
 3452      52564544 
 3452      313400
 3453              	.LASF131:
 3454 0162 52455345 		.ascii	"RESERVED15\000"
 3454      52564544 
ARM GAS  /tmp/ccb3qL8s.s 			page 67


 3454      313500
 3455              	.LASF133:
 3456 016d 52455345 		.ascii	"RESERVED16\000"
 3456      52564544 
 3456      313600
 3457              	.LASF135:
 3458 0178 52455345 		.ascii	"RESERVED17\000"
 3458      52564544 
 3458      313700
 3459              	.LASF136:
 3460 0183 52455345 		.ascii	"RESERVED18\000"
 3460      52564544 
 3460      313800
 3461              	.LASF138:
 3462 018e 52455345 		.ascii	"RESERVED19\000"
 3462      52564544 
 3462      313900
 3463              	.LASF58:
 3464 0199 6C6F6E67 		.ascii	"long int\000"
 3464      20696E74 
 3464      00
 3465              	.LASF104:
 3466 01a2 41504232 		.ascii	"APB2RSTR\000"
 3466      52535452 
 3466      00
 3467              	.LASF31:
 3468 01ab 45585449 		.ascii	"EXTI9_5_IRQn\000"
 3468      395F355F 
 3468      4952516E 
 3468      00
 3469              	.LASF120:
 3470 01b8 43434552 		.ascii	"CCER\000"
 3470      00
 3471              	.LASF96:
 3472 01bd 4F50544B 		.ascii	"OPTKEYR\000"
 3472      45595200 
 3473              	.LASF65:
 3474 01c5 75696E74 		.ascii	"uint16_t\000"
 3474      31365F74 
 3474      00
 3475              	.LASF94:
 3476 01ce 4144435F 		.ascii	"ADC_TypeDef\000"
 3476      54797065 
 3476      44656600 
 3477              	.LASF26:
 3478 01da 41444331 		.ascii	"ADC1_2_IRQn\000"
 3478      5F325F49 
 3478      52516E00 
 3479              	.LASF161:
 3480 01e6 6C636431 		.ascii	"lcd16x2_clrscr\000"
 3480      3678325F 
 3480      636C7273 
 3480      637200
 3481              	.LASF6:
 3482 01f5 50656E64 		.ascii	"PendSV_IRQn\000"
 3482      53565F49 
 3482      52516E00 
ARM GAS  /tmp/ccb3qL8s.s 			page 68


 3483              	.LASF57:
 3484 0201 73686F72 		.ascii	"short unsigned int\000"
 3484      7420756E 
 3484      7369676E 
 3484      65642069 
 3484      6E7400
 3485              	.LASF22:
 3486 0214 444D4131 		.ascii	"DMA1_Channel4_IRQn\000"
 3486      5F436861 
 3486      6E6E656C 
 3486      345F4952 
 3486      516E00
 3487              	.LASF56:
 3488 0227 5F5F7569 		.ascii	"__uint16_t\000"
 3488      6E743136 
 3488      5F7400
 3489              	.LASF59:
 3490 0232 5F5F7569 		.ascii	"__uint32_t\000"
 3490      6E743332 
 3490      5F7400
 3491              	.LASF151:
 3492 023d 656E6162 		.ascii	"enable_TIM3_delay\000"
 3492      6C655F54 
 3492      494D335F 
 3492      64656C61 
 3492      7900
 3493              	.LASF2:
 3494 024f 42757346 		.ascii	"BusFault_IRQn\000"
 3494      61756C74 
 3494      5F495251 
 3494      6E00
 3495              	.LASF156:
 3496 025d 76546173 		.ascii	"vTaskStartScheduler\000"
 3496      6B537461 
 3496      72745363 
 3496      68656475 
 3496      6C657200 
 3497              	.LASF95:
 3498 0271 4B455952 		.ascii	"KEYR\000"
 3498      00
 3499              	.LASF153:
 3500 0276 78517565 		.ascii	"xQueueGenericCreate\000"
 3500      75654765 
 3500      6E657269 
 3500      63437265 
 3500      61746500 
 3501              	.LASF134:
 3502 028a 42445452 		.ascii	"BDTR\000"
 3502      00
 3503              	.LASF63:
 3504 028f 756E7369 		.ascii	"unsigned int\000"
 3504      676E6564 
 3504      20696E74 
 3504      00
 3505              	.LASF1:
 3506 029c 4D656D6F 		.ascii	"MemoryManagement_IRQn\000"
 3506      72794D61 
ARM GAS  /tmp/ccb3qL8s.s 			page 69


 3506      6E616765 
 3506      6D656E74 
 3506      5F495251 
 3507              	.LASF60:
 3508 02b2 6C6F6E67 		.ascii	"long unsigned int\000"
 3508      20756E73 
 3508      69676E65 
 3508      6420696E 
 3508      7400
 3509              	.LASF102:
 3510 02c4 4750494F 		.ascii	"GPIO_TypeDef\000"
 3510      5F547970 
 3510      65446566 
 3510      00
 3511              	.LASF154:
 3512 02d1 6C636431 		.ascii	"lcd16x2_init\000"
 3512      3678325F 
 3512      696E6974 
 3512      00
 3513              	.LASF112:
 3514 02de 5243435F 		.ascii	"RCC_TypeDef\000"
 3514      54797065 
 3514      44656600 
 3515              	.LASF146:
 3516 02ea 7461736B 		.ascii	"task1\000"
 3516      3100
 3517              	.LASF144:
 3518 02f0 7461736B 		.ascii	"task2\000"
 3518      3200
 3519              	.LASF143:
 3520 02f6 7461736B 		.ascii	"task3\000"
 3520      3300
 3521              	.LASF23:
 3522 02fc 444D4131 		.ascii	"DMA1_Channel5_IRQn\000"
 3522      5F436861 
 3522      6E6E656C 
 3522      355F4952 
 3522      516E00
 3523              	.LASF114:
 3524 030f 534D4352 		.ascii	"SMCR\000"
 3524      00
 3525              	.LASF45:
 3526 0314 55534152 		.ascii	"USART1_IRQn\000"
 3526      54315F49 
 3526      52516E00 
 3527              	.LASF106:
 3528 0320 41484245 		.ascii	"AHBENR\000"
 3528      4E5200
 3529              	.LASF48:
 3530 0327 45585449 		.ascii	"EXTI15_10_IRQn\000"
 3530      31355F31 
 3530      305F4952 
 3530      516E00
 3531              	.LASF162:
 3532 0336 474E5520 		.ascii	"GNU C17 10.3.1 20210824 (release) -mcpu=cortex-m3 -"
 3532      43313720 
 3532      31302E33 
ARM GAS  /tmp/ccb3qL8s.s 			page 70


 3532      2E312032 
 3532      30323130 
 3533 0369 6D746875 		.ascii	"mthumb -mfloat-abi=soft -march=armv7-m -g -gdwarf-2"
 3533      6D62202D 
 3533      6D666C6F 
 3533      61742D61 
 3533      62693D73 
 3534 039c 202D4F73 		.ascii	" -Os -fomit-frame-pointer\000"
 3534      202D666F 
 3534      6D69742D 
 3534      6672616D 
 3534      652D706F 
 3535              	.LASF43:
 3536 03b6 53504931 		.ascii	"SPI1_IRQn\000"
 3536      5F495251 
 3536      6E00
 3537              	.LASF7:
 3538 03c0 53797354 		.ascii	"SysTick_IRQn\000"
 3538      69636B5F 
 3538      4952516E 
 3538      00
 3539              	.LASF35:
 3540 03cd 54494D31 		.ascii	"TIM1_CC_IRQn\000"
 3540      5F43435F 
 3540      4952516E 
 3540      00
 3541              	.LASF105:
 3542 03da 41504231 		.ascii	"APB1RSTR\000"
 3542      52535452 
 3542      00
 3543              	.LASF147:
 3544 03e3 4952516E 		.ascii	"IRQn\000"
 3544      00
 3545              	.LASF82:
 3546 03e8 4A4F4652 		.ascii	"JOFR1\000"
 3546      3100
 3547              	.LASF83:
 3548 03ee 4A4F4652 		.ascii	"JOFR2\000"
 3548      3200
 3549              	.LASF84:
 3550 03f4 4A4F4652 		.ascii	"JOFR3\000"
 3550      3300
 3551              	.LASF85:
 3552 03fa 4A4F4652 		.ascii	"JOFR4\000"
 3552      3400
 3553              	.LASF20:
 3554 0400 444D4131 		.ascii	"DMA1_Channel2_IRQn\000"
 3554      5F436861 
 3554      6E6E656C 
 3554      325F4952 
 3554      516E00
 3555              	.LASF164:
 3556 0413 2F686F6D 		.ascii	"/home/junior/Codigos/6-Stm32_GCC_FreeRTOS10.2.1/3-C"
 3556      652F6A75 
 3556      6E696F72 
 3556      2F436F64 
 3556      69676F73 
ARM GAS  /tmp/ccb3qL8s.s 			page 71


 3557 0446 6F6D5072 		.ascii	"omProcessos\000"
 3557      6F636573 
 3557      736F7300 
 3558              	.LASF4:
 3559 0452 53564361 		.ascii	"SVCall_IRQn\000"
 3559      6C6C5F49 
 3559      52516E00 
 3560              	.LASF41:
 3561 045e 49324332 		.ascii	"I2C2_EV_IRQn\000"
 3561      5F45565F 
 3561      4952516E 
 3561      00
 3562              	.LASF155:
 3563 046b 78546173 		.ascii	"xTaskCreate\000"
 3563      6B437265 
 3563      61746500 
 3564              	.LASF75:
 3565 0477 49414252 		.ascii	"IABR\000"
 3565      00
 3566              	.LASF150:
 3567 047c 44656C61 		.ascii	"Delay\000"
 3567      7900
 3568              	.LASF44:
 3569 0482 53504932 		.ascii	"SPI2_IRQn\000"
 3569      5F495251 
 3569      6E00
 3570              	.LASF149:
 3571 048c 656E6162 		.ascii	"enable_interrupt\000"
 3571      6C655F69 
 3571      6E746572 
 3571      72757074 
 3571      00
 3572              	.LASF80:
 3573 049d 534D5052 		.ascii	"SMPR1\000"
 3573      3100
 3574              	.LASF81:
 3575 04a3 534D5052 		.ascii	"SMPR2\000"
 3575      3200
 3576              	.LASF69:
 3577 04a9 49434552 		.ascii	"ICER\000"
 3577      00
 3578              	.LASF110:
 3579 04ae 41484252 		.ascii	"AHBRSTR\000"
 3579      53545200 
 3580              	.LASF163:
 3581 04b6 2E2E2F33 		.ascii	"../3-ComProcessos/main.c\000"
 3581      2D436F6D 
 3581      50726F63 
 3581      6573736F 
 3581      732F6D61 
 3582              	.LASF86:
 3583 04cf 53515231 		.ascii	"SQR1\000"
 3583      00
 3584              	.LASF87:
 3585 04d4 53515232 		.ascii	"SQR2\000"
 3585      00
 3586              	.LASF88:
ARM GAS  /tmp/ccb3qL8s.s 			page 72


 3587 04d9 53515233 		.ascii	"SQR3\000"
 3587      00
 3588              	.LASF19:
 3589 04de 444D4131 		.ascii	"DMA1_Channel1_IRQn\000"
 3589      5F436861 
 3589      6E6E656C 
 3589      315F4952 
 3589      516E00
 3590              	.LASF68:
 3591 04f1 52455345 		.ascii	"RESERVED0\000"
 3591      52564544 
 3591      3000
 3592              	.LASF113:
 3593 04fb 52455345 		.ascii	"RESERVED1\000"
 3593      52564544 
 3593      3100
 3594              	.LASF72:
 3595 0505 52455345 		.ascii	"RESERVED2\000"
 3595      52564544 
 3595      3200
 3596              	.LASF74:
 3597 050f 52455345 		.ascii	"RESERVED3\000"
 3597      52564544 
 3597      3300
 3598              	.LASF76:
 3599 0519 52455345 		.ascii	"RESERVED4\000"
 3599      52564544 
 3599      3400
 3600              	.LASF77:
 3601 0523 52455345 		.ascii	"RESERVED5\000"
 3601      52564544 
 3601      3500
 3602              	.LASF117:
 3603 052d 52455345 		.ascii	"RESERVED6\000"
 3603      52564544 
 3603      3600
 3604              	.LASF121:
 3605 0537 52455345 		.ascii	"RESERVED8\000"
 3605      52564544 
 3605      3800
 3606              	.LASF122:
 3607 0541 52455345 		.ascii	"RESERVED9\000"
 3607      52564544 
 3607      3900
 3608              	.LASF165:
 3609 054b 51756575 		.ascii	"QueueDefinition\000"
 3609      65446566 
 3609      696E6974 
 3609      696F6E00 
 3610              	.LASF152:
 3611 055b 7365745F 		.ascii	"set_system_clock_to_72Mhz\000"
 3611      73797374 
 3611      656D5F63 
 3611      6C6F636B 
 3611      5F746F5F 
 3612              	.LASF54:
 3613 0575 756E7369 		.ascii	"unsigned char\000"
ARM GAS  /tmp/ccb3qL8s.s 			page 73


 3613      676E6564 
 3613      20636861 
 3613      7200
 3614              	.LASF27:
 3615 0583 5553425F 		.ascii	"USB_HP_CAN1_TX_IRQn\000"
 3615      48505F43 
 3615      414E315F 
 3615      54585F49 
 3615      52516E00 
 3616              	.LASF18:
 3617 0597 45585449 		.ascii	"EXTI4_IRQn\000"
 3617      345F4952 
 3617      516E00
 3618              	.LASF55:
 3619 05a2 73686F72 		.ascii	"short int\000"
 3619      7420696E 
 3619      7400
 3620              	.LASF67:
 3621 05ac 49534552 		.ascii	"ISER\000"
 3621      00
 3622              	.LASF79:
 3623 05b1 4E564943 		.ascii	"NVIC_Type\000"
 3623      5F547970 
 3623      6500
 3624              	.LASF97:
 3625 05bb 52455345 		.ascii	"RESERVED\000"
 3625      52564544 
 3625      00
 3626              	.LASF28:
 3627 05c4 5553425F 		.ascii	"USB_LP_CAN1_RX0_IRQn\000"
 3627      4C505F43 
 3627      414E315F 
 3627      5258305F 
 3627      4952516E 
 3628              	.LASF160:
 3629 05d9 44656C61 		.ascii	"DelayMs\000"
 3629      794D7300 
 3630              	.LASF168:
 3631 05e1 41444331 		.ascii	"ADC1_configure\000"
 3631      5F636F6E 
 3631      66696775 
 3631      726500
 3632              	.LASF107:
 3633 05f0 41504232 		.ascii	"APB2ENR\000"
 3633      454E5200 
 3634              	.LASF12:
 3635 05f8 464C4153 		.ascii	"FLASH_IRQn\000"
 3635      485F4952 
 3635      516E00
 3636              	.LASF148:
 3637 0603 64697361 		.ascii	"disable_interrupt\000"
 3637      626C655F 
 3637      696E7465 
 3637      72727570 
 3637      7400
 3638              	.LASF51:
 3639 0615 4952516E 		.ascii	"IRQn_Type\000"
ARM GAS  /tmp/ccb3qL8s.s 			page 74


 3639      5F547970 
 3639      6500
 3640              	.LASF66:
 3641 061f 75696E74 		.ascii	"uint32_t\000"
 3641      33325F74 
 3641      00
 3642              	.LASF119:
 3643 0628 52455345 		.ascii	"RESERVED7\000"
 3643      52564544 
 3643      3700
 3644              	.LASF46:
 3645 0632 55534152 		.ascii	"USART2_IRQn\000"
 3645      54325F49 
 3645      52516E00 
 3646              	.LASF3:
 3647 063e 55736167 		.ascii	"UsageFault_IRQn\000"
 3647      65466175 
 3647      6C745F49 
 3647      52516E00 
 3648              	.LASF140:
 3649 064e 6C6F6E67 		.ascii	"long double\000"
 3649      20646F75 
 3649      626C6500 
 3650              	.LASF98:
 3651 065a 57525052 		.ascii	"WRPR\000"
 3651      00
 3652              	.LASF21:
 3653 065f 444D4131 		.ascii	"DMA1_Channel3_IRQn\000"
 3653      5F436861 
 3653      6E6E656C 
 3653      335F4952 
 3653      516E00
 3654              	.LASF141:
 3655 0672 63686172 		.ascii	"char\000"
 3655      00
 3656              	.LASF159:
 3657 0677 6C636431 		.ascii	"lcd16x2_puts\000"
 3657      3678325F 
 3657      70757473 
 3657      00
 3658              	.LASF32:
 3659 0684 54494D31 		.ascii	"TIM1_BRK_IRQn\000"
 3659      5F42524B 
 3659      5F495251 
 3659      6E00
 3660              	.LASF137:
 3661 0692 444D4152 		.ascii	"DMAR\000"
 3661      00
 3662              	.LASF49:
 3663 0697 52544341 		.ascii	"RTCAlarm_IRQn\000"
 3663      6C61726D 
 3663      5F495251 
 3663      6E00
 3664              	.LASF0:
 3665 06a5 4E6F6E4D 		.ascii	"NonMaskableInt_IRQn\000"
 3665      61736B61 
 3665      626C6549 
ARM GAS  /tmp/ccb3qL8s.s 			page 75


 3665      6E745F49 
 3665      52516E00 
 3666              	.LASF24:
 3667 06b9 444D4131 		.ascii	"DMA1_Channel6_IRQn\000"
 3667      5F436861 
 3667      6E6E656C 
 3667      365F4952 
 3667      516E00
 3668              	.LASF108:
 3669 06cc 41504231 		.ascii	"APB1ENR\000"
 3669      454E5200 
 3670              	.LASF10:
 3671 06d4 54414D50 		.ascii	"TAMPER_IRQn\000"
 3671      45525F49 
 3671      52516E00 
 3672              	.LASF33:
 3673 06e0 54494D31 		.ascii	"TIM1_UP_IRQn\000"
 3673      5F55505F 
 3673      4952516E 
 3673      00
 3674              	.LASF50:
 3675 06ed 55534257 		.ascii	"USBWakeUp_IRQn\000"
 3675      616B6555 
 3675      705F4952 
 3675      516E00
 3676              	.LASF5:
 3677 06fc 44656275 		.ascii	"DebugMonitor_IRQn\000"
 3677      674D6F6E 
 3677      69746F72 
 3677      5F495251 
 3677      6E00
 3678              	.LASF47:
 3679 070e 55534152 		.ascii	"USART3_IRQn\000"
 3679      54335F49 
 3679      52516E00 
 3680              	.LASF126:
 3681 071a 43435231 		.ascii	"CCR1\000"
 3681      00
 3682              	.LASF36:
 3683 071f 54494D32 		.ascii	"TIM2_IRQn\000"
 3683      5F495251 
 3683      6E00
 3684              	.LASF130:
 3685 0729 43435233 		.ascii	"CCR3\000"
 3685      00
 3686              	.LASF132:
 3687 072e 43435234 		.ascii	"CCR4\000"
 3687      00
 3688              	.LASF166:
 3689 0733 78517565 		.ascii	"xQueue\000"
 3689      756500
 3690              	.LASF109:
 3691 073a 42444352 		.ascii	"BDCR\000"
 3691      00
 3692              	.LASF17:
 3693 073f 45585449 		.ascii	"EXTI3_IRQn\000"
 3693      335F4952 
ARM GAS  /tmp/ccb3qL8s.s 			page 76


 3693      516E00
 3694              	.LASF111:
 3695 074a 43464752 		.ascii	"CFGR2\000"
 3695      3200
 3696              	.LASF64:
 3697 0750 75696E74 		.ascii	"uint8_t\000"
 3697      385F7400 
 3698              	.LASF70:
 3699 0758 52534552 		.ascii	"RSERVED1\000"
 3699      56454431 
 3699      00
 3700              	.LASF78:
 3701 0761 53544952 		.ascii	"STIR\000"
 3701      00
 3702              	.LASF90:
 3703 0766 4A445231 		.ascii	"JDR1\000"
 3703      00
 3704              	.LASF91:
 3705 076b 4A445232 		.ascii	"JDR2\000"
 3705      00
 3706              	.LASF92:
 3707 0770 4A445233 		.ascii	"JDR3\000"
 3707      00
 3708              	.LASF93:
 3709 0775 4A445234 		.ascii	"JDR4\000"
 3709      00
 3710              	.LASF25:
 3711 077a 444D4131 		.ascii	"DMA1_Channel7_IRQn\000"
 3711      5F436861 
 3711      6E6E656C 
 3711      375F4952 
 3711      516E00
 3712              	.LASF103:
 3713 078d 43464752 		.ascii	"CFGR\000"
 3713      00
 3714              	.LASF40:
 3715 0792 49324331 		.ascii	"I2C1_ER_IRQn\000"
 3715      5F45525F 
 3715      4952516E 
 3715      00
 3716              	.LASF145:
 3717 079f 61726773 		.ascii	"args\000"
 3717      00
 3718              	.LASF167:
 3719 07a4 6D61696E 		.ascii	"main\000"
 3719      00
 3720              	.LASF30:
 3721 07a9 43414E31 		.ascii	"CAN1_SCE_IRQn\000"
 3721      5F534345 
 3721      5F495251 
 3721      6E00
 3722              	.LASF13:
 3723 07b7 5243435F 		.ascii	"RCC_IRQn\000"
 3723      4952516E 
 3723      00
 3724              	.LASF37:
 3725 07c0 54494D33 		.ascii	"TIM3_IRQn\000"
ARM GAS  /tmp/ccb3qL8s.s 			page 77


 3725      5F495251 
 3725      6E00
 3726              	.LASF15:
 3727 07ca 45585449 		.ascii	"EXTI1_IRQn\000"
 3727      315F4952 
 3727      516E00
 3728              		.ident	"GCC: (GNU Arm Embedded Toolchain 10.3-2021.10) 10.3.1 20210824 (release)"
ARM GAS  /tmp/ccb3qL8s.s 			page 78


DEFINED SYMBOLS
                            *ABS*:0000000000000000 main.c
     /tmp/ccb3qL8s.s:77     .text:0000000000000000 $t
     /tmp/ccb3qL8s.s:82     .text:0000000000000000 task3
     /tmp/ccb3qL8s.s:105    .text:0000000000000002 task2
     /tmp/ccb3qL8s.s:162    .text:0000000000000028 $d
     /tmp/ccb3qL8s.s:171    .text:0000000000000030 $t
     /tmp/ccb3qL8s.s:176    .text:0000000000000030 task1
     /tmp/ccb3qL8s.s:222    .text:000000000000005c $d
     /tmp/ccb3qL8s.s:226    .text:0000000000000060 $t
     /tmp/ccb3qL8s.s:232    .text:0000000000000060 ADC1_configure
     /tmp/ccb3qL8s.s:360    .text:00000000000000e0 $d
     /tmp/ccb3qL8s.s:366    .text:00000000000000ec $t
     /tmp/ccb3qL8s.s:372    .text:00000000000000ec set_system_clock_to_72Mhz
     /tmp/ccb3qL8s.s:480    .text:000000000000015c $d
     /tmp/ccb3qL8s.s:484    .text:0000000000000160 $t
     /tmp/ccb3qL8s.s:490    .text:0000000000000160 Delay
     /tmp/ccb3qL8s.s:561    .text:000000000000018c $d
     /tmp/ccb3qL8s.s:565    .text:0000000000000190 $t
     /tmp/ccb3qL8s.s:571    .text:0000000000000190 enable_TIM3_delay
     /tmp/ccb3qL8s.s:609    .text:00000000000001b4 $d
     /tmp/ccb3qL8s.s:613    .text:00000000000001b8 $t
     /tmp/ccb3qL8s.s:619    .text:00000000000001b8 enable_interrupt
     /tmp/ccb3qL8s.s:651    .text:00000000000001cc $d
     /tmp/ccb3qL8s.s:655    .text:00000000000001d0 $t
     /tmp/ccb3qL8s.s:661    .text:00000000000001d0 disable_interrupt
     /tmp/ccb3qL8s.s:694    .text:00000000000001e8 $d
     /tmp/ccb3qL8s.s:706    .text.startup:0000000000000000 $t
     /tmp/ccb3qL8s.s:712    .text.startup:0000000000000000 main
     /tmp/ccb3qL8s.s:783    .text.startup:0000000000000050 $d

UNDEFINED SYMBOLS
vTaskDelay
lcd16x2_put_custom_char
lcd16x2_puts
DelayMs
lcd16x2_clrscr
xQueueGenericCreate
lcd16x2_init
xTaskCreate
vTaskStartScheduler
