ARM GAS  /tmp/ccYWnEX8.s 			page 1


   1              		.cpu cortex-m3
   2              		.arch armv7-m
   3              		.fpu softvfp
   4              		.eabi_attribute 20, 1	@ Tag_ABI_FP_denormal
   5              		.eabi_attribute 21, 1	@ Tag_ABI_FP_exceptions
   6              		.eabi_attribute 23, 3	@ Tag_ABI_FP_number_model
   7              		.eabi_attribute 24, 1	@ Tag_ABI_align8_needed
   8              		.eabi_attribute 25, 1	@ Tag_ABI_align8_preserved
   9              		.eabi_attribute 26, 1	@ Tag_ABI_enum_size
  10              		.eabi_attribute 30, 4	@ Tag_ABI_optimization_goals
  11              		.eabi_attribute 34, 1	@ Tag_CPU_unaligned_access
  12              		.eabi_attribute 18, 4	@ Tag_ABI_PCS_wchar_t
  13              		.file	"main.c"
  14              	@ GNU C17 (GNU Arm Embedded Toolchain 10.3-2021.10) version 10.3.1 20210824 (release) (arm-none-eab
  15              	@	compiled by GNU C version 4.8.4, GMP version 6.1.0, MPFR version 3.1.4, MPC version 1.0.3, isl ve
  16              	
  17              	@ GGC heuristics: --param ggc-min-expand=100 --param ggc-min-heapsize=131072
  18              	@ options passed:  -I . -I ../3-ComProcessos
  19              	@ -I ../stm32f10x_lib/CMSIS/CM3/CoreSupport
  20              	@ -I ../stm32f10x_lib/CMSIS/CM3/DeviceSupport/ST/STM32F10x
  21              	@ -I ../stm32f10x_lib/STM32F10x_StdPeriph_Driver/inc
  22              	@ -I ../stm32f10x_lib/STM32F10x_StdPeriph_Driver -I ../freertos/include
  23              	@ -I ../freertos/portable/GCC/ARM_CM3 -imultilib thumb/v7-m/nofp
  24              	@ -iprefix /usr/bin/../lib/gcc/arm-none-eabi/10.3.1/
  25              	@ -isysroot /usr/bin/../arm-none-eabi -D__USES_INITFINI__ -D STM32F10X_MD
  26              	@ -D USE_STDPERIPH_DRIVER -D HSE_VALUE=8000000 -D RUN_FROM_FLASH=1
  27              	@ ../3-ComProcessos/main.c -mcpu=cortex-m3 -mthumb -mfloat-abi=soft
  28              	@ -mlibarch=armv7-m -march=armv7-m -auxbase-strip ../3-ComProcessos/main.o
  29              	@ -g -gdwarf-2 -Os -Wall -fomit-frame-pointer -fverbose-asm
  30              	@ options enabled:  -faggressive-loop-optimizations -fallocation-dce
  31              	@ -fauto-inc-dec -fbranch-count-reg -fcaller-saves -fcode-hoisting
  32              	@ -fcombine-stack-adjustments -fcompare-elim -fcprop-registers
  33              	@ -fcrossjumping -fcse-follow-jumps -fdefer-pop
  34              	@ -fdelete-null-pointer-checks -fdevirtualize -fdevirtualize-speculatively
  35              	@ -fdwarf2-cfi-asm -fearly-inlining -feliminate-unused-debug-symbols
  36              	@ -feliminate-unused-debug-types -fexpensive-optimizations
  37              	@ -fforward-propagate -ffp-int-builtin-inexact -ffunction-cse -fgcse
  38              	@ -fgcse-lm -fgnu-unique -fguess-branch-probability -fhoist-adjacent-loads
  39              	@ -fident -fif-conversion -fif-conversion2 -findirect-inlining -finline
  40              	@ -finline-atomics -finline-functions -finline-functions-called-once
  41              	@ -finline-small-functions -fipa-bit-cp -fipa-cp -fipa-icf
  42              	@ -fipa-icf-functions -fipa-icf-variables -fipa-profile -fipa-pure-const
  43              	@ -fipa-ra -fipa-reference -fipa-reference-addressable -fipa-sra
  44              	@ -fipa-stack-alignment -fipa-vrp -fira-hoist-pressure
  45              	@ -fira-share-save-slots -fira-share-spill-slots
  46              	@ -fisolate-erroneous-paths-dereference -fivopts -fkeep-static-consts
  47              	@ -fleading-underscore -flifetime-dse -flra-remat -fmath-errno
  48              	@ -fmerge-constants -fmerge-debug-strings -fmove-loop-invariants
  49              	@ -fomit-frame-pointer -foptimize-sibling-calls -fpartial-inlining
  50              	@ -fpeephole -fpeephole2 -fplt -fprefetch-loop-arrays -freg-struct-return
  51              	@ -freorder-blocks -freorder-functions -frerun-cse-after-loop
  52              	@ -fsched-critical-path-heuristic -fsched-dep-count-heuristic
  53              	@ -fsched-group-heuristic -fsched-interblock -fsched-last-insn-heuristic
  54              	@ -fsched-pressure -fsched-rank-heuristic -fsched-spec
  55              	@ -fsched-spec-insn-heuristic -fsched-stalled-insns-dep -fschedule-insns2
  56              	@ -fsection-anchors -fsemantic-interposition -fshow-column
  57              	@ -fshrink-wrap-separate -fsigned-zeros -fsplit-ivs-in-unroller
ARM GAS  /tmp/ccYWnEX8.s 			page 2


  58              	@ -fsplit-wide-types -fssa-backprop -fssa-phiopt -fstdarg-opt
  59              	@ -fstore-merging -fstrict-aliasing -fstrict-volatile-bitfields
  60              	@ -fsync-libcalls -fthread-jumps -ftoplevel-reorder -ftrapping-math
  61              	@ -ftree-bit-ccp -ftree-builtin-call-dce -ftree-ccp -ftree-ch
  62              	@ -ftree-coalesce-vars -ftree-copy-prop -ftree-cselim -ftree-dce
  63              	@ -ftree-dominator-opts -ftree-dse -ftree-forwprop -ftree-fre
  64              	@ -ftree-loop-distribute-patterns -ftree-loop-if-convert -ftree-loop-im
  65              	@ -ftree-loop-ivcanon -ftree-loop-optimize -ftree-parallelize-loops=
  66              	@ -ftree-phiprop -ftree-pre -ftree-pta -ftree-reassoc -ftree-scev-cprop
  67              	@ -ftree-sink -ftree-slsr -ftree-sra -ftree-switch-conversion
  68              	@ -ftree-tail-merge -ftree-ter -ftree-vrp -funit-at-a-time -fvar-tracking
  69              	@ -fvar-tracking-assignments -fverbose-asm -fzero-initialized-in-bss
  70              	@ -masm-syntax-unified -mbe32 -mfix-cortex-m3-ldrd -mlittle-endian
  71              	@ -mpic-data-is-text-relative -msched-prolog -mthumb -munaligned-access
  72              	@ -mvectorize-with-neon-quad
  73              	
  74              		.text
  75              	.Ltext0:
  76              		.cfi_sections	.debug_frame
  77              		.align	1
  78              		.syntax unified
  79              		.thumb
  80              		.thumb_func
  81              		.type	task2, %function
  82              	task2:
  83              	.LVL0:
  84              	.LFB41:
  85              		.file 1 "../3-ComProcessos/main.c"
   1:../3-ComProcessos/main.c **** 
   2:../3-ComProcessos/main.c **** 
   3:../3-ComProcessos/main.c **** 
   4:../3-ComProcessos/main.c **** 
   5:../3-ComProcessos/main.c **** 
   6:../3-ComProcessos/main.c **** 
   7:../3-ComProcessos/main.c **** // FreeRTOS: 
   8:../3-ComProcessos/main.c **** #include "FreeRTOS.h"
   9:../3-ComProcessos/main.c **** #include "queue.h"
  10:../3-ComProcessos/main.c **** #include "task.h"
  11:../3-ComProcessos/main.c **** 
  12:../3-ComProcessos/main.c **** #define __delay_ms( TEMPO ) vTaskDelay(pdMS_TO_TICKS( TEMPO ))
  13:../3-ComProcessos/main.c **** #define __delay( TEMPO ) vTaskDelay( TEMPO )
  14:../3-ComProcessos/main.c **** 
  15:../3-ComProcessos/main.c **** 
  16:../3-ComProcessos/main.c **** 
  17:../3-ComProcessos/main.c **** // LCD 16x2
  18:../3-ComProcessos/main.c **** #include "stm32f10x.h"
  19:../3-ComProcessos/main.c **** #include "Me.h"
  20:../3-ComProcessos/main.c **** #include "myLcd.h"
  21:../3-ComProcessos/main.c **** 
  22:../3-ComProcessos/main.c **** 
  23:../3-ComProcessos/main.c **** 
  24:../3-ComProcessos/main.c **** 
  25:../3-ComProcessos/main.c **** static QueueHandle_t xQueue; 
  26:../3-ComProcessos/main.c **** 
  27:../3-ComProcessos/main.c **** static void task1(void *args __attribute((unused))) {
  28:../3-ComProcessos/main.c **** 	RCC->APB2ENR |= (1<<2);
  29:../3-ComProcessos/main.c **** 	GPIOA->CRL	 = 0x33333300; // Hab PA(2-7) out PP
ARM GAS  /tmp/ccYWnEX8.s 			page 3


  30:../3-ComProcessos/main.c **** 
  31:../3-ComProcessos/main.c ****   set_bit(IO,RS);
  32:../3-ComProcessos/main.c ****   set_bit(IO,EN);
  33:../3-ComProcessos/main.c ****   set_bit(IO,D4);
  34:../3-ComProcessos/main.c ****   set_bit(IO,D5);
  35:../3-ComProcessos/main.c ****   set_bit(IO,D6);
  36:../3-ComProcessos/main.c ****   set_bit(IO,D7);
  37:../3-ComProcessos/main.c **** 
  38:../3-ComProcessos/main.c ****   disp_init();
  39:../3-ComProcessos/main.c ****   disp_cmd(0x0C);
  40:../3-ComProcessos/main.c **** 
  41:../3-ComProcessos/main.c ****   disp_text("abcdABCDEF012345",0,0);
  42:../3-ComProcessos/main.c **** 	while(1){
  43:../3-ComProcessos/main.c **** 	}
  44:../3-ComProcessos/main.c **** }
  45:../3-ComProcessos/main.c **** 
  46:../3-ComProcessos/main.c **** static void task2(void *args __attribute ((unused))){
  86              		.loc 1 46 53 view -0
  87              		.cfi_startproc
  88              		@ Volatile: function does not return.
  89              		@ args = 0, pretend = 0, frame = 0
  90              		@ frame_needed = 0, uses_anonymous_args = 0
  47:../3-ComProcessos/main.c **** 	RCC->APB2ENR |= (1<<4); // En GPIOC
  91              		.loc 1 47 2 view .LVU1
  92              	@ ../3-ComProcessos/main.c:47: 	RCC->APB2ENR |= (1<<4); // En GPIOC
  93              		.loc 1 47 15 is_stmt 0 view .LVU2
  94 0000 094A     		ldr	r2, .L3	@ tmp120,
  95              	@ ../3-ComProcessos/main.c:46: static void task2(void *args __attribute ((unused))){
  46:../3-ComProcessos/main.c **** 	RCC->APB2ENR |= (1<<4); // En GPIOC
  96              		.loc 1 46 53 view .LVU3
  97 0002 08B5     		push	{r3, lr}	@
  98              	.LCFI0:
  99              		.cfi_def_cfa_offset 8
 100              		.cfi_offset 3, -8
 101              		.cfi_offset 14, -4
 102              	@ ../3-ComProcessos/main.c:47: 	RCC->APB2ENR |= (1<<4); // En GPIOC
 103              		.loc 1 47 15 view .LVU4
 104 0004 9369     		ldr	r3, [r2, #24]	@ _1, MEM[(struct RCC_TypeDef *)1073876992B].APB2ENR
 105              	@ ../3-ComProcessos/main.c:48: 	GPIOC->CRH	|= (0b11<< 20); // PC13 out PP 
  48:../3-ComProcessos/main.c **** 	GPIOC->CRH	|= (0b11<< 20); // PC13 out PP 
 106              		.loc 1 48 13 view .LVU5
 107 0006 094C     		ldr	r4, .L3+4	@ tmp122,
 108              	@ ../3-ComProcessos/main.c:47: 	RCC->APB2ENR |= (1<<4); // En GPIOC
  47:../3-ComProcessos/main.c **** 	RCC->APB2ENR |= (1<<4); // En GPIOC
 109              		.loc 1 47 15 view .LVU6
 110 0008 43F01003 		orr	r3, r3, #16	@ _2, _1,
 111 000c 9361     		str	r3, [r2, #24]	@ _2, MEM[(struct RCC_TypeDef *)1073876992B].APB2ENR
 112              		.loc 1 48 2 is_stmt 1 view .LVU7
 113              	@ ../3-ComProcessos/main.c:48: 	GPIOC->CRH	|= (0b11<< 20); // PC13 out PP 
 114              		.loc 1 48 13 is_stmt 0 view .LVU8
 115 000e 6368     		ldr	r3, [r4, #4]	@ _3, MEM[(struct GPIO_TypeDef *)1073811456B].CRH
 116 0010 43F44013 		orr	r3, r3, #3145728	@ _4, _3,
 117 0014 6360     		str	r3, [r4, #4]	@ _4, MEM[(struct GPIO_TypeDef *)1073811456B].CRH
 118              	.LVL1:
 119              	.L2:
  49:../3-ComProcessos/main.c **** 
  50:../3-ComProcessos/main.c **** 	while(1){
ARM GAS  /tmp/ccYWnEX8.s 			page 4


 120              		.loc 1 50 2 is_stmt 1 discriminator 1 view .LVU9
  51:../3-ComProcessos/main.c **** 		GPIOC->ODR	^= (1<<13);
 121              		.loc 1 51 3 discriminator 1 view .LVU10
 122              	@ ../3-ComProcessos/main.c:51: 		GPIOC->ODR	^= (1<<13);
 123              		.loc 1 51 14 is_stmt 0 discriminator 1 view .LVU11
 124 0016 E368     		ldr	r3, [r4, #12]	@ _5, MEM[(struct GPIO_TypeDef *)1073811456B].ODR
 125              	@ ../3-ComProcessos/main.c:52: 		__delay(50);
  52:../3-ComProcessos/main.c **** 		__delay(50);
 126              		.loc 1 52 3 discriminator 1 view .LVU12
 127 0018 3220     		movs	r0, #50	@,
 128              	@ ../3-ComProcessos/main.c:51: 		GPIOC->ODR	^= (1<<13);
  51:../3-ComProcessos/main.c **** 		GPIOC->ODR	^= (1<<13);
 129              		.loc 1 51 14 discriminator 1 view .LVU13
 130 001a 83F40053 		eor	r3, r3, #8192	@ _6, _5,
 131 001e E360     		str	r3, [r4, #12]	@ _6, MEM[(struct GPIO_TypeDef *)1073811456B].ODR
 132              		.loc 1 52 3 is_stmt 1 discriminator 1 view .LVU14
 133 0020 FFF7FEFF 		bl	vTaskDelay		@
 134              	.LVL2:
  50:../3-ComProcessos/main.c **** 		GPIOC->ODR	^= (1<<13);
 135              		.loc 1 50 7 discriminator 1 view .LVU15
 136 0024 F7E7     		b	.L2		@
 137              	.L4:
 138 0026 00BF     		.align	2
 139              	.L3:
 140 0028 00100240 		.word	1073876992
 141 002c 00100140 		.word	1073811456
 142              		.cfi_endproc
 143              	.LFE41:
 144              		.size	task2, .-task2
 145              		.section	.rodata.str1.1,"aMS",%progbits,1
 146              	.LC0:
 147 0000 61626364 		.ascii	"abcdABCDEF012345\000"
 147      41424344 
 147      45463031 
 147      32333435 
 147      00
 148              		.text
 149              		.align	1
 150              		.syntax unified
 151              		.thumb
 152              		.thumb_func
 153              		.type	task1, %function
 154              	task1:
 155              	.LVL3:
 156              	.LFB40:
  27:../3-ComProcessos/main.c **** 	RCC->APB2ENR |= (1<<2);
 157              		.loc 1 27 53 view -0
 158              		.cfi_startproc
 159              		@ Volatile: function does not return.
 160              		@ args = 0, pretend = 0, frame = 0
 161              		@ frame_needed = 0, uses_anonymous_args = 0
  28:../3-ComProcessos/main.c **** 	GPIOA->CRL	 = 0x33333300; // Hab PA(2-7) out PP
 162              		.loc 1 28 2 view .LVU17
 163              	@ ../3-ComProcessos/main.c:28: 	RCC->APB2ENR |= (1<<2);
  28:../3-ComProcessos/main.c **** 	GPIOA->CRL	 = 0x33333300; // Hab PA(2-7) out PP
 164              		.loc 1 28 15 is_stmt 0 view .LVU18
 165 0030 154A     		ldr	r2, .L7	@ tmp128,
ARM GAS  /tmp/ccYWnEX8.s 			page 5


 166              	@ ../3-ComProcessos/main.c:27: static void task1(void *args __attribute((unused))) {
  27:../3-ComProcessos/main.c **** 	RCC->APB2ENR |= (1<<2);
 167              		.loc 1 27 53 view .LVU19
 168 0032 08B5     		push	{r3, lr}	@
 169              	.LCFI1:
 170              		.cfi_def_cfa_offset 8
 171              		.cfi_offset 3, -8
 172              		.cfi_offset 14, -4
 173              	@ ../3-ComProcessos/main.c:28: 	RCC->APB2ENR |= (1<<2);
  28:../3-ComProcessos/main.c **** 	GPIOA->CRL	 = 0x33333300; // Hab PA(2-7) out PP
 174              		.loc 1 28 15 view .LVU20
 175 0034 9369     		ldr	r3, [r2, #24]	@ _1, MEM[(struct RCC_TypeDef *)1073876992B].APB2ENR
 176 0036 43F00403 		orr	r3, r3, #4	@ _2, _1,
 177 003a 9361     		str	r3, [r2, #24]	@ _2, MEM[(struct RCC_TypeDef *)1073876992B].APB2ENR
  29:../3-ComProcessos/main.c **** 
 178              		.loc 1 29 2 is_stmt 1 view .LVU21
 179              	@ ../3-ComProcessos/main.c:29: 	GPIOA->CRL	 = 0x33333300; // Hab PA(2-7) out PP
  29:../3-ComProcessos/main.c **** 
 180              		.loc 1 29 14 is_stmt 0 view .LVU22
 181 003c 134B     		ldr	r3, .L7+4	@ tmp130,
 182 003e 144A     		ldr	r2, .L7+8	@ tmp131,
 183 0040 1A60     		str	r2, [r3]	@ tmp131, MEM[(struct GPIO_TypeDef *)1073809408B].CRL
  31:../3-ComProcessos/main.c ****   set_bit(IO,EN);
 184              		.loc 1 31 3 is_stmt 1 view .LVU23
 185 0042 DA68     		ldr	r2, [r3, #12]	@ _3, MEM[(struct GPIO_TypeDef *)1073809408B].ODR
 186 0044 42F00402 		orr	r2, r2, #4	@ _4, _3,
 187 0048 DA60     		str	r2, [r3, #12]	@ _4, MEM[(struct GPIO_TypeDef *)1073809408B].ODR
  32:../3-ComProcessos/main.c ****   set_bit(IO,D4);
 188              		.loc 1 32 3 view .LVU24
 189 004a DA68     		ldr	r2, [r3, #12]	@ _5, MEM[(struct GPIO_TypeDef *)1073809408B].ODR
 190 004c 42F00802 		orr	r2, r2, #8	@ _6, _5,
 191 0050 DA60     		str	r2, [r3, #12]	@ _6, MEM[(struct GPIO_TypeDef *)1073809408B].ODR
  33:../3-ComProcessos/main.c ****   set_bit(IO,D5);
 192              		.loc 1 33 3 view .LVU25
 193 0052 DA68     		ldr	r2, [r3, #12]	@ _7, MEM[(struct GPIO_TypeDef *)1073809408B].ODR
 194 0054 42F01002 		orr	r2, r2, #16	@ _8, _7,
 195 0058 DA60     		str	r2, [r3, #12]	@ _8, MEM[(struct GPIO_TypeDef *)1073809408B].ODR
  34:../3-ComProcessos/main.c ****   set_bit(IO,D6);
 196              		.loc 1 34 3 view .LVU26
 197 005a DA68     		ldr	r2, [r3, #12]	@ _9, MEM[(struct GPIO_TypeDef *)1073809408B].ODR
 198 005c 42F02002 		orr	r2, r2, #32	@ _10, _9,
 199 0060 DA60     		str	r2, [r3, #12]	@ _10, MEM[(struct GPIO_TypeDef *)1073809408B].ODR
  35:../3-ComProcessos/main.c ****   set_bit(IO,D7);
 200              		.loc 1 35 3 view .LVU27
 201 0062 DA68     		ldr	r2, [r3, #12]	@ _11, MEM[(struct GPIO_TypeDef *)1073809408B].ODR
 202 0064 42F04002 		orr	r2, r2, #64	@ _12, _11,
 203 0068 DA60     		str	r2, [r3, #12]	@ _12, MEM[(struct GPIO_TypeDef *)1073809408B].ODR
  36:../3-ComProcessos/main.c **** 
 204              		.loc 1 36 3 view .LVU28
 205 006a DA68     		ldr	r2, [r3, #12]	@ _13, MEM[(struct GPIO_TypeDef *)1073809408B].ODR
 206 006c 42F08002 		orr	r2, r2, #128	@ _14, _13,
 207 0070 DA60     		str	r2, [r3, #12]	@ _14, MEM[(struct GPIO_TypeDef *)1073809408B].ODR
  38:../3-ComProcessos/main.c ****   disp_cmd(0x0C);
 208              		.loc 1 38 3 view .LVU29
 209 0072 FFF7FEFF 		bl	disp_init		@
 210              	.LVL4:
  39:../3-ComProcessos/main.c **** 
ARM GAS  /tmp/ccYWnEX8.s 			page 6


 211              		.loc 1 39 3 view .LVU30
 212 0076 0C20     		movs	r0, #12	@,
 213 0078 FFF7FEFF 		bl	disp_cmd		@
 214              	.LVL5:
  41:../3-ComProcessos/main.c **** 	while(1){
 215              		.loc 1 41 3 view .LVU31
 216 007c 0022     		movs	r2, #0	@,
 217 007e 0548     		ldr	r0, .L7+12	@,
 218 0080 1146     		mov	r1, r2	@,
 219 0082 FFF7FEFF 		bl	disp_text		@
 220              	.LVL6:
 221              	.L6:
  42:../3-ComProcessos/main.c **** 	}
 222              		.loc 1 42 2 discriminator 1 view .LVU32
  43:../3-ComProcessos/main.c **** }
 223              		.loc 1 43 2 discriminator 1 view .LVU33
  42:../3-ComProcessos/main.c **** 	}
 224              		.loc 1 42 7 discriminator 1 view .LVU34
 225 0086 FEE7     		b	.L6		@
 226              	.L8:
 227              		.align	2
 228              	.L7:
 229 0088 00100240 		.word	1073876992
 230 008c 00080140 		.word	1073809408
 231 0090 00333333 		.word	858993408
 232 0094 00000000 		.word	.LC0
 233              		.cfi_endproc
 234              	.LFE40:
 235              		.size	task1, .-task1
 236              		.align	1
 237              		.global	ADC1_configure
 238              		.syntax unified
 239              		.thumb
 240              		.thumb_func
 241              		.type	ADC1_configure, %function
 242              	ADC1_configure:
 243              	.LFB34:
 244              		.file 2 "../3-ComProcessos/Me.h"
   1:../3-ComProcessos/Me.h **** #define __IO volatile
   2:../3-ComProcessos/Me.h **** 
   3:../3-ComProcessos/Me.h **** void SystemInit (void);
   4:../3-ComProcessos/Me.h **** void nvic_IntDisble(u8 IRQn);
   5:../3-ComProcessos/Me.h **** void nvic_intEnable(u8 IRQn);
   6:../3-ComProcessos/Me.h **** void set_system_clock_to_25Mhz (void);
   7:../3-ComProcessos/Me.h **** void set_system_clock_to_72Mhz(void);
   8:../3-ComProcessos/Me.h **** void Delay ( __IO u32 T );
   9:../3-ComProcessos/Me.h **** void enable_TIM3_delay (void);
  10:../3-ComProcessos/Me.h **** void ADC1_configure();
  11:../3-ComProcessos/Me.h **** 
  12:../3-ComProcessos/Me.h **** #define DelayUs(X) Delay(X)
  13:../3-ComProcessos/Me.h **** 
  14:../3-ComProcessos/Me.h **** void ADC1_configure(){
 245              		.loc 2 14 22 view -0
 246              		.cfi_startproc
 247              		@ args = 0, pretend = 0, frame = 0
 248              		@ frame_needed = 0, uses_anonymous_args = 0
 249              		@ link register save eliminated.
ARM GAS  /tmp/ccYWnEX8.s 			page 7


  15:../3-ComProcessos/Me.h **** 	RCC->APB2ENR |= 1UL<<2 ; // Hab. GPIOA
 250              		.loc 2 15 2 view .LVU36
 251              	@ ../3-ComProcessos/Me.h:15: 	RCC->APB2ENR |= 1UL<<2 ; // Hab. GPIOA
 252              		.loc 2 15 15 is_stmt 0 view .LVU37
 253 0098 1F4B     		ldr	r3, .L14	@ tmp141,
 254              	@ ../3-ComProcessos/Me.h:16: 	GPIOA->CRL &= ~(0x0F << 4); // Define A1 Input Analogic
  16:../3-ComProcessos/Me.h **** 	GPIOA->CRL &= ~(0x0F << 4); // Define A1 Input Analogic
 255              		.loc 2 16 13 view .LVU38
 256 009a 2049     		ldr	r1, .L14+4	@ tmp143,
 257              	@ ../3-ComProcessos/Me.h:15: 	RCC->APB2ENR |= 1UL<<2 ; // Hab. GPIOA
  15:../3-ComProcessos/Me.h **** 	RCC->APB2ENR |= 1UL<<2 ; // Hab. GPIOA
 258              		.loc 2 15 15 view .LVU39
 259 009c 9A69     		ldr	r2, [r3, #24]	@ _1, MEM[(struct RCC_TypeDef *)1073876992B].APB2ENR
 260 009e 42F00402 		orr	r2, r2, #4	@ _2, _1,
 261 00a2 9A61     		str	r2, [r3, #24]	@ _2, MEM[(struct RCC_TypeDef *)1073876992B].APB2ENR
 262              		.loc 2 16 2 is_stmt 1 view .LVU40
 263              	@ ../3-ComProcessos/Me.h:16: 	GPIOA->CRL &= ~(0x0F << 4); // Define A1 Input Analogic
 264              		.loc 2 16 13 is_stmt 0 view .LVU41
 265 00a4 0A68     		ldr	r2, [r1]	@ _3, MEM[(struct GPIO_TypeDef *)1073809408B].CRL
 266 00a6 22F0F002 		bic	r2, r2, #240	@ _4, _3,
 267 00aa 0A60     		str	r2, [r1]	@ _4, MEM[(struct GPIO_TypeDef *)1073809408B].CRL
  17:../3-ComProcessos/Me.h **** 	
  18:../3-ComProcessos/Me.h **** 	RCC->APB2ENR |= (1<<9); // Bit 9 ADC1EN: ADC 1 
 268              		.loc 2 18 2 is_stmt 1 view .LVU42
 269              	@ ../3-ComProcessos/Me.h:18: 	RCC->APB2ENR |= (1<<9); // Bit 9 ADC1EN: ADC 1 
 270              		.loc 2 18 15 is_stmt 0 view .LVU43
 271 00ac 9A69     		ldr	r2, [r3, #24]	@ _5, MEM[(struct RCC_TypeDef *)1073876992B].APB2ENR
 272 00ae 42F40072 		orr	r2, r2, #512	@ _6, _5,
 273 00b2 9A61     		str	r2, [r3, #24]	@ _6, MEM[(struct RCC_TypeDef *)1073876992B].APB2ENR
  19:../3-ComProcessos/Me.h **** 									// interface clock enable
  20:../3-ComProcessos/Me.h **** 
  21:../3-ComProcessos/Me.h **** 	RCC->CFGR	|= (0b10 << 14); // Bits 15:14 ADCPRE:
 274              		.loc 2 21 2 is_stmt 1 view .LVU44
 275              	@ ../3-ComProcessos/Me.h:21: 	RCC->CFGR	|= (0b10 << 14); // Bits 15:14 ADCPRE:
 276              		.loc 2 21 12 is_stmt 0 view .LVU45
 277 00b4 5A68     		ldr	r2, [r3, #4]	@ _7, MEM[(struct RCC_TypeDef *)1073876992B].CFGR
 278 00b6 42F40042 		orr	r2, r2, #32768	@ _8, _7,
 279 00ba 5A60     		str	r2, [r3, #4]	@ _8, MEM[(struct RCC_TypeDef *)1073876992B].CFGR
  22:../3-ComProcessos/Me.h **** 										  // ADC prescaler 10:
  23:../3-ComProcessos/Me.h **** 										  //    PCLK2 divided by 6
  24:../3-ComProcessos/Me.h **** 	// Enable End of Conversion (EOC) interrupt
  25:../3-ComProcessos/Me.h **** 	ADC1->CR1 |= (1 << 5);
 280              		.loc 2 25 2 is_stmt 1 view .LVU46
 281              	@ ../3-ComProcessos/Me.h:25: 	ADC1->CR1 |= (1 << 5);
 282              		.loc 2 25 12 is_stmt 0 view .LVU47
 283 00bc A3F56C43 		sub	r3, r3, #60416	@ tmp149, tmp149,
 284 00c0 5A68     		ldr	r2, [r3, #4]	@ _9, MEM[(struct ADC_TypeDef *)1073816576B].CR1
 285 00c2 42F02002 		orr	r2, r2, #32	@ _10, _9,
 286 00c6 5A60     		str	r2, [r3, #4]	@ _10, MEM[(struct ADC_TypeDef *)1073816576B].CR1
  26:../3-ComProcessos/Me.h **** 
  27:../3-ComProcessos/Me.h **** 	// One conversion
  28:../3-ComProcessos/Me.h **** 	ADC1->SQR1 = 0x00000000;
 287              		.loc 2 28 2 is_stmt 1 view .LVU48
 288              	@ ../3-ComProcessos/Me.h:28: 	ADC1->SQR1 = 0x00000000;
 289              		.loc 2 28 13 is_stmt 0 view .LVU49
 290 00c8 0022     		movs	r2, #0	@ tmp152,
 291 00ca DA62     		str	r2, [r3, #44]	@ tmp152, MEM[(struct ADC_TypeDef *)1073816576B].SQR1
ARM GAS  /tmp/ccYWnEX8.s 			page 8


  29:../3-ComProcessos/Me.h **** 
  30:../3-ComProcessos/Me.h **** 	// Choose the analog channel to read
  31:../3-ComProcessos/Me.h **** 	// Since we want channel 10 to be the first
  32:../3-ComProcessos/Me.h **** 	//   conversion we write 10 to SQ1 bits (3:0)
  33:../3-ComProcessos/Me.h **** 	//   which is in SQR3 register. For multiple conversions
  34:../3-ComProcessos/Me.h **** 	//   keep writing the channel numbers to SQx bits.
  35:../3-ComProcessos/Me.h **** 	 ADC1->SQR3 = (10 << 0);
 292              		.loc 2 35 3 is_stmt 1 view .LVU50
 293              	@ ../3-ComProcessos/Me.h:35: 	 ADC1->SQR3 = (10 << 0);
 294              		.loc 2 35 14 is_stmt 0 view .LVU51
 295 00cc 0A22     		movs	r2, #10	@ tmp154,
 296 00ce 5A63     		str	r2, [r3, #52]	@ tmp154, MEM[(struct ADC_TypeDef *)1073816576B].SQR3
  36:../3-ComProcessos/Me.h **** 
  37:../3-ComProcessos/Me.h **** 	// Set up software trigger to start conversion
  38:../3-ComProcessos/Me.h **** 	ADC1->CR2 |= (7 << 17);  // Select SWSTART as trigger
 297              		.loc 2 38 2 is_stmt 1 view .LVU52
 298              	@ ../3-ComProcessos/Me.h:38: 	ADC1->CR2 |= (7 << 17);  // Select SWSTART as trigger
 299              		.loc 2 38 12 is_stmt 0 view .LVU53
 300 00d0 9A68     		ldr	r2, [r3, #8]	@ _11, MEM[(struct ADC_TypeDef *)1073816576B].CR2
 301 00d2 42F46022 		orr	r2, r2, #917504	@ _12, _11,
 302 00d6 9A60     		str	r2, [r3, #8]	@ _12, MEM[(struct ADC_TypeDef *)1073816576B].CR2
  39:../3-ComProcessos/Me.h **** 	ADC1->CR2 |= (1 << 20);  // Enable external trigger
 303              		.loc 2 39 2 is_stmt 1 view .LVU54
 304              	@ ../3-ComProcessos/Me.h:39: 	ADC1->CR2 |= (1 << 20);  // Enable external trigger
 305              		.loc 2 39 12 is_stmt 0 view .LVU55
 306 00d8 9A68     		ldr	r2, [r3, #8]	@ _13, MEM[(struct ADC_TypeDef *)1073816576B].CR2
 307 00da 42F48012 		orr	r2, r2, #1048576	@ _14, _13,
 308 00de 9A60     		str	r2, [r3, #8]	@ _14, MEM[(struct ADC_TypeDef *)1073816576B].CR2
  40:../3-ComProcessos/Me.h **** 
  41:../3-ComProcessos/Me.h **** 	// Enable continuous conversion
  42:../3-ComProcessos/Me.h **** 	ADC1->CR2 |= (1 << 1);
 309              		.loc 2 42 2 is_stmt 1 view .LVU56
 310              	@ ../3-ComProcessos/Me.h:42: 	ADC1->CR2 |= (1 << 1);
 311              		.loc 2 42 12 is_stmt 0 view .LVU57
 312 00e0 9A68     		ldr	r2, [r3, #8]	@ _15, MEM[(struct ADC_TypeDef *)1073816576B].CR2
 313 00e2 42F00202 		orr	r2, r2, #2	@ _16, _15,
 314 00e6 9A60     		str	r2, [r3, #8]	@ _16, MEM[(struct ADC_TypeDef *)1073816576B].CR2
  43:../3-ComProcessos/Me.h **** 
  44:../3-ComProcessos/Me.h **** 	// enable_interrupt(ADC1_2_IRQn);
  45:../3-ComProcessos/Me.h **** 
  46:../3-ComProcessos/Me.h **** 	// Enable A/D conversion
  47:../3-ComProcessos/Me.h **** 	ADC1->CR2 |= (1 << 0);
 315              		.loc 2 47 2 is_stmt 1 view .LVU58
 316              	@ ../3-ComProcessos/Me.h:47: 	ADC1->CR2 |= (1 << 0);
 317              		.loc 2 47 12 is_stmt 0 view .LVU59
 318 00e8 9A68     		ldr	r2, [r3, #8]	@ _17, MEM[(struct ADC_TypeDef *)1073816576B].CR2
 319 00ea 42F00102 		orr	r2, r2, #1	@ _18, _17,
 320 00ee 9A60     		str	r2, [r3, #8]	@ _18, MEM[(struct ADC_TypeDef *)1073816576B].CR2
  48:../3-ComProcessos/Me.h **** 
  49:../3-ComProcessos/Me.h **** 	// Calibration reset and start
  50:../3-ComProcessos/Me.h **** 	//    Optional for better accuracy.
  51:../3-ComProcessos/Me.h **** 	ADC1->CR2 |= (1 << 3);
 321              		.loc 2 51 2 is_stmt 1 view .LVU60
 322              	@ ../3-ComProcessos/Me.h:51: 	ADC1->CR2 |= (1 << 3);
 323              		.loc 2 51 12 is_stmt 0 view .LVU61
 324 00f0 9A68     		ldr	r2, [r3, #8]	@ _19, MEM[(struct ADC_TypeDef *)1073816576B].CR2
 325 00f2 42F00802 		orr	r2, r2, #8	@ _20, _19,
ARM GAS  /tmp/ccYWnEX8.s 			page 9


 326 00f6 9A60     		str	r2, [r3, #8]	@ _20, MEM[(struct ADC_TypeDef *)1073816576B].CR2
  52:../3-ComProcessos/Me.h **** 	while((ADC1->CR2 & (1 << 3)));
 327              		.loc 2 52 2 is_stmt 1 view .LVU62
 328              	.L10:
 329              		.loc 2 52 31 discriminator 1 view .LVU63
 330              		.loc 2 52 7 discriminator 1 view .LVU64
 331              	@ ../3-ComProcessos/Me.h:52: 	while((ADC1->CR2 & (1 << 3)));
 332              		.loc 2 52 13 is_stmt 0 discriminator 1 view .LVU65
 333 00f8 9A68     		ldr	r2, [r3, #8]	@ _21, MEM[(struct ADC_TypeDef *)1073816576B].CR2
 334              	@ ../3-ComProcessos/Me.h:52: 	while((ADC1->CR2 & (1 << 3)));
 335              		.loc 2 52 7 discriminator 1 view .LVU66
 336 00fa 1107     		lsls	r1, r2, #28	@, _21,
 337 00fc FCD4     		bmi	.L10		@,
  53:../3-ComProcessos/Me.h **** 	ADC1->CR2 |= (1 << 2);
 338              		.loc 2 53 2 is_stmt 1 view .LVU67
 339              	@ ../3-ComProcessos/Me.h:53: 	ADC1->CR2 |= (1 << 2);
 340              		.loc 2 53 12 is_stmt 0 view .LVU68
 341 00fe 9A68     		ldr	r2, [r3, #8]	@ _23, MEM[(struct ADC_TypeDef *)1073816576B].CR2
 342 0100 42F00402 		orr	r2, r2, #4	@ _24, _23,
 343 0104 9A60     		str	r2, [r3, #8]	@ _24, MEM[(struct ADC_TypeDef *)1073816576B].CR2
  54:../3-ComProcessos/Me.h **** 	while((ADC1->CR2 & (1 << 2)));
 344              		.loc 2 54 2 is_stmt 1 view .LVU69
 345              	@ ../3-ComProcessos/Me.h:54: 	while((ADC1->CR2 & (1 << 2)));
 346              		.loc 2 54 13 is_stmt 0 view .LVU70
 347 0106 064B     		ldr	r3, .L14+8	@ tmp169,
 348              	.L11:
 349              		.loc 2 54 31 is_stmt 1 discriminator 1 view .LVU71
 350              		.loc 2 54 7 discriminator 1 view .LVU72
 351              	@ ../3-ComProcessos/Me.h:54: 	while((ADC1->CR2 & (1 << 2)));
 352              		.loc 2 54 13 is_stmt 0 discriminator 1 view .LVU73
 353 0108 9A68     		ldr	r2, [r3, #8]	@ _25, MEM[(struct ADC_TypeDef *)1073816576B].CR2
 354              	@ ../3-ComProcessos/Me.h:54: 	while((ADC1->CR2 & (1 << 2)));
 355              		.loc 2 54 7 discriminator 1 view .LVU74
 356 010a 5207     		lsls	r2, r2, #29	@, _25,
 357 010c FCD4     		bmi	.L11		@,
  55:../3-ComProcessos/Me.h **** 
  56:../3-ComProcessos/Me.h **** 	// Start conversion with software trigger
  57:../3-ComProcessos/Me.h **** 	ADC1->CR2 |= (1<<22);
 358              		.loc 2 57 2 is_stmt 1 view .LVU75
 359              	@ ../3-ComProcessos/Me.h:57: 	ADC1->CR2 |= (1<<22);
 360              		.loc 2 57 12 is_stmt 0 view .LVU76
 361 010e 9A68     		ldr	r2, [r3, #8]	@ _27, MEM[(struct ADC_TypeDef *)1073816576B].CR2
 362 0110 42F48002 		orr	r2, r2, #4194304	@ _28, _27,
 363 0114 9A60     		str	r2, [r3, #8]	@ _28, MEM[(struct ADC_TypeDef *)1073816576B].CR2
 364              	@ ../3-ComProcessos/Me.h:60: }
  58:../3-ComProcessos/Me.h **** 	//
  59:../3-ComProcessos/Me.h **** 	// Leitura  ADC1->DR  -> Data Register
  60:../3-ComProcessos/Me.h **** }
 365              		.loc 2 60 1 view .LVU77
 366 0116 7047     		bx	lr	@
 367              	.L15:
 368              		.align	2
 369              	.L14:
 370 0118 00100240 		.word	1073876992
 371 011c 00080140 		.word	1073809408
 372 0120 00240140 		.word	1073816576
 373              		.cfi_endproc
ARM GAS  /tmp/ccYWnEX8.s 			page 10


 374              	.LFE34:
 375              		.size	ADC1_configure, .-ADC1_configure
 376              		.align	1
 377              		.global	set_system_clock_to_72Mhz
 378              		.syntax unified
 379              		.thumb
 380              		.thumb_func
 381              		.type	set_system_clock_to_72Mhz, %function
 382              	set_system_clock_to_72Mhz:
 383              	.LFB35:
  61:../3-ComProcessos/Me.h **** 
  62:../3-ComProcessos/Me.h **** void set_system_clock_to_72Mhz(void)
  63:../3-ComProcessos/Me.h **** {
 384              		.loc 2 63 1 is_stmt 1 view -0
 385              		.cfi_startproc
 386              		@ args = 0, pretend = 0, frame = 0
 387              		@ frame_needed = 0, uses_anonymous_args = 0
 388              		@ link register save eliminated.
  64:../3-ComProcessos/Me.h ****    // Necessary wait states for Flash for high speeds
  65:../3-ComProcessos/Me.h ****    FLASH->ACR = 0x12;
 389              		.loc 2 65 4 view .LVU79
 390              	@ ../3-ComProcessos/Me.h:65:    FLASH->ACR = 0x12;
 391              		.loc 2 65 15 is_stmt 0 view .LVU80
 392 0124 1222     		movs	r2, #18	@ tmp140,
 393 0126 1B4B     		ldr	r3, .L23	@ tmp139,
 394 0128 1A60     		str	r2, [r3]	@ tmp140, MEM[(struct FLASH_TypeDef *)1073881088B].ACR
  66:../3-ComProcessos/Me.h ****    // Enable HSE
  67:../3-ComProcessos/Me.h ****    RCC->CR |= (1 << 16);
 395              		.loc 2 67 4 is_stmt 1 view .LVU81
 396              	@ ../3-ComProcessos/Me.h:67:    RCC->CR |= (1 << 16);
 397              		.loc 2 67 12 is_stmt 0 view .LVU82
 398 012a A3F58053 		sub	r3, r3, #4096	@ tmp141, tmp141,
 399 012e 1A68     		ldr	r2, [r3]	@ _1, MEM[(struct RCC_TypeDef *)1073876992B].CR
 400 0130 42F48032 		orr	r2, r2, #65536	@ _2, _1,
 401 0134 1A60     		str	r2, [r3]	@ _2, MEM[(struct RCC_TypeDef *)1073876992B].CR
  68:../3-ComProcessos/Me.h ****    // Wait untill HSE settles down
  69:../3-ComProcessos/Me.h ****    while (!(RCC->CR & (1 << 17)));
 402              		.loc 2 69 4 is_stmt 1 view .LVU83
 403              	.L17:
 404              		.loc 2 69 34 discriminator 1 view .LVU84
 405              		.loc 2 69 10 discriminator 1 view .LVU85
 406              	@ ../3-ComProcessos/Me.h:69:    while (!(RCC->CR & (1 << 17)));
 407              		.loc 2 69 16 is_stmt 0 discriminator 1 view .LVU86
 408 0136 1A68     		ldr	r2, [r3]	@ _3, MEM[(struct RCC_TypeDef *)1073876992B].CR
 409              	@ ../3-ComProcessos/Me.h:69:    while (!(RCC->CR & (1 << 17)));
 410              		.loc 2 69 10 discriminator 1 view .LVU87
 411 0138 9103     		lsls	r1, r2, #14	@, _3,
 412 013a FCD5     		bpl	.L17		@,
  70:../3-ComProcessos/Me.h ****    // Set PREDIV2 division factor to 5
  71:../3-ComProcessos/Me.h ****    RCC->CFGR2 |= (0b0100 << 4);
 413              		.loc 2 71 4 is_stmt 1 view .LVU88
 414              	@ ../3-ComProcessos/Me.h:71:    RCC->CFGR2 |= (0b0100 << 4);
 415              		.loc 2 71 15 is_stmt 0 view .LVU89
 416 013c DA6A     		ldr	r2, [r3, #44]	@ _5, MEM[(struct RCC_TypeDef *)1073876992B].CFGR2
 417 013e 42F04002 		orr	r2, r2, #64	@ _6, _5,
 418 0142 DA62     		str	r2, [r3, #44]	@ _6, MEM[(struct RCC_TypeDef *)1073876992B].CFGR2
  72:../3-ComProcessos/Me.h ****    // Set PLL2 multiplication factor to 8
ARM GAS  /tmp/ccYWnEX8.s 			page 11


  73:../3-ComProcessos/Me.h ****    RCC->CFGR2 |= (0b0110 << 8);
 419              		.loc 2 73 4 is_stmt 1 view .LVU90
 420              	@ ../3-ComProcessos/Me.h:73:    RCC->CFGR2 |= (0b0110 << 8);
 421              		.loc 2 73 15 is_stmt 0 view .LVU91
 422 0144 DA6A     		ldr	r2, [r3, #44]	@ _7, MEM[(struct RCC_TypeDef *)1073876992B].CFGR2
 423 0146 42F4C062 		orr	r2, r2, #1536	@ _8, _7,
 424 014a DA62     		str	r2, [r3, #44]	@ _8, MEM[(struct RCC_TypeDef *)1073876992B].CFGR2
  74:../3-ComProcessos/Me.h ****    // Enable PLL2
  75:../3-ComProcessos/Me.h ****    RCC->CR |= (1 << 26);
 425              		.loc 2 75 4 is_stmt 1 view .LVU92
 426              	@ ../3-ComProcessos/Me.h:75:    RCC->CR |= (1 << 26);
 427              		.loc 2 75 12 is_stmt 0 view .LVU93
 428 014c 1A68     		ldr	r2, [r3]	@ _9, MEM[(struct RCC_TypeDef *)1073876992B].CR
 429 014e 42F08062 		orr	r2, r2, #67108864	@ _10, _9,
 430 0152 1A60     		str	r2, [r3]	@ _10, MEM[(struct RCC_TypeDef *)1073876992B].CR
  76:../3-ComProcessos/Me.h ****    // Wait untill PLL2 settles down
  77:../3-ComProcessos/Me.h **** 	// while (!(RCC->CR & (1 << 27)));
  78:../3-ComProcessos/Me.h ****    // Set PLL2 as PREDIV1 clock source
  79:../3-ComProcessos/Me.h ****    RCC->CFGR2 |= (1 << 16);
 431              		.loc 2 79 4 is_stmt 1 view .LVU94
 432              	@ ../3-ComProcessos/Me.h:79:    RCC->CFGR2 |= (1 << 16);
 433              		.loc 2 79 15 is_stmt 0 view .LVU95
 434 0154 DA6A     		ldr	r2, [r3, #44]	@ _11, MEM[(struct RCC_TypeDef *)1073876992B].CFGR2
 435 0156 42F48032 		orr	r2, r2, #65536	@ _12, _11,
 436 015a DA62     		str	r2, [r3, #44]	@ _12, MEM[(struct RCC_TypeDef *)1073876992B].CFGR2
  80:../3-ComProcessos/Me.h ****    // Set PREDIV1 division factor to 5
  81:../3-ComProcessos/Me.h ****    RCC->CFGR2 |= (0b0100 << 0);
 437              		.loc 2 81 4 is_stmt 1 view .LVU96
 438              	@ ../3-ComProcessos/Me.h:81:    RCC->CFGR2 |= (0b0100 << 0);
 439              		.loc 2 81 15 is_stmt 0 view .LVU97
 440 015c DA6A     		ldr	r2, [r3, #44]	@ _13, MEM[(struct RCC_TypeDef *)1073876992B].CFGR2
 441 015e 42F00402 		orr	r2, r2, #4	@ _14, _13,
 442 0162 DA62     		str	r2, [r3, #44]	@ _14, MEM[(struct RCC_TypeDef *)1073876992B].CFGR2
  82:../3-ComProcessos/Me.h ****    // Select Prediv1 as PLL source
  83:../3-ComProcessos/Me.h ****    RCC->CFGR |= (1 << 16);
 443              		.loc 2 83 4 is_stmt 1 view .LVU98
 444              	@ ../3-ComProcessos/Me.h:83:    RCC->CFGR |= (1 << 16);
 445              		.loc 2 83 14 is_stmt 0 view .LVU99
 446 0164 5A68     		ldr	r2, [r3, #4]	@ _15, MEM[(struct RCC_TypeDef *)1073876992B].CFGR
 447 0166 42F48032 		orr	r2, r2, #65536	@ _16, _15,
 448 016a 5A60     		str	r2, [r3, #4]	@ _16, MEM[(struct RCC_TypeDef *)1073876992B].CFGR
  84:../3-ComProcessos/Me.h ****    // Set PLL1 multiplication factor to 9
  85:../3-ComProcessos/Me.h ****    RCC->CFGR |= (0b0111 << 18);
 449              		.loc 2 85 4 is_stmt 1 view .LVU100
 450              	@ ../3-ComProcessos/Me.h:85:    RCC->CFGR |= (0b0111 << 18);
 451              		.loc 2 85 14 is_stmt 0 view .LVU101
 452 016c 5A68     		ldr	r2, [r3, #4]	@ _17, MEM[(struct RCC_TypeDef *)1073876992B].CFGR
 453 016e 42F4E012 		orr	r2, r2, #1835008	@ _18, _17,
 454 0172 5A60     		str	r2, [r3, #4]	@ _18, MEM[(struct RCC_TypeDef *)1073876992B].CFGR
  86:../3-ComProcessos/Me.h ****    // Set APB1 to 36MHz
  87:../3-ComProcessos/Me.h ****    RCC->CFGR |= 1 << 10;
 455              		.loc 2 87 4 is_stmt 1 view .LVU102
 456              	@ ../3-ComProcessos/Me.h:87:    RCC->CFGR |= 1 << 10;
 457              		.loc 2 87 14 is_stmt 0 view .LVU103
 458 0174 5A68     		ldr	r2, [r3, #4]	@ _19, MEM[(struct RCC_TypeDef *)1073876992B].CFGR
 459 0176 42F48062 		orr	r2, r2, #1024	@ _20, _19,
 460 017a 5A60     		str	r2, [r3, #4]	@ _20, MEM[(struct RCC_TypeDef *)1073876992B].CFGR
ARM GAS  /tmp/ccYWnEX8.s 			page 12


  88:../3-ComProcessos/Me.h ****    // Enable PLL
  89:../3-ComProcessos/Me.h ****    RCC->CR |= (1 << 24);
 461              		.loc 2 89 4 is_stmt 1 view .LVU104
 462              	@ ../3-ComProcessos/Me.h:89:    RCC->CR |= (1 << 24);
 463              		.loc 2 89 12 is_stmt 0 view .LVU105
 464 017c 1A68     		ldr	r2, [r3]	@ _21, MEM[(struct RCC_TypeDef *)1073876992B].CR
 465 017e 42F08072 		orr	r2, r2, #16777216	@ _22, _21,
 466 0182 1A60     		str	r2, [r3]	@ _22, MEM[(struct RCC_TypeDef *)1073876992B].CR
  90:../3-ComProcessos/Me.h ****    // Wait untill PLL settles down
  91:../3-ComProcessos/Me.h ****    while (!(RCC->CR & (1 << 25)));
 467              		.loc 2 91 4 is_stmt 1 view .LVU106
 468              	.L18:
 469              		.loc 2 91 34 discriminator 1 view .LVU107
 470              		.loc 2 91 10 discriminator 1 view .LVU108
 471              	@ ../3-ComProcessos/Me.h:91:    while (!(RCC->CR & (1 << 25)));
 472              		.loc 2 91 16 is_stmt 0 discriminator 1 view .LVU109
 473 0184 1A68     		ldr	r2, [r3]	@ _23, MEM[(struct RCC_TypeDef *)1073876992B].CR
 474              	@ ../3-ComProcessos/Me.h:91:    while (!(RCC->CR & (1 << 25)));
 475              		.loc 2 91 10 discriminator 1 view .LVU110
 476 0186 9201     		lsls	r2, r2, #6	@, _23,
 477 0188 FCD5     		bpl	.L18		@,
  92:../3-ComProcessos/Me.h ****    // Finally, choose PLL as the system clock
  93:../3-ComProcessos/Me.h ****    RCC->CFGR |= (0b10 << 0);
 478              		.loc 2 93 4 is_stmt 1 view .LVU111
 479              	@ ../3-ComProcessos/Me.h:93:    RCC->CFGR |= (0b10 << 0);
 480              		.loc 2 93 14 is_stmt 0 view .LVU112
 481 018a 5A68     		ldr	r2, [r3, #4]	@ _25, MEM[(struct RCC_TypeDef *)1073876992B].CFGR
 482 018c 42F00202 		orr	r2, r2, #2	@ _26, _25,
 483 0190 5A60     		str	r2, [r3, #4]	@ _26, MEM[(struct RCC_TypeDef *)1073876992B].CFGR
 484              	@ ../3-ComProcessos/Me.h:94: } 
  94:../3-ComProcessos/Me.h **** } 
 485              		.loc 2 94 1 view .LVU113
 486 0192 7047     		bx	lr	@
 487              	.L24:
 488              		.align	2
 489              	.L23:
 490 0194 00200240 		.word	1073881088
 491              		.cfi_endproc
 492              	.LFE35:
 493              		.size	set_system_clock_to_72Mhz, .-set_system_clock_to_72Mhz
 494              		.align	1
 495              		.global	Delay
 496              		.syntax unified
 497              		.thumb
 498              		.thumb_func
 499              		.type	Delay, %function
 500              	Delay:
 501              	.LVL7:
 502              	.LFB36:
  95:../3-ComProcessos/Me.h **** 
  96:../3-ComProcessos/Me.h **** void Delay ( __IO u32 T ) { // T=1 ;  868µs -> T=1 ~ 526µs
 503              		.loc 2 96 27 is_stmt 1 view -0
 504              		.cfi_startproc
 505              		@ args = 0, pretend = 0, frame = 8
 506              		@ frame_needed = 0, uses_anonymous_args = 0
 507              		@ link register save eliminated.
  97:../3-ComProcessos/Me.h ****   for ( T ; T > 0 ; T-- ){
ARM GAS  /tmp/ccYWnEX8.s 			page 13


 508              		.loc 2 97 3 view .LVU115
 509              	@ ../3-ComProcessos/Me.h:96: void Delay ( __IO u32 T ) { // T=1 ;  868µs -> T=1 ~ 526µs
  96:../3-ComProcessos/Me.h ****   for ( T ; T > 0 ; T-- ){
 510              		.loc 2 96 27 is_stmt 0 view .LVU116
 511 0198 82B0     		sub	sp, sp, #8	@,,
 512              	.LCFI2:
 513              		.cfi_def_cfa_offset 8
 514              	@ ../3-ComProcessos/Me.h:96: void Delay ( __IO u32 T ) { // T=1 ;  868µs -> T=1 ~ 526µs
  96:../3-ComProcessos/Me.h ****   for ( T ; T > 0 ; T-- ){
 515              		.loc 2 96 27 view .LVU117
 516 019a 0190     		str	r0, [sp, #4]	@ T, T
 517              	@ ../3-ComProcessos/Me.h:97:   for ( T ; T > 0 ; T-- ){
 518              		.loc 2 97 3 view .LVU118
 519 019c 019B     		ldr	r3, [sp, #4]	@ vol.0_9, T
 520              	@ ../3-ComProcessos/Me.h:98:    TIM3->EGR |= ( 1 << 0 );
  98:../3-ComProcessos/Me.h ****    TIM3->EGR |= ( 1 << 0 );
 521              		.loc 2 98 14 view .LVU119
 522 019e 094A     		ldr	r2, .L30	@ tmp132,
 523              	.L26:
  97:../3-ComProcessos/Me.h ****   for ( T ; T > 0 ; T-- ){
 524              		.loc 2 97 13 is_stmt 1 discriminator 1 view .LVU120
 525              	@ ../3-ComProcessos/Me.h:97:   for ( T ; T > 0 ; T-- ){
  97:../3-ComProcessos/Me.h ****   for ( T ; T > 0 ; T-- ){
 526              		.loc 2 97 15 is_stmt 0 discriminator 1 view .LVU121
 527 01a0 019B     		ldr	r3, [sp, #4]	@ T.2_6, T
 528              	@ ../3-ComProcessos/Me.h:97:   for ( T ; T > 0 ; T-- ){
  97:../3-ComProcessos/Me.h ****   for ( T ; T > 0 ; T-- ){
 529              		.loc 2 97 3 discriminator 1 view .LVU122
 530 01a2 0BB9     		cbnz	r3, .L28	@ T.2_6,
 531              	@ ../3-ComProcessos/Me.h:101: }
  99:../3-ComProcessos/Me.h ****    while ( TIM3->CNT < 5 ) ; /* 5 * 10-- Configurar para IR */
 100:../3-ComProcessos/Me.h ****   }
 101:../3-ComProcessos/Me.h **** }
 532              		.loc 2 101 1 view .LVU123
 533 01a4 02B0     		add	sp, sp, #8	@,,
 534              	.LCFI3:
 535              		.cfi_remember_state
 536              		.cfi_def_cfa_offset 0
 537              		@ sp needed	@
 538 01a6 7047     		bx	lr	@
 539              	.L28:
 540              	.LCFI4:
 541              		.cfi_restore_state
  98:../3-ComProcessos/Me.h ****    TIM3->EGR |= ( 1 << 0 );
 542              		.loc 2 98 4 is_stmt 1 view .LVU124
 543              	@ ../3-ComProcessos/Me.h:98:    TIM3->EGR |= ( 1 << 0 );
  98:../3-ComProcessos/Me.h ****    TIM3->EGR |= ( 1 << 0 );
 544              		.loc 2 98 14 is_stmt 0 view .LVU125
 545 01a8 938A     		ldrh	r3, [r2, #20]	@, MEM[(struct TIM_TypeDef *)1073742848B].EGR
 546 01aa 9BB2     		uxth	r3, r3	@ _1, MEM[(struct TIM_TypeDef *)1073742848B].EGR
 547 01ac 43F00103 		orr	r3, r3, #1	@ _2, _1,
 548 01b0 9382     		strh	r3, [r2, #20]	@ movhi	@ _2, MEM[(struct TIM_TypeDef *)1073742848B].EGR
  99:../3-ComProcessos/Me.h ****    while ( TIM3->CNT < 5 ) ; /* 5 * 10-- Configurar para IR */
 549              		.loc 2 99 4 is_stmt 1 view .LVU126
 550              	.L27:
  99:../3-ComProcessos/Me.h ****    while ( TIM3->CNT < 5 ) ; /* 5 * 10-- Configurar para IR */
 551              		.loc 2 99 28 discriminator 1 view .LVU127
ARM GAS  /tmp/ccYWnEX8.s 			page 14


  99:../3-ComProcessos/Me.h ****    while ( TIM3->CNT < 5 ) ; /* 5 * 10-- Configurar para IR */
 552              		.loc 2 99 10 discriminator 1 view .LVU128
 553              	@ ../3-ComProcessos/Me.h:99:    while ( TIM3->CNT < 5 ) ; /* 5 * 10-- Configurar para IR */
  99:../3-ComProcessos/Me.h ****    while ( TIM3->CNT < 5 ) ; /* 5 * 10-- Configurar para IR */
 554              		.loc 2 99 16 is_stmt 0 discriminator 1 view .LVU129
 555 01b2 938C     		ldrh	r3, [r2, #36]	@, MEM[(struct TIM_TypeDef *)1073742848B].CNT
 556 01b4 9BB2     		uxth	r3, r3	@ _3, MEM[(struct TIM_TypeDef *)1073742848B].CNT
 557              	@ ../3-ComProcessos/Me.h:99:    while ( TIM3->CNT < 5 ) ; /* 5 * 10-- Configurar para IR */
  99:../3-ComProcessos/Me.h ****    while ( TIM3->CNT < 5 ) ; /* 5 * 10-- Configurar para IR */
 558              		.loc 2 99 10 discriminator 1 view .LVU130
 559 01b6 042B     		cmp	r3, #4	@ _3,
 560 01b8 FBD9     		bls	.L27		@,
  97:../3-ComProcessos/Me.h ****    TIM3->EGR |= ( 1 << 0 );
 561              		.loc 2 97 21 is_stmt 1 discriminator 2 view .LVU131
 562              	@ ../3-ComProcessos/Me.h:97:   for ( T ; T > 0 ; T-- ){
  97:../3-ComProcessos/Me.h ****    TIM3->EGR |= ( 1 << 0 );
 563              		.loc 2 97 22 is_stmt 0 discriminator 2 view .LVU132
 564 01ba 019B     		ldr	r3, [sp, #4]	@ T.1_4, T
 565 01bc 013B     		subs	r3, r3, #1	@ _5, T.1_4,
 566 01be 0193     		str	r3, [sp, #4]	@ _5, T
 567 01c0 EEE7     		b	.L26		@
 568              	.L31:
 569 01c2 00BF     		.align	2
 570              	.L30:
 571 01c4 00040040 		.word	1073742848
 572              		.cfi_endproc
 573              	.LFE36:
 574              		.size	Delay, .-Delay
 575              		.align	1
 576              		.global	enable_TIM3_delay
 577              		.syntax unified
 578              		.thumb
 579              		.thumb_func
 580              		.type	enable_TIM3_delay, %function
 581              	enable_TIM3_delay:
 582              	.LFB37:
 102:../3-ComProcessos/Me.h **** 
 103:../3-ComProcessos/Me.h **** void enable_TIM3_delay (void) {
 583              		.loc 2 103 31 is_stmt 1 view -0
 584              		.cfi_startproc
 585              		@ args = 0, pretend = 0, frame = 0
 586              		@ frame_needed = 0, uses_anonymous_args = 0
 587              		@ link register save eliminated.
 104:../3-ComProcessos/Me.h ****    RCC->APB1ENR |= 1<<1 ;
 588              		.loc 2 104 4 view .LVU134
 589              	@ ../3-ComProcessos/Me.h:104:    RCC->APB1ENR |= 1<<1 ;
 590              		.loc 2 104 17 is_stmt 0 view .LVU135
 591 01c8 084A     		ldr	r2, .L33	@ tmp117,
 592 01ca D369     		ldr	r3, [r2, #28]	@ _1, MEM[(struct RCC_TypeDef *)1073876992B].APB1ENR
 593 01cc 43F00203 		orr	r3, r3, #2	@ _2, _1,
 594 01d0 D361     		str	r3, [r2, #28]	@ _2, MEM[(struct RCC_TypeDef *)1073876992B].APB1ENR
 105:../3-ComProcessos/Me.h ****    TIM3->CR1 = 0x0000;
 595              		.loc 2 105 4 is_stmt 1 view .LVU136
 596              	@ ../3-ComProcessos/Me.h:105:    TIM3->CR1 = 0x0000;
 597              		.loc 2 105 14 is_stmt 0 view .LVU137
 598 01d2 0023     		movs	r3, #0	@ tmp121,
 599 01d4 A2F50332 		sub	r2, r2, #134144	@ tmp119, tmp119,
ARM GAS  /tmp/ccYWnEX8.s 			page 15


 600 01d8 1380     		strh	r3, [r2]	@ movhi	@ tmp121, MEM[(struct TIM_TypeDef *)1073742848B].CR1
 106:../3-ComProcessos/Me.h ****    //TIM3->ARR = 21699;
 107:../3-ComProcessos/Me.h ****    // TIM3->ARR = 250-1; // 10µs
 108:../3-ComProcessos/Me.h ****    TIM3->ARR = 720-1; // 10µs
 601              		.loc 2 108 4 is_stmt 1 view .LVU138
 602              	@ ../3-ComProcessos/Me.h:108:    TIM3->ARR = 720-1; // 10µs
 603              		.loc 2 108 14 is_stmt 0 view .LVU139
 604 01da 40F2CF23 		movw	r3, #719	@ tmp124,
 605 01de 9385     		strh	r3, [r2, #44]	@ movhi	@ tmp124, MEM[(struct TIM_TypeDef *)1073742848B].ARR
 109:../3-ComProcessos/Me.h ****    // para obter o período de 868µs
 110:../3-ComProcessos/Me.h **** /*https://www.vishay.com/docs/80071/dataform.pdf PAG 2
 111:../3-ComProcessos/Me.h ****  * https://controllerstech.com/ir-remote-with-stm32/
 112:../3-ComProcessos/Me.h ****  * Per=(1+ARR)/Clock_system */
 113:../3-ComProcessos/Me.h ****    TIM3->CR1 |= 1<<0;
 606              		.loc 2 113 4 is_stmt 1 view .LVU140
 607              	@ ../3-ComProcessos/Me.h:113:    TIM3->CR1 |= 1<<0;
 608              		.loc 2 113 14 is_stmt 0 view .LVU141
 609 01e0 1388     		ldrh	r3, [r2]	@, MEM[(struct TIM_TypeDef *)1073742848B].CR1
 610 01e2 9BB2     		uxth	r3, r3	@ _3, MEM[(struct TIM_TypeDef *)1073742848B].CR1
 611 01e4 43F00103 		orr	r3, r3, #1	@ _4, _3,
 612 01e8 1380     		strh	r3, [r2]	@ movhi	@ _4, MEM[(struct TIM_TypeDef *)1073742848B].CR1
 613              	@ ../3-ComProcessos/Me.h:114: }
 114:../3-ComProcessos/Me.h **** }
 614              		.loc 2 114 1 view .LVU142
 615 01ea 7047     		bx	lr	@
 616              	.L34:
 617              		.align	2
 618              	.L33:
 619 01ec 00100240 		.word	1073876992
 620              		.cfi_endproc
 621              	.LFE37:
 622              		.size	enable_TIM3_delay, .-enable_TIM3_delay
 623              		.align	1
 624              		.global	enable_interrupt
 625              		.syntax unified
 626              		.thumb
 627              		.thumb_func
 628              		.type	enable_interrupt, %function
 629              	enable_interrupt:
 630              	.LVL8:
 631              	.LFB38:
 115:../3-ComProcessos/Me.h **** 
 116:../3-ComProcessos/Me.h **** void enable_interrupt(IRQn_Type IRQn)
 117:../3-ComProcessos/Me.h **** {
 632              		.loc 2 117 1 is_stmt 1 view -0
 633              		.cfi_startproc
 634              		@ args = 0, pretend = 0, frame = 0
 635              		@ frame_needed = 0, uses_anonymous_args = 0
 636              		@ link register save eliminated.
 118:../3-ComProcessos/Me.h ****    NVIC->ISER[((uint32_t)(IRQn) >> 5)] = (1 << ((uint32_t)(IRQn) & 0x1F));
 637              		.loc 2 118 4 view .LVU144
 638              	@ ../3-ComProcessos/Me.h:118:    NVIC->ISER[((uint32_t)(IRQn) >> 5)] = (1 << ((uint32_t)(IRQn) & 0x
 639              		.loc 2 118 45 is_stmt 0 view .LVU145
 640 01f0 0123     		movs	r3, #1	@ tmp124,
 641              	@ ../3-ComProcessos/Me.h:118:    NVIC->ISER[((uint32_t)(IRQn) >> 5)] = (1 << ((uint32_t)(IRQn) & 0x
 642              		.loc 2 118 33 view .LVU146
 643 01f2 4209     		lsrs	r2, r0, #5	@ _6, IRQn,
ARM GAS  /tmp/ccYWnEX8.s 			page 16


 644              	@ ../3-ComProcessos/Me.h:118:    NVIC->ISER[((uint32_t)(IRQn) >> 5)] = (1 << ((uint32_t)(IRQn) & 0x
 645              		.loc 2 118 66 view .LVU147
 646 01f4 00F01F00 		and	r0, r0, #31	@ tmp123, IRQn,
 647              	.LVL9:
 648              	@ ../3-ComProcessos/Me.h:118:    NVIC->ISER[((uint32_t)(IRQn) >> 5)] = (1 << ((uint32_t)(IRQn) & 0x
 649              		.loc 2 118 45 view .LVU148
 650 01f8 03FA00F0 		lsl	r0, r3, r0	@ _7, tmp124, tmp123
 651              	@ ../3-ComProcessos/Me.h:118:    NVIC->ISER[((uint32_t)(IRQn) >> 5)] = (1 << ((uint32_t)(IRQn) & 0x
 652              		.loc 2 118 40 view .LVU149
 653 01fc 014B     		ldr	r3, .L36	@ tmp125,
 654 01fe 43F82200 		str	r0, [r3, r2, lsl #2]	@ _7, MEM[(struct NVIC_Type *)3758153984B].ISER[_6]
 655              	@ ../3-ComProcessos/Me.h:119: }  
 119:../3-ComProcessos/Me.h **** }  
 656              		.loc 2 119 1 view .LVU150
 657 0202 7047     		bx	lr	@
 658              	.L37:
 659              		.align	2
 660              	.L36:
 661 0204 00E100E0 		.word	-536813312
 662              		.cfi_endproc
 663              	.LFE38:
 664              		.size	enable_interrupt, .-enable_interrupt
 665              		.align	1
 666              		.global	disable_interrupt
 667              		.syntax unified
 668              		.thumb
 669              		.thumb_func
 670              		.type	disable_interrupt, %function
 671              	disable_interrupt:
 672              	.LVL10:
 673              	.LFB39:
 120:../3-ComProcessos/Me.h ****    
 121:../3-ComProcessos/Me.h **** /* 
 122:../3-ComProcessos/Me.h ****  * Disable given interrupt
 123:../3-ComProcessos/Me.h ****  */
 124:../3-ComProcessos/Me.h **** void disable_interrupt(IRQn_Type IRQn)
 125:../3-ComProcessos/Me.h **** {
 674              		.loc 2 125 1 is_stmt 1 view -0
 675              		.cfi_startproc
 676              		@ args = 0, pretend = 0, frame = 0
 677              		@ frame_needed = 0, uses_anonymous_args = 0
 678              		@ link register save eliminated.
 126:../3-ComProcessos/Me.h ****    NVIC->ICER[((uint32_t)(IRQn) >> 5)] = (1 << ((uint32_t)(IRQn) & 0x1F));
 679              		.loc 2 126 4 view .LVU152
 680              	@ ../3-ComProcessos/Me.h:126:    NVIC->ICER[((uint32_t)(IRQn) >> 5)] = (1 << ((uint32_t)(IRQn) & 0x
 681              		.loc 2 126 45 is_stmt 0 view .LVU153
 682 0208 0122     		movs	r2, #1	@ tmp124,
 683              	@ ../3-ComProcessos/Me.h:126:    NVIC->ICER[((uint32_t)(IRQn) >> 5)] = (1 << ((uint32_t)(IRQn) & 0x
 684              		.loc 2 126 33 view .LVU154
 685 020a 4309     		lsrs	r3, r0, #5	@ _6, IRQn,
 686              	@ ../3-ComProcessos/Me.h:126:    NVIC->ICER[((uint32_t)(IRQn) >> 5)] = (1 << ((uint32_t)(IRQn) & 0x
 687              		.loc 2 126 66 view .LVU155
 688 020c 00F01F00 		and	r0, r0, #31	@ tmp123, IRQn,
 689              	.LVL11:
 690              	@ ../3-ComProcessos/Me.h:126:    NVIC->ICER[((uint32_t)(IRQn) >> 5)] = (1 << ((uint32_t)(IRQn) & 0x
 691              		.loc 2 126 45 view .LVU156
 692 0210 02FA00F0 		lsl	r0, r2, r0	@ _7, tmp124, tmp123
ARM GAS  /tmp/ccYWnEX8.s 			page 17


 693              	@ ../3-ComProcessos/Me.h:126:    NVIC->ICER[((uint32_t)(IRQn) >> 5)] = (1 << ((uint32_t)(IRQn) & 0x
 694              		.loc 2 126 40 view .LVU157
 695 0214 024A     		ldr	r2, .L39	@ tmp125,
 696 0216 2033     		adds	r3, r3, #32	@ tmp126, _6,
 697 0218 42F82300 		str	r0, [r2, r3, lsl #2]	@ _7, MEM[(struct NVIC_Type *)3758153984B].ICER[_6]
 698              	@ ../3-ComProcessos/Me.h:127: }
 127:../3-ComProcessos/Me.h **** }
 699              		.loc 2 127 1 view .LVU158
 700 021c 7047     		bx	lr	@
 701              	.L40:
 702 021e 00BF     		.align	2
 703              	.L39:
 704 0220 00E100E0 		.word	-536813312
 705              		.cfi_endproc
 706              	.LFE39:
 707              		.size	disable_interrupt, .-disable_interrupt
 708              		.section	.rodata.str1.1
 709              	.LC1:
 710 0011 4C43445F 		.ascii	"LCD_16x2\000"
 710      31367832 
 710      00
 711              	.LC2:
 712 001a 4C45445F 		.ascii	"LED_13\000"
 712      313300
 713              		.section	.text.startup,"ax",%progbits
 714              		.align	1
 715              		.global	main
 716              		.syntax unified
 717              		.thumb
 718              		.thumb_func
 719              		.type	main, %function
 720              	main:
 721              	.LFB43:
  53:../3-ComProcessos/main.c **** 	}
  54:../3-ComProcessos/main.c **** }
  55:../3-ComProcessos/main.c **** 
  56:../3-ComProcessos/main.c **** static void task3(void *args __attribute ((unused))){
  57:../3-ComProcessos/main.c **** 	while(1){
  58:../3-ComProcessos/main.c **** 	}
  59:../3-ComProcessos/main.c **** }
  60:../3-ComProcessos/main.c **** 
  61:../3-ComProcessos/main.c **** int main(void) {
 722              		.loc 1 61 16 is_stmt 1 view -0
 723              		.cfi_startproc
 724              		@ Volatile: function does not return.
 725              		@ args = 0, pretend = 0, frame = 0
 726              		@ frame_needed = 0, uses_anonymous_args = 0
  62:../3-ComProcessos/main.c **** 	xQueue = xQueueCreate(5 /* Tamanho máximo da fila. */,
 727              		.loc 1 62 2 view .LVU160
 728              	@ ../3-ComProcessos/main.c:68: 	xTaskCreate(task1,"LCD_16x2", 100 ,NULL, 4 ,NULL);
  63:../3-ComProcessos/main.c **** 								sizeof(u32) /* Largura máxima da fila. */);
  64:../3-ComProcessos/main.c **** 
  65:../3-ComProcessos/main.c **** 	set_system_clock_to_72Mhz();
  66:../3-ComProcessos/main.c **** //	enable_TIM3_delay();
  67:../3-ComProcessos/main.c **** 
  68:../3-ComProcessos/main.c **** 	xTaskCreate(task1,"LCD_16x2", 100 ,NULL, 4 ,NULL);
 729              		.loc 1 68 2 is_stmt 0 view .LVU161
ARM GAS  /tmp/ccYWnEX8.s 			page 18


 730 0000 0024     		movs	r4, #0	@ tmp116,
 731 0002 0425     		movs	r5, #4	@ tmp117,
 732              	@ ../3-ComProcessos/main.c:61: int main(void) {
  61:../3-ComProcessos/main.c **** 	xQueue = xQueueCreate(5 /* Tamanho máximo da fila. */,
 733              		.loc 1 61 16 view .LVU162
 734 0004 07B5     		push	{r0, r1, r2, lr}	@
 735              	.LCFI5:
 736              		.cfi_def_cfa_offset 16
 737              		.cfi_offset 14, -4
 738              	@ ../3-ComProcessos/main.c:62: 	xQueue = xQueueCreate(5 /* Tamanho máximo da fila. */,
  62:../3-ComProcessos/main.c **** 	xQueue = xQueueCreate(5 /* Tamanho máximo da fila. */,
 739              		.loc 1 62 11 view .LVU163
 740 0006 0022     		movs	r2, #0	@,
 741 0008 0421     		movs	r1, #4	@,
 742 000a 0520     		movs	r0, #5	@,
 743 000c FFF7FEFF 		bl	xQueueGenericCreate		@
 744              	.LVL12:
  65:../3-ComProcessos/main.c **** //	enable_TIM3_delay();
 745              		.loc 1 65 2 is_stmt 1 view .LVU164
 746 0010 FFF7FEFF 		bl	set_system_clock_to_72Mhz		@
 747              	.LVL13:
 748              		.loc 1 68 2 view .LVU165
 749 0014 0948     		ldr	r0, .L43	@,
 750 0016 2346     		mov	r3, r4	@, tmp116
 751 0018 6422     		movs	r2, #100	@,
 752 001a 0949     		ldr	r1, .L43+4	@,
 753 001c CDE90054 		strd	r5, r4, [sp]	@ tmp117, tmp116,
 754 0020 FFF7FEFF 		bl	xTaskCreate		@
 755              	.LVL14:
  69:../3-ComProcessos/main.c **** 	xTaskCreate(task2, "LED_13", 100 , NULL, 4 , NULL);
 756              		.loc 1 69 2 view .LVU166
 757 0024 2346     		mov	r3, r4	@, tmp116
 758 0026 6422     		movs	r2, #100	@,
 759 0028 0649     		ldr	r1, .L43+8	@,
 760 002a CDE90054 		strd	r5, r4, [sp]	@ tmp117, tmp116,
 761 002e 0648     		ldr	r0, .L43+12	@,
 762 0030 FFF7FEFF 		bl	xTaskCreate		@
 763              	.LVL15:
  70:../3-ComProcessos/main.c **** 	//xTaskCreate(task3, "3", 100 , NULL, 4 , NULL);
  71:../3-ComProcessos/main.c **** 
  72:../3-ComProcessos/main.c **** 	vTaskStartScheduler(); // inicia o escalonador de
 764              		.loc 1 72 2 view .LVU167
 765 0034 FFF7FEFF 		bl	vTaskStartScheduler		@
 766              	.LVL16:
 767              	.L42:
  73:../3-ComProcessos/main.c **** 								  // processos.
  74:../3-ComProcessos/main.c **** 	while(1);
 768              		.loc 1 74 2 discriminator 1 view .LVU168
 769              		.loc 1 74 10 discriminator 1 view .LVU169
 770              		.loc 1 74 7 discriminator 1 view .LVU170
 771 0038 FEE7     		b	.L42		@
 772              	.L44:
 773 003a 00BF     		.align	2
 774              	.L43:
 775 003c 00000000 		.word	task1
 776 0040 11000000 		.word	.LC1
 777 0044 1A000000 		.word	.LC2
ARM GAS  /tmp/ccYWnEX8.s 			page 19


 778 0048 00000000 		.word	task2
 779              		.cfi_endproc
 780              	.LFE43:
 781              		.size	main, .-main
 782              		.text
 783              	.Letext0:
 784              		.file 3 "/usr/arm-none-eabi/include/machine/_default_types.h"
 785              		.file 4 "/usr/arm-none-eabi/include/sys/_stdint.h"
 786              		.file 5 "../freertos/include/queue.h"
 787              		.file 6 "../stm32f10x_lib/CMSIS/CM3/DeviceSupport/ST/STM32F10x/stm32f10x.h"
 788              		.file 7 "../stm32f10x_lib/CMSIS/CM3/CoreSupport/core_cm3.h"
 789              		.file 8 "../freertos/include/task.h"
 790              		.file 9 "../3-ComProcessos/myLcd.h"
 791              		.section	.debug_info,"",%progbits
 792              	.Ldebug_info0:
 793 0000 240C0000 		.4byte	0xc24
 794 0004 0200     		.2byte	0x2
 795 0006 00000000 		.4byte	.Ldebug_abbrev0
 796 000a 04       		.byte	0x4
 797 000b 01       		.uleb128 0x1
 798 000c FB020000 		.4byte	.LASF159
 799 0010 0C       		.byte	0xc
 800 0011 84040000 		.4byte	.LASF160
 801 0015 E1030000 		.4byte	.LASF161
 802 0019 00000000 		.4byte	.Ldebug_ranges0+0
 803 001d 00000000 		.4byte	0
 804 0021 00000000 		.4byte	0
 805 0025 00000000 		.4byte	.Ldebug_line0
 806 0029 02       		.uleb128 0x2
 807 002a 04       		.byte	0x4
 808 002b 05       		.byte	0x5
 809 002c 696E7400 		.ascii	"int\000"
 810 0030 03       		.uleb128 0x3
 811 0031 04       		.byte	0x4
 812 0032 07       		.byte	0x7
 813 0033 67020000 		.4byte	.LASF0
 814 0037 03       		.uleb128 0x3
 815 0038 08       		.byte	0x8
 816 0039 05       		.byte	0x5
 817 003a B9000000 		.4byte	.LASF1
 818 003e 03       		.uleb128 0x3
 819 003f 08       		.byte	0x8
 820 0040 04       		.byte	0x4
 821 0041 28060000 		.4byte	.LASF2
 822 0045 03       		.uleb128 0x3
 823 0046 01       		.byte	0x1
 824 0047 06       		.byte	0x6
 825 0048 C7000000 		.4byte	.LASF3
 826 004c 04       		.uleb128 0x4
 827 004d 37000000 		.4byte	.LASF6
 828 0051 03       		.byte	0x3
 829 0052 2B       		.byte	0x2b
 830 0053 18       		.byte	0x18
 831 0054 58000000 		.4byte	0x58
 832 0058 03       		.uleb128 0x3
 833 0059 01       		.byte	0x1
 834 005a 08       		.byte	0x8
ARM GAS  /tmp/ccYWnEX8.s 			page 20


 835 005b 43050000 		.4byte	.LASF4
 836 005f 03       		.uleb128 0x3
 837 0060 02       		.byte	0x2
 838 0061 05       		.byte	0x5
 839 0062 70050000 		.4byte	.LASF5
 840 0066 04       		.uleb128 0x4
 841 0067 13020000 		.4byte	.LASF7
 842 006b 03       		.byte	0x3
 843 006c 39       		.byte	0x39
 844 006d 19       		.byte	0x19
 845 006e 72000000 		.4byte	0x72
 846 0072 03       		.uleb128 0x3
 847 0073 02       		.byte	0x2
 848 0074 07       		.byte	0x7
 849 0075 ED010000 		.4byte	.LASF8
 850 0079 03       		.uleb128 0x3
 851 007a 04       		.byte	0x4
 852 007b 05       		.byte	0x5
 853 007c 94010000 		.4byte	.LASF9
 854 0080 04       		.uleb128 0x4
 855 0081 1E020000 		.4byte	.LASF10
 856 0085 03       		.byte	0x3
 857 0086 4F       		.byte	0x4f
 858 0087 19       		.byte	0x19
 859 0088 8C000000 		.4byte	0x8c
 860 008c 03       		.uleb128 0x3
 861 008d 04       		.byte	0x4
 862 008e 07       		.byte	0x7
 863 008f 8A020000 		.4byte	.LASF11
 864 0093 03       		.uleb128 0x3
 865 0094 08       		.byte	0x8
 866 0095 07       		.byte	0x7
 867 0096 06010000 		.4byte	.LASF12
 868 009a 04       		.uleb128 0x4
 869 009b 1E070000 		.4byte	.LASF13
 870 009f 04       		.byte	0x4
 871 00a0 18       		.byte	0x18
 872 00a1 13       		.byte	0x13
 873 00a2 4C000000 		.4byte	0x4c
 874 00a6 05       		.uleb128 0x5
 875 00a7 9A000000 		.4byte	0x9a
 876 00ab 04       		.uleb128 0x4
 877 00ac C0010000 		.4byte	.LASF14
 878 00b0 04       		.byte	0x4
 879 00b1 24       		.byte	0x24
 880 00b2 14       		.byte	0x14
 881 00b3 66000000 		.4byte	0x66
 882 00b7 05       		.uleb128 0x5
 883 00b8 AB000000 		.4byte	0xab
 884 00bc 04       		.uleb128 0x4
 885 00bd F9050000 		.4byte	.LASF15
 886 00c1 04       		.byte	0x4
 887 00c2 30       		.byte	0x30
 888 00c3 14       		.byte	0x14
 889 00c4 80000000 		.4byte	0x80
 890 00c8 05       		.uleb128 0x5
 891 00c9 BC000000 		.4byte	0xbc
ARM GAS  /tmp/ccYWnEX8.s 			page 21


 892 00cd 06       		.uleb128 0x6
 893 00ce 04       		.byte	0x4
 894 00cf 03       		.uleb128 0x3
 895 00d0 01       		.byte	0x1
 896 00d1 08       		.byte	0x8
 897 00d2 4C060000 		.4byte	.LASF16
 898 00d6 04       		.uleb128 0x4
 899 00d7 80000000 		.4byte	.LASF17
 900 00db 05       		.byte	0x5
 901 00dc 30       		.byte	0x30
 902 00dd 22       		.byte	0x22
 903 00de E2000000 		.4byte	0xe2
 904 00e2 07       		.uleb128 0x7
 905 00e3 04       		.byte	0x4
 906 00e4 E8000000 		.4byte	0xe8
 907 00e8 08       		.uleb128 0x8
 908 00e9 19050000 		.4byte	.LASF162
 909 00ed 01       		.byte	0x1
 910 00ee 09       		.uleb128 0x9
 911 00ef B1030000 		.4byte	.LASF146
 912 00f3 05       		.byte	0x5
 913 00f4 01       		.byte	0x1
 914 00f5 45000000 		.4byte	0x45
 915 00f9 06       		.byte	0x6
 916 00fa A7       		.byte	0xa7
 917 00fb 0E       		.byte	0xe
 918 00fc 33020000 		.4byte	0x233
 919 0100 0A       		.uleb128 0xa
 920 0101 7B060000 		.4byte	.LASF18
 921 0105 72       		.sleb128 -14
 922 0106 0A       		.uleb128 0xa
 923 0107 74020000 		.4byte	.LASF19
 924 010b 74       		.sleb128 -12
 925 010c 0A       		.uleb128 0xa
 926 010d 3B020000 		.4byte	.LASF20
 927 0111 75       		.sleb128 -11
 928 0112 0A       		.uleb128 0xa
 929 0113 18060000 		.4byte	.LASF21
 930 0117 76       		.sleb128 -10
 931 0118 0A       		.uleb128 0xa
 932 0119 20040000 		.4byte	.LASF22
 933 011d 7B       		.sleb128 -5
 934 011e 0A       		.uleb128 0xa
 935 011f 85030000 		.4byte	.LASF23
 936 0123 7C       		.sleb128 -4
 937 0124 0A       		.uleb128 0xa
 938 0125 E1010000 		.4byte	.LASF24
 939 0129 7E       		.sleb128 -2
 940 012a 0A       		.uleb128 0xa
 941 012b 97030000 		.4byte	.LASF25
 942 012f 7F       		.sleb128 -1
 943 0130 0B       		.uleb128 0xb
 944 0131 99000000 		.4byte	.LASF26
 945 0135 00       		.byte	0
 946 0136 0B       		.uleb128 0xb
 947 0137 0A000000 		.4byte	.LASF27
 948 013b 01       		.byte	0x1
ARM GAS  /tmp/ccYWnEX8.s 			page 22


 949 013c 0B       		.uleb128 0xb
 950 013d AA060000 		.4byte	.LASF28
 951 0141 02       		.byte	0x2
 952 0142 0B       		.uleb128 0xb
 953 0143 4D000000 		.4byte	.LASF29
 954 0147 03       		.byte	0x3
 955 0148 0B       		.uleb128 0xb
 956 0149 D2050000 		.4byte	.LASF30
 957 014d 04       		.byte	0x4
 958 014e 0B       		.uleb128 0xb
 959 014f 85070000 		.4byte	.LASF31
 960 0153 05       		.byte	0x5
 961 0154 0B       		.uleb128 0xb
 962 0155 D8000000 		.4byte	.LASF32
 963 0159 06       		.byte	0x6
 964 015a 0B       		.uleb128 0xb
 965 015b 98070000 		.4byte	.LASF33
 966 015f 07       		.byte	0x7
 967 0160 0B       		.uleb128 0xb
 968 0161 8E000000 		.4byte	.LASF34
 969 0165 08       		.byte	0x8
 970 0166 0B       		.uleb128 0xb
 971 0167 0D070000 		.4byte	.LASF35
 972 016b 09       		.byte	0x9
 973 016c 0B       		.uleb128 0xb
 974 016d 65050000 		.4byte	.LASF36
 975 0171 0A       		.byte	0xa
 976 0172 0B       		.uleb128 0xb
 977 0173 AC040000 		.4byte	.LASF37
 978 0177 0B       		.byte	0xb
 979 0178 0B       		.uleb128 0xb
 980 0179 CE030000 		.4byte	.LASF38
 981 017d 0C       		.byte	0xc
 982 017e 0B       		.uleb128 0xb
 983 017f 39060000 		.4byte	.LASF39
 984 0183 0D       		.byte	0xd
 985 0184 0B       		.uleb128 0xb
 986 0185 00020000 		.4byte	.LASF40
 987 0189 0E       		.byte	0xe
 988 018a 0B       		.uleb128 0xb
 989 018b C1020000 		.4byte	.LASF41
 990 018f 0F       		.byte	0xf
 991 0190 0B       		.uleb128 0xb
 992 0191 8F060000 		.4byte	.LASF42
 993 0195 10       		.byte	0x10
 994 0196 0B       		.uleb128 0xb
 995 0197 48070000 		.4byte	.LASF43
 996 019b 11       		.byte	0x11
 997 019c 0B       		.uleb128 0xb
 998 019d D5010000 		.4byte	.LASF44
 999 01a1 12       		.byte	0x12
 1000 01a2 0B       		.uleb128 0xb
 1001 01a3 51050000 		.4byte	.LASF45
 1002 01a7 13       		.byte	0x13
 1003 01a8 0B       		.uleb128 0xb
 1004 01a9 92050000 		.4byte	.LASF46
 1005 01ad 14       		.byte	0x14
ARM GAS  /tmp/ccYWnEX8.s 			page 23


 1006 01ae 0B       		.uleb128 0xb
 1007 01af 56000000 		.4byte	.LASF47
 1008 01b3 15       		.byte	0x15
 1009 01b4 0B       		.uleb128 0xb
 1010 01b5 77070000 		.4byte	.LASF48
 1011 01b9 16       		.byte	0x16
 1012 01ba 0B       		.uleb128 0xb
 1013 01bb A6010000 		.4byte	.LASF49
 1014 01bf 17       		.byte	0x17
 1015 01c0 0B       		.uleb128 0xb
 1016 01c1 51060000 		.4byte	.LASF50
 1017 01c5 18       		.byte	0x18
 1018 01c6 0B       		.uleb128 0xb
 1019 01c7 B6060000 		.4byte	.LASF51
 1020 01cb 19       		.byte	0x19
 1021 01cc 0B       		.uleb128 0xb
 1022 01cd 18000000 		.4byte	.LASF52
 1023 01d1 1A       		.byte	0x1a
 1024 01d2 0B       		.uleb128 0xb
 1025 01d3 A4030000 		.4byte	.LASF53
 1026 01d7 1B       		.byte	0x1b
 1027 01d8 0B       		.uleb128 0xb
 1028 01d9 ED060000 		.4byte	.LASF54
 1029 01dd 1C       		.byte	0x1c
 1030 01de 0B       		.uleb128 0xb
 1031 01df 8E070000 		.4byte	.LASF55
 1032 01e3 1D       		.byte	0x1d
 1033 01e4 0B       		.uleb128 0xb
 1034 01e5 76000000 		.4byte	.LASF56
 1035 01e9 1E       		.byte	0x1e
 1036 01ea 0B       		.uleb128 0xb
 1037 01eb 2A000000 		.4byte	.LASF57
 1038 01ef 1F       		.byte	0x1f
 1039 01f0 0B       		.uleb128 0xb
 1040 01f1 60070000 		.4byte	.LASF58
 1041 01f5 20       		.byte	0x20
 1042 01f6 0B       		.uleb128 0xb
 1043 01f7 2C040000 		.4byte	.LASF59
 1044 01fb 21       		.byte	0x21
 1045 01fc 0B       		.uleb128 0xb
 1046 01fd 69000000 		.4byte	.LASF60
 1047 0201 22       		.byte	0x22
 1048 0202 0B       		.uleb128 0xb
 1049 0203 7B030000 		.4byte	.LASF61
 1050 0207 23       		.byte	0x23
 1051 0208 0B       		.uleb128 0xb
 1052 0209 50040000 		.4byte	.LASF62
 1053 020d 24       		.byte	0x24
 1054 020e 0B       		.uleb128 0xb
 1055 020f D9020000 		.4byte	.LASF63
 1056 0213 25       		.byte	0x25
 1057 0214 0B       		.uleb128 0xb
 1058 0215 0C060000 		.4byte	.LASF64
 1059 0219 26       		.byte	0x26
 1060 021a 0B       		.uleb128 0xb
 1061 021b DC060000 		.4byte	.LASF65
 1062 021f 27       		.byte	0x27
ARM GAS  /tmp/ccYWnEX8.s 			page 24


 1063 0220 0B       		.uleb128 0xb
 1064 0221 EC020000 		.4byte	.LASF66
 1065 0225 28       		.byte	0x28
 1066 0226 0B       		.uleb128 0xb
 1067 0227 64060000 		.4byte	.LASF67
 1068 022b 29       		.byte	0x29
 1069 022c 0B       		.uleb128 0xb
 1070 022d C3060000 		.4byte	.LASF68
 1071 0231 2A       		.byte	0x2a
 1072 0232 00       		.byte	0
 1073 0233 0C       		.uleb128 0xc
 1074 0234 EF050000 		.4byte	.LASF69
 1075 0238 06       		.byte	0x6
 1076 0239 D801     		.2byte	0x1d8
 1077 023b 03       		.byte	0x3
 1078 023c EE000000 		.4byte	0xee
 1079 0240 0D       		.uleb128 0xd
 1080 0241 040E     		.2byte	0xe04
 1081 0243 07       		.byte	0x7
 1082 0244 84       		.byte	0x84
 1083 0245 09       		.byte	0x9
 1084 0246 18030000 		.4byte	0x318
 1085 024a 0E       		.uleb128 0xe
 1086 024b 7A050000 		.4byte	.LASF70
 1087 024f 07       		.byte	0x7
 1088 0250 86       		.byte	0x86
 1089 0251 11       		.byte	0x11
 1090 0252 28030000 		.4byte	0x328
 1091 0256 02       		.byte	0x2
 1092 0257 23       		.byte	0x23
 1093 0258 00       		.uleb128 0
 1094 0259 0E       		.uleb128 0xe
 1095 025a BF040000 		.4byte	.LASF71
 1096 025e 07       		.byte	0x7
 1097 025f 87       		.byte	0x87
 1098 0260 11       		.byte	0x11
 1099 0261 2D030000 		.4byte	0x32d
 1100 0265 02       		.byte	0x2
 1101 0266 23       		.byte	0x23
 1102 0267 20       		.uleb128 0x20
 1103 0268 0E       		.uleb128 0xe
 1104 0269 77040000 		.4byte	.LASF72
 1105 026d 07       		.byte	0x7
 1106 026e 88       		.byte	0x88
 1107 026f 11       		.byte	0x11
 1108 0270 28030000 		.4byte	0x328
 1109 0274 03       		.byte	0x3
 1110 0275 23       		.byte	0x23
 1111 0276 8001     		.uleb128 0x80
 1112 0278 0E       		.uleb128 0xe
 1113 0279 26070000 		.4byte	.LASF73
 1114 027d 07       		.byte	0x7
 1115 027e 89       		.byte	0x89
 1116 027f 11       		.byte	0x11
 1117 0280 2D030000 		.4byte	0x32d
 1118 0284 03       		.byte	0x3
 1119 0285 23       		.byte	0x23
ARM GAS  /tmp/ccYWnEX8.s 			page 25


 1120 0286 A001     		.uleb128 0xa0
 1121 0288 0E       		.uleb128 0xe
 1122 0289 A3000000 		.4byte	.LASF74
 1123 028d 07       		.byte	0x7
 1124 028e 8A       		.byte	0x8a
 1125 028f 11       		.byte	0x11
 1126 0290 28030000 		.4byte	0x328
 1127 0294 03       		.byte	0x3
 1128 0295 23       		.byte	0x23
 1129 0296 8002     		.uleb128 0x100
 1130 0298 0E       		.uleb128 0xe
 1131 0299 D3040000 		.4byte	.LASF75
 1132 029d 07       		.byte	0x7
 1133 029e 8B       		.byte	0x8b
 1134 029f 11       		.byte	0x11
 1135 02a0 2D030000 		.4byte	0x32d
 1136 02a4 03       		.byte	0x3
 1137 02a5 23       		.byte	0x23
 1138 02a6 A002     		.uleb128 0x120
 1139 02a8 0E       		.uleb128 0xe
 1140 02a9 00000000 		.4byte	.LASF76
 1141 02ad 07       		.byte	0x7
 1142 02ae 8C       		.byte	0x8c
 1143 02af 11       		.byte	0x11
 1144 02b0 28030000 		.4byte	0x328
 1145 02b4 03       		.byte	0x3
 1146 02b5 23       		.byte	0x23
 1147 02b6 8003     		.uleb128 0x180
 1148 02b8 0E       		.uleb128 0xe
 1149 02b9 DD040000 		.4byte	.LASF77
 1150 02bd 07       		.byte	0x7
 1151 02be 8D       		.byte	0x8d
 1152 02bf 11       		.byte	0x11
 1153 02c0 2D030000 		.4byte	0x32d
 1154 02c4 03       		.byte	0x3
 1155 02c5 23       		.byte	0x23
 1156 02c6 A003     		.uleb128 0x1a0
 1157 02c8 0E       		.uleb128 0xe
 1158 02c9 45040000 		.4byte	.LASF78
 1159 02cd 07       		.byte	0x7
 1160 02ce 8E       		.byte	0x8e
 1161 02cf 11       		.byte	0x11
 1162 02d0 28030000 		.4byte	0x328
 1163 02d4 03       		.byte	0x3
 1164 02d5 23       		.byte	0x23
 1165 02d6 8004     		.uleb128 0x200
 1166 02d8 0E       		.uleb128 0xe
 1167 02d9 E7040000 		.4byte	.LASF79
 1168 02dd 07       		.byte	0x7
 1169 02de 8F       		.byte	0x8f
 1170 02df 11       		.byte	0x11
 1171 02e0 3D030000 		.4byte	0x33d
 1172 02e4 03       		.byte	0x3
 1173 02e5 23       		.byte	0x23
 1174 02e6 A004     		.uleb128 0x220
 1175 02e8 0F       		.uleb128 0xf
 1176 02e9 495000   		.ascii	"IP\000"
ARM GAS  /tmp/ccYWnEX8.s 			page 26


 1177 02ec 07       		.byte	0x7
 1178 02ed 90       		.byte	0x90
 1179 02ee 11       		.byte	0x11
 1180 02ef 5D030000 		.4byte	0x35d
 1181 02f3 03       		.byte	0x3
 1182 02f4 23       		.byte	0x23
 1183 02f5 8006     		.uleb128 0x300
 1184 02f7 0E       		.uleb128 0xe
 1185 02f8 F1040000 		.4byte	.LASF80
 1186 02fc 07       		.byte	0x7
 1187 02fd 91       		.byte	0x91
 1188 02fe 11       		.byte	0x11
 1189 02ff 62030000 		.4byte	0x362
 1190 0303 03       		.byte	0x3
 1191 0304 23       		.byte	0x23
 1192 0305 F007     		.uleb128 0x3f0
 1193 0307 0E       		.uleb128 0xe
 1194 0308 2F070000 		.4byte	.LASF81
 1195 030c 07       		.byte	0x7
 1196 030d 92       		.byte	0x92
 1197 030e 11       		.byte	0x11
 1198 030f C8000000 		.4byte	0xc8
 1199 0313 03       		.byte	0x3
 1200 0314 23       		.byte	0x23
 1201 0315 801C     		.uleb128 0xe00
 1202 0317 00       		.byte	0
 1203 0318 10       		.uleb128 0x10
 1204 0319 C8000000 		.4byte	0xc8
 1205 031d 28030000 		.4byte	0x328
 1206 0321 11       		.uleb128 0x11
 1207 0322 30000000 		.4byte	0x30
 1208 0326 07       		.byte	0x7
 1209 0327 00       		.byte	0
 1210 0328 05       		.uleb128 0x5
 1211 0329 18030000 		.4byte	0x318
 1212 032d 10       		.uleb128 0x10
 1213 032e BC000000 		.4byte	0xbc
 1214 0332 3D030000 		.4byte	0x33d
 1215 0336 11       		.uleb128 0x11
 1216 0337 30000000 		.4byte	0x30
 1217 033b 17       		.byte	0x17
 1218 033c 00       		.byte	0
 1219 033d 10       		.uleb128 0x10
 1220 033e BC000000 		.4byte	0xbc
 1221 0342 4D030000 		.4byte	0x34d
 1222 0346 11       		.uleb128 0x11
 1223 0347 30000000 		.4byte	0x30
 1224 034b 37       		.byte	0x37
 1225 034c 00       		.byte	0
 1226 034d 10       		.uleb128 0x10
 1227 034e A6000000 		.4byte	0xa6
 1228 0352 5D030000 		.4byte	0x35d
 1229 0356 11       		.uleb128 0x11
 1230 0357 30000000 		.4byte	0x30
 1231 035b EF       		.byte	0xef
 1232 035c 00       		.byte	0
 1233 035d 05       		.uleb128 0x5
ARM GAS  /tmp/ccYWnEX8.s 			page 27


 1234 035e 4D030000 		.4byte	0x34d
 1235 0362 10       		.uleb128 0x10
 1236 0363 BC000000 		.4byte	0xbc
 1237 0367 73030000 		.4byte	0x373
 1238 036b 12       		.uleb128 0x12
 1239 036c 30000000 		.4byte	0x30
 1240 0370 8302     		.2byte	0x283
 1241 0372 00       		.byte	0
 1242 0373 04       		.uleb128 0x4
 1243 0374 7F050000 		.4byte	.LASF82
 1244 0378 07       		.byte	0x7
 1245 0379 93       		.byte	0x93
 1246 037a 04       		.byte	0x4
 1247 037b 40020000 		.4byte	0x240
 1248 037f 13       		.uleb128 0x13
 1249 0380 75333200 		.ascii	"u32\000"
 1250 0384 06       		.byte	0x6
 1251 0385 F701     		.2byte	0x1f7
 1252 0387 13       		.byte	0x13
 1253 0388 BC000000 		.4byte	0xbc
 1254 038c 05       		.uleb128 0x5
 1255 038d 7F030000 		.4byte	0x37f
 1256 0391 14       		.uleb128 0x14
 1257 0392 50       		.byte	0x50
 1258 0393 06       		.byte	0x6
 1259 0394 1E02     		.2byte	0x21e
 1260 0396 09       		.byte	0x9
 1261 0397 DA040000 		.4byte	0x4da
 1262 039b 15       		.uleb128 0x15
 1263 039c 535200   		.ascii	"SR\000"
 1264 039f 06       		.byte	0x6
 1265 03a0 2002     		.2byte	0x220
 1266 03a2 11       		.byte	0x11
 1267 03a3 C8000000 		.4byte	0xc8
 1268 03a7 02       		.byte	0x2
 1269 03a8 23       		.byte	0x23
 1270 03a9 00       		.uleb128 0
 1271 03aa 15       		.uleb128 0x15
 1272 03ab 43523100 		.ascii	"CR1\000"
 1273 03af 06       		.byte	0x6
 1274 03b0 2102     		.2byte	0x221
 1275 03b2 11       		.byte	0x11
 1276 03b3 C8000000 		.4byte	0xc8
 1277 03b7 02       		.byte	0x2
 1278 03b8 23       		.byte	0x23
 1279 03b9 04       		.uleb128 0x4
 1280 03ba 15       		.uleb128 0x15
 1281 03bb 43523200 		.ascii	"CR2\000"
 1282 03bf 06       		.byte	0x6
 1283 03c0 2202     		.2byte	0x222
 1284 03c2 11       		.byte	0x11
 1285 03c3 C8000000 		.4byte	0xc8
 1286 03c7 02       		.byte	0x2
 1287 03c8 23       		.byte	0x23
 1288 03c9 08       		.uleb128 0x8
 1289 03ca 16       		.uleb128 0x16
 1290 03cb 6B040000 		.4byte	.LASF83
ARM GAS  /tmp/ccYWnEX8.s 			page 28


 1291 03cf 06       		.byte	0x6
 1292 03d0 2302     		.2byte	0x223
 1293 03d2 11       		.byte	0x11
 1294 03d3 C8000000 		.4byte	0xc8
 1295 03d7 02       		.byte	0x2
 1296 03d8 23       		.byte	0x23
 1297 03d9 0C       		.uleb128 0xc
 1298 03da 16       		.uleb128 0x16
 1299 03db 71040000 		.4byte	.LASF84
 1300 03df 06       		.byte	0x6
 1301 03e0 2402     		.2byte	0x224
 1302 03e2 11       		.byte	0x11
 1303 03e3 C8000000 		.4byte	0xc8
 1304 03e7 02       		.byte	0x2
 1305 03e8 23       		.byte	0x23
 1306 03e9 10       		.uleb128 0x10
 1307 03ea 16       		.uleb128 0x16
 1308 03eb B6030000 		.4byte	.LASF85
 1309 03ef 06       		.byte	0x6
 1310 03f0 2502     		.2byte	0x225
 1311 03f2 11       		.byte	0x11
 1312 03f3 C8000000 		.4byte	0xc8
 1313 03f7 02       		.byte	0x2
 1314 03f8 23       		.byte	0x23
 1315 03f9 14       		.uleb128 0x14
 1316 03fa 16       		.uleb128 0x16
 1317 03fb BC030000 		.4byte	.LASF86
 1318 03ff 06       		.byte	0x6
 1319 0400 2602     		.2byte	0x226
 1320 0402 11       		.byte	0x11
 1321 0403 C8000000 		.4byte	0xc8
 1322 0407 02       		.byte	0x2
 1323 0408 23       		.byte	0x23
 1324 0409 18       		.uleb128 0x18
 1325 040a 16       		.uleb128 0x16
 1326 040b C2030000 		.4byte	.LASF87
 1327 040f 06       		.byte	0x6
 1328 0410 2702     		.2byte	0x227
 1329 0412 11       		.byte	0x11
 1330 0413 C8000000 		.4byte	0xc8
 1331 0417 02       		.byte	0x2
 1332 0418 23       		.byte	0x23
 1333 0419 1C       		.uleb128 0x1c
 1334 041a 16       		.uleb128 0x16
 1335 041b C8030000 		.4byte	.LASF88
 1336 041f 06       		.byte	0x6
 1337 0420 2802     		.2byte	0x228
 1338 0422 11       		.byte	0x11
 1339 0423 C8000000 		.4byte	0xc8
 1340 0427 02       		.byte	0x2
 1341 0428 23       		.byte	0x23
 1342 0429 20       		.uleb128 0x20
 1343 042a 15       		.uleb128 0x15
 1344 042b 48545200 		.ascii	"HTR\000"
 1345 042f 06       		.byte	0x6
 1346 0430 2902     		.2byte	0x229
 1347 0432 11       		.byte	0x11
ARM GAS  /tmp/ccYWnEX8.s 			page 29


 1348 0433 C8000000 		.4byte	0xc8
 1349 0437 02       		.byte	0x2
 1350 0438 23       		.byte	0x23
 1351 0439 24       		.uleb128 0x24
 1352 043a 15       		.uleb128 0x15
 1353 043b 4C545200 		.ascii	"LTR\000"
 1354 043f 06       		.byte	0x6
 1355 0440 2A02     		.2byte	0x22a
 1356 0442 11       		.byte	0x11
 1357 0443 C8000000 		.4byte	0xc8
 1358 0447 02       		.byte	0x2
 1359 0448 23       		.byte	0x23
 1360 0449 28       		.uleb128 0x28
 1361 044a 16       		.uleb128 0x16
 1362 044b 9D040000 		.4byte	.LASF89
 1363 044f 06       		.byte	0x6
 1364 0450 2B02     		.2byte	0x22b
 1365 0452 11       		.byte	0x11
 1366 0453 C8000000 		.4byte	0xc8
 1367 0457 02       		.byte	0x2
 1368 0458 23       		.byte	0x23
 1369 0459 2C       		.uleb128 0x2c
 1370 045a 16       		.uleb128 0x16
 1371 045b A2040000 		.4byte	.LASF90
 1372 045f 06       		.byte	0x6
 1373 0460 2C02     		.2byte	0x22c
 1374 0462 11       		.byte	0x11
 1375 0463 C8000000 		.4byte	0xc8
 1376 0467 02       		.byte	0x2
 1377 0468 23       		.byte	0x23
 1378 0469 30       		.uleb128 0x30
 1379 046a 16       		.uleb128 0x16
 1380 046b A7040000 		.4byte	.LASF91
 1381 046f 06       		.byte	0x6
 1382 0470 2D02     		.2byte	0x22d
 1383 0472 11       		.byte	0x11
 1384 0473 C8000000 		.4byte	0xc8
 1385 0477 02       		.byte	0x2
 1386 0478 23       		.byte	0x23
 1387 0479 34       		.uleb128 0x34
 1388 047a 16       		.uleb128 0x16
 1389 047b A8000000 		.4byte	.LASF92
 1390 047f 06       		.byte	0x6
 1391 0480 2E02     		.2byte	0x22e
 1392 0482 11       		.byte	0x11
 1393 0483 C8000000 		.4byte	0xc8
 1394 0487 02       		.byte	0x2
 1395 0488 23       		.byte	0x23
 1396 0489 38       		.uleb128 0x38
 1397 048a 16       		.uleb128 0x16
 1398 048b 34070000 		.4byte	.LASF93
 1399 048f 06       		.byte	0x6
 1400 0490 2F02     		.2byte	0x22f
 1401 0492 11       		.byte	0x11
 1402 0493 C8000000 		.4byte	0xc8
 1403 0497 02       		.byte	0x2
 1404 0498 23       		.byte	0x23
ARM GAS  /tmp/ccYWnEX8.s 			page 30


 1405 0499 3C       		.uleb128 0x3c
 1406 049a 16       		.uleb128 0x16
 1407 049b 39070000 		.4byte	.LASF94
 1408 049f 06       		.byte	0x6
 1409 04a0 3002     		.2byte	0x230
 1410 04a2 11       		.byte	0x11
 1411 04a3 C8000000 		.4byte	0xc8
 1412 04a7 02       		.byte	0x2
 1413 04a8 23       		.byte	0x23
 1414 04a9 40       		.uleb128 0x40
 1415 04aa 16       		.uleb128 0x16
 1416 04ab 3E070000 		.4byte	.LASF95
 1417 04af 06       		.byte	0x6
 1418 04b0 3102     		.2byte	0x231
 1419 04b2 11       		.byte	0x11
 1420 04b3 C8000000 		.4byte	0xc8
 1421 04b7 02       		.byte	0x2
 1422 04b8 23       		.byte	0x23
 1423 04b9 44       		.uleb128 0x44
 1424 04ba 16       		.uleb128 0x16
 1425 04bb 43070000 		.4byte	.LASF96
 1426 04bf 06       		.byte	0x6
 1427 04c0 3202     		.2byte	0x232
 1428 04c2 11       		.byte	0x11
 1429 04c3 C8000000 		.4byte	0xc8
 1430 04c7 02       		.byte	0x2
 1431 04c8 23       		.byte	0x23
 1432 04c9 48       		.uleb128 0x48
 1433 04ca 15       		.uleb128 0x15
 1434 04cb 445200   		.ascii	"DR\000"
 1435 04ce 06       		.byte	0x6
 1436 04cf 3302     		.2byte	0x233
 1437 04d1 11       		.byte	0x11
 1438 04d2 C8000000 		.4byte	0xc8
 1439 04d6 02       		.byte	0x2
 1440 04d7 23       		.byte	0x23
 1441 04d8 4C       		.uleb128 0x4c
 1442 04d9 00       		.byte	0
 1443 04da 0C       		.uleb128 0xc
 1444 04db C9010000 		.4byte	.LASF97
 1445 04df 06       		.byte	0x6
 1446 04e0 3402     		.2byte	0x234
 1447 04e2 03       		.byte	0x3
 1448 04e3 91030000 		.4byte	0x391
 1449 04e7 14       		.uleb128 0x14
 1450 04e8 24       		.byte	0x24
 1451 04e9 06       		.byte	0x6
 1452 04ea 8503     		.2byte	0x385
 1453 04ec 09       		.byte	0x9
 1454 04ed 7F050000 		.4byte	0x57f
 1455 04f1 15       		.uleb128 0x15
 1456 04f2 41435200 		.ascii	"ACR\000"
 1457 04f6 06       		.byte	0x6
 1458 04f7 8703     		.2byte	0x387
 1459 04f9 11       		.byte	0x11
 1460 04fa C8000000 		.4byte	0xc8
 1461 04fe 02       		.byte	0x2
ARM GAS  /tmp/ccYWnEX8.s 			page 31


 1462 04ff 23       		.byte	0x23
 1463 0500 00       		.uleb128 0
 1464 0501 16       		.uleb128 0x16
 1465 0502 5D020000 		.4byte	.LASF98
 1466 0506 06       		.byte	0x6
 1467 0507 8803     		.2byte	0x388
 1468 0509 11       		.byte	0x11
 1469 050a C8000000 		.4byte	0xc8
 1470 050e 02       		.byte	0x2
 1471 050f 23       		.byte	0x23
 1472 0510 04       		.uleb128 0x4
 1473 0511 16       		.uleb128 0x16
 1474 0512 B8010000 		.4byte	.LASF99
 1475 0516 06       		.byte	0x6
 1476 0517 8903     		.2byte	0x389
 1477 0519 11       		.byte	0x11
 1478 051a C8000000 		.4byte	0xc8
 1479 051e 02       		.byte	0x2
 1480 051f 23       		.byte	0x23
 1481 0520 08       		.uleb128 0x8
 1482 0521 15       		.uleb128 0x15
 1483 0522 535200   		.ascii	"SR\000"
 1484 0525 06       		.byte	0x6
 1485 0526 8A03     		.2byte	0x38a
 1486 0528 11       		.byte	0x11
 1487 0529 C8000000 		.4byte	0xc8
 1488 052d 02       		.byte	0x2
 1489 052e 23       		.byte	0x23
 1490 052f 0C       		.uleb128 0xc
 1491 0530 15       		.uleb128 0x15
 1492 0531 435200   		.ascii	"CR\000"
 1493 0534 06       		.byte	0x6
 1494 0535 8B03     		.2byte	0x38b
 1495 0537 11       		.byte	0x11
 1496 0538 C8000000 		.4byte	0xc8
 1497 053c 02       		.byte	0x2
 1498 053d 23       		.byte	0x23
 1499 053e 10       		.uleb128 0x10
 1500 053f 15       		.uleb128 0x15
 1501 0540 415200   		.ascii	"AR\000"
 1502 0543 06       		.byte	0x6
 1503 0544 8C03     		.2byte	0x38c
 1504 0546 11       		.byte	0x11
 1505 0547 C8000000 		.4byte	0xc8
 1506 054b 02       		.byte	0x2
 1507 054c 23       		.byte	0x23
 1508 054d 14       		.uleb128 0x14
 1509 054e 16       		.uleb128 0x16
 1510 054f 89050000 		.4byte	.LASF100
 1511 0553 06       		.byte	0x6
 1512 0554 8D03     		.2byte	0x38d
 1513 0556 11       		.byte	0x11
 1514 0557 C8000000 		.4byte	0xc8
 1515 055b 02       		.byte	0x2
 1516 055c 23       		.byte	0x23
 1517 055d 18       		.uleb128 0x18
 1518 055e 15       		.uleb128 0x15
ARM GAS  /tmp/ccYWnEX8.s 			page 32


 1519 055f 4F425200 		.ascii	"OBR\000"
 1520 0563 06       		.byte	0x6
 1521 0564 8E03     		.2byte	0x38e
 1522 0566 11       		.byte	0x11
 1523 0567 C8000000 		.4byte	0xc8
 1524 056b 02       		.byte	0x2
 1525 056c 23       		.byte	0x23
 1526 056d 1C       		.uleb128 0x1c
 1527 056e 16       		.uleb128 0x16
 1528 056f 34060000 		.4byte	.LASF101
 1529 0573 06       		.byte	0x6
 1530 0574 8F03     		.2byte	0x38f
 1531 0576 11       		.byte	0x11
 1532 0577 C8000000 		.4byte	0xc8
 1533 057b 02       		.byte	0x2
 1534 057c 23       		.byte	0x23
 1535 057d 20       		.uleb128 0x20
 1536 057e 00       		.byte	0
 1537 057f 0C       		.uleb128 0xc
 1538 0580 E3000000 		.4byte	.LASF102
 1539 0584 06       		.byte	0x6
 1540 0585 9803     		.2byte	0x398
 1541 0587 03       		.byte	0x3
 1542 0588 E7040000 		.4byte	0x4e7
 1543 058c 14       		.uleb128 0x14
 1544 058d 1C       		.byte	0x1c
 1545 058e 06       		.byte	0x6
 1546 058f E903     		.2byte	0x3e9
 1547 0591 09       		.byte	0x9
 1548 0592 07060000 		.4byte	0x607
 1549 0596 15       		.uleb128 0x15
 1550 0597 43524C00 		.ascii	"CRL\000"
 1551 059b 06       		.byte	0x6
 1552 059c EB03     		.2byte	0x3eb
 1553 059e 11       		.byte	0x11
 1554 059f C8000000 		.4byte	0xc8
 1555 05a3 02       		.byte	0x2
 1556 05a4 23       		.byte	0x23
 1557 05a5 00       		.uleb128 0
 1558 05a6 15       		.uleb128 0x15
 1559 05a7 43524800 		.ascii	"CRH\000"
 1560 05ab 06       		.byte	0x6
 1561 05ac EC03     		.2byte	0x3ec
 1562 05ae 11       		.byte	0x11
 1563 05af C8000000 		.4byte	0xc8
 1564 05b3 02       		.byte	0x2
 1565 05b4 23       		.byte	0x23
 1566 05b5 04       		.uleb128 0x4
 1567 05b6 15       		.uleb128 0x15
 1568 05b7 49445200 		.ascii	"IDR\000"
 1569 05bb 06       		.byte	0x6
 1570 05bc ED03     		.2byte	0x3ed
 1571 05be 11       		.byte	0x11
 1572 05bf C8000000 		.4byte	0xc8
 1573 05c3 02       		.byte	0x2
 1574 05c4 23       		.byte	0x23
 1575 05c5 08       		.uleb128 0x8
ARM GAS  /tmp/ccYWnEX8.s 			page 33


 1576 05c6 15       		.uleb128 0x15
 1577 05c7 4F445200 		.ascii	"ODR\000"
 1578 05cb 06       		.byte	0x6
 1579 05cc EE03     		.2byte	0x3ee
 1580 05ce 11       		.byte	0x11
 1581 05cf C8000000 		.4byte	0xc8
 1582 05d3 02       		.byte	0x2
 1583 05d4 23       		.byte	0x23
 1584 05d5 0C       		.uleb128 0xc
 1585 05d6 16       		.uleb128 0x16
 1586 05d7 D3000000 		.4byte	.LASF103
 1587 05db 06       		.byte	0x6
 1588 05dc EF03     		.2byte	0x3ef
 1589 05de 11       		.byte	0x11
 1590 05df C8000000 		.4byte	0xc8
 1591 05e3 02       		.byte	0x2
 1592 05e4 23       		.byte	0x23
 1593 05e5 10       		.uleb128 0x10
 1594 05e6 15       		.uleb128 0x15
 1595 05e7 42525200 		.ascii	"BRR\000"
 1596 05eb 06       		.byte	0x6
 1597 05ec F003     		.2byte	0x3f0
 1598 05ee 11       		.byte	0x11
 1599 05ef C8000000 		.4byte	0xc8
 1600 05f3 02       		.byte	0x2
 1601 05f4 23       		.byte	0x23
 1602 05f5 14       		.uleb128 0x14
 1603 05f6 16       		.uleb128 0x16
 1604 05f7 05000000 		.4byte	.LASF104
 1605 05fb 06       		.byte	0x6
 1606 05fc F103     		.2byte	0x3f1
 1607 05fe 11       		.byte	0x11
 1608 05ff C8000000 		.4byte	0xc8
 1609 0603 02       		.byte	0x2
 1610 0604 23       		.byte	0x23
 1611 0605 18       		.uleb128 0x18
 1612 0606 00       		.byte	0
 1613 0607 0C       		.uleb128 0xc
 1614 0608 9C020000 		.4byte	.LASF105
 1615 060c 06       		.byte	0x6
 1616 060d F203     		.2byte	0x3f2
 1617 060f 03       		.byte	0x3
 1618 0610 8C050000 		.4byte	0x58c
 1619 0614 14       		.uleb128 0x14
 1620 0615 30       		.byte	0x30
 1621 0616 06       		.byte	0x6
 1622 0617 3404     		.2byte	0x434
 1623 0619 09       		.byte	0x9
 1624 061a DE060000 		.4byte	0x6de
 1625 061e 15       		.uleb128 0x15
 1626 061f 435200   		.ascii	"CR\000"
 1627 0622 06       		.byte	0x6
 1628 0623 3604     		.2byte	0x436
 1629 0625 11       		.byte	0x11
 1630 0626 C8000000 		.4byte	0xc8
 1631 062a 02       		.byte	0x2
 1632 062b 23       		.byte	0x23
ARM GAS  /tmp/ccYWnEX8.s 			page 34


 1633 062c 00       		.uleb128 0
 1634 062d 16       		.uleb128 0x16
 1635 062e 5B070000 		.4byte	.LASF106
 1636 0632 06       		.byte	0x6
 1637 0633 3704     		.2byte	0x437
 1638 0635 11       		.byte	0x11
 1639 0636 C8000000 		.4byte	0xc8
 1640 063a 02       		.byte	0x2
 1641 063b 23       		.byte	0x23
 1642 063c 04       		.uleb128 0x4
 1643 063d 15       		.uleb128 0x15
 1644 063e 43495200 		.ascii	"CIR\000"
 1645 0642 06       		.byte	0x6
 1646 0643 3804     		.2byte	0x438
 1647 0645 11       		.byte	0x11
 1648 0646 C8000000 		.4byte	0xc8
 1649 064a 02       		.byte	0x2
 1650 064b 23       		.byte	0x23
 1651 064c 08       		.uleb128 0x8
 1652 064d 16       		.uleb128 0x16
 1653 064e 9D010000 		.4byte	.LASF107
 1654 0652 06       		.byte	0x6
 1655 0653 3904     		.2byte	0x439
 1656 0655 11       		.byte	0x11
 1657 0656 C8000000 		.4byte	0xc8
 1658 065a 02       		.byte	0x2
 1659 065b 23       		.byte	0x23
 1660 065c 0C       		.uleb128 0xc
 1661 065d 16       		.uleb128 0x16
 1662 065e 1D010000 		.4byte	.LASF108
 1663 0662 06       		.byte	0x6
 1664 0663 3A04     		.2byte	0x43a
 1665 0665 11       		.byte	0x11
 1666 0666 C8000000 		.4byte	0xc8
 1667 066a 02       		.byte	0x2
 1668 066b 23       		.byte	0x23
 1669 066c 10       		.uleb128 0x10
 1670 066d 16       		.uleb128 0x16
 1671 066e E5020000 		.4byte	.LASF109
 1672 0672 06       		.byte	0x6
 1673 0673 3B04     		.2byte	0x43b
 1674 0675 11       		.byte	0x11
 1675 0676 C8000000 		.4byte	0xc8
 1676 067a 02       		.byte	0x2
 1677 067b 23       		.byte	0x23
 1678 067c 14       		.uleb128 0x14
 1679 067d 16       		.uleb128 0x16
 1680 067e CA050000 		.4byte	.LASF110
 1681 0682 06       		.byte	0x6
 1682 0683 3C04     		.2byte	0x43c
 1683 0685 11       		.byte	0x11
 1684 0686 C8000000 		.4byte	0xc8
 1685 068a 02       		.byte	0x2
 1686 068b 23       		.byte	0x23
 1687 068c 18       		.uleb128 0x18
 1688 068d 16       		.uleb128 0x16
 1689 068e A2060000 		.4byte	.LASF111
ARM GAS  /tmp/ccYWnEX8.s 			page 35


 1690 0692 06       		.byte	0x6
 1691 0693 3D04     		.2byte	0x43d
 1692 0695 11       		.byte	0x11
 1693 0696 C8000000 		.4byte	0xc8
 1694 069a 02       		.byte	0x2
 1695 069b 23       		.byte	0x23
 1696 069c 1C       		.uleb128 0x1c
 1697 069d 16       		.uleb128 0x16
 1698 069e 08070000 		.4byte	.LASF112
 1699 06a2 06       		.byte	0x6
 1700 06a3 3E04     		.2byte	0x43e
 1701 06a5 11       		.byte	0x11
 1702 06a6 C8000000 		.4byte	0xc8
 1703 06aa 02       		.byte	0x2
 1704 06ab 23       		.byte	0x23
 1705 06ac 20       		.uleb128 0x20
 1706 06ad 15       		.uleb128 0x15
 1707 06ae 43535200 		.ascii	"CSR\000"
 1708 06b2 06       		.byte	0x6
 1709 06b3 3F04     		.2byte	0x43f
 1710 06b5 11       		.byte	0x11
 1711 06b6 C8000000 		.4byte	0xc8
 1712 06ba 02       		.byte	0x2
 1713 06bb 23       		.byte	0x23
 1714 06bc 24       		.uleb128 0x24
 1715 06bd 16       		.uleb128 0x16
 1716 06be 7C040000 		.4byte	.LASF113
 1717 06c2 06       		.byte	0x6
 1718 06c3 4004     		.2byte	0x440
 1719 06c5 11       		.byte	0x11
 1720 06c6 C8000000 		.4byte	0xc8
 1721 06ca 02       		.byte	0x2
 1722 06cb 23       		.byte	0x23
 1723 06cc 28       		.uleb128 0x28
 1724 06cd 16       		.uleb128 0x16
 1725 06ce 18070000 		.4byte	.LASF114
 1726 06d2 06       		.byte	0x6
 1727 06d3 4104     		.2byte	0x441
 1728 06d5 11       		.byte	0x11
 1729 06d6 C8000000 		.4byte	0xc8
 1730 06da 02       		.byte	0x2
 1731 06db 23       		.byte	0x23
 1732 06dc 2C       		.uleb128 0x2c
 1733 06dd 00       		.byte	0
 1734 06de 0C       		.uleb128 0xc
 1735 06df A9020000 		.4byte	.LASF115
 1736 06e3 06       		.byte	0x6
 1737 06e4 4204     		.2byte	0x442
 1738 06e6 03       		.byte	0x3
 1739 06e7 14060000 		.4byte	0x614
 1740 06eb 14       		.uleb128 0x14
 1741 06ec 50       		.byte	0x50
 1742 06ed 06       		.byte	0x6
 1743 06ee 9A04     		.2byte	0x49a
 1744 06f0 09       		.byte	0x9
 1745 06f1 75090000 		.4byte	0x975
 1746 06f5 15       		.uleb128 0x15
ARM GAS  /tmp/ccYWnEX8.s 			page 36


 1747 06f6 43523100 		.ascii	"CR1\000"
 1748 06fa 06       		.byte	0x6
 1749 06fb 9C04     		.2byte	0x49c
 1750 06fd 11       		.byte	0x11
 1751 06fe B7000000 		.4byte	0xb7
 1752 0702 02       		.byte	0x2
 1753 0703 23       		.byte	0x23
 1754 0704 00       		.uleb128 0
 1755 0705 16       		.uleb128 0x16
 1756 0706 BF040000 		.4byte	.LASF71
 1757 070a 06       		.byte	0x6
 1758 070b 9D04     		.2byte	0x49d
 1759 070d 0D       		.byte	0xd
 1760 070e AB000000 		.4byte	0xab
 1761 0712 02       		.byte	0x2
 1762 0713 23       		.byte	0x23
 1763 0714 02       		.uleb128 0x2
 1764 0715 15       		.uleb128 0x15
 1765 0716 43523200 		.ascii	"CR2\000"
 1766 071a 06       		.byte	0x6
 1767 071b 9E04     		.2byte	0x49e
 1768 071d 11       		.byte	0x11
 1769 071e B7000000 		.4byte	0xb7
 1770 0722 02       		.byte	0x2
 1771 0723 23       		.byte	0x23
 1772 0724 04       		.uleb128 0x4
 1773 0725 16       		.uleb128 0x16
 1774 0726 C9040000 		.4byte	.LASF116
 1775 072a 06       		.byte	0x6
 1776 072b 9F04     		.2byte	0x49f
 1777 072d 0D       		.byte	0xd
 1778 072e AB000000 		.4byte	0xab
 1779 0732 02       		.byte	0x2
 1780 0733 23       		.byte	0x23
 1781 0734 06       		.uleb128 0x6
 1782 0735 16       		.uleb128 0x16
 1783 0736 D4020000 		.4byte	.LASF117
 1784 073a 06       		.byte	0x6
 1785 073b A004     		.2byte	0x4a0
 1786 073d 11       		.byte	0x11
 1787 073e B7000000 		.4byte	0xb7
 1788 0742 02       		.byte	0x2
 1789 0743 23       		.byte	0x23
 1790 0744 08       		.uleb128 0x8
 1791 0745 16       		.uleb128 0x16
 1792 0746 D3040000 		.4byte	.LASF75
 1793 074a 06       		.byte	0x6
 1794 074b A104     		.2byte	0x4a1
 1795 074d 0D       		.byte	0xd
 1796 074e AB000000 		.4byte	0xab
 1797 0752 02       		.byte	0x2
 1798 0753 23       		.byte	0x23
 1799 0754 0A       		.uleb128 0xa
 1800 0755 16       		.uleb128 0x16
 1801 0756 13000000 		.4byte	.LASF118
 1802 075a 06       		.byte	0x6
 1803 075b A204     		.2byte	0x4a2
ARM GAS  /tmp/ccYWnEX8.s 			page 37


 1804 075d 11       		.byte	0x11
 1805 075e B7000000 		.4byte	0xb7
 1806 0762 02       		.byte	0x2
 1807 0763 23       		.byte	0x23
 1808 0764 0C       		.uleb128 0xc
 1809 0765 16       		.uleb128 0x16
 1810 0766 DD040000 		.4byte	.LASF77
 1811 076a 06       		.byte	0x6
 1812 076b A304     		.2byte	0x4a3
 1813 076d 0D       		.byte	0xd
 1814 076e AB000000 		.4byte	0xab
 1815 0772 02       		.byte	0x2
 1816 0773 23       		.byte	0x23
 1817 0774 0E       		.uleb128 0xe
 1818 0775 15       		.uleb128 0x15
 1819 0776 535200   		.ascii	"SR\000"
 1820 0779 06       		.byte	0x6
 1821 077a A404     		.2byte	0x4a4
 1822 077c 11       		.byte	0x11
 1823 077d B7000000 		.4byte	0xb7
 1824 0781 02       		.byte	0x2
 1825 0782 23       		.byte	0x23
 1826 0783 10       		.uleb128 0x10
 1827 0784 16       		.uleb128 0x16
 1828 0785 E7040000 		.4byte	.LASF79
 1829 0789 06       		.byte	0x6
 1830 078a A504     		.2byte	0x4a5
 1831 078c 0D       		.byte	0xd
 1832 078d AB000000 		.4byte	0xab
 1833 0791 02       		.byte	0x2
 1834 0792 23       		.byte	0x23
 1835 0793 12       		.uleb128 0x12
 1836 0794 15       		.uleb128 0x15
 1837 0795 45475200 		.ascii	"EGR\000"
 1838 0799 06       		.byte	0x6
 1839 079a A604     		.2byte	0x4a6
 1840 079c 11       		.byte	0x11
 1841 079d B7000000 		.4byte	0xb7
 1842 07a1 02       		.byte	0x2
 1843 07a2 23       		.byte	0x23
 1844 07a3 14       		.uleb128 0x14
 1845 07a4 16       		.uleb128 0x16
 1846 07a5 F1040000 		.4byte	.LASF80
 1847 07a9 06       		.byte	0x6
 1848 07aa A704     		.2byte	0x4a7
 1849 07ac 0D       		.byte	0xd
 1850 07ad AB000000 		.4byte	0xab
 1851 07b1 02       		.byte	0x2
 1852 07b2 23       		.byte	0x23
 1853 07b3 16       		.uleb128 0x16
 1854 07b4 16       		.uleb128 0x16
 1855 07b5 AD000000 		.4byte	.LASF119
 1856 07b9 06       		.byte	0x6
 1857 07ba A804     		.2byte	0x4a8
 1858 07bc 11       		.byte	0x11
 1859 07bd B7000000 		.4byte	0xb7
 1860 07c1 02       		.byte	0x2
ARM GAS  /tmp/ccYWnEX8.s 			page 38


 1861 07c2 23       		.byte	0x23
 1862 07c3 18       		.uleb128 0x18
 1863 07c4 16       		.uleb128 0x16
 1864 07c5 FB040000 		.4byte	.LASF120
 1865 07c9 06       		.byte	0x6
 1866 07ca A904     		.2byte	0x4a9
 1867 07cc 0D       		.byte	0xd
 1868 07cd AB000000 		.4byte	0xab
 1869 07d1 02       		.byte	0x2
 1870 07d2 23       		.byte	0x23
 1871 07d3 1A       		.uleb128 0x1a
 1872 07d4 16       		.uleb128 0x16
 1873 07d5 B3000000 		.4byte	.LASF121
 1874 07d9 06       		.byte	0x6
 1875 07da AA04     		.2byte	0x4aa
 1876 07dc 11       		.byte	0x11
 1877 07dd B7000000 		.4byte	0xb7
 1878 07e1 02       		.byte	0x2
 1879 07e2 23       		.byte	0x23
 1880 07e3 1C       		.uleb128 0x1c
 1881 07e4 16       		.uleb128 0x16
 1882 07e5 02060000 		.4byte	.LASF122
 1883 07e9 06       		.byte	0x6
 1884 07ea AB04     		.2byte	0x4ab
 1885 07ec 0D       		.byte	0xd
 1886 07ed AB000000 		.4byte	0xab
 1887 07f1 02       		.byte	0x2
 1888 07f2 23       		.byte	0x23
 1889 07f3 1E       		.uleb128 0x1e
 1890 07f4 16       		.uleb128 0x16
 1891 07f5 B3010000 		.4byte	.LASF123
 1892 07f9 06       		.byte	0x6
 1893 07fa AC04     		.2byte	0x4ac
 1894 07fc 11       		.byte	0x11
 1895 07fd B7000000 		.4byte	0xb7
 1896 0801 02       		.byte	0x2
 1897 0802 23       		.byte	0x23
 1898 0803 20       		.uleb128 0x20
 1899 0804 16       		.uleb128 0x16
 1900 0805 05050000 		.4byte	.LASF124
 1901 0809 06       		.byte	0x6
 1902 080a AD04     		.2byte	0x4ad
 1903 080c 0D       		.byte	0xd
 1904 080d AB000000 		.4byte	0xab
 1905 0811 02       		.byte	0x2
 1906 0812 23       		.byte	0x23
 1907 0813 22       		.uleb128 0x22
 1908 0814 15       		.uleb128 0x15
 1909 0815 434E5400 		.ascii	"CNT\000"
 1910 0819 06       		.byte	0x6
 1911 081a AE04     		.2byte	0x4ae
 1912 081c 11       		.byte	0x11
 1913 081d B7000000 		.4byte	0xb7
 1914 0821 02       		.byte	0x2
 1915 0822 23       		.byte	0x23
 1916 0823 24       		.uleb128 0x24
 1917 0824 16       		.uleb128 0x16
ARM GAS  /tmp/ccYWnEX8.s 			page 39


 1918 0825 0F050000 		.4byte	.LASF125
 1919 0829 06       		.byte	0x6
 1920 082a AF04     		.2byte	0x4af
 1921 082c 0D       		.byte	0xd
 1922 082d AB000000 		.4byte	0xab
 1923 0831 02       		.byte	0x2
 1924 0832 23       		.byte	0x23
 1925 0833 26       		.uleb128 0x26
 1926 0834 15       		.uleb128 0x15
 1927 0835 50534300 		.ascii	"PSC\000"
 1928 0839 06       		.byte	0x6
 1929 083a B004     		.2byte	0x4b0
 1930 083c 11       		.byte	0x11
 1931 083d B7000000 		.4byte	0xb7
 1932 0841 02       		.byte	0x2
 1933 0842 23       		.byte	0x23
 1934 0843 28       		.uleb128 0x28
 1935 0844 16       		.uleb128 0x16
 1936 0845 26010000 		.4byte	.LASF126
 1937 0849 06       		.byte	0x6
 1938 084a B104     		.2byte	0x4b1
 1939 084c 0D       		.byte	0xd
 1940 084d AB000000 		.4byte	0xab
 1941 0851 02       		.byte	0x2
 1942 0852 23       		.byte	0x23
 1943 0853 2A       		.uleb128 0x2a
 1944 0854 15       		.uleb128 0x15
 1945 0855 41525200 		.ascii	"ARR\000"
 1946 0859 06       		.byte	0x6
 1947 085a B204     		.2byte	0x4b2
 1948 085c 11       		.byte	0x11
 1949 085d B7000000 		.4byte	0xb7
 1950 0861 02       		.byte	0x2
 1951 0862 23       		.byte	0x23
 1952 0863 2C       		.uleb128 0x2c
 1953 0864 16       		.uleb128 0x16
 1954 0865 31010000 		.4byte	.LASF127
 1955 0869 06       		.byte	0x6
 1956 086a B304     		.2byte	0x4b3
 1957 086c 0D       		.byte	0xd
 1958 086d AB000000 		.4byte	0xab
 1959 0871 02       		.byte	0x2
 1960 0872 23       		.byte	0x23
 1961 0873 2E       		.uleb128 0x2e
 1962 0874 15       		.uleb128 0x15
 1963 0875 52435200 		.ascii	"RCR\000"
 1964 0879 06       		.byte	0x6
 1965 087a B404     		.2byte	0x4b4
 1966 087c 11       		.byte	0x11
 1967 087d B7000000 		.4byte	0xb7
 1968 0881 02       		.byte	0x2
 1969 0882 23       		.byte	0x23
 1970 0883 30       		.uleb128 0x30
 1971 0884 16       		.uleb128 0x16
 1972 0885 3C010000 		.4byte	.LASF128
 1973 0889 06       		.byte	0x6
 1974 088a B504     		.2byte	0x4b5
ARM GAS  /tmp/ccYWnEX8.s 			page 40


 1975 088c 0D       		.byte	0xd
 1976 088d AB000000 		.4byte	0xab
 1977 0891 02       		.byte	0x2
 1978 0892 23       		.byte	0x23
 1979 0893 32       		.uleb128 0x32
 1980 0894 16       		.uleb128 0x16
 1981 0895 E8060000 		.4byte	.LASF129
 1982 0899 06       		.byte	0x6
 1983 089a B604     		.2byte	0x4b6
 1984 089c 11       		.byte	0x11
 1985 089d B7000000 		.4byte	0xb7
 1986 08a1 02       		.byte	0x2
 1987 08a2 23       		.byte	0x23
 1988 08a3 34       		.uleb128 0x34
 1989 08a4 16       		.uleb128 0x16
 1990 08a5 47010000 		.4byte	.LASF130
 1991 08a9 06       		.byte	0x6
 1992 08aa B704     		.2byte	0x4b7
 1993 08ac 0D       		.byte	0xd
 1994 08ad AB000000 		.4byte	0xab
 1995 08b1 02       		.byte	0x2
 1996 08b2 23       		.byte	0x23
 1997 08b3 36       		.uleb128 0x36
 1998 08b4 16       		.uleb128 0x16
 1999 08b5 64000000 		.4byte	.LASF131
 2000 08b9 06       		.byte	0x6
 2001 08ba B804     		.2byte	0x4b8
 2002 08bc 11       		.byte	0x11
 2003 08bd B7000000 		.4byte	0xb7
 2004 08c1 02       		.byte	0x2
 2005 08c2 23       		.byte	0x23
 2006 08c3 38       		.uleb128 0x38
 2007 08c4 16       		.uleb128 0x16
 2008 08c5 52010000 		.4byte	.LASF132
 2009 08c9 06       		.byte	0x6
 2010 08ca B904     		.2byte	0x4b9
 2011 08cc 0D       		.byte	0xd
 2012 08cd AB000000 		.4byte	0xab
 2013 08d1 02       		.byte	0x2
 2014 08d2 23       		.byte	0x23
 2015 08d3 3A       		.uleb128 0x3a
 2016 08d4 16       		.uleb128 0x16
 2017 08d5 F7060000 		.4byte	.LASF133
 2018 08d9 06       		.byte	0x6
 2019 08da BA04     		.2byte	0x4ba
 2020 08dc 11       		.byte	0x11
 2021 08dd B7000000 		.4byte	0xb7
 2022 08e1 02       		.byte	0x2
 2023 08e2 23       		.byte	0x23
 2024 08e3 3C       		.uleb128 0x3c
 2025 08e4 16       		.uleb128 0x16
 2026 08e5 5D010000 		.4byte	.LASF134
 2027 08e9 06       		.byte	0x6
 2028 08ea BB04     		.2byte	0x4bb
 2029 08ec 0D       		.byte	0xd
 2030 08ed AB000000 		.4byte	0xab
 2031 08f1 02       		.byte	0x2
ARM GAS  /tmp/ccYWnEX8.s 			page 41


 2032 08f2 23       		.byte	0x23
 2033 08f3 3E       		.uleb128 0x3e
 2034 08f4 16       		.uleb128 0x16
 2035 08f5 FC060000 		.4byte	.LASF135
 2036 08f9 06       		.byte	0x6
 2037 08fa BC04     		.2byte	0x4bc
 2038 08fc 11       		.byte	0x11
 2039 08fd B7000000 		.4byte	0xb7
 2040 0901 02       		.byte	0x2
 2041 0902 23       		.byte	0x23
 2042 0903 40       		.uleb128 0x40
 2043 0904 16       		.uleb128 0x16
 2044 0905 68010000 		.4byte	.LASF136
 2045 0909 06       		.byte	0x6
 2046 090a BD04     		.2byte	0x4bd
 2047 090c 0D       		.byte	0xd
 2048 090d AB000000 		.4byte	0xab
 2049 0911 02       		.byte	0x2
 2050 0912 23       		.byte	0x23
 2051 0913 42       		.uleb128 0x42
 2052 0914 16       		.uleb128 0x16
 2053 0915 62020000 		.4byte	.LASF137
 2054 0919 06       		.byte	0x6
 2055 091a BE04     		.2byte	0x4be
 2056 091c 11       		.byte	0x11
 2057 091d B7000000 		.4byte	0xb7
 2058 0921 02       		.byte	0x2
 2059 0922 23       		.byte	0x23
 2060 0923 44       		.uleb128 0x44
 2061 0924 16       		.uleb128 0x16
 2062 0925 73010000 		.4byte	.LASF138
 2063 0929 06       		.byte	0x6
 2064 092a BF04     		.2byte	0x4bf
 2065 092c 0D       		.byte	0xd
 2066 092d AB000000 		.4byte	0xab
 2067 0931 02       		.byte	0x2
 2068 0932 23       		.byte	0x23
 2069 0933 46       		.uleb128 0x46
 2070 0934 15       		.uleb128 0x15
 2071 0935 44435200 		.ascii	"DCR\000"
 2072 0939 06       		.byte	0x6
 2073 093a C004     		.2byte	0x4c0
 2074 093c 11       		.byte	0x11
 2075 093d B7000000 		.4byte	0xb7
 2076 0941 02       		.byte	0x2
 2077 0942 23       		.byte	0x23
 2078 0943 48       		.uleb128 0x48
 2079 0944 16       		.uleb128 0x16
 2080 0945 7E010000 		.4byte	.LASF139
 2081 0949 06       		.byte	0x6
 2082 094a C104     		.2byte	0x4c1
 2083 094c 0D       		.byte	0xd
 2084 094d AB000000 		.4byte	0xab
 2085 0951 02       		.byte	0x2
 2086 0952 23       		.byte	0x23
 2087 0953 4A       		.uleb128 0x4a
 2088 0954 16       		.uleb128 0x16
ARM GAS  /tmp/ccYWnEX8.s 			page 42


 2089 0955 5F060000 		.4byte	.LASF140
 2090 0959 06       		.byte	0x6
 2091 095a C204     		.2byte	0x4c2
 2092 095c 11       		.byte	0x11
 2093 095d B7000000 		.4byte	0xb7
 2094 0961 02       		.byte	0x2
 2095 0962 23       		.byte	0x23
 2096 0963 4C       		.uleb128 0x4c
 2097 0964 16       		.uleb128 0x16
 2098 0965 89010000 		.4byte	.LASF141
 2099 0969 06       		.byte	0x6
 2100 096a C304     		.2byte	0x4c3
 2101 096c 0D       		.byte	0xd
 2102 096d AB000000 		.4byte	0xab
 2103 0971 02       		.byte	0x2
 2104 0972 23       		.byte	0x23
 2105 0973 4E       		.uleb128 0x4e
 2106 0974 00       		.byte	0
 2107 0975 0C       		.uleb128 0xc
 2108 0976 41000000 		.4byte	.LASF142
 2109 097a 06       		.byte	0x6
 2110 097b C404     		.2byte	0x4c4
 2111 097d 03       		.byte	0x3
 2112 097e EB060000 		.4byte	0x6eb
 2113 0982 17       		.uleb128 0x17
 2114 0983 01070000 		.4byte	.LASF163
 2115 0987 01       		.byte	0x1
 2116 0988 19       		.byte	0x19
 2117 0989 16       		.byte	0x16
 2118 098a D6000000 		.4byte	0xd6
 2119 098e 18       		.uleb128 0x18
 2120 098f 01       		.byte	0x1
 2121 0990 72070000 		.4byte	.LASF164
 2122 0994 01       		.byte	0x1
 2123 0995 3D       		.byte	0x3d
 2124 0996 05       		.byte	0x5
 2125 0997 01       		.byte	0x1
 2126 0998 29000000 		.4byte	0x29
 2127 099c 00000000 		.4byte	.LFB43
 2128 09a0 4C000000 		.4byte	.LFE43
 2129 09a4 00000000 		.4byte	.LLST7
 2130 09a8 01       		.byte	0x1
 2131 09a9 530A0000 		.4byte	0xa53
 2132 09ad 19       		.uleb128 0x19
 2133 09ae 10000000 		.4byte	.LVL12
 2134 09b2 C10B0000 		.4byte	0xbc1
 2135 09b6 CC090000 		.4byte	0x9cc
 2136 09ba 1A       		.uleb128 0x1a
 2137 09bb 01       		.byte	0x1
 2138 09bc 50       		.byte	0x50
 2139 09bd 01       		.byte	0x1
 2140 09be 35       		.byte	0x35
 2141 09bf 1A       		.uleb128 0x1a
 2142 09c0 01       		.byte	0x1
 2143 09c1 51       		.byte	0x51
 2144 09c2 02       		.byte	0x2
 2145 09c3 75       		.byte	0x75
ARM GAS  /tmp/ccYWnEX8.s 			page 43


 2146 09c4 00       		.sleb128 0
 2147 09c5 1A       		.uleb128 0x1a
 2148 09c6 01       		.byte	0x1
 2149 09c7 52       		.byte	0x52
 2150 09c8 02       		.byte	0x2
 2151 09c9 74       		.byte	0x74
 2152 09ca 00       		.sleb128 0
 2153 09cb 00       		.byte	0
 2154 09cc 1B       		.uleb128 0x1b
 2155 09cd 14000000 		.4byte	.LVL13
 2156 09d1 960B0000 		.4byte	0xb96
 2157 09d5 19       		.uleb128 0x19
 2158 09d6 24000000 		.4byte	.LVL14
 2159 09da D00B0000 		.4byte	0xbd0
 2160 09de 0F0A0000 		.4byte	0xa0f
 2161 09e2 1A       		.uleb128 0x1a
 2162 09e3 01       		.byte	0x1
 2163 09e4 50       		.byte	0x50
 2164 09e5 05       		.byte	0x5
 2165 09e6 03       		.byte	0x3
 2166 09e7 00000000 		.4byte	task1
 2167 09eb 1A       		.uleb128 0x1a
 2168 09ec 01       		.byte	0x1
 2169 09ed 51       		.byte	0x51
 2170 09ee 05       		.byte	0x5
 2171 09ef 03       		.byte	0x3
 2172 09f0 11000000 		.4byte	.LC1
 2173 09f4 1A       		.uleb128 0x1a
 2174 09f5 01       		.byte	0x1
 2175 09f6 52       		.byte	0x52
 2176 09f7 02       		.byte	0x2
 2177 09f8 08       		.byte	0x8
 2178 09f9 64       		.byte	0x64
 2179 09fa 1A       		.uleb128 0x1a
 2180 09fb 01       		.byte	0x1
 2181 09fc 53       		.byte	0x53
 2182 09fd 02       		.byte	0x2
 2183 09fe 74       		.byte	0x74
 2184 09ff 00       		.sleb128 0
 2185 0a00 1A       		.uleb128 0x1a
 2186 0a01 02       		.byte	0x2
 2187 0a02 7D       		.byte	0x7d
 2188 0a03 00       		.sleb128 0
 2189 0a04 02       		.byte	0x2
 2190 0a05 75       		.byte	0x75
 2191 0a06 00       		.sleb128 0
 2192 0a07 1A       		.uleb128 0x1a
 2193 0a08 02       		.byte	0x2
 2194 0a09 7D       		.byte	0x7d
 2195 0a0a 04       		.sleb128 4
 2196 0a0b 02       		.byte	0x2
 2197 0a0c 74       		.byte	0x74
 2198 0a0d 00       		.sleb128 0
 2199 0a0e 00       		.byte	0
 2200 0a0f 19       		.uleb128 0x19
 2201 0a10 34000000 		.4byte	.LVL15
 2202 0a14 D00B0000 		.4byte	0xbd0
ARM GAS  /tmp/ccYWnEX8.s 			page 44


 2203 0a18 490A0000 		.4byte	0xa49
 2204 0a1c 1A       		.uleb128 0x1a
 2205 0a1d 01       		.byte	0x1
 2206 0a1e 50       		.byte	0x50
 2207 0a1f 05       		.byte	0x5
 2208 0a20 03       		.byte	0x3
 2209 0a21 00000000 		.4byte	task2
 2210 0a25 1A       		.uleb128 0x1a
 2211 0a26 01       		.byte	0x1
 2212 0a27 51       		.byte	0x51
 2213 0a28 05       		.byte	0x5
 2214 0a29 03       		.byte	0x3
 2215 0a2a 1A000000 		.4byte	.LC2
 2216 0a2e 1A       		.uleb128 0x1a
 2217 0a2f 01       		.byte	0x1
 2218 0a30 52       		.byte	0x52
 2219 0a31 02       		.byte	0x2
 2220 0a32 08       		.byte	0x8
 2221 0a33 64       		.byte	0x64
 2222 0a34 1A       		.uleb128 0x1a
 2223 0a35 01       		.byte	0x1
 2224 0a36 53       		.byte	0x53
 2225 0a37 02       		.byte	0x2
 2226 0a38 74       		.byte	0x74
 2227 0a39 00       		.sleb128 0
 2228 0a3a 1A       		.uleb128 0x1a
 2229 0a3b 02       		.byte	0x2
 2230 0a3c 7D       		.byte	0x7d
 2231 0a3d 00       		.sleb128 0
 2232 0a3e 02       		.byte	0x2
 2233 0a3f 75       		.byte	0x75
 2234 0a40 00       		.sleb128 0
 2235 0a41 1A       		.uleb128 0x1a
 2236 0a42 02       		.byte	0x2
 2237 0a43 7D       		.byte	0x7d
 2238 0a44 04       		.sleb128 4
 2239 0a45 02       		.byte	0x2
 2240 0a46 74       		.byte	0x74
 2241 0a47 00       		.sleb128 0
 2242 0a48 00       		.byte	0
 2243 0a49 1B       		.uleb128 0x1b
 2244 0a4a 38000000 		.4byte	.LVL16
 2245 0a4e DF0B0000 		.4byte	0xbdf
 2246 0a52 00       		.byte	0
 2247 0a53 1C       		.uleb128 0x1c
 2248 0a54 BB020000 		.4byte	.LASF143
 2249 0a58 01       		.byte	0x1
 2250 0a59 2E       		.byte	0x2e
 2251 0a5a 0D       		.byte	0xd
 2252 0a5b 01       		.byte	0x1
 2253 0a5c 00000000 		.4byte	.LFB41
 2254 0a60 30000000 		.4byte	.LFE41
 2255 0a64 20000000 		.4byte	.LLST0
 2256 0a68 01       		.byte	0x1
 2257 0a69 920A0000 		.4byte	0xa92
 2258 0a6d 1D       		.uleb128 0x1d
 2259 0a6e 6D070000 		.4byte	.LASF145
ARM GAS  /tmp/ccYWnEX8.s 			page 45


 2260 0a72 01       		.byte	0x1
 2261 0a73 2E       		.byte	0x2e
 2262 0a74 19       		.byte	0x19
 2263 0a75 CD000000 		.4byte	0xcd
 2264 0a79 44000000 		.4byte	.LLST1
 2265 0a7d 40000000 		.4byte	.LVUS1
 2266 0a81 1E       		.uleb128 0x1e
 2267 0a82 24000000 		.4byte	.LVL2
 2268 0a86 EE0B0000 		.4byte	0xbee
 2269 0a8a 1A       		.uleb128 0x1a
 2270 0a8b 01       		.byte	0x1
 2271 0a8c 50       		.byte	0x50
 2272 0a8d 02       		.byte	0x2
 2273 0a8e 08       		.byte	0x8
 2274 0a8f 32       		.byte	0x32
 2275 0a90 00       		.byte	0
 2276 0a91 00       		.byte	0
 2277 0a92 1C       		.uleb128 0x1c
 2278 0a93 B5020000 		.4byte	.LASF144
 2279 0a97 01       		.byte	0x1
 2280 0a98 1B       		.byte	0x1b
 2281 0a99 0D       		.byte	0xd
 2282 0a9a 01       		.byte	0x1
 2283 0a9b 30000000 		.4byte	.LFB40
 2284 0a9f 98000000 		.4byte	.LFE40
 2285 0aa3 65000000 		.4byte	.LLST2
 2286 0aa7 01       		.byte	0x1
 2287 0aa8 FA0A0000 		.4byte	0xafa
 2288 0aac 1D       		.uleb128 0x1d
 2289 0aad 6D070000 		.4byte	.LASF145
 2290 0ab1 01       		.byte	0x1
 2291 0ab2 1B       		.byte	0x1b
 2292 0ab3 19       		.byte	0x19
 2293 0ab4 CD000000 		.4byte	0xcd
 2294 0ab8 89000000 		.4byte	.LLST3
 2295 0abc 85000000 		.4byte	.LVUS3
 2296 0ac0 1B       		.uleb128 0x1b
 2297 0ac1 76000000 		.4byte	.LVL4
 2298 0ac5 FD0B0000 		.4byte	0xbfd
 2299 0ac9 19       		.uleb128 0x19
 2300 0aca 7C000000 		.4byte	.LVL5
 2301 0ace 0B0C0000 		.4byte	0xc0b
 2302 0ad2 DC0A0000 		.4byte	0xadc
 2303 0ad6 1A       		.uleb128 0x1a
 2304 0ad7 01       		.byte	0x1
 2305 0ad8 50       		.byte	0x50
 2306 0ad9 01       		.byte	0x1
 2307 0ada 3C       		.byte	0x3c
 2308 0adb 00       		.byte	0
 2309 0adc 1E       		.uleb128 0x1e
 2310 0add 86000000 		.4byte	.LVL6
 2311 0ae1 190C0000 		.4byte	0xc19
 2312 0ae5 1A       		.uleb128 0x1a
 2313 0ae6 01       		.byte	0x1
 2314 0ae7 50       		.byte	0x50
 2315 0ae8 05       		.byte	0x5
 2316 0ae9 03       		.byte	0x3
ARM GAS  /tmp/ccYWnEX8.s 			page 46


 2317 0aea 00000000 		.4byte	.LC0
 2318 0aee 1A       		.uleb128 0x1a
 2319 0aef 01       		.byte	0x1
 2320 0af0 51       		.byte	0x51
 2321 0af1 01       		.byte	0x1
 2322 0af2 30       		.byte	0x30
 2323 0af3 1A       		.uleb128 0x1a
 2324 0af4 01       		.byte	0x1
 2325 0af5 52       		.byte	0x52
 2326 0af6 01       		.byte	0x1
 2327 0af7 30       		.byte	0x30
 2328 0af8 00       		.byte	0
 2329 0af9 00       		.byte	0
 2330 0afa 1F       		.uleb128 0x1f
 2331 0afb 01       		.byte	0x1
 2332 0afc DD050000 		.4byte	.LASF147
 2333 0b00 02       		.byte	0x2
 2334 0b01 7C       		.byte	0x7c
 2335 0b02 06       		.byte	0x6
 2336 0b03 01       		.byte	0x1
 2337 0b04 08020000 		.4byte	.LFB39
 2338 0b08 24020000 		.4byte	.LFE39
 2339 0b0c 02       		.byte	0x2
 2340 0b0d 7D       		.byte	0x7d
 2341 0b0e 00       		.sleb128 0
 2342 0b0f 01       		.byte	0x1
 2343 0b10 290B0000 		.4byte	0xb29
 2344 0b14 1D       		.uleb128 0x1d
 2345 0b15 B1030000 		.4byte	.LASF146
 2346 0b19 02       		.byte	0x2
 2347 0b1a 7C       		.byte	0x7c
 2348 0b1b 22       		.byte	0x22
 2349 0b1c 33020000 		.4byte	0x233
 2350 0b20 AE000000 		.4byte	.LLST6
 2351 0b24 AA000000 		.4byte	.LVUS6
 2352 0b28 00       		.byte	0
 2353 0b29 1F       		.uleb128 0x1f
 2354 0b2a 01       		.byte	0x1
 2355 0b2b 5A040000 		.4byte	.LASF148
 2356 0b2f 02       		.byte	0x2
 2357 0b30 74       		.byte	0x74
 2358 0b31 06       		.byte	0x6
 2359 0b32 01       		.byte	0x1
 2360 0b33 F0010000 		.4byte	.LFB38
 2361 0b37 08020000 		.4byte	.LFE38
 2362 0b3b 02       		.byte	0x2
 2363 0b3c 7D       		.byte	0x7d
 2364 0b3d 00       		.sleb128 0
 2365 0b3e 01       		.byte	0x1
 2366 0b3f 580B0000 		.4byte	0xb58
 2367 0b43 1D       		.uleb128 0x1d
 2368 0b44 B1030000 		.4byte	.LASF146
 2369 0b48 02       		.byte	0x2
 2370 0b49 74       		.byte	0x74
 2371 0b4a 21       		.byte	0x21
 2372 0b4b 33020000 		.4byte	0x233
 2373 0b4f D3000000 		.4byte	.LLST5
ARM GAS  /tmp/ccYWnEX8.s 			page 47


 2374 0b53 CF000000 		.4byte	.LVUS5
 2375 0b57 00       		.byte	0
 2376 0b58 20       		.uleb128 0x20
 2377 0b59 01       		.byte	0x1
 2378 0b5a 29020000 		.4byte	.LASF150
 2379 0b5e 02       		.byte	0x2
 2380 0b5f 67       		.byte	0x67
 2381 0b60 06       		.byte	0x6
 2382 0b61 01       		.byte	0x1
 2383 0b62 C8010000 		.4byte	.LFB37
 2384 0b66 F0010000 		.4byte	.LFE37
 2385 0b6a 02       		.byte	0x2
 2386 0b6b 7D       		.byte	0x7d
 2387 0b6c 00       		.sleb128 0
 2388 0b6d 01       		.byte	0x1
 2389 0b6e 21       		.uleb128 0x21
 2390 0b6f 01       		.byte	0x1
 2391 0b70 4A040000 		.4byte	.LASF149
 2392 0b74 02       		.byte	0x2
 2393 0b75 60       		.byte	0x60
 2394 0b76 06       		.byte	0x6
 2395 0b77 01       		.byte	0x1
 2396 0b78 98010000 		.4byte	.LFB36
 2397 0b7c C8010000 		.4byte	.LFE36
 2398 0b80 F4000000 		.4byte	.LLST4
 2399 0b84 01       		.byte	0x1
 2400 0b85 960B0000 		.4byte	0xb96
 2401 0b89 22       		.uleb128 0x22
 2402 0b8a 5400     		.ascii	"T\000"
 2403 0b8c 02       		.byte	0x2
 2404 0b8d 60       		.byte	0x60
 2405 0b8e 17       		.byte	0x17
 2406 0b8f 8C030000 		.4byte	0x38c
 2407 0b93 01       		.byte	0x1
 2408 0b94 50       		.byte	0x50
 2409 0b95 00       		.byte	0
 2410 0b96 20       		.uleb128 0x20
 2411 0b97 01       		.byte	0x1
 2412 0b98 29050000 		.4byte	.LASF151
 2413 0b9c 02       		.byte	0x2
 2414 0b9d 3E       		.byte	0x3e
 2415 0b9e 06       		.byte	0x6
 2416 0b9f 01       		.byte	0x1
 2417 0ba0 24010000 		.4byte	.LFB35
 2418 0ba4 98010000 		.4byte	.LFE35
 2419 0ba8 02       		.byte	0x2
 2420 0ba9 7D       		.byte	0x7d
 2421 0baa 00       		.sleb128 0
 2422 0bab 01       		.byte	0x1
 2423 0bac 23       		.uleb128 0x23
 2424 0bad 01       		.byte	0x1
 2425 0bae BB050000 		.4byte	.LASF165
 2426 0bb2 02       		.byte	0x2
 2427 0bb3 0E       		.byte	0xe
 2428 0bb4 06       		.byte	0x6
 2429 0bb5 98000000 		.4byte	.LFB34
 2430 0bb9 24010000 		.4byte	.LFE34
ARM GAS  /tmp/ccYWnEX8.s 			page 48


 2431 0bbd 02       		.byte	0x2
 2432 0bbe 7D       		.byte	0x7d
 2433 0bbf 00       		.sleb128 0
 2434 0bc0 01       		.byte	0x1
 2435 0bc1 24       		.uleb128 0x24
 2436 0bc2 01       		.byte	0x1
 2437 0bc3 01       		.byte	0x1
 2438 0bc4 A7050000 		.4byte	.LASF152
 2439 0bc8 A7050000 		.4byte	.LASF152
 2440 0bcc 05       		.byte	0x5
 2441 0bcd D805     		.2byte	0x5d8
 2442 0bcf 10       		.byte	0x10
 2443 0bd0 24       		.uleb128 0x24
 2444 0bd1 01       		.byte	0x1
 2445 0bd2 01       		.byte	0x1
 2446 0bd3 39040000 		.4byte	.LASF153
 2447 0bd7 39040000 		.4byte	.LASF153
 2448 0bdb 08       		.byte	0x8
 2449 0bdc 4A01     		.2byte	0x14a
 2450 0bde 0D       		.byte	0xd
 2451 0bdf 24       		.uleb128 0x24
 2452 0be0 01       		.byte	0x1
 2453 0be1 01       		.byte	0x1
 2454 0be2 49020000 		.4byte	.LASF154
 2455 0be6 49020000 		.4byte	.LASF154
 2456 0bea 08       		.byte	0x8
 2457 0beb 9704     		.2byte	0x497
 2458 0bed 06       		.byte	0x6
 2459 0bee 24       		.uleb128 0x24
 2460 0bef 01       		.byte	0x1
 2461 0bf0 01       		.byte	0x1
 2462 0bf1 FB000000 		.4byte	.LASF155
 2463 0bf5 FB000000 		.4byte	.LASF155
 2464 0bf9 08       		.byte	0x8
 2465 0bfa F602     		.2byte	0x2f6
 2466 0bfc 06       		.byte	0x6
 2467 0bfd 25       		.uleb128 0x25
 2468 0bfe 01       		.byte	0x1
 2469 0bff 01       		.byte	0x1
 2470 0c00 D2060000 		.4byte	.LASF156
 2471 0c04 D2060000 		.4byte	.LASF156
 2472 0c08 09       		.byte	0x9
 2473 0c09 39       		.byte	0x39
 2474 0c0a 06       		.byte	0x6
 2475 0c0b 25       		.uleb128 0x25
 2476 0c0c 01       		.byte	0x1
 2477 0c0d 01       		.byte	0x1
 2478 0c0e 72060000 		.4byte	.LASF157
 2479 0c12 72060000 		.4byte	.LASF157
 2480 0c16 09       		.byte	0x9
 2481 0c17 38       		.byte	0x38
 2482 0c18 06       		.byte	0x6
 2483 0c19 25       		.uleb128 0x25
 2484 0c1a 01       		.byte	0x1
 2485 0c1b 01       		.byte	0x1
 2486 0c1c F1000000 		.4byte	.LASF158
 2487 0c20 F1000000 		.4byte	.LASF158
ARM GAS  /tmp/ccYWnEX8.s 			page 49


 2488 0c24 09       		.byte	0x9
 2489 0c25 36       		.byte	0x36
 2490 0c26 06       		.byte	0x6
 2491 0c27 00       		.byte	0
 2492              		.section	.debug_abbrev,"",%progbits
 2493              	.Ldebug_abbrev0:
 2494 0000 01       		.uleb128 0x1
 2495 0001 11       		.uleb128 0x11
 2496 0002 01       		.byte	0x1
 2497 0003 25       		.uleb128 0x25
 2498 0004 0E       		.uleb128 0xe
 2499 0005 13       		.uleb128 0x13
 2500 0006 0B       		.uleb128 0xb
 2501 0007 03       		.uleb128 0x3
 2502 0008 0E       		.uleb128 0xe
 2503 0009 1B       		.uleb128 0x1b
 2504 000a 0E       		.uleb128 0xe
 2505 000b 55       		.uleb128 0x55
 2506 000c 06       		.uleb128 0x6
 2507 000d 11       		.uleb128 0x11
 2508 000e 01       		.uleb128 0x1
 2509 000f 52       		.uleb128 0x52
 2510 0010 01       		.uleb128 0x1
 2511 0011 10       		.uleb128 0x10
 2512 0012 06       		.uleb128 0x6
 2513 0013 00       		.byte	0
 2514 0014 00       		.byte	0
 2515 0015 02       		.uleb128 0x2
 2516 0016 24       		.uleb128 0x24
 2517 0017 00       		.byte	0
 2518 0018 0B       		.uleb128 0xb
 2519 0019 0B       		.uleb128 0xb
 2520 001a 3E       		.uleb128 0x3e
 2521 001b 0B       		.uleb128 0xb
 2522 001c 03       		.uleb128 0x3
 2523 001d 08       		.uleb128 0x8
 2524 001e 00       		.byte	0
 2525 001f 00       		.byte	0
 2526 0020 03       		.uleb128 0x3
 2527 0021 24       		.uleb128 0x24
 2528 0022 00       		.byte	0
 2529 0023 0B       		.uleb128 0xb
 2530 0024 0B       		.uleb128 0xb
 2531 0025 3E       		.uleb128 0x3e
 2532 0026 0B       		.uleb128 0xb
 2533 0027 03       		.uleb128 0x3
 2534 0028 0E       		.uleb128 0xe
 2535 0029 00       		.byte	0
 2536 002a 00       		.byte	0
 2537 002b 04       		.uleb128 0x4
 2538 002c 16       		.uleb128 0x16
 2539 002d 00       		.byte	0
 2540 002e 03       		.uleb128 0x3
 2541 002f 0E       		.uleb128 0xe
 2542 0030 3A       		.uleb128 0x3a
 2543 0031 0B       		.uleb128 0xb
 2544 0032 3B       		.uleb128 0x3b
ARM GAS  /tmp/ccYWnEX8.s 			page 50


 2545 0033 0B       		.uleb128 0xb
 2546 0034 39       		.uleb128 0x39
 2547 0035 0B       		.uleb128 0xb
 2548 0036 49       		.uleb128 0x49
 2549 0037 13       		.uleb128 0x13
 2550 0038 00       		.byte	0
 2551 0039 00       		.byte	0
 2552 003a 05       		.uleb128 0x5
 2553 003b 35       		.uleb128 0x35
 2554 003c 00       		.byte	0
 2555 003d 49       		.uleb128 0x49
 2556 003e 13       		.uleb128 0x13
 2557 003f 00       		.byte	0
 2558 0040 00       		.byte	0
 2559 0041 06       		.uleb128 0x6
 2560 0042 0F       		.uleb128 0xf
 2561 0043 00       		.byte	0
 2562 0044 0B       		.uleb128 0xb
 2563 0045 0B       		.uleb128 0xb
 2564 0046 00       		.byte	0
 2565 0047 00       		.byte	0
 2566 0048 07       		.uleb128 0x7
 2567 0049 0F       		.uleb128 0xf
 2568 004a 00       		.byte	0
 2569 004b 0B       		.uleb128 0xb
 2570 004c 0B       		.uleb128 0xb
 2571 004d 49       		.uleb128 0x49
 2572 004e 13       		.uleb128 0x13
 2573 004f 00       		.byte	0
 2574 0050 00       		.byte	0
 2575 0051 08       		.uleb128 0x8
 2576 0052 13       		.uleb128 0x13
 2577 0053 00       		.byte	0
 2578 0054 03       		.uleb128 0x3
 2579 0055 0E       		.uleb128 0xe
 2580 0056 3C       		.uleb128 0x3c
 2581 0057 0C       		.uleb128 0xc
 2582 0058 00       		.byte	0
 2583 0059 00       		.byte	0
 2584 005a 09       		.uleb128 0x9
 2585 005b 04       		.uleb128 0x4
 2586 005c 01       		.byte	0x1
 2587 005d 03       		.uleb128 0x3
 2588 005e 0E       		.uleb128 0xe
 2589 005f 3E       		.uleb128 0x3e
 2590 0060 0B       		.uleb128 0xb
 2591 0061 0B       		.uleb128 0xb
 2592 0062 0B       		.uleb128 0xb
 2593 0063 49       		.uleb128 0x49
 2594 0064 13       		.uleb128 0x13
 2595 0065 3A       		.uleb128 0x3a
 2596 0066 0B       		.uleb128 0xb
 2597 0067 3B       		.uleb128 0x3b
 2598 0068 0B       		.uleb128 0xb
 2599 0069 39       		.uleb128 0x39
 2600 006a 0B       		.uleb128 0xb
 2601 006b 01       		.uleb128 0x1
ARM GAS  /tmp/ccYWnEX8.s 			page 51


 2602 006c 13       		.uleb128 0x13
 2603 006d 00       		.byte	0
 2604 006e 00       		.byte	0
 2605 006f 0A       		.uleb128 0xa
 2606 0070 28       		.uleb128 0x28
 2607 0071 00       		.byte	0
 2608 0072 03       		.uleb128 0x3
 2609 0073 0E       		.uleb128 0xe
 2610 0074 1C       		.uleb128 0x1c
 2611 0075 0D       		.uleb128 0xd
 2612 0076 00       		.byte	0
 2613 0077 00       		.byte	0
 2614 0078 0B       		.uleb128 0xb
 2615 0079 28       		.uleb128 0x28
 2616 007a 00       		.byte	0
 2617 007b 03       		.uleb128 0x3
 2618 007c 0E       		.uleb128 0xe
 2619 007d 1C       		.uleb128 0x1c
 2620 007e 0B       		.uleb128 0xb
 2621 007f 00       		.byte	0
 2622 0080 00       		.byte	0
 2623 0081 0C       		.uleb128 0xc
 2624 0082 16       		.uleb128 0x16
 2625 0083 00       		.byte	0
 2626 0084 03       		.uleb128 0x3
 2627 0085 0E       		.uleb128 0xe
 2628 0086 3A       		.uleb128 0x3a
 2629 0087 0B       		.uleb128 0xb
 2630 0088 3B       		.uleb128 0x3b
 2631 0089 05       		.uleb128 0x5
 2632 008a 39       		.uleb128 0x39
 2633 008b 0B       		.uleb128 0xb
 2634 008c 49       		.uleb128 0x49
 2635 008d 13       		.uleb128 0x13
 2636 008e 00       		.byte	0
 2637 008f 00       		.byte	0
 2638 0090 0D       		.uleb128 0xd
 2639 0091 13       		.uleb128 0x13
 2640 0092 01       		.byte	0x1
 2641 0093 0B       		.uleb128 0xb
 2642 0094 05       		.uleb128 0x5
 2643 0095 3A       		.uleb128 0x3a
 2644 0096 0B       		.uleb128 0xb
 2645 0097 3B       		.uleb128 0x3b
 2646 0098 0B       		.uleb128 0xb
 2647 0099 39       		.uleb128 0x39
 2648 009a 0B       		.uleb128 0xb
 2649 009b 01       		.uleb128 0x1
 2650 009c 13       		.uleb128 0x13
 2651 009d 00       		.byte	0
 2652 009e 00       		.byte	0
 2653 009f 0E       		.uleb128 0xe
 2654 00a0 0D       		.uleb128 0xd
 2655 00a1 00       		.byte	0
 2656 00a2 03       		.uleb128 0x3
 2657 00a3 0E       		.uleb128 0xe
 2658 00a4 3A       		.uleb128 0x3a
ARM GAS  /tmp/ccYWnEX8.s 			page 52


 2659 00a5 0B       		.uleb128 0xb
 2660 00a6 3B       		.uleb128 0x3b
 2661 00a7 0B       		.uleb128 0xb
 2662 00a8 39       		.uleb128 0x39
 2663 00a9 0B       		.uleb128 0xb
 2664 00aa 49       		.uleb128 0x49
 2665 00ab 13       		.uleb128 0x13
 2666 00ac 38       		.uleb128 0x38
 2667 00ad 0A       		.uleb128 0xa
 2668 00ae 00       		.byte	0
 2669 00af 00       		.byte	0
 2670 00b0 0F       		.uleb128 0xf
 2671 00b1 0D       		.uleb128 0xd
 2672 00b2 00       		.byte	0
 2673 00b3 03       		.uleb128 0x3
 2674 00b4 08       		.uleb128 0x8
 2675 00b5 3A       		.uleb128 0x3a
 2676 00b6 0B       		.uleb128 0xb
 2677 00b7 3B       		.uleb128 0x3b
 2678 00b8 0B       		.uleb128 0xb
 2679 00b9 39       		.uleb128 0x39
 2680 00ba 0B       		.uleb128 0xb
 2681 00bb 49       		.uleb128 0x49
 2682 00bc 13       		.uleb128 0x13
 2683 00bd 38       		.uleb128 0x38
 2684 00be 0A       		.uleb128 0xa
 2685 00bf 00       		.byte	0
 2686 00c0 00       		.byte	0
 2687 00c1 10       		.uleb128 0x10
 2688 00c2 01       		.uleb128 0x1
 2689 00c3 01       		.byte	0x1
 2690 00c4 49       		.uleb128 0x49
 2691 00c5 13       		.uleb128 0x13
 2692 00c6 01       		.uleb128 0x1
 2693 00c7 13       		.uleb128 0x13
 2694 00c8 00       		.byte	0
 2695 00c9 00       		.byte	0
 2696 00ca 11       		.uleb128 0x11
 2697 00cb 21       		.uleb128 0x21
 2698 00cc 00       		.byte	0
 2699 00cd 49       		.uleb128 0x49
 2700 00ce 13       		.uleb128 0x13
 2701 00cf 2F       		.uleb128 0x2f
 2702 00d0 0B       		.uleb128 0xb
 2703 00d1 00       		.byte	0
 2704 00d2 00       		.byte	0
 2705 00d3 12       		.uleb128 0x12
 2706 00d4 21       		.uleb128 0x21
 2707 00d5 00       		.byte	0
 2708 00d6 49       		.uleb128 0x49
 2709 00d7 13       		.uleb128 0x13
 2710 00d8 2F       		.uleb128 0x2f
 2711 00d9 05       		.uleb128 0x5
 2712 00da 00       		.byte	0
 2713 00db 00       		.byte	0
 2714 00dc 13       		.uleb128 0x13
 2715 00dd 16       		.uleb128 0x16
ARM GAS  /tmp/ccYWnEX8.s 			page 53


 2716 00de 00       		.byte	0
 2717 00df 03       		.uleb128 0x3
 2718 00e0 08       		.uleb128 0x8
 2719 00e1 3A       		.uleb128 0x3a
 2720 00e2 0B       		.uleb128 0xb
 2721 00e3 3B       		.uleb128 0x3b
 2722 00e4 05       		.uleb128 0x5
 2723 00e5 39       		.uleb128 0x39
 2724 00e6 0B       		.uleb128 0xb
 2725 00e7 49       		.uleb128 0x49
 2726 00e8 13       		.uleb128 0x13
 2727 00e9 00       		.byte	0
 2728 00ea 00       		.byte	0
 2729 00eb 14       		.uleb128 0x14
 2730 00ec 13       		.uleb128 0x13
 2731 00ed 01       		.byte	0x1
 2732 00ee 0B       		.uleb128 0xb
 2733 00ef 0B       		.uleb128 0xb
 2734 00f0 3A       		.uleb128 0x3a
 2735 00f1 0B       		.uleb128 0xb
 2736 00f2 3B       		.uleb128 0x3b
 2737 00f3 05       		.uleb128 0x5
 2738 00f4 39       		.uleb128 0x39
 2739 00f5 0B       		.uleb128 0xb
 2740 00f6 01       		.uleb128 0x1
 2741 00f7 13       		.uleb128 0x13
 2742 00f8 00       		.byte	0
 2743 00f9 00       		.byte	0
 2744 00fa 15       		.uleb128 0x15
 2745 00fb 0D       		.uleb128 0xd
 2746 00fc 00       		.byte	0
 2747 00fd 03       		.uleb128 0x3
 2748 00fe 08       		.uleb128 0x8
 2749 00ff 3A       		.uleb128 0x3a
 2750 0100 0B       		.uleb128 0xb
 2751 0101 3B       		.uleb128 0x3b
 2752 0102 05       		.uleb128 0x5
 2753 0103 39       		.uleb128 0x39
 2754 0104 0B       		.uleb128 0xb
 2755 0105 49       		.uleb128 0x49
 2756 0106 13       		.uleb128 0x13
 2757 0107 38       		.uleb128 0x38
 2758 0108 0A       		.uleb128 0xa
 2759 0109 00       		.byte	0
 2760 010a 00       		.byte	0
 2761 010b 16       		.uleb128 0x16
 2762 010c 0D       		.uleb128 0xd
 2763 010d 00       		.byte	0
 2764 010e 03       		.uleb128 0x3
 2765 010f 0E       		.uleb128 0xe
 2766 0110 3A       		.uleb128 0x3a
 2767 0111 0B       		.uleb128 0xb
 2768 0112 3B       		.uleb128 0x3b
 2769 0113 05       		.uleb128 0x5
 2770 0114 39       		.uleb128 0x39
 2771 0115 0B       		.uleb128 0xb
 2772 0116 49       		.uleb128 0x49
ARM GAS  /tmp/ccYWnEX8.s 			page 54


 2773 0117 13       		.uleb128 0x13
 2774 0118 38       		.uleb128 0x38
 2775 0119 0A       		.uleb128 0xa
 2776 011a 00       		.byte	0
 2777 011b 00       		.byte	0
 2778 011c 17       		.uleb128 0x17
 2779 011d 34       		.uleb128 0x34
 2780 011e 00       		.byte	0
 2781 011f 03       		.uleb128 0x3
 2782 0120 0E       		.uleb128 0xe
 2783 0121 3A       		.uleb128 0x3a
 2784 0122 0B       		.uleb128 0xb
 2785 0123 3B       		.uleb128 0x3b
 2786 0124 0B       		.uleb128 0xb
 2787 0125 39       		.uleb128 0x39
 2788 0126 0B       		.uleb128 0xb
 2789 0127 49       		.uleb128 0x49
 2790 0128 13       		.uleb128 0x13
 2791 0129 00       		.byte	0
 2792 012a 00       		.byte	0
 2793 012b 18       		.uleb128 0x18
 2794 012c 2E       		.uleb128 0x2e
 2795 012d 01       		.byte	0x1
 2796 012e 3F       		.uleb128 0x3f
 2797 012f 0C       		.uleb128 0xc
 2798 0130 03       		.uleb128 0x3
 2799 0131 0E       		.uleb128 0xe
 2800 0132 3A       		.uleb128 0x3a
 2801 0133 0B       		.uleb128 0xb
 2802 0134 3B       		.uleb128 0x3b
 2803 0135 0B       		.uleb128 0xb
 2804 0136 39       		.uleb128 0x39
 2805 0137 0B       		.uleb128 0xb
 2806 0138 27       		.uleb128 0x27
 2807 0139 0C       		.uleb128 0xc
 2808 013a 49       		.uleb128 0x49
 2809 013b 13       		.uleb128 0x13
 2810 013c 11       		.uleb128 0x11
 2811 013d 01       		.uleb128 0x1
 2812 013e 12       		.uleb128 0x12
 2813 013f 01       		.uleb128 0x1
 2814 0140 40       		.uleb128 0x40
 2815 0141 06       		.uleb128 0x6
 2816 0142 9742     		.uleb128 0x2117
 2817 0144 0C       		.uleb128 0xc
 2818 0145 01       		.uleb128 0x1
 2819 0146 13       		.uleb128 0x13
 2820 0147 00       		.byte	0
 2821 0148 00       		.byte	0
 2822 0149 19       		.uleb128 0x19
 2823 014a 898201   		.uleb128 0x4109
 2824 014d 01       		.byte	0x1
 2825 014e 11       		.uleb128 0x11
 2826 014f 01       		.uleb128 0x1
 2827 0150 31       		.uleb128 0x31
 2828 0151 13       		.uleb128 0x13
 2829 0152 01       		.uleb128 0x1
ARM GAS  /tmp/ccYWnEX8.s 			page 55


 2830 0153 13       		.uleb128 0x13
 2831 0154 00       		.byte	0
 2832 0155 00       		.byte	0
 2833 0156 1A       		.uleb128 0x1a
 2834 0157 8A8201   		.uleb128 0x410a
 2835 015a 00       		.byte	0
 2836 015b 02       		.uleb128 0x2
 2837 015c 0A       		.uleb128 0xa
 2838 015d 9142     		.uleb128 0x2111
 2839 015f 0A       		.uleb128 0xa
 2840 0160 00       		.byte	0
 2841 0161 00       		.byte	0
 2842 0162 1B       		.uleb128 0x1b
 2843 0163 898201   		.uleb128 0x4109
 2844 0166 00       		.byte	0
 2845 0167 11       		.uleb128 0x11
 2846 0168 01       		.uleb128 0x1
 2847 0169 31       		.uleb128 0x31
 2848 016a 13       		.uleb128 0x13
 2849 016b 00       		.byte	0
 2850 016c 00       		.byte	0
 2851 016d 1C       		.uleb128 0x1c
 2852 016e 2E       		.uleb128 0x2e
 2853 016f 01       		.byte	0x1
 2854 0170 03       		.uleb128 0x3
 2855 0171 0E       		.uleb128 0xe
 2856 0172 3A       		.uleb128 0x3a
 2857 0173 0B       		.uleb128 0xb
 2858 0174 3B       		.uleb128 0x3b
 2859 0175 0B       		.uleb128 0xb
 2860 0176 39       		.uleb128 0x39
 2861 0177 0B       		.uleb128 0xb
 2862 0178 27       		.uleb128 0x27
 2863 0179 0C       		.uleb128 0xc
 2864 017a 11       		.uleb128 0x11
 2865 017b 01       		.uleb128 0x1
 2866 017c 12       		.uleb128 0x12
 2867 017d 01       		.uleb128 0x1
 2868 017e 40       		.uleb128 0x40
 2869 017f 06       		.uleb128 0x6
 2870 0180 9742     		.uleb128 0x2117
 2871 0182 0C       		.uleb128 0xc
 2872 0183 01       		.uleb128 0x1
 2873 0184 13       		.uleb128 0x13
 2874 0185 00       		.byte	0
 2875 0186 00       		.byte	0
 2876 0187 1D       		.uleb128 0x1d
 2877 0188 05       		.uleb128 0x5
 2878 0189 00       		.byte	0
 2879 018a 03       		.uleb128 0x3
 2880 018b 0E       		.uleb128 0xe
 2881 018c 3A       		.uleb128 0x3a
 2882 018d 0B       		.uleb128 0xb
 2883 018e 3B       		.uleb128 0x3b
 2884 018f 0B       		.uleb128 0xb
 2885 0190 39       		.uleb128 0x39
 2886 0191 0B       		.uleb128 0xb
ARM GAS  /tmp/ccYWnEX8.s 			page 56


 2887 0192 49       		.uleb128 0x49
 2888 0193 13       		.uleb128 0x13
 2889 0194 02       		.uleb128 0x2
 2890 0195 06       		.uleb128 0x6
 2891 0196 B742     		.uleb128 0x2137
 2892 0198 06       		.uleb128 0x6
 2893 0199 00       		.byte	0
 2894 019a 00       		.byte	0
 2895 019b 1E       		.uleb128 0x1e
 2896 019c 898201   		.uleb128 0x4109
 2897 019f 01       		.byte	0x1
 2898 01a0 11       		.uleb128 0x11
 2899 01a1 01       		.uleb128 0x1
 2900 01a2 31       		.uleb128 0x31
 2901 01a3 13       		.uleb128 0x13
 2902 01a4 00       		.byte	0
 2903 01a5 00       		.byte	0
 2904 01a6 1F       		.uleb128 0x1f
 2905 01a7 2E       		.uleb128 0x2e
 2906 01a8 01       		.byte	0x1
 2907 01a9 3F       		.uleb128 0x3f
 2908 01aa 0C       		.uleb128 0xc
 2909 01ab 03       		.uleb128 0x3
 2910 01ac 0E       		.uleb128 0xe
 2911 01ad 3A       		.uleb128 0x3a
 2912 01ae 0B       		.uleb128 0xb
 2913 01af 3B       		.uleb128 0x3b
 2914 01b0 0B       		.uleb128 0xb
 2915 01b1 39       		.uleb128 0x39
 2916 01b2 0B       		.uleb128 0xb
 2917 01b3 27       		.uleb128 0x27
 2918 01b4 0C       		.uleb128 0xc
 2919 01b5 11       		.uleb128 0x11
 2920 01b6 01       		.uleb128 0x1
 2921 01b7 12       		.uleb128 0x12
 2922 01b8 01       		.uleb128 0x1
 2923 01b9 40       		.uleb128 0x40
 2924 01ba 0A       		.uleb128 0xa
 2925 01bb 9742     		.uleb128 0x2117
 2926 01bd 0C       		.uleb128 0xc
 2927 01be 01       		.uleb128 0x1
 2928 01bf 13       		.uleb128 0x13
 2929 01c0 00       		.byte	0
 2930 01c1 00       		.byte	0
 2931 01c2 20       		.uleb128 0x20
 2932 01c3 2E       		.uleb128 0x2e
 2933 01c4 00       		.byte	0
 2934 01c5 3F       		.uleb128 0x3f
 2935 01c6 0C       		.uleb128 0xc
 2936 01c7 03       		.uleb128 0x3
 2937 01c8 0E       		.uleb128 0xe
 2938 01c9 3A       		.uleb128 0x3a
 2939 01ca 0B       		.uleb128 0xb
 2940 01cb 3B       		.uleb128 0x3b
 2941 01cc 0B       		.uleb128 0xb
 2942 01cd 39       		.uleb128 0x39
 2943 01ce 0B       		.uleb128 0xb
ARM GAS  /tmp/ccYWnEX8.s 			page 57


 2944 01cf 27       		.uleb128 0x27
 2945 01d0 0C       		.uleb128 0xc
 2946 01d1 11       		.uleb128 0x11
 2947 01d2 01       		.uleb128 0x1
 2948 01d3 12       		.uleb128 0x12
 2949 01d4 01       		.uleb128 0x1
 2950 01d5 40       		.uleb128 0x40
 2951 01d6 0A       		.uleb128 0xa
 2952 01d7 9742     		.uleb128 0x2117
 2953 01d9 0C       		.uleb128 0xc
 2954 01da 00       		.byte	0
 2955 01db 00       		.byte	0
 2956 01dc 21       		.uleb128 0x21
 2957 01dd 2E       		.uleb128 0x2e
 2958 01de 01       		.byte	0x1
 2959 01df 3F       		.uleb128 0x3f
 2960 01e0 0C       		.uleb128 0xc
 2961 01e1 03       		.uleb128 0x3
 2962 01e2 0E       		.uleb128 0xe
 2963 01e3 3A       		.uleb128 0x3a
 2964 01e4 0B       		.uleb128 0xb
 2965 01e5 3B       		.uleb128 0x3b
 2966 01e6 0B       		.uleb128 0xb
 2967 01e7 39       		.uleb128 0x39
 2968 01e8 0B       		.uleb128 0xb
 2969 01e9 27       		.uleb128 0x27
 2970 01ea 0C       		.uleb128 0xc
 2971 01eb 11       		.uleb128 0x11
 2972 01ec 01       		.uleb128 0x1
 2973 01ed 12       		.uleb128 0x12
 2974 01ee 01       		.uleb128 0x1
 2975 01ef 40       		.uleb128 0x40
 2976 01f0 06       		.uleb128 0x6
 2977 01f1 9742     		.uleb128 0x2117
 2978 01f3 0C       		.uleb128 0xc
 2979 01f4 01       		.uleb128 0x1
 2980 01f5 13       		.uleb128 0x13
 2981 01f6 00       		.byte	0
 2982 01f7 00       		.byte	0
 2983 01f8 22       		.uleb128 0x22
 2984 01f9 05       		.uleb128 0x5
 2985 01fa 00       		.byte	0
 2986 01fb 03       		.uleb128 0x3
 2987 01fc 08       		.uleb128 0x8
 2988 01fd 3A       		.uleb128 0x3a
 2989 01fe 0B       		.uleb128 0xb
 2990 01ff 3B       		.uleb128 0x3b
 2991 0200 0B       		.uleb128 0xb
 2992 0201 39       		.uleb128 0x39
 2993 0202 0B       		.uleb128 0xb
 2994 0203 49       		.uleb128 0x49
 2995 0204 13       		.uleb128 0x13
 2996 0205 02       		.uleb128 0x2
 2997 0206 0A       		.uleb128 0xa
 2998 0207 00       		.byte	0
 2999 0208 00       		.byte	0
 3000 0209 23       		.uleb128 0x23
ARM GAS  /tmp/ccYWnEX8.s 			page 58


 3001 020a 2E       		.uleb128 0x2e
 3002 020b 00       		.byte	0
 3003 020c 3F       		.uleb128 0x3f
 3004 020d 0C       		.uleb128 0xc
 3005 020e 03       		.uleb128 0x3
 3006 020f 0E       		.uleb128 0xe
 3007 0210 3A       		.uleb128 0x3a
 3008 0211 0B       		.uleb128 0xb
 3009 0212 3B       		.uleb128 0x3b
 3010 0213 0B       		.uleb128 0xb
 3011 0214 39       		.uleb128 0x39
 3012 0215 0B       		.uleb128 0xb
 3013 0216 11       		.uleb128 0x11
 3014 0217 01       		.uleb128 0x1
 3015 0218 12       		.uleb128 0x12
 3016 0219 01       		.uleb128 0x1
 3017 021a 40       		.uleb128 0x40
 3018 021b 0A       		.uleb128 0xa
 3019 021c 9742     		.uleb128 0x2117
 3020 021e 0C       		.uleb128 0xc
 3021 021f 00       		.byte	0
 3022 0220 00       		.byte	0
 3023 0221 24       		.uleb128 0x24
 3024 0222 2E       		.uleb128 0x2e
 3025 0223 00       		.byte	0
 3026 0224 3F       		.uleb128 0x3f
 3027 0225 0C       		.uleb128 0xc
 3028 0226 3C       		.uleb128 0x3c
 3029 0227 0C       		.uleb128 0xc
 3030 0228 8740     		.uleb128 0x2007
 3031 022a 0E       		.uleb128 0xe
 3032 022b 03       		.uleb128 0x3
 3033 022c 0E       		.uleb128 0xe
 3034 022d 3A       		.uleb128 0x3a
 3035 022e 0B       		.uleb128 0xb
 3036 022f 3B       		.uleb128 0x3b
 3037 0230 05       		.uleb128 0x5
 3038 0231 39       		.uleb128 0x39
 3039 0232 0B       		.uleb128 0xb
 3040 0233 00       		.byte	0
 3041 0234 00       		.byte	0
 3042 0235 25       		.uleb128 0x25
 3043 0236 2E       		.uleb128 0x2e
 3044 0237 00       		.byte	0
 3045 0238 3F       		.uleb128 0x3f
 3046 0239 0C       		.uleb128 0xc
 3047 023a 3C       		.uleb128 0x3c
 3048 023b 0C       		.uleb128 0xc
 3049 023c 8740     		.uleb128 0x2007
 3050 023e 0E       		.uleb128 0xe
 3051 023f 03       		.uleb128 0x3
 3052 0240 0E       		.uleb128 0xe
 3053 0241 3A       		.uleb128 0x3a
 3054 0242 0B       		.uleb128 0xb
 3055 0243 3B       		.uleb128 0x3b
 3056 0244 0B       		.uleb128 0xb
 3057 0245 39       		.uleb128 0x39
ARM GAS  /tmp/ccYWnEX8.s 			page 59


 3058 0246 0B       		.uleb128 0xb
 3059 0247 00       		.byte	0
 3060 0248 00       		.byte	0
 3061 0249 00       		.byte	0
 3062              		.section	.debug_loc,"",%progbits
 3063              	.Ldebug_loc0:
 3064              	.LLST7:
 3065 0000 00000000 		.4byte	.LFB43
 3066 0004 06000000 		.4byte	.LCFI5
 3067 0008 0200     		.2byte	0x2
 3068 000a 7D       		.byte	0x7d
 3069 000b 00       		.sleb128 0
 3070 000c 06000000 		.4byte	.LCFI5
 3071 0010 4C000000 		.4byte	.LFE43
 3072 0014 0200     		.2byte	0x2
 3073 0016 7D       		.byte	0x7d
 3074 0017 10       		.sleb128 16
 3075 0018 00000000 		.4byte	0
 3076 001c 00000000 		.4byte	0
 3077              	.LLST0:
 3078 0020 00000000 		.4byte	.LFB41
 3079 0024 04000000 		.4byte	.LCFI0
 3080 0028 0200     		.2byte	0x2
 3081 002a 7D       		.byte	0x7d
 3082 002b 00       		.sleb128 0
 3083 002c 04000000 		.4byte	.LCFI0
 3084 0030 30000000 		.4byte	.LFE41
 3085 0034 0200     		.2byte	0x2
 3086 0036 7D       		.byte	0x7d
 3087 0037 08       		.sleb128 8
 3088 0038 00000000 		.4byte	0
 3089 003c 00000000 		.4byte	0
 3090              	.LVUS1:
 3091 0040 00       		.uleb128 0
 3092 0041 00       		.uleb128 .LVU9
 3093 0042 00       		.uleb128 .LVU9
 3094 0043 00       		.uleb128 0
 3095              	.LLST1:
 3096 0044 00000000 		.4byte	.LVL0
 3097 0048 16000000 		.4byte	.LVL1
 3098 004c 0100     		.2byte	0x1
 3099 004e 50       		.byte	0x50
 3100 004f 16000000 		.4byte	.LVL1
 3101 0053 30000000 		.4byte	.LFE41
 3102 0057 0400     		.2byte	0x4
 3103 0059 F3       		.byte	0xf3
 3104 005a 01       		.uleb128 0x1
 3105 005b 50       		.byte	0x50
 3106 005c 9F       		.byte	0x9f
 3107 005d 00000000 		.4byte	0
 3108 0061 00000000 		.4byte	0
 3109              	.LLST2:
 3110 0065 30000000 		.4byte	.LFB40
 3111 0069 34000000 		.4byte	.LCFI1
 3112 006d 0200     		.2byte	0x2
 3113 006f 7D       		.byte	0x7d
 3114 0070 00       		.sleb128 0
ARM GAS  /tmp/ccYWnEX8.s 			page 60


 3115 0071 34000000 		.4byte	.LCFI1
 3116 0075 98000000 		.4byte	.LFE40
 3117 0079 0200     		.2byte	0x2
 3118 007b 7D       		.byte	0x7d
 3119 007c 08       		.sleb128 8
 3120 007d 00000000 		.4byte	0
 3121 0081 00000000 		.4byte	0
 3122              	.LVUS3:
 3123 0085 00       		.uleb128 0
 3124 0086 00       		.uleb128 .LVU30
 3125 0087 00       		.uleb128 .LVU30
 3126 0088 00       		.uleb128 0
 3127              	.LLST3:
 3128 0089 30000000 		.4byte	.LVL3
 3129 008d 75000000 		.4byte	.LVL4-1
 3130 0091 0100     		.2byte	0x1
 3131 0093 50       		.byte	0x50
 3132 0094 75000000 		.4byte	.LVL4-1
 3133 0098 98000000 		.4byte	.LFE40
 3134 009c 0400     		.2byte	0x4
 3135 009e F3       		.byte	0xf3
 3136 009f 01       		.uleb128 0x1
 3137 00a0 50       		.byte	0x50
 3138 00a1 9F       		.byte	0x9f
 3139 00a2 00000000 		.4byte	0
 3140 00a6 00000000 		.4byte	0
 3141              	.LVUS6:
 3142 00aa 00       		.uleb128 0
 3143 00ab 00       		.uleb128 .LVU156
 3144 00ac 00       		.uleb128 .LVU156
 3145 00ad 00       		.uleb128 0
 3146              	.LLST6:
 3147 00ae 08020000 		.4byte	.LVL10
 3148 00b2 10020000 		.4byte	.LVL11
 3149 00b6 0100     		.2byte	0x1
 3150 00b8 50       		.byte	0x50
 3151 00b9 10020000 		.4byte	.LVL11
 3152 00bd 24020000 		.4byte	.LFE39
 3153 00c1 0400     		.2byte	0x4
 3154 00c3 F3       		.byte	0xf3
 3155 00c4 01       		.uleb128 0x1
 3156 00c5 50       		.byte	0x50
 3157 00c6 9F       		.byte	0x9f
 3158 00c7 00000000 		.4byte	0
 3159 00cb 00000000 		.4byte	0
 3160              	.LVUS5:
 3161 00cf 00       		.uleb128 0
 3162 00d0 00       		.uleb128 .LVU148
 3163 00d1 00       		.uleb128 .LVU148
 3164 00d2 00       		.uleb128 0
 3165              	.LLST5:
 3166 00d3 F0010000 		.4byte	.LVL8
 3167 00d7 F8010000 		.4byte	.LVL9
 3168 00db 0100     		.2byte	0x1
 3169 00dd 50       		.byte	0x50
 3170 00de F8010000 		.4byte	.LVL9
 3171 00e2 08020000 		.4byte	.LFE38
ARM GAS  /tmp/ccYWnEX8.s 			page 61


 3172 00e6 0400     		.2byte	0x4
 3173 00e8 F3       		.byte	0xf3
 3174 00e9 01       		.uleb128 0x1
 3175 00ea 50       		.byte	0x50
 3176 00eb 9F       		.byte	0x9f
 3177 00ec 00000000 		.4byte	0
 3178 00f0 00000000 		.4byte	0
 3179              	.LLST4:
 3180 00f4 98010000 		.4byte	.LFB36
 3181 00f8 9A010000 		.4byte	.LCFI2
 3182 00fc 0200     		.2byte	0x2
 3183 00fe 7D       		.byte	0x7d
 3184 00ff 00       		.sleb128 0
 3185 0100 9A010000 		.4byte	.LCFI2
 3186 0104 A6010000 		.4byte	.LCFI3
 3187 0108 0200     		.2byte	0x2
 3188 010a 7D       		.byte	0x7d
 3189 010b 08       		.sleb128 8
 3190 010c A6010000 		.4byte	.LCFI3
 3191 0110 A8010000 		.4byte	.LCFI4
 3192 0114 0200     		.2byte	0x2
 3193 0116 7D       		.byte	0x7d
 3194 0117 00       		.sleb128 0
 3195 0118 A8010000 		.4byte	.LCFI4
 3196 011c C8010000 		.4byte	.LFE36
 3197 0120 0200     		.2byte	0x2
 3198 0122 7D       		.byte	0x7d
 3199 0123 08       		.sleb128 8
 3200 0124 00000000 		.4byte	0
 3201 0128 00000000 		.4byte	0
 3202              		.section	.debug_aranges,"",%progbits
 3203 0000 24000000 		.4byte	0x24
 3204 0004 0200     		.2byte	0x2
 3205 0006 00000000 		.4byte	.Ldebug_info0
 3206 000a 04       		.byte	0x4
 3207 000b 00       		.byte	0
 3208 000c 0000     		.2byte	0
 3209 000e 0000     		.2byte	0
 3210 0010 00000000 		.4byte	.Ltext0
 3211 0014 24020000 		.4byte	.Letext0-.Ltext0
 3212 0018 00000000 		.4byte	.LFB43
 3213 001c 4C000000 		.4byte	.LFE43-.LFB43
 3214 0020 00000000 		.4byte	0
 3215 0024 00000000 		.4byte	0
 3216              		.section	.debug_ranges,"",%progbits
 3217              	.Ldebug_ranges0:
 3218 0000 00000000 		.4byte	.Ltext0
 3219 0004 24020000 		.4byte	.Letext0
 3220 0008 00000000 		.4byte	.LFB43
 3221 000c 4C000000 		.4byte	.LFE43
 3222 0010 00000000 		.4byte	0
 3223 0014 00000000 		.4byte	0
 3224              		.section	.debug_line,"",%progbits
 3225              	.Ldebug_line0:
 3226 0000 77040000 		.section	.debug_str,"MS",%progbits,1
 3226      03004801 
 3226      00000201 
ARM GAS  /tmp/ccYWnEX8.s 			page 62


 3226      FB0E0D00 
 3226      01010101 
 3227              	.LASF76:
 3228 0000 49435052 		.ascii	"ICPR\000"
 3228      00
 3229              	.LASF104:
 3230 0005 4C434B52 		.ascii	"LCKR\000"
 3230      00
 3231              	.LASF27:
 3232 000a 5056445F 		.ascii	"PVD_IRQn\000"
 3232      4952516E 
 3232      00
 3233              	.LASF118:
 3234 0013 44494552 		.ascii	"DIER\000"
 3234      00
 3235              	.LASF52:
 3236 0018 54494D31 		.ascii	"TIM1_TRG_COM_IRQn\000"
 3236      5F545247 
 3236      5F434F4D 
 3236      5F495251 
 3236      6E00
 3237              	.LASF57:
 3238 002a 49324331 		.ascii	"I2C1_EV_IRQn\000"
 3238      5F45565F 
 3238      4952516E 
 3238      00
 3239              	.LASF6:
 3240 0037 5F5F7569 		.ascii	"__uint8_t\000"
 3240      6E74385F 
 3240      7400
 3241              	.LASF142:
 3242 0041 54494D5F 		.ascii	"TIM_TypeDef\000"
 3242      54797065 
 3242      44656600 
 3243              	.LASF29:
 3244 004d 5254435F 		.ascii	"RTC_IRQn\000"
 3244      4952516E 
 3244      00
 3245              	.LASF47:
 3246 0056 43414E31 		.ascii	"CAN1_RX1_IRQn\000"
 3246      5F525831 
 3246      5F495251 
 3246      6E00
 3247              	.LASF131:
 3248 0064 43435232 		.ascii	"CCR2\000"
 3248      00
 3249              	.LASF60:
 3250 0069 49324332 		.ascii	"I2C2_ER_IRQn\000"
 3250      5F45525F 
 3250      4952516E 
 3250      00
 3251              	.LASF56:
 3252 0076 54494D34 		.ascii	"TIM4_IRQn\000"
 3252      5F495251 
 3252      6E00
 3253              	.LASF17:
 3254 0080 51756575 		.ascii	"QueueHandle_t\000"
ARM GAS  /tmp/ccYWnEX8.s 			page 63


 3254      6548616E 
 3254      646C655F 
 3254      7400
 3255              	.LASF34:
 3256 008e 45585449 		.ascii	"EXTI2_IRQn\000"
 3256      325F4952 
 3256      516E00
 3257              	.LASF26:
 3258 0099 57574447 		.ascii	"WWDG_IRQn\000"
 3258      5F495251 
 3258      6E00
 3259              	.LASF74:
 3260 00a3 49535052 		.ascii	"ISPR\000"
 3260      00
 3261              	.LASF92:
 3262 00a8 4A535152 		.ascii	"JSQR\000"
 3262      00
 3263              	.LASF119:
 3264 00ad 43434D52 		.ascii	"CCMR1\000"
 3264      3100
 3265              	.LASF121:
 3266 00b3 43434D52 		.ascii	"CCMR2\000"
 3266      3200
 3267              	.LASF1:
 3268 00b9 6C6F6E67 		.ascii	"long long int\000"
 3268      206C6F6E 
 3268      6720696E 
 3268      7400
 3269              	.LASF3:
 3270 00c7 7369676E 		.ascii	"signed char\000"
 3270      65642063 
 3270      68617200 
 3271              	.LASF103:
 3272 00d3 42535252 		.ascii	"BSRR\000"
 3272      00
 3273              	.LASF32:
 3274 00d8 45585449 		.ascii	"EXTI0_IRQn\000"
 3274      305F4952 
 3274      516E00
 3275              	.LASF102:
 3276 00e3 464C4153 		.ascii	"FLASH_TypeDef\000"
 3276      485F5479 
 3276      70654465 
 3276      6600
 3277              	.LASF158:
 3278 00f1 64697370 		.ascii	"disp_text\000"
 3278      5F746578 
 3278      7400
 3279              	.LASF155:
 3280 00fb 76546173 		.ascii	"vTaskDelay\000"
 3280      6B44656C 
 3280      617900
 3281              	.LASF12:
 3282 0106 6C6F6E67 		.ascii	"long long unsigned int\000"
 3282      206C6F6E 
 3282      6720756E 
 3282      7369676E 
ARM GAS  /tmp/ccYWnEX8.s 			page 64


 3282      65642069 
 3283              	.LASF108:
 3284 011d 41504231 		.ascii	"APB1RSTR\000"
 3284      52535452 
 3284      00
 3285              	.LASF126:
 3286 0126 52455345 		.ascii	"RESERVED10\000"
 3286      52564544 
 3286      313000
 3287              	.LASF127:
 3288 0131 52455345 		.ascii	"RESERVED11\000"
 3288      52564544 
 3288      313100
 3289              	.LASF128:
 3290 013c 52455345 		.ascii	"RESERVED12\000"
 3290      52564544 
 3290      313200
 3291              	.LASF130:
 3292 0147 52455345 		.ascii	"RESERVED13\000"
 3292      52564544 
 3292      313300
 3293              	.LASF132:
 3294 0152 52455345 		.ascii	"RESERVED14\000"
 3294      52564544 
 3294      313400
 3295              	.LASF134:
 3296 015d 52455345 		.ascii	"RESERVED15\000"
 3296      52564544 
 3296      313500
 3297              	.LASF136:
 3298 0168 52455345 		.ascii	"RESERVED16\000"
 3298      52564544 
 3298      313600
 3299              	.LASF138:
 3300 0173 52455345 		.ascii	"RESERVED17\000"
 3300      52564544 
 3300      313700
 3301              	.LASF139:
 3302 017e 52455345 		.ascii	"RESERVED18\000"
 3302      52564544 
 3302      313800
 3303              	.LASF141:
 3304 0189 52455345 		.ascii	"RESERVED19\000"
 3304      52564544 
 3304      313900
 3305              	.LASF9:
 3306 0194 6C6F6E67 		.ascii	"long int\000"
 3306      20696E74 
 3306      00
 3307              	.LASF107:
 3308 019d 41504232 		.ascii	"APB2RSTR\000"
 3308      52535452 
 3308      00
 3309              	.LASF49:
 3310 01a6 45585449 		.ascii	"EXTI9_5_IRQn\000"
 3310      395F355F 
 3310      4952516E 
ARM GAS  /tmp/ccYWnEX8.s 			page 65


 3310      00
 3311              	.LASF123:
 3312 01b3 43434552 		.ascii	"CCER\000"
 3312      00
 3313              	.LASF99:
 3314 01b8 4F50544B 		.ascii	"OPTKEYR\000"
 3314      45595200 
 3315              	.LASF14:
 3316 01c0 75696E74 		.ascii	"uint16_t\000"
 3316      31365F74 
 3316      00
 3317              	.LASF97:
 3318 01c9 4144435F 		.ascii	"ADC_TypeDef\000"
 3318      54797065 
 3318      44656600 
 3319              	.LASF44:
 3320 01d5 41444331 		.ascii	"ADC1_2_IRQn\000"
 3320      5F325F49 
 3320      52516E00 
 3321              	.LASF24:
 3322 01e1 50656E64 		.ascii	"PendSV_IRQn\000"
 3322      53565F49 
 3322      52516E00 
 3323              	.LASF8:
 3324 01ed 73686F72 		.ascii	"short unsigned int\000"
 3324      7420756E 
 3324      7369676E 
 3324      65642069 
 3324      6E7400
 3325              	.LASF40:
 3326 0200 444D4131 		.ascii	"DMA1_Channel4_IRQn\000"
 3326      5F436861 
 3326      6E6E656C 
 3326      345F4952 
 3326      516E00
 3327              	.LASF7:
 3328 0213 5F5F7569 		.ascii	"__uint16_t\000"
 3328      6E743136 
 3328      5F7400
 3329              	.LASF10:
 3330 021e 5F5F7569 		.ascii	"__uint32_t\000"
 3330      6E743332 
 3330      5F7400
 3331              	.LASF150:
 3332 0229 656E6162 		.ascii	"enable_TIM3_delay\000"
 3332      6C655F54 
 3332      494D335F 
 3332      64656C61 
 3332      7900
 3333              	.LASF20:
 3334 023b 42757346 		.ascii	"BusFault_IRQn\000"
 3334      61756C74 
 3334      5F495251 
 3334      6E00
 3335              	.LASF154:
 3336 0249 76546173 		.ascii	"vTaskStartScheduler\000"
 3336      6B537461 
ARM GAS  /tmp/ccYWnEX8.s 			page 66


 3336      72745363 
 3336      68656475 
 3336      6C657200 
 3337              	.LASF98:
 3338 025d 4B455952 		.ascii	"KEYR\000"
 3338      00
 3339              	.LASF137:
 3340 0262 42445452 		.ascii	"BDTR\000"
 3340      00
 3341              	.LASF0:
 3342 0267 756E7369 		.ascii	"unsigned int\000"
 3342      676E6564 
 3342      20696E74 
 3342      00
 3343              	.LASF19:
 3344 0274 4D656D6F 		.ascii	"MemoryManagement_IRQn\000"
 3344      72794D61 
 3344      6E616765 
 3344      6D656E74 
 3344      5F495251 
 3345              	.LASF11:
 3346 028a 6C6F6E67 		.ascii	"long unsigned int\000"
 3346      20756E73 
 3346      69676E65 
 3346      6420696E 
 3346      7400
 3347              	.LASF105:
 3348 029c 4750494F 		.ascii	"GPIO_TypeDef\000"
 3348      5F547970 
 3348      65446566 
 3348      00
 3349              	.LASF115:
 3350 02a9 5243435F 		.ascii	"RCC_TypeDef\000"
 3350      54797065 
 3350      44656600 
 3351              	.LASF144:
 3352 02b5 7461736B 		.ascii	"task1\000"
 3352      3100
 3353              	.LASF143:
 3354 02bb 7461736B 		.ascii	"task2\000"
 3354      3200
 3355              	.LASF41:
 3356 02c1 444D4131 		.ascii	"DMA1_Channel5_IRQn\000"
 3356      5F436861 
 3356      6E6E656C 
 3356      355F4952 
 3356      516E00
 3357              	.LASF117:
 3358 02d4 534D4352 		.ascii	"SMCR\000"
 3358      00
 3359              	.LASF63:
 3360 02d9 55534152 		.ascii	"USART1_IRQn\000"
 3360      54315F49 
 3360      52516E00 
 3361              	.LASF109:
 3362 02e5 41484245 		.ascii	"AHBENR\000"
 3362      4E5200
ARM GAS  /tmp/ccYWnEX8.s 			page 67


 3363              	.LASF66:
 3364 02ec 45585449 		.ascii	"EXTI15_10_IRQn\000"
 3364      31355F31 
 3364      305F4952 
 3364      516E00
 3365              	.LASF159:
 3366 02fb 474E5520 		.ascii	"GNU C17 10.3.1 20210824 (release) -mcpu=cortex-m3 -"
 3366      43313720 
 3366      31302E33 
 3366      2E312032 
 3366      30323130 
 3367 032e 6D746875 		.ascii	"mthumb -mfloat-abi=soft -march=armv7-m -g -gdwarf-2"
 3367      6D62202D 
 3367      6D666C6F 
 3367      61742D61 
 3367      62693D73 
 3368 0361 202D4F73 		.ascii	" -Os -fomit-frame-pointer\000"
 3368      202D666F 
 3368      6D69742D 
 3368      6672616D 
 3368      652D706F 
 3369              	.LASF61:
 3370 037b 53504931 		.ascii	"SPI1_IRQn\000"
 3370      5F495251 
 3370      6E00
 3371              	.LASF23:
 3372 0385 44656275 		.ascii	"DebugMonitor_IRQn\000"
 3372      674D6F6E 
 3372      69746F72 
 3372      5F495251 
 3372      6E00
 3373              	.LASF25:
 3374 0397 53797354 		.ascii	"SysTick_IRQn\000"
 3374      69636B5F 
 3374      4952516E 
 3374      00
 3375              	.LASF53:
 3376 03a4 54494D31 		.ascii	"TIM1_CC_IRQn\000"
 3376      5F43435F 
 3376      4952516E 
 3376      00
 3377              	.LASF146:
 3378 03b1 4952516E 		.ascii	"IRQn\000"
 3378      00
 3379              	.LASF85:
 3380 03b6 4A4F4652 		.ascii	"JOFR1\000"
 3380      3100
 3381              	.LASF86:
 3382 03bc 4A4F4652 		.ascii	"JOFR2\000"
 3382      3200
 3383              	.LASF87:
 3384 03c2 4A4F4652 		.ascii	"JOFR3\000"
 3384      3300
 3385              	.LASF88:
 3386 03c8 4A4F4652 		.ascii	"JOFR4\000"
 3386      3400
 3387              	.LASF38:
ARM GAS  /tmp/ccYWnEX8.s 			page 68


 3388 03ce 444D4131 		.ascii	"DMA1_Channel2_IRQn\000"
 3388      5F436861 
 3388      6E6E656C 
 3388      325F4952 
 3388      516E00
 3389              	.LASF161:
 3390 03e1 2F686F6D 		.ascii	"/home/junior/Codigos/6-Stm32_GCC_FreeRTOS10.2.1/3-C"
 3390      652F6A75 
 3390      6E696F72 
 3390      2F436F64 
 3390      69676F73 
 3391 0414 6F6D5072 		.ascii	"omProcessos\000"
 3391      6F636573 
 3391      736F7300 
 3392              	.LASF22:
 3393 0420 53564361 		.ascii	"SVCall_IRQn\000"
 3393      6C6C5F49 
 3393      52516E00 
 3394              	.LASF59:
 3395 042c 49324332 		.ascii	"I2C2_EV_IRQn\000"
 3395      5F45565F 
 3395      4952516E 
 3395      00
 3396              	.LASF153:
 3397 0439 78546173 		.ascii	"xTaskCreate\000"
 3397      6B437265 
 3397      61746500 
 3398              	.LASF78:
 3399 0445 49414252 		.ascii	"IABR\000"
 3399      00
 3400              	.LASF149:
 3401 044a 44656C61 		.ascii	"Delay\000"
 3401      7900
 3402              	.LASF62:
 3403 0450 53504932 		.ascii	"SPI2_IRQn\000"
 3403      5F495251 
 3403      6E00
 3404              	.LASF148:
 3405 045a 656E6162 		.ascii	"enable_interrupt\000"
 3405      6C655F69 
 3405      6E746572 
 3405      72757074 
 3405      00
 3406              	.LASF83:
 3407 046b 534D5052 		.ascii	"SMPR1\000"
 3407      3100
 3408              	.LASF84:
 3409 0471 534D5052 		.ascii	"SMPR2\000"
 3409      3200
 3410              	.LASF72:
 3411 0477 49434552 		.ascii	"ICER\000"
 3411      00
 3412              	.LASF113:
 3413 047c 41484252 		.ascii	"AHBRSTR\000"
 3413      53545200 
 3414              	.LASF160:
 3415 0484 2E2E2F33 		.ascii	"../3-ComProcessos/main.c\000"
ARM GAS  /tmp/ccYWnEX8.s 			page 69


 3415      2D436F6D 
 3415      50726F63 
 3415      6573736F 
 3415      732F6D61 
 3416              	.LASF89:
 3417 049d 53515231 		.ascii	"SQR1\000"
 3417      00
 3418              	.LASF90:
 3419 04a2 53515232 		.ascii	"SQR2\000"
 3419      00
 3420              	.LASF91:
 3421 04a7 53515233 		.ascii	"SQR3\000"
 3421      00
 3422              	.LASF37:
 3423 04ac 444D4131 		.ascii	"DMA1_Channel1_IRQn\000"
 3423      5F436861 
 3423      6E6E656C 
 3423      315F4952 
 3423      516E00
 3424              	.LASF71:
 3425 04bf 52455345 		.ascii	"RESERVED0\000"
 3425      52564544 
 3425      3000
 3426              	.LASF116:
 3427 04c9 52455345 		.ascii	"RESERVED1\000"
 3427      52564544 
 3427      3100
 3428              	.LASF75:
 3429 04d3 52455345 		.ascii	"RESERVED2\000"
 3429      52564544 
 3429      3200
 3430              	.LASF77:
 3431 04dd 52455345 		.ascii	"RESERVED3\000"
 3431      52564544 
 3431      3300
 3432              	.LASF79:
 3433 04e7 52455345 		.ascii	"RESERVED4\000"
 3433      52564544 
 3433      3400
 3434              	.LASF80:
 3435 04f1 52455345 		.ascii	"RESERVED5\000"
 3435      52564544 
 3435      3500
 3436              	.LASF120:
 3437 04fb 52455345 		.ascii	"RESERVED6\000"
 3437      52564544 
 3437      3600
 3438              	.LASF124:
 3439 0505 52455345 		.ascii	"RESERVED8\000"
 3439      52564544 
 3439      3800
 3440              	.LASF125:
 3441 050f 52455345 		.ascii	"RESERVED9\000"
 3441      52564544 
 3441      3900
 3442              	.LASF162:
 3443 0519 51756575 		.ascii	"QueueDefinition\000"
ARM GAS  /tmp/ccYWnEX8.s 			page 70


 3443      65446566 
 3443      696E6974 
 3443      696F6E00 
 3444              	.LASF151:
 3445 0529 7365745F 		.ascii	"set_system_clock_to_72Mhz\000"
 3445      73797374 
 3445      656D5F63 
 3445      6C6F636B 
 3445      5F746F5F 
 3446              	.LASF4:
 3447 0543 756E7369 		.ascii	"unsigned char\000"
 3447      676E6564 
 3447      20636861 
 3447      7200
 3448              	.LASF45:
 3449 0551 5553425F 		.ascii	"USB_HP_CAN1_TX_IRQn\000"
 3449      48505F43 
 3449      414E315F 
 3449      54585F49 
 3449      52516E00 
 3450              	.LASF36:
 3451 0565 45585449 		.ascii	"EXTI4_IRQn\000"
 3451      345F4952 
 3451      516E00
 3452              	.LASF5:
 3453 0570 73686F72 		.ascii	"short int\000"
 3453      7420696E 
 3453      7400
 3454              	.LASF70:
 3455 057a 49534552 		.ascii	"ISER\000"
 3455      00
 3456              	.LASF82:
 3457 057f 4E564943 		.ascii	"NVIC_Type\000"
 3457      5F547970 
 3457      6500
 3458              	.LASF100:
 3459 0589 52455345 		.ascii	"RESERVED\000"
 3459      52564544 
 3459      00
 3460              	.LASF46:
 3461 0592 5553425F 		.ascii	"USB_LP_CAN1_RX0_IRQn\000"
 3461      4C505F43 
 3461      414E315F 
 3461      5258305F 
 3461      4952516E 
 3462              	.LASF152:
 3463 05a7 78517565 		.ascii	"xQueueGenericCreate\000"
 3463      75654765 
 3463      6E657269 
 3463      63437265 
 3463      61746500 
 3464              	.LASF165:
 3465 05bb 41444331 		.ascii	"ADC1_configure\000"
 3465      5F636F6E 
 3465      66696775 
 3465      726500
 3466              	.LASF110:
ARM GAS  /tmp/ccYWnEX8.s 			page 71


 3467 05ca 41504232 		.ascii	"APB2ENR\000"
 3467      454E5200 
 3468              	.LASF30:
 3469 05d2 464C4153 		.ascii	"FLASH_IRQn\000"
 3469      485F4952 
 3469      516E00
 3470              	.LASF147:
 3471 05dd 64697361 		.ascii	"disable_interrupt\000"
 3471      626C655F 
 3471      696E7465 
 3471      72727570 
 3471      7400
 3472              	.LASF69:
 3473 05ef 4952516E 		.ascii	"IRQn_Type\000"
 3473      5F547970 
 3473      6500
 3474              	.LASF15:
 3475 05f9 75696E74 		.ascii	"uint32_t\000"
 3475      33325F74 
 3475      00
 3476              	.LASF122:
 3477 0602 52455345 		.ascii	"RESERVED7\000"
 3477      52564544 
 3477      3700
 3478              	.LASF64:
 3479 060c 55534152 		.ascii	"USART2_IRQn\000"
 3479      54325F49 
 3479      52516E00 
 3480              	.LASF21:
 3481 0618 55736167 		.ascii	"UsageFault_IRQn\000"
 3481      65466175 
 3481      6C745F49 
 3481      52516E00 
 3482              	.LASF2:
 3483 0628 6C6F6E67 		.ascii	"long double\000"
 3483      20646F75 
 3483      626C6500 
 3484              	.LASF101:
 3485 0634 57525052 		.ascii	"WRPR\000"
 3485      00
 3486              	.LASF39:
 3487 0639 444D4131 		.ascii	"DMA1_Channel3_IRQn\000"
 3487      5F436861 
 3487      6E6E656C 
 3487      335F4952 
 3487      516E00
 3488              	.LASF16:
 3489 064c 63686172 		.ascii	"char\000"
 3489      00
 3490              	.LASF50:
 3491 0651 54494D31 		.ascii	"TIM1_BRK_IRQn\000"
 3491      5F42524B 
 3491      5F495251 
 3491      6E00
 3492              	.LASF140:
 3493 065f 444D4152 		.ascii	"DMAR\000"
 3493      00
ARM GAS  /tmp/ccYWnEX8.s 			page 72


 3494              	.LASF67:
 3495 0664 52544341 		.ascii	"RTCAlarm_IRQn\000"
 3495      6C61726D 
 3495      5F495251 
 3495      6E00
 3496              	.LASF157:
 3497 0672 64697370 		.ascii	"disp_cmd\000"
 3497      5F636D64 
 3497      00
 3498              	.LASF18:
 3499 067b 4E6F6E4D 		.ascii	"NonMaskableInt_IRQn\000"
 3499      61736B61 
 3499      626C6549 
 3499      6E745F49 
 3499      52516E00 
 3500              	.LASF42:
 3501 068f 444D4131 		.ascii	"DMA1_Channel6_IRQn\000"
 3501      5F436861 
 3501      6E6E656C 
 3501      365F4952 
 3501      516E00
 3502              	.LASF111:
 3503 06a2 41504231 		.ascii	"APB1ENR\000"
 3503      454E5200 
 3504              	.LASF28:
 3505 06aa 54414D50 		.ascii	"TAMPER_IRQn\000"
 3505      45525F49 
 3505      52516E00 
 3506              	.LASF51:
 3507 06b6 54494D31 		.ascii	"TIM1_UP_IRQn\000"
 3507      5F55505F 
 3507      4952516E 
 3507      00
 3508              	.LASF68:
 3509 06c3 55534257 		.ascii	"USBWakeUp_IRQn\000"
 3509      616B6555 
 3509      705F4952 
 3509      516E00
 3510              	.LASF156:
 3511 06d2 64697370 		.ascii	"disp_init\000"
 3511      5F696E69 
 3511      7400
 3512              	.LASF65:
 3513 06dc 55534152 		.ascii	"USART3_IRQn\000"
 3513      54335F49 
 3513      52516E00 
 3514              	.LASF129:
 3515 06e8 43435231 		.ascii	"CCR1\000"
 3515      00
 3516              	.LASF54:
 3517 06ed 54494D32 		.ascii	"TIM2_IRQn\000"
 3517      5F495251 
 3517      6E00
 3518              	.LASF133:
 3519 06f7 43435233 		.ascii	"CCR3\000"
 3519      00
 3520              	.LASF135:
ARM GAS  /tmp/ccYWnEX8.s 			page 73


 3521 06fc 43435234 		.ascii	"CCR4\000"
 3521      00
 3522              	.LASF163:
 3523 0701 78517565 		.ascii	"xQueue\000"
 3523      756500
 3524              	.LASF112:
 3525 0708 42444352 		.ascii	"BDCR\000"
 3525      00
 3526              	.LASF35:
 3527 070d 45585449 		.ascii	"EXTI3_IRQn\000"
 3527      335F4952 
 3527      516E00
 3528              	.LASF114:
 3529 0718 43464752 		.ascii	"CFGR2\000"
 3529      3200
 3530              	.LASF13:
 3531 071e 75696E74 		.ascii	"uint8_t\000"
 3531      385F7400 
 3532              	.LASF73:
 3533 0726 52534552 		.ascii	"RSERVED1\000"
 3533      56454431 
 3533      00
 3534              	.LASF81:
 3535 072f 53544952 		.ascii	"STIR\000"
 3535      00
 3536              	.LASF93:
 3537 0734 4A445231 		.ascii	"JDR1\000"
 3537      00
 3538              	.LASF94:
 3539 0739 4A445232 		.ascii	"JDR2\000"
 3539      00
 3540              	.LASF95:
 3541 073e 4A445233 		.ascii	"JDR3\000"
 3541      00
 3542              	.LASF96:
 3543 0743 4A445234 		.ascii	"JDR4\000"
 3543      00
 3544              	.LASF43:
 3545 0748 444D4131 		.ascii	"DMA1_Channel7_IRQn\000"
 3545      5F436861 
 3545      6E6E656C 
 3545      375F4952 
 3545      516E00
 3546              	.LASF106:
 3547 075b 43464752 		.ascii	"CFGR\000"
 3547      00
 3548              	.LASF58:
 3549 0760 49324331 		.ascii	"I2C1_ER_IRQn\000"
 3549      5F45525F 
 3549      4952516E 
 3549      00
 3550              	.LASF145:
 3551 076d 61726773 		.ascii	"args\000"
 3551      00
 3552              	.LASF164:
 3553 0772 6D61696E 		.ascii	"main\000"
 3553      00
ARM GAS  /tmp/ccYWnEX8.s 			page 74


 3554              	.LASF48:
 3555 0777 43414E31 		.ascii	"CAN1_SCE_IRQn\000"
 3555      5F534345 
 3555      5F495251 
 3555      6E00
 3556              	.LASF31:
 3557 0785 5243435F 		.ascii	"RCC_IRQn\000"
 3557      4952516E 
 3557      00
 3558              	.LASF55:
 3559 078e 54494D33 		.ascii	"TIM3_IRQn\000"
 3559      5F495251 
 3559      6E00
 3560              	.LASF33:
 3561 0798 45585449 		.ascii	"EXTI1_IRQn\000"
 3561      315F4952 
 3561      516E00
 3562              		.ident	"GCC: (GNU Arm Embedded Toolchain 10.3-2021.10) 10.3.1 20210824 (release)"
ARM GAS  /tmp/ccYWnEX8.s 			page 75


DEFINED SYMBOLS
                            *ABS*:0000000000000000 main.c
     /tmp/ccYWnEX8.s:77     .text:0000000000000000 $t
     /tmp/ccYWnEX8.s:82     .text:0000000000000000 task2
     /tmp/ccYWnEX8.s:140    .text:0000000000000028 $d
     /tmp/ccYWnEX8.s:149    .text:0000000000000030 $t
     /tmp/ccYWnEX8.s:154    .text:0000000000000030 task1
     /tmp/ccYWnEX8.s:229    .text:0000000000000088 $d
     /tmp/ccYWnEX8.s:236    .text:0000000000000098 $t
     /tmp/ccYWnEX8.s:242    .text:0000000000000098 ADC1_configure
     /tmp/ccYWnEX8.s:370    .text:0000000000000118 $d
     /tmp/ccYWnEX8.s:376    .text:0000000000000124 $t
     /tmp/ccYWnEX8.s:382    .text:0000000000000124 set_system_clock_to_72Mhz
     /tmp/ccYWnEX8.s:490    .text:0000000000000194 $d
     /tmp/ccYWnEX8.s:494    .text:0000000000000198 $t
     /tmp/ccYWnEX8.s:500    .text:0000000000000198 Delay
     /tmp/ccYWnEX8.s:571    .text:00000000000001c4 $d
     /tmp/ccYWnEX8.s:575    .text:00000000000001c8 $t
     /tmp/ccYWnEX8.s:581    .text:00000000000001c8 enable_TIM3_delay
     /tmp/ccYWnEX8.s:619    .text:00000000000001ec $d
     /tmp/ccYWnEX8.s:623    .text:00000000000001f0 $t
     /tmp/ccYWnEX8.s:629    .text:00000000000001f0 enable_interrupt
     /tmp/ccYWnEX8.s:661    .text:0000000000000204 $d
     /tmp/ccYWnEX8.s:665    .text:0000000000000208 $t
     /tmp/ccYWnEX8.s:671    .text:0000000000000208 disable_interrupt
     /tmp/ccYWnEX8.s:704    .text:0000000000000220 $d
     /tmp/ccYWnEX8.s:714    .text.startup:0000000000000000 $t
     /tmp/ccYWnEX8.s:720    .text.startup:0000000000000000 main
     /tmp/ccYWnEX8.s:775    .text.startup:000000000000003c $d

UNDEFINED SYMBOLS
vTaskDelay
disp_init
disp_cmd
disp_text
xQueueGenericCreate
xTaskCreate
vTaskStartScheduler
