ARM GAS  /tmp/ccb3qL8s.s 			page 1


   1              		.cpu cortex-m3
   2              		.arch armv7-m
   3              		.fpu softvfp
   4              		.eabi_attribute 20, 1	@ Tag_ABI_FP_denormal
   5              		.eabi_attribute 21, 1	@ Tag_ABI_FP_exceptions
   6              		.eabi_attribute 23, 3	@ Tag_ABI_FP_number_model
   7              		.eabi_attribute 24, 1	@ Tag_ABI_align8_needed
   8              		.eabi_attribute 25, 1	@ Tag_ABI_align8_preserved
   9              		.eabi_attribute 26, 1	@ Tag_ABI_enum_size
  10              		.eabi_attribute 30, 4	@ Tag_ABI_optimization_goals
  11              		.eabi_attribute 34, 1	@ Tag_CPU_unaligned_access
  12              		.eabi_attribute 18, 4	@ Tag_ABI_PCS_wchar_t
  13              		.file	"main.c"
  14              	@ GNU C17 (GNU Arm Embedded Toolchain 10.3-2021.10) version 10.3.1 20210824 (release) (arm-none-eab
  15              	@	compiled by GNU C version 4.8.4, GMP version 6.1.0, MPFR version 3.1.4, MPC version 1.0.3, isl ve
  16              	
  17              	@ GGC heuristics: --param ggc-min-expand=100 --param ggc-min-heapsize=131072
  18              	@ options passed:  -I . -I ../3-ComProcessos
  19              	@ -I ../stm32f10x_lib/CMSIS/CM3/CoreSupport
  20              	@ -I ../stm32f10x_lib/CMSIS/CM3/DeviceSupport/ST/STM32F10x
  21              	@ -I ../stm32f10x_lib/STM32F10x_StdPeriph_Driver/inc
  22              	@ -I ../stm32f10x_lib/STM32F10x_StdPeriph_Driver -I ../freertos/include
  23              	@ -I ../freertos/portable/GCC/ARM_CM3 -imultilib thumb/v7-m/nofp
  24              	@ -iprefix /usr/bin/../lib/gcc/arm-none-eabi/10.3.1/
  25              	@ -isysroot /usr/bin/../arm-none-eabi -D__USES_INITFINI__ -D STM32F10X_MD
  26              	@ -D USE_STDPERIPH_DRIVER -D HSE_VALUE=8000000 -D RUN_FROM_FLASH=1
  27              	@ ../3-ComProcessos/main.c -mcpu=cortex-m3 -mthumb -mfloat-abi=soft
  28              	@ -mlibarch=armv7-m -march=armv7-m -auxbase-strip ../3-ComProcessos/main.o
  29              	@ -g -gdwarf-2 -Os -Wall -fomit-frame-pointer -fverbose-asm
  30              	@ options enabled:  -faggressive-loop-optimizations -fallocation-dce
  31              	@ -fauto-inc-dec -fbranch-count-reg -fcaller-saves -fcode-hoisting
  32              	@ -fcombine-stack-adjustments -fcompare-elim -fcprop-registers
  33              	@ -fcrossjumping -fcse-follow-jumps -fdefer-pop
  34              	@ -fdelete-null-pointer-checks -fdevirtualize -fdevirtualize-speculatively
  35              	@ -fdwarf2-cfi-asm -fearly-inlining -feliminate-unused-debug-symbols
  36              	@ -feliminate-unused-debug-types -fexpensive-optimizations
  37              	@ -fforward-propagate -ffp-int-builtin-inexact -ffunction-cse -fgcse
  38              	@ -fgcse-lm -fgnu-unique -fguess-branch-probability -fhoist-adjacent-loads
  39              	@ -fident -fif-conversion -fif-conversion2 -findirect-inlining -finline
  40              	@ -finline-atomics -finline-functions -finline-functions-called-once
  41              	@ -finline-small-functions -fipa-bit-cp -fipa-cp -fipa-icf
  42              	@ -fipa-icf-functions -fipa-icf-variables -fipa-profile -fipa-pure-const
  43              	@ -fipa-ra -fipa-reference -fipa-reference-addressable -fipa-sra
  44              	@ -fipa-stack-alignment -fipa-vrp -fira-hoist-pressure
  45              	@ -fira-share-save-slots -fira-share-spill-slots
  46              	@ -fisolate-erroneous-paths-dereference -fivopts -fkeep-static-consts
  47              	@ -fleading-underscore -flifetime-dse -flra-remat -fmath-errno
  48              	@ -fmerge-constants -fmerge-debug-strings -fmove-loop-invariants
  49              	@ -fomit-frame-pointer -foptimize-sibling-calls -fpartial-inlining
  50              	@ -fpeephole -fpeephole2 -fplt -fprefetch-loop-arrays -freg-struct-return
  51              	@ -freorder-blocks -freorder-functions -frerun-cse-after-loop
  52              	@ -fsched-critical-path-heuristic -fsched-dep-count-heuristic
  53              	@ -fsched-group-heuristic -fsched-interblock -fsched-last-insn-heuristic
  54              	@ -fsched-pressure -fsched-rank-heuristic -fsched-spec
  55              	@ -fsched-spec-insn-heuristic -fsched-stalled-insns-dep -fschedule-insns2
  56              	@ -fsection-anchors -fsemantic-interposition -fshow-column
  57              	@ -fshrink-wrap-separate -fsigned-zeros -fsplit-ivs-in-unroller
ARM GAS  /tmp/ccb3qL8s.s 			page 2


  58              	@ -fsplit-wide-types -fssa-backprop -fssa-phiopt -fstdarg-opt
  59              	@ -fstore-merging -fstrict-aliasing -fstrict-volatile-bitfields
  60              	@ -fsync-libcalls -fthread-jumps -ftoplevel-reorder -ftrapping-math
  61              	@ -ftree-bit-ccp -ftree-builtin-call-dce -ftree-ccp -ftree-ch
  62              	@ -ftree-coalesce-vars -ftree-copy-prop -ftree-cselim -ftree-dce
  63              	@ -ftree-dominator-opts -ftree-dse -ftree-forwprop -ftree-fre
  64              	@ -ftree-loop-distribute-patterns -ftree-loop-if-convert -ftree-loop-im
  65              	@ -ftree-loop-ivcanon -ftree-loop-optimize -ftree-parallelize-loops=
  66              	@ -ftree-phiprop -ftree-pre -ftree-pta -ftree-reassoc -ftree-scev-cprop
  67              	@ -ftree-sink -ftree-slsr -ftree-sra -ftree-switch-conversion
  68              	@ -ftree-tail-merge -ftree-ter -ftree-vrp -funit-at-a-time -fvar-tracking
  69              	@ -fvar-tracking-assignments -fverbose-asm -fzero-initialized-in-bss
  70              	@ -masm-syntax-unified -mbe32 -mfix-cortex-m3-ldrd -mlittle-endian
  71              	@ -mpic-data-is-text-relative -msched-prolog -mthumb -munaligned-access
  72              	@ -mvectorize-with-neon-quad
  73              	
  74              		.text
  75              	.Ltext0:
  76              		.cfi_sections	.debug_frame
  77              		.align	1
  78              		.syntax unified
  79              		.thumb
  80              		.thumb_func
  81              		.type	task3, %function
  82              	task3:
  83              	.LFB42:
  84              		.file 1 "../3-ComProcessos/main.c"
   1:../3-ComProcessos/main.c **** #include "stm32f10x.h"
   2:../3-ComProcessos/main.c **** #include "Me.h"
   3:../3-ComProcessos/main.c **** 
   4:../3-ComProcessos/main.c **** // FreeRTOS: 
   5:../3-ComProcessos/main.c **** #include "FreeRTOS.h"
   6:../3-ComProcessos/main.c **** #include "queue.h"
   7:../3-ComProcessos/main.c **** #include "task.h"
   8:../3-ComProcessos/main.c **** 
   9:../3-ComProcessos/main.c **** // LCD 16x2
  10:../3-ComProcessos/main.c **** #include "delay.h"
  11:../3-ComProcessos/main.c **** #include "lcd16x2.h"
  12:../3-ComProcessos/main.c **** 
  13:../3-ComProcessos/main.c **** #define __delay_ms( TEMPO ) vTaskDelay(pdMS_TO_TICKS( TEMPO ))
  14:../3-ComProcessos/main.c **** #define __delay( TEMPO ) vTaskDelay( TEMPO )
  15:../3-ComProcessos/main.c **** 
  16:../3-ComProcessos/main.c **** static QueueHandle_t xQueue; 
  17:../3-ComProcessos/main.c **** 
  18:../3-ComProcessos/main.c **** static void task1(void *args __attribute((unused))) {
  19:../3-ComProcessos/main.c **** 	while(1){
  20:../3-ComProcessos/main.c **** 		lcd16x2_put_custom_char(0, 0, 0);
  21:../3-ComProcessos/main.c **** 		lcd16x2_puts(" Battery Low");
  22:../3-ComProcessos/main.c **** 		DelayMs(500);
  23:../3-ComProcessos/main.c **** 		// Clear display
  24:../3-ComProcessos/main.c **** 		lcd16x2_clrscr();
  25:../3-ComProcessos/main.c **** 		DelayMs(500);
  26:../3-ComProcessos/main.c **** 	}
  27:../3-ComProcessos/main.c **** }
  28:../3-ComProcessos/main.c **** 
  29:../3-ComProcessos/main.c **** static void task2(void *args __attribute ((unused))){
  30:../3-ComProcessos/main.c **** 	RCC->APB2ENR |= (1<<4); // En GPIOC
ARM GAS  /tmp/ccb3qL8s.s 			page 3


  31:../3-ComProcessos/main.c **** 	GPIOC->CRH	|= (0b11<< 20); // PC13 out PP 
  32:../3-ComProcessos/main.c **** 
  33:../3-ComProcessos/main.c **** 	while(1){
  34:../3-ComProcessos/main.c **** 		GPIOC->ODR	^= (1<<13);
  35:../3-ComProcessos/main.c **** 		__delay(50);
  36:../3-ComProcessos/main.c **** 	}
  37:../3-ComProcessos/main.c **** }
  38:../3-ComProcessos/main.c **** 
  39:../3-ComProcessos/main.c **** static void task3(void *args __attribute ((unused))){
  85              		.loc 1 39 53 view -0
  86              		.cfi_startproc
  87              		@ Volatile: function does not return.
  88              		@ args = 0, pretend = 0, frame = 0
  89              		@ frame_needed = 0, uses_anonymous_args = 0
  90              		@ link register save eliminated.
  91              	.LVL0:
  92              	.L2:
  40:../3-ComProcessos/main.c **** 	while(1){
  93              		.loc 1 40 2 discriminator 1 view .LVU1
  41:../3-ComProcessos/main.c **** 	}
  94              		.loc 1 41 2 discriminator 1 view .LVU2
  40:../3-ComProcessos/main.c **** 	while(1){
  95              		.loc 1 40 7 discriminator 1 view .LVU3
  96 0000 FEE7     		b	.L2		@
  97              		.cfi_endproc
  98              	.LFE42:
  99              		.size	task3, .-task3
 100              		.align	1
 101              		.syntax unified
 102              		.thumb
 103              		.thumb_func
 104              		.type	task2, %function
 105              	task2:
 106              	.LVL1:
 107              	.LFB41:
  29:../3-ComProcessos/main.c **** 	RCC->APB2ENR |= (1<<4); // En GPIOC
 108              		.loc 1 29 53 view -0
 109              		.cfi_startproc
 110              		@ Volatile: function does not return.
 111              		@ args = 0, pretend = 0, frame = 0
 112              		@ frame_needed = 0, uses_anonymous_args = 0
  30:../3-ComProcessos/main.c **** 	GPIOC->CRH	|= (0b11<< 20); // PC13 out PP 
 113              		.loc 1 30 2 view .LVU5
 114              	@ ../3-ComProcessos/main.c:30: 	RCC->APB2ENR |= (1<<4); // En GPIOC
  30:../3-ComProcessos/main.c **** 	GPIOC->CRH	|= (0b11<< 20); // PC13 out PP 
 115              		.loc 1 30 15 is_stmt 0 view .LVU6
 116 0002 094A     		ldr	r2, .L5	@ tmp120,
 117              	@ ../3-ComProcessos/main.c:29: static void task2(void *args __attribute ((unused))){
  29:../3-ComProcessos/main.c **** 	RCC->APB2ENR |= (1<<4); // En GPIOC
 118              		.loc 1 29 53 view .LVU7
 119 0004 08B5     		push	{r3, lr}	@
 120              	.LCFI0:
 121              		.cfi_def_cfa_offset 8
 122              		.cfi_offset 3, -8
 123              		.cfi_offset 14, -4
 124              	@ ../3-ComProcessos/main.c:30: 	RCC->APB2ENR |= (1<<4); // En GPIOC
  30:../3-ComProcessos/main.c **** 	GPIOC->CRH	|= (0b11<< 20); // PC13 out PP 
ARM GAS  /tmp/ccb3qL8s.s 			page 4


 125              		.loc 1 30 15 view .LVU8
 126 0006 9369     		ldr	r3, [r2, #24]	@ _1, MEM[(struct RCC_TypeDef *)1073876992B].APB2ENR
 127              	@ ../3-ComProcessos/main.c:31: 	GPIOC->CRH	|= (0b11<< 20); // PC13 out PP 
  31:../3-ComProcessos/main.c **** 
 128              		.loc 1 31 13 view .LVU9
 129 0008 084C     		ldr	r4, .L5+4	@ tmp122,
 130              	@ ../3-ComProcessos/main.c:30: 	RCC->APB2ENR |= (1<<4); // En GPIOC
  30:../3-ComProcessos/main.c **** 	GPIOC->CRH	|= (0b11<< 20); // PC13 out PP 
 131              		.loc 1 30 15 view .LVU10
 132 000a 43F01003 		orr	r3, r3, #16	@ _2, _1,
 133 000e 9361     		str	r3, [r2, #24]	@ _2, MEM[(struct RCC_TypeDef *)1073876992B].APB2ENR
  31:../3-ComProcessos/main.c **** 
 134              		.loc 1 31 2 is_stmt 1 view .LVU11
 135              	@ ../3-ComProcessos/main.c:31: 	GPIOC->CRH	|= (0b11<< 20); // PC13 out PP 
  31:../3-ComProcessos/main.c **** 
 136              		.loc 1 31 13 is_stmt 0 view .LVU12
 137 0010 6368     		ldr	r3, [r4, #4]	@ _3, MEM[(struct GPIO_TypeDef *)1073811456B].CRH
 138 0012 43F44013 		orr	r3, r3, #3145728	@ _4, _3,
 139 0016 6360     		str	r3, [r4, #4]	@ _4, MEM[(struct GPIO_TypeDef *)1073811456B].CRH
 140              	.LVL2:
 141              	.L4:
  33:../3-ComProcessos/main.c **** 		GPIOC->ODR	^= (1<<13);
 142              		.loc 1 33 2 is_stmt 1 discriminator 1 view .LVU13
  34:../3-ComProcessos/main.c **** 		__delay(50);
 143              		.loc 1 34 3 discriminator 1 view .LVU14
 144              	@ ../3-ComProcessos/main.c:34: 		GPIOC->ODR	^= (1<<13);
  34:../3-ComProcessos/main.c **** 		__delay(50);
 145              		.loc 1 34 14 is_stmt 0 discriminator 1 view .LVU15
 146 0018 E368     		ldr	r3, [r4, #12]	@ _5, MEM[(struct GPIO_TypeDef *)1073811456B].ODR
 147              	@ ../3-ComProcessos/main.c:35: 		__delay(50);
  35:../3-ComProcessos/main.c **** 	}
 148              		.loc 1 35 3 discriminator 1 view .LVU16
 149 001a 3220     		movs	r0, #50	@,
 150              	@ ../3-ComProcessos/main.c:34: 		GPIOC->ODR	^= (1<<13);
  34:../3-ComProcessos/main.c **** 		__delay(50);
 151              		.loc 1 34 14 discriminator 1 view .LVU17
 152 001c 83F40053 		eor	r3, r3, #8192	@ _6, _5,
 153 0020 E360     		str	r3, [r4, #12]	@ _6, MEM[(struct GPIO_TypeDef *)1073811456B].ODR
  35:../3-ComProcessos/main.c **** 	}
 154              		.loc 1 35 3 is_stmt 1 discriminator 1 view .LVU18
 155 0022 FFF7FEFF 		bl	vTaskDelay		@
 156              	.LVL3:
  33:../3-ComProcessos/main.c **** 		GPIOC->ODR	^= (1<<13);
 157              		.loc 1 33 7 discriminator 1 view .LVU19
 158 0026 F7E7     		b	.L4		@
 159              	.L6:
 160              		.align	2
 161              	.L5:
 162 0028 00100240 		.word	1073876992
 163 002c 00100140 		.word	1073811456
 164              		.cfi_endproc
 165              	.LFE41:
 166              		.size	task2, .-task2
 167              		.section	.rodata.str1.1,"aMS",%progbits,1
 168              	.LC0:
 169 0000 20426174 		.ascii	" Battery Low\000"
 169      74657279 
ARM GAS  /tmp/ccb3qL8s.s 			page 5


 169      204C6F77 
 169      00
 170              		.text
 171              		.align	1
 172              		.syntax unified
 173              		.thumb
 174              		.thumb_func
 175              		.type	task1, %function
 176              	task1:
 177              	.LVL4:
 178              	.LFB40:
  18:../3-ComProcessos/main.c **** 	while(1){
 179              		.loc 1 18 53 view -0
 180              		.cfi_startproc
 181              		@ Volatile: function does not return.
 182              		@ args = 0, pretend = 0, frame = 0
 183              		@ frame_needed = 0, uses_anonymous_args = 0
  18:../3-ComProcessos/main.c **** 	while(1){
 184              		.loc 1 18 53 is_stmt 0 view .LVU21
 185 0030 08B5     		push	{r3, lr}	@
 186              	.LCFI1:
 187              		.cfi_def_cfa_offset 8
 188              		.cfi_offset 3, -8
 189              		.cfi_offset 14, -4
 190              	@ ../3-ComProcessos/main.c:21: 		lcd16x2_puts(" Battery Low");
  21:../3-ComProcessos/main.c **** 		DelayMs(500);
 191              		.loc 1 21 3 view .LVU22
 192 0032 0A4C     		ldr	r4, .L9	@ tmp116,
 193              	.LVL5:
 194              	.L8:
  19:../3-ComProcessos/main.c **** 		lcd16x2_put_custom_char(0, 0, 0);
 195              		.loc 1 19 2 is_stmt 1 discriminator 1 view .LVU23
  20:../3-ComProcessos/main.c **** 		lcd16x2_puts(" Battery Low");
 196              		.loc 1 20 3 discriminator 1 view .LVU24
 197 0034 0022     		movs	r2, #0	@,
 198 0036 1046     		mov	r0, r2	@,
 199 0038 1146     		mov	r1, r2	@,
 200 003a FFF7FEFF 		bl	lcd16x2_put_custom_char		@
 201              	.LVL6:
  21:../3-ComProcessos/main.c **** 		DelayMs(500);
 202              		.loc 1 21 3 discriminator 1 view .LVU25
 203 003e 2046     		mov	r0, r4	@, tmp116
 204 0040 FFF7FEFF 		bl	lcd16x2_puts		@
 205              	.LVL7:
  22:../3-ComProcessos/main.c **** 		// Clear display
 206              		.loc 1 22 3 discriminator 1 view .LVU26
 207 0044 4FF4FA70 		mov	r0, #500	@,
 208 0048 FFF7FEFF 		bl	DelayMs		@
 209              	.LVL8:
  24:../3-ComProcessos/main.c **** 		DelayMs(500);
 210              		.loc 1 24 3 discriminator 1 view .LVU27
 211 004c FFF7FEFF 		bl	lcd16x2_clrscr		@
 212              	.LVL9:
  25:../3-ComProcessos/main.c **** 	}
 213              		.loc 1 25 3 discriminator 1 view .LVU28
 214 0050 4FF4FA70 		mov	r0, #500	@,
 215 0054 FFF7FEFF 		bl	DelayMs		@
ARM GAS  /tmp/ccb3qL8s.s 			page 6


 216              	.LVL10:
  19:../3-ComProcessos/main.c **** 		lcd16x2_put_custom_char(0, 0, 0);
 217              		.loc 1 19 7 discriminator 1 view .LVU29
 218 0058 ECE7     		b	.L8		@
 219              	.L10:
 220 005a 00BF     		.align	2
 221              	.L9:
 222 005c 00000000 		.word	.LC0
 223              		.cfi_endproc
 224              	.LFE40:
 225              		.size	task1, .-task1
 226              		.align	1
 227              		.global	ADC1_configure
 228              		.syntax unified
 229              		.thumb
 230              		.thumb_func
 231              		.type	ADC1_configure, %function
 232              	ADC1_configure:
 233              	.LFB29:
 234              		.file 2 "../3-ComProcessos/Me.h"
   1:../3-ComProcessos/Me.h **** #define __IO volatile
   2:../3-ComProcessos/Me.h **** 
   3:../3-ComProcessos/Me.h **** void SystemInit (void);
   4:../3-ComProcessos/Me.h **** void nvic_IntDisble(u8 IRQn);
   5:../3-ComProcessos/Me.h **** void nvic_intEnable(u8 IRQn);
   6:../3-ComProcessos/Me.h **** void set_system_clock_to_25Mhz (void);
   7:../3-ComProcessos/Me.h **** void set_system_clock_to_72Mhz(void);
   8:../3-ComProcessos/Me.h **** void Delay ( __IO u32 T );
   9:../3-ComProcessos/Me.h **** void enable_TIM3_delay (void);
  10:../3-ComProcessos/Me.h **** void ADC1_configure();
  11:../3-ComProcessos/Me.h **** 
  12:../3-ComProcessos/Me.h **** void ADC1_configure(){
 235              		.loc 2 12 22 view -0
 236              		.cfi_startproc
 237              		@ args = 0, pretend = 0, frame = 0
 238              		@ frame_needed = 0, uses_anonymous_args = 0
 239              		@ link register save eliminated.
  13:../3-ComProcessos/Me.h **** 	RCC->APB2ENR |= 1UL<<2 ; // Hab. GPIOA
 240              		.loc 2 13 2 view .LVU31
 241              	@ ../3-ComProcessos/Me.h:13: 	RCC->APB2ENR |= 1UL<<2 ; // Hab. GPIOA
 242              		.loc 2 13 15 is_stmt 0 view .LVU32
 243 0060 1F4B     		ldr	r3, .L16	@ tmp141,
 244              	@ ../3-ComProcessos/Me.h:14: 	GPIOA->CRL &= ~(0x0F << 4); // Define A1 Input Analogic
  14:../3-ComProcessos/Me.h **** 	GPIOA->CRL &= ~(0x0F << 4); // Define A1 Input Analogic
 245              		.loc 2 14 13 view .LVU33
 246 0062 2049     		ldr	r1, .L16+4	@ tmp143,
 247              	@ ../3-ComProcessos/Me.h:13: 	RCC->APB2ENR |= 1UL<<2 ; // Hab. GPIOA
  13:../3-ComProcessos/Me.h **** 	RCC->APB2ENR |= 1UL<<2 ; // Hab. GPIOA
 248              		.loc 2 13 15 view .LVU34
 249 0064 9A69     		ldr	r2, [r3, #24]	@ _1, MEM[(struct RCC_TypeDef *)1073876992B].APB2ENR
 250 0066 42F00402 		orr	r2, r2, #4	@ _2, _1,
 251 006a 9A61     		str	r2, [r3, #24]	@ _2, MEM[(struct RCC_TypeDef *)1073876992B].APB2ENR
 252              		.loc 2 14 2 is_stmt 1 view .LVU35
 253              	@ ../3-ComProcessos/Me.h:14: 	GPIOA->CRL &= ~(0x0F << 4); // Define A1 Input Analogic
 254              		.loc 2 14 13 is_stmt 0 view .LVU36
 255 006c 0A68     		ldr	r2, [r1]	@ _3, MEM[(struct GPIO_TypeDef *)1073809408B].CRL
 256 006e 22F0F002 		bic	r2, r2, #240	@ _4, _3,
ARM GAS  /tmp/ccb3qL8s.s 			page 7


 257 0072 0A60     		str	r2, [r1]	@ _4, MEM[(struct GPIO_TypeDef *)1073809408B].CRL
  15:../3-ComProcessos/Me.h **** 	
  16:../3-ComProcessos/Me.h **** 	RCC->APB2ENR |= (1<<9); // Bit 9 ADC1EN: ADC 1 
 258              		.loc 2 16 2 is_stmt 1 view .LVU37
 259              	@ ../3-ComProcessos/Me.h:16: 	RCC->APB2ENR |= (1<<9); // Bit 9 ADC1EN: ADC 1 
 260              		.loc 2 16 15 is_stmt 0 view .LVU38
 261 0074 9A69     		ldr	r2, [r3, #24]	@ _5, MEM[(struct RCC_TypeDef *)1073876992B].APB2ENR
 262 0076 42F40072 		orr	r2, r2, #512	@ _6, _5,
 263 007a 9A61     		str	r2, [r3, #24]	@ _6, MEM[(struct RCC_TypeDef *)1073876992B].APB2ENR
  17:../3-ComProcessos/Me.h **** 									// interface clock enable
  18:../3-ComProcessos/Me.h **** 
  19:../3-ComProcessos/Me.h **** 	RCC->CFGR	|= (0b10 << 14); // Bits 15:14 ADCPRE:
 264              		.loc 2 19 2 is_stmt 1 view .LVU39
 265              	@ ../3-ComProcessos/Me.h:19: 	RCC->CFGR	|= (0b10 << 14); // Bits 15:14 ADCPRE:
 266              		.loc 2 19 12 is_stmt 0 view .LVU40
 267 007c 5A68     		ldr	r2, [r3, #4]	@ _7, MEM[(struct RCC_TypeDef *)1073876992B].CFGR
 268 007e 42F40042 		orr	r2, r2, #32768	@ _8, _7,
 269 0082 5A60     		str	r2, [r3, #4]	@ _8, MEM[(struct RCC_TypeDef *)1073876992B].CFGR
  20:../3-ComProcessos/Me.h **** 										  // ADC prescaler 10:
  21:../3-ComProcessos/Me.h **** 										  //    PCLK2 divided by 6
  22:../3-ComProcessos/Me.h **** 	// Enable End of Conversion (EOC) interrupt
  23:../3-ComProcessos/Me.h **** 	ADC1->CR1 |= (1 << 5);
 270              		.loc 2 23 2 is_stmt 1 view .LVU41
 271              	@ ../3-ComProcessos/Me.h:23: 	ADC1->CR1 |= (1 << 5);
 272              		.loc 2 23 12 is_stmt 0 view .LVU42
 273 0084 A3F56C43 		sub	r3, r3, #60416	@ tmp149, tmp149,
 274 0088 5A68     		ldr	r2, [r3, #4]	@ _9, MEM[(struct ADC_TypeDef *)1073816576B].CR1
 275 008a 42F02002 		orr	r2, r2, #32	@ _10, _9,
 276 008e 5A60     		str	r2, [r3, #4]	@ _10, MEM[(struct ADC_TypeDef *)1073816576B].CR1
  24:../3-ComProcessos/Me.h **** 
  25:../3-ComProcessos/Me.h **** 	// One conversion
  26:../3-ComProcessos/Me.h **** 	ADC1->SQR1 = 0x00000000;
 277              		.loc 2 26 2 is_stmt 1 view .LVU43
 278              	@ ../3-ComProcessos/Me.h:26: 	ADC1->SQR1 = 0x00000000;
 279              		.loc 2 26 13 is_stmt 0 view .LVU44
 280 0090 0022     		movs	r2, #0	@ tmp152,
 281 0092 DA62     		str	r2, [r3, #44]	@ tmp152, MEM[(struct ADC_TypeDef *)1073816576B].SQR1
  27:../3-ComProcessos/Me.h **** 
  28:../3-ComProcessos/Me.h **** 	// Choose the analog channel to read
  29:../3-ComProcessos/Me.h **** 	// Since we want channel 10 to be the first
  30:../3-ComProcessos/Me.h **** 	//   conversion we write 10 to SQ1 bits (3:0)
  31:../3-ComProcessos/Me.h **** 	//   which is in SQR3 register. For multiple conversions
  32:../3-ComProcessos/Me.h **** 	//   keep writing the channel numbers to SQx bits.
  33:../3-ComProcessos/Me.h **** 	 ADC1->SQR3 = (10 << 0);
 282              		.loc 2 33 3 is_stmt 1 view .LVU45
 283              	@ ../3-ComProcessos/Me.h:33: 	 ADC1->SQR3 = (10 << 0);
 284              		.loc 2 33 14 is_stmt 0 view .LVU46
 285 0094 0A22     		movs	r2, #10	@ tmp154,
 286 0096 5A63     		str	r2, [r3, #52]	@ tmp154, MEM[(struct ADC_TypeDef *)1073816576B].SQR3
  34:../3-ComProcessos/Me.h **** 
  35:../3-ComProcessos/Me.h **** 	// Set up software trigger to start conversion
  36:../3-ComProcessos/Me.h **** 	ADC1->CR2 |= (7 << 17);  // Select SWSTART as trigger
 287              		.loc 2 36 2 is_stmt 1 view .LVU47
 288              	@ ../3-ComProcessos/Me.h:36: 	ADC1->CR2 |= (7 << 17);  // Select SWSTART as trigger
 289              		.loc 2 36 12 is_stmt 0 view .LVU48
 290 0098 9A68     		ldr	r2, [r3, #8]	@ _11, MEM[(struct ADC_TypeDef *)1073816576B].CR2
 291 009a 42F46022 		orr	r2, r2, #917504	@ _12, _11,
ARM GAS  /tmp/ccb3qL8s.s 			page 8


 292 009e 9A60     		str	r2, [r3, #8]	@ _12, MEM[(struct ADC_TypeDef *)1073816576B].CR2
  37:../3-ComProcessos/Me.h **** 	ADC1->CR2 |= (1 << 20);  // Enable external trigger
 293              		.loc 2 37 2 is_stmt 1 view .LVU49
 294              	@ ../3-ComProcessos/Me.h:37: 	ADC1->CR2 |= (1 << 20);  // Enable external trigger
 295              		.loc 2 37 12 is_stmt 0 view .LVU50
 296 00a0 9A68     		ldr	r2, [r3, #8]	@ _13, MEM[(struct ADC_TypeDef *)1073816576B].CR2
 297 00a2 42F48012 		orr	r2, r2, #1048576	@ _14, _13,
 298 00a6 9A60     		str	r2, [r3, #8]	@ _14, MEM[(struct ADC_TypeDef *)1073816576B].CR2
  38:../3-ComProcessos/Me.h **** 
  39:../3-ComProcessos/Me.h **** 	// Enable continuous conversion
  40:../3-ComProcessos/Me.h **** 	ADC1->CR2 |= (1 << 1);
 299              		.loc 2 40 2 is_stmt 1 view .LVU51
 300              	@ ../3-ComProcessos/Me.h:40: 	ADC1->CR2 |= (1 << 1);
 301              		.loc 2 40 12 is_stmt 0 view .LVU52
 302 00a8 9A68     		ldr	r2, [r3, #8]	@ _15, MEM[(struct ADC_TypeDef *)1073816576B].CR2
 303 00aa 42F00202 		orr	r2, r2, #2	@ _16, _15,
 304 00ae 9A60     		str	r2, [r3, #8]	@ _16, MEM[(struct ADC_TypeDef *)1073816576B].CR2
  41:../3-ComProcessos/Me.h **** 
  42:../3-ComProcessos/Me.h **** 	// enable_interrupt(ADC1_2_IRQn);
  43:../3-ComProcessos/Me.h **** 
  44:../3-ComProcessos/Me.h **** 	// Enable A/D conversion
  45:../3-ComProcessos/Me.h **** 	ADC1->CR2 |= (1 << 0);
 305              		.loc 2 45 2 is_stmt 1 view .LVU53
 306              	@ ../3-ComProcessos/Me.h:45: 	ADC1->CR2 |= (1 << 0);
 307              		.loc 2 45 12 is_stmt 0 view .LVU54
 308 00b0 9A68     		ldr	r2, [r3, #8]	@ _17, MEM[(struct ADC_TypeDef *)1073816576B].CR2
 309 00b2 42F00102 		orr	r2, r2, #1	@ _18, _17,
 310 00b6 9A60     		str	r2, [r3, #8]	@ _18, MEM[(struct ADC_TypeDef *)1073816576B].CR2
  46:../3-ComProcessos/Me.h **** 
  47:../3-ComProcessos/Me.h **** 	// Calibration reset and start
  48:../3-ComProcessos/Me.h **** 	//    Optional for better accuracy.
  49:../3-ComProcessos/Me.h **** 	ADC1->CR2 |= (1 << 3);
 311              		.loc 2 49 2 is_stmt 1 view .LVU55
 312              	@ ../3-ComProcessos/Me.h:49: 	ADC1->CR2 |= (1 << 3);
 313              		.loc 2 49 12 is_stmt 0 view .LVU56
 314 00b8 9A68     		ldr	r2, [r3, #8]	@ _19, MEM[(struct ADC_TypeDef *)1073816576B].CR2
 315 00ba 42F00802 		orr	r2, r2, #8	@ _20, _19,
 316 00be 9A60     		str	r2, [r3, #8]	@ _20, MEM[(struct ADC_TypeDef *)1073816576B].CR2
  50:../3-ComProcessos/Me.h **** 	while((ADC1->CR2 & (1 << 3)));
 317              		.loc 2 50 2 is_stmt 1 view .LVU57
 318              	.L12:
 319              		.loc 2 50 31 discriminator 1 view .LVU58
 320              		.loc 2 50 7 discriminator 1 view .LVU59
 321              	@ ../3-ComProcessos/Me.h:50: 	while((ADC1->CR2 & (1 << 3)));
 322              		.loc 2 50 13 is_stmt 0 discriminator 1 view .LVU60
 323 00c0 9A68     		ldr	r2, [r3, #8]	@ _21, MEM[(struct ADC_TypeDef *)1073816576B].CR2
 324              	@ ../3-ComProcessos/Me.h:50: 	while((ADC1->CR2 & (1 << 3)));
 325              		.loc 2 50 7 discriminator 1 view .LVU61
 326 00c2 1107     		lsls	r1, r2, #28	@, _21,
 327 00c4 FCD4     		bmi	.L12		@,
  51:../3-ComProcessos/Me.h **** 	ADC1->CR2 |= (1 << 2);
 328              		.loc 2 51 2 is_stmt 1 view .LVU62
 329              	@ ../3-ComProcessos/Me.h:51: 	ADC1->CR2 |= (1 << 2);
 330              		.loc 2 51 12 is_stmt 0 view .LVU63
 331 00c6 9A68     		ldr	r2, [r3, #8]	@ _23, MEM[(struct ADC_TypeDef *)1073816576B].CR2
 332 00c8 42F00402 		orr	r2, r2, #4	@ _24, _23,
 333 00cc 9A60     		str	r2, [r3, #8]	@ _24, MEM[(struct ADC_TypeDef *)1073816576B].CR2
ARM GAS  /tmp/ccb3qL8s.s 			page 9


  52:../3-ComProcessos/Me.h **** 	while((ADC1->CR2 & (1 << 2)));
 334              		.loc 2 52 2 is_stmt 1 view .LVU64
 335              	@ ../3-ComProcessos/Me.h:52: 	while((ADC1->CR2 & (1 << 2)));
 336              		.loc 2 52 13 is_stmt 0 view .LVU65
 337 00ce 064B     		ldr	r3, .L16+8	@ tmp169,
 338              	.L13:
 339              		.loc 2 52 31 is_stmt 1 discriminator 1 view .LVU66
 340              		.loc 2 52 7 discriminator 1 view .LVU67
 341              	@ ../3-ComProcessos/Me.h:52: 	while((ADC1->CR2 & (1 << 2)));
 342              		.loc 2 52 13 is_stmt 0 discriminator 1 view .LVU68
 343 00d0 9A68     		ldr	r2, [r3, #8]	@ _25, MEM[(struct ADC_TypeDef *)1073816576B].CR2
 344              	@ ../3-ComProcessos/Me.h:52: 	while((ADC1->CR2 & (1 << 2)));
 345              		.loc 2 52 7 discriminator 1 view .LVU69
 346 00d2 5207     		lsls	r2, r2, #29	@, _25,
 347 00d4 FCD4     		bmi	.L13		@,
  53:../3-ComProcessos/Me.h **** 
  54:../3-ComProcessos/Me.h **** 	// Start conversion with software trigger
  55:../3-ComProcessos/Me.h **** 	ADC1->CR2 |= (1<<22);
 348              		.loc 2 55 2 is_stmt 1 view .LVU70
 349              	@ ../3-ComProcessos/Me.h:55: 	ADC1->CR2 |= (1<<22);
 350              		.loc 2 55 12 is_stmt 0 view .LVU71
 351 00d6 9A68     		ldr	r2, [r3, #8]	@ _27, MEM[(struct ADC_TypeDef *)1073816576B].CR2
 352 00d8 42F48002 		orr	r2, r2, #4194304	@ _28, _27,
 353 00dc 9A60     		str	r2, [r3, #8]	@ _28, MEM[(struct ADC_TypeDef *)1073816576B].CR2
 354              	@ ../3-ComProcessos/Me.h:58: }
  56:../3-ComProcessos/Me.h **** 	//
  57:../3-ComProcessos/Me.h **** 	// Leitura  ADC1->DR  -> Data Register
  58:../3-ComProcessos/Me.h **** }
 355              		.loc 2 58 1 view .LVU72
 356 00de 7047     		bx	lr	@
 357              	.L17:
 358              		.align	2
 359              	.L16:
 360 00e0 00100240 		.word	1073876992
 361 00e4 00080140 		.word	1073809408
 362 00e8 00240140 		.word	1073816576
 363              		.cfi_endproc
 364              	.LFE29:
 365              		.size	ADC1_configure, .-ADC1_configure
 366              		.align	1
 367              		.global	set_system_clock_to_72Mhz
 368              		.syntax unified
 369              		.thumb
 370              		.thumb_func
 371              		.type	set_system_clock_to_72Mhz, %function
 372              	set_system_clock_to_72Mhz:
 373              	.LFB30:
  59:../3-ComProcessos/Me.h **** 
  60:../3-ComProcessos/Me.h **** void set_system_clock_to_72Mhz(void)
  61:../3-ComProcessos/Me.h **** {
 374              		.loc 2 61 1 is_stmt 1 view -0
 375              		.cfi_startproc
 376              		@ args = 0, pretend = 0, frame = 0
 377              		@ frame_needed = 0, uses_anonymous_args = 0
 378              		@ link register save eliminated.
  62:../3-ComProcessos/Me.h ****    // Necessary wait states for Flash for high speeds
  63:../3-ComProcessos/Me.h ****    FLASH->ACR = 0x12;
ARM GAS  /tmp/ccb3qL8s.s 			page 10


 379              		.loc 2 63 4 view .LVU74
 380              	@ ../3-ComProcessos/Me.h:63:    FLASH->ACR = 0x12;
 381              		.loc 2 63 15 is_stmt 0 view .LVU75
 382 00ec 1222     		movs	r2, #18	@ tmp140,
 383 00ee 1B4B     		ldr	r3, .L25	@ tmp139,
 384 00f0 1A60     		str	r2, [r3]	@ tmp140, MEM[(struct FLASH_TypeDef *)1073881088B].ACR
  64:../3-ComProcessos/Me.h ****    // Enable HSE
  65:../3-ComProcessos/Me.h ****    RCC->CR |= (1 << 16);
 385              		.loc 2 65 4 is_stmt 1 view .LVU76
 386              	@ ../3-ComProcessos/Me.h:65:    RCC->CR |= (1 << 16);
 387              		.loc 2 65 12 is_stmt 0 view .LVU77
 388 00f2 A3F58053 		sub	r3, r3, #4096	@ tmp141, tmp141,
 389 00f6 1A68     		ldr	r2, [r3]	@ _1, MEM[(struct RCC_TypeDef *)1073876992B].CR
 390 00f8 42F48032 		orr	r2, r2, #65536	@ _2, _1,
 391 00fc 1A60     		str	r2, [r3]	@ _2, MEM[(struct RCC_TypeDef *)1073876992B].CR
  66:../3-ComProcessos/Me.h ****    // Wait untill HSE settles down
  67:../3-ComProcessos/Me.h ****    while (!(RCC->CR & (1 << 17)));
 392              		.loc 2 67 4 is_stmt 1 view .LVU78
 393              	.L19:
 394              		.loc 2 67 34 discriminator 1 view .LVU79
 395              		.loc 2 67 10 discriminator 1 view .LVU80
 396              	@ ../3-ComProcessos/Me.h:67:    while (!(RCC->CR & (1 << 17)));
 397              		.loc 2 67 16 is_stmt 0 discriminator 1 view .LVU81
 398 00fe 1A68     		ldr	r2, [r3]	@ _3, MEM[(struct RCC_TypeDef *)1073876992B].CR
 399              	@ ../3-ComProcessos/Me.h:67:    while (!(RCC->CR & (1 << 17)));
 400              		.loc 2 67 10 discriminator 1 view .LVU82
 401 0100 9103     		lsls	r1, r2, #14	@, _3,
 402 0102 FCD5     		bpl	.L19		@,
  68:../3-ComProcessos/Me.h ****    // Set PREDIV2 division factor to 5
  69:../3-ComProcessos/Me.h ****    RCC->CFGR2 |= (0b0100 << 4);
 403              		.loc 2 69 4 is_stmt 1 view .LVU83
 404              	@ ../3-ComProcessos/Me.h:69:    RCC->CFGR2 |= (0b0100 << 4);
 405              		.loc 2 69 15 is_stmt 0 view .LVU84
 406 0104 DA6A     		ldr	r2, [r3, #44]	@ _5, MEM[(struct RCC_TypeDef *)1073876992B].CFGR2
 407 0106 42F04002 		orr	r2, r2, #64	@ _6, _5,
 408 010a DA62     		str	r2, [r3, #44]	@ _6, MEM[(struct RCC_TypeDef *)1073876992B].CFGR2
  70:../3-ComProcessos/Me.h ****    // Set PLL2 multiplication factor to 8
  71:../3-ComProcessos/Me.h ****    RCC->CFGR2 |= (0b0110 << 8);
 409              		.loc 2 71 4 is_stmt 1 view .LVU85
 410              	@ ../3-ComProcessos/Me.h:71:    RCC->CFGR2 |= (0b0110 << 8);
 411              		.loc 2 71 15 is_stmt 0 view .LVU86
 412 010c DA6A     		ldr	r2, [r3, #44]	@ _7, MEM[(struct RCC_TypeDef *)1073876992B].CFGR2
 413 010e 42F4C062 		orr	r2, r2, #1536	@ _8, _7,
 414 0112 DA62     		str	r2, [r3, #44]	@ _8, MEM[(struct RCC_TypeDef *)1073876992B].CFGR2
  72:../3-ComProcessos/Me.h ****    // Enable PLL2
  73:../3-ComProcessos/Me.h ****    RCC->CR |= (1 << 26);
 415              		.loc 2 73 4 is_stmt 1 view .LVU87
 416              	@ ../3-ComProcessos/Me.h:73:    RCC->CR |= (1 << 26);
 417              		.loc 2 73 12 is_stmt 0 view .LVU88
 418 0114 1A68     		ldr	r2, [r3]	@ _9, MEM[(struct RCC_TypeDef *)1073876992B].CR
 419 0116 42F08062 		orr	r2, r2, #67108864	@ _10, _9,
 420 011a 1A60     		str	r2, [r3]	@ _10, MEM[(struct RCC_TypeDef *)1073876992B].CR
  74:../3-ComProcessos/Me.h ****    // Wait untill PLL2 settles down
  75:../3-ComProcessos/Me.h **** 	// while (!(RCC->CR & (1 << 27)));
  76:../3-ComProcessos/Me.h ****    // Set PLL2 as PREDIV1 clock source
  77:../3-ComProcessos/Me.h ****    RCC->CFGR2 |= (1 << 16);
 421              		.loc 2 77 4 is_stmt 1 view .LVU89
ARM GAS  /tmp/ccb3qL8s.s 			page 11


 422              	@ ../3-ComProcessos/Me.h:77:    RCC->CFGR2 |= (1 << 16);
 423              		.loc 2 77 15 is_stmt 0 view .LVU90
 424 011c DA6A     		ldr	r2, [r3, #44]	@ _11, MEM[(struct RCC_TypeDef *)1073876992B].CFGR2
 425 011e 42F48032 		orr	r2, r2, #65536	@ _12, _11,
 426 0122 DA62     		str	r2, [r3, #44]	@ _12, MEM[(struct RCC_TypeDef *)1073876992B].CFGR2
  78:../3-ComProcessos/Me.h ****    // Set PREDIV1 division factor to 5
  79:../3-ComProcessos/Me.h ****    RCC->CFGR2 |= (0b0100 << 0);
 427              		.loc 2 79 4 is_stmt 1 view .LVU91
 428              	@ ../3-ComProcessos/Me.h:79:    RCC->CFGR2 |= (0b0100 << 0);
 429              		.loc 2 79 15 is_stmt 0 view .LVU92
 430 0124 DA6A     		ldr	r2, [r3, #44]	@ _13, MEM[(struct RCC_TypeDef *)1073876992B].CFGR2
 431 0126 42F00402 		orr	r2, r2, #4	@ _14, _13,
 432 012a DA62     		str	r2, [r3, #44]	@ _14, MEM[(struct RCC_TypeDef *)1073876992B].CFGR2
  80:../3-ComProcessos/Me.h ****    // Select Prediv1 as PLL source
  81:../3-ComProcessos/Me.h ****    RCC->CFGR |= (1 << 16);
 433              		.loc 2 81 4 is_stmt 1 view .LVU93
 434              	@ ../3-ComProcessos/Me.h:81:    RCC->CFGR |= (1 << 16);
 435              		.loc 2 81 14 is_stmt 0 view .LVU94
 436 012c 5A68     		ldr	r2, [r3, #4]	@ _15, MEM[(struct RCC_TypeDef *)1073876992B].CFGR
 437 012e 42F48032 		orr	r2, r2, #65536	@ _16, _15,
 438 0132 5A60     		str	r2, [r3, #4]	@ _16, MEM[(struct RCC_TypeDef *)1073876992B].CFGR
  82:../3-ComProcessos/Me.h ****    // Set PLL1 multiplication factor to 9
  83:../3-ComProcessos/Me.h ****    RCC->CFGR |= (0b0111 << 18);
 439              		.loc 2 83 4 is_stmt 1 view .LVU95
 440              	@ ../3-ComProcessos/Me.h:83:    RCC->CFGR |= (0b0111 << 18);
 441              		.loc 2 83 14 is_stmt 0 view .LVU96
 442 0134 5A68     		ldr	r2, [r3, #4]	@ _17, MEM[(struct RCC_TypeDef *)1073876992B].CFGR
 443 0136 42F4E012 		orr	r2, r2, #1835008	@ _18, _17,
 444 013a 5A60     		str	r2, [r3, #4]	@ _18, MEM[(struct RCC_TypeDef *)1073876992B].CFGR
  84:../3-ComProcessos/Me.h ****    // Set APB1 to 36MHz
  85:../3-ComProcessos/Me.h ****    RCC->CFGR |= 1 << 10;
 445              		.loc 2 85 4 is_stmt 1 view .LVU97
 446              	@ ../3-ComProcessos/Me.h:85:    RCC->CFGR |= 1 << 10;
 447              		.loc 2 85 14 is_stmt 0 view .LVU98
 448 013c 5A68     		ldr	r2, [r3, #4]	@ _19, MEM[(struct RCC_TypeDef *)1073876992B].CFGR
 449 013e 42F48062 		orr	r2, r2, #1024	@ _20, _19,
 450 0142 5A60     		str	r2, [r3, #4]	@ _20, MEM[(struct RCC_TypeDef *)1073876992B].CFGR
  86:../3-ComProcessos/Me.h ****    // Enable PLL
  87:../3-ComProcessos/Me.h ****    RCC->CR |= (1 << 24);
 451              		.loc 2 87 4 is_stmt 1 view .LVU99
 452              	@ ../3-ComProcessos/Me.h:87:    RCC->CR |= (1 << 24);
 453              		.loc 2 87 12 is_stmt 0 view .LVU100
 454 0144 1A68     		ldr	r2, [r3]	@ _21, MEM[(struct RCC_TypeDef *)1073876992B].CR
 455 0146 42F08072 		orr	r2, r2, #16777216	@ _22, _21,
 456 014a 1A60     		str	r2, [r3]	@ _22, MEM[(struct RCC_TypeDef *)1073876992B].CR
  88:../3-ComProcessos/Me.h ****    // Wait untill PLL settles down
  89:../3-ComProcessos/Me.h ****    while (!(RCC->CR & (1 << 25)));
 457              		.loc 2 89 4 is_stmt 1 view .LVU101
 458              	.L20:
 459              		.loc 2 89 34 discriminator 1 view .LVU102
 460              		.loc 2 89 10 discriminator 1 view .LVU103
 461              	@ ../3-ComProcessos/Me.h:89:    while (!(RCC->CR & (1 << 25)));
 462              		.loc 2 89 16 is_stmt 0 discriminator 1 view .LVU104
 463 014c 1A68     		ldr	r2, [r3]	@ _23, MEM[(struct RCC_TypeDef *)1073876992B].CR
 464              	@ ../3-ComProcessos/Me.h:89:    while (!(RCC->CR & (1 << 25)));
 465              		.loc 2 89 10 discriminator 1 view .LVU105
 466 014e 9201     		lsls	r2, r2, #6	@, _23,
ARM GAS  /tmp/ccb3qL8s.s 			page 12


 467 0150 FCD5     		bpl	.L20		@,
  90:../3-ComProcessos/Me.h ****    // Finally, choose PLL as the system clock
  91:../3-ComProcessos/Me.h ****    RCC->CFGR |= (0b10 << 0);
 468              		.loc 2 91 4 is_stmt 1 view .LVU106
 469              	@ ../3-ComProcessos/Me.h:91:    RCC->CFGR |= (0b10 << 0);
 470              		.loc 2 91 14 is_stmt 0 view .LVU107
 471 0152 5A68     		ldr	r2, [r3, #4]	@ _25, MEM[(struct RCC_TypeDef *)1073876992B].CFGR
 472 0154 42F00202 		orr	r2, r2, #2	@ _26, _25,
 473 0158 5A60     		str	r2, [r3, #4]	@ _26, MEM[(struct RCC_TypeDef *)1073876992B].CFGR
 474              	@ ../3-ComProcessos/Me.h:92: } 
  92:../3-ComProcessos/Me.h **** } 
 475              		.loc 2 92 1 view .LVU108
 476 015a 7047     		bx	lr	@
 477              	.L26:
 478              		.align	2
 479              	.L25:
 480 015c 00200240 		.word	1073881088
 481              		.cfi_endproc
 482              	.LFE30:
 483              		.size	set_system_clock_to_72Mhz, .-set_system_clock_to_72Mhz
 484              		.align	1
 485              		.global	Delay
 486              		.syntax unified
 487              		.thumb
 488              		.thumb_func
 489              		.type	Delay, %function
 490              	Delay:
 491              	.LVL11:
 492              	.LFB31:
  93:../3-ComProcessos/Me.h **** 
  94:../3-ComProcessos/Me.h **** void Delay ( __IO u32 T ) { // T=1 ;  868µs -> T=1 ~ 526µs
 493              		.loc 2 94 27 is_stmt 1 view -0
 494              		.cfi_startproc
 495              		@ args = 0, pretend = 0, frame = 8
 496              		@ frame_needed = 0, uses_anonymous_args = 0
 497              		@ link register save eliminated.
  95:../3-ComProcessos/Me.h ****   for ( T ; T > 0 ; T-- ){
 498              		.loc 2 95 3 view .LVU110
 499              	@ ../3-ComProcessos/Me.h:94: void Delay ( __IO u32 T ) { // T=1 ;  868µs -> T=1 ~ 526µs
  94:../3-ComProcessos/Me.h ****   for ( T ; T > 0 ; T-- ){
 500              		.loc 2 94 27 is_stmt 0 view .LVU111
 501 0160 82B0     		sub	sp, sp, #8	@,,
 502              	.LCFI2:
 503              		.cfi_def_cfa_offset 8
 504              	@ ../3-ComProcessos/Me.h:94: void Delay ( __IO u32 T ) { // T=1 ;  868µs -> T=1 ~ 526µs
  94:../3-ComProcessos/Me.h ****   for ( T ; T > 0 ; T-- ){
 505              		.loc 2 94 27 view .LVU112
 506 0162 0190     		str	r0, [sp, #4]	@ T, T
 507              	@ ../3-ComProcessos/Me.h:95:   for ( T ; T > 0 ; T-- ){
 508              		.loc 2 95 3 view .LVU113
 509 0164 019B     		ldr	r3, [sp, #4]	@ vol.0_9, T
 510              	@ ../3-ComProcessos/Me.h:96:    TIM3->EGR |= ( 1 << 0 );
  96:../3-ComProcessos/Me.h ****    TIM3->EGR |= ( 1 << 0 );
 511              		.loc 2 96 14 view .LVU114
 512 0166 094A     		ldr	r2, .L32	@ tmp132,
 513              	.L28:
  95:../3-ComProcessos/Me.h ****   for ( T ; T > 0 ; T-- ){
ARM GAS  /tmp/ccb3qL8s.s 			page 13


 514              		.loc 2 95 13 is_stmt 1 discriminator 1 view .LVU115
 515              	@ ../3-ComProcessos/Me.h:95:   for ( T ; T > 0 ; T-- ){
  95:../3-ComProcessos/Me.h ****   for ( T ; T > 0 ; T-- ){
 516              		.loc 2 95 15 is_stmt 0 discriminator 1 view .LVU116
 517 0168 019B     		ldr	r3, [sp, #4]	@ T.2_6, T
 518              	@ ../3-ComProcessos/Me.h:95:   for ( T ; T > 0 ; T-- ){
  95:../3-ComProcessos/Me.h ****   for ( T ; T > 0 ; T-- ){
 519              		.loc 2 95 3 discriminator 1 view .LVU117
 520 016a 0BB9     		cbnz	r3, .L30	@ T.2_6,
 521              	@ ../3-ComProcessos/Me.h:99: }
  97:../3-ComProcessos/Me.h ****    while ( TIM3->CNT < 5 ) ; /* 5 * 10-- Configurar para IR */
  98:../3-ComProcessos/Me.h ****   }
  99:../3-ComProcessos/Me.h **** }
 522              		.loc 2 99 1 view .LVU118
 523 016c 02B0     		add	sp, sp, #8	@,,
 524              	.LCFI3:
 525              		.cfi_remember_state
 526              		.cfi_def_cfa_offset 0
 527              		@ sp needed	@
 528 016e 7047     		bx	lr	@
 529              	.L30:
 530              	.LCFI4:
 531              		.cfi_restore_state
  96:../3-ComProcessos/Me.h ****    TIM3->EGR |= ( 1 << 0 );
 532              		.loc 2 96 4 is_stmt 1 view .LVU119
 533              	@ ../3-ComProcessos/Me.h:96:    TIM3->EGR |= ( 1 << 0 );
  96:../3-ComProcessos/Me.h ****    TIM3->EGR |= ( 1 << 0 );
 534              		.loc 2 96 14 is_stmt 0 view .LVU120
 535 0170 938A     		ldrh	r3, [r2, #20]	@, MEM[(struct TIM_TypeDef *)1073742848B].EGR
 536 0172 9BB2     		uxth	r3, r3	@ _1, MEM[(struct TIM_TypeDef *)1073742848B].EGR
 537 0174 43F00103 		orr	r3, r3, #1	@ _2, _1,
 538 0178 9382     		strh	r3, [r2, #20]	@ movhi	@ _2, MEM[(struct TIM_TypeDef *)1073742848B].EGR
  97:../3-ComProcessos/Me.h ****    while ( TIM3->CNT < 5 ) ; /* 5 * 10-- Configurar para IR */
 539              		.loc 2 97 4 is_stmt 1 view .LVU121
 540              	.L29:
  97:../3-ComProcessos/Me.h ****    while ( TIM3->CNT < 5 ) ; /* 5 * 10-- Configurar para IR */
 541              		.loc 2 97 28 discriminator 1 view .LVU122
  97:../3-ComProcessos/Me.h ****    while ( TIM3->CNT < 5 ) ; /* 5 * 10-- Configurar para IR */
 542              		.loc 2 97 10 discriminator 1 view .LVU123
 543              	@ ../3-ComProcessos/Me.h:97:    while ( TIM3->CNT < 5 ) ; /* 5 * 10-- Configurar para IR */
  97:../3-ComProcessos/Me.h ****    while ( TIM3->CNT < 5 ) ; /* 5 * 10-- Configurar para IR */
 544              		.loc 2 97 16 is_stmt 0 discriminator 1 view .LVU124
 545 017a 938C     		ldrh	r3, [r2, #36]	@, MEM[(struct TIM_TypeDef *)1073742848B].CNT
 546 017c 9BB2     		uxth	r3, r3	@ _3, MEM[(struct TIM_TypeDef *)1073742848B].CNT
 547              	@ ../3-ComProcessos/Me.h:97:    while ( TIM3->CNT < 5 ) ; /* 5 * 10-- Configurar para IR */
  97:../3-ComProcessos/Me.h ****    while ( TIM3->CNT < 5 ) ; /* 5 * 10-- Configurar para IR */
 548              		.loc 2 97 10 discriminator 1 view .LVU125
 549 017e 042B     		cmp	r3, #4	@ _3,
 550 0180 FBD9     		bls	.L29		@,
  95:../3-ComProcessos/Me.h ****    TIM3->EGR |= ( 1 << 0 );
 551              		.loc 2 95 21 is_stmt 1 discriminator 2 view .LVU126
 552              	@ ../3-ComProcessos/Me.h:95:   for ( T ; T > 0 ; T-- ){
  95:../3-ComProcessos/Me.h ****    TIM3->EGR |= ( 1 << 0 );
 553              		.loc 2 95 22 is_stmt 0 discriminator 2 view .LVU127
 554 0182 019B     		ldr	r3, [sp, #4]	@ T.1_4, T
 555 0184 013B     		subs	r3, r3, #1	@ _5, T.1_4,
 556 0186 0193     		str	r3, [sp, #4]	@ _5, T
ARM GAS  /tmp/ccb3qL8s.s 			page 14


 557 0188 EEE7     		b	.L28		@
 558              	.L33:
 559 018a 00BF     		.align	2
 560              	.L32:
 561 018c 00040040 		.word	1073742848
 562              		.cfi_endproc
 563              	.LFE31:
 564              		.size	Delay, .-Delay
 565              		.align	1
 566              		.global	enable_TIM3_delay
 567              		.syntax unified
 568              		.thumb
 569              		.thumb_func
 570              		.type	enable_TIM3_delay, %function
 571              	enable_TIM3_delay:
 572              	.LFB32:
 100:../3-ComProcessos/Me.h **** 
 101:../3-ComProcessos/Me.h **** void enable_TIM3_delay (void) {
 573              		.loc 2 101 31 is_stmt 1 view -0
 574              		.cfi_startproc
 575              		@ args = 0, pretend = 0, frame = 0
 576              		@ frame_needed = 0, uses_anonymous_args = 0
 577              		@ link register save eliminated.
 102:../3-ComProcessos/Me.h ****    RCC->APB1ENR |= 1<<1 ;
 578              		.loc 2 102 4 view .LVU129
 579              	@ ../3-ComProcessos/Me.h:102:    RCC->APB1ENR |= 1<<1 ;
 580              		.loc 2 102 17 is_stmt 0 view .LVU130
 581 0190 084A     		ldr	r2, .L35	@ tmp117,
 582 0192 D369     		ldr	r3, [r2, #28]	@ _1, MEM[(struct RCC_TypeDef *)1073876992B].APB1ENR
 583 0194 43F00203 		orr	r3, r3, #2	@ _2, _1,
 584 0198 D361     		str	r3, [r2, #28]	@ _2, MEM[(struct RCC_TypeDef *)1073876992B].APB1ENR
 103:../3-ComProcessos/Me.h ****    TIM3->CR1 = 0x0000;
 585              		.loc 2 103 4 is_stmt 1 view .LVU131
 586              	@ ../3-ComProcessos/Me.h:103:    TIM3->CR1 = 0x0000;
 587              		.loc 2 103 14 is_stmt 0 view .LVU132
 588 019a 0023     		movs	r3, #0	@ tmp121,
 589 019c A2F50332 		sub	r2, r2, #134144	@ tmp119, tmp119,
 590 01a0 1380     		strh	r3, [r2]	@ movhi	@ tmp121, MEM[(struct TIM_TypeDef *)1073742848B].CR1
 104:../3-ComProcessos/Me.h ****    //TIM3->ARR = 21699;
 105:../3-ComProcessos/Me.h ****    TIM3->ARR = 250-1; // 10µs
 591              		.loc 2 105 4 is_stmt 1 view .LVU133
 592              	@ ../3-ComProcessos/Me.h:105:    TIM3->ARR = 250-1; // 10µs
 593              		.loc 2 105 14 is_stmt 0 view .LVU134
 594 01a2 F923     		movs	r3, #249	@ tmp124,
 595 01a4 9385     		strh	r3, [r2, #44]	@ movhi	@ tmp124, MEM[(struct TIM_TypeDef *)1073742848B].ARR
 106:../3-ComProcessos/Me.h ****    // para obter o período de 868µs
 107:../3-ComProcessos/Me.h **** /*https://www.vishay.com/docs/80071/dataform.pdf PAG 2
 108:../3-ComProcessos/Me.h ****  * https://controllerstech.com/ir-remote-with-stm32/
 109:../3-ComProcessos/Me.h ****  * Per=(1+ARR)/Clock_system */
 110:../3-ComProcessos/Me.h ****    TIM3->CR1 |= 1<<0;
 596              		.loc 2 110 4 is_stmt 1 view .LVU135
 597              	@ ../3-ComProcessos/Me.h:110:    TIM3->CR1 |= 1<<0;
 598              		.loc 2 110 14 is_stmt 0 view .LVU136
 599 01a6 1388     		ldrh	r3, [r2]	@, MEM[(struct TIM_TypeDef *)1073742848B].CR1
 600 01a8 9BB2     		uxth	r3, r3	@ _3, MEM[(struct TIM_TypeDef *)1073742848B].CR1
 601 01aa 43F00103 		orr	r3, r3, #1	@ _4, _3,
 602 01ae 1380     		strh	r3, [r2]	@ movhi	@ _4, MEM[(struct TIM_TypeDef *)1073742848B].CR1
ARM GAS  /tmp/ccb3qL8s.s 			page 15


 603              	@ ../3-ComProcessos/Me.h:111: }
 111:../3-ComProcessos/Me.h **** }
 604              		.loc 2 111 1 view .LVU137
 605 01b0 7047     		bx	lr	@
 606              	.L36:
 607 01b2 00BF     		.align	2
 608              	.L35:
 609 01b4 00100240 		.word	1073876992
 610              		.cfi_endproc
 611              	.LFE32:
 612              		.size	enable_TIM3_delay, .-enable_TIM3_delay
 613              		.align	1
 614              		.global	enable_interrupt
 615              		.syntax unified
 616              		.thumb
 617              		.thumb_func
 618              		.type	enable_interrupt, %function
 619              	enable_interrupt:
 620              	.LVL12:
 621              	.LFB33:
 112:../3-ComProcessos/Me.h **** 
 113:../3-ComProcessos/Me.h **** void enable_interrupt(IRQn_Type IRQn)
 114:../3-ComProcessos/Me.h **** {
 622              		.loc 2 114 1 is_stmt 1 view -0
 623              		.cfi_startproc
 624              		@ args = 0, pretend = 0, frame = 0
 625              		@ frame_needed = 0, uses_anonymous_args = 0
 626              		@ link register save eliminated.
 115:../3-ComProcessos/Me.h ****    NVIC->ISER[((uint32_t)(IRQn) >> 5)] = (1 << ((uint32_t)(IRQn) & 0x1F));
 627              		.loc 2 115 4 view .LVU139
 628              	@ ../3-ComProcessos/Me.h:115:    NVIC->ISER[((uint32_t)(IRQn) >> 5)] = (1 << ((uint32_t)(IRQn) & 0x
 629              		.loc 2 115 45 is_stmt 0 view .LVU140
 630 01b8 0123     		movs	r3, #1	@ tmp124,
 631              	@ ../3-ComProcessos/Me.h:115:    NVIC->ISER[((uint32_t)(IRQn) >> 5)] = (1 << ((uint32_t)(IRQn) & 0x
 632              		.loc 2 115 33 view .LVU141
 633 01ba 4209     		lsrs	r2, r0, #5	@ _6, IRQn,
 634              	@ ../3-ComProcessos/Me.h:115:    NVIC->ISER[((uint32_t)(IRQn) >> 5)] = (1 << ((uint32_t)(IRQn) & 0x
 635              		.loc 2 115 66 view .LVU142
 636 01bc 00F01F00 		and	r0, r0, #31	@ tmp123, IRQn,
 637              	.LVL13:
 638              	@ ../3-ComProcessos/Me.h:115:    NVIC->ISER[((uint32_t)(IRQn) >> 5)] = (1 << ((uint32_t)(IRQn) & 0x
 639              		.loc 2 115 45 view .LVU143
 640 01c0 03FA00F0 		lsl	r0, r3, r0	@ _7, tmp124, tmp123
 641              	@ ../3-ComProcessos/Me.h:115:    NVIC->ISER[((uint32_t)(IRQn) >> 5)] = (1 << ((uint32_t)(IRQn) & 0x
 642              		.loc 2 115 40 view .LVU144
 643 01c4 014B     		ldr	r3, .L38	@ tmp125,
 644 01c6 43F82200 		str	r0, [r3, r2, lsl #2]	@ _7, MEM[(struct NVIC_Type *)3758153984B].ISER[_6]
 645              	@ ../3-ComProcessos/Me.h:116: }  
 116:../3-ComProcessos/Me.h **** }  
 646              		.loc 2 116 1 view .LVU145
 647 01ca 7047     		bx	lr	@
 648              	.L39:
 649              		.align	2
 650              	.L38:
 651 01cc 00E100E0 		.word	-536813312
 652              		.cfi_endproc
 653              	.LFE33:
ARM GAS  /tmp/ccb3qL8s.s 			page 16


 654              		.size	enable_interrupt, .-enable_interrupt
 655              		.align	1
 656              		.global	disable_interrupt
 657              		.syntax unified
 658              		.thumb
 659              		.thumb_func
 660              		.type	disable_interrupt, %function
 661              	disable_interrupt:
 662              	.LVL14:
 663              	.LFB34:
 117:../3-ComProcessos/Me.h ****    
 118:../3-ComProcessos/Me.h **** /* 
 119:../3-ComProcessos/Me.h ****  * Disable given interrupt
 120:../3-ComProcessos/Me.h ****  */
 121:../3-ComProcessos/Me.h **** void disable_interrupt(IRQn_Type IRQn)
 122:../3-ComProcessos/Me.h **** {
 664              		.loc 2 122 1 is_stmt 1 view -0
 665              		.cfi_startproc
 666              		@ args = 0, pretend = 0, frame = 0
 667              		@ frame_needed = 0, uses_anonymous_args = 0
 668              		@ link register save eliminated.
 123:../3-ComProcessos/Me.h ****    NVIC->ICER[((uint32_t)(IRQn) >> 5)] = (1 << ((uint32_t)(IRQn) & 0x1F));
 669              		.loc 2 123 4 view .LVU147
 670              	@ ../3-ComProcessos/Me.h:123:    NVIC->ICER[((uint32_t)(IRQn) >> 5)] = (1 << ((uint32_t)(IRQn) & 0x
 671              		.loc 2 123 45 is_stmt 0 view .LVU148
 672 01d0 0122     		movs	r2, #1	@ tmp124,
 673              	@ ../3-ComProcessos/Me.h:123:    NVIC->ICER[((uint32_t)(IRQn) >> 5)] = (1 << ((uint32_t)(IRQn) & 0x
 674              		.loc 2 123 33 view .LVU149
 675 01d2 4309     		lsrs	r3, r0, #5	@ _6, IRQn,
 676              	@ ../3-ComProcessos/Me.h:123:    NVIC->ICER[((uint32_t)(IRQn) >> 5)] = (1 << ((uint32_t)(IRQn) & 0x
 677              		.loc 2 123 66 view .LVU150
 678 01d4 00F01F00 		and	r0, r0, #31	@ tmp123, IRQn,
 679              	.LVL15:
 680              	@ ../3-ComProcessos/Me.h:123:    NVIC->ICER[((uint32_t)(IRQn) >> 5)] = (1 << ((uint32_t)(IRQn) & 0x
 681              		.loc 2 123 45 view .LVU151
 682 01d8 02FA00F0 		lsl	r0, r2, r0	@ _7, tmp124, tmp123
 683              	@ ../3-ComProcessos/Me.h:123:    NVIC->ICER[((uint32_t)(IRQn) >> 5)] = (1 << ((uint32_t)(IRQn) & 0x
 684              		.loc 2 123 40 view .LVU152
 685 01dc 024A     		ldr	r2, .L41	@ tmp125,
 686 01de 2033     		adds	r3, r3, #32	@ tmp126, _6,
 687 01e0 42F82300 		str	r0, [r2, r3, lsl #2]	@ _7, MEM[(struct NVIC_Type *)3758153984B].ICER[_6]
 688              	@ ../3-ComProcessos/Me.h:124: }
 124:../3-ComProcessos/Me.h **** }
 689              		.loc 2 124 1 view .LVU153
 690 01e4 7047     		bx	lr	@
 691              	.L42:
 692 01e6 00BF     		.align	2
 693              	.L41:
 694 01e8 00E100E0 		.word	-536813312
 695              		.cfi_endproc
 696              	.LFE34:
 697              		.size	disable_interrupt, .-disable_interrupt
 698              		.section	.rodata.str1.1
 699              	.LC1:
 700 000d 3100     		.ascii	"1\000"
 701              	.LC2:
 702 000f 3200     		.ascii	"2\000"
ARM GAS  /tmp/ccb3qL8s.s 			page 17


 703              	.LC3:
 704 0011 3300     		.ascii	"3\000"
 705              		.section	.text.startup,"ax",%progbits
 706              		.align	1
 707              		.global	main
 708              		.syntax unified
 709              		.thumb
 710              		.thumb_func
 711              		.type	main, %function
 712              	main:
 713              	.LFB43:
  42:../3-ComProcessos/main.c **** }
  43:../3-ComProcessos/main.c **** 
  44:../3-ComProcessos/main.c **** int main(void) {
 714              		.loc 1 44 16 is_stmt 1 view -0
 715              		.cfi_startproc
 716              		@ Volatile: function does not return.
 717              		@ args = 0, pretend = 0, frame = 0
 718              		@ frame_needed = 0, uses_anonymous_args = 0
  45:../3-ComProcessos/main.c **** 	xQueue = xQueueCreate(5 /* Tamanho máximo da fila. */,
 719              		.loc 1 45 2 view .LVU155
 720              	@ ../3-ComProcessos/main.c:53: 	xTaskCreate(task1,"1", 100 ,NULL, 4 ,NULL);
  46:../3-ComProcessos/main.c **** 								sizeof(u32) /* Largura máxima da fila. */);
  47:../3-ComProcessos/main.c **** 
  48:../3-ComProcessos/main.c **** 	set_system_clock_to_72Mhz();
  49:../3-ComProcessos/main.c **** // display Init 
  50:../3-ComProcessos/main.c **** 
  51:../3-ComProcessos/main.c **** 	lcd16x2_init(LCD16X2_DISPLAY_ON_CURSOR_OFF_BLINK_OFF);
  52:../3-ComProcessos/main.c **** 
  53:../3-ComProcessos/main.c **** 	xTaskCreate(task1,"1", 100 ,NULL, 4 ,NULL);
 721              		.loc 1 53 2 is_stmt 0 view .LVU156
 722 0000 0024     		movs	r4, #0	@ tmp116,
 723 0002 0425     		movs	r5, #4	@ tmp117,
 724              	@ ../3-ComProcessos/main.c:44: int main(void) {
  44:../3-ComProcessos/main.c **** 	xQueue = xQueueCreate(5 /* Tamanho máximo da fila. */,
 725              		.loc 1 44 16 view .LVU157
 726 0004 07B5     		push	{r0, r1, r2, lr}	@
 727              	.LCFI5:
 728              		.cfi_def_cfa_offset 16
 729              		.cfi_offset 14, -4
 730              	@ ../3-ComProcessos/main.c:45: 	xQueue = xQueueCreate(5 /* Tamanho máximo da fila. */,
  45:../3-ComProcessos/main.c **** 	xQueue = xQueueCreate(5 /* Tamanho máximo da fila. */,
 731              		.loc 1 45 11 view .LVU158
 732 0006 0022     		movs	r2, #0	@,
 733 0008 0421     		movs	r1, #4	@,
 734 000a 0520     		movs	r0, #5	@,
 735 000c FFF7FEFF 		bl	xQueueGenericCreate		@
 736              	.LVL16:
  48:../3-ComProcessos/main.c **** // display Init 
 737              		.loc 1 48 2 is_stmt 1 view .LVU159
 738              	@ ../3-ComProcessos/main.c:51: 	lcd16x2_init(LCD16X2_DISPLAY_ON_CURSOR_OFF_BLINK_OFF);
  51:../3-ComProcessos/main.c **** 
 739              		.loc 1 51 2 is_stmt 0 view .LVU160
 740 0010 0420     		movs	r0, #4	@,
 741              	@ ../3-ComProcessos/main.c:48: 	set_system_clock_to_72Mhz();
  48:../3-ComProcessos/main.c **** // display Init 
 742              		.loc 1 48 2 view .LVU161
ARM GAS  /tmp/ccb3qL8s.s 			page 18


 743 0012 FFF7FEFF 		bl	set_system_clock_to_72Mhz		@
 744              	.LVL17:
  51:../3-ComProcessos/main.c **** 
 745              		.loc 1 51 2 is_stmt 1 view .LVU162
 746 0016 FFF7FEFF 		bl	lcd16x2_init		@
 747              	.LVL18:
 748              		.loc 1 53 2 view .LVU163
 749 001a 2346     		mov	r3, r4	@, tmp116
 750 001c 6422     		movs	r2, #100	@,
 751 001e 0C49     		ldr	r1, .L45	@,
 752 0020 CDE90054 		strd	r5, r4, [sp]	@ tmp117, tmp116,
 753 0024 0B48     		ldr	r0, .L45+4	@,
 754 0026 FFF7FEFF 		bl	xTaskCreate		@
 755              	.LVL19:
  54:../3-ComProcessos/main.c **** 	xTaskCreate(task2, "2", 100 , NULL, 4 , NULL);
 756              		.loc 1 54 2 view .LVU164
 757 002a 2346     		mov	r3, r4	@, tmp116
 758 002c 6422     		movs	r2, #100	@,
 759 002e 0A49     		ldr	r1, .L45+8	@,
 760 0030 CDE90054 		strd	r5, r4, [sp]	@ tmp117, tmp116,
 761 0034 0948     		ldr	r0, .L45+12	@,
 762 0036 FFF7FEFF 		bl	xTaskCreate		@
 763              	.LVL20:
  55:../3-ComProcessos/main.c **** 	xTaskCreate(task3, "3", 100 , NULL, 4 , NULL);
 764              		.loc 1 55 2 view .LVU165
 765 003a 2346     		mov	r3, r4	@, tmp116
 766 003c 6422     		movs	r2, #100	@,
 767 003e 0849     		ldr	r1, .L45+16	@,
 768 0040 CDE90054 		strd	r5, r4, [sp]	@ tmp117, tmp116,
 769 0044 0748     		ldr	r0, .L45+20	@,
 770 0046 FFF7FEFF 		bl	xTaskCreate		@
 771              	.LVL21:
  56:../3-ComProcessos/main.c **** 
  57:../3-ComProcessos/main.c **** 	vTaskStartScheduler(); // inicia o escalonador de
 772              		.loc 1 57 2 view .LVU166
 773 004a FFF7FEFF 		bl	vTaskStartScheduler		@
 774              	.LVL22:
 775              	.L44:
  58:../3-ComProcessos/main.c **** 								  // processos.
  59:../3-ComProcessos/main.c **** 	while(1);
 776              		.loc 1 59 2 discriminator 1 view .LVU167
 777              		.loc 1 59 10 discriminator 1 view .LVU168
 778              		.loc 1 59 7 discriminator 1 view .LVU169
 779 004e FEE7     		b	.L44		@
 780              	.L46:
 781              		.align	2
 782              	.L45:
 783 0050 0D000000 		.word	.LC1
 784 0054 00000000 		.word	task1
 785 0058 0F000000 		.word	.LC2
 786 005c 00000000 		.word	task2
 787 0060 11000000 		.word	.LC3
 788 0064 00000000 		.word	task3
 789              		.cfi_endproc
 790              	.LFE43:
 791              		.size	main, .-main
 792              		.text
ARM GAS  /tmp/ccb3qL8s.s 			page 19


 793              	.Letext0:
 794              		.file 3 "../stm32f10x_lib/CMSIS/CM3/DeviceSupport/ST/STM32F10x/stm32f10x.h"
 795              		.file 4 "/usr/arm-none-eabi/include/machine/_default_types.h"
 796              		.file 5 "/usr/arm-none-eabi/include/sys/_stdint.h"
 797              		.file 6 "../stm32f10x_lib/CMSIS/CM3/CoreSupport/core_cm3.h"
 798              		.file 7 "../freertos/include/queue.h"
 799              		.file 8 "../3-ComProcessos/lcd16x2.h"
 800              		.file 9 "../freertos/include/task.h"
 801              		.file 10 "../3-ComProcessos/delay.h"