ARM GAS  /tmp/cc4kJ8mf.s 			page 1


   1              		.cpu cortex-m3
   2              		.arch armv7-m
   3              		.fpu softvfp
   4              		.eabi_attribute 20, 1	@ Tag_ABI_FP_denormal
   5              		.eabi_attribute 21, 1	@ Tag_ABI_FP_exceptions
   6              		.eabi_attribute 23, 3	@ Tag_ABI_FP_number_model
   7              		.eabi_attribute 24, 1	@ Tag_ABI_align8_needed
   8              		.eabi_attribute 25, 1	@ Tag_ABI_align8_preserved
   9              		.eabi_attribute 26, 1	@ Tag_ABI_enum_size
  10              		.eabi_attribute 30, 4	@ Tag_ABI_optimization_goals
  11              		.eabi_attribute 34, 1	@ Tag_CPU_unaligned_access
  12              		.eabi_attribute 18, 4	@ Tag_ABI_PCS_wchar_t
  13              		.file	"main.c"
  14              	@ GNU C17 (GNU Arm Embedded Toolchain 10.3-2021.10) version 10.3.1 20210824 (release) (arm-none-eab
  15              	@	compiled by GNU C version 4.8.4, GMP version 6.1.0, MPFR version 3.1.4, MPC version 1.0.3, isl ve
  16              	
  17              	@ GGC heuristics: --param ggc-min-expand=100 --param ggc-min-heapsize=131072
  18              	@ options passed:  -I . -I ../5-PWM_LCD_SERIAL
  19              	@ -I ../stm32f10x_lib/CMSIS/CM3/CoreSupport
  20              	@ -I ../stm32f10x_lib/CMSIS/CM3/DeviceSupport/ST/STM32F10x
  21              	@ -I ../stm32f10x_lib/STM32F10x_StdPeriph_Driver/inc
  22              	@ -I ../stm32f10x_lib/STM32F10x_StdPeriph_Driver -I ../freertos/include
  23              	@ -I ../freertos/portable/GCC/ARM_CM3 -imultilib thumb/v7-m/nofp
  24              	@ -iprefix /usr/bin/../lib/gcc/arm-none-eabi/10.3.1/
  25              	@ -isysroot /usr/bin/../arm-none-eabi -D__USES_INITFINI__ -D STM32F10X_MD
  26              	@ -D USE_STDPERIPH_DRIVER -D HSE_VALUE=8000000 -D RUN_FROM_FLASH=1
  27              	@ ../5-PWM_LCD_SERIAL/main.c -mcpu=cortex-m3 -mthumb -mfloat-abi=soft
  28              	@ -mlibarch=armv7-m -march=armv7-m
  29              	@ -auxbase-strip ../5-PWM_LCD_SERIAL/main.o -g -gdwarf-2 -Os -Wall
  30              	@ -fomit-frame-pointer -fverbose-asm
  31              	@ options enabled:  -faggressive-loop-optimizations -fallocation-dce
  32              	@ -fauto-inc-dec -fbranch-count-reg -fcaller-saves -fcode-hoisting
  33              	@ -fcombine-stack-adjustments -fcompare-elim -fcprop-registers
  34              	@ -fcrossjumping -fcse-follow-jumps -fdefer-pop
  35              	@ -fdelete-null-pointer-checks -fdevirtualize -fdevirtualize-speculatively
  36              	@ -fdwarf2-cfi-asm -fearly-inlining -feliminate-unused-debug-symbols
  37              	@ -feliminate-unused-debug-types -fexpensive-optimizations
  38              	@ -fforward-propagate -ffp-int-builtin-inexact -ffunction-cse -fgcse
  39              	@ -fgcse-lm -fgnu-unique -fguess-branch-probability -fhoist-adjacent-loads
  40              	@ -fident -fif-conversion -fif-conversion2 -findirect-inlining -finline
  41              	@ -finline-atomics -finline-functions -finline-functions-called-once
  42              	@ -finline-small-functions -fipa-bit-cp -fipa-cp -fipa-icf
  43              	@ -fipa-icf-functions -fipa-icf-variables -fipa-profile -fipa-pure-const
  44              	@ -fipa-ra -fipa-reference -fipa-reference-addressable -fipa-sra
  45              	@ -fipa-stack-alignment -fipa-vrp -fira-hoist-pressure
  46              	@ -fira-share-save-slots -fira-share-spill-slots
  47              	@ -fisolate-erroneous-paths-dereference -fivopts -fkeep-static-consts
  48              	@ -fleading-underscore -flifetime-dse -flra-remat -fmath-errno
  49              	@ -fmerge-constants -fmerge-debug-strings -fmove-loop-invariants
  50              	@ -fomit-frame-pointer -foptimize-sibling-calls -fpartial-inlining
  51              	@ -fpeephole -fpeephole2 -fplt -fprefetch-loop-arrays -freg-struct-return
  52              	@ -freorder-blocks -freorder-functions -frerun-cse-after-loop
  53              	@ -fsched-critical-path-heuristic -fsched-dep-count-heuristic
  54              	@ -fsched-group-heuristic -fsched-interblock -fsched-last-insn-heuristic
  55              	@ -fsched-pressure -fsched-rank-heuristic -fsched-spec
  56              	@ -fsched-spec-insn-heuristic -fsched-stalled-insns-dep -fschedule-insns2
  57              	@ -fsection-anchors -fsemantic-interposition -fshow-column
ARM GAS  /tmp/cc4kJ8mf.s 			page 2


  58              	@ -fshrink-wrap-separate -fsigned-zeros -fsplit-ivs-in-unroller
  59              	@ -fsplit-wide-types -fssa-backprop -fssa-phiopt -fstdarg-opt
  60              	@ -fstore-merging -fstrict-aliasing -fstrict-volatile-bitfields
  61              	@ -fsync-libcalls -fthread-jumps -ftoplevel-reorder -ftrapping-math
  62              	@ -ftree-bit-ccp -ftree-builtin-call-dce -ftree-ccp -ftree-ch
  63              	@ -ftree-coalesce-vars -ftree-copy-prop -ftree-cselim -ftree-dce
  64              	@ -ftree-dominator-opts -ftree-dse -ftree-forwprop -ftree-fre
  65              	@ -ftree-loop-distribute-patterns -ftree-loop-if-convert -ftree-loop-im
  66              	@ -ftree-loop-ivcanon -ftree-loop-optimize -ftree-parallelize-loops=
  67              	@ -ftree-phiprop -ftree-pre -ftree-pta -ftree-reassoc -ftree-scev-cprop
  68              	@ -ftree-sink -ftree-slsr -ftree-sra -ftree-switch-conversion
  69              	@ -ftree-tail-merge -ftree-ter -ftree-vrp -funit-at-a-time -fvar-tracking
  70              	@ -fvar-tracking-assignments -fverbose-asm -fzero-initialized-in-bss
  71              	@ -masm-syntax-unified -mbe32 -mfix-cortex-m3-ldrd -mlittle-endian
  72              	@ -mpic-data-is-text-relative -msched-prolog -mthumb -munaligned-access
  73              	@ -mvectorize-with-neon-quad
  74              	
  75              		.text
  76              	.Ltext0:
  77              		.cfi_sections	.debug_frame
  78              		.align	1
  79              		.syntax unified
  80              		.thumb
  81              		.thumb_func
  82              		.type	task4, %function
  83              	task4:
  84              	.LVL0:
  85              	.LFB45:
  86              		.file 1 "../5-PWM_LCD_SERIAL/main.c"
   1:../5-PWM_LCD_SERIAL/main.c **** /*
   2:../5-PWM_LCD_SERIAL/main.c ****  * Projeto LCD
   3:../5-PWM_LCD_SERIAL/main.c ****  *		Modificações necessárias: 
   4:../5-PWM_LCD_SERIAL/main.c ****  *		  FreeRTOSConfig:
   5:../5-PWM_LCD_SERIAL/main.c ****  *			 TICK_RATE_HZ definido em (100000)Hz -> 1µs
   6:../5-PWM_LCD_SERIAL/main.c ****  *
   7:../5-PWM_LCD_SERIAL/main.c ****  *	Clock do sistema: 
   8:../5-PWM_LCD_SERIAL/main.c ****  *		72Mhz
   9:../5-PWM_LCD_SERIAL/main.c ****  *	
  10:../5-PWM_LCD_SERIAL/main.c ****  *	Lib construída para Arduíno UNO:
  11:../5-PWM_LCD_SERIAL/main.c ****  *		myLcd.h
  12:../5-PWM_LCD_SERIAL/main.c ****  *			#define delayMicroseconds(X)   vTaskDelay(X)
  13:../5-PWM_LCD_SERIAL/main.c ****  *			#define delay(X)  vTaskDelay(X)
  14:../5-PWM_LCD_SERIAL/main.c ****  *
  15:../5-PWM_LCD_SERIAL/main.c ****  * Pinos do LCD 16x2:
  16:../5-PWM_LCD_SERIAL/main.c ****  *		GPIOA
  17:../5-PWM_LCD_SERIAL/main.c ****  *			RS -> P2		| EN -> P3
  18:../5-PWM_LCD_SERIAL/main.c ****  *			D4	-> P4		| D5 -> P5
  19:../5-PWM_LCD_SERIAL/main.c ****  *			D6 -> P6		| D7 -> P7
  20:../5-PWM_LCD_SERIAL/main.c ****  * */
  21:../5-PWM_LCD_SERIAL/main.c **** //
  22:../5-PWM_LCD_SERIAL/main.c **** // FreeRTOS: 
  23:../5-PWM_LCD_SERIAL/main.c **** #include "FreeRTOS.h"
  24:../5-PWM_LCD_SERIAL/main.c **** #include "queue.h"
  25:../5-PWM_LCD_SERIAL/main.c **** #include "task.h"
  26:../5-PWM_LCD_SERIAL/main.c **** 
  27:../5-PWM_LCD_SERIAL/main.c **** #include <string.h>
  28:../5-PWM_LCD_SERIAL/main.c **** #include <stdlib.h>
ARM GAS  /tmp/cc4kJ8mf.s 			page 3


  29:../5-PWM_LCD_SERIAL/main.c **** 
  30:../5-PWM_LCD_SERIAL/main.c **** #define __delay_ms( TEMPO ) vTaskDelay(pdMS_TO_TICKS( TEMPO ))
  31:../5-PWM_LCD_SERIAL/main.c **** #define __delay( TEMPO ) vTaskDelay( TEMPO )
  32:../5-PWM_LCD_SERIAL/main.c **** 
  33:../5-PWM_LCD_SERIAL/main.c **** // LCD 16x2
  34:../5-PWM_LCD_SERIAL/main.c **** #include "stm32f10x.h"
  35:../5-PWM_LCD_SERIAL/main.c **** #include "Me.h"
  36:../5-PWM_LCD_SERIAL/main.c **** #include "myLcd.h"
  37:../5-PWM_LCD_SERIAL/main.c **** #include "Serial.h"
  38:../5-PWM_LCD_SERIAL/main.c **** 
  39:../5-PWM_LCD_SERIAL/main.c **** //#include "adc.h"
  40:../5-PWM_LCD_SERIAL/main.c **** 
  41:../5-PWM_LCD_SERIAL/main.c **** #define BIN 2
  42:../5-PWM_LCD_SERIAL/main.c **** #define OCT 8
  43:../5-PWM_LCD_SERIAL/main.c **** #define DEC 10
  44:../5-PWM_LCD_SERIAL/main.c **** #define HEX 16
  45:../5-PWM_LCD_SERIAL/main.c **** 
  46:../5-PWM_LCD_SERIAL/main.c **** static QueueHandle_t fila_ADC; 
  47:../5-PWM_LCD_SERIAL/main.c **** 
  48:../5-PWM_LCD_SERIAL/main.c **** static void task1(void *args __attribute((unused))) {
  49:../5-PWM_LCD_SERIAL/main.c **** 	RCC->APB2ENR |= (1<<2);
  50:../5-PWM_LCD_SERIAL/main.c **** 	GPIOA->CRL	 = 0x33333300; // Hab PA(2-7) out PP
  51:../5-PWM_LCD_SERIAL/main.c **** 
  52:../5-PWM_LCD_SERIAL/main.c **** 	set_bit(IO,RS);
  53:../5-PWM_LCD_SERIAL/main.c **** 	set_bit(IO,RS);
  54:../5-PWM_LCD_SERIAL/main.c **** 	set_bit(IO,EN);
  55:../5-PWM_LCD_SERIAL/main.c **** 	set_bit(IO,D4);
  56:../5-PWM_LCD_SERIAL/main.c **** 	set_bit(IO,D5);
  57:../5-PWM_LCD_SERIAL/main.c **** 	set_bit(IO,D6);
  58:../5-PWM_LCD_SERIAL/main.c **** 	set_bit(IO,D7);
  59:../5-PWM_LCD_SERIAL/main.c **** 
  60:../5-PWM_LCD_SERIAL/main.c ****   disp_init();
  61:../5-PWM_LCD_SERIAL/main.c ****   disp_cmd(0x0C);
  62:../5-PWM_LCD_SERIAL/main.c **** 
  63:../5-PWM_LCD_SERIAL/main.c ****   disp_text("Teste De\\ !&(#@!%@",0,0);
  64:../5-PWM_LCD_SERIAL/main.c ****   u8 cont = 0;
  65:../5-PWM_LCD_SERIAL/main.c **** 	while(1){
  66:../5-PWM_LCD_SERIAL/main.c **** 
  67:../5-PWM_LCD_SERIAL/main.c **** 		cont ++;
  68:../5-PWM_LCD_SERIAL/main.c **** 		cont &= 0x00ff;
  69:../5-PWM_LCD_SERIAL/main.c **** 		disp_text("CONTADOR: ", 1, 0);
  70:../5-PWM_LCD_SERIAL/main.c **** 		disp_number( cont, 1, 11);
  71:../5-PWM_LCD_SERIAL/main.c **** 		__delay_ms(10);
  72:../5-PWM_LCD_SERIAL/main.c **** 		
  73:../5-PWM_LCD_SERIAL/main.c **** 	}
  74:../5-PWM_LCD_SERIAL/main.c **** }
  75:../5-PWM_LCD_SERIAL/main.c **** 
  76:../5-PWM_LCD_SERIAL/main.c **** static void task2(void *args __attribute ((unused))){
  77:../5-PWM_LCD_SERIAL/main.c **** 	RCC->APB2ENR |= (1<<4); // En GPIOC
  78:../5-PWM_LCD_SERIAL/main.c **** 	GPIOC->CRH	|= (0b11<< 20); // PC13 out PP 
  79:../5-PWM_LCD_SERIAL/main.c **** 
  80:../5-PWM_LCD_SERIAL/main.c **** 	while(1){
  81:../5-PWM_LCD_SERIAL/main.c **** 		GPIOC->ODR	^= (1<<13);
  82:../5-PWM_LCD_SERIAL/main.c **** 		__delay_ms(50);
  83:../5-PWM_LCD_SERIAL/main.c **** 	}
  84:../5-PWM_LCD_SERIAL/main.c **** }
  85:../5-PWM_LCD_SERIAL/main.c **** 
ARM GAS  /tmp/cc4kJ8mf.s 			page 4


  86:../5-PWM_LCD_SERIAL/main.c **** static void task3(void *args __attribute ((unused))){
  87:../5-PWM_LCD_SERIAL/main.c **** 	USART_init();
  88:../5-PWM_LCD_SERIAL/main.c **** 
  89:../5-PWM_LCD_SERIAL/main.c **** 	u32 dados_recebidos = 0;
  90:../5-PWM_LCD_SERIAL/main.c **** 
  91:../5-PWM_LCD_SERIAL/main.c **** 	char num_char[8]; // tamanho max de um numero é de 32 bits
  92:../5-PWM_LCD_SERIAL/main.c **** 	u8 status;
  93:../5-PWM_LCD_SERIAL/main.c **** 			
  94:../5-PWM_LCD_SERIAL/main.c **** 
  95:../5-PWM_LCD_SERIAL/main.c **** 	while(1){
  96:../5-PWM_LCD_SERIAL/main.c **** 		status = xQueueReceive(fila_ADC,
  97:../5-PWM_LCD_SERIAL/main.c **** 			  	&dados_recebidos, 
  98:../5-PWM_LCD_SERIAL/main.c **** 				pdMS_TO_TICKS(1));
  99:../5-PWM_LCD_SERIAL/main.c **** 
 100:../5-PWM_LCD_SERIAL/main.c **** 		if (status != NULL ){
 101:../5-PWM_LCD_SERIAL/main.c **** 			USARTSend("\r\nValor Lido: ");
 102:../5-PWM_LCD_SERIAL/main.c **** 
 103:../5-PWM_LCD_SERIAL/main.c **** 			//	itoa numero -> String , Tipo output
 104:../5-PWM_LCD_SERIAL/main.c **** 			itoa((u32) dados_recebidos, num_char, HEX); // Base: 2 8 10 16
 105:../5-PWM_LCD_SERIAL/main.c **** 
 106:../5-PWM_LCD_SERIAL/main.c **** 			USARTSend( num_char );
 107:../5-PWM_LCD_SERIAL/main.c **** 			__delay_ms(100);
 108:../5-PWM_LCD_SERIAL/main.c **** 		}
 109:../5-PWM_LCD_SERIAL/main.c **** 		else
 110:../5-PWM_LCD_SERIAL/main.c **** 			USARTSend("\r\nValor não amostrado ou transmitido!! \r\n");
 111:../5-PWM_LCD_SERIAL/main.c **** 	}
 112:../5-PWM_LCD_SERIAL/main.c **** }
 113:../5-PWM_LCD_SERIAL/main.c **** 
 114:../5-PWM_LCD_SERIAL/main.c **** static void task4(void *args __attribute ((unused))){
  87              		.loc 1 114 53 view -0
  88              		.cfi_startproc
  89              		@ Volatile: function does not return.
  90              		@ args = 0, pretend = 0, frame = 8
  91              		@ frame_needed = 0, uses_anonymous_args = 0
 115:../5-PWM_LCD_SERIAL/main.c **** 	//ADC8_Init();
 116:../5-PWM_LCD_SERIAL/main.c **** 	
 117:../5-PWM_LCD_SERIAL/main.c **** 	u32 adc_dados_lidos = 0; 
  92              		.loc 1 117 2 view .LVU1
  93              	@ ../5-PWM_LCD_SERIAL/main.c:117: 	u32 adc_dados_lidos = 0; 
  94              		.loc 1 117 6 is_stmt 0 view .LVU2
  95 0000 0023     		movs	r3, #0	@ tmp117,
  96              	@ ../5-PWM_LCD_SERIAL/main.c:114: static void task4(void *args __attribute ((unused))){
 114:../5-PWM_LCD_SERIAL/main.c **** 	//ADC8_Init();
  97              		.loc 1 114 53 view .LVU3
  98 0002 07B5     		push	{r0, r1, r2, lr}	@
  99              	.LCFI0:
 100              		.cfi_def_cfa_offset 16
 101              		.cfi_offset 14, -4
 102              	@ ../5-PWM_LCD_SERIAL/main.c:123: 		xQueueSend( fila_ADC,
 118:../5-PWM_LCD_SERIAL/main.c **** 	while(1){
 119:../5-PWM_LCD_SERIAL/main.c **** 
 120:../5-PWM_LCD_SERIAL/main.c **** 		// adc_dados_lidos = ADC8_Read();
 121:../5-PWM_LCD_SERIAL/main.c **** 		adc_dados_lidos ++;
 122:../5-PWM_LCD_SERIAL/main.c **** 
 123:../5-PWM_LCD_SERIAL/main.c **** 		xQueueSend( fila_ADC,
 103              		.loc 1 123 3 view .LVU4
 104 0004 074C     		ldr	r4, .L3	@ tmp121,
ARM GAS  /tmp/cc4kJ8mf.s 			page 5


 105              	@ ../5-PWM_LCD_SERIAL/main.c:117: 	u32 adc_dados_lidos = 0; 
 117:../5-PWM_LCD_SERIAL/main.c **** 	while(1){
 106              		.loc 1 117 6 view .LVU5
 107 0006 0193     		str	r3, [sp, #4]	@ tmp117, adc_dados_lidos
 108              	.LVL1:
 109              	.L2:
 118:../5-PWM_LCD_SERIAL/main.c **** 	while(1){
 110              		.loc 1 118 2 is_stmt 1 discriminator 1 view .LVU6
 121:../5-PWM_LCD_SERIAL/main.c **** 
 111              		.loc 1 121 3 discriminator 1 view .LVU7
 112              	@ ../5-PWM_LCD_SERIAL/main.c:121: 		adc_dados_lidos ++;
 121:../5-PWM_LCD_SERIAL/main.c **** 
 113              		.loc 1 121 19 is_stmt 0 discriminator 1 view .LVU8
 114 0008 019B     		ldr	r3, [sp, #4]	@ adc_dados_lidos, adc_dados_lidos
 115              	@ ../5-PWM_LCD_SERIAL/main.c:123: 		xQueueSend( fila_ADC,
 116              		.loc 1 123 3 discriminator 1 view .LVU9
 117 000a 2068     		ldr	r0, [r4]	@, fila_ADC
 118              	@ ../5-PWM_LCD_SERIAL/main.c:121: 		adc_dados_lidos ++;
 121:../5-PWM_LCD_SERIAL/main.c **** 
 119              		.loc 1 121 19 discriminator 1 view .LVU10
 120 000c 0133     		adds	r3, r3, #1	@ tmp118, adc_dados_lidos,
 121 000e 0193     		str	r3, [sp, #4]	@ tmp118, adc_dados_lidos
 122              		.loc 1 123 3 is_stmt 1 discriminator 1 view .LVU11
 123 0010 0023     		movs	r3, #0	@,
 124 0012 01A9     		add	r1, sp, #4	@ tmp124,,
 125 0014 1A46     		mov	r2, r3	@,
 126 0016 FFF7FEFF 		bl	xQueueGenericSend		@
 127              	.LVL2:
 124:../5-PWM_LCD_SERIAL/main.c **** 				&adc_dados_lidos, 
 125:../5-PWM_LCD_SERIAL/main.c **** 				0);
 126:../5-PWM_LCD_SERIAL/main.c **** 
 127:../5-PWM_LCD_SERIAL/main.c **** 		__delay_ms(1);
 128              		.loc 1 127 3 discriminator 1 view .LVU12
 129 001a 6420     		movs	r0, #100	@,
 130 001c FFF7FEFF 		bl	vTaskDelay		@
 131              	.LVL3:
 118:../5-PWM_LCD_SERIAL/main.c **** 
 132              		.loc 1 118 7 discriminator 1 view .LVU13
 133 0020 F2E7     		b	.L2		@
 134              	.L4:
 135 0022 00BF     		.align	2
 136              	.L3:
 137 0024 00000000 		.word	.LANCHOR0
 138              		.cfi_endproc
 139              	.LFE45:
 140              		.size	task4, .-task4
 141              		.align	1
 142              		.syntax unified
 143              		.thumb
 144              		.thumb_func
 145              		.type	task2, %function
 146              	task2:
 147              	.LVL4:
 148              	.LFB43:
  76:../5-PWM_LCD_SERIAL/main.c **** 	RCC->APB2ENR |= (1<<4); // En GPIOC
 149              		.loc 1 76 53 view -0
 150              		.cfi_startproc
ARM GAS  /tmp/cc4kJ8mf.s 			page 6


 151              		@ Volatile: function does not return.
 152              		@ args = 0, pretend = 0, frame = 0
 153              		@ frame_needed = 0, uses_anonymous_args = 0
  77:../5-PWM_LCD_SERIAL/main.c **** 	GPIOC->CRH	|= (0b11<< 20); // PC13 out PP 
 154              		.loc 1 77 2 view .LVU15
 155              	@ ../5-PWM_LCD_SERIAL/main.c:77: 	RCC->APB2ENR |= (1<<4); // En GPIOC
  77:../5-PWM_LCD_SERIAL/main.c **** 	GPIOC->CRH	|= (0b11<< 20); // PC13 out PP 
 156              		.loc 1 77 15 is_stmt 0 view .LVU16
 157 0028 094A     		ldr	r2, .L7	@ tmp120,
 158              	@ ../5-PWM_LCD_SERIAL/main.c:76: static void task2(void *args __attribute ((unused))){
  76:../5-PWM_LCD_SERIAL/main.c **** 	RCC->APB2ENR |= (1<<4); // En GPIOC
 159              		.loc 1 76 53 view .LVU17
 160 002a 08B5     		push	{r3, lr}	@
 161              	.LCFI1:
 162              		.cfi_def_cfa_offset 8
 163              		.cfi_offset 3, -8
 164              		.cfi_offset 14, -4
 165              	@ ../5-PWM_LCD_SERIAL/main.c:77: 	RCC->APB2ENR |= (1<<4); // En GPIOC
  77:../5-PWM_LCD_SERIAL/main.c **** 	GPIOC->CRH	|= (0b11<< 20); // PC13 out PP 
 166              		.loc 1 77 15 view .LVU18
 167 002c 9369     		ldr	r3, [r2, #24]	@ _1, MEM[(struct RCC_TypeDef *)1073876992B].APB2ENR
 168              	@ ../5-PWM_LCD_SERIAL/main.c:78: 	GPIOC->CRH	|= (0b11<< 20); // PC13 out PP 
  78:../5-PWM_LCD_SERIAL/main.c **** 
 169              		.loc 1 78 13 view .LVU19
 170 002e 094C     		ldr	r4, .L7+4	@ tmp122,
 171              	@ ../5-PWM_LCD_SERIAL/main.c:77: 	RCC->APB2ENR |= (1<<4); // En GPIOC
  77:../5-PWM_LCD_SERIAL/main.c **** 	GPIOC->CRH	|= (0b11<< 20); // PC13 out PP 
 172              		.loc 1 77 15 view .LVU20
 173 0030 43F01003 		orr	r3, r3, #16	@ _2, _1,
 174 0034 9361     		str	r3, [r2, #24]	@ _2, MEM[(struct RCC_TypeDef *)1073876992B].APB2ENR
  78:../5-PWM_LCD_SERIAL/main.c **** 
 175              		.loc 1 78 2 is_stmt 1 view .LVU21
 176              	@ ../5-PWM_LCD_SERIAL/main.c:78: 	GPIOC->CRH	|= (0b11<< 20); // PC13 out PP 
  78:../5-PWM_LCD_SERIAL/main.c **** 
 177              		.loc 1 78 13 is_stmt 0 view .LVU22
 178 0036 6368     		ldr	r3, [r4, #4]	@ _3, MEM[(struct GPIO_TypeDef *)1073811456B].CRH
 179 0038 43F44013 		orr	r3, r3, #3145728	@ _4, _3,
 180 003c 6360     		str	r3, [r4, #4]	@ _4, MEM[(struct GPIO_TypeDef *)1073811456B].CRH
 181              	.LVL5:
 182              	.L6:
  80:../5-PWM_LCD_SERIAL/main.c **** 		GPIOC->ODR	^= (1<<13);
 183              		.loc 1 80 2 is_stmt 1 discriminator 1 view .LVU23
  81:../5-PWM_LCD_SERIAL/main.c **** 		__delay_ms(50);
 184              		.loc 1 81 3 discriminator 1 view .LVU24
 185              	@ ../5-PWM_LCD_SERIAL/main.c:81: 		GPIOC->ODR	^= (1<<13);
  81:../5-PWM_LCD_SERIAL/main.c **** 		__delay_ms(50);
 186              		.loc 1 81 14 is_stmt 0 discriminator 1 view .LVU25
 187 003e E368     		ldr	r3, [r4, #12]	@ _5, MEM[(struct GPIO_TypeDef *)1073811456B].ODR
 188              	@ ../5-PWM_LCD_SERIAL/main.c:82: 		__delay_ms(50);
  82:../5-PWM_LCD_SERIAL/main.c **** 	}
 189              		.loc 1 82 3 discriminator 1 view .LVU26
 190 0040 41F28830 		movw	r0, #5000	@,
 191              	@ ../5-PWM_LCD_SERIAL/main.c:81: 		GPIOC->ODR	^= (1<<13);
  81:../5-PWM_LCD_SERIAL/main.c **** 		__delay_ms(50);
 192              		.loc 1 81 14 discriminator 1 view .LVU27
 193 0044 83F40053 		eor	r3, r3, #8192	@ _6, _5,
 194 0048 E360     		str	r3, [r4, #12]	@ _6, MEM[(struct GPIO_TypeDef *)1073811456B].ODR
ARM GAS  /tmp/cc4kJ8mf.s 			page 7


  82:../5-PWM_LCD_SERIAL/main.c **** 	}
 195              		.loc 1 82 3 is_stmt 1 discriminator 1 view .LVU28
 196 004a FFF7FEFF 		bl	vTaskDelay		@
 197              	.LVL6:
  80:../5-PWM_LCD_SERIAL/main.c **** 		GPIOC->ODR	^= (1<<13);
 198              		.loc 1 80 7 discriminator 1 view .LVU29
 199 004e F6E7     		b	.L6		@
 200              	.L8:
 201              		.align	2
 202              	.L7:
 203 0050 00100240 		.word	1073876992
 204 0054 00100140 		.word	1073811456
 205              		.cfi_endproc
 206              	.LFE43:
 207              		.size	task2, .-task2
 208              		.section	.rodata.str1.1,"aMS",%progbits,1
 209              	.LC0:
 210 0000 54657374 		.ascii	"Teste De\\ !&(#@!%@\000"
 210      65204465 
 210      5C202126 
 210      28234021 
 210      254000
 211              	.LC1:
 212 0013 434F4E54 		.ascii	"CONTADOR: \000"
 212      41444F52 
 212      3A2000
 213              		.text
 214              		.align	1
 215              		.syntax unified
 216              		.thumb
 217              		.thumb_func
 218              		.type	task1, %function
 219              	task1:
 220              	.LVL7:
 221              	.LFB42:
  48:../5-PWM_LCD_SERIAL/main.c **** 	RCC->APB2ENR |= (1<<2);
 222              		.loc 1 48 53 view -0
 223              		.cfi_startproc
 224              		@ args = 0, pretend = 0, frame = 0
 225              		@ frame_needed = 0, uses_anonymous_args = 0
  49:../5-PWM_LCD_SERIAL/main.c **** 	GPIOA->CRL	 = 0x33333300; // Hab PA(2-7) out PP
 226              		.loc 1 49 2 view .LVU31
 227              	@ ../5-PWM_LCD_SERIAL/main.c:49: 	RCC->APB2ENR |= (1<<2);
  49:../5-PWM_LCD_SERIAL/main.c **** 	GPIOA->CRL	 = 0x33333300; // Hab PA(2-7) out PP
 228              		.loc 1 49 15 is_stmt 0 view .LVU32
 229 0058 204A     		ldr	r2, .L11	@ tmp132,
 230              	@ ../5-PWM_LCD_SERIAL/main.c:48: static void task1(void *args __attribute((unused))) {
  48:../5-PWM_LCD_SERIAL/main.c **** 	RCC->APB2ENR |= (1<<2);
 231              		.loc 1 48 53 view .LVU33
 232 005a 38B5     		push	{r3, r4, r5, lr}	@
 233              	.LCFI2:
 234              		.cfi_def_cfa_offset 16
 235              		.cfi_offset 3, -16
 236              		.cfi_offset 4, -12
 237              		.cfi_offset 5, -8
 238              		.cfi_offset 14, -4
 239              	@ ../5-PWM_LCD_SERIAL/main.c:49: 	RCC->APB2ENR |= (1<<2);
ARM GAS  /tmp/cc4kJ8mf.s 			page 8


  49:../5-PWM_LCD_SERIAL/main.c **** 	GPIOA->CRL	 = 0x33333300; // Hab PA(2-7) out PP
 240              		.loc 1 49 15 view .LVU34
 241 005c 9369     		ldr	r3, [r2, #24]	@ _1, MEM[(struct RCC_TypeDef *)1073876992B].APB2ENR
 242              	@ ../5-PWM_LCD_SERIAL/main.c:64:   u8 cont = 0;
  64:../5-PWM_LCD_SERIAL/main.c **** 	while(1){
 243              		.loc 1 64 6 view .LVU35
 244 005e 0024     		movs	r4, #0	@ cont,
 245              	@ ../5-PWM_LCD_SERIAL/main.c:49: 	RCC->APB2ENR |= (1<<2);
  49:../5-PWM_LCD_SERIAL/main.c **** 	GPIOA->CRL	 = 0x33333300; // Hab PA(2-7) out PP
 246              		.loc 1 49 15 view .LVU36
 247 0060 43F00403 		orr	r3, r3, #4	@ _2, _1,
 248 0064 9361     		str	r3, [r2, #24]	@ _2, MEM[(struct RCC_TypeDef *)1073876992B].APB2ENR
  50:../5-PWM_LCD_SERIAL/main.c **** 
 249              		.loc 1 50 2 is_stmt 1 view .LVU37
 250              	@ ../5-PWM_LCD_SERIAL/main.c:50: 	GPIOA->CRL	 = 0x33333300; // Hab PA(2-7) out PP
  50:../5-PWM_LCD_SERIAL/main.c **** 
 251              		.loc 1 50 14 is_stmt 0 view .LVU38
 252 0066 1E4B     		ldr	r3, .L11+4	@ tmp134,
 253 0068 1E4A     		ldr	r2, .L11+8	@ tmp135,
 254              	@ ../5-PWM_LCD_SERIAL/main.c:69: 		disp_text("CONTADOR: ", 1, 0);
  69:../5-PWM_LCD_SERIAL/main.c **** 		disp_number( cont, 1, 11);
 255              		.loc 1 69 3 view .LVU39
 256 006a 1F4D     		ldr	r5, .L11+12	@ tmp155,
 257              	@ ../5-PWM_LCD_SERIAL/main.c:50: 	GPIOA->CRL	 = 0x33333300; // Hab PA(2-7) out PP
  50:../5-PWM_LCD_SERIAL/main.c **** 
 258              		.loc 1 50 14 view .LVU40
 259 006c 1A60     		str	r2, [r3]	@ tmp135, MEM[(struct GPIO_TypeDef *)1073809408B].CRL
  52:../5-PWM_LCD_SERIAL/main.c **** 	set_bit(IO,RS);
 260              		.loc 1 52 2 is_stmt 1 view .LVU41
 261 006e DA68     		ldr	r2, [r3, #12]	@ _3, MEM[(struct GPIO_TypeDef *)1073809408B].ODR
 262 0070 42F08002 		orr	r2, r2, #128	@ _4, _3,
 263 0074 DA60     		str	r2, [r3, #12]	@ _4, MEM[(struct GPIO_TypeDef *)1073809408B].ODR
  53:../5-PWM_LCD_SERIAL/main.c **** 	set_bit(IO,EN);
 264              		.loc 1 53 2 view .LVU42
 265 0076 DA68     		ldr	r2, [r3, #12]	@ _5, MEM[(struct GPIO_TypeDef *)1073809408B].ODR
 266 0078 42F08002 		orr	r2, r2, #128	@ _6, _5,
 267 007c DA60     		str	r2, [r3, #12]	@ _6, MEM[(struct GPIO_TypeDef *)1073809408B].ODR
  54:../5-PWM_LCD_SERIAL/main.c **** 	set_bit(IO,D4);
 268              		.loc 1 54 2 view .LVU43
 269 007e DA68     		ldr	r2, [r3, #12]	@ _7, MEM[(struct GPIO_TypeDef *)1073809408B].ODR
 270 0080 42F04002 		orr	r2, r2, #64	@ _8, _7,
 271 0084 DA60     		str	r2, [r3, #12]	@ _8, MEM[(struct GPIO_TypeDef *)1073809408B].ODR
  55:../5-PWM_LCD_SERIAL/main.c **** 	set_bit(IO,D5);
 272              		.loc 1 55 2 view .LVU44
 273 0086 DA68     		ldr	r2, [r3, #12]	@ _9, MEM[(struct GPIO_TypeDef *)1073809408B].ODR
 274 0088 42F02002 		orr	r2, r2, #32	@ _10, _9,
 275 008c DA60     		str	r2, [r3, #12]	@ _10, MEM[(struct GPIO_TypeDef *)1073809408B].ODR
  56:../5-PWM_LCD_SERIAL/main.c **** 	set_bit(IO,D6);
 276              		.loc 1 56 2 view .LVU45
 277 008e DA68     		ldr	r2, [r3, #12]	@ _11, MEM[(struct GPIO_TypeDef *)1073809408B].ODR
 278 0090 42F01002 		orr	r2, r2, #16	@ _12, _11,
 279 0094 DA60     		str	r2, [r3, #12]	@ _12, MEM[(struct GPIO_TypeDef *)1073809408B].ODR
  57:../5-PWM_LCD_SERIAL/main.c **** 	set_bit(IO,D7);
 280              		.loc 1 57 2 view .LVU46
 281 0096 DA68     		ldr	r2, [r3, #12]	@ _13, MEM[(struct GPIO_TypeDef *)1073809408B].ODR
 282 0098 42F00802 		orr	r2, r2, #8	@ _14, _13,
 283 009c DA60     		str	r2, [r3, #12]	@ _14, MEM[(struct GPIO_TypeDef *)1073809408B].ODR
ARM GAS  /tmp/cc4kJ8mf.s 			page 9


  58:../5-PWM_LCD_SERIAL/main.c **** 
 284              		.loc 1 58 2 view .LVU47
 285 009e DA68     		ldr	r2, [r3, #12]	@ _15, MEM[(struct GPIO_TypeDef *)1073809408B].ODR
 286 00a0 42F00402 		orr	r2, r2, #4	@ _16, _15,
 287 00a4 DA60     		str	r2, [r3, #12]	@ _16, MEM[(struct GPIO_TypeDef *)1073809408B].ODR
  60:../5-PWM_LCD_SERIAL/main.c ****   disp_cmd(0x0C);
 288              		.loc 1 60 3 view .LVU48
 289 00a6 FFF7FEFF 		bl	disp_init		@
 290              	.LVL8:
  61:../5-PWM_LCD_SERIAL/main.c **** 
 291              		.loc 1 61 3 view .LVU49
 292 00aa 0C20     		movs	r0, #12	@,
 293 00ac FFF7FEFF 		bl	disp_cmd		@
 294              	.LVL9:
  63:../5-PWM_LCD_SERIAL/main.c ****   u8 cont = 0;
 295              		.loc 1 63 3 view .LVU50
 296 00b0 0022     		movs	r2, #0	@,
 297 00b2 0E48     		ldr	r0, .L11+16	@,
 298 00b4 1146     		mov	r1, r2	@,
 299 00b6 FFF7FEFF 		bl	disp_text		@
 300              	.LVL10:
  64:../5-PWM_LCD_SERIAL/main.c **** 	while(1){
 301              		.loc 1 64 3 view .LVU51
 302              	.L10:
  65:../5-PWM_LCD_SERIAL/main.c **** 
 303              		.loc 1 65 2 discriminator 1 view .LVU52
  67:../5-PWM_LCD_SERIAL/main.c **** 		cont &= 0x00ff;
 304              		.loc 1 67 3 discriminator 1 view .LVU53
 305              	@ ../5-PWM_LCD_SERIAL/main.c:67: 		cont ++;
  67:../5-PWM_LCD_SERIAL/main.c **** 		cont &= 0x00ff;
 306              		.loc 1 67 8 is_stmt 0 discriminator 1 view .LVU54
 307 00ba 0134     		adds	r4, r4, #1	@ tmp151, cont,
 308              	.LVL11:
 309              	@ ../5-PWM_LCD_SERIAL/main.c:69: 		disp_text("CONTADOR: ", 1, 0);
  69:../5-PWM_LCD_SERIAL/main.c **** 		disp_number( cont, 1, 11);
 310              		.loc 1 69 3 discriminator 1 view .LVU55
 311 00bc 2846     		mov	r0, r5	@, tmp155
 312 00be 0022     		movs	r2, #0	@,
 313 00c0 0121     		movs	r1, #1	@,
 314              	@ ../5-PWM_LCD_SERIAL/main.c:67: 		cont ++;
  67:../5-PWM_LCD_SERIAL/main.c **** 		cont &= 0x00ff;
 315              		.loc 1 67 8 discriminator 1 view .LVU56
 316 00c2 E4B2     		uxtb	r4, r4	@ cont, tmp151
 317              	.LVL12:
  68:../5-PWM_LCD_SERIAL/main.c **** 		disp_text("CONTADOR: ", 1, 0);
 318              		.loc 1 68 3 is_stmt 1 discriminator 1 view .LVU57
  69:../5-PWM_LCD_SERIAL/main.c **** 		disp_number( cont, 1, 11);
 319              		.loc 1 69 3 discriminator 1 view .LVU58
 320 00c4 FFF7FEFF 		bl	disp_text		@
 321              	.LVL13:
  70:../5-PWM_LCD_SERIAL/main.c **** 		__delay_ms(10);
 322              		.loc 1 70 3 discriminator 1 view .LVU59
 323 00c8 2046     		mov	r0, r4	@, cont
 324 00ca 0B22     		movs	r2, #11	@,
 325 00cc 0121     		movs	r1, #1	@,
 326 00ce FFF7FEFF 		bl	disp_number		@
 327              	.LVL14:
ARM GAS  /tmp/cc4kJ8mf.s 			page 10


  71:../5-PWM_LCD_SERIAL/main.c **** 		
 328              		.loc 1 71 3 discriminator 1 view .LVU60
 329 00d2 4FF47A70 		mov	r0, #1000	@,
 330 00d6 FFF7FEFF 		bl	vTaskDelay		@
 331              	.LVL15:
  65:../5-PWM_LCD_SERIAL/main.c **** 
 332              		.loc 1 65 7 discriminator 1 view .LVU61
 333 00da EEE7     		b	.L10		@
 334              	.L12:
 335              		.align	2
 336              	.L11:
 337 00dc 00100240 		.word	1073876992
 338 00e0 00080140 		.word	1073809408
 339 00e4 00333333 		.word	858993408
 340 00e8 13000000 		.word	.LC1
 341 00ec 00000000 		.word	.LC0
 342              		.cfi_endproc
 343              	.LFE42:
 344              		.size	task1, .-task1
 345              		.align	1
 346              		.global	ADC1_configure
 347              		.syntax unified
 348              		.thumb
 349              		.thumb_func
 350              		.type	ADC1_configure, %function
 351              	ADC1_configure:
 352              	.LFB34:
 353              		.file 2 "../5-PWM_LCD_SERIAL/Me.h"
   1:../5-PWM_LCD_SERIAL/Me.h **** #define __IO volatile
   2:../5-PWM_LCD_SERIAL/Me.h **** 
   3:../5-PWM_LCD_SERIAL/Me.h **** void SystemInit (void);
   4:../5-PWM_LCD_SERIAL/Me.h **** void nvic_IntDisble(u8 IRQn);
   5:../5-PWM_LCD_SERIAL/Me.h **** void nvic_intEnable(u8 IRQn);
   6:../5-PWM_LCD_SERIAL/Me.h **** void set_system_clock_to_25Mhz (void);
   7:../5-PWM_LCD_SERIAL/Me.h **** void set_system_clock_to_72Mhz(void);
   8:../5-PWM_LCD_SERIAL/Me.h **** void Delay ( __IO u32 T );
   9:../5-PWM_LCD_SERIAL/Me.h **** void enable_TIM3_delay (void);
  10:../5-PWM_LCD_SERIAL/Me.h **** void ADC1_configure();
  11:../5-PWM_LCD_SERIAL/Me.h **** 
  12:../5-PWM_LCD_SERIAL/Me.h **** #define DelayUs(X) Delay(X)
  13:../5-PWM_LCD_SERIAL/Me.h **** 
  14:../5-PWM_LCD_SERIAL/Me.h **** void ADC1_configure(){
 354              		.loc 2 14 22 view -0
 355              		.cfi_startproc
 356              		@ args = 0, pretend = 0, frame = 0
 357              		@ frame_needed = 0, uses_anonymous_args = 0
 358              		@ link register save eliminated.
  15:../5-PWM_LCD_SERIAL/Me.h **** 	RCC->APB2ENR |= 1UL<<2 ; // Hab. GPIOA
 359              		.loc 2 15 2 view .LVU63
 360              	@ ../5-PWM_LCD_SERIAL/Me.h:15: 	RCC->APB2ENR |= 1UL<<2 ; // Hab. GPIOA
 361              		.loc 2 15 15 is_stmt 0 view .LVU64
 362 00f0 1F4B     		ldr	r3, .L18	@ tmp141,
 363              	@ ../5-PWM_LCD_SERIAL/Me.h:16: 	GPIOA->CRL &= ~(0x0F << 4); // Define A1 Input Analogic
  16:../5-PWM_LCD_SERIAL/Me.h **** 	GPIOA->CRL &= ~(0x0F << 4); // Define A1 Input Analogic
 364              		.loc 2 16 13 view .LVU65
 365 00f2 2049     		ldr	r1, .L18+4	@ tmp143,
 366              	@ ../5-PWM_LCD_SERIAL/Me.h:15: 	RCC->APB2ENR |= 1UL<<2 ; // Hab. GPIOA
ARM GAS  /tmp/cc4kJ8mf.s 			page 11


  15:../5-PWM_LCD_SERIAL/Me.h **** 	RCC->APB2ENR |= 1UL<<2 ; // Hab. GPIOA
 367              		.loc 2 15 15 view .LVU66
 368 00f4 9A69     		ldr	r2, [r3, #24]	@ _1, MEM[(struct RCC_TypeDef *)1073876992B].APB2ENR
 369 00f6 42F00402 		orr	r2, r2, #4	@ _2, _1,
 370 00fa 9A61     		str	r2, [r3, #24]	@ _2, MEM[(struct RCC_TypeDef *)1073876992B].APB2ENR
 371              		.loc 2 16 2 is_stmt 1 view .LVU67
 372              	@ ../5-PWM_LCD_SERIAL/Me.h:16: 	GPIOA->CRL &= ~(0x0F << 4); // Define A1 Input Analogic
 373              		.loc 2 16 13 is_stmt 0 view .LVU68
 374 00fc 0A68     		ldr	r2, [r1]	@ _3, MEM[(struct GPIO_TypeDef *)1073809408B].CRL
 375 00fe 22F0F002 		bic	r2, r2, #240	@ _4, _3,
 376 0102 0A60     		str	r2, [r1]	@ _4, MEM[(struct GPIO_TypeDef *)1073809408B].CRL
  17:../5-PWM_LCD_SERIAL/Me.h **** 	
  18:../5-PWM_LCD_SERIAL/Me.h **** 	RCC->APB2ENR |= (1<<9); // Bit 9 ADC1EN: ADC 1 
 377              		.loc 2 18 2 is_stmt 1 view .LVU69
 378              	@ ../5-PWM_LCD_SERIAL/Me.h:18: 	RCC->APB2ENR |= (1<<9); // Bit 9 ADC1EN: ADC 1 
 379              		.loc 2 18 15 is_stmt 0 view .LVU70
 380 0104 9A69     		ldr	r2, [r3, #24]	@ _5, MEM[(struct RCC_TypeDef *)1073876992B].APB2ENR
 381 0106 42F40072 		orr	r2, r2, #512	@ _6, _5,
 382 010a 9A61     		str	r2, [r3, #24]	@ _6, MEM[(struct RCC_TypeDef *)1073876992B].APB2ENR
  19:../5-PWM_LCD_SERIAL/Me.h **** 									// interface clock enable
  20:../5-PWM_LCD_SERIAL/Me.h **** 
  21:../5-PWM_LCD_SERIAL/Me.h **** 	RCC->CFGR	|= (0b10 << 14); // Bits 15:14 ADCPRE:
 383              		.loc 2 21 2 is_stmt 1 view .LVU71
 384              	@ ../5-PWM_LCD_SERIAL/Me.h:21: 	RCC->CFGR	|= (0b10 << 14); // Bits 15:14 ADCPRE:
 385              		.loc 2 21 12 is_stmt 0 view .LVU72
 386 010c 5A68     		ldr	r2, [r3, #4]	@ _7, MEM[(struct RCC_TypeDef *)1073876992B].CFGR
 387 010e 42F40042 		orr	r2, r2, #32768	@ _8, _7,
 388 0112 5A60     		str	r2, [r3, #4]	@ _8, MEM[(struct RCC_TypeDef *)1073876992B].CFGR
  22:../5-PWM_LCD_SERIAL/Me.h **** 										  // ADC prescaler 10:
  23:../5-PWM_LCD_SERIAL/Me.h **** 										  //    PCLK2 divided by 6
  24:../5-PWM_LCD_SERIAL/Me.h **** 	// Enable End of Conversion (EOC) interrupt
  25:../5-PWM_LCD_SERIAL/Me.h **** 	ADC1->CR1 |= (1 << 5);
 389              		.loc 2 25 2 is_stmt 1 view .LVU73
 390              	@ ../5-PWM_LCD_SERIAL/Me.h:25: 	ADC1->CR1 |= (1 << 5);
 391              		.loc 2 25 12 is_stmt 0 view .LVU74
 392 0114 A3F56C43 		sub	r3, r3, #60416	@ tmp149, tmp149,
 393 0118 5A68     		ldr	r2, [r3, #4]	@ _9, MEM[(struct ADC_TypeDef *)1073816576B].CR1
 394 011a 42F02002 		orr	r2, r2, #32	@ _10, _9,
 395 011e 5A60     		str	r2, [r3, #4]	@ _10, MEM[(struct ADC_TypeDef *)1073816576B].CR1
  26:../5-PWM_LCD_SERIAL/Me.h **** 
  27:../5-PWM_LCD_SERIAL/Me.h **** 	// One conversion
  28:../5-PWM_LCD_SERIAL/Me.h **** 	ADC1->SQR1 = 0x00000000;
 396              		.loc 2 28 2 is_stmt 1 view .LVU75
 397              	@ ../5-PWM_LCD_SERIAL/Me.h:28: 	ADC1->SQR1 = 0x00000000;
 398              		.loc 2 28 13 is_stmt 0 view .LVU76
 399 0120 0022     		movs	r2, #0	@ tmp152,
 400 0122 DA62     		str	r2, [r3, #44]	@ tmp152, MEM[(struct ADC_TypeDef *)1073816576B].SQR1
  29:../5-PWM_LCD_SERIAL/Me.h **** 
  30:../5-PWM_LCD_SERIAL/Me.h **** 	// Choose the analog channel to read
  31:../5-PWM_LCD_SERIAL/Me.h **** 	// Since we want channel 10 to be the first
  32:../5-PWM_LCD_SERIAL/Me.h **** 	//   conversion we write 10 to SQ1 bits (3:0)
  33:../5-PWM_LCD_SERIAL/Me.h **** 	//   which is in SQR3 register. For multiple conversions
  34:../5-PWM_LCD_SERIAL/Me.h **** 	//   keep writing the channel numbers to SQx bits.
  35:../5-PWM_LCD_SERIAL/Me.h **** 	 ADC1->SQR3 = (10 << 0);
 401              		.loc 2 35 3 is_stmt 1 view .LVU77
 402              	@ ../5-PWM_LCD_SERIAL/Me.h:35: 	 ADC1->SQR3 = (10 << 0);
 403              		.loc 2 35 14 is_stmt 0 view .LVU78
ARM GAS  /tmp/cc4kJ8mf.s 			page 12


 404 0124 0A22     		movs	r2, #10	@ tmp154,
 405 0126 5A63     		str	r2, [r3, #52]	@ tmp154, MEM[(struct ADC_TypeDef *)1073816576B].SQR3
  36:../5-PWM_LCD_SERIAL/Me.h **** 
  37:../5-PWM_LCD_SERIAL/Me.h **** 	// Set up software trigger to start conversion
  38:../5-PWM_LCD_SERIAL/Me.h **** 	ADC1->CR2 |= (7 << 17);  // Select SWSTART as trigger
 406              		.loc 2 38 2 is_stmt 1 view .LVU79
 407              	@ ../5-PWM_LCD_SERIAL/Me.h:38: 	ADC1->CR2 |= (7 << 17);  // Select SWSTART as trigger
 408              		.loc 2 38 12 is_stmt 0 view .LVU80
 409 0128 9A68     		ldr	r2, [r3, #8]	@ _11, MEM[(struct ADC_TypeDef *)1073816576B].CR2
 410 012a 42F46022 		orr	r2, r2, #917504	@ _12, _11,
 411 012e 9A60     		str	r2, [r3, #8]	@ _12, MEM[(struct ADC_TypeDef *)1073816576B].CR2
  39:../5-PWM_LCD_SERIAL/Me.h **** 	ADC1->CR2 |= (1 << 20);  // Enable external trigger
 412              		.loc 2 39 2 is_stmt 1 view .LVU81
 413              	@ ../5-PWM_LCD_SERIAL/Me.h:39: 	ADC1->CR2 |= (1 << 20);  // Enable external trigger
 414              		.loc 2 39 12 is_stmt 0 view .LVU82
 415 0130 9A68     		ldr	r2, [r3, #8]	@ _13, MEM[(struct ADC_TypeDef *)1073816576B].CR2
 416 0132 42F48012 		orr	r2, r2, #1048576	@ _14, _13,
 417 0136 9A60     		str	r2, [r3, #8]	@ _14, MEM[(struct ADC_TypeDef *)1073816576B].CR2
  40:../5-PWM_LCD_SERIAL/Me.h **** 
  41:../5-PWM_LCD_SERIAL/Me.h **** 	// Enable continuous conversion
  42:../5-PWM_LCD_SERIAL/Me.h **** 	ADC1->CR2 |= (1 << 1);
 418              		.loc 2 42 2 is_stmt 1 view .LVU83
 419              	@ ../5-PWM_LCD_SERIAL/Me.h:42: 	ADC1->CR2 |= (1 << 1);
 420              		.loc 2 42 12 is_stmt 0 view .LVU84
 421 0138 9A68     		ldr	r2, [r3, #8]	@ _15, MEM[(struct ADC_TypeDef *)1073816576B].CR2
 422 013a 42F00202 		orr	r2, r2, #2	@ _16, _15,
 423 013e 9A60     		str	r2, [r3, #8]	@ _16, MEM[(struct ADC_TypeDef *)1073816576B].CR2
  43:../5-PWM_LCD_SERIAL/Me.h **** 
  44:../5-PWM_LCD_SERIAL/Me.h **** 	// enable_interrupt(ADC1_2_IRQn);
  45:../5-PWM_LCD_SERIAL/Me.h **** 
  46:../5-PWM_LCD_SERIAL/Me.h **** 	// Enable A/D conversion
  47:../5-PWM_LCD_SERIAL/Me.h **** 	ADC1->CR2 |= (1 << 0);
 424              		.loc 2 47 2 is_stmt 1 view .LVU85
 425              	@ ../5-PWM_LCD_SERIAL/Me.h:47: 	ADC1->CR2 |= (1 << 0);
 426              		.loc 2 47 12 is_stmt 0 view .LVU86
 427 0140 9A68     		ldr	r2, [r3, #8]	@ _17, MEM[(struct ADC_TypeDef *)1073816576B].CR2
 428 0142 42F00102 		orr	r2, r2, #1	@ _18, _17,
 429 0146 9A60     		str	r2, [r3, #8]	@ _18, MEM[(struct ADC_TypeDef *)1073816576B].CR2
  48:../5-PWM_LCD_SERIAL/Me.h **** 
  49:../5-PWM_LCD_SERIAL/Me.h **** 	// Calibration reset and start
  50:../5-PWM_LCD_SERIAL/Me.h **** 	//    Optional for better accuracy.
  51:../5-PWM_LCD_SERIAL/Me.h **** 	ADC1->CR2 |= (1 << 3);
 430              		.loc 2 51 2 is_stmt 1 view .LVU87
 431              	@ ../5-PWM_LCD_SERIAL/Me.h:51: 	ADC1->CR2 |= (1 << 3);
 432              		.loc 2 51 12 is_stmt 0 view .LVU88
 433 0148 9A68     		ldr	r2, [r3, #8]	@ _19, MEM[(struct ADC_TypeDef *)1073816576B].CR2
 434 014a 42F00802 		orr	r2, r2, #8	@ _20, _19,
 435 014e 9A60     		str	r2, [r3, #8]	@ _20, MEM[(struct ADC_TypeDef *)1073816576B].CR2
  52:../5-PWM_LCD_SERIAL/Me.h **** 	while((ADC1->CR2 & (1 << 3)));
 436              		.loc 2 52 2 is_stmt 1 view .LVU89
 437              	.L14:
 438              		.loc 2 52 31 discriminator 1 view .LVU90
 439              		.loc 2 52 7 discriminator 1 view .LVU91
 440              	@ ../5-PWM_LCD_SERIAL/Me.h:52: 	while((ADC1->CR2 & (1 << 3)));
 441              		.loc 2 52 13 is_stmt 0 discriminator 1 view .LVU92
 442 0150 9A68     		ldr	r2, [r3, #8]	@ _21, MEM[(struct ADC_TypeDef *)1073816576B].CR2
 443              	@ ../5-PWM_LCD_SERIAL/Me.h:52: 	while((ADC1->CR2 & (1 << 3)));
ARM GAS  /tmp/cc4kJ8mf.s 			page 13


 444              		.loc 2 52 7 discriminator 1 view .LVU93
 445 0152 1107     		lsls	r1, r2, #28	@, _21,
 446 0154 FCD4     		bmi	.L14		@,
  53:../5-PWM_LCD_SERIAL/Me.h **** 	ADC1->CR2 |= (1 << 2);
 447              		.loc 2 53 2 is_stmt 1 view .LVU94
 448              	@ ../5-PWM_LCD_SERIAL/Me.h:53: 	ADC1->CR2 |= (1 << 2);
 449              		.loc 2 53 12 is_stmt 0 view .LVU95
 450 0156 9A68     		ldr	r2, [r3, #8]	@ _23, MEM[(struct ADC_TypeDef *)1073816576B].CR2
 451 0158 42F00402 		orr	r2, r2, #4	@ _24, _23,
 452 015c 9A60     		str	r2, [r3, #8]	@ _24, MEM[(struct ADC_TypeDef *)1073816576B].CR2
  54:../5-PWM_LCD_SERIAL/Me.h **** 	while((ADC1->CR2 & (1 << 2)));
 453              		.loc 2 54 2 is_stmt 1 view .LVU96
 454              	@ ../5-PWM_LCD_SERIAL/Me.h:54: 	while((ADC1->CR2 & (1 << 2)));
 455              		.loc 2 54 13 is_stmt 0 view .LVU97
 456 015e 064B     		ldr	r3, .L18+8	@ tmp169,
 457              	.L15:
 458              		.loc 2 54 31 is_stmt 1 discriminator 1 view .LVU98
 459              		.loc 2 54 7 discriminator 1 view .LVU99
 460              	@ ../5-PWM_LCD_SERIAL/Me.h:54: 	while((ADC1->CR2 & (1 << 2)));
 461              		.loc 2 54 13 is_stmt 0 discriminator 1 view .LVU100
 462 0160 9A68     		ldr	r2, [r3, #8]	@ _25, MEM[(struct ADC_TypeDef *)1073816576B].CR2
 463              	@ ../5-PWM_LCD_SERIAL/Me.h:54: 	while((ADC1->CR2 & (1 << 2)));
 464              		.loc 2 54 7 discriminator 1 view .LVU101
 465 0162 5207     		lsls	r2, r2, #29	@, _25,
 466 0164 FCD4     		bmi	.L15		@,
  55:../5-PWM_LCD_SERIAL/Me.h **** 
  56:../5-PWM_LCD_SERIAL/Me.h **** 	// Start conversion with software trigger
  57:../5-PWM_LCD_SERIAL/Me.h **** 	ADC1->CR2 |= (1<<22);
 467              		.loc 2 57 2 is_stmt 1 view .LVU102
 468              	@ ../5-PWM_LCD_SERIAL/Me.h:57: 	ADC1->CR2 |= (1<<22);
 469              		.loc 2 57 12 is_stmt 0 view .LVU103
 470 0166 9A68     		ldr	r2, [r3, #8]	@ _27, MEM[(struct ADC_TypeDef *)1073816576B].CR2
 471 0168 42F48002 		orr	r2, r2, #4194304	@ _28, _27,
 472 016c 9A60     		str	r2, [r3, #8]	@ _28, MEM[(struct ADC_TypeDef *)1073816576B].CR2
 473              	@ ../5-PWM_LCD_SERIAL/Me.h:60: }
  58:../5-PWM_LCD_SERIAL/Me.h **** 	//
  59:../5-PWM_LCD_SERIAL/Me.h **** 	// Leitura  ADC1->DR  -> Data Register
  60:../5-PWM_LCD_SERIAL/Me.h **** }
 474              		.loc 2 60 1 view .LVU104
 475 016e 7047     		bx	lr	@
 476              	.L19:
 477              		.align	2
 478              	.L18:
 479 0170 00100240 		.word	1073876992
 480 0174 00080140 		.word	1073809408
 481 0178 00240140 		.word	1073816576
 482              		.cfi_endproc
 483              	.LFE34:
 484              		.size	ADC1_configure, .-ADC1_configure
 485              		.align	1
 486              		.global	set_system_clock_to_72Mhz
 487              		.syntax unified
 488              		.thumb
 489              		.thumb_func
 490              		.type	set_system_clock_to_72Mhz, %function
 491              	set_system_clock_to_72Mhz:
 492              	.LFB35:
ARM GAS  /tmp/cc4kJ8mf.s 			page 14


  61:../5-PWM_LCD_SERIAL/Me.h **** 
  62:../5-PWM_LCD_SERIAL/Me.h **** void set_system_clock_to_72Mhz(void)
  63:../5-PWM_LCD_SERIAL/Me.h **** {
 493              		.loc 2 63 1 is_stmt 1 view -0
 494              		.cfi_startproc
 495              		@ args = 0, pretend = 0, frame = 0
 496              		@ frame_needed = 0, uses_anonymous_args = 0
 497              		@ link register save eliminated.
  64:../5-PWM_LCD_SERIAL/Me.h ****    // Necessary wait states for Flash for high speeds
  65:../5-PWM_LCD_SERIAL/Me.h ****    FLASH->ACR = 0x12;
 498              		.loc 2 65 4 view .LVU106
 499              	@ ../5-PWM_LCD_SERIAL/Me.h:65:    FLASH->ACR = 0x12;
 500              		.loc 2 65 15 is_stmt 0 view .LVU107
 501 017c 1222     		movs	r2, #18	@ tmp140,
 502 017e 1B4B     		ldr	r3, .L27	@ tmp139,
 503 0180 1A60     		str	r2, [r3]	@ tmp140, MEM[(struct FLASH_TypeDef *)1073881088B].ACR
  66:../5-PWM_LCD_SERIAL/Me.h ****    // Enable HSE
  67:../5-PWM_LCD_SERIAL/Me.h ****    RCC->CR |= (1 << 16);
 504              		.loc 2 67 4 is_stmt 1 view .LVU108
 505              	@ ../5-PWM_LCD_SERIAL/Me.h:67:    RCC->CR |= (1 << 16);
 506              		.loc 2 67 12 is_stmt 0 view .LVU109
 507 0182 A3F58053 		sub	r3, r3, #4096	@ tmp141, tmp141,
 508 0186 1A68     		ldr	r2, [r3]	@ _1, MEM[(struct RCC_TypeDef *)1073876992B].CR
 509 0188 42F48032 		orr	r2, r2, #65536	@ _2, _1,
 510 018c 1A60     		str	r2, [r3]	@ _2, MEM[(struct RCC_TypeDef *)1073876992B].CR
  68:../5-PWM_LCD_SERIAL/Me.h ****    // Wait untill HSE settles down
  69:../5-PWM_LCD_SERIAL/Me.h ****    while (!(RCC->CR & (1 << 17)));
 511              		.loc 2 69 4 is_stmt 1 view .LVU110
 512              	.L21:
 513              		.loc 2 69 34 discriminator 1 view .LVU111
 514              		.loc 2 69 10 discriminator 1 view .LVU112
 515              	@ ../5-PWM_LCD_SERIAL/Me.h:69:    while (!(RCC->CR & (1 << 17)));
 516              		.loc 2 69 16 is_stmt 0 discriminator 1 view .LVU113
 517 018e 1A68     		ldr	r2, [r3]	@ _3, MEM[(struct RCC_TypeDef *)1073876992B].CR
 518              	@ ../5-PWM_LCD_SERIAL/Me.h:69:    while (!(RCC->CR & (1 << 17)));
 519              		.loc 2 69 10 discriminator 1 view .LVU114
 520 0190 9103     		lsls	r1, r2, #14	@, _3,
 521 0192 FCD5     		bpl	.L21		@,
  70:../5-PWM_LCD_SERIAL/Me.h ****    // Set PREDIV2 division factor to 5
  71:../5-PWM_LCD_SERIAL/Me.h ****    RCC->CFGR2 |= (0b0100 << 4);
 522              		.loc 2 71 4 is_stmt 1 view .LVU115
 523              	@ ../5-PWM_LCD_SERIAL/Me.h:71:    RCC->CFGR2 |= (0b0100 << 4);
 524              		.loc 2 71 15 is_stmt 0 view .LVU116
 525 0194 DA6A     		ldr	r2, [r3, #44]	@ _5, MEM[(struct RCC_TypeDef *)1073876992B].CFGR2
 526 0196 42F04002 		orr	r2, r2, #64	@ _6, _5,
 527 019a DA62     		str	r2, [r3, #44]	@ _6, MEM[(struct RCC_TypeDef *)1073876992B].CFGR2
  72:../5-PWM_LCD_SERIAL/Me.h ****    // Set PLL2 multiplication factor to 8
  73:../5-PWM_LCD_SERIAL/Me.h ****    RCC->CFGR2 |= (0b0110 << 8);
 528              		.loc 2 73 4 is_stmt 1 view .LVU117
 529              	@ ../5-PWM_LCD_SERIAL/Me.h:73:    RCC->CFGR2 |= (0b0110 << 8);
 530              		.loc 2 73 15 is_stmt 0 view .LVU118
 531 019c DA6A     		ldr	r2, [r3, #44]	@ _7, MEM[(struct RCC_TypeDef *)1073876992B].CFGR2
 532 019e 42F4C062 		orr	r2, r2, #1536	@ _8, _7,
 533 01a2 DA62     		str	r2, [r3, #44]	@ _8, MEM[(struct RCC_TypeDef *)1073876992B].CFGR2
  74:../5-PWM_LCD_SERIAL/Me.h ****    // Enable PLL2
  75:../5-PWM_LCD_SERIAL/Me.h ****    RCC->CR |= (1 << 26);
 534              		.loc 2 75 4 is_stmt 1 view .LVU119
ARM GAS  /tmp/cc4kJ8mf.s 			page 15


 535              	@ ../5-PWM_LCD_SERIAL/Me.h:75:    RCC->CR |= (1 << 26);
 536              		.loc 2 75 12 is_stmt 0 view .LVU120
 537 01a4 1A68     		ldr	r2, [r3]	@ _9, MEM[(struct RCC_TypeDef *)1073876992B].CR
 538 01a6 42F08062 		orr	r2, r2, #67108864	@ _10, _9,
 539 01aa 1A60     		str	r2, [r3]	@ _10, MEM[(struct RCC_TypeDef *)1073876992B].CR
  76:../5-PWM_LCD_SERIAL/Me.h ****    // Wait untill PLL2 settles down
  77:../5-PWM_LCD_SERIAL/Me.h **** 	// while (!(RCC->CR & (1 << 27)));
  78:../5-PWM_LCD_SERIAL/Me.h ****    // Set PLL2 as PREDIV1 clock source
  79:../5-PWM_LCD_SERIAL/Me.h ****    RCC->CFGR2 |= (1 << 16);
 540              		.loc 2 79 4 is_stmt 1 view .LVU121
 541              	@ ../5-PWM_LCD_SERIAL/Me.h:79:    RCC->CFGR2 |= (1 << 16);
 542              		.loc 2 79 15 is_stmt 0 view .LVU122
 543 01ac DA6A     		ldr	r2, [r3, #44]	@ _11, MEM[(struct RCC_TypeDef *)1073876992B].CFGR2
 544 01ae 42F48032 		orr	r2, r2, #65536	@ _12, _11,
 545 01b2 DA62     		str	r2, [r3, #44]	@ _12, MEM[(struct RCC_TypeDef *)1073876992B].CFGR2
  80:../5-PWM_LCD_SERIAL/Me.h ****    // Set PREDIV1 division factor to 5
  81:../5-PWM_LCD_SERIAL/Me.h ****    RCC->CFGR2 |= (0b0100 << 0);
 546              		.loc 2 81 4 is_stmt 1 view .LVU123
 547              	@ ../5-PWM_LCD_SERIAL/Me.h:81:    RCC->CFGR2 |= (0b0100 << 0);
 548              		.loc 2 81 15 is_stmt 0 view .LVU124
 549 01b4 DA6A     		ldr	r2, [r3, #44]	@ _13, MEM[(struct RCC_TypeDef *)1073876992B].CFGR2
 550 01b6 42F00402 		orr	r2, r2, #4	@ _14, _13,
 551 01ba DA62     		str	r2, [r3, #44]	@ _14, MEM[(struct RCC_TypeDef *)1073876992B].CFGR2
  82:../5-PWM_LCD_SERIAL/Me.h ****    // Select Prediv1 as PLL source
  83:../5-PWM_LCD_SERIAL/Me.h ****    RCC->CFGR |= (1 << 16);
 552              		.loc 2 83 4 is_stmt 1 view .LVU125
 553              	@ ../5-PWM_LCD_SERIAL/Me.h:83:    RCC->CFGR |= (1 << 16);
 554              		.loc 2 83 14 is_stmt 0 view .LVU126
 555 01bc 5A68     		ldr	r2, [r3, #4]	@ _15, MEM[(struct RCC_TypeDef *)1073876992B].CFGR
 556 01be 42F48032 		orr	r2, r2, #65536	@ _16, _15,
 557 01c2 5A60     		str	r2, [r3, #4]	@ _16, MEM[(struct RCC_TypeDef *)1073876992B].CFGR
  84:../5-PWM_LCD_SERIAL/Me.h ****    // Set PLL1 multiplication factor to 9
  85:../5-PWM_LCD_SERIAL/Me.h ****    RCC->CFGR |= (0b0111 << 18);
 558              		.loc 2 85 4 is_stmt 1 view .LVU127
 559              	@ ../5-PWM_LCD_SERIAL/Me.h:85:    RCC->CFGR |= (0b0111 << 18);
 560              		.loc 2 85 14 is_stmt 0 view .LVU128
 561 01c4 5A68     		ldr	r2, [r3, #4]	@ _17, MEM[(struct RCC_TypeDef *)1073876992B].CFGR
 562 01c6 42F4E012 		orr	r2, r2, #1835008	@ _18, _17,
 563 01ca 5A60     		str	r2, [r3, #4]	@ _18, MEM[(struct RCC_TypeDef *)1073876992B].CFGR
  86:../5-PWM_LCD_SERIAL/Me.h ****    // Set APB1 to 36MHz
  87:../5-PWM_LCD_SERIAL/Me.h ****    RCC->CFGR |= 1 << 10;
 564              		.loc 2 87 4 is_stmt 1 view .LVU129
 565              	@ ../5-PWM_LCD_SERIAL/Me.h:87:    RCC->CFGR |= 1 << 10;
 566              		.loc 2 87 14 is_stmt 0 view .LVU130
 567 01cc 5A68     		ldr	r2, [r3, #4]	@ _19, MEM[(struct RCC_TypeDef *)1073876992B].CFGR
 568 01ce 42F48062 		orr	r2, r2, #1024	@ _20, _19,
 569 01d2 5A60     		str	r2, [r3, #4]	@ _20, MEM[(struct RCC_TypeDef *)1073876992B].CFGR
  88:../5-PWM_LCD_SERIAL/Me.h ****    // Enable PLL
  89:../5-PWM_LCD_SERIAL/Me.h ****    RCC->CR |= (1 << 24);
 570              		.loc 2 89 4 is_stmt 1 view .LVU131
 571              	@ ../5-PWM_LCD_SERIAL/Me.h:89:    RCC->CR |= (1 << 24);
 572              		.loc 2 89 12 is_stmt 0 view .LVU132
 573 01d4 1A68     		ldr	r2, [r3]	@ _21, MEM[(struct RCC_TypeDef *)1073876992B].CR
 574 01d6 42F08072 		orr	r2, r2, #16777216	@ _22, _21,
 575 01da 1A60     		str	r2, [r3]	@ _22, MEM[(struct RCC_TypeDef *)1073876992B].CR
  90:../5-PWM_LCD_SERIAL/Me.h ****    // Wait untill PLL settles down
  91:../5-PWM_LCD_SERIAL/Me.h ****    while (!(RCC->CR & (1 << 25)));
ARM GAS  /tmp/cc4kJ8mf.s 			page 16


 576              		.loc 2 91 4 is_stmt 1 view .LVU133
 577              	.L22:
 578              		.loc 2 91 34 discriminator 1 view .LVU134
 579              		.loc 2 91 10 discriminator 1 view .LVU135
 580              	@ ../5-PWM_LCD_SERIAL/Me.h:91:    while (!(RCC->CR & (1 << 25)));
 581              		.loc 2 91 16 is_stmt 0 discriminator 1 view .LVU136
 582 01dc 1A68     		ldr	r2, [r3]	@ _23, MEM[(struct RCC_TypeDef *)1073876992B].CR
 583              	@ ../5-PWM_LCD_SERIAL/Me.h:91:    while (!(RCC->CR & (1 << 25)));
 584              		.loc 2 91 10 discriminator 1 view .LVU137
 585 01de 9201     		lsls	r2, r2, #6	@, _23,
 586 01e0 FCD5     		bpl	.L22		@,
  92:../5-PWM_LCD_SERIAL/Me.h ****    // Finally, choose PLL as the system clock
  93:../5-PWM_LCD_SERIAL/Me.h ****    RCC->CFGR |= (0b10 << 0);
 587              		.loc 2 93 4 is_stmt 1 view .LVU138
 588              	@ ../5-PWM_LCD_SERIAL/Me.h:93:    RCC->CFGR |= (0b10 << 0);
 589              		.loc 2 93 14 is_stmt 0 view .LVU139
 590 01e2 5A68     		ldr	r2, [r3, #4]	@ _25, MEM[(struct RCC_TypeDef *)1073876992B].CFGR
 591 01e4 42F00202 		orr	r2, r2, #2	@ _26, _25,
 592 01e8 5A60     		str	r2, [r3, #4]	@ _26, MEM[(struct RCC_TypeDef *)1073876992B].CFGR
 593              	@ ../5-PWM_LCD_SERIAL/Me.h:94: } 
  94:../5-PWM_LCD_SERIAL/Me.h **** } 
 594              		.loc 2 94 1 view .LVU140
 595 01ea 7047     		bx	lr	@
 596              	.L28:
 597              		.align	2
 598              	.L27:
 599 01ec 00200240 		.word	1073881088
 600              		.cfi_endproc
 601              	.LFE35:
 602              		.size	set_system_clock_to_72Mhz, .-set_system_clock_to_72Mhz
 603              		.align	1
 604              		.global	Delay
 605              		.syntax unified
 606              		.thumb
 607              		.thumb_func
 608              		.type	Delay, %function
 609              	Delay:
 610              	.LVL16:
 611              	.LFB36:
  95:../5-PWM_LCD_SERIAL/Me.h **** 
  96:../5-PWM_LCD_SERIAL/Me.h **** void Delay ( __IO u32 T ) { // T=1 ;  868µs -> T=1 ~ 526µs
 612              		.loc 2 96 27 is_stmt 1 view -0
 613              		.cfi_startproc
 614              		@ args = 0, pretend = 0, frame = 8
 615              		@ frame_needed = 0, uses_anonymous_args = 0
 616              		@ link register save eliminated.
  97:../5-PWM_LCD_SERIAL/Me.h ****   for ( T ; T > 0 ; T-- ){
 617              		.loc 2 97 3 view .LVU142
 618              	@ ../5-PWM_LCD_SERIAL/Me.h:96: void Delay ( __IO u32 T ) { // T=1 ;  868µs -> T=1 ~ 526µs
  96:../5-PWM_LCD_SERIAL/Me.h ****   for ( T ; T > 0 ; T-- ){
 619              		.loc 2 96 27 is_stmt 0 view .LVU143
 620 01f0 82B0     		sub	sp, sp, #8	@,,
 621              	.LCFI3:
 622              		.cfi_def_cfa_offset 8
 623              	@ ../5-PWM_LCD_SERIAL/Me.h:96: void Delay ( __IO u32 T ) { // T=1 ;  868µs -> T=1 ~ 526µs
  96:../5-PWM_LCD_SERIAL/Me.h ****   for ( T ; T > 0 ; T-- ){
 624              		.loc 2 96 27 view .LVU144
ARM GAS  /tmp/cc4kJ8mf.s 			page 17


 625 01f2 0190     		str	r0, [sp, #4]	@ T, T
 626              	@ ../5-PWM_LCD_SERIAL/Me.h:97:   for ( T ; T > 0 ; T-- ){
 627              		.loc 2 97 3 view .LVU145
 628 01f4 019B     		ldr	r3, [sp, #4]	@ vol.0_9, T
 629              	@ ../5-PWM_LCD_SERIAL/Me.h:98:    TIM3->EGR |= ( 1 << 0 );
  98:../5-PWM_LCD_SERIAL/Me.h ****    TIM3->EGR |= ( 1 << 0 );
 630              		.loc 2 98 14 view .LVU146
 631 01f6 094A     		ldr	r2, .L34	@ tmp132,
 632              	.L30:
  97:../5-PWM_LCD_SERIAL/Me.h ****   for ( T ; T > 0 ; T-- ){
 633              		.loc 2 97 13 is_stmt 1 discriminator 1 view .LVU147
 634              	@ ../5-PWM_LCD_SERIAL/Me.h:97:   for ( T ; T > 0 ; T-- ){
  97:../5-PWM_LCD_SERIAL/Me.h ****   for ( T ; T > 0 ; T-- ){
 635              		.loc 2 97 15 is_stmt 0 discriminator 1 view .LVU148
 636 01f8 019B     		ldr	r3, [sp, #4]	@ T.2_6, T
 637              	@ ../5-PWM_LCD_SERIAL/Me.h:97:   for ( T ; T > 0 ; T-- ){
  97:../5-PWM_LCD_SERIAL/Me.h ****   for ( T ; T > 0 ; T-- ){
 638              		.loc 2 97 3 discriminator 1 view .LVU149
 639 01fa 0BB9     		cbnz	r3, .L32	@ T.2_6,
 640              	@ ../5-PWM_LCD_SERIAL/Me.h:101: }
  99:../5-PWM_LCD_SERIAL/Me.h ****    while ( TIM3->CNT < 5 ) ; /* 5 * 10-- Configurar para IR */
 100:../5-PWM_LCD_SERIAL/Me.h ****   }
 101:../5-PWM_LCD_SERIAL/Me.h **** }
 641              		.loc 2 101 1 view .LVU150
 642 01fc 02B0     		add	sp, sp, #8	@,,
 643              	.LCFI4:
 644              		.cfi_remember_state
 645              		.cfi_def_cfa_offset 0
 646              		@ sp needed	@
 647 01fe 7047     		bx	lr	@
 648              	.L32:
 649              	.LCFI5:
 650              		.cfi_restore_state
  98:../5-PWM_LCD_SERIAL/Me.h ****    TIM3->EGR |= ( 1 << 0 );
 651              		.loc 2 98 4 is_stmt 1 view .LVU151
 652              	@ ../5-PWM_LCD_SERIAL/Me.h:98:    TIM3->EGR |= ( 1 << 0 );
  98:../5-PWM_LCD_SERIAL/Me.h ****    TIM3->EGR |= ( 1 << 0 );
 653              		.loc 2 98 14 is_stmt 0 view .LVU152
 654 0200 938A     		ldrh	r3, [r2, #20]	@, MEM[(struct TIM_TypeDef *)1073742848B].EGR
 655 0202 9BB2     		uxth	r3, r3	@ _1, MEM[(struct TIM_TypeDef *)1073742848B].EGR
 656 0204 43F00103 		orr	r3, r3, #1	@ _2, _1,
 657 0208 9382     		strh	r3, [r2, #20]	@ movhi	@ _2, MEM[(struct TIM_TypeDef *)1073742848B].EGR
  99:../5-PWM_LCD_SERIAL/Me.h ****    while ( TIM3->CNT < 5 ) ; /* 5 * 10-- Configurar para IR */
 658              		.loc 2 99 4 is_stmt 1 view .LVU153
 659              	.L31:
  99:../5-PWM_LCD_SERIAL/Me.h ****    while ( TIM3->CNT < 5 ) ; /* 5 * 10-- Configurar para IR */
 660              		.loc 2 99 28 discriminator 1 view .LVU154
  99:../5-PWM_LCD_SERIAL/Me.h ****    while ( TIM3->CNT < 5 ) ; /* 5 * 10-- Configurar para IR */
 661              		.loc 2 99 10 discriminator 1 view .LVU155
 662              	@ ../5-PWM_LCD_SERIAL/Me.h:99:    while ( TIM3->CNT < 5 ) ; /* 5 * 10-- Configurar para IR */
  99:../5-PWM_LCD_SERIAL/Me.h ****    while ( TIM3->CNT < 5 ) ; /* 5 * 10-- Configurar para IR */
 663              		.loc 2 99 16 is_stmt 0 discriminator 1 view .LVU156
 664 020a 938C     		ldrh	r3, [r2, #36]	@, MEM[(struct TIM_TypeDef *)1073742848B].CNT
 665 020c 9BB2     		uxth	r3, r3	@ _3, MEM[(struct TIM_TypeDef *)1073742848B].CNT
 666              	@ ../5-PWM_LCD_SERIAL/Me.h:99:    while ( TIM3->CNT < 5 ) ; /* 5 * 10-- Configurar para IR */
  99:../5-PWM_LCD_SERIAL/Me.h ****    while ( TIM3->CNT < 5 ) ; /* 5 * 10-- Configurar para IR */
 667              		.loc 2 99 10 discriminator 1 view .LVU157
ARM GAS  /tmp/cc4kJ8mf.s 			page 18


 668 020e 042B     		cmp	r3, #4	@ _3,
 669 0210 FBD9     		bls	.L31		@,
  97:../5-PWM_LCD_SERIAL/Me.h ****    TIM3->EGR |= ( 1 << 0 );
 670              		.loc 2 97 21 is_stmt 1 discriminator 2 view .LVU158
 671              	@ ../5-PWM_LCD_SERIAL/Me.h:97:   for ( T ; T > 0 ; T-- ){
  97:../5-PWM_LCD_SERIAL/Me.h ****    TIM3->EGR |= ( 1 << 0 );
 672              		.loc 2 97 22 is_stmt 0 discriminator 2 view .LVU159
 673 0212 019B     		ldr	r3, [sp, #4]	@ T.1_4, T
 674 0214 013B     		subs	r3, r3, #1	@ _5, T.1_4,
 675 0216 0193     		str	r3, [sp, #4]	@ _5, T
 676 0218 EEE7     		b	.L30		@
 677              	.L35:
 678 021a 00BF     		.align	2
 679              	.L34:
 680 021c 00040040 		.word	1073742848
 681              		.cfi_endproc
 682              	.LFE36:
 683              		.size	Delay, .-Delay
 684              		.align	1
 685              		.global	enable_TIM3_delay
 686              		.syntax unified
 687              		.thumb
 688              		.thumb_func
 689              		.type	enable_TIM3_delay, %function
 690              	enable_TIM3_delay:
 691              	.LFB37:
 102:../5-PWM_LCD_SERIAL/Me.h **** 
 103:../5-PWM_LCD_SERIAL/Me.h **** void enable_TIM3_delay (void) {
 692              		.loc 2 103 31 is_stmt 1 view -0
 693              		.cfi_startproc
 694              		@ args = 0, pretend = 0, frame = 0
 695              		@ frame_needed = 0, uses_anonymous_args = 0
 696              		@ link register save eliminated.
 104:../5-PWM_LCD_SERIAL/Me.h ****    RCC->APB1ENR |= 1<<1 ;
 697              		.loc 2 104 4 view .LVU161
 698              	@ ../5-PWM_LCD_SERIAL/Me.h:104:    RCC->APB1ENR |= 1<<1 ;
 699              		.loc 2 104 17 is_stmt 0 view .LVU162
 700 0220 084A     		ldr	r2, .L37	@ tmp117,
 701 0222 D369     		ldr	r3, [r2, #28]	@ _1, MEM[(struct RCC_TypeDef *)1073876992B].APB1ENR
 702 0224 43F00203 		orr	r3, r3, #2	@ _2, _1,
 703 0228 D361     		str	r3, [r2, #28]	@ _2, MEM[(struct RCC_TypeDef *)1073876992B].APB1ENR
 105:../5-PWM_LCD_SERIAL/Me.h ****    TIM3->CR1 = 0x0000;
 704              		.loc 2 105 4 is_stmt 1 view .LVU163
 705              	@ ../5-PWM_LCD_SERIAL/Me.h:105:    TIM3->CR1 = 0x0000;
 706              		.loc 2 105 14 is_stmt 0 view .LVU164
 707 022a 0023     		movs	r3, #0	@ tmp121,
 708 022c A2F50332 		sub	r2, r2, #134144	@ tmp119, tmp119,
 709 0230 1380     		strh	r3, [r2]	@ movhi	@ tmp121, MEM[(struct TIM_TypeDef *)1073742848B].CR1
 106:../5-PWM_LCD_SERIAL/Me.h ****    //TIM3->ARR = 21699;
 107:../5-PWM_LCD_SERIAL/Me.h ****    // TIM3->ARR = 250-1; // 10µs
 108:../5-PWM_LCD_SERIAL/Me.h ****    TIM3->ARR = 720-1; // 10µs
 710              		.loc 2 108 4 is_stmt 1 view .LVU165
 711              	@ ../5-PWM_LCD_SERIAL/Me.h:108:    TIM3->ARR = 720-1; // 10µs
 712              		.loc 2 108 14 is_stmt 0 view .LVU166
 713 0232 40F2CF23 		movw	r3, #719	@ tmp124,
 714 0236 9385     		strh	r3, [r2, #44]	@ movhi	@ tmp124, MEM[(struct TIM_TypeDef *)1073742848B].ARR
 109:../5-PWM_LCD_SERIAL/Me.h ****    // para obter o período de 868µs
ARM GAS  /tmp/cc4kJ8mf.s 			page 19


 110:../5-PWM_LCD_SERIAL/Me.h **** /*https://www.vishay.com/docs/80071/dataform.pdf PAG 2
 111:../5-PWM_LCD_SERIAL/Me.h ****  * https://controllerstech.com/ir-remote-with-stm32/
 112:../5-PWM_LCD_SERIAL/Me.h ****  * Per=(1+ARR)/Clock_system */
 113:../5-PWM_LCD_SERIAL/Me.h ****    TIM3->CR1 |= 1<<0;
 715              		.loc 2 113 4 is_stmt 1 view .LVU167
 716              	@ ../5-PWM_LCD_SERIAL/Me.h:113:    TIM3->CR1 |= 1<<0;
 717              		.loc 2 113 14 is_stmt 0 view .LVU168
 718 0238 1388     		ldrh	r3, [r2]	@, MEM[(struct TIM_TypeDef *)1073742848B].CR1
 719 023a 9BB2     		uxth	r3, r3	@ _3, MEM[(struct TIM_TypeDef *)1073742848B].CR1
 720 023c 43F00103 		orr	r3, r3, #1	@ _4, _3,
 721 0240 1380     		strh	r3, [r2]	@ movhi	@ _4, MEM[(struct TIM_TypeDef *)1073742848B].CR1
 722              	@ ../5-PWM_LCD_SERIAL/Me.h:114: }
 114:../5-PWM_LCD_SERIAL/Me.h **** }
 723              		.loc 2 114 1 view .LVU169
 724 0242 7047     		bx	lr	@
 725              	.L38:
 726              		.align	2
 727              	.L37:
 728 0244 00100240 		.word	1073876992
 729              		.cfi_endproc
 730              	.LFE37:
 731              		.size	enable_TIM3_delay, .-enable_TIM3_delay
 732              		.align	1
 733              		.global	enable_interrupt
 734              		.syntax unified
 735              		.thumb
 736              		.thumb_func
 737              		.type	enable_interrupt, %function
 738              	enable_interrupt:
 739              	.LVL17:
 740              	.LFB38:
 115:../5-PWM_LCD_SERIAL/Me.h **** 
 116:../5-PWM_LCD_SERIAL/Me.h **** void enable_interrupt(IRQn_Type IRQn)
 117:../5-PWM_LCD_SERIAL/Me.h **** {
 741              		.loc 2 117 1 is_stmt 1 view -0
 742              		.cfi_startproc
 743              		@ args = 0, pretend = 0, frame = 0
 744              		@ frame_needed = 0, uses_anonymous_args = 0
 745              		@ link register save eliminated.
 118:../5-PWM_LCD_SERIAL/Me.h ****    NVIC->ISER[((uint32_t)(IRQn) >> 5)] = (1 << ((uint32_t)(IRQn) & 0x1F));
 746              		.loc 2 118 4 view .LVU171
 747              	@ ../5-PWM_LCD_SERIAL/Me.h:118:    NVIC->ISER[((uint32_t)(IRQn) >> 5)] = (1 << ((uint32_t)(IRQn) & 
 748              		.loc 2 118 45 is_stmt 0 view .LVU172
 749 0248 0123     		movs	r3, #1	@ tmp124,
 750              	@ ../5-PWM_LCD_SERIAL/Me.h:118:    NVIC->ISER[((uint32_t)(IRQn) >> 5)] = (1 << ((uint32_t)(IRQn) & 
 751              		.loc 2 118 33 view .LVU173
 752 024a 4209     		lsrs	r2, r0, #5	@ _6, IRQn,
 753              	@ ../5-PWM_LCD_SERIAL/Me.h:118:    NVIC->ISER[((uint32_t)(IRQn) >> 5)] = (1 << ((uint32_t)(IRQn) & 
 754              		.loc 2 118 66 view .LVU174
 755 024c 00F01F00 		and	r0, r0, #31	@ tmp123, IRQn,
 756              	.LVL18:
 757              	@ ../5-PWM_LCD_SERIAL/Me.h:118:    NVIC->ISER[((uint32_t)(IRQn) >> 5)] = (1 << ((uint32_t)(IRQn) & 
 758              		.loc 2 118 45 view .LVU175
 759 0250 03FA00F0 		lsl	r0, r3, r0	@ _7, tmp124, tmp123
 760              	@ ../5-PWM_LCD_SERIAL/Me.h:118:    NVIC->ISER[((uint32_t)(IRQn) >> 5)] = (1 << ((uint32_t)(IRQn) & 
 761              		.loc 2 118 40 view .LVU176
 762 0254 014B     		ldr	r3, .L40	@ tmp125,
ARM GAS  /tmp/cc4kJ8mf.s 			page 20


 763 0256 43F82200 		str	r0, [r3, r2, lsl #2]	@ _7, MEM[(struct NVIC_Type *)3758153984B].ISER[_6]
 764              	@ ../5-PWM_LCD_SERIAL/Me.h:119: }  
 119:../5-PWM_LCD_SERIAL/Me.h **** }  
 765              		.loc 2 119 1 view .LVU177
 766 025a 7047     		bx	lr	@
 767              	.L41:
 768              		.align	2
 769              	.L40:
 770 025c 00E100E0 		.word	-536813312
 771              		.cfi_endproc
 772              	.LFE38:
 773              		.size	enable_interrupt, .-enable_interrupt
 774              		.align	1
 775              		.global	disable_interrupt
 776              		.syntax unified
 777              		.thumb
 778              		.thumb_func
 779              		.type	disable_interrupt, %function
 780              	disable_interrupt:
 781              	.LVL19:
 782              	.LFB39:
 120:../5-PWM_LCD_SERIAL/Me.h ****    
 121:../5-PWM_LCD_SERIAL/Me.h **** /* 
 122:../5-PWM_LCD_SERIAL/Me.h ****  * Disable given interrupt
 123:../5-PWM_LCD_SERIAL/Me.h ****  */
 124:../5-PWM_LCD_SERIAL/Me.h **** void disable_interrupt(IRQn_Type IRQn)
 125:../5-PWM_LCD_SERIAL/Me.h **** {
 783              		.loc 2 125 1 is_stmt 1 view -0
 784              		.cfi_startproc
 785              		@ args = 0, pretend = 0, frame = 0
 786              		@ frame_needed = 0, uses_anonymous_args = 0
 787              		@ link register save eliminated.
 126:../5-PWM_LCD_SERIAL/Me.h ****    NVIC->ICER[((uint32_t)(IRQn) >> 5)] = (1 << ((uint32_t)(IRQn) & 0x1F));
 788              		.loc 2 126 4 view .LVU179
 789              	@ ../5-PWM_LCD_SERIAL/Me.h:126:    NVIC->ICER[((uint32_t)(IRQn) >> 5)] = (1 << ((uint32_t)(IRQn) & 
 790              		.loc 2 126 45 is_stmt 0 view .LVU180
 791 0260 0122     		movs	r2, #1	@ tmp124,
 792              	@ ../5-PWM_LCD_SERIAL/Me.h:126:    NVIC->ICER[((uint32_t)(IRQn) >> 5)] = (1 << ((uint32_t)(IRQn) & 
 793              		.loc 2 126 33 view .LVU181
 794 0262 4309     		lsrs	r3, r0, #5	@ _6, IRQn,
 795              	@ ../5-PWM_LCD_SERIAL/Me.h:126:    NVIC->ICER[((uint32_t)(IRQn) >> 5)] = (1 << ((uint32_t)(IRQn) & 
 796              		.loc 2 126 66 view .LVU182
 797 0264 00F01F00 		and	r0, r0, #31	@ tmp123, IRQn,
 798              	.LVL20:
 799              	@ ../5-PWM_LCD_SERIAL/Me.h:126:    NVIC->ICER[((uint32_t)(IRQn) >> 5)] = (1 << ((uint32_t)(IRQn) & 
 800              		.loc 2 126 45 view .LVU183
 801 0268 02FA00F0 		lsl	r0, r2, r0	@ _7, tmp124, tmp123
 802              	@ ../5-PWM_LCD_SERIAL/Me.h:126:    NVIC->ICER[((uint32_t)(IRQn) >> 5)] = (1 << ((uint32_t)(IRQn) & 
 803              		.loc 2 126 40 view .LVU184
 804 026c 024A     		ldr	r2, .L43	@ tmp125,
 805 026e 2033     		adds	r3, r3, #32	@ tmp126, _6,
 806 0270 42F82300 		str	r0, [r2, r3, lsl #2]	@ _7, MEM[(struct NVIC_Type *)3758153984B].ICER[_6]
 807              	@ ../5-PWM_LCD_SERIAL/Me.h:127: }
 127:../5-PWM_LCD_SERIAL/Me.h **** }
 808              		.loc 2 127 1 view .LVU185
 809 0274 7047     		bx	lr	@
 810              	.L44:
ARM GAS  /tmp/cc4kJ8mf.s 			page 21


 811 0276 00BF     		.align	2
 812              	.L43:
 813 0278 00E100E0 		.word	-536813312
 814              		.cfi_endproc
 815              	.LFE39:
 816              		.size	disable_interrupt, .-disable_interrupt
 817              		.align	1
 818              		.global	USART_init
 819              		.syntax unified
 820              		.thumb
 821              		.thumb_func
 822              		.type	USART_init, %function
 823              	USART_init:
 824              	.LFB40:
 825              		.file 3 "../5-PWM_LCD_SERIAL/Serial.h"
   1:../5-PWM_LCD_SERIAL/Serial.h **** // #ifndef	SERIAL_K
   2:../5-PWM_LCD_SERIAL/Serial.h **** // #define 	SERIAL_K
   3:../5-PWM_LCD_SERIAL/Serial.h **** 
   4:../5-PWM_LCD_SERIAL/Serial.h **** void USARTSend(char *pucBuffer);
   5:../5-PWM_LCD_SERIAL/Serial.h **** void USART_init(void);
   6:../5-PWM_LCD_SERIAL/Serial.h **** 
   7:../5-PWM_LCD_SERIAL/Serial.h **** void USART_init(void) {
 826              		.loc 3 7 23 is_stmt 1 view -0
 827              		.cfi_startproc
 828              		@ args = 0, pretend = 0, frame = 24
 829              		@ frame_needed = 0, uses_anonymous_args = 0
   8:../5-PWM_LCD_SERIAL/Serial.h ****    /* Enable USART1 and GPIOA clock */
   9:../5-PWM_LCD_SERIAL/Serial.h ****    RCC_APB2PeriphClockCmd(RCC_APB2Periph_USART1 | RCC_APB2Periph_GPIOA, ENABLE);
 830              		.loc 3 9 4 view .LVU187
 831              	@ ../5-PWM_LCD_SERIAL/Serial.h:7: void USART_init(void) {
   7:../5-PWM_LCD_SERIAL/Serial.h ****    /* Enable USART1 and GPIOA clock */
 832              		.loc 3 7 23 is_stmt 0 view .LVU188
 833 027c 10B5     		push	{r4, lr}	@
 834              	.LCFI6:
 835              		.cfi_def_cfa_offset 8
 836              		.cfi_offset 4, -8
 837              		.cfi_offset 14, -4
 838              	@ ../5-PWM_LCD_SERIAL/Serial.h:9:    RCC_APB2PeriphClockCmd(RCC_APB2Periph_USART1 | RCC_APB2Periph_
 839              		.loc 3 9 4 view .LVU189
 840 027e 0121     		movs	r1, #1	@,
 841              	@ ../5-PWM_LCD_SERIAL/Serial.h:7: void USART_init(void) {
   7:../5-PWM_LCD_SERIAL/Serial.h ****    /* Enable USART1 and GPIOA clock */
 842              		.loc 3 7 23 view .LVU190
 843 0280 86B0     		sub	sp, sp, #24	@,,
 844              	.LCFI7:
 845              		.cfi_def_cfa_offset 32
 846              	@ ../5-PWM_LCD_SERIAL/Serial.h:9:    RCC_APB2PeriphClockCmd(RCC_APB2Periph_USART1 | RCC_APB2Periph_
 847              		.loc 3 9 4 view .LVU191
 848 0282 44F20400 		movw	r0, #16388	@,
 849 0286 FFF7FEFF 		bl	RCC_APB2PeriphClockCmd		@
 850              	.LVL21:
  10:../5-PWM_LCD_SERIAL/Serial.h **** 
  11:../5-PWM_LCD_SERIAL/Serial.h ****    /* Configure the GPIOs */
  12:../5-PWM_LCD_SERIAL/Serial.h ****    GPIO_InitTypeDef GPIO_InitStructure;
 851              		.loc 3 12 4 is_stmt 1 view .LVU192
  13:../5-PWM_LCD_SERIAL/Serial.h **** 
  14:../5-PWM_LCD_SERIAL/Serial.h ****    /* Configure USART1 Tx (PA.09) as alternate function push-pull */
ARM GAS  /tmp/cc4kJ8mf.s 			page 22


  15:../5-PWM_LCD_SERIAL/Serial.h ****    GPIO_InitStructure.GPIO_Pin = GPIO_Pin_9;
 852              		.loc 3 15 4 view .LVU193
  16:../5-PWM_LCD_SERIAL/Serial.h ****    GPIO_InitStructure.GPIO_Mode = GPIO_Mode_AF_PP;
 853              		.loc 3 16 4 view .LVU194
  17:../5-PWM_LCD_SERIAL/Serial.h ****    GPIO_InitStructure.GPIO_Speed = GPIO_Speed_50MHz;
 854              		.loc 3 17 4 view .LVU195
 855              	@ ../5-PWM_LCD_SERIAL/Serial.h:15:    GPIO_InitStructure.GPIO_Pin = GPIO_Pin_9;
  15:../5-PWM_LCD_SERIAL/Serial.h ****    GPIO_InitStructure.GPIO_Mode = GPIO_Mode_AF_PP;
 856              		.loc 3 15 32 is_stmt 0 view .LVU196
 857 028a 4FF40073 		mov	r3, #512	@ tmp114,
 858 028e ADF80430 		strh	r3, [sp, #4]	@ movhi	@ tmp114, GPIO_InitStructure.GPIO_Pin
 859              	@ ../5-PWM_LCD_SERIAL/Serial.h:17:    GPIO_InitStructure.GPIO_Speed = GPIO_Speed_50MHz;
 860              		.loc 3 17 34 view .LVU197
 861 0292 41F60303 		movw	r3, #6147	@ tmp116,
 862              	@ ../5-PWM_LCD_SERIAL/Serial.h:18:    GPIO_Init(GPIOA, &GPIO_InitStructure);
  18:../5-PWM_LCD_SERIAL/Serial.h ****    GPIO_Init(GPIOA, &GPIO_InitStructure);
 863              		.loc 3 18 4 view .LVU198
 864 0296 144C     		ldr	r4, .L46	@ tmp118,
 865 0298 01A9     		add	r1, sp, #4	@ tmp134,,
 866 029a 2046     		mov	r0, r4	@, tmp118
 867              	@ ../5-PWM_LCD_SERIAL/Serial.h:17:    GPIO_InitStructure.GPIO_Speed = GPIO_Speed_50MHz;
  17:../5-PWM_LCD_SERIAL/Serial.h ****    GPIO_InitStructure.GPIO_Speed = GPIO_Speed_50MHz;
 868              		.loc 3 17 34 view .LVU199
 869 029c ADF80630 		strh	r3, [sp, #6]	@ movhi	@ tmp116, MEM <unsigned short> [(void *)&GPIO_InitStructure + 2B]
 870              		.loc 3 18 4 is_stmt 1 view .LVU200
 871 02a0 FFF7FEFF 		bl	GPIO_Init		@
 872              	.LVL22:
  19:../5-PWM_LCD_SERIAL/Serial.h **** 
  20:../5-PWM_LCD_SERIAL/Serial.h ****    /* Configure USART1 Rx (PA.10) as input floating */
  21:../5-PWM_LCD_SERIAL/Serial.h ****    GPIO_InitStructure.GPIO_Pin = GPIO_Pin_10;
 873              		.loc 3 21 4 view .LVU201
 874              	@ ../5-PWM_LCD_SERIAL/Serial.h:21:    GPIO_InitStructure.GPIO_Pin = GPIO_Pin_10;
 875              		.loc 3 21 32 is_stmt 0 view .LVU202
 876 02a4 4FF48063 		mov	r3, #1024	@ tmp120,
 877 02a8 ADF80430 		strh	r3, [sp, #4]	@ movhi	@ tmp120, GPIO_InitStructure.GPIO_Pin
  22:../5-PWM_LCD_SERIAL/Serial.h ****    GPIO_InitStructure.GPIO_Mode = GPIO_Mode_IN_FLOATING;
 878              		.loc 3 22 4 is_stmt 1 view .LVU203
 879              	@ ../5-PWM_LCD_SERIAL/Serial.h:22:    GPIO_InitStructure.GPIO_Mode = GPIO_Mode_IN_FLOATING;
 880              		.loc 3 22 33 is_stmt 0 view .LVU204
 881 02ac 0423     		movs	r3, #4	@ tmp121,
 882              	@ ../5-PWM_LCD_SERIAL/Serial.h:23:    GPIO_Init(GPIOA, &GPIO_InitStructure);
  23:../5-PWM_LCD_SERIAL/Serial.h ****    GPIO_Init(GPIOA, &GPIO_InitStructure);
 883              		.loc 3 23 4 view .LVU205
 884 02ae 2046     		mov	r0, r4	@, tmp118
 885 02b0 0DEB0301 		add	r1, sp, r3	@ tmp135,,
 886              	@ ../5-PWM_LCD_SERIAL/Serial.h:22:    GPIO_InitStructure.GPIO_Mode = GPIO_Mode_IN_FLOATING;
  22:../5-PWM_LCD_SERIAL/Serial.h ****    GPIO_InitStructure.GPIO_Mode = GPIO_Mode_IN_FLOATING;
 887              		.loc 3 22 33 view .LVU206
 888 02b4 8DF80730 		strb	r3, [sp, #7]	@ tmp121, GPIO_InitStructure.GPIO_Mode
 889              		.loc 3 23 4 is_stmt 1 view .LVU207
 890 02b8 FFF7FEFF 		bl	GPIO_Init		@
 891              	.LVL23:
  24:../5-PWM_LCD_SERIAL/Serial.h **** 
  25:../5-PWM_LCD_SERIAL/Serial.h ****    /* Configure the USART1 */
  26:../5-PWM_LCD_SERIAL/Serial.h ****    USART_InitTypeDef USART_InitStructure;
 892              		.loc 3 26 4 view .LVU208
  27:../5-PWM_LCD_SERIAL/Serial.h ****    USART_InitStructure.USART_BaudRate = 115200;
ARM GAS  /tmp/cc4kJ8mf.s 			page 23


 893              		.loc 3 27 4 view .LVU209
  28:../5-PWM_LCD_SERIAL/Serial.h ****    USART_InitStructure.USART_WordLength = USART_WordLength_8b;
 894              		.loc 3 28 4 view .LVU210
  29:../5-PWM_LCD_SERIAL/Serial.h ****    USART_InitStructure.USART_StopBits = USART_StopBits_1;
 895              		.loc 3 29 4 view .LVU211
  30:../5-PWM_LCD_SERIAL/Serial.h ****    USART_InitStructure.USART_Parity = USART_Parity_No;
 896              		.loc 3 30 4 view .LVU212
  31:../5-PWM_LCD_SERIAL/Serial.h ****    USART_InitStructure.USART_HardwareFlowControl = USART_HardwareFlowControl_None;
 897              		.loc 3 31 4 view .LVU213
  32:../5-PWM_LCD_SERIAL/Serial.h ****    USART_InitStructure.USART_Mode = USART_Mode_Rx | USART_Mode_Tx;
 898              		.loc 3 32 4 view .LVU214
 899              	@ ../5-PWM_LCD_SERIAL/Serial.h:28:    USART_InitStructure.USART_WordLength = USART_WordLength_8b;
  28:../5-PWM_LCD_SERIAL/Serial.h ****    USART_InitStructure.USART_StopBits = USART_StopBits_1;
 900              		.loc 3 28 41 is_stmt 0 view .LVU215
 901 02bc 0023     		movs	r3, #0	@ tmp126,
 902 02be 4FF4E132 		mov	r2, #115200	@,
 903 02c2 CDE90223 		strd	r2, r3, [sp, #8]	@, tmp126,,
 904              	@ ../5-PWM_LCD_SERIAL/Serial.h:30:    USART_InitStructure.USART_Parity = USART_Parity_No;
  30:../5-PWM_LCD_SERIAL/Serial.h ****    USART_InitStructure.USART_HardwareFlowControl = USART_HardwareFlowControl_None;
 905              		.loc 3 30 37 view .LVU216
 906 02c6 4FF44022 		mov	r2, #786432	@ tmp127,
 907              	@ ../5-PWM_LCD_SERIAL/Serial.h:34:    USART_Init(USART1, &USART_InitStructure);
  33:../5-PWM_LCD_SERIAL/Serial.h **** 
  34:../5-PWM_LCD_SERIAL/Serial.h ****    USART_Init(USART1, &USART_InitStructure);
 908              		.loc 3 34 4 view .LVU217
 909 02ca 04F54054 		add	r4, r4, #12288	@ tmp131, tmp131,
 910 02ce 2046     		mov	r0, r4	@, tmp131
 911 02d0 02A9     		add	r1, sp, #8	@,,
 912              	@ ../5-PWM_LCD_SERIAL/Serial.h:30:    USART_InitStructure.USART_Parity = USART_Parity_No;
  30:../5-PWM_LCD_SERIAL/Serial.h ****    USART_InitStructure.USART_HardwareFlowControl = USART_HardwareFlowControl_None;
 913              		.loc 3 30 37 view .LVU218
 914 02d2 0492     		str	r2, [sp, #16]	@ tmp127, MEM <unsigned int> [(short unsigned int *)&USART_InitStructure + 8B]
 915              	@ ../5-PWM_LCD_SERIAL/Serial.h:31:    USART_InitStructure.USART_HardwareFlowControl = USART_Hardwar
  31:../5-PWM_LCD_SERIAL/Serial.h ****    USART_InitStructure.USART_Mode = USART_Mode_Rx | USART_Mode_Tx;
 916              		.loc 3 31 50 view .LVU219
 917 02d4 ADF81430 		strh	r3, [sp, #20]	@ movhi	@ tmp126, USART_InitStructure.USART_HardwareFlowControl
 918              		.loc 3 34 4 is_stmt 1 view .LVU220
 919 02d8 FFF7FEFF 		bl	USART_Init		@
 920              	.LVL24:
  35:../5-PWM_LCD_SERIAL/Serial.h **** 
  36:../5-PWM_LCD_SERIAL/Serial.h ****    /* Enable USART1 */
  37:../5-PWM_LCD_SERIAL/Serial.h ****    USART_Cmd(USART1, ENABLE);
 921              		.loc 3 37 4 view .LVU221
 922 02dc 0121     		movs	r1, #1	@,
 923 02de 2046     		mov	r0, r4	@, tmp131
 924 02e0 FFF7FEFF 		bl	USART_Cmd		@
 925              	.LVL25:
 926              	@ ../5-PWM_LCD_SERIAL/Serial.h:38: }
  38:../5-PWM_LCD_SERIAL/Serial.h **** }
 927              		.loc 3 38 1 is_stmt 0 view .LVU222
 928 02e4 06B0     		add	sp, sp, #24	@,,
 929              	.LCFI8:
 930              		.cfi_def_cfa_offset 8
 931              		@ sp needed	@
 932 02e6 10BD     		pop	{r4, pc}	@
 933              	.L47:
 934              		.align	2
ARM GAS  /tmp/cc4kJ8mf.s 			page 24


 935              	.L46:
 936 02e8 00080140 		.word	1073809408
 937              		.cfi_endproc
 938              	.LFE40:
 939              		.size	USART_init, .-USART_init
 940              		.align	1
 941              		.global	USARTSend
 942              		.syntax unified
 943              		.thumb
 944              		.thumb_func
 945              		.type	USARTSend, %function
 946              	USARTSend:
 947              	.LVL26:
 948              	.LFB41:
  39:../5-PWM_LCD_SERIAL/Serial.h **** 
  40:../5-PWM_LCD_SERIAL/Serial.h **** void USARTSend(char *pucBuffer) {
 949              		.loc 3 40 33 is_stmt 1 view -0
 950              		.cfi_startproc
 951              		@ args = 0, pretend = 0, frame = 0
 952              		@ frame_needed = 0, uses_anonymous_args = 0
  41:../5-PWM_LCD_SERIAL/Serial.h ****     while (*pucBuffer)
 953              		.loc 3 41 5 view .LVU224
 954              	@ ../5-PWM_LCD_SERIAL/Serial.h:40: void USARTSend(char *pucBuffer) {
  40:../5-PWM_LCD_SERIAL/Serial.h ****     while (*pucBuffer)
 955              		.loc 3 40 33 is_stmt 0 view .LVU225
 956 02ec 38B5     		push	{r3, r4, r5, lr}	@
 957              	.LCFI9:
 958              		.cfi_def_cfa_offset 16
 959              		.cfi_offset 3, -16
 960              		.cfi_offset 4, -12
 961              		.cfi_offset 5, -8
 962              		.cfi_offset 14, -4
 963              	@ ../5-PWM_LCD_SERIAL/Serial.h:43:         USART_SendData(USART1, *pucBuffer++);
  42:../5-PWM_LCD_SERIAL/Serial.h ****     {
  43:../5-PWM_LCD_SERIAL/Serial.h ****         USART_SendData(USART1, *pucBuffer++);
 964              		.loc 3 43 9 view .LVU226
 965 02ee 084D     		ldr	r5, .L54	@ tmp126,
 966 02f0 441E     		subs	r4, r0, #1	@ ivtmp.64, tmp128,
 967              	.LVL27:
 968              	.L49:
  41:../5-PWM_LCD_SERIAL/Serial.h ****     {
 969              		.loc 3 41 11 is_stmt 1 view .LVU227
 970              	@ ../5-PWM_LCD_SERIAL/Serial.h:41:     while (*pucBuffer)
  41:../5-PWM_LCD_SERIAL/Serial.h ****     {
 971              		.loc 3 41 12 is_stmt 0 view .LVU228
 972 02f2 14F8011F 		ldrb	r1, [r4, #1]!	@ zero_extendqisi2	@ _3, MEM[base: _16, offset: 0B]
 973              	.LVL28:
 974              	@ ../5-PWM_LCD_SERIAL/Serial.h:41:     while (*pucBuffer)
  41:../5-PWM_LCD_SERIAL/Serial.h ****     {
 975              		.loc 3 41 11 view .LVU229
 976 02f6 01B9     		cbnz	r1, .L51	@ _3,
 977              	@ ../5-PWM_LCD_SERIAL/Serial.h:48: }
  44:../5-PWM_LCD_SERIAL/Serial.h ****         while(USART_GetFlagStatus(USART1, USART_FLAG_TC) == RESET)
  45:../5-PWM_LCD_SERIAL/Serial.h ****         {
  46:../5-PWM_LCD_SERIAL/Serial.h ****         }
  47:../5-PWM_LCD_SERIAL/Serial.h ****     }
  48:../5-PWM_LCD_SERIAL/Serial.h **** }
ARM GAS  /tmp/cc4kJ8mf.s 			page 25


 978              		.loc 3 48 1 view .LVU230
 979 02f8 38BD     		pop	{r3, r4, r5, pc}	@
 980              	.LVL29:
 981              	.L51:
  43:../5-PWM_LCD_SERIAL/Serial.h ****         while(USART_GetFlagStatus(USART1, USART_FLAG_TC) == RESET)
 982              		.loc 3 43 9 is_stmt 1 view .LVU231
  43:../5-PWM_LCD_SERIAL/Serial.h ****         while(USART_GetFlagStatus(USART1, USART_FLAG_TC) == RESET)
 983              		.loc 3 43 9 is_stmt 0 view .LVU232
 984 02fa 2846     		mov	r0, r5	@, tmp126
 985 02fc FFF7FEFF 		bl	USART_SendData		@
 986              	.LVL30:
  44:../5-PWM_LCD_SERIAL/Serial.h ****         while(USART_GetFlagStatus(USART1, USART_FLAG_TC) == RESET)
 987              		.loc 3 44 9 is_stmt 1 view .LVU233
 988              	.L50:
  46:../5-PWM_LCD_SERIAL/Serial.h ****     }
 989              		.loc 3 46 9 discriminator 1 view .LVU234
  44:../5-PWM_LCD_SERIAL/Serial.h ****         while(USART_GetFlagStatus(USART1, USART_FLAG_TC) == RESET)
 990              		.loc 3 44 14 discriminator 1 view .LVU235
 991              	@ ../5-PWM_LCD_SERIAL/Serial.h:44:         while(USART_GetFlagStatus(USART1, USART_FLAG_TC) == RESE
  44:../5-PWM_LCD_SERIAL/Serial.h ****         while(USART_GetFlagStatus(USART1, USART_FLAG_TC) == RESET)
 992              		.loc 3 44 15 is_stmt 0 discriminator 1 view .LVU236
 993 0300 4021     		movs	r1, #64	@,
 994 0302 2846     		mov	r0, r5	@, tmp126
 995 0304 FFF7FEFF 		bl	USART_GetFlagStatus		@
 996              	.LVL31:
 997              	@ ../5-PWM_LCD_SERIAL/Serial.h:44:         while(USART_GetFlagStatus(USART1, USART_FLAG_TC) == RESE
  44:../5-PWM_LCD_SERIAL/Serial.h ****         while(USART_GetFlagStatus(USART1, USART_FLAG_TC) == RESET)
 998              		.loc 3 44 14 discriminator 1 view .LVU237
 999 0308 0028     		cmp	r0, #0	@ tmp129
 1000 030a F9D0     		beq	.L50	@
 1001 030c F1E7     		b	.L49		@
 1002              	.L55:
 1003 030e 00BF     		.align	2
 1004              	.L54:
 1005 0310 00380140 		.word	1073821696
 1006              		.cfi_endproc
 1007              	.LFE41:
 1008              		.size	USARTSend, .-USARTSend
 1009              		.section	.rodata.str1.1
 1010              	.LC2:
 1011 001e 0D0A5661 		.ascii	"\015\012Valor Lido: \000"
 1011      6C6F7220 
 1011      4C69646F 
 1011      3A2000
 1012              	.LC3:
 1013 002d 0D0A5661 		.ascii	"\015\012Valor n\303\243o amostrado ou transmitido!!"
 1013      6C6F7220 
 1013      6EC3A36F 
 1013      20616D6F 
 1013      73747261 
 1014 0054 200D0A00 		.ascii	" \015\012\000"
 1015              		.text
 1016              		.align	1
 1017              		.syntax unified
 1018              		.thumb
 1019              		.thumb_func
 1020              		.type	task3, %function
ARM GAS  /tmp/cc4kJ8mf.s 			page 26


 1021              	task3:
 1022              	.LVL32:
 1023              	.LFB44:
  86:../5-PWM_LCD_SERIAL/main.c **** 	USART_init();
 1024              		.loc 1 86 53 is_stmt 1 view -0
 1025              		.cfi_startproc
 1026              		@ args = 0, pretend = 0, frame = 16
 1027              		@ frame_needed = 0, uses_anonymous_args = 0
  87:../5-PWM_LCD_SERIAL/main.c **** 
 1028              		.loc 1 87 2 view .LVU239
 1029              	@ ../5-PWM_LCD_SERIAL/main.c:86: static void task3(void *args __attribute ((unused))){
  86:../5-PWM_LCD_SERIAL/main.c **** 	USART_init();
 1030              		.loc 1 86 53 is_stmt 0 view .LVU240
 1031 0314 7FB5     		push	{r0, r1, r2, r3, r4, r5, r6, lr}	@
 1032              	.LCFI10:
 1033              		.cfi_def_cfa_offset 32
 1034              		.cfi_offset 4, -16
 1035              		.cfi_offset 5, -12
 1036              		.cfi_offset 6, -8
 1037              		.cfi_offset 14, -4
 1038              	@ ../5-PWM_LCD_SERIAL/main.c:87: 	USART_init();
  87:../5-PWM_LCD_SERIAL/main.c **** 
 1039              		.loc 1 87 2 view .LVU241
 1040 0316 FFF7FEFF 		bl	USART_init		@
 1041              	.LVL33:
  89:../5-PWM_LCD_SERIAL/main.c **** 
 1042              		.loc 1 89 2 is_stmt 1 view .LVU242
 1043              	@ ../5-PWM_LCD_SERIAL/main.c:89: 	u32 dados_recebidos = 0;
  89:../5-PWM_LCD_SERIAL/main.c **** 
 1044              		.loc 1 89 6 is_stmt 0 view .LVU243
 1045 031a 0023     		movs	r3, #0	@ tmp119,
 1046              	@ ../5-PWM_LCD_SERIAL/main.c:96: 		status = xQueueReceive(fila_ADC,
  96:../5-PWM_LCD_SERIAL/main.c **** 			  	&dados_recebidos, 
 1047              		.loc 1 96 12 view .LVU244
 1048 031c 0F4D     		ldr	r5, .L60	@ tmp121,
 1049              	@ ../5-PWM_LCD_SERIAL/main.c:110: 			USARTSend("\r\nValor não amostrado ou transmitido!! \r\n");
 110:../5-PWM_LCD_SERIAL/main.c **** 	}
 1050              		.loc 1 110 4 view .LVU245
 1051 031e 104C     		ldr	r4, .L60+4	@ tmp128,
 1052              	@ ../5-PWM_LCD_SERIAL/main.c:101: 			USARTSend("\r\nValor Lido: ");
 101:../5-PWM_LCD_SERIAL/main.c **** 
 1053              		.loc 1 101 4 view .LVU246
 1054 0320 104E     		ldr	r6, .L60+8	@ tmp129,
 1055              	@ ../5-PWM_LCD_SERIAL/main.c:89: 	u32 dados_recebidos = 0;
  89:../5-PWM_LCD_SERIAL/main.c **** 
 1056              		.loc 1 89 6 view .LVU247
 1057 0322 0193     		str	r3, [sp, #4]	@ tmp119, dados_recebidos
 1058              	.L57:
  91:../5-PWM_LCD_SERIAL/main.c **** 	u8 status;
 1059              		.loc 1 91 2 is_stmt 1 view .LVU248
  92:../5-PWM_LCD_SERIAL/main.c **** 			
 1060              		.loc 1 92 2 view .LVU249
  95:../5-PWM_LCD_SERIAL/main.c **** 		status = xQueueReceive(fila_ADC,
 1061              		.loc 1 95 2 view .LVU250
  96:../5-PWM_LCD_SERIAL/main.c **** 			  	&dados_recebidos, 
 1062              		.loc 1 96 3 view .LVU251
 1063              	@ ../5-PWM_LCD_SERIAL/main.c:96: 		status = xQueueReceive(fila_ADC,
ARM GAS  /tmp/cc4kJ8mf.s 			page 27


  96:../5-PWM_LCD_SERIAL/main.c **** 			  	&dados_recebidos, 
 1064              		.loc 1 96 12 is_stmt 0 view .LVU252
 1065 0324 6422     		movs	r2, #100	@,
 1066 0326 2868     		ldr	r0, [r5]	@, fila_ADC
 1067 0328 01A9     		add	r1, sp, #4	@,,
 1068 032a FFF7FEFF 		bl	xQueueReceive		@
 1069              	.LVL34:
 100:../5-PWM_LCD_SERIAL/main.c **** 			USARTSend("\r\nValor Lido: ");
 1070              		.loc 1 100 3 is_stmt 1 view .LVU253
 1071              	@ ../5-PWM_LCD_SERIAL/main.c:100: 		if (status != NULL ){
 100:../5-PWM_LCD_SERIAL/main.c **** 			USARTSend("\r\nValor Lido: ");
 1072              		.loc 1 100 6 is_stmt 0 view .LVU254
 1073 032e C0B2     		uxtb	r0, r0	@ _2, tmp130
 100:../5-PWM_LCD_SERIAL/main.c **** 			USARTSend("\r\nValor Lido: ");
 1074              		.loc 1 100 6 view .LVU255
 1075 0330 78B1     		cbz	r0, .L58	@ _2,
 101:../5-PWM_LCD_SERIAL/main.c **** 
 1076              		.loc 1 101 4 is_stmt 1 view .LVU256
 1077 0332 3046     		mov	r0, r6	@, tmp129
 1078              	.LVL35:
 101:../5-PWM_LCD_SERIAL/main.c **** 
 1079              		.loc 1 101 4 is_stmt 0 view .LVU257
 1080 0334 FFF7FEFF 		bl	USARTSend		@
 1081              	.LVL36:
 104:../5-PWM_LCD_SERIAL/main.c **** 
 1082              		.loc 1 104 4 is_stmt 1 view .LVU258
 1083 0338 1022     		movs	r2, #16	@,
 1084 033a 02A9     		add	r1, sp, #8	@ tmp132,,
 1085 033c 0198     		ldr	r0, [sp, #4]	@, dados_recebidos
 1086 033e FFF7FEFF 		bl	itoa		@
 1087              	.LVL37:
 106:../5-PWM_LCD_SERIAL/main.c **** 			__delay_ms(100);
 1088              		.loc 1 106 4 view .LVU259
 1089 0342 02A8     		add	r0, sp, #8	@ tmp133,,
 1090 0344 FFF7FEFF 		bl	USARTSend		@
 1091              	.LVL38:
 107:../5-PWM_LCD_SERIAL/main.c **** 		}
 1092              		.loc 1 107 4 view .LVU260
 1093 0348 42F21070 		movw	r0, #10000	@,
 1094 034c FFF7FEFF 		bl	vTaskDelay		@
 1095              	.LVL39:
 1096 0350 E8E7     		b	.L57		@
 1097              	.LVL40:
 1098              	.L58:
 110:../5-PWM_LCD_SERIAL/main.c **** 	}
 1099              		.loc 1 110 4 view .LVU261
 1100 0352 2046     		mov	r0, r4	@, tmp128
 1101              	.LVL41:
 110:../5-PWM_LCD_SERIAL/main.c **** 	}
 1102              		.loc 1 110 4 is_stmt 0 view .LVU262
 1103 0354 FFF7FEFF 		bl	USARTSend		@
 1104              	.LVL42:
 1105 0358 E4E7     		b	.L57		@
 1106              	.L61:
 1107 035a 00BF     		.align	2
 1108              	.L60:
 1109 035c 00000000 		.word	.LANCHOR0
ARM GAS  /tmp/cc4kJ8mf.s 			page 28


 1110 0360 2D000000 		.word	.LC3
 1111 0364 1E000000 		.word	.LC2
 1112              		.cfi_endproc
 1113              	.LFE44:
 1114              		.size	task3, .-task3
 1115              		.section	.rodata.str1.1
 1116              	.LC4:
 1117 0058 4C43445F 		.ascii	"LCD_16x2\000"
 1117      31367832 
 1117      00
 1118              	.LC5:
 1119 0061 4C45445F 		.ascii	"LED_13\000"
 1119      313300
 1120              	.LC6:
 1121 0068 55534172 		.ascii	"USArt\000"
 1121      7400
 1122              	.LC7:
 1123 006e 41444300 		.ascii	"ADC\000"
 1124              		.section	.text.startup,"ax",%progbits
 1125              		.align	1
 1126              		.global	main
 1127              		.syntax unified
 1128              		.thumb
 1129              		.thumb_func
 1130              		.type	main, %function
 1131              	main:
 1132              	.LFB46:
 128:../5-PWM_LCD_SERIAL/main.c **** 	}
 129:../5-PWM_LCD_SERIAL/main.c **** }
 130:../5-PWM_LCD_SERIAL/main.c **** 
 131:../5-PWM_LCD_SERIAL/main.c **** int main(void) {
 1133              		.loc 1 131 16 is_stmt 1 view -0
 1134              		.cfi_startproc
 1135              		@ Volatile: function does not return.
 1136              		@ args = 0, pretend = 0, frame = 0
 1137              		@ frame_needed = 0, uses_anonymous_args = 0
 132:../5-PWM_LCD_SERIAL/main.c **** 	fila_ADC = xQueueCreate(5 /* Tamanho máximo da fila. */,
 1138              		.loc 1 132 2 view .LVU264
 1139              	@ ../5-PWM_LCD_SERIAL/main.c:131: int main(void) {
 131:../5-PWM_LCD_SERIAL/main.c **** 	fila_ADC = xQueueCreate(5 /* Tamanho máximo da fila. */,
 1140              		.loc 1 131 16 is_stmt 0 view .LVU265
 1141 0000 07B5     		push	{r0, r1, r2, lr}	@
 1142              	.LCFI11:
 1143              		.cfi_def_cfa_offset 16
 1144              		.cfi_offset 14, -4
 1145              	@ ../5-PWM_LCD_SERIAL/main.c:132: 	fila_ADC = xQueueCreate(5 /* Tamanho máximo da fila. */,
 1146              		.loc 1 132 13 view .LVU266
 1147 0002 0022     		movs	r2, #0	@,
 1148 0004 0421     		movs	r1, #4	@,
 1149 0006 0520     		movs	r0, #5	@,
 1150              	@ ../5-PWM_LCD_SERIAL/main.c:137: 	xTaskCreate(task1,"LCD_16x2", 100 ,NULL, 4 ,NULL);
 133:../5-PWM_LCD_SERIAL/main.c **** 								sizeof(u32) /* Largura máxima da fila. */);
 134:../5-PWM_LCD_SERIAL/main.c **** 
 135:../5-PWM_LCD_SERIAL/main.c **** 	set_system_clock_to_72Mhz();
 136:../5-PWM_LCD_SERIAL/main.c **** 
 137:../5-PWM_LCD_SERIAL/main.c **** 	xTaskCreate(task1,"LCD_16x2", 100 ,NULL, 4 ,NULL);
 1151              		.loc 1 137 2 view .LVU267
ARM GAS  /tmp/cc4kJ8mf.s 			page 29


 1152 0008 0024     		movs	r4, #0	@ tmp118,
 1153              	@ ../5-PWM_LCD_SERIAL/main.c:132: 	fila_ADC = xQueueCreate(5 /* Tamanho máximo da fila. */,
 132:../5-PWM_LCD_SERIAL/main.c **** 								sizeof(u32) /* Largura máxima da fila. */);
 1154              		.loc 1 132 13 view .LVU268
 1155 000a FFF7FEFF 		bl	xQueueGenericCreate		@
 1156              	.LVL43:
 1157              	@ ../5-PWM_LCD_SERIAL/main.c:137: 	xTaskCreate(task1,"LCD_16x2", 100 ,NULL, 4 ,NULL);
 1158              		.loc 1 137 2 view .LVU269
 1159 000e 0425     		movs	r5, #4	@ tmp119,
 1160              	@ ../5-PWM_LCD_SERIAL/main.c:132: 	fila_ADC = xQueueCreate(5 /* Tamanho máximo da fila. */,
 132:../5-PWM_LCD_SERIAL/main.c **** 								sizeof(u32) /* Largura máxima da fila. */);
 1161              		.loc 1 132 11 view .LVU270
 1162 0010 134B     		ldr	r3, .L64	@ tmp115,
 1163 0012 1860     		str	r0, [r3]	@ tmp132, fila_ADC
 135:../5-PWM_LCD_SERIAL/main.c **** 
 1164              		.loc 1 135 2 is_stmt 1 view .LVU271
 1165 0014 FFF7FEFF 		bl	set_system_clock_to_72Mhz		@
 1166              	.LVL44:
 1167              		.loc 1 137 2 view .LVU272
 1168 0018 1248     		ldr	r0, .L64+4	@,
 1169 001a 2346     		mov	r3, r4	@, tmp118
 1170 001c 6422     		movs	r2, #100	@,
 1171 001e 1249     		ldr	r1, .L64+8	@,
 1172 0020 CDE90054 		strd	r5, r4, [sp]	@ tmp119, tmp118,
 1173 0024 FFF7FEFF 		bl	xTaskCreate		@
 1174              	.LVL45:
 138:../5-PWM_LCD_SERIAL/main.c **** 	xTaskCreate(task2, "LED_13", 100 , NULL, 4 , NULL);
 1175              		.loc 1 138 2 view .LVU273
 1176 0028 2346     		mov	r3, r4	@, tmp118
 1177 002a 6422     		movs	r2, #100	@,
 1178 002c 0F49     		ldr	r1, .L64+12	@,
 1179 002e CDE90054 		strd	r5, r4, [sp]	@ tmp119, tmp118,
 1180 0032 0F48     		ldr	r0, .L64+16	@,
 1181 0034 FFF7FEFF 		bl	xTaskCreate		@
 1182              	.LVL46:
 139:../5-PWM_LCD_SERIAL/main.c **** 	xTaskCreate(task3, "USArt", 100 , NULL, 4 , NULL);
 1183              		.loc 1 139 2 view .LVU274
 1184 0038 2346     		mov	r3, r4	@, tmp118
 1185 003a 6422     		movs	r2, #100	@,
 1186 003c 0D49     		ldr	r1, .L64+20	@,
 1187 003e CDE90054 		strd	r5, r4, [sp]	@ tmp119, tmp118,
 1188 0042 0D48     		ldr	r0, .L64+24	@,
 1189 0044 FFF7FEFF 		bl	xTaskCreate		@
 1190              	.LVL47:
 140:../5-PWM_LCD_SERIAL/main.c **** 	xTaskCreate(task4, "ADC", 100 , NULL, 4 , NULL);
 1191              		.loc 1 140 2 view .LVU275
 1192 0048 2346     		mov	r3, r4	@, tmp118
 1193 004a 6422     		movs	r2, #100	@,
 1194 004c 0B49     		ldr	r1, .L64+28	@,
 1195 004e CDE90054 		strd	r5, r4, [sp]	@ tmp119, tmp118,
 1196 0052 0B48     		ldr	r0, .L64+32	@,
 1197 0054 FFF7FEFF 		bl	xTaskCreate		@
 1198              	.LVL48:
 141:../5-PWM_LCD_SERIAL/main.c **** 
 142:../5-PWM_LCD_SERIAL/main.c **** 	vTaskStartScheduler(); // inicia o escalonador de
 1199              		.loc 1 142 2 view .LVU276
 1200 0058 FFF7FEFF 		bl	vTaskStartScheduler		@
ARM GAS  /tmp/cc4kJ8mf.s 			page 30


 1201              	.LVL49:
 1202              	.L63:
 143:../5-PWM_LCD_SERIAL/main.c **** 								  // processos.
 144:../5-PWM_LCD_SERIAL/main.c **** 	while(1);
 1203              		.loc 1 144 2 discriminator 1 view .LVU277
 1204              		.loc 1 144 10 discriminator 1 view .LVU278
 1205              		.loc 1 144 7 discriminator 1 view .LVU279
 1206 005c FEE7     		b	.L63		@
 1207              	.L65:
 1208 005e 00BF     		.align	2
 1209              	.L64:
 1210 0060 00000000 		.word	.LANCHOR0
 1211 0064 00000000 		.word	task1
 1212 0068 58000000 		.word	.LC4
 1213 006c 61000000 		.word	.LC5
 1214 0070 00000000 		.word	task2
 1215 0074 68000000 		.word	.LC6
 1216 0078 00000000 		.word	task3
 1217 007c 6E000000 		.word	.LC7
 1218 0080 00000000 		.word	task4
 1219              		.cfi_endproc
 1220              	.LFE46:
 1221              		.size	main, .-main
 1222              		.bss
 1223              		.align	2
 1224              		.set	.LANCHOR0,. + 0
 1225              		.type	fila_ADC, %object
 1226              		.size	fila_ADC, 4
 1227              	fila_ADC:
 1228 0000 00000000 		.space	4
 1229              		.text
 1230              	.Letext0:
 1231              		.file 4 "/usr/arm-none-eabi/include/machine/_default_types.h"
 1232              		.file 5 "/usr/arm-none-eabi/include/sys/_stdint.h"
 1233              		.file 6 "../freertos/portable/GCC/ARM_CM3/portmacro.h"
 1234              		.file 7 "../freertos/include/queue.h"
 1235              		.file 8 "../stm32f10x_lib/CMSIS/CM3/DeviceSupport/ST/STM32F10x/stm32f10x.h"
 1236              		.file 9 "../stm32f10x_lib/CMSIS/CM3/CoreSupport/core_cm3.h"
 1237              		.file 10 "../stm32f10x_lib/STM32F10x_StdPeriph_Driver/inc/stm32f10x_gpio.h"
 1238              		.file 11 "../stm32f10x_lib/STM32F10x_StdPeriph_Driver/inc/stm32f10x_usart.h"
 1239              		.file 12 "../freertos/include/task.h"
 1240              		.file 13 "/usr/arm-none-eabi/include/stdlib.h"
 1241              		.file 14 "../5-PWM_LCD_SERIAL/myLcd.h"
 1242              		.file 15 "../stm32f10x_lib/STM32F10x_StdPeriph_Driver/inc/stm32f10x_rcc.h"
 1243              		.section	.debug_info,"",%progbits
 1244              	.Ldebug_info0:
 1245 0000 93120000 		.4byte	0x1293
 1246 0004 0200     		.2byte	0x2
 1247 0006 00000000 		.4byte	.Ldebug_abbrev0
 1248 000a 04       		.byte	0x4
 1249 000b 01       		.uleb128 0x1
 1250 000c 74040000 		.4byte	.LASF213
 1251 0010 0C       		.byte	0xc
 1252 0011 FF080000 		.4byte	.LASF214
 1253 0015 94050000 		.4byte	.LASF215
 1254 0019 00000000 		.4byte	.Ldebug_ranges0+0
 1255 001d 00000000 		.4byte	0
ARM GAS  /tmp/cc4kJ8mf.s 			page 31


 1256 0021 00000000 		.4byte	0
 1257 0025 00000000 		.4byte	.Ldebug_line0
 1258 0029 02       		.uleb128 0x2
 1259 002a 04       		.byte	0x4
 1260 002b 05       		.byte	0x5
 1261 002c 696E7400 		.ascii	"int\000"
 1262 0030 03       		.uleb128 0x3
 1263 0031 04       		.byte	0x4
 1264 0032 07       		.byte	0x7
 1265 0033 7F030000 		.4byte	.LASF0
 1266 0037 03       		.uleb128 0x3
 1267 0038 08       		.byte	0x8
 1268 0039 05       		.byte	0x5
 1269 003a 12010000 		.4byte	.LASF1
 1270 003e 03       		.uleb128 0x3
 1271 003f 08       		.byte	0x8
 1272 0040 04       		.byte	0x4
 1273 0041 5D080000 		.4byte	.LASF2
 1274 0045 03       		.uleb128 0x3
 1275 0046 01       		.byte	0x1
 1276 0047 06       		.byte	0x6
 1277 0048 20010000 		.4byte	.LASF3
 1278 004c 04       		.uleb128 0x4
 1279 004d 62000000 		.4byte	.LASF6
 1280 0051 04       		.byte	0x4
 1281 0052 2B       		.byte	0x2b
 1282 0053 18       		.byte	0x18
 1283 0054 58000000 		.4byte	0x58
 1284 0058 03       		.uleb128 0x3
 1285 0059 01       		.byte	0x1
 1286 005a 08       		.byte	0x8
 1287 005b 66070000 		.4byte	.LASF4
 1288 005f 03       		.uleb128 0x3
 1289 0060 02       		.byte	0x2
 1290 0061 05       		.byte	0x5
 1291 0062 1E050000 		.4byte	.LASF5
 1292 0066 04       		.uleb128 0x4
 1293 0067 00030000 		.4byte	.LASF7
 1294 006b 04       		.byte	0x4
 1295 006c 39       		.byte	0x39
 1296 006d 19       		.byte	0x19
 1297 006e 72000000 		.4byte	0x72
 1298 0072 03       		.uleb128 0x3
 1299 0073 02       		.byte	0x2
 1300 0074 07       		.byte	0x7
 1301 0075 DA020000 		.4byte	.LASF8
 1302 0079 03       		.uleb128 0x3
 1303 007a 04       		.byte	0x4
 1304 007b 05       		.byte	0x5
 1305 007c 0A020000 		.4byte	.LASF9
 1306 0080 04       		.uleb128 0x4
 1307 0081 0B030000 		.4byte	.LASF10
 1308 0085 04       		.byte	0x4
 1309 0086 4F       		.byte	0x4f
 1310 0087 19       		.byte	0x19
 1311 0088 8C000000 		.4byte	0x8c
 1312 008c 03       		.uleb128 0x3
ARM GAS  /tmp/cc4kJ8mf.s 			page 32


 1313 008d 04       		.byte	0x4
 1314 008e 07       		.byte	0x7
 1315 008f B0030000 		.4byte	.LASF11
 1316 0093 03       		.uleb128 0x3
 1317 0094 08       		.byte	0x8
 1318 0095 07       		.byte	0x7
 1319 0096 79010000 		.4byte	.LASF12
 1320 009a 04       		.uleb128 0x4
 1321 009b C4090000 		.4byte	.LASF13
 1322 009f 05       		.byte	0x5
 1323 00a0 18       		.byte	0x18
 1324 00a1 13       		.byte	0x13
 1325 00a2 4C000000 		.4byte	0x4c
 1326 00a6 05       		.uleb128 0x5
 1327 00a7 9A000000 		.4byte	0x9a
 1328 00ab 04       		.uleb128 0x4
 1329 00ac 68020000 		.4byte	.LASF14
 1330 00b0 05       		.byte	0x5
 1331 00b1 24       		.byte	0x24
 1332 00b2 14       		.byte	0x14
 1333 00b3 66000000 		.4byte	0x66
 1334 00b7 05       		.uleb128 0x5
 1335 00b8 AB000000 		.4byte	0xab
 1336 00bc 04       		.uleb128 0x4
 1337 00bd 21080000 		.4byte	.LASF15
 1338 00c1 05       		.byte	0x5
 1339 00c2 30       		.byte	0x30
 1340 00c3 14       		.byte	0x14
 1341 00c4 80000000 		.4byte	0x80
 1342 00c8 05       		.uleb128 0x5
 1343 00c9 BC000000 		.4byte	0xbc
 1344 00cd 06       		.uleb128 0x6
 1345 00ce 04       		.byte	0x4
 1346 00cf 04       		.uleb128 0x4
 1347 00d0 88020000 		.4byte	.LASF16
 1348 00d4 06       		.byte	0x6
 1349 00d5 38       		.byte	0x38
 1350 00d6 0E       		.byte	0xe
 1351 00d7 79000000 		.4byte	0x79
 1352 00db 04       		.uleb128 0x4
 1353 00dc 09060000 		.4byte	.LASF17
 1354 00e0 06       		.byte	0x6
 1355 00e1 3F       		.byte	0x3f
 1356 00e2 13       		.byte	0x13
 1357 00e3 BC000000 		.4byte	0xbc
 1358 00e7 03       		.uleb128 0x3
 1359 00e8 01       		.byte	0x1
 1360 00e9 08       		.byte	0x8
 1361 00ea 81080000 		.4byte	.LASF18
 1362 00ee 04       		.uleb128 0x4
 1363 00ef D4000000 		.4byte	.LASF19
 1364 00f3 07       		.byte	0x7
 1365 00f4 30       		.byte	0x30
 1366 00f5 22       		.byte	0x22
 1367 00f6 FA000000 		.4byte	0xfa
 1368 00fa 07       		.uleb128 0x7
 1369 00fb 04       		.byte	0x4
ARM GAS  /tmp/cc4kJ8mf.s 			page 33


 1370 00fc 00010000 		.4byte	0x100
 1371 0100 08       		.uleb128 0x8
 1372 0101 28070000 		.4byte	.LASF216
 1373 0105 01       		.byte	0x1
 1374 0106 07       		.uleb128 0x7
 1375 0107 04       		.byte	0x4
 1376 0108 E7000000 		.4byte	0xe7
 1377 010c 09       		.uleb128 0x9
 1378 010d E7000000 		.4byte	0xe7
 1379 0111 1C010000 		.4byte	0x11c
 1380 0115 0A       		.uleb128 0xa
 1381 0116 30000000 		.4byte	0x30
 1382 011a 07       		.byte	0x7
 1383 011b 00       		.byte	0
 1384 011c 0B       		.uleb128 0xb
 1385 011d 5F050000 		.4byte	.LASF191
 1386 0121 05       		.byte	0x5
 1387 0122 01       		.byte	0x1
 1388 0123 45000000 		.4byte	0x45
 1389 0127 08       		.byte	0x8
 1390 0128 A7       		.byte	0xa7
 1391 0129 0E       		.byte	0xe
 1392 012a 61020000 		.4byte	0x261
 1393 012e 0C       		.uleb128 0xc
 1394 012f EB080000 		.4byte	.LASF20
 1395 0133 72       		.sleb128 -14
 1396 0134 0C       		.uleb128 0xc
 1397 0135 9A030000 		.4byte	.LASF21
 1398 0139 74       		.sleb128 -12
 1399 013a 0C       		.uleb128 0xc
 1400 013b 86080000 		.4byte	.LASF22
 1401 013f 75       		.sleb128 -11
 1402 0140 0C       		.uleb128 0xc
 1403 0141 40080000 		.4byte	.LASF23
 1404 0145 76       		.sleb128 -10
 1405 0146 0C       		.uleb128 0xc
 1406 0147 DF050000 		.4byte	.LASF24
 1407 014b 7B       		.sleb128 -5
 1408 014c 0C       		.uleb128 0xc
 1409 014d 0C050000 		.4byte	.LASF25
 1410 0151 7C       		.sleb128 -4
 1411 0152 0C       		.uleb128 0xc
 1412 0153 CE020000 		.4byte	.LASF26
 1413 0157 7E       		.sleb128 -2
 1414 0158 0C       		.uleb128 0xc
 1415 0159 2D050000 		.4byte	.LASF27
 1416 015d 7F       		.sleb128 -1
 1417 015e 0D       		.uleb128 0xd
 1418 015f ED000000 		.4byte	.LASF28
 1419 0163 00       		.byte	0
 1420 0164 0D       		.uleb128 0xd
 1421 0165 24000000 		.4byte	.LASF29
 1422 0169 01       		.byte	0x1
 1423 016a 0D       		.uleb128 0xd
 1424 016b 35090000 		.4byte	.LASF30
 1425 016f 02       		.byte	0x2
 1426 0170 0D       		.uleb128 0xd
ARM GAS  /tmp/cc4kJ8mf.s 			page 34


 1427 0171 91000000 		.4byte	.LASF31
 1428 0175 03       		.byte	0x3
 1429 0176 0D       		.uleb128 0xd
 1430 0177 FA070000 		.4byte	.LASF32
 1431 017b 04       		.byte	0x4
 1432 017c 0D       		.uleb128 0xd
 1433 017d 530A0000 		.4byte	.LASF33
 1434 0181 05       		.byte	0x5
 1435 0182 0D       		.uleb128 0xd
 1436 0183 54010000 		.4byte	.LASF34
 1437 0187 06       		.byte	0x6
 1438 0188 0D       		.uleb128 0xd
 1439 0189 660A0000 		.4byte	.LASF35
 1440 018d 07       		.byte	0x7
 1441 018e 0D       		.uleb128 0xd
 1442 018f E2000000 		.4byte	.LASF36
 1443 0193 08       		.byte	0x8
 1444 0194 0D       		.uleb128 0xd
 1445 0195 7D020000 		.4byte	.LASF37
 1446 0199 09       		.byte	0x9
 1447 019a 0D       		.uleb128 0xd
 1448 019b 88070000 		.4byte	.LASF38
 1449 019f 0A       		.byte	0xa
 1450 01a0 0D       		.uleb128 0xd
 1451 01a1 B2060000 		.4byte	.LASF39
 1452 01a5 0B       		.byte	0xb
 1453 01a6 0D       		.uleb128 0xd
 1454 01a7 81050000 		.4byte	.LASF40
 1455 01ab 0C       		.byte	0xc
 1456 01ac 0D       		.uleb128 0xd
 1457 01ad 6E080000 		.4byte	.LASF41
 1458 01b1 0D       		.byte	0xd
 1459 01b2 0D       		.uleb128 0xd
 1460 01b3 ED020000 		.4byte	.LASF42
 1461 01b7 0E       		.byte	0xe
 1462 01b8 0D       		.uleb128 0xd
 1463 01b9 15040000 		.4byte	.LASF43
 1464 01bd 0F       		.byte	0xf
 1465 01be 0D       		.uleb128 0xd
 1466 01bf 1A090000 		.4byte	.LASF44
 1467 01c3 10       		.byte	0x10
 1468 01c4 0D       		.uleb128 0xd
 1469 01c5 EE090000 		.4byte	.LASF45
 1470 01c9 11       		.byte	0x11
 1471 01ca 0D       		.uleb128 0xd
 1472 01cb 93020000 		.4byte	.LASF46
 1473 01cf 12       		.byte	0x12
 1474 01d0 0D       		.uleb128 0xd
 1475 01d1 74070000 		.4byte	.LASF47
 1476 01d5 13       		.byte	0x13
 1477 01d6 0D       		.uleb128 0xd
 1478 01d7 C0070000 		.4byte	.LASF48
 1479 01db 14       		.byte	0x14
 1480 01dc 0D       		.uleb128 0xd
 1481 01dd 3D000000 		.4byte	.LASF49
 1482 01e1 15       		.byte	0x15
 1483 01e2 0D       		.uleb128 0xd
ARM GAS  /tmp/cc4kJ8mf.s 			page 35


 1484 01e3 450A0000 		.4byte	.LASF50
 1485 01e7 16       		.byte	0x16
 1486 01e8 0D       		.uleb128 0xd
 1487 01e9 38020000 		.4byte	.LASF51
 1488 01ed 17       		.byte	0x17
 1489 01ee 0D       		.uleb128 0xd
 1490 01ef 94080000 		.4byte	.LASF52
 1491 01f3 18       		.byte	0x18
 1492 01f4 0D       		.uleb128 0xd
 1493 01f5 41090000 		.4byte	.LASF53
 1494 01f9 19       		.byte	0x19
 1495 01fa 0D       		.uleb128 0xd
 1496 01fb 2D040000 		.4byte	.LASF54
 1497 01ff 1A       		.byte	0x1a
 1498 0200 0D       		.uleb128 0xd
 1499 0201 3A050000 		.4byte	.LASF55
 1500 0205 1B       		.byte	0x1b
 1501 0206 0D       		.uleb128 0xd
 1502 0207 78090000 		.4byte	.LASF56
 1503 020b 1C       		.byte	0x1c
 1504 020c 0D       		.uleb128 0xd
 1505 020d 5C0A0000 		.4byte	.LASF57
 1506 0211 1D       		.byte	0x1d
 1507 0212 0D       		.uleb128 0xd
 1508 0213 CA000000 		.4byte	.LASF58
 1509 0217 1E       		.byte	0x1e
 1510 0218 0D       		.uleb128 0xd
 1511 0219 50080000 		.4byte	.LASF59
 1512 021d 1F       		.byte	0x1f
 1513 021e 0D       		.uleb128 0xd
 1514 021f 170A0000 		.4byte	.LASF60
 1515 0223 20       		.byte	0x20
 1516 0224 0D       		.uleb128 0xd
 1517 0225 EB050000 		.4byte	.LASF61
 1518 0229 21       		.byte	0x21
 1519 022a 0D       		.uleb128 0xd
 1520 022b BD000000 		.4byte	.LASF62
 1521 022f 22       		.byte	0x22
 1522 0230 0D       		.uleb128 0xd
 1523 0231 F4040000 		.4byte	.LASF63
 1524 0235 23       		.byte	0x23
 1525 0236 0D       		.uleb128 0xd
 1526 0237 1A060000 		.4byte	.LASF64
 1527 023b 24       		.byte	0x24
 1528 023c 0D       		.uleb128 0xd
 1529 023d 91090000 		.4byte	.LASF65
 1530 0241 25       		.byte	0x25
 1531 0242 0D       		.uleb128 0xd
 1532 0243 34080000 		.4byte	.LASF66
 1533 0247 26       		.byte	0x26
 1534 0248 0D       		.uleb128 0xd
 1535 0249 67090000 		.4byte	.LASF67
 1536 024d 27       		.byte	0x27
 1537 024e 0D       		.uleb128 0xd
 1538 024f 65040000 		.4byte	.LASF68
 1539 0253 28       		.byte	0x28
 1540 0254 0D       		.uleb128 0xd
ARM GAS  /tmp/cc4kJ8mf.s 			page 36


 1541 0255 A7080000 		.4byte	.LASF69
 1542 0259 29       		.byte	0x29
 1543 025a 0D       		.uleb128 0xd
 1544 025b 4E090000 		.4byte	.LASF70
 1545 025f 2A       		.byte	0x2a
 1546 0260 00       		.byte	0
 1547 0261 0E       		.uleb128 0xe
 1548 0262 17080000 		.4byte	.LASF71
 1549 0266 08       		.byte	0x8
 1550 0267 D801     		.2byte	0x1d8
 1551 0269 03       		.byte	0x3
 1552 026a 1C010000 		.4byte	0x11c
 1553 026e 0F       		.uleb128 0xf
 1554 026f 040E     		.2byte	0xe04
 1555 0271 09       		.byte	0x9
 1556 0272 84       		.byte	0x84
 1557 0273 09       		.byte	0x9
 1558 0274 46030000 		.4byte	0x346
 1559 0278 10       		.uleb128 0x10
 1560 0279 A3070000 		.4byte	.LASF72
 1561 027d 09       		.byte	0x9
 1562 027e 86       		.byte	0x86
 1563 027f 11       		.byte	0x11
 1564 0280 56030000 		.4byte	0x356
 1565 0284 02       		.byte	0x2
 1566 0285 23       		.byte	0x23
 1567 0286 00       		.uleb128 0
 1568 0287 10       		.uleb128 0x10
 1569 0288 CE060000 		.4byte	.LASF73
 1570 028c 09       		.byte	0x9
 1571 028d 87       		.byte	0x87
 1572 028e 11       		.byte	0x11
 1573 028f 5B030000 		.4byte	0x35b
 1574 0293 02       		.byte	0x2
 1575 0294 23       		.byte	0x23
 1576 0295 20       		.uleb128 0x20
 1577 0296 10       		.uleb128 0x10
 1578 0297 28050000 		.4byte	.LASF74
 1579 029b 09       		.byte	0x9
 1580 029c 88       		.byte	0x88
 1581 029d 11       		.byte	0x11
 1582 029e 56030000 		.4byte	0x356
 1583 02a2 03       		.byte	0x3
 1584 02a3 23       		.byte	0x23
 1585 02a4 8001     		.uleb128 0x80
 1586 02a6 10       		.uleb128 0x10
 1587 02a7 CC090000 		.4byte	.LASF75
 1588 02ab 09       		.byte	0x9
 1589 02ac 89       		.byte	0x89
 1590 02ad 11       		.byte	0x11
 1591 02ae 5B030000 		.4byte	0x35b
 1592 02b2 03       		.byte	0x3
 1593 02b3 23       		.byte	0x23
 1594 02b4 A001     		.uleb128 0xa0
 1595 02b6 10       		.uleb128 0x10
 1596 02b7 F7000000 		.4byte	.LASF76
 1597 02bb 09       		.byte	0x9
ARM GAS  /tmp/cc4kJ8mf.s 			page 37


 1598 02bc 8A       		.byte	0x8a
 1599 02bd 11       		.byte	0x11
 1600 02be 56030000 		.4byte	0x356
 1601 02c2 03       		.byte	0x3
 1602 02c3 23       		.byte	0x23
 1603 02c4 8002     		.uleb128 0x100
 1604 02c6 10       		.uleb128 0x10
 1605 02c7 E2060000 		.4byte	.LASF77
 1606 02cb 09       		.byte	0x9
 1607 02cc 8B       		.byte	0x8b
 1608 02cd 11       		.byte	0x11
 1609 02ce 5B030000 		.4byte	0x35b
 1610 02d2 03       		.byte	0x3
 1611 02d3 23       		.byte	0x23
 1612 02d4 A002     		.uleb128 0x120
 1613 02d6 10       		.uleb128 0x10
 1614 02d7 0A000000 		.4byte	.LASF78
 1615 02db 09       		.byte	0x9
 1616 02dc 8C       		.byte	0x8c
 1617 02dd 11       		.byte	0x11
 1618 02de 56030000 		.4byte	0x356
 1619 02e2 03       		.byte	0x3
 1620 02e3 23       		.byte	0x23
 1621 02e4 8003     		.uleb128 0x180
 1622 02e6 10       		.uleb128 0x10
 1623 02e7 EC060000 		.4byte	.LASF79
 1624 02eb 09       		.byte	0x9
 1625 02ec 8D       		.byte	0x8d
 1626 02ed 11       		.byte	0x11
 1627 02ee 5B030000 		.4byte	0x35b
 1628 02f2 03       		.byte	0x3
 1629 02f3 23       		.byte	0x23
 1630 02f4 A003     		.uleb128 0x1a0
 1631 02f6 10       		.uleb128 0x10
 1632 02f7 04060000 		.4byte	.LASF80
 1633 02fb 09       		.byte	0x9
 1634 02fc 8E       		.byte	0x8e
 1635 02fd 11       		.byte	0x11
 1636 02fe 56030000 		.4byte	0x356
 1637 0302 03       		.byte	0x3
 1638 0303 23       		.byte	0x23
 1639 0304 8004     		.uleb128 0x200
 1640 0306 10       		.uleb128 0x10
 1641 0307 F6060000 		.4byte	.LASF81
 1642 030b 09       		.byte	0x9
 1643 030c 8F       		.byte	0x8f
 1644 030d 11       		.byte	0x11
 1645 030e 6B030000 		.4byte	0x36b
 1646 0312 03       		.byte	0x3
 1647 0313 23       		.byte	0x23
 1648 0314 A004     		.uleb128 0x220
 1649 0316 11       		.uleb128 0x11
 1650 0317 495000   		.ascii	"IP\000"
 1651 031a 09       		.byte	0x9
 1652 031b 90       		.byte	0x90
 1653 031c 11       		.byte	0x11
 1654 031d 8B030000 		.4byte	0x38b
ARM GAS  /tmp/cc4kJ8mf.s 			page 38


 1655 0321 03       		.byte	0x3
 1656 0322 23       		.byte	0x23
 1657 0323 8006     		.uleb128 0x300
 1658 0325 10       		.uleb128 0x10
 1659 0326 00070000 		.4byte	.LASF82
 1660 032a 09       		.byte	0x9
 1661 032b 91       		.byte	0x91
 1662 032c 11       		.byte	0x11
 1663 032d 90030000 		.4byte	0x390
 1664 0331 03       		.byte	0x3
 1665 0332 23       		.byte	0x23
 1666 0333 F007     		.uleb128 0x3f0
 1667 0335 10       		.uleb128 0x10
 1668 0336 D5090000 		.4byte	.LASF83
 1669 033a 09       		.byte	0x9
 1670 033b 92       		.byte	0x92
 1671 033c 11       		.byte	0x11
 1672 033d C8000000 		.4byte	0xc8
 1673 0341 03       		.byte	0x3
 1674 0342 23       		.byte	0x23
 1675 0343 801C     		.uleb128 0xe00
 1676 0345 00       		.byte	0
 1677 0346 09       		.uleb128 0x9
 1678 0347 C8000000 		.4byte	0xc8
 1679 034b 56030000 		.4byte	0x356
 1680 034f 0A       		.uleb128 0xa
 1681 0350 30000000 		.4byte	0x30
 1682 0354 07       		.byte	0x7
 1683 0355 00       		.byte	0
 1684 0356 05       		.uleb128 0x5
 1685 0357 46030000 		.4byte	0x346
 1686 035b 09       		.uleb128 0x9
 1687 035c BC000000 		.4byte	0xbc
 1688 0360 6B030000 		.4byte	0x36b
 1689 0364 0A       		.uleb128 0xa
 1690 0365 30000000 		.4byte	0x30
 1691 0369 17       		.byte	0x17
 1692 036a 00       		.byte	0
 1693 036b 09       		.uleb128 0x9
 1694 036c BC000000 		.4byte	0xbc
 1695 0370 7B030000 		.4byte	0x37b
 1696 0374 0A       		.uleb128 0xa
 1697 0375 30000000 		.4byte	0x30
 1698 0379 37       		.byte	0x37
 1699 037a 00       		.byte	0
 1700 037b 09       		.uleb128 0x9
 1701 037c A6000000 		.4byte	0xa6
 1702 0380 8B030000 		.4byte	0x38b
 1703 0384 0A       		.uleb128 0xa
 1704 0385 30000000 		.4byte	0x30
 1705 0389 EF       		.byte	0xef
 1706 038a 00       		.byte	0
 1707 038b 05       		.uleb128 0x5
 1708 038c 7B030000 		.4byte	0x37b
 1709 0390 09       		.uleb128 0x9
 1710 0391 BC000000 		.4byte	0xbc
 1711 0395 A1030000 		.4byte	0x3a1
ARM GAS  /tmp/cc4kJ8mf.s 			page 39


 1712 0399 12       		.uleb128 0x12
 1713 039a 30000000 		.4byte	0x30
 1714 039e 8302     		.2byte	0x283
 1715 03a0 00       		.byte	0
 1716 03a1 04       		.uleb128 0x4
 1717 03a2 A8070000 		.4byte	.LASF84
 1718 03a6 09       		.byte	0x9
 1719 03a7 93       		.byte	0x93
 1720 03a8 04       		.byte	0x4
 1721 03a9 6E020000 		.4byte	0x26e
 1722 03ad 13       		.uleb128 0x13
 1723 03ae 75333200 		.ascii	"u32\000"
 1724 03b2 08       		.byte	0x8
 1725 03b3 F701     		.2byte	0x1f7
 1726 03b5 13       		.byte	0x13
 1727 03b6 BC000000 		.4byte	0xbc
 1728 03ba 05       		.uleb128 0x5
 1729 03bb AD030000 		.4byte	0x3ad
 1730 03bf 13       		.uleb128 0x13
 1731 03c0 753800   		.ascii	"u8\000"
 1732 03c3 08       		.byte	0x8
 1733 03c4 F901     		.2byte	0x1f9
 1734 03c6 12       		.byte	0x12
 1735 03c7 9A000000 		.4byte	0x9a
 1736 03cb 14       		.uleb128 0x14
 1737 03cc 07       		.byte	0x7
 1738 03cd 01       		.byte	0x1
 1739 03ce 58000000 		.4byte	0x58
 1740 03d2 08       		.byte	0x8
 1741 03d3 0702     		.2byte	0x207
 1742 03d5 0E       		.byte	0xe
 1743 03d6 E7030000 		.4byte	0x3e7
 1744 03da 0D       		.uleb128 0xd
 1745 03db 59050000 		.4byte	.LASF85
 1746 03df 00       		.byte	0
 1747 03e0 15       		.uleb128 0x15
 1748 03e1 53455400 		.ascii	"SET\000"
 1749 03e5 01       		.byte	0x1
 1750 03e6 00       		.byte	0
 1751 03e7 14       		.uleb128 0x14
 1752 03e8 07       		.byte	0x7
 1753 03e9 01       		.byte	0x1
 1754 03ea 58000000 		.4byte	0x58
 1755 03ee 08       		.byte	0x8
 1756 03ef 0902     		.2byte	0x209
 1757 03f1 0E       		.byte	0xe
 1758 03f2 03040000 		.4byte	0x403
 1759 03f6 0D       		.uleb128 0xd
 1760 03f7 89000000 		.4byte	.LASF86
 1761 03fb 00       		.byte	0
 1762 03fc 0D       		.uleb128 0xd
 1763 03fd 13020000 		.4byte	.LASF87
 1764 0401 01       		.byte	0x1
 1765 0402 00       		.byte	0
 1766 0403 16       		.uleb128 0x16
 1767 0404 50       		.byte	0x50
 1768 0405 08       		.byte	0x8
ARM GAS  /tmp/cc4kJ8mf.s 			page 40


 1769 0406 1E02     		.2byte	0x21e
 1770 0408 09       		.byte	0x9
 1771 0409 4C050000 		.4byte	0x54c
 1772 040d 17       		.uleb128 0x17
 1773 040e 535200   		.ascii	"SR\000"
 1774 0411 08       		.byte	0x8
 1775 0412 2002     		.2byte	0x220
 1776 0414 11       		.byte	0x11
 1777 0415 C8000000 		.4byte	0xc8
 1778 0419 02       		.byte	0x2
 1779 041a 23       		.byte	0x23
 1780 041b 00       		.uleb128 0
 1781 041c 17       		.uleb128 0x17
 1782 041d 43523100 		.ascii	"CR1\000"
 1783 0421 08       		.byte	0x8
 1784 0422 2102     		.2byte	0x221
 1785 0424 11       		.byte	0x11
 1786 0425 C8000000 		.4byte	0xc8
 1787 0429 02       		.byte	0x2
 1788 042a 23       		.byte	0x23
 1789 042b 04       		.uleb128 0x4
 1790 042c 17       		.uleb128 0x17
 1791 042d 43523200 		.ascii	"CR2\000"
 1792 0431 08       		.byte	0x8
 1793 0432 2202     		.2byte	0x222
 1794 0434 11       		.byte	0x11
 1795 0435 C8000000 		.4byte	0xc8
 1796 0439 02       		.byte	0x2
 1797 043a 23       		.byte	0x23
 1798 043b 08       		.uleb128 0x8
 1799 043c 18       		.uleb128 0x18
 1800 043d 64060000 		.4byte	.LASF88
 1801 0441 08       		.byte	0x8
 1802 0442 2302     		.2byte	0x223
 1803 0444 11       		.byte	0x11
 1804 0445 C8000000 		.4byte	0xc8
 1805 0449 02       		.byte	0x2
 1806 044a 23       		.byte	0x23
 1807 044b 0C       		.uleb128 0xc
 1808 044c 18       		.uleb128 0x18
 1809 044d 6A060000 		.4byte	.LASF89
 1810 0451 08       		.byte	0x8
 1811 0452 2402     		.2byte	0x224
 1812 0454 11       		.byte	0x11
 1813 0455 C8000000 		.4byte	0xc8
 1814 0459 02       		.byte	0x2
 1815 045a 23       		.byte	0x23
 1816 045b 10       		.uleb128 0x10
 1817 045c 18       		.uleb128 0x18
 1818 045d B8090000 		.4byte	.LASF90
 1819 0461 08       		.byte	0x8
 1820 0462 2502     		.2byte	0x225
 1821 0464 11       		.byte	0x11
 1822 0465 C8000000 		.4byte	0xc8
 1823 0469 02       		.byte	0x2
 1824 046a 23       		.byte	0x23
 1825 046b 14       		.uleb128 0x14
ARM GAS  /tmp/cc4kJ8mf.s 			page 41


 1826 046c 18       		.uleb128 0x18
 1827 046d 6F050000 		.4byte	.LASF91
 1828 0471 08       		.byte	0x8
 1829 0472 2602     		.2byte	0x226
 1830 0474 11       		.byte	0x11
 1831 0475 C8000000 		.4byte	0xc8
 1832 0479 02       		.byte	0x2
 1833 047a 23       		.byte	0x23
 1834 047b 18       		.uleb128 0x18
 1835 047c 18       		.uleb128 0x18
 1836 047d 75050000 		.4byte	.LASF92
 1837 0481 08       		.byte	0x8
 1838 0482 2702     		.2byte	0x227
 1839 0484 11       		.byte	0x11
 1840 0485 C8000000 		.4byte	0xc8
 1841 0489 02       		.byte	0x2
 1842 048a 23       		.byte	0x23
 1843 048b 1C       		.uleb128 0x1c
 1844 048c 18       		.uleb128 0x18
 1845 048d 7B050000 		.4byte	.LASF93
 1846 0491 08       		.byte	0x8
 1847 0492 2802     		.2byte	0x228
 1848 0494 11       		.byte	0x11
 1849 0495 C8000000 		.4byte	0xc8
 1850 0499 02       		.byte	0x2
 1851 049a 23       		.byte	0x23
 1852 049b 20       		.uleb128 0x20
 1853 049c 17       		.uleb128 0x17
 1854 049d 48545200 		.ascii	"HTR\000"
 1855 04a1 08       		.byte	0x8
 1856 04a2 2902     		.2byte	0x229
 1857 04a4 11       		.byte	0x11
 1858 04a5 C8000000 		.4byte	0xc8
 1859 04a9 02       		.byte	0x2
 1860 04aa 23       		.byte	0x23
 1861 04ab 24       		.uleb128 0x24
 1862 04ac 17       		.uleb128 0x17
 1863 04ad 4C545200 		.ascii	"LTR\000"
 1864 04b1 08       		.byte	0x8
 1865 04b2 2A02     		.2byte	0x22a
 1866 04b4 11       		.byte	0x11
 1867 04b5 C8000000 		.4byte	0xc8
 1868 04b9 02       		.byte	0x2
 1869 04ba 23       		.byte	0x23
 1870 04bb 28       		.uleb128 0x28
 1871 04bc 18       		.uleb128 0x18
 1872 04bd A3060000 		.4byte	.LASF94
 1873 04c1 08       		.byte	0x8
 1874 04c2 2B02     		.2byte	0x22b
 1875 04c4 11       		.byte	0x11
 1876 04c5 C8000000 		.4byte	0xc8
 1877 04c9 02       		.byte	0x2
 1878 04ca 23       		.byte	0x23
 1879 04cb 2C       		.uleb128 0x2c
 1880 04cc 18       		.uleb128 0x18
 1881 04cd A8060000 		.4byte	.LASF95
 1882 04d1 08       		.byte	0x8
ARM GAS  /tmp/cc4kJ8mf.s 			page 42


 1883 04d2 2C02     		.2byte	0x22c
 1884 04d4 11       		.byte	0x11
 1885 04d5 C8000000 		.4byte	0xc8
 1886 04d9 02       		.byte	0x2
 1887 04da 23       		.byte	0x23
 1888 04db 30       		.uleb128 0x30
 1889 04dc 18       		.uleb128 0x18
 1890 04dd AD060000 		.4byte	.LASF96
 1891 04e1 08       		.byte	0x8
 1892 04e2 2D02     		.2byte	0x22d
 1893 04e4 11       		.byte	0x11
 1894 04e5 C8000000 		.4byte	0xc8
 1895 04e9 02       		.byte	0x2
 1896 04ea 23       		.byte	0x23
 1897 04eb 34       		.uleb128 0x34
 1898 04ec 18       		.uleb128 0x18
 1899 04ed 01010000 		.4byte	.LASF97
 1900 04f1 08       		.byte	0x8
 1901 04f2 2E02     		.2byte	0x22e
 1902 04f4 11       		.byte	0x11
 1903 04f5 C8000000 		.4byte	0xc8
 1904 04f9 02       		.byte	0x2
 1905 04fa 23       		.byte	0x23
 1906 04fb 38       		.uleb128 0x38
 1907 04fc 18       		.uleb128 0x18
 1908 04fd DA090000 		.4byte	.LASF98
 1909 0501 08       		.byte	0x8
 1910 0502 2F02     		.2byte	0x22f
 1911 0504 11       		.byte	0x11
 1912 0505 C8000000 		.4byte	0xc8
 1913 0509 02       		.byte	0x2
 1914 050a 23       		.byte	0x23
 1915 050b 3C       		.uleb128 0x3c
 1916 050c 18       		.uleb128 0x18
 1917 050d DF090000 		.4byte	.LASF99
 1918 0511 08       		.byte	0x8
 1919 0512 3002     		.2byte	0x230
 1920 0514 11       		.byte	0x11
 1921 0515 C8000000 		.4byte	0xc8
 1922 0519 02       		.byte	0x2
 1923 051a 23       		.byte	0x23
 1924 051b 40       		.uleb128 0x40
 1925 051c 18       		.uleb128 0x18
 1926 051d E4090000 		.4byte	.LASF100
 1927 0521 08       		.byte	0x8
 1928 0522 3102     		.2byte	0x231
 1929 0524 11       		.byte	0x11
 1930 0525 C8000000 		.4byte	0xc8
 1931 0529 02       		.byte	0x2
 1932 052a 23       		.byte	0x23
 1933 052b 44       		.uleb128 0x44
 1934 052c 18       		.uleb128 0x18
 1935 052d E9090000 		.4byte	.LASF101
 1936 0531 08       		.byte	0x8
 1937 0532 3202     		.2byte	0x232
 1938 0534 11       		.byte	0x11
 1939 0535 C8000000 		.4byte	0xc8
ARM GAS  /tmp/cc4kJ8mf.s 			page 43


 1940 0539 02       		.byte	0x2
 1941 053a 23       		.byte	0x23
 1942 053b 48       		.uleb128 0x48
 1943 053c 17       		.uleb128 0x17
 1944 053d 445200   		.ascii	"DR\000"
 1945 0540 08       		.byte	0x8
 1946 0541 3302     		.2byte	0x233
 1947 0543 11       		.byte	0x11
 1948 0544 C8000000 		.4byte	0xc8
 1949 0548 02       		.byte	0x2
 1950 0549 23       		.byte	0x23
 1951 054a 4C       		.uleb128 0x4c
 1952 054b 00       		.byte	0
 1953 054c 0E       		.uleb128 0xe
 1954 054d 71020000 		.4byte	.LASF102
 1955 0551 08       		.byte	0x8
 1956 0552 3402     		.2byte	0x234
 1957 0554 03       		.byte	0x3
 1958 0555 03040000 		.4byte	0x403
 1959 0559 16       		.uleb128 0x16
 1960 055a 24       		.byte	0x24
 1961 055b 08       		.byte	0x8
 1962 055c 8503     		.2byte	0x385
 1963 055e 09       		.byte	0x9
 1964 055f F1050000 		.4byte	0x5f1
 1965 0563 17       		.uleb128 0x17
 1966 0564 41435200 		.ascii	"ACR\000"
 1967 0568 08       		.byte	0x8
 1968 0569 8703     		.2byte	0x387
 1969 056b 11       		.byte	0x11
 1970 056c C8000000 		.4byte	0xc8
 1971 0570 02       		.byte	0x2
 1972 0571 23       		.byte	0x23
 1973 0572 00       		.uleb128 0
 1974 0573 18       		.uleb128 0x18
 1975 0574 4B030000 		.4byte	.LASF103
 1976 0578 08       		.byte	0x8
 1977 0579 8803     		.2byte	0x388
 1978 057b 11       		.byte	0x11
 1979 057c C8000000 		.4byte	0xc8
 1980 0580 02       		.byte	0x2
 1981 0581 23       		.byte	0x23
 1982 0582 04       		.uleb128 0x4
 1983 0583 18       		.uleb128 0x18
 1984 0584 60020000 		.4byte	.LASF104
 1985 0588 08       		.byte	0x8
 1986 0589 8903     		.2byte	0x389
 1987 058b 11       		.byte	0x11
 1988 058c C8000000 		.4byte	0xc8
 1989 0590 02       		.byte	0x2
 1990 0591 23       		.byte	0x23
 1991 0592 08       		.uleb128 0x8
 1992 0593 17       		.uleb128 0x17
 1993 0594 535200   		.ascii	"SR\000"
 1994 0597 08       		.byte	0x8
 1995 0598 8A03     		.2byte	0x38a
 1996 059a 11       		.byte	0x11
ARM GAS  /tmp/cc4kJ8mf.s 			page 44


 1997 059b C8000000 		.4byte	0xc8
 1998 059f 02       		.byte	0x2
 1999 05a0 23       		.byte	0x23
 2000 05a1 0C       		.uleb128 0xc
 2001 05a2 17       		.uleb128 0x17
 2002 05a3 435200   		.ascii	"CR\000"
 2003 05a6 08       		.byte	0x8
 2004 05a7 8B03     		.2byte	0x38b
 2005 05a9 11       		.byte	0x11
 2006 05aa C8000000 		.4byte	0xc8
 2007 05ae 02       		.byte	0x2
 2008 05af 23       		.byte	0x23
 2009 05b0 10       		.uleb128 0x10
 2010 05b1 17       		.uleb128 0x17
 2011 05b2 415200   		.ascii	"AR\000"
 2012 05b5 08       		.byte	0x8
 2013 05b6 8C03     		.2byte	0x38c
 2014 05b8 11       		.byte	0x11
 2015 05b9 C8000000 		.4byte	0xc8
 2016 05bd 02       		.byte	0x2
 2017 05be 23       		.byte	0x23
 2018 05bf 14       		.uleb128 0x14
 2019 05c0 18       		.uleb128 0x18
 2020 05c1 B7070000 		.4byte	.LASF105
 2021 05c5 08       		.byte	0x8
 2022 05c6 8D03     		.2byte	0x38d
 2023 05c8 11       		.byte	0x11
 2024 05c9 C8000000 		.4byte	0xc8
 2025 05cd 02       		.byte	0x2
 2026 05ce 23       		.byte	0x23
 2027 05cf 18       		.uleb128 0x18
 2028 05d0 17       		.uleb128 0x17
 2029 05d1 4F425200 		.ascii	"OBR\000"
 2030 05d5 08       		.byte	0x8
 2031 05d6 8E03     		.2byte	0x38e
 2032 05d8 11       		.byte	0x11
 2033 05d9 C8000000 		.4byte	0xc8
 2034 05dd 02       		.byte	0x2
 2035 05de 23       		.byte	0x23
 2036 05df 1C       		.uleb128 0x1c
 2037 05e0 18       		.uleb128 0x18
 2038 05e1 69080000 		.4byte	.LASF106
 2039 05e5 08       		.byte	0x8
 2040 05e6 8F03     		.2byte	0x38f
 2041 05e8 11       		.byte	0x11
 2042 05e9 C8000000 		.4byte	0xc8
 2043 05ed 02       		.byte	0x2
 2044 05ee 23       		.byte	0x23
 2045 05ef 20       		.uleb128 0x20
 2046 05f0 00       		.byte	0
 2047 05f1 0E       		.uleb128 0xe
 2048 05f2 240A0000 		.4byte	.LASF107
 2049 05f6 08       		.byte	0x8
 2050 05f7 9803     		.2byte	0x398
 2051 05f9 03       		.byte	0x3
 2052 05fa 59050000 		.4byte	0x559
 2053 05fe 16       		.uleb128 0x16
ARM GAS  /tmp/cc4kJ8mf.s 			page 45


 2054 05ff 1C       		.byte	0x1c
 2055 0600 08       		.byte	0x8
 2056 0601 E903     		.2byte	0x3e9
 2057 0603 09       		.byte	0x9
 2058 0604 79060000 		.4byte	0x679
 2059 0608 17       		.uleb128 0x17
 2060 0609 43524C00 		.ascii	"CRL\000"
 2061 060d 08       		.byte	0x8
 2062 060e EB03     		.2byte	0x3eb
 2063 0610 11       		.byte	0x11
 2064 0611 C8000000 		.4byte	0xc8
 2065 0615 02       		.byte	0x2
 2066 0616 23       		.byte	0x23
 2067 0617 00       		.uleb128 0
 2068 0618 17       		.uleb128 0x17
 2069 0619 43524800 		.ascii	"CRH\000"
 2070 061d 08       		.byte	0x8
 2071 061e EC03     		.2byte	0x3ec
 2072 0620 11       		.byte	0x11
 2073 0621 C8000000 		.4byte	0xc8
 2074 0625 02       		.byte	0x2
 2075 0626 23       		.byte	0x23
 2076 0627 04       		.uleb128 0x4
 2077 0628 17       		.uleb128 0x17
 2078 0629 49445200 		.ascii	"IDR\000"
 2079 062d 08       		.byte	0x8
 2080 062e ED03     		.2byte	0x3ed
 2081 0630 11       		.byte	0x11
 2082 0631 C8000000 		.4byte	0xc8
 2083 0635 02       		.byte	0x2
 2084 0636 23       		.byte	0x23
 2085 0637 08       		.uleb128 0x8
 2086 0638 17       		.uleb128 0x17
 2087 0639 4F445200 		.ascii	"ODR\000"
 2088 063d 08       		.byte	0x8
 2089 063e EE03     		.2byte	0x3ee
 2090 0640 11       		.byte	0x11
 2091 0641 C8000000 		.4byte	0xc8
 2092 0645 02       		.byte	0x2
 2093 0646 23       		.byte	0x23
 2094 0647 0C       		.uleb128 0xc
 2095 0648 18       		.uleb128 0x18
 2096 0649 8C090000 		.4byte	.LASF108
 2097 064d 08       		.byte	0x8
 2098 064e EF03     		.2byte	0x3ef
 2099 0650 11       		.byte	0x11
 2100 0651 C8000000 		.4byte	0xc8
 2101 0655 02       		.byte	0x2
 2102 0656 23       		.byte	0x23
 2103 0657 10       		.uleb128 0x10
 2104 0658 17       		.uleb128 0x17
 2105 0659 42525200 		.ascii	"BRR\000"
 2106 065d 08       		.byte	0x8
 2107 065e F003     		.2byte	0x3f0
 2108 0660 11       		.byte	0x11
 2109 0661 C8000000 		.4byte	0xc8
 2110 0665 02       		.byte	0x2
ARM GAS  /tmp/cc4kJ8mf.s 			page 46


 2111 0666 23       		.byte	0x23
 2112 0667 14       		.uleb128 0x14
 2113 0668 18       		.uleb128 0x18
 2114 0669 0F000000 		.4byte	.LASF109
 2115 066d 08       		.byte	0x8
 2116 066e F103     		.2byte	0x3f1
 2117 0670 11       		.byte	0x11
 2118 0671 C8000000 		.4byte	0xc8
 2119 0675 02       		.byte	0x2
 2120 0676 23       		.byte	0x23
 2121 0677 18       		.uleb128 0x18
 2122 0678 00       		.byte	0
 2123 0679 0E       		.uleb128 0xe
 2124 067a C2030000 		.4byte	.LASF110
 2125 067e 08       		.byte	0x8
 2126 067f F203     		.2byte	0x3f2
 2127 0681 03       		.byte	0x3
 2128 0682 FE050000 		.4byte	0x5fe
 2129 0686 16       		.uleb128 0x16
 2130 0687 30       		.byte	0x30
 2131 0688 08       		.byte	0x8
 2132 0689 3404     		.2byte	0x434
 2133 068b 09       		.byte	0x9
 2134 068c 50070000 		.4byte	0x750
 2135 0690 17       		.uleb128 0x17
 2136 0691 435200   		.ascii	"CR\000"
 2137 0694 08       		.byte	0x8
 2138 0695 3604     		.2byte	0x436
 2139 0697 11       		.byte	0x11
 2140 0698 C8000000 		.4byte	0xc8
 2141 069c 02       		.byte	0x2
 2142 069d 23       		.byte	0x23
 2143 069e 00       		.uleb128 0
 2144 069f 18       		.uleb128 0x18
 2145 06a0 010A0000 		.4byte	.LASF111
 2146 06a4 08       		.byte	0x8
 2147 06a5 3704     		.2byte	0x437
 2148 06a7 11       		.byte	0x11
 2149 06a8 C8000000 		.4byte	0xc8
 2150 06ac 02       		.byte	0x2
 2151 06ad 23       		.byte	0x23
 2152 06ae 04       		.uleb128 0x4
 2153 06af 17       		.uleb128 0x17
 2154 06b0 43495200 		.ascii	"CIR\000"
 2155 06b4 08       		.byte	0x8
 2156 06b5 3804     		.2byte	0x438
 2157 06b7 11       		.byte	0x11
 2158 06b8 C8000000 		.4byte	0xc8
 2159 06bc 02       		.byte	0x2
 2160 06bd 23       		.byte	0x23
 2161 06be 08       		.uleb128 0x8
 2162 06bf 18       		.uleb128 0x18
 2163 06c0 1A020000 		.4byte	.LASF112
 2164 06c4 08       		.byte	0x8
 2165 06c5 3904     		.2byte	0x439
 2166 06c7 11       		.byte	0x11
 2167 06c8 C8000000 		.4byte	0xc8
ARM GAS  /tmp/cc4kJ8mf.s 			page 47


 2168 06cc 02       		.byte	0x2
 2169 06cd 23       		.byte	0x23
 2170 06ce 0C       		.uleb128 0xc
 2171 06cf 18       		.uleb128 0x18
 2172 06d0 9A060000 		.4byte	.LASF113
 2173 06d4 08       		.byte	0x8
 2174 06d5 3A04     		.2byte	0x43a
 2175 06d7 11       		.byte	0x11
 2176 06d8 C8000000 		.4byte	0xc8
 2177 06dc 02       		.byte	0x2
 2178 06dd 23       		.byte	0x23
 2179 06de 10       		.uleb128 0x10
 2180 06df 18       		.uleb128 0x18
 2181 06e0 5E040000 		.4byte	.LASF114
 2182 06e4 08       		.byte	0x8
 2183 06e5 3B04     		.2byte	0x43b
 2184 06e7 11       		.byte	0x11
 2185 06e8 C8000000 		.4byte	0xc8
 2186 06ec 02       		.byte	0x2
 2187 06ed 23       		.byte	0x23
 2188 06ee 14       		.uleb128 0x14
 2189 06ef 18       		.uleb128 0x18
 2190 06f0 F2070000 		.4byte	.LASF115
 2191 06f4 08       		.byte	0x8
 2192 06f5 3C04     		.2byte	0x43c
 2193 06f7 11       		.byte	0x11
 2194 06f8 C8000000 		.4byte	0xc8
 2195 06fc 02       		.byte	0x2
 2196 06fd 23       		.byte	0x23
 2197 06fe 18       		.uleb128 0x18
 2198 06ff 18       		.uleb128 0x18
 2199 0700 2D090000 		.4byte	.LASF116
 2200 0704 08       		.byte	0x8
 2201 0705 3D04     		.2byte	0x43d
 2202 0707 11       		.byte	0x11
 2203 0708 C8000000 		.4byte	0xc8
 2204 070c 02       		.byte	0x2
 2205 070d 23       		.byte	0x23
 2206 070e 1C       		.uleb128 0x1c
 2207 070f 18       		.uleb128 0x18
 2208 0710 A8090000 		.4byte	.LASF117
 2209 0714 08       		.byte	0x8
 2210 0715 3E04     		.2byte	0x43e
 2211 0717 11       		.byte	0x11
 2212 0718 C8000000 		.4byte	0xc8
 2213 071c 02       		.byte	0x2
 2214 071d 23       		.byte	0x23
 2215 071e 20       		.uleb128 0x20
 2216 071f 17       		.uleb128 0x17
 2217 0720 43535200 		.ascii	"CSR\000"
 2218 0724 08       		.byte	0x8
 2219 0725 3F04     		.2byte	0x43f
 2220 0727 11       		.byte	0x11
 2221 0728 C8000000 		.4byte	0xc8
 2222 072c 02       		.byte	0x2
 2223 072d 23       		.byte	0x23
 2224 072e 24       		.uleb128 0x24
ARM GAS  /tmp/cc4kJ8mf.s 			page 48


 2225 072f 18       		.uleb128 0x18
 2226 0730 81060000 		.4byte	.LASF118
 2227 0734 08       		.byte	0x8
 2228 0735 4004     		.2byte	0x440
 2229 0737 11       		.byte	0x11
 2230 0738 C8000000 		.4byte	0xc8
 2231 073c 02       		.byte	0x2
 2232 073d 23       		.byte	0x23
 2233 073e 28       		.uleb128 0x28
 2234 073f 18       		.uleb128 0x18
 2235 0740 BE090000 		.4byte	.LASF119
 2236 0744 08       		.byte	0x8
 2237 0745 4104     		.2byte	0x441
 2238 0747 11       		.byte	0x11
 2239 0748 C8000000 		.4byte	0xc8
 2240 074c 02       		.byte	0x2
 2241 074d 23       		.byte	0x23
 2242 074e 2C       		.uleb128 0x2c
 2243 074f 00       		.byte	0
 2244 0750 0E       		.uleb128 0xe
 2245 0751 CF030000 		.4byte	.LASF120
 2246 0755 08       		.byte	0x8
 2247 0756 4204     		.2byte	0x442
 2248 0758 03       		.byte	0x3
 2249 0759 86060000 		.4byte	0x686
 2250 075d 16       		.uleb128 0x16
 2251 075e 50       		.byte	0x50
 2252 075f 08       		.byte	0x8
 2253 0760 9A04     		.2byte	0x49a
 2254 0762 09       		.byte	0x9
 2255 0763 E7090000 		.4byte	0x9e7
 2256 0767 17       		.uleb128 0x17
 2257 0768 43523100 		.ascii	"CR1\000"
 2258 076c 08       		.byte	0x8
 2259 076d 9C04     		.2byte	0x49c
 2260 076f 11       		.byte	0x11
 2261 0770 B7000000 		.4byte	0xb7
 2262 0774 02       		.byte	0x2
 2263 0775 23       		.byte	0x23
 2264 0776 00       		.uleb128 0
 2265 0777 18       		.uleb128 0x18
 2266 0778 CE060000 		.4byte	.LASF73
 2267 077c 08       		.byte	0x8
 2268 077d 9D04     		.2byte	0x49d
 2269 077f 0D       		.byte	0xd
 2270 0780 AB000000 		.4byte	0xab
 2271 0784 02       		.byte	0x2
 2272 0785 23       		.byte	0x23
 2273 0786 02       		.uleb128 0x2
 2274 0787 17       		.uleb128 0x17
 2275 0788 43523200 		.ascii	"CR2\000"
 2276 078c 08       		.byte	0x8
 2277 078d 9E04     		.2byte	0x49e
 2278 078f 11       		.byte	0x11
 2279 0790 B7000000 		.4byte	0xb7
 2280 0794 02       		.byte	0x2
 2281 0795 23       		.byte	0x23
ARM GAS  /tmp/cc4kJ8mf.s 			page 49


 2282 0796 04       		.uleb128 0x4
 2283 0797 18       		.uleb128 0x18
 2284 0798 D8060000 		.4byte	.LASF121
 2285 079c 08       		.byte	0x8
 2286 079d 9F04     		.2byte	0x49f
 2287 079f 0D       		.byte	0xd
 2288 07a0 AB000000 		.4byte	0xab
 2289 07a4 02       		.byte	0x2
 2290 07a5 23       		.byte	0x23
 2291 07a6 06       		.uleb128 0x6
 2292 07a7 18       		.uleb128 0x18
 2293 07a8 28040000 		.4byte	.LASF122
 2294 07ac 08       		.byte	0x8
 2295 07ad A004     		.2byte	0x4a0
 2296 07af 11       		.byte	0x11
 2297 07b0 B7000000 		.4byte	0xb7
 2298 07b4 02       		.byte	0x2
 2299 07b5 23       		.byte	0x23
 2300 07b6 08       		.uleb128 0x8
 2301 07b7 18       		.uleb128 0x18
 2302 07b8 E2060000 		.4byte	.LASF77
 2303 07bc 08       		.byte	0x8
 2304 07bd A104     		.2byte	0x4a1
 2305 07bf 0D       		.byte	0xd
 2306 07c0 AB000000 		.4byte	0xab
 2307 07c4 02       		.byte	0x2
 2308 07c5 23       		.byte	0x23
 2309 07c6 0A       		.uleb128 0xa
 2310 07c7 18       		.uleb128 0x18
 2311 07c8 2D000000 		.4byte	.LASF123
 2312 07cc 08       		.byte	0x8
 2313 07cd A204     		.2byte	0x4a2
 2314 07cf 11       		.byte	0x11
 2315 07d0 B7000000 		.4byte	0xb7
 2316 07d4 02       		.byte	0x2
 2317 07d5 23       		.byte	0x23
 2318 07d6 0C       		.uleb128 0xc
 2319 07d7 18       		.uleb128 0x18
 2320 07d8 EC060000 		.4byte	.LASF79
 2321 07dc 08       		.byte	0x8
 2322 07dd A304     		.2byte	0x4a3
 2323 07df 0D       		.byte	0xd
 2324 07e0 AB000000 		.4byte	0xab
 2325 07e4 02       		.byte	0x2
 2326 07e5 23       		.byte	0x23
 2327 07e6 0E       		.uleb128 0xe
 2328 07e7 17       		.uleb128 0x17
 2329 07e8 535200   		.ascii	"SR\000"
 2330 07eb 08       		.byte	0x8
 2331 07ec A404     		.2byte	0x4a4
 2332 07ee 11       		.byte	0x11
 2333 07ef B7000000 		.4byte	0xb7
 2334 07f3 02       		.byte	0x2
 2335 07f4 23       		.byte	0x23
 2336 07f5 10       		.uleb128 0x10
 2337 07f6 18       		.uleb128 0x18
 2338 07f7 F6060000 		.4byte	.LASF81
ARM GAS  /tmp/cc4kJ8mf.s 			page 50


 2339 07fb 08       		.byte	0x8
 2340 07fc A504     		.2byte	0x4a5
 2341 07fe 0D       		.byte	0xd
 2342 07ff AB000000 		.4byte	0xab
 2343 0803 02       		.byte	0x2
 2344 0804 23       		.byte	0x23
 2345 0805 12       		.uleb128 0x12
 2346 0806 17       		.uleb128 0x17
 2347 0807 45475200 		.ascii	"EGR\000"
 2348 080b 08       		.byte	0x8
 2349 080c A604     		.2byte	0x4a6
 2350 080e 11       		.byte	0x11
 2351 080f B7000000 		.4byte	0xb7
 2352 0813 02       		.byte	0x2
 2353 0814 23       		.byte	0x23
 2354 0815 14       		.uleb128 0x14
 2355 0816 18       		.uleb128 0x18
 2356 0817 00070000 		.4byte	.LASF82
 2357 081b 08       		.byte	0x8
 2358 081c A704     		.2byte	0x4a7
 2359 081e 0D       		.byte	0xd
 2360 081f AB000000 		.4byte	0xab
 2361 0823 02       		.byte	0x2
 2362 0824 23       		.byte	0x23
 2363 0825 16       		.uleb128 0x16
 2364 0826 18       		.uleb128 0x18
 2365 0827 06010000 		.4byte	.LASF124
 2366 082b 08       		.byte	0x8
 2367 082c A804     		.2byte	0x4a8
 2368 082e 11       		.byte	0x11
 2369 082f B7000000 		.4byte	0xb7
 2370 0833 02       		.byte	0x2
 2371 0834 23       		.byte	0x23
 2372 0835 18       		.uleb128 0x18
 2373 0836 18       		.uleb128 0x18
 2374 0837 0A070000 		.4byte	.LASF125
 2375 083b 08       		.byte	0x8
 2376 083c A904     		.2byte	0x4a9
 2377 083e 0D       		.byte	0xd
 2378 083f AB000000 		.4byte	0xab
 2379 0843 02       		.byte	0x2
 2380 0844 23       		.byte	0x23
 2381 0845 1A       		.uleb128 0x1a
 2382 0846 18       		.uleb128 0x18
 2383 0847 0C010000 		.4byte	.LASF126
 2384 084b 08       		.byte	0x8
 2385 084c AA04     		.2byte	0x4aa
 2386 084e 11       		.byte	0x11
 2387 084f B7000000 		.4byte	0xb7
 2388 0853 02       		.byte	0x2
 2389 0854 23       		.byte	0x23
 2390 0855 1C       		.uleb128 0x1c
 2391 0856 18       		.uleb128 0x18
 2392 0857 2A080000 		.4byte	.LASF127
 2393 085b 08       		.byte	0x8
 2394 085c AB04     		.2byte	0x4ab
 2395 085e 0D       		.byte	0xd
ARM GAS  /tmp/cc4kJ8mf.s 			page 51


 2396 085f AB000000 		.4byte	0xab
 2397 0863 02       		.byte	0x2
 2398 0864 23       		.byte	0x23
 2399 0865 1E       		.uleb128 0x1e
 2400 0866 18       		.uleb128 0x18
 2401 0867 45020000 		.4byte	.LASF128
 2402 086b 08       		.byte	0x8
 2403 086c AC04     		.2byte	0x4ac
 2404 086e 11       		.byte	0x11
 2405 086f B7000000 		.4byte	0xb7
 2406 0873 02       		.byte	0x2
 2407 0874 23       		.byte	0x23
 2408 0875 20       		.uleb128 0x20
 2409 0876 18       		.uleb128 0x18
 2410 0877 14070000 		.4byte	.LASF129
 2411 087b 08       		.byte	0x8
 2412 087c AD04     		.2byte	0x4ad
 2413 087e 0D       		.byte	0xd
 2414 087f AB000000 		.4byte	0xab
 2415 0883 02       		.byte	0x2
 2416 0884 23       		.byte	0x23
 2417 0885 22       		.uleb128 0x22
 2418 0886 17       		.uleb128 0x17
 2419 0887 434E5400 		.ascii	"CNT\000"
 2420 088b 08       		.byte	0x8
 2421 088c AE04     		.2byte	0x4ae
 2422 088e 11       		.byte	0x11
 2423 088f B7000000 		.4byte	0xb7
 2424 0893 02       		.byte	0x2
 2425 0894 23       		.byte	0x23
 2426 0895 24       		.uleb128 0x24
 2427 0896 18       		.uleb128 0x18
 2428 0897 1E070000 		.4byte	.LASF130
 2429 089b 08       		.byte	0x8
 2430 089c AF04     		.2byte	0x4af
 2431 089e 0D       		.byte	0xd
 2432 089f AB000000 		.4byte	0xab
 2433 08a3 02       		.byte	0x2
 2434 08a4 23       		.byte	0x23
 2435 08a5 26       		.uleb128 0x26
 2436 08a6 17       		.uleb128 0x17
 2437 08a7 50534300 		.ascii	"PSC\000"
 2438 08ab 08       		.byte	0x8
 2439 08ac B004     		.2byte	0x4b0
 2440 08ae 11       		.byte	0x11
 2441 08af B7000000 		.4byte	0xb7
 2442 08b3 02       		.byte	0x2
 2443 08b4 23       		.byte	0x23
 2444 08b5 28       		.uleb128 0x28
 2445 08b6 18       		.uleb128 0x18
 2446 08b7 90010000 		.4byte	.LASF131
 2447 08bb 08       		.byte	0x8
 2448 08bc B104     		.2byte	0x4b1
 2449 08be 0D       		.byte	0xd
 2450 08bf AB000000 		.4byte	0xab
 2451 08c3 02       		.byte	0x2
 2452 08c4 23       		.byte	0x23
ARM GAS  /tmp/cc4kJ8mf.s 			page 52


 2453 08c5 2A       		.uleb128 0x2a
 2454 08c6 17       		.uleb128 0x17
 2455 08c7 41525200 		.ascii	"ARR\000"
 2456 08cb 08       		.byte	0x8
 2457 08cc B204     		.2byte	0x4b2
 2458 08ce 11       		.byte	0x11
 2459 08cf B7000000 		.4byte	0xb7
 2460 08d3 02       		.byte	0x2
 2461 08d4 23       		.byte	0x23
 2462 08d5 2C       		.uleb128 0x2c
 2463 08d6 18       		.uleb128 0x18
 2464 08d7 9B010000 		.4byte	.LASF132
 2465 08db 08       		.byte	0x8
 2466 08dc B304     		.2byte	0x4b3
 2467 08de 0D       		.byte	0xd
 2468 08df AB000000 		.4byte	0xab
 2469 08e3 02       		.byte	0x2
 2470 08e4 23       		.byte	0x23
 2471 08e5 2E       		.uleb128 0x2e
 2472 08e6 17       		.uleb128 0x17
 2473 08e7 52435200 		.ascii	"RCR\000"
 2474 08eb 08       		.byte	0x8
 2475 08ec B404     		.2byte	0x4b4
 2476 08ee 11       		.byte	0x11
 2477 08ef B7000000 		.4byte	0xb7
 2478 08f3 02       		.byte	0x2
 2479 08f4 23       		.byte	0x23
 2480 08f5 30       		.uleb128 0x30
 2481 08f6 18       		.uleb128 0x18
 2482 08f7 24060000 		.4byte	.LASF133
 2483 08fb 08       		.byte	0x8
 2484 08fc B504     		.2byte	0x4b5
 2485 08fe 0D       		.byte	0xd
 2486 08ff AB000000 		.4byte	0xab
 2487 0903 02       		.byte	0x2
 2488 0904 23       		.byte	0x23
 2489 0905 32       		.uleb128 0x32
 2490 0906 18       		.uleb128 0x18
 2491 0907 73090000 		.4byte	.LASF134
 2492 090b 08       		.byte	0x8
 2493 090c B604     		.2byte	0x4b6
 2494 090e 11       		.byte	0x11
 2495 090f B7000000 		.4byte	0xb7
 2496 0913 02       		.byte	0x2
 2497 0914 23       		.byte	0x23
 2498 0915 34       		.uleb128 0x34
 2499 0916 18       		.uleb128 0x18
 2500 0917 B1010000 		.4byte	.LASF135
 2501 091b 08       		.byte	0x8
 2502 091c B704     		.2byte	0x4b7
 2503 091e 0D       		.byte	0xd
 2504 091f AB000000 		.4byte	0xab
 2505 0923 02       		.byte	0x2
 2506 0924 23       		.byte	0x23
 2507 0925 36       		.uleb128 0x36
 2508 0926 18       		.uleb128 0x18
 2509 0927 A4000000 		.4byte	.LASF136
ARM GAS  /tmp/cc4kJ8mf.s 			page 53


 2510 092b 08       		.byte	0x8
 2511 092c B804     		.2byte	0x4b8
 2512 092e 11       		.byte	0x11
 2513 092f B7000000 		.4byte	0xb7
 2514 0933 02       		.byte	0x2
 2515 0934 23       		.byte	0x23
 2516 0935 38       		.uleb128 0x38
 2517 0936 18       		.uleb128 0x18
 2518 0937 BC010000 		.4byte	.LASF137
 2519 093b 08       		.byte	0x8
 2520 093c B904     		.2byte	0x4b9
 2521 093e 0D       		.byte	0xd
 2522 093f AB000000 		.4byte	0xab
 2523 0943 02       		.byte	0x2
 2524 0944 23       		.byte	0x23
 2525 0945 3A       		.uleb128 0x3a
 2526 0946 18       		.uleb128 0x18
 2527 0947 82090000 		.4byte	.LASF138
 2528 094b 08       		.byte	0x8
 2529 094c BA04     		.2byte	0x4ba
 2530 094e 11       		.byte	0x11
 2531 094f B7000000 		.4byte	0xb7
 2532 0953 02       		.byte	0x2
 2533 0954 23       		.byte	0x23
 2534 0955 3C       		.uleb128 0x3c
 2535 0956 18       		.uleb128 0x18
 2536 0957 A9020000 		.4byte	.LASF139
 2537 095b 08       		.byte	0x8
 2538 095c BB04     		.2byte	0x4bb
 2539 095e 0D       		.byte	0xd
 2540 095f AB000000 		.4byte	0xab
 2541 0963 02       		.byte	0x2
 2542 0964 23       		.byte	0x23
 2543 0965 3E       		.uleb128 0x3e
 2544 0966 18       		.uleb128 0x18
 2545 0967 87090000 		.4byte	.LASF140
 2546 096b 08       		.byte	0x8
 2547 096c BC04     		.2byte	0x4bc
 2548 096e 11       		.byte	0x11
 2549 096f B7000000 		.4byte	0xb7
 2550 0973 02       		.byte	0x2
 2551 0974 23       		.byte	0x23
 2552 0975 40       		.uleb128 0x40
 2553 0976 18       		.uleb128 0x18
 2554 0977 D5010000 		.4byte	.LASF141
 2555 097b 08       		.byte	0x8
 2556 097c BD04     		.2byte	0x4bd
 2557 097e 0D       		.byte	0xd
 2558 097f AB000000 		.4byte	0xab
 2559 0983 02       		.byte	0x2
 2560 0984 23       		.byte	0x23
 2561 0985 42       		.uleb128 0x42
 2562 0986 18       		.uleb128 0x18
 2563 0987 B2070000 		.4byte	.LASF142
 2564 098b 08       		.byte	0x8
 2565 098c BE04     		.2byte	0x4be
 2566 098e 11       		.byte	0x11
ARM GAS  /tmp/cc4kJ8mf.s 			page 54


 2567 098f B7000000 		.4byte	0xb7
 2568 0993 02       		.byte	0x2
 2569 0994 23       		.byte	0x23
 2570 0995 44       		.uleb128 0x44
 2571 0996 18       		.uleb128 0x18
 2572 0997 E0010000 		.4byte	.LASF143
 2573 099b 08       		.byte	0x8
 2574 099c BF04     		.2byte	0x4bf
 2575 099e 0D       		.byte	0xd
 2576 099f AB000000 		.4byte	0xab
 2577 09a3 02       		.byte	0x2
 2578 09a4 23       		.byte	0x23
 2579 09a5 46       		.uleb128 0x46
 2580 09a6 17       		.uleb128 0x17
 2581 09a7 44435200 		.ascii	"DCR\000"
 2582 09ab 08       		.byte	0x8
 2583 09ac C004     		.2byte	0x4c0
 2584 09ae 11       		.byte	0x11
 2585 09af B7000000 		.4byte	0xb7
 2586 09b3 02       		.byte	0x2
 2587 09b4 23       		.byte	0x23
 2588 09b5 48       		.uleb128 0x48
 2589 09b6 18       		.uleb128 0x18
 2590 09b7 9D090000 		.4byte	.LASF144
 2591 09bb 08       		.byte	0x8
 2592 09bc C104     		.2byte	0x4c1
 2593 09be 0D       		.byte	0xd
 2594 09bf AB000000 		.4byte	0xab
 2595 09c3 02       		.byte	0x2
 2596 09c4 23       		.byte	0x23
 2597 09c5 4A       		.uleb128 0x4a
 2598 09c6 18       		.uleb128 0x18
 2599 09c7 A2080000 		.4byte	.LASF145
 2600 09cb 08       		.byte	0x8
 2601 09cc C204     		.2byte	0x4c2
 2602 09ce 11       		.byte	0x11
 2603 09cf B7000000 		.4byte	0xb7
 2604 09d3 02       		.byte	0x2
 2605 09d4 23       		.byte	0x23
 2606 09d5 4C       		.uleb128 0x4c
 2607 09d6 18       		.uleb128 0x18
 2608 09d7 AD090000 		.4byte	.LASF146
 2609 09db 08       		.byte	0x8
 2610 09dc C304     		.2byte	0x4c3
 2611 09de 0D       		.byte	0xd
 2612 09df AB000000 		.4byte	0xab
 2613 09e3 02       		.byte	0x2
 2614 09e4 23       		.byte	0x23
 2615 09e5 4E       		.uleb128 0x4e
 2616 09e6 00       		.byte	0
 2617 09e7 0E       		.uleb128 0xe
 2618 09e8 7D000000 		.4byte	.LASF147
 2619 09ec 08       		.byte	0x8
 2620 09ed C404     		.2byte	0x4c4
 2621 09ef 03       		.byte	0x3
 2622 09f0 5D070000 		.4byte	0x75d
 2623 09f4 16       		.uleb128 0x16
ARM GAS  /tmp/cc4kJ8mf.s 			page 55


 2624 09f5 1C       		.byte	0x1c
 2625 09f6 08       		.byte	0x8
 2626 09f7 CA04     		.2byte	0x4ca
 2627 09f9 09       		.byte	0x9
 2628 09fa DD0A0000 		.4byte	0xadd
 2629 09fe 17       		.uleb128 0x17
 2630 09ff 535200   		.ascii	"SR\000"
 2631 0a02 08       		.byte	0x8
 2632 0a03 CC04     		.2byte	0x4cc
 2633 0a05 11       		.byte	0x11
 2634 0a06 B7000000 		.4byte	0xb7
 2635 0a0a 02       		.byte	0x2
 2636 0a0b 23       		.byte	0x23
 2637 0a0c 00       		.uleb128 0
 2638 0a0d 18       		.uleb128 0x18
 2639 0a0e CE060000 		.4byte	.LASF73
 2640 0a12 08       		.byte	0x8
 2641 0a13 CD04     		.2byte	0x4cd
 2642 0a15 0D       		.byte	0xd
 2643 0a16 AB000000 		.4byte	0xab
 2644 0a1a 02       		.byte	0x2
 2645 0a1b 23       		.byte	0x23
 2646 0a1c 02       		.uleb128 0x2
 2647 0a1d 17       		.uleb128 0x17
 2648 0a1e 445200   		.ascii	"DR\000"
 2649 0a21 08       		.byte	0x8
 2650 0a22 CE04     		.2byte	0x4ce
 2651 0a24 11       		.byte	0x11
 2652 0a25 B7000000 		.4byte	0xb7
 2653 0a29 02       		.byte	0x2
 2654 0a2a 23       		.byte	0x23
 2655 0a2b 04       		.uleb128 0x4
 2656 0a2c 18       		.uleb128 0x18
 2657 0a2d D8060000 		.4byte	.LASF121
 2658 0a31 08       		.byte	0x8
 2659 0a32 CF04     		.2byte	0x4cf
 2660 0a34 0D       		.byte	0xd
 2661 0a35 AB000000 		.4byte	0xab
 2662 0a39 02       		.byte	0x2
 2663 0a3a 23       		.byte	0x23
 2664 0a3b 06       		.uleb128 0x6
 2665 0a3c 17       		.uleb128 0x17
 2666 0a3d 42525200 		.ascii	"BRR\000"
 2667 0a41 08       		.byte	0x8
 2668 0a42 D004     		.2byte	0x4d0
 2669 0a44 11       		.byte	0x11
 2670 0a45 B7000000 		.4byte	0xb7
 2671 0a49 02       		.byte	0x2
 2672 0a4a 23       		.byte	0x23
 2673 0a4b 08       		.uleb128 0x8
 2674 0a4c 18       		.uleb128 0x18
 2675 0a4d E2060000 		.4byte	.LASF77
 2676 0a51 08       		.byte	0x8
 2677 0a52 D104     		.2byte	0x4d1
 2678 0a54 0D       		.byte	0xd
 2679 0a55 AB000000 		.4byte	0xab
 2680 0a59 02       		.byte	0x2
ARM GAS  /tmp/cc4kJ8mf.s 			page 56


 2681 0a5a 23       		.byte	0x23
 2682 0a5b 0A       		.uleb128 0xa
 2683 0a5c 17       		.uleb128 0x17
 2684 0a5d 43523100 		.ascii	"CR1\000"
 2685 0a61 08       		.byte	0x8
 2686 0a62 D204     		.2byte	0x4d2
 2687 0a64 11       		.byte	0x11
 2688 0a65 B7000000 		.4byte	0xb7
 2689 0a69 02       		.byte	0x2
 2690 0a6a 23       		.byte	0x23
 2691 0a6b 0C       		.uleb128 0xc
 2692 0a6c 18       		.uleb128 0x18
 2693 0a6d EC060000 		.4byte	.LASF79
 2694 0a71 08       		.byte	0x8
 2695 0a72 D304     		.2byte	0x4d3
 2696 0a74 0D       		.byte	0xd
 2697 0a75 AB000000 		.4byte	0xab
 2698 0a79 02       		.byte	0x2
 2699 0a7a 23       		.byte	0x23
 2700 0a7b 0E       		.uleb128 0xe
 2701 0a7c 17       		.uleb128 0x17
 2702 0a7d 43523200 		.ascii	"CR2\000"
 2703 0a81 08       		.byte	0x8
 2704 0a82 D404     		.2byte	0x4d4
 2705 0a84 11       		.byte	0x11
 2706 0a85 B7000000 		.4byte	0xb7
 2707 0a89 02       		.byte	0x2
 2708 0a8a 23       		.byte	0x23
 2709 0a8b 10       		.uleb128 0x10
 2710 0a8c 18       		.uleb128 0x18
 2711 0a8d F6060000 		.4byte	.LASF81
 2712 0a91 08       		.byte	0x8
 2713 0a92 D504     		.2byte	0x4d5
 2714 0a94 0D       		.byte	0xd
 2715 0a95 AB000000 		.4byte	0xab
 2716 0a99 02       		.byte	0x2
 2717 0a9a 23       		.byte	0x23
 2718 0a9b 12       		.uleb128 0x12
 2719 0a9c 17       		.uleb128 0x17
 2720 0a9d 43523300 		.ascii	"CR3\000"
 2721 0aa1 08       		.byte	0x8
 2722 0aa2 D604     		.2byte	0x4d6
 2723 0aa4 11       		.byte	0x11
 2724 0aa5 B7000000 		.4byte	0xb7
 2725 0aa9 02       		.byte	0x2
 2726 0aaa 23       		.byte	0x23
 2727 0aab 14       		.uleb128 0x14
 2728 0aac 18       		.uleb128 0x18
 2729 0aad 00070000 		.4byte	.LASF82
 2730 0ab1 08       		.byte	0x8
 2731 0ab2 D704     		.2byte	0x4d7
 2732 0ab4 0D       		.byte	0xd
 2733 0ab5 AB000000 		.4byte	0xab
 2734 0ab9 02       		.byte	0x2
 2735 0aba 23       		.byte	0x23
 2736 0abb 16       		.uleb128 0x16
 2737 0abc 18       		.uleb128 0x18
ARM GAS  /tmp/cc4kJ8mf.s 			page 57


 2738 0abd 5F010000 		.4byte	.LASF148
 2739 0ac1 08       		.byte	0x8
 2740 0ac2 D804     		.2byte	0x4d8
 2741 0ac4 11       		.byte	0x11
 2742 0ac5 B7000000 		.4byte	0xb7
 2743 0ac9 02       		.byte	0x2
 2744 0aca 23       		.byte	0x23
 2745 0acb 18       		.uleb128 0x18
 2746 0acc 18       		.uleb128 0x18
 2747 0acd 0A070000 		.4byte	.LASF125
 2748 0ad1 08       		.byte	0x8
 2749 0ad2 D904     		.2byte	0x4d9
 2750 0ad4 0D       		.byte	0xd
 2751 0ad5 AB000000 		.4byte	0xab
 2752 0ad9 02       		.byte	0x2
 2753 0ada 23       		.byte	0x23
 2754 0adb 1A       		.uleb128 0x1a
 2755 0adc 00       		.byte	0
 2756 0add 0E       		.uleb128 0xe
 2757 0ade FE040000 		.4byte	.LASF149
 2758 0ae2 08       		.byte	0x8
 2759 0ae3 DA04     		.2byte	0x4da
 2760 0ae5 03       		.byte	0x3
 2761 0ae6 F4090000 		.4byte	0x9f4
 2762 0aea 19       		.uleb128 0x19
 2763 0aeb 07       		.byte	0x7
 2764 0aec 01       		.byte	0x1
 2765 0aed 58000000 		.4byte	0x58
 2766 0af1 0A       		.byte	0xa
 2767 0af2 3B       		.byte	0x3b
 2768 0af3 01       		.byte	0x1
 2769 0af4 0B0B0000 		.4byte	0xb0b
 2770 0af8 0D       		.uleb128 0xd
 2771 0af9 6C000000 		.4byte	.LASF150
 2772 0afd 01       		.byte	0x1
 2773 0afe 0D       		.uleb128 0xd
 2774 0aff 93070000 		.4byte	.LASF151
 2775 0b03 02       		.byte	0x2
 2776 0b04 0D       		.uleb128 0xd
 2777 0b05 89060000 		.4byte	.LASF152
 2778 0b09 03       		.byte	0x3
 2779 0b0a 00       		.byte	0
 2780 0b0b 04       		.uleb128 0x4
 2781 0b0c 64030000 		.4byte	.LASF153
 2782 0b10 0A       		.byte	0xa
 2783 0b11 3F       		.byte	0x3f
 2784 0b12 02       		.byte	0x2
 2785 0b13 EA0A0000 		.4byte	0xaea
 2786 0b17 19       		.uleb128 0x19
 2787 0b18 07       		.byte	0x7
 2788 0b19 01       		.byte	0x1
 2789 0b1a 58000000 		.4byte	0x58
 2790 0b1e 0A       		.byte	0xa
 2791 0b1f 48       		.byte	0x48
 2792 0b20 01       		.byte	0x1
 2793 0b21 560B0000 		.4byte	0xb56
 2794 0b25 0D       		.uleb128 0xd
ARM GAS  /tmp/cc4kJ8mf.s 			page 58


 2795 0b26 D5070000 		.4byte	.LASF154
 2796 0b2a 00       		.byte	0
 2797 0b2b 0D       		.uleb128 0xd
 2798 0b2c 4A020000 		.4byte	.LASF155
 2799 0b30 04       		.byte	0x4
 2800 0b31 0D       		.uleb128 0xd
 2801 0b32 8C030000 		.4byte	.LASF156
 2802 0b36 28       		.byte	0x28
 2803 0b37 0D       		.uleb128 0xd
 2804 0b38 C7010000 		.4byte	.LASF157
 2805 0b3c 48       		.byte	0x48
 2806 0b3d 0D       		.uleb128 0xd
 2807 0b3e 4D040000 		.4byte	.LASF158
 2808 0b42 14       		.byte	0x14
 2809 0b43 0D       		.uleb128 0xd
 2810 0b44 70060000 		.4byte	.LASF159
 2811 0b48 10       		.byte	0x10
 2812 0b49 0D       		.uleb128 0xd
 2813 0b4a 05040000 		.4byte	.LASF160
 2814 0b4e 1C       		.byte	0x1c
 2815 0b4f 0D       		.uleb128 0xd
 2816 0b50 14000000 		.4byte	.LASF161
 2817 0b54 18       		.byte	0x18
 2818 0b55 00       		.byte	0
 2819 0b56 04       		.uleb128 0x4
 2820 0b57 060A0000 		.4byte	.LASF162
 2821 0b5b 0A       		.byte	0xa
 2822 0b5c 50       		.byte	0x50
 2823 0b5d 02       		.byte	0x2
 2824 0b5e 170B0000 		.4byte	0xb17
 2825 0b62 1A       		.uleb128 0x1a
 2826 0b63 04       		.byte	0x4
 2827 0b64 0A       		.byte	0xa
 2828 0b65 5B       		.byte	0x5b
 2829 0b66 09       		.byte	0x9
 2830 0b67 990B0000 		.4byte	0xb99
 2831 0b6b 10       		.uleb128 0x10
 2832 0b6c 76030000 		.4byte	.LASF163
 2833 0b70 0A       		.byte	0xa
 2834 0b71 5D       		.byte	0x5d
 2835 0b72 0C       		.byte	0xc
 2836 0b73 AB000000 		.4byte	0xab
 2837 0b77 02       		.byte	0x2
 2838 0b78 23       		.byte	0x23
 2839 0b79 00       		.uleb128 0
 2840 0b7a 10       		.uleb128 0x10
 2841 0b7b B2000000 		.4byte	.LASF164
 2842 0b7f 0A       		.byte	0xa
 2843 0b80 60       		.byte	0x60
 2844 0b81 15       		.byte	0x15
 2845 0b82 0B0B0000 		.4byte	0xb0b
 2846 0b86 02       		.byte	0x2
 2847 0b87 23       		.byte	0x23
 2848 0b88 02       		.uleb128 0x2
 2849 0b89 10       		.uleb128 0x10
 2850 0b8a 9F020000 		.4byte	.LASF165
 2851 0b8e 0A       		.byte	0xa
ARM GAS  /tmp/cc4kJ8mf.s 			page 59


 2852 0b8f 63       		.byte	0x63
 2853 0b90 14       		.byte	0x14
 2854 0b91 560B0000 		.4byte	0xb56
 2855 0b95 02       		.byte	0x2
 2856 0b96 23       		.byte	0x23
 2857 0b97 03       		.uleb128 0x3
 2858 0b98 00       		.byte	0
 2859 0b99 04       		.uleb128 0x4
 2860 0b9a 53060000 		.4byte	.LASF166
 2861 0b9e 0A       		.byte	0xa
 2862 0b9f 65       		.byte	0x65
 2863 0ba0 02       		.byte	0x2
 2864 0ba1 620B0000 		.4byte	0xb62
 2865 0ba5 1A       		.uleb128 0x1a
 2866 0ba6 10       		.byte	0x10
 2867 0ba7 0B       		.byte	0xb
 2868 0ba8 32       		.byte	0x32
 2869 0ba9 09       		.byte	0x9
 2870 0baa 090C0000 		.4byte	0xc09
 2871 0bae 10       		.uleb128 0x10
 2872 0baf EB010000 		.4byte	.LASF167
 2873 0bb3 0B       		.byte	0xb
 2874 0bb4 34       		.byte	0x34
 2875 0bb5 0C       		.byte	0xc
 2876 0bb6 BC000000 		.4byte	0xbc
 2877 0bba 02       		.byte	0x2
 2878 0bbb 23       		.byte	0x23
 2879 0bbc 00       		.uleb128 0
 2880 0bbd 10       		.uleb128 0x10
 2881 0bbe BF080000 		.4byte	.LASF168
 2882 0bc2 0B       		.byte	0xb
 2883 0bc3 39       		.byte	0x39
 2884 0bc4 0C       		.byte	0xc
 2885 0bc5 AB000000 		.4byte	0xab
 2886 0bc9 02       		.byte	0x2
 2887 0bca 23       		.byte	0x23
 2888 0bcb 04       		.uleb128 0x4
 2889 0bcc 10       		.uleb128 0x10
 2890 0bcd 28030000 		.4byte	.LASF169
 2891 0bd1 0B       		.byte	0xb
 2892 0bd2 3C       		.byte	0x3c
 2893 0bd3 0C       		.byte	0xc
 2894 0bd4 AB000000 		.4byte	0xab
 2895 0bd8 02       		.byte	0x2
 2896 0bd9 23       		.byte	0x23
 2897 0bda 06       		.uleb128 0x6
 2898 0bdb 10       		.uleb128 0x10
 2899 0bdc 47010000 		.4byte	.LASF170
 2900 0be0 0B       		.byte	0xb
 2901 0be1 3F       		.byte	0x3f
 2902 0be2 0C       		.byte	0xc
 2903 0be3 AB000000 		.4byte	0xab
 2904 0be7 02       		.byte	0x2
 2905 0be8 23       		.byte	0x23
 2906 0be9 08       		.uleb128 0x8
 2907 0bea 10       		.uleb128 0x10
 2908 0beb A6010000 		.4byte	.LASF171
ARM GAS  /tmp/cc4kJ8mf.s 			page 60


 2909 0bef 0B       		.byte	0xb
 2910 0bf0 46       		.byte	0x46
 2911 0bf1 0C       		.byte	0xc
 2912 0bf2 AB000000 		.4byte	0xab
 2913 0bf6 02       		.byte	0x2
 2914 0bf7 23       		.byte	0x23
 2915 0bf8 0A       		.uleb128 0xa
 2916 0bf9 10       		.uleb128 0x10
 2917 0bfa B4020000 		.4byte	.LASF172
 2918 0bfe 0B       		.byte	0xb
 2919 0bff 49       		.byte	0x49
 2920 0c00 0C       		.byte	0xc
 2921 0c01 AB000000 		.4byte	0xab
 2922 0c05 02       		.byte	0x2
 2923 0c06 23       		.byte	0x23
 2924 0c07 0C       		.uleb128 0xc
 2925 0c08 00       		.byte	0
 2926 0c09 04       		.uleb128 0x4
 2927 0c0a 47050000 		.4byte	.LASF173
 2928 0c0e 0B       		.byte	0xb
 2929 0c0f 4C       		.byte	0x4c
 2930 0c10 03       		.byte	0x3
 2931 0c11 A50B0000 		.4byte	0xba5
 2932 0c15 1B       		.uleb128 0x1b
 2933 0c16 3C0A0000 		.4byte	.LASF174
 2934 0c1a 01       		.byte	0x1
 2935 0c1b 2E       		.byte	0x2e
 2936 0c1c 16       		.byte	0x16
 2937 0c1d EE000000 		.4byte	0xee
 2938 0c21 05       		.byte	0x5
 2939 0c22 03       		.byte	0x3
 2940 0c23 00000000 		.4byte	fila_ADC
 2941 0c27 1C       		.uleb128 0x1c
 2942 0c28 01       		.byte	0x1
 2943 0c29 370A0000 		.4byte	.LASF217
 2944 0c2d 01       		.byte	0x1
 2945 0c2e 83       		.byte	0x83
 2946 0c2f 05       		.byte	0x5
 2947 0c30 01       		.byte	0x1
 2948 0c31 29000000 		.4byte	0x29
 2949 0c35 00000000 		.4byte	.LFB46
 2950 0c39 84000000 		.4byte	.LFE46
 2951 0c3d 00000000 		.4byte	.LLST16
 2952 0c41 01       		.byte	0x1
 2953 0c42 5F0D0000 		.4byte	0xd5f
 2954 0c46 1D       		.uleb128 0x1d
 2955 0c47 0E000000 		.4byte	.LVL43
 2956 0c4b 9C110000 		.4byte	0x119c
 2957 0c4f 640C0000 		.4byte	0xc64
 2958 0c53 1E       		.uleb128 0x1e
 2959 0c54 01       		.byte	0x1
 2960 0c55 50       		.byte	0x50
 2961 0c56 01       		.byte	0x1
 2962 0c57 35       		.byte	0x35
 2963 0c58 1E       		.uleb128 0x1e
 2964 0c59 01       		.byte	0x1
 2965 0c5a 51       		.byte	0x51
ARM GAS  /tmp/cc4kJ8mf.s 			page 61


 2966 0c5b 01       		.byte	0x1
 2967 0c5c 34       		.byte	0x34
 2968 0c5d 1E       		.uleb128 0x1e
 2969 0c5e 01       		.byte	0x1
 2970 0c5f 52       		.byte	0x52
 2971 0c60 02       		.byte	0x2
 2972 0c61 74       		.byte	0x74
 2973 0c62 00       		.sleb128 0
 2974 0c63 00       		.byte	0
 2975 0c64 1F       		.uleb128 0x1f
 2976 0c65 18000000 		.4byte	.LVL44
 2977 0c69 71110000 		.4byte	0x1171
 2978 0c6d 1D       		.uleb128 0x1d
 2979 0c6e 28000000 		.4byte	.LVL45
 2980 0c72 AB110000 		.4byte	0x11ab
 2981 0c76 A70C0000 		.4byte	0xca7
 2982 0c7a 1E       		.uleb128 0x1e
 2983 0c7b 01       		.byte	0x1
 2984 0c7c 50       		.byte	0x50
 2985 0c7d 05       		.byte	0x5
 2986 0c7e 03       		.byte	0x3
 2987 0c7f 00000000 		.4byte	task1
 2988 0c83 1E       		.uleb128 0x1e
 2989 0c84 01       		.byte	0x1
 2990 0c85 51       		.byte	0x51
 2991 0c86 05       		.byte	0x5
 2992 0c87 03       		.byte	0x3
 2993 0c88 58000000 		.4byte	.LC4
 2994 0c8c 1E       		.uleb128 0x1e
 2995 0c8d 01       		.byte	0x1
 2996 0c8e 52       		.byte	0x52
 2997 0c8f 02       		.byte	0x2
 2998 0c90 08       		.byte	0x8
 2999 0c91 64       		.byte	0x64
 3000 0c92 1E       		.uleb128 0x1e
 3001 0c93 01       		.byte	0x1
 3002 0c94 53       		.byte	0x53
 3003 0c95 02       		.byte	0x2
 3004 0c96 74       		.byte	0x74
 3005 0c97 00       		.sleb128 0
 3006 0c98 1E       		.uleb128 0x1e
 3007 0c99 02       		.byte	0x2
 3008 0c9a 7D       		.byte	0x7d
 3009 0c9b 00       		.sleb128 0
 3010 0c9c 02       		.byte	0x2
 3011 0c9d 75       		.byte	0x75
 3012 0c9e 00       		.sleb128 0
 3013 0c9f 1E       		.uleb128 0x1e
 3014 0ca0 02       		.byte	0x2
 3015 0ca1 7D       		.byte	0x7d
 3016 0ca2 04       		.sleb128 4
 3017 0ca3 02       		.byte	0x2
 3018 0ca4 74       		.byte	0x74
 3019 0ca5 00       		.sleb128 0
 3020 0ca6 00       		.byte	0
 3021 0ca7 1D       		.uleb128 0x1d
 3022 0ca8 38000000 		.4byte	.LVL46
ARM GAS  /tmp/cc4kJ8mf.s 			page 62


 3023 0cac AB110000 		.4byte	0x11ab
 3024 0cb0 E10C0000 		.4byte	0xce1
 3025 0cb4 1E       		.uleb128 0x1e
 3026 0cb5 01       		.byte	0x1
 3027 0cb6 50       		.byte	0x50
 3028 0cb7 05       		.byte	0x5
 3029 0cb8 03       		.byte	0x3
 3030 0cb9 00000000 		.4byte	task2
 3031 0cbd 1E       		.uleb128 0x1e
 3032 0cbe 01       		.byte	0x1
 3033 0cbf 51       		.byte	0x51
 3034 0cc0 05       		.byte	0x5
 3035 0cc1 03       		.byte	0x3
 3036 0cc2 61000000 		.4byte	.LC5
 3037 0cc6 1E       		.uleb128 0x1e
 3038 0cc7 01       		.byte	0x1
 3039 0cc8 52       		.byte	0x52
 3040 0cc9 02       		.byte	0x2
 3041 0cca 08       		.byte	0x8
 3042 0ccb 64       		.byte	0x64
 3043 0ccc 1E       		.uleb128 0x1e
 3044 0ccd 01       		.byte	0x1
 3045 0cce 53       		.byte	0x53
 3046 0ccf 02       		.byte	0x2
 3047 0cd0 74       		.byte	0x74
 3048 0cd1 00       		.sleb128 0
 3049 0cd2 1E       		.uleb128 0x1e
 3050 0cd3 02       		.byte	0x2
 3051 0cd4 7D       		.byte	0x7d
 3052 0cd5 00       		.sleb128 0
 3053 0cd6 02       		.byte	0x2
 3054 0cd7 75       		.byte	0x75
 3055 0cd8 00       		.sleb128 0
 3056 0cd9 1E       		.uleb128 0x1e
 3057 0cda 02       		.byte	0x2
 3058 0cdb 7D       		.byte	0x7d
 3059 0cdc 04       		.sleb128 4
 3060 0cdd 02       		.byte	0x2
 3061 0cde 74       		.byte	0x74
 3062 0cdf 00       		.sleb128 0
 3063 0ce0 00       		.byte	0
 3064 0ce1 1D       		.uleb128 0x1d
 3065 0ce2 48000000 		.4byte	.LVL47
 3066 0ce6 AB110000 		.4byte	0x11ab
 3067 0cea 1B0D0000 		.4byte	0xd1b
 3068 0cee 1E       		.uleb128 0x1e
 3069 0cef 01       		.byte	0x1
 3070 0cf0 50       		.byte	0x50
 3071 0cf1 05       		.byte	0x5
 3072 0cf2 03       		.byte	0x3
 3073 0cf3 00000000 		.4byte	task3
 3074 0cf7 1E       		.uleb128 0x1e
 3075 0cf8 01       		.byte	0x1
 3076 0cf9 51       		.byte	0x51
 3077 0cfa 05       		.byte	0x5
 3078 0cfb 03       		.byte	0x3
 3079 0cfc 68000000 		.4byte	.LC6
ARM GAS  /tmp/cc4kJ8mf.s 			page 63


 3080 0d00 1E       		.uleb128 0x1e
 3081 0d01 01       		.byte	0x1
 3082 0d02 52       		.byte	0x52
 3083 0d03 02       		.byte	0x2
 3084 0d04 08       		.byte	0x8
 3085 0d05 64       		.byte	0x64
 3086 0d06 1E       		.uleb128 0x1e
 3087 0d07 01       		.byte	0x1
 3088 0d08 53       		.byte	0x53
 3089 0d09 02       		.byte	0x2
 3090 0d0a 74       		.byte	0x74
 3091 0d0b 00       		.sleb128 0
 3092 0d0c 1E       		.uleb128 0x1e
 3093 0d0d 02       		.byte	0x2
 3094 0d0e 7D       		.byte	0x7d
 3095 0d0f 00       		.sleb128 0
 3096 0d10 02       		.byte	0x2
 3097 0d11 75       		.byte	0x75
 3098 0d12 00       		.sleb128 0
 3099 0d13 1E       		.uleb128 0x1e
 3100 0d14 02       		.byte	0x2
 3101 0d15 7D       		.byte	0x7d
 3102 0d16 04       		.sleb128 4
 3103 0d17 02       		.byte	0x2
 3104 0d18 74       		.byte	0x74
 3105 0d19 00       		.sleb128 0
 3106 0d1a 00       		.byte	0
 3107 0d1b 1D       		.uleb128 0x1d
 3108 0d1c 58000000 		.4byte	.LVL48
 3109 0d20 AB110000 		.4byte	0x11ab
 3110 0d24 550D0000 		.4byte	0xd55
 3111 0d28 1E       		.uleb128 0x1e
 3112 0d29 01       		.byte	0x1
 3113 0d2a 50       		.byte	0x50
 3114 0d2b 05       		.byte	0x5
 3115 0d2c 03       		.byte	0x3
 3116 0d2d 00000000 		.4byte	task4
 3117 0d31 1E       		.uleb128 0x1e
 3118 0d32 01       		.byte	0x1
 3119 0d33 51       		.byte	0x51
 3120 0d34 05       		.byte	0x5
 3121 0d35 03       		.byte	0x3
 3122 0d36 6E000000 		.4byte	.LC7
 3123 0d3a 1E       		.uleb128 0x1e
 3124 0d3b 01       		.byte	0x1
 3125 0d3c 52       		.byte	0x52
 3126 0d3d 02       		.byte	0x2
 3127 0d3e 08       		.byte	0x8
 3128 0d3f 64       		.byte	0x64
 3129 0d40 1E       		.uleb128 0x1e
 3130 0d41 01       		.byte	0x1
 3131 0d42 53       		.byte	0x53
 3132 0d43 02       		.byte	0x2
 3133 0d44 74       		.byte	0x74
 3134 0d45 00       		.sleb128 0
 3135 0d46 1E       		.uleb128 0x1e
 3136 0d47 02       		.byte	0x2
ARM GAS  /tmp/cc4kJ8mf.s 			page 64


 3137 0d48 7D       		.byte	0x7d
 3138 0d49 00       		.sleb128 0
 3139 0d4a 02       		.byte	0x2
 3140 0d4b 75       		.byte	0x75
 3141 0d4c 00       		.sleb128 0
 3142 0d4d 1E       		.uleb128 0x1e
 3143 0d4e 02       		.byte	0x2
 3144 0d4f 7D       		.byte	0x7d
 3145 0d50 04       		.sleb128 4
 3146 0d51 02       		.byte	0x2
 3147 0d52 74       		.byte	0x74
 3148 0d53 00       		.sleb128 0
 3149 0d54 00       		.byte	0
 3150 0d55 1F       		.uleb128 0x1f
 3151 0d56 5C000000 		.4byte	.LVL49
 3152 0d5a BA110000 		.4byte	0x11ba
 3153 0d5e 00       		.byte	0
 3154 0d5f 20       		.uleb128 0x20
 3155 0d60 ED030000 		.4byte	.LASF176
 3156 0d64 01       		.byte	0x1
 3157 0d65 72       		.byte	0x72
 3158 0d66 0D       		.byte	0xd
 3159 0d67 01       		.byte	0x1
 3160 0d68 00000000 		.4byte	.LFB45
 3161 0d6c 28000000 		.4byte	.LFE45
 3162 0d70 20000000 		.4byte	.LLST0
 3163 0d74 01       		.byte	0x1
 3164 0d75 CB0D0000 		.4byte	0xdcb
 3165 0d79 21       		.uleb128 0x21
 3166 0d7a 320A0000 		.4byte	.LASF178
 3167 0d7e 01       		.byte	0x1
 3168 0d7f 72       		.byte	0x72
 3169 0d80 19       		.byte	0x19
 3170 0d81 CD000000 		.4byte	0xcd
 3171 0d85 44000000 		.4byte	.LLST1
 3172 0d89 40000000 		.4byte	.LVUS1
 3173 0d8d 1B       		.uleb128 0x1b
 3174 0d8e 23020000 		.4byte	.LASF175
 3175 0d92 01       		.byte	0x1
 3176 0d93 75       		.byte	0x75
 3177 0d94 06       		.byte	0x6
 3178 0d95 AD030000 		.4byte	0x3ad
 3179 0d99 02       		.byte	0x2
 3180 0d9a 91       		.byte	0x91
 3181 0d9b 74       		.sleb128 -12
 3182 0d9c 1D       		.uleb128 0x1d
 3183 0d9d 1A000000 		.4byte	.LVL2
 3184 0da1 C9110000 		.4byte	0x11c9
 3185 0da5 BA0D0000 		.4byte	0xdba
 3186 0da9 1E       		.uleb128 0x1e
 3187 0daa 01       		.byte	0x1
 3188 0dab 51       		.byte	0x51
 3189 0dac 02       		.byte	0x2
 3190 0dad 91       		.byte	0x91
 3191 0dae 74       		.sleb128 -12
 3192 0daf 1E       		.uleb128 0x1e
 3193 0db0 01       		.byte	0x1
ARM GAS  /tmp/cc4kJ8mf.s 			page 65


 3194 0db1 52       		.byte	0x52
 3195 0db2 01       		.byte	0x1
 3196 0db3 30       		.byte	0x30
 3197 0db4 1E       		.uleb128 0x1e
 3198 0db5 01       		.byte	0x1
 3199 0db6 53       		.byte	0x53
 3200 0db7 01       		.byte	0x1
 3201 0db8 30       		.byte	0x30
 3202 0db9 00       		.byte	0
 3203 0dba 22       		.uleb128 0x22
 3204 0dbb 20000000 		.4byte	.LVL3
 3205 0dbf D8110000 		.4byte	0x11d8
 3206 0dc3 1E       		.uleb128 0x1e
 3207 0dc4 01       		.byte	0x1
 3208 0dc5 50       		.byte	0x50
 3209 0dc6 02       		.byte	0x2
 3210 0dc7 08       		.byte	0x8
 3211 0dc8 64       		.byte	0x64
 3212 0dc9 00       		.byte	0
 3213 0dca 00       		.byte	0
 3214 0dcb 20       		.uleb128 0x20
 3215 0dcc E7030000 		.4byte	.LASF177
 3216 0dd0 01       		.byte	0x1
 3217 0dd1 56       		.byte	0x56
 3218 0dd2 0D       		.byte	0xd
 3219 0dd3 01       		.byte	0x1
 3220 0dd4 14030000 		.4byte	.LFB44
 3221 0dd8 68030000 		.4byte	.LFE44
 3222 0ddc 65000000 		.4byte	.LLST13
 3223 0de0 01       		.byte	0x1
 3224 0de1 B50E0000 		.4byte	0xeb5
 3225 0de5 21       		.uleb128 0x21
 3226 0de6 320A0000 		.4byte	.LASF178
 3227 0dea 01       		.byte	0x1
 3228 0deb 56       		.byte	0x56
 3229 0dec 19       		.byte	0x19
 3230 0ded CD000000 		.4byte	0xcd
 3231 0df1 89000000 		.4byte	.LLST14
 3232 0df5 85000000 		.4byte	.LVUS14
 3233 0df9 1B       		.uleb128 0x1b
 3234 0dfa FA010000 		.4byte	.LASF179
 3235 0dfe 01       		.byte	0x1
 3236 0dff 59       		.byte	0x59
 3237 0e00 06       		.byte	0x6
 3238 0e01 AD030000 		.4byte	0x3ad
 3239 0e05 02       		.byte	0x2
 3240 0e06 91       		.byte	0x91
 3241 0e07 64       		.sleb128 -28
 3242 0e08 1B       		.uleb128 0x1b
 3243 0e09 C5060000 		.4byte	.LASF180
 3244 0e0d 01       		.byte	0x1
 3245 0e0e 5B       		.byte	0x5b
 3246 0e0f 07       		.byte	0x7
 3247 0e10 0C010000 		.4byte	0x10c
 3248 0e14 02       		.byte	0x2
 3249 0e15 91       		.byte	0x91
 3250 0e16 68       		.sleb128 -24
ARM GAS  /tmp/cc4kJ8mf.s 			page 66


 3251 0e17 23       		.uleb128 0x23
 3252 0e18 2C010000 		.4byte	.LASF183
 3253 0e1c 01       		.byte	0x1
 3254 0e1d 5C       		.byte	0x5c
 3255 0e1e 05       		.byte	0x5
 3256 0e1f BF030000 		.4byte	0x3bf
 3257 0e23 AE000000 		.4byte	.LLST15
 3258 0e27 AA000000 		.4byte	.LVUS15
 3259 0e2b 1F       		.uleb128 0x1f
 3260 0e2c 1A030000 		.4byte	.LVL33
 3261 0e30 1E100000 		.4byte	0x101e
 3262 0e34 1D       		.uleb128 0x1d
 3263 0e35 2E030000 		.4byte	.LVL34
 3264 0e39 E7110000 		.4byte	0x11e7
 3265 0e3d 4E0E0000 		.4byte	0xe4e
 3266 0e41 1E       		.uleb128 0x1e
 3267 0e42 01       		.byte	0x1
 3268 0e43 51       		.byte	0x51
 3269 0e44 02       		.byte	0x2
 3270 0e45 91       		.byte	0x91
 3271 0e46 64       		.sleb128 -28
 3272 0e47 1E       		.uleb128 0x1e
 3273 0e48 01       		.byte	0x1
 3274 0e49 52       		.byte	0x52
 3275 0e4a 02       		.byte	0x2
 3276 0e4b 08       		.byte	0x8
 3277 0e4c 64       		.byte	0x64
 3278 0e4d 00       		.byte	0
 3279 0e4e 1D       		.uleb128 0x1d
 3280 0e4f 38030000 		.4byte	.LVL36
 3281 0e53 C40F0000 		.4byte	0xfc4
 3282 0e57 620E0000 		.4byte	0xe62
 3283 0e5b 1E       		.uleb128 0x1e
 3284 0e5c 01       		.byte	0x1
 3285 0e5d 50       		.byte	0x50
 3286 0e5e 02       		.byte	0x2
 3287 0e5f 76       		.byte	0x76
 3288 0e60 00       		.sleb128 0
 3289 0e61 00       		.byte	0
 3290 0e62 1D       		.uleb128 0x1d
 3291 0e63 42030000 		.4byte	.LVL37
 3292 0e67 F6110000 		.4byte	0x11f6
 3293 0e6b 7B0E0000 		.4byte	0xe7b
 3294 0e6f 1E       		.uleb128 0x1e
 3295 0e70 01       		.byte	0x1
 3296 0e71 51       		.byte	0x51
 3297 0e72 02       		.byte	0x2
 3298 0e73 91       		.byte	0x91
 3299 0e74 68       		.sleb128 -24
 3300 0e75 1E       		.uleb128 0x1e
 3301 0e76 01       		.byte	0x1
 3302 0e77 52       		.byte	0x52
 3303 0e78 01       		.byte	0x1
 3304 0e79 40       		.byte	0x40
 3305 0e7a 00       		.byte	0
 3306 0e7b 1D       		.uleb128 0x1d
 3307 0e7c 48030000 		.4byte	.LVL38
ARM GAS  /tmp/cc4kJ8mf.s 			page 67


 3308 0e80 C40F0000 		.4byte	0xfc4
 3309 0e84 8F0E0000 		.4byte	0xe8f
 3310 0e88 1E       		.uleb128 0x1e
 3311 0e89 01       		.byte	0x1
 3312 0e8a 50       		.byte	0x50
 3313 0e8b 02       		.byte	0x2
 3314 0e8c 91       		.byte	0x91
 3315 0e8d 68       		.sleb128 -24
 3316 0e8e 00       		.byte	0
 3317 0e8f 1D       		.uleb128 0x1d
 3318 0e90 50030000 		.4byte	.LVL39
 3319 0e94 D8110000 		.4byte	0x11d8
 3320 0e98 A40E0000 		.4byte	0xea4
 3321 0e9c 1E       		.uleb128 0x1e
 3322 0e9d 01       		.byte	0x1
 3323 0e9e 50       		.byte	0x50
 3324 0e9f 03       		.byte	0x3
 3325 0ea0 0A       		.byte	0xa
 3326 0ea1 1027     		.2byte	0x2710
 3327 0ea3 00       		.byte	0
 3328 0ea4 22       		.uleb128 0x22
 3329 0ea5 58030000 		.4byte	.LVL42
 3330 0ea9 C40F0000 		.4byte	0xfc4
 3331 0ead 1E       		.uleb128 0x1e
 3332 0eae 01       		.byte	0x1
 3333 0eaf 50       		.byte	0x50
 3334 0eb0 02       		.byte	0x2
 3335 0eb1 74       		.byte	0x74
 3336 0eb2 00       		.sleb128 0
 3337 0eb3 00       		.byte	0
 3338 0eb4 00       		.byte	0
 3339 0eb5 20       		.uleb128 0x20
 3340 0eb6 E1030000 		.4byte	.LASF181
 3341 0eba 01       		.byte	0x1
 3342 0ebb 4C       		.byte	0x4c
 3343 0ebc 0D       		.byte	0xd
 3344 0ebd 01       		.byte	0x1
 3345 0ebe 28000000 		.4byte	.LFB43
 3346 0ec2 58000000 		.4byte	.LFE43
 3347 0ec6 CC000000 		.4byte	.LLST2
 3348 0eca 01       		.byte	0x1
 3349 0ecb F50E0000 		.4byte	0xef5
 3350 0ecf 21       		.uleb128 0x21
 3351 0ed0 320A0000 		.4byte	.LASF178
 3352 0ed4 01       		.byte	0x1
 3353 0ed5 4C       		.byte	0x4c
 3354 0ed6 19       		.byte	0x19
 3355 0ed7 CD000000 		.4byte	0xcd
 3356 0edb F0000000 		.4byte	.LLST3
 3357 0edf EC000000 		.4byte	.LVUS3
 3358 0ee3 22       		.uleb128 0x22
 3359 0ee4 4E000000 		.4byte	.LVL6
 3360 0ee8 D8110000 		.4byte	0x11d8
 3361 0eec 1E       		.uleb128 0x1e
 3362 0eed 01       		.byte	0x1
 3363 0eee 50       		.byte	0x50
 3364 0eef 03       		.byte	0x3
ARM GAS  /tmp/cc4kJ8mf.s 			page 68


 3365 0ef0 0A       		.byte	0xa
 3366 0ef1 8813     		.2byte	0x1388
 3367 0ef3 00       		.byte	0
 3368 0ef4 00       		.byte	0
 3369 0ef5 20       		.uleb128 0x20
 3370 0ef6 DB030000 		.4byte	.LASF182
 3371 0efa 01       		.byte	0x1
 3372 0efb 30       		.byte	0x30
 3373 0efc 0D       		.byte	0xd
 3374 0efd 01       		.byte	0x1
 3375 0efe 58000000 		.4byte	.LFB42
 3376 0f02 F0000000 		.4byte	.LFE42
 3377 0f06 11010000 		.4byte	.LLST4
 3378 0f0a 01       		.byte	0x1
 3379 0f0b C40F0000 		.4byte	0xfc4
 3380 0f0f 21       		.uleb128 0x21
 3381 0f10 320A0000 		.4byte	.LASF178
 3382 0f14 01       		.byte	0x1
 3383 0f15 30       		.byte	0x30
 3384 0f16 19       		.byte	0x19
 3385 0f17 CD000000 		.4byte	0xcd
 3386 0f1b 35010000 		.4byte	.LLST5
 3387 0f1f 31010000 		.4byte	.LVUS5
 3388 0f23 23       		.uleb128 0x23
 3389 0f24 33020000 		.4byte	.LASF184
 3390 0f28 01       		.byte	0x1
 3391 0f29 40       		.byte	0x40
 3392 0f2a 06       		.byte	0x6
 3393 0f2b BF030000 		.4byte	0x3bf
 3394 0f2f 5A010000 		.4byte	.LLST6
 3395 0f33 56010000 		.4byte	.LVUS6
 3396 0f37 1F       		.uleb128 0x1f
 3397 0f38 AA000000 		.4byte	.LVL8
 3398 0f3c 04120000 		.4byte	0x1204
 3399 0f40 1D       		.uleb128 0x1d
 3400 0f41 B0000000 		.4byte	.LVL9
 3401 0f45 12120000 		.4byte	0x1212
 3402 0f49 530F0000 		.4byte	0xf53
 3403 0f4d 1E       		.uleb128 0x1e
 3404 0f4e 01       		.byte	0x1
 3405 0f4f 50       		.byte	0x50
 3406 0f50 01       		.byte	0x1
 3407 0f51 3C       		.byte	0x3c
 3408 0f52 00       		.byte	0
 3409 0f53 1D       		.uleb128 0x1d
 3410 0f54 BA000000 		.4byte	.LVL10
 3411 0f58 20120000 		.4byte	0x1220
 3412 0f5c 760F0000 		.4byte	0xf76
 3413 0f60 1E       		.uleb128 0x1e
 3414 0f61 01       		.byte	0x1
 3415 0f62 50       		.byte	0x50
 3416 0f63 05       		.byte	0x5
 3417 0f64 03       		.byte	0x3
 3418 0f65 00000000 		.4byte	.LC0
 3419 0f69 1E       		.uleb128 0x1e
 3420 0f6a 01       		.byte	0x1
 3421 0f6b 51       		.byte	0x51
ARM GAS  /tmp/cc4kJ8mf.s 			page 69


 3422 0f6c 02       		.byte	0x2
 3423 0f6d 74       		.byte	0x74
 3424 0f6e 00       		.sleb128 0
 3425 0f6f 1E       		.uleb128 0x1e
 3426 0f70 01       		.byte	0x1
 3427 0f71 52       		.byte	0x52
 3428 0f72 02       		.byte	0x2
 3429 0f73 74       		.byte	0x74
 3430 0f74 00       		.sleb128 0
 3431 0f75 00       		.byte	0
 3432 0f76 1D       		.uleb128 0x1d
 3433 0f77 C8000000 		.4byte	.LVL13
 3434 0f7b 20120000 		.4byte	0x1220
 3435 0f7f 940F0000 		.4byte	0xf94
 3436 0f83 1E       		.uleb128 0x1e
 3437 0f84 01       		.byte	0x1
 3438 0f85 50       		.byte	0x50
 3439 0f86 02       		.byte	0x2
 3440 0f87 75       		.byte	0x75
 3441 0f88 00       		.sleb128 0
 3442 0f89 1E       		.uleb128 0x1e
 3443 0f8a 01       		.byte	0x1
 3444 0f8b 51       		.byte	0x51
 3445 0f8c 01       		.byte	0x1
 3446 0f8d 31       		.byte	0x31
 3447 0f8e 1E       		.uleb128 0x1e
 3448 0f8f 01       		.byte	0x1
 3449 0f90 52       		.byte	0x52
 3450 0f91 01       		.byte	0x1
 3451 0f92 30       		.byte	0x30
 3452 0f93 00       		.byte	0
 3453 0f94 1D       		.uleb128 0x1d
 3454 0f95 D2000000 		.4byte	.LVL14
 3455 0f99 2E120000 		.4byte	0x122e
 3456 0f9d B20F0000 		.4byte	0xfb2
 3457 0fa1 1E       		.uleb128 0x1e
 3458 0fa2 01       		.byte	0x1
 3459 0fa3 50       		.byte	0x50
 3460 0fa4 02       		.byte	0x2
 3461 0fa5 74       		.byte	0x74
 3462 0fa6 00       		.sleb128 0
 3463 0fa7 1E       		.uleb128 0x1e
 3464 0fa8 01       		.byte	0x1
 3465 0fa9 51       		.byte	0x51
 3466 0faa 01       		.byte	0x1
 3467 0fab 31       		.byte	0x31
 3468 0fac 1E       		.uleb128 0x1e
 3469 0fad 01       		.byte	0x1
 3470 0fae 52       		.byte	0x52
 3471 0faf 01       		.byte	0x1
 3472 0fb0 3B       		.byte	0x3b
 3473 0fb1 00       		.byte	0
 3474 0fb2 22       		.uleb128 0x22
 3475 0fb3 DA000000 		.4byte	.LVL15
 3476 0fb7 D8110000 		.4byte	0x11d8
 3477 0fbb 1E       		.uleb128 0x1e
 3478 0fbc 01       		.byte	0x1
ARM GAS  /tmp/cc4kJ8mf.s 			page 70


 3479 0fbd 50       		.byte	0x50
 3480 0fbe 03       		.byte	0x3
 3481 0fbf 0A       		.byte	0xa
 3482 0fc0 E803     		.2byte	0x3e8
 3483 0fc2 00       		.byte	0
 3484 0fc3 00       		.byte	0
 3485 0fc4 24       		.uleb128 0x24
 3486 0fc5 01       		.byte	0x1
 3487 0fc6 9A000000 		.4byte	.LASF186
 3488 0fca 03       		.byte	0x3
 3489 0fcb 28       		.byte	0x28
 3490 0fcc 06       		.byte	0x6
 3491 0fcd 01       		.byte	0x1
 3492 0fce EC020000 		.4byte	.LFB41
 3493 0fd2 14030000 		.4byte	.LFE41
 3494 0fd6 78010000 		.4byte	.LLST11
 3495 0fda 01       		.byte	0x1
 3496 0fdb 1E100000 		.4byte	0x101e
 3497 0fdf 21       		.uleb128 0x21
 3498 0fe0 00000000 		.4byte	.LASF185
 3499 0fe4 03       		.byte	0x3
 3500 0fe5 28       		.byte	0x28
 3501 0fe6 16       		.byte	0x16
 3502 0fe7 06010000 		.4byte	0x106
 3503 0feb A0010000 		.4byte	.LLST12
 3504 0fef 98010000 		.4byte	.LVUS12
 3505 0ff3 1D       		.uleb128 0x1d
 3506 0ff4 00030000 		.4byte	.LVL30
 3507 0ff8 3C120000 		.4byte	0x123c
 3508 0ffc 07100000 		.4byte	0x1007
 3509 1000 1E       		.uleb128 0x1e
 3510 1001 01       		.byte	0x1
 3511 1002 50       		.byte	0x50
 3512 1003 02       		.byte	0x2
 3513 1004 75       		.byte	0x75
 3514 1005 00       		.sleb128 0
 3515 1006 00       		.byte	0
 3516 1007 22       		.uleb128 0x22
 3517 1008 08030000 		.4byte	.LVL31
 3518 100c 4B120000 		.4byte	0x124b
 3519 1010 1E       		.uleb128 0x1e
 3520 1011 01       		.byte	0x1
 3521 1012 50       		.byte	0x50
 3522 1013 02       		.byte	0x2
 3523 1014 75       		.byte	0x75
 3524 1015 00       		.sleb128 0
 3525 1016 1E       		.uleb128 0x1e
 3526 1017 01       		.byte	0x1
 3527 1018 51       		.byte	0x51
 3528 1019 02       		.byte	0x2
 3529 101a 08       		.byte	0x8
 3530 101b 40       		.byte	0x40
 3531 101c 00       		.byte	0
 3532 101d 00       		.byte	0
 3533 101e 24       		.uleb128 0x24
 3534 101f 01       		.byte	0x1
 3535 1020 32000000 		.4byte	.LASF187
ARM GAS  /tmp/cc4kJ8mf.s 			page 71


 3536 1024 03       		.byte	0x3
 3537 1025 07       		.byte	0x7
 3538 1026 06       		.byte	0x6
 3539 1027 01       		.byte	0x1
 3540 1028 7C020000 		.4byte	.LFB40
 3541 102c EC020000 		.4byte	.LFE40
 3542 1030 D8010000 		.4byte	.LLST10
 3543 1034 01       		.byte	0x1
 3544 1035 D5100000 		.4byte	0x10d5
 3545 1039 1B       		.uleb128 0x1b
 3546 103a 40060000 		.4byte	.LASF188
 3547 103e 03       		.byte	0x3
 3548 103f 0C       		.byte	0xc
 3549 1040 15       		.byte	0x15
 3550 1041 990B0000 		.4byte	0xb99
 3551 1045 02       		.byte	0x2
 3552 1046 91       		.byte	0x91
 3553 1047 64       		.sleb128 -28
 3554 1048 1B       		.uleb128 0x1b
 3555 1049 52070000 		.4byte	.LASF189
 3556 104d 03       		.byte	0x3
 3557 104e 1A       		.byte	0x1a
 3558 104f 16       		.byte	0x16
 3559 1050 090C0000 		.4byte	0xc09
 3560 1054 02       		.byte	0x2
 3561 1055 91       		.byte	0x91
 3562 1056 68       		.sleb128 -24
 3563 1057 1D       		.uleb128 0x1d
 3564 1058 8A020000 		.4byte	.LVL21
 3565 105c 5A120000 		.4byte	0x125a
 3566 1060 71100000 		.4byte	0x1071
 3567 1064 1E       		.uleb128 0x1e
 3568 1065 01       		.byte	0x1
 3569 1066 50       		.byte	0x50
 3570 1067 03       		.byte	0x3
 3571 1068 0A       		.byte	0xa
 3572 1069 0440     		.2byte	0x4004
 3573 106b 1E       		.uleb128 0x1e
 3574 106c 01       		.byte	0x1
 3575 106d 51       		.byte	0x51
 3576 106e 01       		.byte	0x1
 3577 106f 31       		.byte	0x31
 3578 1070 00       		.byte	0
 3579 1071 1D       		.uleb128 0x1d
 3580 1072 A4020000 		.4byte	.LVL22
 3581 1076 69120000 		.4byte	0x1269
 3582 107a 8B100000 		.4byte	0x108b
 3583 107e 1E       		.uleb128 0x1e
 3584 107f 01       		.byte	0x1
 3585 1080 50       		.byte	0x50
 3586 1081 02       		.byte	0x2
 3587 1082 74       		.byte	0x74
 3588 1083 00       		.sleb128 0
 3589 1084 1E       		.uleb128 0x1e
 3590 1085 01       		.byte	0x1
 3591 1086 51       		.byte	0x51
 3592 1087 02       		.byte	0x2
ARM GAS  /tmp/cc4kJ8mf.s 			page 72


 3593 1088 91       		.byte	0x91
 3594 1089 64       		.sleb128 -28
 3595 108a 00       		.byte	0
 3596 108b 1D       		.uleb128 0x1d
 3597 108c BC020000 		.4byte	.LVL23
 3598 1090 69120000 		.4byte	0x1269
 3599 1094 A5100000 		.4byte	0x10a5
 3600 1098 1E       		.uleb128 0x1e
 3601 1099 01       		.byte	0x1
 3602 109a 50       		.byte	0x50
 3603 109b 02       		.byte	0x2
 3604 109c 74       		.byte	0x74
 3605 109d 00       		.sleb128 0
 3606 109e 1E       		.uleb128 0x1e
 3607 109f 01       		.byte	0x1
 3608 10a0 51       		.byte	0x51
 3609 10a1 02       		.byte	0x2
 3610 10a2 91       		.byte	0x91
 3611 10a3 64       		.sleb128 -28
 3612 10a4 00       		.byte	0
 3613 10a5 1D       		.uleb128 0x1d
 3614 10a6 DC020000 		.4byte	.LVL24
 3615 10aa 78120000 		.4byte	0x1278
 3616 10ae BF100000 		.4byte	0x10bf
 3617 10b2 1E       		.uleb128 0x1e
 3618 10b3 01       		.byte	0x1
 3619 10b4 50       		.byte	0x50
 3620 10b5 02       		.byte	0x2
 3621 10b6 74       		.byte	0x74
 3622 10b7 00       		.sleb128 0
 3623 10b8 1E       		.uleb128 0x1e
 3624 10b9 01       		.byte	0x1
 3625 10ba 51       		.byte	0x51
 3626 10bb 02       		.byte	0x2
 3627 10bc 91       		.byte	0x91
 3628 10bd 68       		.sleb128 -24
 3629 10be 00       		.byte	0
 3630 10bf 22       		.uleb128 0x22
 3631 10c0 E4020000 		.4byte	.LVL25
 3632 10c4 87120000 		.4byte	0x1287
 3633 10c8 1E       		.uleb128 0x1e
 3634 10c9 01       		.byte	0x1
 3635 10ca 50       		.byte	0x50
 3636 10cb 02       		.byte	0x2
 3637 10cc 74       		.byte	0x74
 3638 10cd 00       		.sleb128 0
 3639 10ce 1E       		.uleb128 0x1e
 3640 10cf 01       		.byte	0x1
 3641 10d0 51       		.byte	0x51
 3642 10d1 01       		.byte	0x1
 3643 10d2 31       		.byte	0x31
 3644 10d3 00       		.byte	0
 3645 10d4 00       		.byte	0
 3646 10d5 25       		.uleb128 0x25
 3647 10d6 01       		.byte	0x1
 3648 10d7 05080000 		.4byte	.LASF190
 3649 10db 02       		.byte	0x2
ARM GAS  /tmp/cc4kJ8mf.s 			page 73


 3650 10dc 7C       		.byte	0x7c
 3651 10dd 06       		.byte	0x6
 3652 10de 01       		.byte	0x1
 3653 10df 60020000 		.4byte	.LFB39
 3654 10e3 7C020000 		.4byte	.LFE39
 3655 10e7 02       		.byte	0x2
 3656 10e8 7D       		.byte	0x7d
 3657 10e9 00       		.sleb128 0
 3658 10ea 01       		.byte	0x1
 3659 10eb 04110000 		.4byte	0x1104
 3660 10ef 21       		.uleb128 0x21
 3661 10f0 5F050000 		.4byte	.LASF191
 3662 10f4 02       		.byte	0x2
 3663 10f5 7C       		.byte	0x7c
 3664 10f6 22       		.byte	0x22
 3665 10f7 61020000 		.4byte	0x261
 3666 10fb 14020000 		.4byte	.LLST9
 3667 10ff 10020000 		.4byte	.LVUS9
 3668 1103 00       		.byte	0
 3669 1104 25       		.uleb128 0x25
 3670 1105 01       		.byte	0x1
 3671 1106 2F060000 		.4byte	.LASF192
 3672 110a 02       		.byte	0x2
 3673 110b 74       		.byte	0x74
 3674 110c 06       		.byte	0x6
 3675 110d 01       		.byte	0x1
 3676 110e 48020000 		.4byte	.LFB38
 3677 1112 60020000 		.4byte	.LFE38
 3678 1116 02       		.byte	0x2
 3679 1117 7D       		.byte	0x7d
 3680 1118 00       		.sleb128 0
 3681 1119 01       		.byte	0x1
 3682 111a 33110000 		.4byte	0x1133
 3683 111e 21       		.uleb128 0x21
 3684 111f 5F050000 		.4byte	.LASF191
 3685 1123 02       		.byte	0x2
 3686 1124 74       		.byte	0x74
 3687 1125 21       		.byte	0x21
 3688 1126 61020000 		.4byte	0x261
 3689 112a 39020000 		.4byte	.LLST8
 3690 112e 35020000 		.4byte	.LVUS8
 3691 1132 00       		.byte	0
 3692 1133 26       		.uleb128 0x26
 3693 1134 01       		.byte	0x1
 3694 1135 16030000 		.4byte	.LASF194
 3695 1139 02       		.byte	0x2
 3696 113a 67       		.byte	0x67
 3697 113b 06       		.byte	0x6
 3698 113c 01       		.byte	0x1
 3699 113d 20020000 		.4byte	.LFB37
 3700 1141 48020000 		.4byte	.LFE37
 3701 1145 02       		.byte	0x2
 3702 1146 7D       		.byte	0x7d
 3703 1147 00       		.sleb128 0
 3704 1148 01       		.byte	0x1
 3705 1149 24       		.uleb128 0x24
 3706 114a 01       		.byte	0x1
ARM GAS  /tmp/cc4kJ8mf.s 			page 74


 3707 114b 14060000 		.4byte	.LASF193
 3708 114f 02       		.byte	0x2
 3709 1150 60       		.byte	0x60
 3710 1151 06       		.byte	0x6
 3711 1152 01       		.byte	0x1
 3712 1153 F0010000 		.4byte	.LFB36
 3713 1157 20020000 		.4byte	.LFE36
 3714 115b 5A020000 		.4byte	.LLST7
 3715 115f 01       		.byte	0x1
 3716 1160 71110000 		.4byte	0x1171
 3717 1164 27       		.uleb128 0x27
 3718 1165 5400     		.ascii	"T\000"
 3719 1167 02       		.byte	0x2
 3720 1168 60       		.byte	0x60
 3721 1169 17       		.byte	0x17
 3722 116a BA030000 		.4byte	0x3ba
 3723 116e 01       		.byte	0x1
 3724 116f 50       		.byte	0x50
 3725 1170 00       		.byte	0
 3726 1171 26       		.uleb128 0x26
 3727 1172 01       		.byte	0x1
 3728 1173 38070000 		.4byte	.LASF195
 3729 1177 02       		.byte	0x2
 3730 1178 3E       		.byte	0x3e
 3731 1179 06       		.byte	0x6
 3732 117a 01       		.byte	0x1
 3733 117b 7C010000 		.4byte	.LFB35
 3734 117f F0010000 		.4byte	.LFE35
 3735 1183 02       		.byte	0x2
 3736 1184 7D       		.byte	0x7d
 3737 1185 00       		.sleb128 0
 3738 1186 01       		.byte	0x1
 3739 1187 28       		.uleb128 0x28
 3740 1188 01       		.byte	0x1
 3741 1189 E3070000 		.4byte	.LASF218
 3742 118d 02       		.byte	0x2
 3743 118e 0E       		.byte	0xe
 3744 118f 06       		.byte	0x6
 3745 1190 F0000000 		.4byte	.LFB34
 3746 1194 7C010000 		.4byte	.LFE34
 3747 1198 02       		.byte	0x2
 3748 1199 7D       		.byte	0x7d
 3749 119a 00       		.sleb128 0
 3750 119b 01       		.byte	0x1
 3751 119c 29       		.uleb128 0x29
 3752 119d 01       		.byte	0x1
 3753 119e 01       		.byte	0x1
 3754 119f 50030000 		.4byte	.LASF196
 3755 11a3 50030000 		.4byte	.LASF196
 3756 11a7 07       		.byte	0x7
 3757 11a8 D805     		.2byte	0x5d8
 3758 11aa 10       		.byte	0x10
 3759 11ab 29       		.uleb128 0x29
 3760 11ac 01       		.byte	0x1
 3761 11ad 01       		.byte	0x1
 3762 11ae F8050000 		.4byte	.LASF197
 3763 11b2 F8050000 		.4byte	.LASF197
ARM GAS  /tmp/cc4kJ8mf.s 			page 75


 3764 11b6 0C       		.byte	0xc
 3765 11b7 4A01     		.2byte	0x14a
 3766 11b9 0D       		.byte	0xd
 3767 11ba 29       		.uleb128 0x29
 3768 11bb 01       		.byte	0x1
 3769 11bc 01       		.byte	0x1
 3770 11bd 37030000 		.4byte	.LASF198
 3771 11c1 37030000 		.4byte	.LASF198
 3772 11c5 0C       		.byte	0xc
 3773 11c6 9704     		.2byte	0x497
 3774 11c8 06       		.byte	0x6
 3775 11c9 29       		.uleb128 0x29
 3776 11ca 01       		.byte	0x1
 3777 11cb 01       		.byte	0x1
 3778 11cc F3030000 		.4byte	.LASF199
 3779 11d0 F3030000 		.4byte	.LASF199
 3780 11d4 07       		.byte	0x7
 3781 11d5 8A02     		.2byte	0x28a
 3782 11d7 0C       		.byte	0xc
 3783 11d8 29       		.uleb128 0x29
 3784 11d9 01       		.byte	0x1
 3785 11da 01       		.byte	0x1
 3786 11db 6E010000 		.4byte	.LASF200
 3787 11df 6E010000 		.4byte	.LASF200
 3788 11e3 0C       		.byte	0xc
 3789 11e4 F602     		.2byte	0x2f6
 3790 11e6 06       		.byte	0x6
 3791 11e7 29       		.uleb128 0x29
 3792 11e8 01       		.byte	0x1
 3793 11e9 01       		.byte	0x1
 3794 11ea 3F040000 		.4byte	.LASF201
 3795 11ee 3F040000 		.4byte	.LASF201
 3796 11f2 07       		.byte	0x7
 3797 11f3 6403     		.2byte	0x364
 3798 11f5 0C       		.byte	0xc
 3799 11f6 2A       		.uleb128 0x2a
 3800 11f7 01       		.byte	0x1
 3801 11f8 01       		.byte	0x1
 3802 11f9 FC000000 		.4byte	.LASF202
 3803 11fd FC000000 		.4byte	.LASF202
 3804 1201 0D       		.byte	0xd
 3805 1202 E3       		.byte	0xe3
 3806 1203 08       		.byte	0x8
 3807 1204 2A       		.uleb128 0x2a
 3808 1205 01       		.byte	0x1
 3809 1206 01       		.byte	0x1
 3810 1207 5D090000 		.4byte	.LASF203
 3811 120b 5D090000 		.4byte	.LASF203
 3812 120f 0E       		.byte	0xe
 3813 1210 2F       		.byte	0x2f
 3814 1211 06       		.byte	0x6
 3815 1212 2A       		.uleb128 0x2a
 3816 1213 01       		.byte	0x1
 3817 1214 01       		.byte	0x1
 3818 1215 A9000000 		.4byte	.LASF204
 3819 1219 A9000000 		.4byte	.LASF204
 3820 121d 0E       		.byte	0xe
ARM GAS  /tmp/cc4kJ8mf.s 			page 76


 3821 121e 2E       		.byte	0x2e
 3822 121f 06       		.byte	0x6
 3823 1220 2A       		.uleb128 0x2a
 3824 1221 01       		.byte	0x1
 3825 1222 01       		.byte	0x1
 3826 1223 64010000 		.4byte	.LASF205
 3827 1227 64010000 		.4byte	.LASF205
 3828 122b 0E       		.byte	0xe
 3829 122c 2C       		.byte	0x2c
 3830 122d 06       		.byte	0x6
 3831 122e 2A       		.uleb128 0x2a
 3832 122f 01       		.byte	0x1
 3833 1230 01       		.byte	0x1
 3834 1231 DF080000 		.4byte	.LASF206
 3835 1235 DF080000 		.4byte	.LASF206
 3836 1239 0E       		.byte	0xe
 3837 123a 2A       		.byte	0x2a
 3838 123b 06       		.byte	0x6
 3839 123c 29       		.uleb128 0x29
 3840 123d 01       		.byte	0x1
 3841 123e 01       		.byte	0x1
 3842 123f D0080000 		.4byte	.LASF207
 3843 1243 D0080000 		.4byte	.LASF207
 3844 1247 0B       		.byte	0xb
 3845 1248 7A01     		.2byte	0x17a
 3846 124a 06       		.byte	0x6
 3847 124b 29       		.uleb128 0x29
 3848 124c 01       		.byte	0x1
 3849 124d 01       		.byte	0x1
 3850 124e 33010000 		.4byte	.LASF208
 3851 1252 33010000 		.4byte	.LASF208
 3852 1256 0B       		.byte	0xb
 3853 1257 8601     		.2byte	0x186
 3854 1259 0C       		.byte	0xc
 3855 125a 29       		.uleb128 0x29
 3856 125b 01       		.byte	0x1
 3857 125c 01       		.byte	0x1
 3858 125d 4B000000 		.4byte	.LASF209
 3859 1261 4B000000 		.4byte	.LASF209
 3860 1265 0F       		.byte	0xf
 3861 1266 B502     		.2byte	0x2b5
 3862 1268 06       		.byte	0x6
 3863 1269 29       		.uleb128 0x29
 3864 126a 01       		.byte	0x1
 3865 126b 01       		.byte	0x1
 3866 126c D5050000 		.4byte	.LASF210
 3867 1270 D5050000 		.4byte	.LASF210
 3868 1274 0A       		.byte	0xa
 3869 1275 5F01     		.2byte	0x15f
 3870 1277 06       		.byte	0x6
 3871 1278 29       		.uleb128 0x29
 3872 1279 01       		.byte	0x1
 3873 127a 01       		.byte	0x1
 3874 127b 64050000 		.4byte	.LASF211
 3875 127f 64050000 		.4byte	.LASF211
 3876 1283 0B       		.byte	0xb
 3877 1284 6E01     		.2byte	0x16e
ARM GAS  /tmp/cc4kJ8mf.s 			page 77


 3878 1286 06       		.byte	0x6
 3879 1287 29       		.uleb128 0x29
 3880 1288 01       		.byte	0x1
 3881 1289 01       		.byte	0x1
 3882 128a B5080000 		.4byte	.LASF212
 3883 128e B5080000 		.4byte	.LASF212
 3884 1292 0B       		.byte	0xb
 3885 1293 7201     		.2byte	0x172
 3886 1295 06       		.byte	0x6
 3887 1296 00       		.byte	0
 3888              		.section	.debug_abbrev,"",%progbits
 3889              	.Ldebug_abbrev0:
 3890 0000 01       		.uleb128 0x1
 3891 0001 11       		.uleb128 0x11
 3892 0002 01       		.byte	0x1
 3893 0003 25       		.uleb128 0x25
 3894 0004 0E       		.uleb128 0xe
 3895 0005 13       		.uleb128 0x13
 3896 0006 0B       		.uleb128 0xb
 3897 0007 03       		.uleb128 0x3
 3898 0008 0E       		.uleb128 0xe
 3899 0009 1B       		.uleb128 0x1b
 3900 000a 0E       		.uleb128 0xe
 3901 000b 55       		.uleb128 0x55
 3902 000c 06       		.uleb128 0x6
 3903 000d 11       		.uleb128 0x11
 3904 000e 01       		.uleb128 0x1
 3905 000f 52       		.uleb128 0x52
 3906 0010 01       		.uleb128 0x1
 3907 0011 10       		.uleb128 0x10
 3908 0012 06       		.uleb128 0x6
 3909 0013 00       		.byte	0
 3910 0014 00       		.byte	0
 3911 0015 02       		.uleb128 0x2
 3912 0016 24       		.uleb128 0x24
 3913 0017 00       		.byte	0
 3914 0018 0B       		.uleb128 0xb
 3915 0019 0B       		.uleb128 0xb
 3916 001a 3E       		.uleb128 0x3e
 3917 001b 0B       		.uleb128 0xb
 3918 001c 03       		.uleb128 0x3
 3919 001d 08       		.uleb128 0x8
 3920 001e 00       		.byte	0
 3921 001f 00       		.byte	0
 3922 0020 03       		.uleb128 0x3
 3923 0021 24       		.uleb128 0x24
 3924 0022 00       		.byte	0
 3925 0023 0B       		.uleb128 0xb
 3926 0024 0B       		.uleb128 0xb
 3927 0025 3E       		.uleb128 0x3e
 3928 0026 0B       		.uleb128 0xb
 3929 0027 03       		.uleb128 0x3
 3930 0028 0E       		.uleb128 0xe
 3931 0029 00       		.byte	0
 3932 002a 00       		.byte	0
 3933 002b 04       		.uleb128 0x4
 3934 002c 16       		.uleb128 0x16
ARM GAS  /tmp/cc4kJ8mf.s 			page 78


 3935 002d 00       		.byte	0
 3936 002e 03       		.uleb128 0x3
 3937 002f 0E       		.uleb128 0xe
 3938 0030 3A       		.uleb128 0x3a
 3939 0031 0B       		.uleb128 0xb
 3940 0032 3B       		.uleb128 0x3b
 3941 0033 0B       		.uleb128 0xb
 3942 0034 39       		.uleb128 0x39
 3943 0035 0B       		.uleb128 0xb
 3944 0036 49       		.uleb128 0x49
 3945 0037 13       		.uleb128 0x13
 3946 0038 00       		.byte	0
 3947 0039 00       		.byte	0
 3948 003a 05       		.uleb128 0x5
 3949 003b 35       		.uleb128 0x35
 3950 003c 00       		.byte	0
 3951 003d 49       		.uleb128 0x49
 3952 003e 13       		.uleb128 0x13
 3953 003f 00       		.byte	0
 3954 0040 00       		.byte	0
 3955 0041 06       		.uleb128 0x6
 3956 0042 0F       		.uleb128 0xf
 3957 0043 00       		.byte	0
 3958 0044 0B       		.uleb128 0xb
 3959 0045 0B       		.uleb128 0xb
 3960 0046 00       		.byte	0
 3961 0047 00       		.byte	0
 3962 0048 07       		.uleb128 0x7
 3963 0049 0F       		.uleb128 0xf
 3964 004a 00       		.byte	0
 3965 004b 0B       		.uleb128 0xb
 3966 004c 0B       		.uleb128 0xb
 3967 004d 49       		.uleb128 0x49
 3968 004e 13       		.uleb128 0x13
 3969 004f 00       		.byte	0
 3970 0050 00       		.byte	0
 3971 0051 08       		.uleb128 0x8
 3972 0052 13       		.uleb128 0x13
 3973 0053 00       		.byte	0
 3974 0054 03       		.uleb128 0x3
 3975 0055 0E       		.uleb128 0xe
 3976 0056 3C       		.uleb128 0x3c
 3977 0057 0C       		.uleb128 0xc
 3978 0058 00       		.byte	0
 3979 0059 00       		.byte	0
 3980 005a 09       		.uleb128 0x9
 3981 005b 01       		.uleb128 0x1
 3982 005c 01       		.byte	0x1
 3983 005d 49       		.uleb128 0x49
 3984 005e 13       		.uleb128 0x13
 3985 005f 01       		.uleb128 0x1
 3986 0060 13       		.uleb128 0x13
 3987 0061 00       		.byte	0
 3988 0062 00       		.byte	0
 3989 0063 0A       		.uleb128 0xa
 3990 0064 21       		.uleb128 0x21
 3991 0065 00       		.byte	0
ARM GAS  /tmp/cc4kJ8mf.s 			page 79


 3992 0066 49       		.uleb128 0x49
 3993 0067 13       		.uleb128 0x13
 3994 0068 2F       		.uleb128 0x2f
 3995 0069 0B       		.uleb128 0xb
 3996 006a 00       		.byte	0
 3997 006b 00       		.byte	0
 3998 006c 0B       		.uleb128 0xb
 3999 006d 04       		.uleb128 0x4
 4000 006e 01       		.byte	0x1
 4001 006f 03       		.uleb128 0x3
 4002 0070 0E       		.uleb128 0xe
 4003 0071 3E       		.uleb128 0x3e
 4004 0072 0B       		.uleb128 0xb
 4005 0073 0B       		.uleb128 0xb
 4006 0074 0B       		.uleb128 0xb
 4007 0075 49       		.uleb128 0x49
 4008 0076 13       		.uleb128 0x13
 4009 0077 3A       		.uleb128 0x3a
 4010 0078 0B       		.uleb128 0xb
 4011 0079 3B       		.uleb128 0x3b
 4012 007a 0B       		.uleb128 0xb
 4013 007b 39       		.uleb128 0x39
 4014 007c 0B       		.uleb128 0xb
 4015 007d 01       		.uleb128 0x1
 4016 007e 13       		.uleb128 0x13
 4017 007f 00       		.byte	0
 4018 0080 00       		.byte	0
 4019 0081 0C       		.uleb128 0xc
 4020 0082 28       		.uleb128 0x28
 4021 0083 00       		.byte	0
 4022 0084 03       		.uleb128 0x3
 4023 0085 0E       		.uleb128 0xe
 4024 0086 1C       		.uleb128 0x1c
 4025 0087 0D       		.uleb128 0xd
 4026 0088 00       		.byte	0
 4027 0089 00       		.byte	0
 4028 008a 0D       		.uleb128 0xd
 4029 008b 28       		.uleb128 0x28
 4030 008c 00       		.byte	0
 4031 008d 03       		.uleb128 0x3
 4032 008e 0E       		.uleb128 0xe
 4033 008f 1C       		.uleb128 0x1c
 4034 0090 0B       		.uleb128 0xb
 4035 0091 00       		.byte	0
 4036 0092 00       		.byte	0
 4037 0093 0E       		.uleb128 0xe
 4038 0094 16       		.uleb128 0x16
 4039 0095 00       		.byte	0
 4040 0096 03       		.uleb128 0x3
 4041 0097 0E       		.uleb128 0xe
 4042 0098 3A       		.uleb128 0x3a
 4043 0099 0B       		.uleb128 0xb
 4044 009a 3B       		.uleb128 0x3b
 4045 009b 05       		.uleb128 0x5
 4046 009c 39       		.uleb128 0x39
 4047 009d 0B       		.uleb128 0xb
 4048 009e 49       		.uleb128 0x49
ARM GAS  /tmp/cc4kJ8mf.s 			page 80


 4049 009f 13       		.uleb128 0x13
 4050 00a0 00       		.byte	0
 4051 00a1 00       		.byte	0
 4052 00a2 0F       		.uleb128 0xf
 4053 00a3 13       		.uleb128 0x13
 4054 00a4 01       		.byte	0x1
 4055 00a5 0B       		.uleb128 0xb
 4056 00a6 05       		.uleb128 0x5
 4057 00a7 3A       		.uleb128 0x3a
 4058 00a8 0B       		.uleb128 0xb
 4059 00a9 3B       		.uleb128 0x3b
 4060 00aa 0B       		.uleb128 0xb
 4061 00ab 39       		.uleb128 0x39
 4062 00ac 0B       		.uleb128 0xb
 4063 00ad 01       		.uleb128 0x1
 4064 00ae 13       		.uleb128 0x13
 4065 00af 00       		.byte	0
 4066 00b0 00       		.byte	0
 4067 00b1 10       		.uleb128 0x10
 4068 00b2 0D       		.uleb128 0xd
 4069 00b3 00       		.byte	0
 4070 00b4 03       		.uleb128 0x3
 4071 00b5 0E       		.uleb128 0xe
 4072 00b6 3A       		.uleb128 0x3a
 4073 00b7 0B       		.uleb128 0xb
 4074 00b8 3B       		.uleb128 0x3b
 4075 00b9 0B       		.uleb128 0xb
 4076 00ba 39       		.uleb128 0x39
 4077 00bb 0B       		.uleb128 0xb
 4078 00bc 49       		.uleb128 0x49
 4079 00bd 13       		.uleb128 0x13
 4080 00be 38       		.uleb128 0x38
 4081 00bf 0A       		.uleb128 0xa
 4082 00c0 00       		.byte	0
 4083 00c1 00       		.byte	0
 4084 00c2 11       		.uleb128 0x11
 4085 00c3 0D       		.uleb128 0xd
 4086 00c4 00       		.byte	0
 4087 00c5 03       		.uleb128 0x3
 4088 00c6 08       		.uleb128 0x8
 4089 00c7 3A       		.uleb128 0x3a
 4090 00c8 0B       		.uleb128 0xb
 4091 00c9 3B       		.uleb128 0x3b
 4092 00ca 0B       		.uleb128 0xb
 4093 00cb 39       		.uleb128 0x39
 4094 00cc 0B       		.uleb128 0xb
 4095 00cd 49       		.uleb128 0x49
 4096 00ce 13       		.uleb128 0x13
 4097 00cf 38       		.uleb128 0x38
 4098 00d0 0A       		.uleb128 0xa
 4099 00d1 00       		.byte	0
 4100 00d2 00       		.byte	0
 4101 00d3 12       		.uleb128 0x12
 4102 00d4 21       		.uleb128 0x21
 4103 00d5 00       		.byte	0
 4104 00d6 49       		.uleb128 0x49
 4105 00d7 13       		.uleb128 0x13
ARM GAS  /tmp/cc4kJ8mf.s 			page 81


 4106 00d8 2F       		.uleb128 0x2f
 4107 00d9 05       		.uleb128 0x5
 4108 00da 00       		.byte	0
 4109 00db 00       		.byte	0
 4110 00dc 13       		.uleb128 0x13
 4111 00dd 16       		.uleb128 0x16
 4112 00de 00       		.byte	0
 4113 00df 03       		.uleb128 0x3
 4114 00e0 08       		.uleb128 0x8
 4115 00e1 3A       		.uleb128 0x3a
 4116 00e2 0B       		.uleb128 0xb
 4117 00e3 3B       		.uleb128 0x3b
 4118 00e4 05       		.uleb128 0x5
 4119 00e5 39       		.uleb128 0x39
 4120 00e6 0B       		.uleb128 0xb
 4121 00e7 49       		.uleb128 0x49
 4122 00e8 13       		.uleb128 0x13
 4123 00e9 00       		.byte	0
 4124 00ea 00       		.byte	0
 4125 00eb 14       		.uleb128 0x14
 4126 00ec 04       		.uleb128 0x4
 4127 00ed 01       		.byte	0x1
 4128 00ee 3E       		.uleb128 0x3e
 4129 00ef 0B       		.uleb128 0xb
 4130 00f0 0B       		.uleb128 0xb
 4131 00f1 0B       		.uleb128 0xb
 4132 00f2 49       		.uleb128 0x49
 4133 00f3 13       		.uleb128 0x13
 4134 00f4 3A       		.uleb128 0x3a
 4135 00f5 0B       		.uleb128 0xb
 4136 00f6 3B       		.uleb128 0x3b
 4137 00f7 05       		.uleb128 0x5
 4138 00f8 39       		.uleb128 0x39
 4139 00f9 0B       		.uleb128 0xb
 4140 00fa 01       		.uleb128 0x1
 4141 00fb 13       		.uleb128 0x13
 4142 00fc 00       		.byte	0
 4143 00fd 00       		.byte	0
 4144 00fe 15       		.uleb128 0x15
 4145 00ff 28       		.uleb128 0x28
 4146 0100 00       		.byte	0
 4147 0101 03       		.uleb128 0x3
 4148 0102 08       		.uleb128 0x8
 4149 0103 1C       		.uleb128 0x1c
 4150 0104 0B       		.uleb128 0xb
 4151 0105 00       		.byte	0
 4152 0106 00       		.byte	0
 4153 0107 16       		.uleb128 0x16
 4154 0108 13       		.uleb128 0x13
 4155 0109 01       		.byte	0x1
 4156 010a 0B       		.uleb128 0xb
 4157 010b 0B       		.uleb128 0xb
 4158 010c 3A       		.uleb128 0x3a
 4159 010d 0B       		.uleb128 0xb
 4160 010e 3B       		.uleb128 0x3b
 4161 010f 05       		.uleb128 0x5
 4162 0110 39       		.uleb128 0x39
ARM GAS  /tmp/cc4kJ8mf.s 			page 82


 4163 0111 0B       		.uleb128 0xb
 4164 0112 01       		.uleb128 0x1
 4165 0113 13       		.uleb128 0x13
 4166 0114 00       		.byte	0
 4167 0115 00       		.byte	0
 4168 0116 17       		.uleb128 0x17
 4169 0117 0D       		.uleb128 0xd
 4170 0118 00       		.byte	0
 4171 0119 03       		.uleb128 0x3
 4172 011a 08       		.uleb128 0x8
 4173 011b 3A       		.uleb128 0x3a
 4174 011c 0B       		.uleb128 0xb
 4175 011d 3B       		.uleb128 0x3b
 4176 011e 05       		.uleb128 0x5
 4177 011f 39       		.uleb128 0x39
 4178 0120 0B       		.uleb128 0xb
 4179 0121 49       		.uleb128 0x49
 4180 0122 13       		.uleb128 0x13
 4181 0123 38       		.uleb128 0x38
 4182 0124 0A       		.uleb128 0xa
 4183 0125 00       		.byte	0
 4184 0126 00       		.byte	0
 4185 0127 18       		.uleb128 0x18
 4186 0128 0D       		.uleb128 0xd
 4187 0129 00       		.byte	0
 4188 012a 03       		.uleb128 0x3
 4189 012b 0E       		.uleb128 0xe
 4190 012c 3A       		.uleb128 0x3a
 4191 012d 0B       		.uleb128 0xb
 4192 012e 3B       		.uleb128 0x3b
 4193 012f 05       		.uleb128 0x5
 4194 0130 39       		.uleb128 0x39
 4195 0131 0B       		.uleb128 0xb
 4196 0132 49       		.uleb128 0x49
 4197 0133 13       		.uleb128 0x13
 4198 0134 38       		.uleb128 0x38
 4199 0135 0A       		.uleb128 0xa
 4200 0136 00       		.byte	0
 4201 0137 00       		.byte	0
 4202 0138 19       		.uleb128 0x19
 4203 0139 04       		.uleb128 0x4
 4204 013a 01       		.byte	0x1
 4205 013b 3E       		.uleb128 0x3e
 4206 013c 0B       		.uleb128 0xb
 4207 013d 0B       		.uleb128 0xb
 4208 013e 0B       		.uleb128 0xb
 4209 013f 49       		.uleb128 0x49
 4210 0140 13       		.uleb128 0x13
 4211 0141 3A       		.uleb128 0x3a
 4212 0142 0B       		.uleb128 0xb
 4213 0143 3B       		.uleb128 0x3b
 4214 0144 0B       		.uleb128 0xb
 4215 0145 39       		.uleb128 0x39
 4216 0146 0B       		.uleb128 0xb
 4217 0147 01       		.uleb128 0x1
 4218 0148 13       		.uleb128 0x13
 4219 0149 00       		.byte	0
ARM GAS  /tmp/cc4kJ8mf.s 			page 83


 4220 014a 00       		.byte	0
 4221 014b 1A       		.uleb128 0x1a
 4222 014c 13       		.uleb128 0x13
 4223 014d 01       		.byte	0x1
 4224 014e 0B       		.uleb128 0xb
 4225 014f 0B       		.uleb128 0xb
 4226 0150 3A       		.uleb128 0x3a
 4227 0151 0B       		.uleb128 0xb
 4228 0152 3B       		.uleb128 0x3b
 4229 0153 0B       		.uleb128 0xb
 4230 0154 39       		.uleb128 0x39
 4231 0155 0B       		.uleb128 0xb
 4232 0156 01       		.uleb128 0x1
 4233 0157 13       		.uleb128 0x13
 4234 0158 00       		.byte	0
 4235 0159 00       		.byte	0
 4236 015a 1B       		.uleb128 0x1b
 4237 015b 34       		.uleb128 0x34
 4238 015c 00       		.byte	0
 4239 015d 03       		.uleb128 0x3
 4240 015e 0E       		.uleb128 0xe
 4241 015f 3A       		.uleb128 0x3a
 4242 0160 0B       		.uleb128 0xb
 4243 0161 3B       		.uleb128 0x3b
 4244 0162 0B       		.uleb128 0xb
 4245 0163 39       		.uleb128 0x39
 4246 0164 0B       		.uleb128 0xb
 4247 0165 49       		.uleb128 0x49
 4248 0166 13       		.uleb128 0x13
 4249 0167 02       		.uleb128 0x2
 4250 0168 0A       		.uleb128 0xa
 4251 0169 00       		.byte	0
 4252 016a 00       		.byte	0
 4253 016b 1C       		.uleb128 0x1c
 4254 016c 2E       		.uleb128 0x2e
 4255 016d 01       		.byte	0x1
 4256 016e 3F       		.uleb128 0x3f
 4257 016f 0C       		.uleb128 0xc
 4258 0170 03       		.uleb128 0x3
 4259 0171 0E       		.uleb128 0xe
 4260 0172 3A       		.uleb128 0x3a
 4261 0173 0B       		.uleb128 0xb
 4262 0174 3B       		.uleb128 0x3b
 4263 0175 0B       		.uleb128 0xb
 4264 0176 39       		.uleb128 0x39
 4265 0177 0B       		.uleb128 0xb
 4266 0178 27       		.uleb128 0x27
 4267 0179 0C       		.uleb128 0xc
 4268 017a 49       		.uleb128 0x49
 4269 017b 13       		.uleb128 0x13
 4270 017c 11       		.uleb128 0x11
 4271 017d 01       		.uleb128 0x1
 4272 017e 12       		.uleb128 0x12
 4273 017f 01       		.uleb128 0x1
 4274 0180 40       		.uleb128 0x40
 4275 0181 06       		.uleb128 0x6
 4276 0182 9742     		.uleb128 0x2117
ARM GAS  /tmp/cc4kJ8mf.s 			page 84


 4277 0184 0C       		.uleb128 0xc
 4278 0185 01       		.uleb128 0x1
 4279 0186 13       		.uleb128 0x13
 4280 0187 00       		.byte	0
 4281 0188 00       		.byte	0
 4282 0189 1D       		.uleb128 0x1d
 4283 018a 898201   		.uleb128 0x4109
 4284 018d 01       		.byte	0x1
 4285 018e 11       		.uleb128 0x11
 4286 018f 01       		.uleb128 0x1
 4287 0190 31       		.uleb128 0x31
 4288 0191 13       		.uleb128 0x13
 4289 0192 01       		.uleb128 0x1
 4290 0193 13       		.uleb128 0x13
 4291 0194 00       		.byte	0
 4292 0195 00       		.byte	0
 4293 0196 1E       		.uleb128 0x1e
 4294 0197 8A8201   		.uleb128 0x410a
 4295 019a 00       		.byte	0
 4296 019b 02       		.uleb128 0x2
 4297 019c 0A       		.uleb128 0xa
 4298 019d 9142     		.uleb128 0x2111
 4299 019f 0A       		.uleb128 0xa
 4300 01a0 00       		.byte	0
 4301 01a1 00       		.byte	0
 4302 01a2 1F       		.uleb128 0x1f
 4303 01a3 898201   		.uleb128 0x4109
 4304 01a6 00       		.byte	0
 4305 01a7 11       		.uleb128 0x11
 4306 01a8 01       		.uleb128 0x1
 4307 01a9 31       		.uleb128 0x31
 4308 01aa 13       		.uleb128 0x13
 4309 01ab 00       		.byte	0
 4310 01ac 00       		.byte	0
 4311 01ad 20       		.uleb128 0x20
 4312 01ae 2E       		.uleb128 0x2e
 4313 01af 01       		.byte	0x1
 4314 01b0 03       		.uleb128 0x3
 4315 01b1 0E       		.uleb128 0xe
 4316 01b2 3A       		.uleb128 0x3a
 4317 01b3 0B       		.uleb128 0xb
 4318 01b4 3B       		.uleb128 0x3b
 4319 01b5 0B       		.uleb128 0xb
 4320 01b6 39       		.uleb128 0x39
 4321 01b7 0B       		.uleb128 0xb
 4322 01b8 27       		.uleb128 0x27
 4323 01b9 0C       		.uleb128 0xc
 4324 01ba 11       		.uleb128 0x11
 4325 01bb 01       		.uleb128 0x1
 4326 01bc 12       		.uleb128 0x12
 4327 01bd 01       		.uleb128 0x1
 4328 01be 40       		.uleb128 0x40
 4329 01bf 06       		.uleb128 0x6
 4330 01c0 9742     		.uleb128 0x2117
 4331 01c2 0C       		.uleb128 0xc
 4332 01c3 01       		.uleb128 0x1
 4333 01c4 13       		.uleb128 0x13
ARM GAS  /tmp/cc4kJ8mf.s 			page 85


 4334 01c5 00       		.byte	0
 4335 01c6 00       		.byte	0
 4336 01c7 21       		.uleb128 0x21
 4337 01c8 05       		.uleb128 0x5
 4338 01c9 00       		.byte	0
 4339 01ca 03       		.uleb128 0x3
 4340 01cb 0E       		.uleb128 0xe
 4341 01cc 3A       		.uleb128 0x3a
 4342 01cd 0B       		.uleb128 0xb
 4343 01ce 3B       		.uleb128 0x3b
 4344 01cf 0B       		.uleb128 0xb
 4345 01d0 39       		.uleb128 0x39
 4346 01d1 0B       		.uleb128 0xb
 4347 01d2 49       		.uleb128 0x49
 4348 01d3 13       		.uleb128 0x13
 4349 01d4 02       		.uleb128 0x2
 4350 01d5 06       		.uleb128 0x6
 4351 01d6 B742     		.uleb128 0x2137
 4352 01d8 06       		.uleb128 0x6
 4353 01d9 00       		.byte	0
 4354 01da 00       		.byte	0
 4355 01db 22       		.uleb128 0x22
 4356 01dc 898201   		.uleb128 0x4109
 4357 01df 01       		.byte	0x1
 4358 01e0 11       		.uleb128 0x11
 4359 01e1 01       		.uleb128 0x1
 4360 01e2 31       		.uleb128 0x31
 4361 01e3 13       		.uleb128 0x13
 4362 01e4 00       		.byte	0
 4363 01e5 00       		.byte	0
 4364 01e6 23       		.uleb128 0x23
 4365 01e7 34       		.uleb128 0x34
 4366 01e8 00       		.byte	0
 4367 01e9 03       		.uleb128 0x3
 4368 01ea 0E       		.uleb128 0xe
 4369 01eb 3A       		.uleb128 0x3a
 4370 01ec 0B       		.uleb128 0xb
 4371 01ed 3B       		.uleb128 0x3b
 4372 01ee 0B       		.uleb128 0xb
 4373 01ef 39       		.uleb128 0x39
 4374 01f0 0B       		.uleb128 0xb
 4375 01f1 49       		.uleb128 0x49
 4376 01f2 13       		.uleb128 0x13
 4377 01f3 02       		.uleb128 0x2
 4378 01f4 06       		.uleb128 0x6
 4379 01f5 B742     		.uleb128 0x2137
 4380 01f7 06       		.uleb128 0x6
 4381 01f8 00       		.byte	0
 4382 01f9 00       		.byte	0
 4383 01fa 24       		.uleb128 0x24
 4384 01fb 2E       		.uleb128 0x2e
 4385 01fc 01       		.byte	0x1
 4386 01fd 3F       		.uleb128 0x3f
 4387 01fe 0C       		.uleb128 0xc
 4388 01ff 03       		.uleb128 0x3
 4389 0200 0E       		.uleb128 0xe
 4390 0201 3A       		.uleb128 0x3a
ARM GAS  /tmp/cc4kJ8mf.s 			page 86


 4391 0202 0B       		.uleb128 0xb
 4392 0203 3B       		.uleb128 0x3b
 4393 0204 0B       		.uleb128 0xb
 4394 0205 39       		.uleb128 0x39
 4395 0206 0B       		.uleb128 0xb
 4396 0207 27       		.uleb128 0x27
 4397 0208 0C       		.uleb128 0xc
 4398 0209 11       		.uleb128 0x11
 4399 020a 01       		.uleb128 0x1
 4400 020b 12       		.uleb128 0x12
 4401 020c 01       		.uleb128 0x1
 4402 020d 40       		.uleb128 0x40
 4403 020e 06       		.uleb128 0x6
 4404 020f 9742     		.uleb128 0x2117
 4405 0211 0C       		.uleb128 0xc
 4406 0212 01       		.uleb128 0x1
 4407 0213 13       		.uleb128 0x13
 4408 0214 00       		.byte	0
 4409 0215 00       		.byte	0
 4410 0216 25       		.uleb128 0x25
 4411 0217 2E       		.uleb128 0x2e
 4412 0218 01       		.byte	0x1
 4413 0219 3F       		.uleb128 0x3f
 4414 021a 0C       		.uleb128 0xc
 4415 021b 03       		.uleb128 0x3
 4416 021c 0E       		.uleb128 0xe
 4417 021d 3A       		.uleb128 0x3a
 4418 021e 0B       		.uleb128 0xb
 4419 021f 3B       		.uleb128 0x3b
 4420 0220 0B       		.uleb128 0xb
 4421 0221 39       		.uleb128 0x39
 4422 0222 0B       		.uleb128 0xb
 4423 0223 27       		.uleb128 0x27
 4424 0224 0C       		.uleb128 0xc
 4425 0225 11       		.uleb128 0x11
 4426 0226 01       		.uleb128 0x1
 4427 0227 12       		.uleb128 0x12
 4428 0228 01       		.uleb128 0x1
 4429 0229 40       		.uleb128 0x40
 4430 022a 0A       		.uleb128 0xa
 4431 022b 9742     		.uleb128 0x2117
 4432 022d 0C       		.uleb128 0xc
 4433 022e 01       		.uleb128 0x1
 4434 022f 13       		.uleb128 0x13
 4435 0230 00       		.byte	0
 4436 0231 00       		.byte	0
 4437 0232 26       		.uleb128 0x26
 4438 0233 2E       		.uleb128 0x2e
 4439 0234 00       		.byte	0
 4440 0235 3F       		.uleb128 0x3f
 4441 0236 0C       		.uleb128 0xc
 4442 0237 03       		.uleb128 0x3
 4443 0238 0E       		.uleb128 0xe
 4444 0239 3A       		.uleb128 0x3a
 4445 023a 0B       		.uleb128 0xb
 4446 023b 3B       		.uleb128 0x3b
 4447 023c 0B       		.uleb128 0xb
ARM GAS  /tmp/cc4kJ8mf.s 			page 87


 4448 023d 39       		.uleb128 0x39
 4449 023e 0B       		.uleb128 0xb
 4450 023f 27       		.uleb128 0x27
 4451 0240 0C       		.uleb128 0xc
 4452 0241 11       		.uleb128 0x11
 4453 0242 01       		.uleb128 0x1
 4454 0243 12       		.uleb128 0x12
 4455 0244 01       		.uleb128 0x1
 4456 0245 40       		.uleb128 0x40
 4457 0246 0A       		.uleb128 0xa
 4458 0247 9742     		.uleb128 0x2117
 4459 0249 0C       		.uleb128 0xc
 4460 024a 00       		.byte	0
 4461 024b 00       		.byte	0
 4462 024c 27       		.uleb128 0x27
 4463 024d 05       		.uleb128 0x5
 4464 024e 00       		.byte	0
 4465 024f 03       		.uleb128 0x3
 4466 0250 08       		.uleb128 0x8
 4467 0251 3A       		.uleb128 0x3a
 4468 0252 0B       		.uleb128 0xb
 4469 0253 3B       		.uleb128 0x3b
 4470 0254 0B       		.uleb128 0xb
 4471 0255 39       		.uleb128 0x39
 4472 0256 0B       		.uleb128 0xb
 4473 0257 49       		.uleb128 0x49
 4474 0258 13       		.uleb128 0x13
 4475 0259 02       		.uleb128 0x2
 4476 025a 0A       		.uleb128 0xa
 4477 025b 00       		.byte	0
 4478 025c 00       		.byte	0
 4479 025d 28       		.uleb128 0x28
 4480 025e 2E       		.uleb128 0x2e
 4481 025f 00       		.byte	0
 4482 0260 3F       		.uleb128 0x3f
 4483 0261 0C       		.uleb128 0xc
 4484 0262 03       		.uleb128 0x3
 4485 0263 0E       		.uleb128 0xe
 4486 0264 3A       		.uleb128 0x3a
 4487 0265 0B       		.uleb128 0xb
 4488 0266 3B       		.uleb128 0x3b
 4489 0267 0B       		.uleb128 0xb
 4490 0268 39       		.uleb128 0x39
 4491 0269 0B       		.uleb128 0xb
 4492 026a 11       		.uleb128 0x11
 4493 026b 01       		.uleb128 0x1
 4494 026c 12       		.uleb128 0x12
 4495 026d 01       		.uleb128 0x1
 4496 026e 40       		.uleb128 0x40
 4497 026f 0A       		.uleb128 0xa
 4498 0270 9742     		.uleb128 0x2117
 4499 0272 0C       		.uleb128 0xc
 4500 0273 00       		.byte	0
 4501 0274 00       		.byte	0
 4502 0275 29       		.uleb128 0x29
 4503 0276 2E       		.uleb128 0x2e
 4504 0277 00       		.byte	0
ARM GAS  /tmp/cc4kJ8mf.s 			page 88


 4505 0278 3F       		.uleb128 0x3f
 4506 0279 0C       		.uleb128 0xc
 4507 027a 3C       		.uleb128 0x3c
 4508 027b 0C       		.uleb128 0xc
 4509 027c 8740     		.uleb128 0x2007
 4510 027e 0E       		.uleb128 0xe
 4511 027f 03       		.uleb128 0x3
 4512 0280 0E       		.uleb128 0xe
 4513 0281 3A       		.uleb128 0x3a
 4514 0282 0B       		.uleb128 0xb
 4515 0283 3B       		.uleb128 0x3b
 4516 0284 05       		.uleb128 0x5
 4517 0285 39       		.uleb128 0x39
 4518 0286 0B       		.uleb128 0xb
 4519 0287 00       		.byte	0
 4520 0288 00       		.byte	0
 4521 0289 2A       		.uleb128 0x2a
 4522 028a 2E       		.uleb128 0x2e
 4523 028b 00       		.byte	0
 4524 028c 3F       		.uleb128 0x3f
 4525 028d 0C       		.uleb128 0xc
 4526 028e 3C       		.uleb128 0x3c
 4527 028f 0C       		.uleb128 0xc
 4528 0290 8740     		.uleb128 0x2007
 4529 0292 0E       		.uleb128 0xe
 4530 0293 03       		.uleb128 0x3
 4531 0294 0E       		.uleb128 0xe
 4532 0295 3A       		.uleb128 0x3a
 4533 0296 0B       		.uleb128 0xb
 4534 0297 3B       		.uleb128 0x3b
 4535 0298 0B       		.uleb128 0xb
 4536 0299 39       		.uleb128 0x39
 4537 029a 0B       		.uleb128 0xb
 4538 029b 00       		.byte	0
 4539 029c 00       		.byte	0
 4540 029d 00       		.byte	0
 4541              		.section	.debug_loc,"",%progbits
 4542              	.Ldebug_loc0:
 4543              	.LLST16:
 4544 0000 00000000 		.4byte	.LFB46
 4545 0004 02000000 		.4byte	.LCFI11
 4546 0008 0200     		.2byte	0x2
 4547 000a 7D       		.byte	0x7d
 4548 000b 00       		.sleb128 0
 4549 000c 02000000 		.4byte	.LCFI11
 4550 0010 84000000 		.4byte	.LFE46
 4551 0014 0200     		.2byte	0x2
 4552 0016 7D       		.byte	0x7d
 4553 0017 10       		.sleb128 16
 4554 0018 00000000 		.4byte	0
 4555 001c 00000000 		.4byte	0
 4556              	.LLST0:
 4557 0020 00000000 		.4byte	.LFB45
 4558 0024 04000000 		.4byte	.LCFI0
 4559 0028 0200     		.2byte	0x2
 4560 002a 7D       		.byte	0x7d
 4561 002b 00       		.sleb128 0
ARM GAS  /tmp/cc4kJ8mf.s 			page 89


 4562 002c 04000000 		.4byte	.LCFI0
 4563 0030 28000000 		.4byte	.LFE45
 4564 0034 0200     		.2byte	0x2
 4565 0036 7D       		.byte	0x7d
 4566 0037 10       		.sleb128 16
 4567 0038 00000000 		.4byte	0
 4568 003c 00000000 		.4byte	0
 4569              	.LVUS1:
 4570 0040 00       		.uleb128 0
 4571 0041 00       		.uleb128 .LVU6
 4572 0042 00       		.uleb128 .LVU6
 4573 0043 00       		.uleb128 0
 4574              	.LLST1:
 4575 0044 00000000 		.4byte	.LVL0
 4576 0048 08000000 		.4byte	.LVL1
 4577 004c 0100     		.2byte	0x1
 4578 004e 50       		.byte	0x50
 4579 004f 08000000 		.4byte	.LVL1
 4580 0053 28000000 		.4byte	.LFE45
 4581 0057 0400     		.2byte	0x4
 4582 0059 F3       		.byte	0xf3
 4583 005a 01       		.uleb128 0x1
 4584 005b 50       		.byte	0x50
 4585 005c 9F       		.byte	0x9f
 4586 005d 00000000 		.4byte	0
 4587 0061 00000000 		.4byte	0
 4588              	.LLST13:
 4589 0065 14030000 		.4byte	.LFB44
 4590 0069 16030000 		.4byte	.LCFI10
 4591 006d 0200     		.2byte	0x2
 4592 006f 7D       		.byte	0x7d
 4593 0070 00       		.sleb128 0
 4594 0071 16030000 		.4byte	.LCFI10
 4595 0075 68030000 		.4byte	.LFE44
 4596 0079 0200     		.2byte	0x2
 4597 007b 7D       		.byte	0x7d
 4598 007c 20       		.sleb128 32
 4599 007d 00000000 		.4byte	0
 4600 0081 00000000 		.4byte	0
 4601              	.LVUS14:
 4602 0085 00       		.uleb128 0
 4603 0086 00       		.uleb128 .LVU242
 4604 0087 00       		.uleb128 .LVU242
 4605 0088 00       		.uleb128 0
 4606              	.LLST14:
 4607 0089 14030000 		.4byte	.LVL32
 4608 008d 19030000 		.4byte	.LVL33-1
 4609 0091 0100     		.2byte	0x1
 4610 0093 50       		.byte	0x50
 4611 0094 19030000 		.4byte	.LVL33-1
 4612 0098 68030000 		.4byte	.LFE44
 4613 009c 0400     		.2byte	0x4
 4614 009e F3       		.byte	0xf3
 4615 009f 01       		.uleb128 0x1
 4616 00a0 50       		.byte	0x50
 4617 00a1 9F       		.byte	0x9f
 4618 00a2 00000000 		.4byte	0
ARM GAS  /tmp/cc4kJ8mf.s 			page 90


 4619 00a6 00000000 		.4byte	0
 4620              	.LVUS15:
 4621 00aa 00       		.uleb128 .LVU253
 4622 00ab 00       		.uleb128 .LVU257
 4623 00ac 00       		.uleb128 .LVU261
 4624 00ad 00       		.uleb128 .LVU262
 4625              	.LLST15:
 4626 00ae 2E030000 		.4byte	.LVL34
 4627 00b2 34030000 		.4byte	.LVL35
 4628 00b6 0100     		.2byte	0x1
 4629 00b8 50       		.byte	0x50
 4630 00b9 52030000 		.4byte	.LVL40
 4631 00bd 54030000 		.4byte	.LVL41
 4632 00c1 0100     		.2byte	0x1
 4633 00c3 50       		.byte	0x50
 4634 00c4 00000000 		.4byte	0
 4635 00c8 00000000 		.4byte	0
 4636              	.LLST2:
 4637 00cc 28000000 		.4byte	.LFB43
 4638 00d0 2C000000 		.4byte	.LCFI1
 4639 00d4 0200     		.2byte	0x2
 4640 00d6 7D       		.byte	0x7d
 4641 00d7 00       		.sleb128 0
 4642 00d8 2C000000 		.4byte	.LCFI1
 4643 00dc 58000000 		.4byte	.LFE43
 4644 00e0 0200     		.2byte	0x2
 4645 00e2 7D       		.byte	0x7d
 4646 00e3 08       		.sleb128 8
 4647 00e4 00000000 		.4byte	0
 4648 00e8 00000000 		.4byte	0
 4649              	.LVUS3:
 4650 00ec 00       		.uleb128 0
 4651 00ed 00       		.uleb128 .LVU23
 4652 00ee 00       		.uleb128 .LVU23
 4653 00ef 00       		.uleb128 0
 4654              	.LLST3:
 4655 00f0 28000000 		.4byte	.LVL4
 4656 00f4 3E000000 		.4byte	.LVL5
 4657 00f8 0100     		.2byte	0x1
 4658 00fa 50       		.byte	0x50
 4659 00fb 3E000000 		.4byte	.LVL5
 4660 00ff 58000000 		.4byte	.LFE43
 4661 0103 0400     		.2byte	0x4
 4662 0105 F3       		.byte	0xf3
 4663 0106 01       		.uleb128 0x1
 4664 0107 50       		.byte	0x50
 4665 0108 9F       		.byte	0x9f
 4666 0109 00000000 		.4byte	0
 4667 010d 00000000 		.4byte	0
 4668              	.LLST4:
 4669 0111 58000000 		.4byte	.LFB42
 4670 0115 5C000000 		.4byte	.LCFI2
 4671 0119 0200     		.2byte	0x2
 4672 011b 7D       		.byte	0x7d
 4673 011c 00       		.sleb128 0
 4674 011d 5C000000 		.4byte	.LCFI2
 4675 0121 F0000000 		.4byte	.LFE42
ARM GAS  /tmp/cc4kJ8mf.s 			page 91


 4676 0125 0200     		.2byte	0x2
 4677 0127 7D       		.byte	0x7d
 4678 0128 10       		.sleb128 16
 4679 0129 00000000 		.4byte	0
 4680 012d 00000000 		.4byte	0
 4681              	.LVUS5:
 4682 0131 00       		.uleb128 0
 4683 0132 00       		.uleb128 .LVU49
 4684 0133 00       		.uleb128 .LVU49
 4685 0134 00       		.uleb128 0
 4686              	.LLST5:
 4687 0135 58000000 		.4byte	.LVL7
 4688 0139 A9000000 		.4byte	.LVL8-1
 4689 013d 0100     		.2byte	0x1
 4690 013f 50       		.byte	0x50
 4691 0140 A9000000 		.4byte	.LVL8-1
 4692 0144 F0000000 		.4byte	.LFE42
 4693 0148 0400     		.2byte	0x4
 4694 014a F3       		.byte	0xf3
 4695 014b 01       		.uleb128 0x1
 4696 014c 50       		.byte	0x50
 4697 014d 9F       		.byte	0x9f
 4698 014e 00000000 		.4byte	0
 4699 0152 00000000 		.4byte	0
 4700              	.LVUS6:
 4701 0156 01       		.uleb128 .LVU52
 4702 0157 00       		.uleb128 .LVU55
 4703 0158 00       		.uleb128 .LVU57
 4704 0159 00       		.uleb128 0
 4705              	.LLST6:
 4706 015a BA000000 		.4byte	.LVL10
 4707 015e BC000000 		.4byte	.LVL11
 4708 0162 0100     		.2byte	0x1
 4709 0164 54       		.byte	0x54
 4710 0165 C4000000 		.4byte	.LVL12
 4711 0169 F0000000 		.4byte	.LFE42
 4712 016d 0100     		.2byte	0x1
 4713 016f 54       		.byte	0x54
 4714 0170 00000000 		.4byte	0
 4715 0174 00000000 		.4byte	0
 4716              	.LLST11:
 4717 0178 EC020000 		.4byte	.LFB41
 4718 017c EE020000 		.4byte	.LCFI9
 4719 0180 0200     		.2byte	0x2
 4720 0182 7D       		.byte	0x7d
 4721 0183 00       		.sleb128 0
 4722 0184 EE020000 		.4byte	.LCFI9
 4723 0188 14030000 		.4byte	.LFE41
 4724 018c 0200     		.2byte	0x2
 4725 018e 7D       		.byte	0x7d
 4726 018f 10       		.sleb128 16
 4727 0190 00000000 		.4byte	0
 4728 0194 00000000 		.4byte	0
 4729              	.LVUS12:
 4730 0198 00       		.uleb128 0
 4731 0199 00       		.uleb128 .LVU227
 4732 019a 00       		.uleb128 .LVU227
ARM GAS  /tmp/cc4kJ8mf.s 			page 92


 4733 019b 00       		.uleb128 .LVU229
 4734 019c 00       		.uleb128 .LVU229
 4735 019d 01       		.uleb128 .LVU232
 4736 019e 01       		.uleb128 .LVU232
 4737 019f 00       		.uleb128 0
 4738              	.LLST12:
 4739 01a0 EC020000 		.4byte	.LVL26
 4740 01a4 F2020000 		.4byte	.LVL27
 4741 01a8 0100     		.2byte	0x1
 4742 01aa 50       		.byte	0x50
 4743 01ab F2020000 		.4byte	.LVL27
 4744 01af F6020000 		.4byte	.LVL28
 4745 01b3 0300     		.2byte	0x3
 4746 01b5 74       		.byte	0x74
 4747 01b6 01       		.sleb128 1
 4748 01b7 9F       		.byte	0x9f
 4749 01b8 F6020000 		.4byte	.LVL28
 4750 01bc FA020000 		.4byte	.LVL29
 4751 01c0 0100     		.2byte	0x1
 4752 01c2 54       		.byte	0x54
 4753 01c3 FA020000 		.4byte	.LVL29
 4754 01c7 14030000 		.4byte	.LFE41
 4755 01cb 0300     		.2byte	0x3
 4756 01cd 74       		.byte	0x74
 4757 01ce 01       		.sleb128 1
 4758 01cf 9F       		.byte	0x9f
 4759 01d0 00000000 		.4byte	0
 4760 01d4 00000000 		.4byte	0
 4761              	.LLST10:
 4762 01d8 7C020000 		.4byte	.LFB40
 4763 01dc 7E020000 		.4byte	.LCFI6
 4764 01e0 0200     		.2byte	0x2
 4765 01e2 7D       		.byte	0x7d
 4766 01e3 00       		.sleb128 0
 4767 01e4 7E020000 		.4byte	.LCFI6
 4768 01e8 82020000 		.4byte	.LCFI7
 4769 01ec 0200     		.2byte	0x2
 4770 01ee 7D       		.byte	0x7d
 4771 01ef 08       		.sleb128 8
 4772 01f0 82020000 		.4byte	.LCFI7
 4773 01f4 E6020000 		.4byte	.LCFI8
 4774 01f8 0200     		.2byte	0x2
 4775 01fa 7D       		.byte	0x7d
 4776 01fb 20       		.sleb128 32
 4777 01fc E6020000 		.4byte	.LCFI8
 4778 0200 EC020000 		.4byte	.LFE40
 4779 0204 0200     		.2byte	0x2
 4780 0206 7D       		.byte	0x7d
 4781 0207 08       		.sleb128 8
 4782 0208 00000000 		.4byte	0
 4783 020c 00000000 		.4byte	0
 4784              	.LVUS9:
 4785 0210 00       		.uleb128 0
 4786 0211 00       		.uleb128 .LVU183
 4787 0212 00       		.uleb128 .LVU183
 4788 0213 00       		.uleb128 0
 4789              	.LLST9:
ARM GAS  /tmp/cc4kJ8mf.s 			page 93


 4790 0214 60020000 		.4byte	.LVL19
 4791 0218 68020000 		.4byte	.LVL20
 4792 021c 0100     		.2byte	0x1
 4793 021e 50       		.byte	0x50
 4794 021f 68020000 		.4byte	.LVL20
 4795 0223 7C020000 		.4byte	.LFE39
 4796 0227 0400     		.2byte	0x4
 4797 0229 F3       		.byte	0xf3
 4798 022a 01       		.uleb128 0x1
 4799 022b 50       		.byte	0x50
 4800 022c 9F       		.byte	0x9f
 4801 022d 00000000 		.4byte	0
 4802 0231 00000000 		.4byte	0
 4803              	.LVUS8:
 4804 0235 00       		.uleb128 0
 4805 0236 00       		.uleb128 .LVU175
 4806 0237 00       		.uleb128 .LVU175
 4807 0238 00       		.uleb128 0
 4808              	.LLST8:
 4809 0239 48020000 		.4byte	.LVL17
 4810 023d 50020000 		.4byte	.LVL18
 4811 0241 0100     		.2byte	0x1
 4812 0243 50       		.byte	0x50
 4813 0244 50020000 		.4byte	.LVL18
 4814 0248 60020000 		.4byte	.LFE38
 4815 024c 0400     		.2byte	0x4
 4816 024e F3       		.byte	0xf3
 4817 024f 01       		.uleb128 0x1
 4818 0250 50       		.byte	0x50
 4819 0251 9F       		.byte	0x9f
 4820 0252 00000000 		.4byte	0
 4821 0256 00000000 		.4byte	0
 4822              	.LLST7:
 4823 025a F0010000 		.4byte	.LFB36
 4824 025e F2010000 		.4byte	.LCFI3
 4825 0262 0200     		.2byte	0x2
 4826 0264 7D       		.byte	0x7d
 4827 0265 00       		.sleb128 0
 4828 0266 F2010000 		.4byte	.LCFI3
 4829 026a FE010000 		.4byte	.LCFI4
 4830 026e 0200     		.2byte	0x2
 4831 0270 7D       		.byte	0x7d
 4832 0271 08       		.sleb128 8
 4833 0272 FE010000 		.4byte	.LCFI4
 4834 0276 00020000 		.4byte	.LCFI5
 4835 027a 0200     		.2byte	0x2
 4836 027c 7D       		.byte	0x7d
 4837 027d 00       		.sleb128 0
 4838 027e 00020000 		.4byte	.LCFI5
 4839 0282 20020000 		.4byte	.LFE36
 4840 0286 0200     		.2byte	0x2
 4841 0288 7D       		.byte	0x7d
 4842 0289 08       		.sleb128 8
 4843 028a 00000000 		.4byte	0
 4844 028e 00000000 		.4byte	0
 4845              		.section	.debug_aranges,"",%progbits
 4846 0000 24000000 		.4byte	0x24
ARM GAS  /tmp/cc4kJ8mf.s 			page 94


 4847 0004 0200     		.2byte	0x2
 4848 0006 00000000 		.4byte	.Ldebug_info0
 4849 000a 04       		.byte	0x4
 4850 000b 00       		.byte	0
 4851 000c 0000     		.2byte	0
 4852 000e 0000     		.2byte	0
 4853 0010 00000000 		.4byte	.Ltext0
 4854 0014 68030000 		.4byte	.Letext0-.Ltext0
 4855 0018 00000000 		.4byte	.LFB46
 4856 001c 84000000 		.4byte	.LFE46-.LFB46
 4857 0020 00000000 		.4byte	0
 4858 0024 00000000 		.4byte	0
 4859              		.section	.debug_ranges,"",%progbits
 4860              	.Ldebug_ranges0:
 4861 0000 00000000 		.4byte	.Ltext0
 4862 0004 68030000 		.4byte	.Letext0
 4863 0008 00000000 		.4byte	.LFB46
 4864 000c 84000000 		.4byte	.LFE46
 4865 0010 00000000 		.4byte	0
 4866 0014 00000000 		.4byte	0
 4867              		.section	.debug_line,"",%progbits
 4868              	.Ldebug_line0:
 4869 0000 FE060000 		.section	.debug_str,"MS",%progbits,1
 4869      03001902 
 4869      00000201 
 4869      FB0E0D00 
 4869      01010101 
 4870              	.LASF185:
 4871 0000 70756342 		.ascii	"pucBuffer\000"
 4871      75666665 
 4871      7200
 4872              	.LASF78:
 4873 000a 49435052 		.ascii	"ICPR\000"
 4873      00
 4874              	.LASF109:
 4875 000f 4C434B52 		.ascii	"LCKR\000"
 4875      00
 4876              	.LASF161:
 4877 0014 4750494F 		.ascii	"GPIO_Mode_AF_PP\000"
 4877      5F4D6F64 
 4877      655F4146 
 4877      5F505000 
 4878              	.LASF29:
 4879 0024 5056445F 		.ascii	"PVD_IRQn\000"
 4879      4952516E 
 4879      00
 4880              	.LASF123:
 4881 002d 44494552 		.ascii	"DIER\000"
 4881      00
 4882              	.LASF187:
 4883 0032 55534152 		.ascii	"USART_init\000"
 4883      545F696E 
 4883      697400
 4884              	.LASF49:
 4885 003d 43414E31 		.ascii	"CAN1_RX1_IRQn\000"
 4885      5F525831 
 4885      5F495251 
ARM GAS  /tmp/cc4kJ8mf.s 			page 95


 4885      6E00
 4886              	.LASF209:
 4887 004b 5243435F 		.ascii	"RCC_APB2PeriphClockCmd\000"
 4887      41504232 
 4887      50657269 
 4887      7068436C 
 4887      6F636B43 
 4888              	.LASF6:
 4889 0062 5F5F7569 		.ascii	"__uint8_t\000"
 4889      6E74385F 
 4889      7400
 4890              	.LASF150:
 4891 006c 4750494F 		.ascii	"GPIO_Speed_10MHz\000"
 4891      5F537065 
 4891      65645F31 
 4891      304D487A 
 4891      00
 4892              	.LASF147:
 4893 007d 54494D5F 		.ascii	"TIM_TypeDef\000"
 4893      54797065 
 4893      44656600 
 4894              	.LASF86:
 4895 0089 44495341 		.ascii	"DISABLE\000"
 4895      424C4500 
 4896              	.LASF31:
 4897 0091 5254435F 		.ascii	"RTC_IRQn\000"
 4897      4952516E 
 4897      00
 4898              	.LASF186:
 4899 009a 55534152 		.ascii	"USARTSend\000"
 4899      5453656E 
 4899      6400
 4900              	.LASF136:
 4901 00a4 43435232 		.ascii	"CCR2\000"
 4901      00
 4902              	.LASF204:
 4903 00a9 64697370 		.ascii	"disp_cmd\000"
 4903      5F636D64 
 4903      00
 4904              	.LASF164:
 4905 00b2 4750494F 		.ascii	"GPIO_Speed\000"
 4905      5F537065 
 4905      656400
 4906              	.LASF62:
 4907 00bd 49324332 		.ascii	"I2C2_ER_IRQn\000"
 4907      5F45525F 
 4907      4952516E 
 4907      00
 4908              	.LASF58:
 4909 00ca 54494D34 		.ascii	"TIM4_IRQn\000"
 4909      5F495251 
 4909      6E00
 4910              	.LASF19:
 4911 00d4 51756575 		.ascii	"QueueHandle_t\000"
 4911      6548616E 
 4911      646C655F 
 4911      7400
ARM GAS  /tmp/cc4kJ8mf.s 			page 96


 4912              	.LASF36:
 4913 00e2 45585449 		.ascii	"EXTI2_IRQn\000"
 4913      325F4952 
 4913      516E00
 4914              	.LASF28:
 4915 00ed 57574447 		.ascii	"WWDG_IRQn\000"
 4915      5F495251 
 4915      6E00
 4916              	.LASF76:
 4917 00f7 49535052 		.ascii	"ISPR\000"
 4917      00
 4918              	.LASF202:
 4919 00fc 69746F61 		.ascii	"itoa\000"
 4919      00
 4920              	.LASF97:
 4921 0101 4A535152 		.ascii	"JSQR\000"
 4921      00
 4922              	.LASF124:
 4923 0106 43434D52 		.ascii	"CCMR1\000"
 4923      3100
 4924              	.LASF126:
 4925 010c 43434D52 		.ascii	"CCMR2\000"
 4925      3200
 4926              	.LASF1:
 4927 0112 6C6F6E67 		.ascii	"long long int\000"
 4927      206C6F6E 
 4927      6720696E 
 4927      7400
 4928              	.LASF3:
 4929 0120 7369676E 		.ascii	"signed char\000"
 4929      65642063 
 4929      68617200 
 4930              	.LASF183:
 4931 012c 73746174 		.ascii	"status\000"
 4931      757300
 4932              	.LASF208:
 4933 0133 55534152 		.ascii	"USART_GetFlagStatus\000"
 4933      545F4765 
 4933      74466C61 
 4933      67537461 
 4933      74757300 
 4934              	.LASF170:
 4935 0147 55534152 		.ascii	"USART_Parity\000"
 4935      545F5061 
 4935      72697479 
 4935      00
 4936              	.LASF34:
 4937 0154 45585449 		.ascii	"EXTI0_IRQn\000"
 4937      305F4952 
 4937      516E00
 4938              	.LASF148:
 4939 015f 47545052 		.ascii	"GTPR\000"
 4939      00
 4940              	.LASF205:
 4941 0164 64697370 		.ascii	"disp_text\000"
 4941      5F746578 
 4941      7400
ARM GAS  /tmp/cc4kJ8mf.s 			page 97


 4942              	.LASF200:
 4943 016e 76546173 		.ascii	"vTaskDelay\000"
 4943      6B44656C 
 4943      617900
 4944              	.LASF12:
 4945 0179 6C6F6E67 		.ascii	"long long unsigned int\000"
 4945      206C6F6E 
 4945      6720756E 
 4945      7369676E 
 4945      65642069 
 4946              	.LASF131:
 4947 0190 52455345 		.ascii	"RESERVED10\000"
 4947      52564544 
 4947      313000
 4948              	.LASF132:
 4949 019b 52455345 		.ascii	"RESERVED11\000"
 4949      52564544 
 4949      313100
 4950              	.LASF171:
 4951 01a6 55534152 		.ascii	"USART_Mode\000"
 4951      545F4D6F 
 4951      646500
 4952              	.LASF135:
 4953 01b1 52455345 		.ascii	"RESERVED13\000"
 4953      52564544 
 4953      313300
 4954              	.LASF137:
 4955 01bc 52455345 		.ascii	"RESERVED14\000"
 4955      52564544 
 4955      313400
 4956              	.LASF157:
 4957 01c7 4750494F 		.ascii	"GPIO_Mode_IPU\000"
 4957      5F4D6F64 
 4957      655F4950 
 4957      5500
 4958              	.LASF141:
 4959 01d5 52455345 		.ascii	"RESERVED16\000"
 4959      52564544 
 4959      313600
 4960              	.LASF143:
 4961 01e0 52455345 		.ascii	"RESERVED17\000"
 4961      52564544 
 4961      313700
 4962              	.LASF167:
 4963 01eb 55534152 		.ascii	"USART_BaudRate\000"
 4963      545F4261 
 4963      75645261 
 4963      746500
 4964              	.LASF179:
 4965 01fa 6461646F 		.ascii	"dados_recebidos\000"
 4965      735F7265 
 4965      63656269 
 4965      646F7300 
 4966              	.LASF9:
 4967 020a 6C6F6E67 		.ascii	"long int\000"
 4967      20696E74 
 4967      00
ARM GAS  /tmp/cc4kJ8mf.s 			page 98


 4968              	.LASF87:
 4969 0213 454E4142 		.ascii	"ENABLE\000"
 4969      4C4500
 4970              	.LASF112:
 4971 021a 41504232 		.ascii	"APB2RSTR\000"
 4971      52535452 
 4971      00
 4972              	.LASF175:
 4973 0223 6164635F 		.ascii	"adc_dados_lidos\000"
 4973      6461646F 
 4973      735F6C69 
 4973      646F7300 
 4974              	.LASF184:
 4975 0233 636F6E74 		.ascii	"cont\000"
 4975      00
 4976              	.LASF51:
 4977 0238 45585449 		.ascii	"EXTI9_5_IRQn\000"
 4977      395F355F 
 4977      4952516E 
 4977      00
 4978              	.LASF128:
 4979 0245 43434552 		.ascii	"CCER\000"
 4979      00
 4980              	.LASF155:
 4981 024a 4750494F 		.ascii	"GPIO_Mode_IN_FLOATING\000"
 4981      5F4D6F64 
 4981      655F494E 
 4981      5F464C4F 
 4981      4154494E 
 4982              	.LASF104:
 4983 0260 4F50544B 		.ascii	"OPTKEYR\000"
 4983      45595200 
 4984              	.LASF14:
 4985 0268 75696E74 		.ascii	"uint16_t\000"
 4985      31365F74 
 4985      00
 4986              	.LASF102:
 4987 0271 4144435F 		.ascii	"ADC_TypeDef\000"
 4987      54797065 
 4987      44656600 
 4988              	.LASF37:
 4989 027d 45585449 		.ascii	"EXTI3_IRQn\000"
 4989      335F4952 
 4989      516E00
 4990              	.LASF16:
 4991 0288 42617365 		.ascii	"BaseType_t\000"
 4991      54797065 
 4991      5F7400
 4992              	.LASF46:
 4993 0293 41444331 		.ascii	"ADC1_2_IRQn\000"
 4993      5F325F49 
 4993      52516E00 
 4994              	.LASF165:
 4995 029f 4750494F 		.ascii	"GPIO_Mode\000"
 4995      5F4D6F64 
 4995      6500
 4996              	.LASF139:
ARM GAS  /tmp/cc4kJ8mf.s 			page 99


 4997 02a9 52455345 		.ascii	"RESERVED15\000"
 4997      52564544 
 4997      313500
 4998              	.LASF172:
 4999 02b4 55534152 		.ascii	"USART_HardwareFlowControl\000"
 4999      545F4861 
 4999      72647761 
 4999      7265466C 
 4999      6F77436F 
 5000              	.LASF26:
 5001 02ce 50656E64 		.ascii	"PendSV_IRQn\000"
 5001      53565F49 
 5001      52516E00 
 5002              	.LASF8:
 5003 02da 73686F72 		.ascii	"short unsigned int\000"
 5003      7420756E 
 5003      7369676E 
 5003      65642069 
 5003      6E7400
 5004              	.LASF42:
 5005 02ed 444D4131 		.ascii	"DMA1_Channel4_IRQn\000"
 5005      5F436861 
 5005      6E6E656C 
 5005      345F4952 
 5005      516E00
 5006              	.LASF7:
 5007 0300 5F5F7569 		.ascii	"__uint16_t\000"
 5007      6E743136 
 5007      5F7400
 5008              	.LASF10:
 5009 030b 5F5F7569 		.ascii	"__uint32_t\000"
 5009      6E743332 
 5009      5F7400
 5010              	.LASF194:
 5011 0316 656E6162 		.ascii	"enable_TIM3_delay\000"
 5011      6C655F54 
 5011      494D335F 
 5011      64656C61 
 5011      7900
 5012              	.LASF169:
 5013 0328 55534152 		.ascii	"USART_StopBits\000"
 5013      545F5374 
 5013      6F704269 
 5013      747300
 5014              	.LASF198:
 5015 0337 76546173 		.ascii	"vTaskStartScheduler\000"
 5015      6B537461 
 5015      72745363 
 5015      68656475 
 5015      6C657200 
 5016              	.LASF103:
 5017 034b 4B455952 		.ascii	"KEYR\000"
 5017      00
 5018              	.LASF196:
 5019 0350 78517565 		.ascii	"xQueueGenericCreate\000"
 5019      75654765 
 5019      6E657269 
ARM GAS  /tmp/cc4kJ8mf.s 			page 100


 5019      63437265 
 5019      61746500 
 5020              	.LASF153:
 5021 0364 4750494F 		.ascii	"GPIOSpeed_TypeDef\000"
 5021      53706565 
 5021      645F5479 
 5021      70654465 
 5021      6600
 5022              	.LASF163:
 5023 0376 4750494F 		.ascii	"GPIO_Pin\000"
 5023      5F50696E 
 5023      00
 5024              	.LASF0:
 5025 037f 756E7369 		.ascii	"unsigned int\000"
 5025      676E6564 
 5025      20696E74 
 5025      00
 5026              	.LASF156:
 5027 038c 4750494F 		.ascii	"GPIO_Mode_IPD\000"
 5027      5F4D6F64 
 5027      655F4950 
 5027      4400
 5028              	.LASF21:
 5029 039a 4D656D6F 		.ascii	"MemoryManagement_IRQn\000"
 5029      72794D61 
 5029      6E616765 
 5029      6D656E74 
 5029      5F495251 
 5030              	.LASF11:
 5031 03b0 6C6F6E67 		.ascii	"long unsigned int\000"
 5031      20756E73 
 5031      69676E65 
 5031      6420696E 
 5031      7400
 5032              	.LASF110:
 5033 03c2 4750494F 		.ascii	"GPIO_TypeDef\000"
 5033      5F547970 
 5033      65446566 
 5033      00
 5034              	.LASF120:
 5035 03cf 5243435F 		.ascii	"RCC_TypeDef\000"
 5035      54797065 
 5035      44656600 
 5036              	.LASF182:
 5037 03db 7461736B 		.ascii	"task1\000"
 5037      3100
 5038              	.LASF181:
 5039 03e1 7461736B 		.ascii	"task2\000"
 5039      3200
 5040              	.LASF177:
 5041 03e7 7461736B 		.ascii	"task3\000"
 5041      3300
 5042              	.LASF176:
 5043 03ed 7461736B 		.ascii	"task4\000"
 5043      3400
 5044              	.LASF199:
 5045 03f3 78517565 		.ascii	"xQueueGenericSend\000"
ARM GAS  /tmp/cc4kJ8mf.s 			page 101


 5045      75654765 
 5045      6E657269 
 5045      6353656E 
 5045      6400
 5046              	.LASF160:
 5047 0405 4750494F 		.ascii	"GPIO_Mode_AF_OD\000"
 5047      5F4D6F64 
 5047      655F4146 
 5047      5F4F4400 
 5048              	.LASF43:
 5049 0415 444D4131 		.ascii	"DMA1_Channel5_IRQn\000"
 5049      5F436861 
 5049      6E6E656C 
 5049      355F4952 
 5049      516E00
 5050              	.LASF122:
 5051 0428 534D4352 		.ascii	"SMCR\000"
 5051      00
 5052              	.LASF54:
 5053 042d 54494D31 		.ascii	"TIM1_TRG_COM_IRQn\000"
 5053      5F545247 
 5053      5F434F4D 
 5053      5F495251 
 5053      6E00
 5054              	.LASF201:
 5055 043f 78517565 		.ascii	"xQueueReceive\000"
 5055      75655265 
 5055      63656976 
 5055      6500
 5056              	.LASF158:
 5057 044d 4750494F 		.ascii	"GPIO_Mode_Out_OD\000"
 5057      5F4D6F64 
 5057      655F4F75 
 5057      745F4F44 
 5057      00
 5058              	.LASF114:
 5059 045e 41484245 		.ascii	"AHBENR\000"
 5059      4E5200
 5060              	.LASF68:
 5061 0465 45585449 		.ascii	"EXTI15_10_IRQn\000"
 5061      31355F31 
 5061      305F4952 
 5061      516E00
 5062              	.LASF213:
 5063 0474 474E5520 		.ascii	"GNU C17 10.3.1 20210824 (release) -mcpu=cortex-m3 -"
 5063      43313720 
 5063      31302E33 
 5063      2E312032 
 5063      30323130 
 5064 04a7 6D746875 		.ascii	"mthumb -mfloat-abi=soft -march=armv7-m -g -gdwarf-2"
 5064      6D62202D 
 5064      6D666C6F 
 5064      61742D61 
 5064      62693D73 
 5065 04da 202D4F73 		.ascii	" -Os -fomit-frame-pointer\000"
 5065      202D666F 
 5065      6D69742D 
ARM GAS  /tmp/cc4kJ8mf.s 			page 102


 5065      6672616D 
 5065      652D706F 
 5066              	.LASF63:
 5067 04f4 53504931 		.ascii	"SPI1_IRQn\000"
 5067      5F495251 
 5067      6E00
 5068              	.LASF149:
 5069 04fe 55534152 		.ascii	"USART_TypeDef\000"
 5069      545F5479 
 5069      70654465 
 5069      6600
 5070              	.LASF25:
 5071 050c 44656275 		.ascii	"DebugMonitor_IRQn\000"
 5071      674D6F6E 
 5071      69746F72 
 5071      5F495251 
 5071      6E00
 5072              	.LASF5:
 5073 051e 73686F72 		.ascii	"short int\000"
 5073      7420696E 
 5073      7400
 5074              	.LASF74:
 5075 0528 49434552 		.ascii	"ICER\000"
 5075      00
 5076              	.LASF27:
 5077 052d 53797354 		.ascii	"SysTick_IRQn\000"
 5077      69636B5F 
 5077      4952516E 
 5077      00
 5078              	.LASF55:
 5079 053a 54494D31 		.ascii	"TIM1_CC_IRQn\000"
 5079      5F43435F 
 5079      4952516E 
 5079      00
 5080              	.LASF173:
 5081 0547 55534152 		.ascii	"USART_InitTypeDef\000"
 5081      545F496E 
 5081      69745479 
 5081      70654465 
 5081      6600
 5082              	.LASF85:
 5083 0559 52455345 		.ascii	"RESET\000"
 5083      5400
 5084              	.LASF191:
 5085 055f 4952516E 		.ascii	"IRQn\000"
 5085      00
 5086              	.LASF211:
 5087 0564 55534152 		.ascii	"USART_Init\000"
 5087      545F496E 
 5087      697400
 5088              	.LASF91:
 5089 056f 4A4F4652 		.ascii	"JOFR2\000"
 5089      3200
 5090              	.LASF92:
 5091 0575 4A4F4652 		.ascii	"JOFR3\000"
 5091      3300
 5092              	.LASF93:
ARM GAS  /tmp/cc4kJ8mf.s 			page 103


 5093 057b 4A4F4652 		.ascii	"JOFR4\000"
 5093      3400
 5094              	.LASF40:
 5095 0581 444D4131 		.ascii	"DMA1_Channel2_IRQn\000"
 5095      5F436861 
 5095      6E6E656C 
 5095      325F4952 
 5095      516E00
 5096              	.LASF215:
 5097 0594 2F686F6D 		.ascii	"/home/junior/Codigos/6-Stm32_GCC_FreeRTOS10.2.1/5-P"
 5097      652F6A75 
 5097      6E696F72 
 5097      2F436F64 
 5097      69676F73 
 5098 05c7 574D5F4C 		.ascii	"WM_LCD_SERIAL\000"
 5098      43445F53 
 5098      45524941 
 5098      4C00
 5099              	.LASF210:
 5100 05d5 4750494F 		.ascii	"GPIO_Init\000"
 5100      5F496E69 
 5100      7400
 5101              	.LASF24:
 5102 05df 53564361 		.ascii	"SVCall_IRQn\000"
 5102      6C6C5F49 
 5102      52516E00 
 5103              	.LASF61:
 5104 05eb 49324332 		.ascii	"I2C2_EV_IRQn\000"
 5104      5F45565F 
 5104      4952516E 
 5104      00
 5105              	.LASF197:
 5106 05f8 78546173 		.ascii	"xTaskCreate\000"
 5106      6B437265 
 5106      61746500 
 5107              	.LASF80:
 5108 0604 49414252 		.ascii	"IABR\000"
 5108      00
 5109              	.LASF17:
 5110 0609 5469636B 		.ascii	"TickType_t\000"
 5110      54797065 
 5110      5F7400
 5111              	.LASF193:
 5112 0614 44656C61 		.ascii	"Delay\000"
 5112      7900
 5113              	.LASF64:
 5114 061a 53504932 		.ascii	"SPI2_IRQn\000"
 5114      5F495251 
 5114      6E00
 5115              	.LASF133:
 5116 0624 52455345 		.ascii	"RESERVED12\000"
 5116      52564544 
 5116      313200
 5117              	.LASF192:
 5118 062f 656E6162 		.ascii	"enable_interrupt\000"
 5118      6C655F69 
 5118      6E746572 
ARM GAS  /tmp/cc4kJ8mf.s 			page 104


 5118      72757074 
 5118      00
 5119              	.LASF188:
 5120 0640 4750494F 		.ascii	"GPIO_InitStructure\000"
 5120      5F496E69 
 5120      74537472 
 5120      75637475 
 5120      726500
 5121              	.LASF166:
 5122 0653 4750494F 		.ascii	"GPIO_InitTypeDef\000"
 5122      5F496E69 
 5122      74547970 
 5122      65446566 
 5122      00
 5123              	.LASF88:
 5124 0664 534D5052 		.ascii	"SMPR1\000"
 5124      3100
 5125              	.LASF89:
 5126 066a 534D5052 		.ascii	"SMPR2\000"
 5126      3200
 5127              	.LASF159:
 5128 0670 4750494F 		.ascii	"GPIO_Mode_Out_PP\000"
 5128      5F4D6F64 
 5128      655F4F75 
 5128      745F5050 
 5128      00
 5129              	.LASF118:
 5130 0681 41484252 		.ascii	"AHBRSTR\000"
 5130      53545200 
 5131              	.LASF152:
 5132 0689 4750494F 		.ascii	"GPIO_Speed_50MHz\000"
 5132      5F537065 
 5132      65645F35 
 5132      304D487A 
 5132      00
 5133              	.LASF113:
 5134 069a 41504231 		.ascii	"APB1RSTR\000"
 5134      52535452 
 5134      00
 5135              	.LASF94:
 5136 06a3 53515231 		.ascii	"SQR1\000"
 5136      00
 5137              	.LASF95:
 5138 06a8 53515232 		.ascii	"SQR2\000"
 5138      00
 5139              	.LASF96:
 5140 06ad 53515233 		.ascii	"SQR3\000"
 5140      00
 5141              	.LASF39:
 5142 06b2 444D4131 		.ascii	"DMA1_Channel1_IRQn\000"
 5142      5F436861 
 5142      6E6E656C 
 5142      315F4952 
 5142      516E00
 5143              	.LASF180:
 5144 06c5 6E756D5F 		.ascii	"num_char\000"
 5144      63686172 
ARM GAS  /tmp/cc4kJ8mf.s 			page 105


 5144      00
 5145              	.LASF73:
 5146 06ce 52455345 		.ascii	"RESERVED0\000"
 5146      52564544 
 5146      3000
 5147              	.LASF121:
 5148 06d8 52455345 		.ascii	"RESERVED1\000"
 5148      52564544 
 5148      3100
 5149              	.LASF77:
 5150 06e2 52455345 		.ascii	"RESERVED2\000"
 5150      52564544 
 5150      3200
 5151              	.LASF79:
 5152 06ec 52455345 		.ascii	"RESERVED3\000"
 5152      52564544 
 5152      3300
 5153              	.LASF81:
 5154 06f6 52455345 		.ascii	"RESERVED4\000"
 5154      52564544 
 5154      3400
 5155              	.LASF82:
 5156 0700 52455345 		.ascii	"RESERVED5\000"
 5156      52564544 
 5156      3500
 5157              	.LASF125:
 5158 070a 52455345 		.ascii	"RESERVED6\000"
 5158      52564544 
 5158      3600
 5159              	.LASF129:
 5160 0714 52455345 		.ascii	"RESERVED8\000"
 5160      52564544 
 5160      3800
 5161              	.LASF130:
 5162 071e 52455345 		.ascii	"RESERVED9\000"
 5162      52564544 
 5162      3900
 5163              	.LASF216:
 5164 0728 51756575 		.ascii	"QueueDefinition\000"
 5164      65446566 
 5164      696E6974 
 5164      696F6E00 
 5165              	.LASF195:
 5166 0738 7365745F 		.ascii	"set_system_clock_to_72Mhz\000"
 5166      73797374 
 5166      656D5F63 
 5166      6C6F636B 
 5166      5F746F5F 
 5167              	.LASF189:
 5168 0752 55534152 		.ascii	"USART_InitStructure\000"
 5168      545F496E 
 5168      69745374 
 5168      72756374 
 5168      75726500 
 5169              	.LASF4:
 5170 0766 756E7369 		.ascii	"unsigned char\000"
 5170      676E6564 
ARM GAS  /tmp/cc4kJ8mf.s 			page 106


 5170      20636861 
 5170      7200
 5171              	.LASF47:
 5172 0774 5553425F 		.ascii	"USB_HP_CAN1_TX_IRQn\000"
 5172      48505F43 
 5172      414E315F 
 5172      54585F49 
 5172      52516E00 
 5173              	.LASF38:
 5174 0788 45585449 		.ascii	"EXTI4_IRQn\000"
 5174      345F4952 
 5174      516E00
 5175              	.LASF151:
 5176 0793 4750494F 		.ascii	"GPIO_Speed_2MHz\000"
 5176      5F537065 
 5176      65645F32 
 5176      4D487A00 
 5177              	.LASF72:
 5178 07a3 49534552 		.ascii	"ISER\000"
 5178      00
 5179              	.LASF84:
 5180 07a8 4E564943 		.ascii	"NVIC_Type\000"
 5180      5F547970 
 5180      6500
 5181              	.LASF142:
 5182 07b2 42445452 		.ascii	"BDTR\000"
 5182      00
 5183              	.LASF105:
 5184 07b7 52455345 		.ascii	"RESERVED\000"
 5184      52564544 
 5184      00
 5185              	.LASF48:
 5186 07c0 5553425F 		.ascii	"USB_LP_CAN1_RX0_IRQn\000"
 5186      4C505F43 
 5186      414E315F 
 5186      5258305F 
 5186      4952516E 
 5187              	.LASF154:
 5188 07d5 4750494F 		.ascii	"GPIO_Mode_AIN\000"
 5188      5F4D6F64 
 5188      655F4149 
 5188      4E00
 5189              	.LASF218:
 5190 07e3 41444331 		.ascii	"ADC1_configure\000"
 5190      5F636F6E 
 5190      66696775 
 5190      726500
 5191              	.LASF115:
 5192 07f2 41504232 		.ascii	"APB2ENR\000"
 5192      454E5200 
 5193              	.LASF32:
 5194 07fa 464C4153 		.ascii	"FLASH_IRQn\000"
 5194      485F4952 
 5194      516E00
 5195              	.LASF190:
 5196 0805 64697361 		.ascii	"disable_interrupt\000"
 5196      626C655F 
ARM GAS  /tmp/cc4kJ8mf.s 			page 107


 5196      696E7465 
 5196      72727570 
 5196      7400
 5197              	.LASF71:
 5198 0817 4952516E 		.ascii	"IRQn_Type\000"
 5198      5F547970 
 5198      6500
 5199              	.LASF15:
 5200 0821 75696E74 		.ascii	"uint32_t\000"
 5200      33325F74 
 5200      00
 5201              	.LASF127:
 5202 082a 52455345 		.ascii	"RESERVED7\000"
 5202      52564544 
 5202      3700
 5203              	.LASF66:
 5204 0834 55534152 		.ascii	"USART2_IRQn\000"
 5204      54325F49 
 5204      52516E00 
 5205              	.LASF23:
 5206 0840 55736167 		.ascii	"UsageFault_IRQn\000"
 5206      65466175 
 5206      6C745F49 
 5206      52516E00 
 5207              	.LASF59:
 5208 0850 49324331 		.ascii	"I2C1_EV_IRQn\000"
 5208      5F45565F 
 5208      4952516E 
 5208      00
 5209              	.LASF2:
 5210 085d 6C6F6E67 		.ascii	"long double\000"
 5210      20646F75 
 5210      626C6500 
 5211              	.LASF106:
 5212 0869 57525052 		.ascii	"WRPR\000"
 5212      00
 5213              	.LASF41:
 5214 086e 444D4131 		.ascii	"DMA1_Channel3_IRQn\000"
 5214      5F436861 
 5214      6E6E656C 
 5214      335F4952 
 5214      516E00
 5215              	.LASF18:
 5216 0881 63686172 		.ascii	"char\000"
 5216      00
 5217              	.LASF22:
 5218 0886 42757346 		.ascii	"BusFault_IRQn\000"
 5218      61756C74 
 5218      5F495251 
 5218      6E00
 5219              	.LASF52:
 5220 0894 54494D31 		.ascii	"TIM1_BRK_IRQn\000"
 5220      5F42524B 
 5220      5F495251 
 5220      6E00
 5221              	.LASF145:
 5222 08a2 444D4152 		.ascii	"DMAR\000"
ARM GAS  /tmp/cc4kJ8mf.s 			page 108


 5222      00
 5223              	.LASF69:
 5224 08a7 52544341 		.ascii	"RTCAlarm_IRQn\000"
 5224      6C61726D 
 5224      5F495251 
 5224      6E00
 5225              	.LASF212:
 5226 08b5 55534152 		.ascii	"USART_Cmd\000"
 5226      545F436D 
 5226      6400
 5227              	.LASF168:
 5228 08bf 55534152 		.ascii	"USART_WordLength\000"
 5228      545F576F 
 5228      72644C65 
 5228      6E677468 
 5228      00
 5229              	.LASF207:
 5230 08d0 55534152 		.ascii	"USART_SendData\000"
 5230      545F5365 
 5230      6E644461 
 5230      746100
 5231              	.LASF206:
 5232 08df 64697370 		.ascii	"disp_number\000"
 5232      5F6E756D 
 5232      62657200 
 5233              	.LASF20:
 5234 08eb 4E6F6E4D 		.ascii	"NonMaskableInt_IRQn\000"
 5234      61736B61 
 5234      626C6549 
 5234      6E745F49 
 5234      52516E00 
 5235              	.LASF214:
 5236 08ff 2E2E2F35 		.ascii	"../5-PWM_LCD_SERIAL/main.c\000"
 5236      2D50574D 
 5236      5F4C4344 
 5236      5F534552 
 5236      49414C2F 
 5237              	.LASF44:
 5238 091a 444D4131 		.ascii	"DMA1_Channel6_IRQn\000"
 5238      5F436861 
 5238      6E6E656C 
 5238      365F4952 
 5238      516E00
 5239              	.LASF116:
 5240 092d 41504231 		.ascii	"APB1ENR\000"
 5240      454E5200 
 5241              	.LASF30:
 5242 0935 54414D50 		.ascii	"TAMPER_IRQn\000"
 5242      45525F49 
 5242      52516E00 
 5243              	.LASF53:
 5244 0941 54494D31 		.ascii	"TIM1_UP_IRQn\000"
 5244      5F55505F 
 5244      4952516E 
 5244      00
 5245              	.LASF70:
 5246 094e 55534257 		.ascii	"USBWakeUp_IRQn\000"
ARM GAS  /tmp/cc4kJ8mf.s 			page 109


 5246      616B6555 
 5246      705F4952 
 5246      516E00
 5247              	.LASF203:
 5248 095d 64697370 		.ascii	"disp_init\000"
 5248      5F696E69 
 5248      7400
 5249              	.LASF67:
 5250 0967 55534152 		.ascii	"USART3_IRQn\000"
 5250      54335F49 
 5250      52516E00 
 5251              	.LASF134:
 5252 0973 43435231 		.ascii	"CCR1\000"
 5252      00
 5253              	.LASF56:
 5254 0978 54494D32 		.ascii	"TIM2_IRQn\000"
 5254      5F495251 
 5254      6E00
 5255              	.LASF138:
 5256 0982 43435233 		.ascii	"CCR3\000"
 5256      00
 5257              	.LASF140:
 5258 0987 43435234 		.ascii	"CCR4\000"
 5258      00
 5259              	.LASF108:
 5260 098c 42535252 		.ascii	"BSRR\000"
 5260      00
 5261              	.LASF65:
 5262 0991 55534152 		.ascii	"USART1_IRQn\000"
 5262      54315F49 
 5262      52516E00 
 5263              	.LASF144:
 5264 099d 52455345 		.ascii	"RESERVED18\000"
 5264      52564544 
 5264      313800
 5265              	.LASF117:
 5266 09a8 42444352 		.ascii	"BDCR\000"
 5266      00
 5267              	.LASF146:
 5268 09ad 52455345 		.ascii	"RESERVED19\000"
 5268      52564544 
 5268      313900
 5269              	.LASF90:
 5270 09b8 4A4F4652 		.ascii	"JOFR1\000"
 5270      3100
 5271              	.LASF119:
 5272 09be 43464752 		.ascii	"CFGR2\000"
 5272      3200
 5273              	.LASF13:
 5274 09c4 75696E74 		.ascii	"uint8_t\000"
 5274      385F7400 
 5275              	.LASF75:
 5276 09cc 52534552 		.ascii	"RSERVED1\000"
 5276      56454431 
 5276      00
 5277              	.LASF83:
 5278 09d5 53544952 		.ascii	"STIR\000"
ARM GAS  /tmp/cc4kJ8mf.s 			page 110


 5278      00
 5279              	.LASF98:
 5280 09da 4A445231 		.ascii	"JDR1\000"
 5280      00
 5281              	.LASF99:
 5282 09df 4A445232 		.ascii	"JDR2\000"
 5282      00
 5283              	.LASF100:
 5284 09e4 4A445233 		.ascii	"JDR3\000"
 5284      00
 5285              	.LASF101:
 5286 09e9 4A445234 		.ascii	"JDR4\000"
 5286      00
 5287              	.LASF45:
 5288 09ee 444D4131 		.ascii	"DMA1_Channel7_IRQn\000"
 5288      5F436861 
 5288      6E6E656C 
 5288      375F4952 
 5288      516E00
 5289              	.LASF111:
 5290 0a01 43464752 		.ascii	"CFGR\000"
 5290      00
 5291              	.LASF162:
 5292 0a06 4750494F 		.ascii	"GPIOMode_TypeDef\000"
 5292      4D6F6465 
 5292      5F547970 
 5292      65446566 
 5292      00
 5293              	.LASF60:
 5294 0a17 49324331 		.ascii	"I2C1_ER_IRQn\000"
 5294      5F45525F 
 5294      4952516E 
 5294      00
 5295              	.LASF107:
 5296 0a24 464C4153 		.ascii	"FLASH_TypeDef\000"
 5296      485F5479 
 5296      70654465 
 5296      6600
 5297              	.LASF178:
 5298 0a32 61726773 		.ascii	"args\000"
 5298      00
 5299              	.LASF217:
 5300 0a37 6D61696E 		.ascii	"main\000"
 5300      00
 5301              	.LASF174:
 5302 0a3c 66696C61 		.ascii	"fila_ADC\000"
 5302      5F414443 
 5302      00
 5303              	.LASF50:
 5304 0a45 43414E31 		.ascii	"CAN1_SCE_IRQn\000"
 5304      5F534345 
 5304      5F495251 
 5304      6E00
 5305              	.LASF33:
 5306 0a53 5243435F 		.ascii	"RCC_IRQn\000"
 5306      4952516E 
 5306      00
ARM GAS  /tmp/cc4kJ8mf.s 			page 111


 5307              	.LASF57:
 5308 0a5c 54494D33 		.ascii	"TIM3_IRQn\000"
 5308      5F495251 
 5308      6E00
 5309              	.LASF35:
 5310 0a66 45585449 		.ascii	"EXTI1_IRQn\000"
 5310      315F4952 
 5310      516E00
 5311              		.ident	"GCC: (GNU Arm Embedded Toolchain 10.3-2021.10) 10.3.1 20210824 (release)"
ARM GAS  /tmp/cc4kJ8mf.s 			page 112


DEFINED SYMBOLS
                            *ABS*:0000000000000000 main.c
     /tmp/cc4kJ8mf.s:78     .text:0000000000000000 $t
     /tmp/cc4kJ8mf.s:83     .text:0000000000000000 task4
     /tmp/cc4kJ8mf.s:137    .text:0000000000000024 $d
     /tmp/cc4kJ8mf.s:141    .text:0000000000000028 $t
     /tmp/cc4kJ8mf.s:146    .text:0000000000000028 task2
     /tmp/cc4kJ8mf.s:203    .text:0000000000000050 $d
     /tmp/cc4kJ8mf.s:214    .text:0000000000000058 $t
     /tmp/cc4kJ8mf.s:219    .text:0000000000000058 task1
     /tmp/cc4kJ8mf.s:337    .text:00000000000000dc $d
     /tmp/cc4kJ8mf.s:345    .text:00000000000000f0 $t
     /tmp/cc4kJ8mf.s:351    .text:00000000000000f0 ADC1_configure
     /tmp/cc4kJ8mf.s:479    .text:0000000000000170 $d
     /tmp/cc4kJ8mf.s:485    .text:000000000000017c $t
     /tmp/cc4kJ8mf.s:491    .text:000000000000017c set_system_clock_to_72Mhz
     /tmp/cc4kJ8mf.s:599    .text:00000000000001ec $d
     /tmp/cc4kJ8mf.s:603    .text:00000000000001f0 $t
     /tmp/cc4kJ8mf.s:609    .text:00000000000001f0 Delay
     /tmp/cc4kJ8mf.s:680    .text:000000000000021c $d
     /tmp/cc4kJ8mf.s:684    .text:0000000000000220 $t
     /tmp/cc4kJ8mf.s:690    .text:0000000000000220 enable_TIM3_delay
     /tmp/cc4kJ8mf.s:728    .text:0000000000000244 $d
     /tmp/cc4kJ8mf.s:732    .text:0000000000000248 $t
     /tmp/cc4kJ8mf.s:738    .text:0000000000000248 enable_interrupt
     /tmp/cc4kJ8mf.s:770    .text:000000000000025c $d
     /tmp/cc4kJ8mf.s:774    .text:0000000000000260 $t
     /tmp/cc4kJ8mf.s:780    .text:0000000000000260 disable_interrupt
     /tmp/cc4kJ8mf.s:813    .text:0000000000000278 $d
     /tmp/cc4kJ8mf.s:817    .text:000000000000027c $t
     /tmp/cc4kJ8mf.s:823    .text:000000000000027c USART_init
     /tmp/cc4kJ8mf.s:936    .text:00000000000002e8 $d
     /tmp/cc4kJ8mf.s:940    .text:00000000000002ec $t
     /tmp/cc4kJ8mf.s:946    .text:00000000000002ec USARTSend
     /tmp/cc4kJ8mf.s:1005   .text:0000000000000310 $d
     /tmp/cc4kJ8mf.s:1016   .text:0000000000000314 $t
     /tmp/cc4kJ8mf.s:1021   .text:0000000000000314 task3
     /tmp/cc4kJ8mf.s:1109   .text:000000000000035c $d
     /tmp/cc4kJ8mf.s:1125   .text.startup:0000000000000000 $t
     /tmp/cc4kJ8mf.s:1131   .text.startup:0000000000000000 main
     /tmp/cc4kJ8mf.s:1210   .text.startup:0000000000000060 $d
     /tmp/cc4kJ8mf.s:1223   .bss:0000000000000000 $d
     /tmp/cc4kJ8mf.s:1227   .bss:0000000000000000 fila_ADC

UNDEFINED SYMBOLS
xQueueGenericSend
vTaskDelay
disp_init
disp_cmd
disp_text
disp_number
RCC_APB2PeriphClockCmd
GPIO_Init
USART_Init
USART_Cmd
USART_SendData
USART_GetFlagStatus
ARM GAS  /tmp/cc4kJ8mf.s 			page 113


xQueueReceive
itoa
xQueueGenericCreate
xTaskCreate
vTaskStartScheduler
