ARM GAS  /tmp/ccTw5KR6.s 			page 1


   1              		.cpu cortex-m3
   2              		.arch armv7-m
   3              		.fpu softvfp
   4              		.eabi_attribute 20, 1	@ Tag_ABI_FP_denormal
   5              		.eabi_attribute 21, 1	@ Tag_ABI_FP_exceptions
   6              		.eabi_attribute 23, 3	@ Tag_ABI_FP_number_model
   7              		.eabi_attribute 24, 1	@ Tag_ABI_align8_needed
   8              		.eabi_attribute 25, 1	@ Tag_ABI_align8_preserved
   9              		.eabi_attribute 26, 1	@ Tag_ABI_enum_size
  10              		.eabi_attribute 30, 4	@ Tag_ABI_optimization_goals
  11              		.eabi_attribute 34, 1	@ Tag_CPU_unaligned_access
  12              		.eabi_attribute 18, 4	@ Tag_ABI_PCS_wchar_t
  13              		.file	"main.c"
  14              	@ GNU C17 (GNU Arm Embedded Toolchain 10.3-2021.10) version 10.3.1 20210824 (release) (arm-none-eab
  15              	@	compiled by GNU C version 4.8.4, GMP version 6.1.0, MPFR version 3.1.4, MPC version 1.0.3, isl ve
  16              	
  17              	@ GGC heuristics: --param ggc-min-expand=100 --param ggc-min-heapsize=131072
  18              	@ options passed:  -I . -I ../5-PWM_LCD_SERIAL
  19              	@ -I ../stm32f10x_lib/CMSIS/CM3/CoreSupport
  20              	@ -I ../stm32f10x_lib/CMSIS/CM3/DeviceSupport/ST/STM32F10x
  21              	@ -I ../stm32f10x_lib/STM32F10x_StdPeriph_Driver/inc
  22              	@ -I ../stm32f10x_lib/STM32F10x_StdPeriph_Driver -I ../freertos/include
  23              	@ -I ../freertos/portable/GCC/ARM_CM3 -imultilib thumb/v7-m/nofp
  24              	@ -iprefix /usr/bin/../lib/gcc/arm-none-eabi/10.3.1/
  25              	@ -isysroot /usr/bin/../arm-none-eabi -D__USES_INITFINI__ -D STM32F10X_MD
  26              	@ -D USE_STDPERIPH_DRIVER -D HSE_VALUE=8000000 -D RUN_FROM_FLASH=1
  27              	@ ../5-PWM_LCD_SERIAL/main.c -mcpu=cortex-m3 -mthumb -mfloat-abi=soft
  28              	@ -mlibarch=armv7-m -march=armv7-m
  29              	@ -auxbase-strip ../5-PWM_LCD_SERIAL/main.o -g -gdwarf-2 -Os -Wall
  30              	@ -fomit-frame-pointer -fverbose-asm
  31              	@ options enabled:  -faggressive-loop-optimizations -fallocation-dce
  32              	@ -fauto-inc-dec -fbranch-count-reg -fcaller-saves -fcode-hoisting
  33              	@ -fcombine-stack-adjustments -fcompare-elim -fcprop-registers
  34              	@ -fcrossjumping -fcse-follow-jumps -fdefer-pop
  35              	@ -fdelete-null-pointer-checks -fdevirtualize -fdevirtualize-speculatively
  36              	@ -fdwarf2-cfi-asm -fearly-inlining -feliminate-unused-debug-symbols
  37              	@ -feliminate-unused-debug-types -fexpensive-optimizations
  38              	@ -fforward-propagate -ffp-int-builtin-inexact -ffunction-cse -fgcse
  39              	@ -fgcse-lm -fgnu-unique -fguess-branch-probability -fhoist-adjacent-loads
  40              	@ -fident -fif-conversion -fif-conversion2 -findirect-inlining -finline
  41              	@ -finline-atomics -finline-functions -finline-functions-called-once
  42              	@ -finline-small-functions -fipa-bit-cp -fipa-cp -fipa-icf
  43              	@ -fipa-icf-functions -fipa-icf-variables -fipa-profile -fipa-pure-const
  44              	@ -fipa-ra -fipa-reference -fipa-reference-addressable -fipa-sra
  45              	@ -fipa-stack-alignment -fipa-vrp -fira-hoist-pressure
  46              	@ -fira-share-save-slots -fira-share-spill-slots
  47              	@ -fisolate-erroneous-paths-dereference -fivopts -fkeep-static-consts
  48              	@ -fleading-underscore -flifetime-dse -flra-remat -fmath-errno
  49              	@ -fmerge-constants -fmerge-debug-strings -fmove-loop-invariants
  50              	@ -fomit-frame-pointer -foptimize-sibling-calls -fpartial-inlining
  51              	@ -fpeephole -fpeephole2 -fplt -fprefetch-loop-arrays -freg-struct-return
  52              	@ -freorder-blocks -freorder-functions -frerun-cse-after-loop
  53              	@ -fsched-critical-path-heuristic -fsched-dep-count-heuristic
  54              	@ -fsched-group-heuristic -fsched-interblock -fsched-last-insn-heuristic
  55              	@ -fsched-pressure -fsched-rank-heuristic -fsched-spec
  56              	@ -fsched-spec-insn-heuristic -fsched-stalled-insns-dep -fschedule-insns2
  57              	@ -fsection-anchors -fsemantic-interposition -fshow-column
ARM GAS  /tmp/ccTw5KR6.s 			page 2


  58              	@ -fshrink-wrap-separate -fsigned-zeros -fsplit-ivs-in-unroller
  59              	@ -fsplit-wide-types -fssa-backprop -fssa-phiopt -fstdarg-opt
  60              	@ -fstore-merging -fstrict-aliasing -fstrict-volatile-bitfields
  61              	@ -fsync-libcalls -fthread-jumps -ftoplevel-reorder -ftrapping-math
  62              	@ -ftree-bit-ccp -ftree-builtin-call-dce -ftree-ccp -ftree-ch
  63              	@ -ftree-coalesce-vars -ftree-copy-prop -ftree-cselim -ftree-dce
  64              	@ -ftree-dominator-opts -ftree-dse -ftree-forwprop -ftree-fre
  65              	@ -ftree-loop-distribute-patterns -ftree-loop-if-convert -ftree-loop-im
  66              	@ -ftree-loop-ivcanon -ftree-loop-optimize -ftree-parallelize-loops=
  67              	@ -ftree-phiprop -ftree-pre -ftree-pta -ftree-reassoc -ftree-scev-cprop
  68              	@ -ftree-sink -ftree-slsr -ftree-sra -ftree-switch-conversion
  69              	@ -ftree-tail-merge -ftree-ter -ftree-vrp -funit-at-a-time -fvar-tracking
  70              	@ -fvar-tracking-assignments -fverbose-asm -fzero-initialized-in-bss
  71              	@ -masm-syntax-unified -mbe32 -mfix-cortex-m3-ldrd -mlittle-endian
  72              	@ -mpic-data-is-text-relative -msched-prolog -mthumb -munaligned-access
  73              	@ -mvectorize-with-neon-quad
  74              	
  75              		.text
  76              	.Ltext0:
  77              		.cfi_sections	.debug_frame
  78              		.align	1
  79              		.syntax unified
  80              		.thumb
  81              		.thumb_func
  82              		.type	task3, %function
  83              	task3:
  84              	.LFB46:
  85              		.file 1 "../5-PWM_LCD_SERIAL/main.c"
   1:../5-PWM_LCD_SERIAL/main.c **** /*
   2:../5-PWM_LCD_SERIAL/main.c ****  * Projeto LCD
   3:../5-PWM_LCD_SERIAL/main.c ****  *		Modificações necessárias: 
   4:../5-PWM_LCD_SERIAL/main.c ****  *		  FreeRTOSConfig:
   5:../5-PWM_LCD_SERIAL/main.c ****  *			 TICK_RATE_HZ definido em (100000)Hz -> 1µs
   6:../5-PWM_LCD_SERIAL/main.c ****  *
   7:../5-PWM_LCD_SERIAL/main.c ****  *	Clock do sistema: 
   8:../5-PWM_LCD_SERIAL/main.c ****  *		72Mhz
   9:../5-PWM_LCD_SERIAL/main.c ****  *	
  10:../5-PWM_LCD_SERIAL/main.c ****  *	Lib construída para Arduíno UNO:
  11:../5-PWM_LCD_SERIAL/main.c ****  *		myLcd.h
  12:../5-PWM_LCD_SERIAL/main.c ****  *			#define delayMicroseconds(X)   vTaskDelay(X)
  13:../5-PWM_LCD_SERIAL/main.c ****  *			#define delay(X)  vTaskDelay(X)
  14:../5-PWM_LCD_SERIAL/main.c ****  * */
  15:../5-PWM_LCD_SERIAL/main.c **** //
  16:../5-PWM_LCD_SERIAL/main.c **** // FreeRTOS: 
  17:../5-PWM_LCD_SERIAL/main.c **** 
  18:../5-PWM_LCD_SERIAL/main.c **** #include "FreeRTOS.h"
  19:../5-PWM_LCD_SERIAL/main.c **** #include "queue.h"
  20:../5-PWM_LCD_SERIAL/main.c **** #include "task.h"
  21:../5-PWM_LCD_SERIAL/main.c **** 
  22:../5-PWM_LCD_SERIAL/main.c **** // #include <string.h>
  23:../5-PWM_LCD_SERIAL/main.c **** #include <stdlib.h>
  24:../5-PWM_LCD_SERIAL/main.c **** 
  25:../5-PWM_LCD_SERIAL/main.c **** #define __delay_ms( TEMPO ) vTaskDelay(pdMS_TO_TICKS( TEMPO ))
  26:../5-PWM_LCD_SERIAL/main.c **** #define __delay( TEMPO ) vTaskDelay( TEMPO )
  27:../5-PWM_LCD_SERIAL/main.c **** 
  28:../5-PWM_LCD_SERIAL/main.c **** #include "stm32f10x.h"
  29:../5-PWM_LCD_SERIAL/main.c **** #include "Me.h"
ARM GAS  /tmp/ccTw5KR6.s 			page 3


  30:../5-PWM_LCD_SERIAL/main.c **** 
  31:../5-PWM_LCD_SERIAL/main.c **** // LCD 16x2
  32:../5-PWM_LCD_SERIAL/main.c **** #include "myLcd.h"
  33:../5-PWM_LCD_SERIAL/main.c **** // #include "Serial.h"
  34:../5-PWM_LCD_SERIAL/main.c **** #include "PWM.h"
  35:../5-PWM_LCD_SERIAL/main.c **** 
  36:../5-PWM_LCD_SERIAL/main.c **** 
  37:../5-PWM_LCD_SERIAL/main.c **** #define BIN 2
  38:../5-PWM_LCD_SERIAL/main.c **** #define OCT 8
  39:../5-PWM_LCD_SERIAL/main.c **** #define DEC 10
  40:../5-PWM_LCD_SERIAL/main.c **** #define HEX 16
  41:../5-PWM_LCD_SERIAL/main.c **** 
  42:../5-PWM_LCD_SERIAL/main.c **** static QueueHandle_t fila_ADC; 
  43:../5-PWM_LCD_SERIAL/main.c **** static QueueHandle_t LCD_Flag_queue; 
  44:../5-PWM_LCD_SERIAL/main.c **** 
  45:../5-PWM_LCD_SERIAL/main.c **** static void task1(void *args __attribute((unused))) {
  46:../5-PWM_LCD_SERIAL/main.c **** 	/* [2---]
  47:../5-PWM_LCD_SERIAL/main.c **** 	 *
  48:../5-PWM_LCD_SERIAL/main.c **** 	 * Tarefa dedicada em mostrar informações no LCD 16x2.
  49:../5-PWM_LCD_SERIAL/main.c **** 	 * Informações de temperatura, ficando aberto para mais
  50:../5-PWM_LCD_SERIAL/main.c **** 	 * funcionalidades
  51:../5-PWM_LCD_SERIAL/main.c **** 	 * 
  52:../5-PWM_LCD_SERIAL/main.c **** 	 * */
  53:../5-PWM_LCD_SERIAL/main.c **** 
  54:../5-PWM_LCD_SERIAL/main.c **** 	RCC->APB2ENR |= (1<<2);
  55:../5-PWM_LCD_SERIAL/main.c **** 	GPIOA->CRL	 |= 0x33333300; // Hab PA(2-7) out PP
  56:../5-PWM_LCD_SERIAL/main.c **** 
  57:../5-PWM_LCD_SERIAL/main.c **** 	set_bit(IO,RS); 	set_bit(IO,RS);
  58:../5-PWM_LCD_SERIAL/main.c **** 	set_bit(IO,EN); 	set_bit(IO,D4);
  59:../5-PWM_LCD_SERIAL/main.c **** 	set_bit(IO,D5); 	set_bit(IO,D6);
  60:../5-PWM_LCD_SERIAL/main.c **** 	set_bit(IO,D7);   disp_init();
  61:../5-PWM_LCD_SERIAL/main.c **** 
  62:../5-PWM_LCD_SERIAL/main.c ****   disp_cmd(0x0C);
  63:../5-PWM_LCD_SERIAL/main.c **** 
  64:../5-PWM_LCD_SERIAL/main.c ****   disp_text("Teste De\\ !&(#@!%@",0,0);
  65:../5-PWM_LCD_SERIAL/main.c ****   u8 cont = 0;
  66:../5-PWM_LCD_SERIAL/main.c **** 	while(1){
  67:../5-PWM_LCD_SERIAL/main.c **** 
  68:../5-PWM_LCD_SERIAL/main.c **** 		cont ++;
  69:../5-PWM_LCD_SERIAL/main.c **** 		cont &= 0x00ff;
  70:../5-PWM_LCD_SERIAL/main.c **** 		disp_text("CONTADOR: ", 1, 0);
  71:../5-PWM_LCD_SERIAL/main.c **** 		disp_number( cont, 1, 11);
  72:../5-PWM_LCD_SERIAL/main.c **** 		__delay_ms(10);
  73:../5-PWM_LCD_SERIAL/main.c **** 		
  74:../5-PWM_LCD_SERIAL/main.c **** 	}
  75:../5-PWM_LCD_SERIAL/main.c **** }
  76:../5-PWM_LCD_SERIAL/main.c **** 
  77:../5-PWM_LCD_SERIAL/main.c **** static void task2(void *args __attribute ((unused))){
  78:../5-PWM_LCD_SERIAL/main.c **** 	RCC->APB2ENR |= (1<<4); // En GPIOC
  79:../5-PWM_LCD_SERIAL/main.c **** 	GPIOC->CRH	|= (0b11<< 20); // PC13 out PP 
  80:../5-PWM_LCD_SERIAL/main.c **** 
  81:../5-PWM_LCD_SERIAL/main.c **** 	while(1){
  82:../5-PWM_LCD_SERIAL/main.c **** 		GPIOC->ODR	^= (1<<13);
  83:../5-PWM_LCD_SERIAL/main.c **** 		__delay_ms(50);
  84:../5-PWM_LCD_SERIAL/main.c **** 	}
  85:../5-PWM_LCD_SERIAL/main.c **** }
  86:../5-PWM_LCD_SERIAL/main.c **** 
ARM GAS  /tmp/ccTw5KR6.s 			page 4


  87:../5-PWM_LCD_SERIAL/main.c **** static void task3(void *args __attribute ((unused))){
  86              		.loc 1 87 53 view -0
  87              		.cfi_startproc
  88              		@ Volatile: function does not return.
  89              		@ args = 0, pretend = 0, frame = 0
  90              		@ frame_needed = 0, uses_anonymous_args = 0
  91              		@ link register save eliminated.
  92              	.LVL0:
  93              	.L2:
  88:../5-PWM_LCD_SERIAL/main.c **** 	/* [1---]
  89:../5-PWM_LCD_SERIAL/main.c **** 	 *
  90:../5-PWM_LCD_SERIAL/main.c **** 	 * Tarefa dedicada a leitura do sensor de temperatura e
  91:../5-PWM_LCD_SERIAL/main.c **** 	 * humidade do ar.
  92:../5-PWM_LCD_SERIAL/main.c **** 	 *
  93:../5-PWM_LCD_SERIAL/main.c **** 	 * O valor amostrado deve ser transmitido a cada 500ms
  94:../5-PWM_LCD_SERIAL/main.c **** 	 * usando área de memória compartilhada. -> [2---]
  95:../5-PWM_LCD_SERIAL/main.c **** 	 *
  96:../5-PWM_LCD_SERIAL/main.c **** 	 * */
  97:../5-PWM_LCD_SERIAL/main.c **** 
  98:../5-PWM_LCD_SERIAL/main.c **** 	while(1){
  94              		.loc 1 98 2 discriminator 1 view .LVU1
  99:../5-PWM_LCD_SERIAL/main.c **** 		
 100:../5-PWM_LCD_SERIAL/main.c **** 	}
  95              		.loc 1 100 2 discriminator 1 view .LVU2
  98:../5-PWM_LCD_SERIAL/main.c **** 		
  96              		.loc 1 98 7 discriminator 1 view .LVU3
  97 0000 FEE7     		b	.L2		@
  98              		.cfi_endproc
  99              	.LFE46:
 100              		.size	task3, .-task3
 101              		.align	1
 102              		.syntax unified
 103              		.thumb
 104              		.thumb_func
 105              		.type	task4, %function
 106              	task4:
 107              	.LFB47:
 101:../5-PWM_LCD_SERIAL/main.c **** }
 102:../5-PWM_LCD_SERIAL/main.c **** 
 103:../5-PWM_LCD_SERIAL/main.c **** static void task4(void *args __attribute ((unused))){
 108              		.loc 1 103 53 view -0
 109              		.cfi_startproc
 110              		@ Volatile: function does not return.
 111              		@ args = 0, pretend = 0, frame = 0
 112              		@ frame_needed = 0, uses_anonymous_args = 0
 113              		@ link register save eliminated.
 114              	.LVL1:
 115              	.L4:
 104:../5-PWM_LCD_SERIAL/main.c **** 	/* [3---]
 105:../5-PWM_LCD_SERIAL/main.c **** 	 * Tarefa dedicada a leitura de botões para controlar o
 106:../5-PWM_LCD_SERIAL/main.c **** 	 * PWM -> ajuste de contraste.
 107:../5-PWM_LCD_SERIAL/main.c **** 	 * */
 108:../5-PWM_LCD_SERIAL/main.c **** 	while(1){
 116              		.loc 1 108 2 discriminator 1 view .LVU5
 109:../5-PWM_LCD_SERIAL/main.c **** 		
 110:../5-PWM_LCD_SERIAL/main.c **** 	}
 117              		.loc 1 110 2 discriminator 1 view .LVU6
ARM GAS  /tmp/ccTw5KR6.s 			page 5


 108:../5-PWM_LCD_SERIAL/main.c **** 		
 118              		.loc 1 108 7 discriminator 1 view .LVU7
 119 0002 FEE7     		b	.L4		@
 120              		.cfi_endproc
 121              	.LFE47:
 122              		.size	task4, .-task4
 123              		.align	1
 124              		.syntax unified
 125              		.thumb
 126              		.thumb_func
 127              		.type	task2, %function
 128              	task2:
 129              	.LVL2:
 130              	.LFB45:
  77:../5-PWM_LCD_SERIAL/main.c **** 	RCC->APB2ENR |= (1<<4); // En GPIOC
 131              		.loc 1 77 53 view -0
 132              		.cfi_startproc
 133              		@ Volatile: function does not return.
 134              		@ args = 0, pretend = 0, frame = 0
 135              		@ frame_needed = 0, uses_anonymous_args = 0
  78:../5-PWM_LCD_SERIAL/main.c **** 	GPIOC->CRH	|= (0b11<< 20); // PC13 out PP 
 136              		.loc 1 78 2 view .LVU9
 137              	@ ../5-PWM_LCD_SERIAL/main.c:78: 	RCC->APB2ENR |= (1<<4); // En GPIOC
  78:../5-PWM_LCD_SERIAL/main.c **** 	GPIOC->CRH	|= (0b11<< 20); // PC13 out PP 
 138              		.loc 1 78 15 is_stmt 0 view .LVU10
 139 0004 094A     		ldr	r2, .L7	@ tmp120,
 140              	@ ../5-PWM_LCD_SERIAL/main.c:77: static void task2(void *args __attribute ((unused))){
  77:../5-PWM_LCD_SERIAL/main.c **** 	RCC->APB2ENR |= (1<<4); // En GPIOC
 141              		.loc 1 77 53 view .LVU11
 142 0006 08B5     		push	{r3, lr}	@
 143              	.LCFI0:
 144              		.cfi_def_cfa_offset 8
 145              		.cfi_offset 3, -8
 146              		.cfi_offset 14, -4
 147              	@ ../5-PWM_LCD_SERIAL/main.c:78: 	RCC->APB2ENR |= (1<<4); // En GPIOC
  78:../5-PWM_LCD_SERIAL/main.c **** 	GPIOC->CRH	|= (0b11<< 20); // PC13 out PP 
 148              		.loc 1 78 15 view .LVU12
 149 0008 9369     		ldr	r3, [r2, #24]	@ _1, MEM[(struct RCC_TypeDef *)1073876992B].APB2ENR
 150              	@ ../5-PWM_LCD_SERIAL/main.c:79: 	GPIOC->CRH	|= (0b11<< 20); // PC13 out PP 
  79:../5-PWM_LCD_SERIAL/main.c **** 
 151              		.loc 1 79 13 view .LVU13
 152 000a 094C     		ldr	r4, .L7+4	@ tmp122,
 153              	@ ../5-PWM_LCD_SERIAL/main.c:78: 	RCC->APB2ENR |= (1<<4); // En GPIOC
  78:../5-PWM_LCD_SERIAL/main.c **** 	GPIOC->CRH	|= (0b11<< 20); // PC13 out PP 
 154              		.loc 1 78 15 view .LVU14
 155 000c 43F01003 		orr	r3, r3, #16	@ _2, _1,
 156 0010 9361     		str	r3, [r2, #24]	@ _2, MEM[(struct RCC_TypeDef *)1073876992B].APB2ENR
  79:../5-PWM_LCD_SERIAL/main.c **** 
 157              		.loc 1 79 2 is_stmt 1 view .LVU15
 158              	@ ../5-PWM_LCD_SERIAL/main.c:79: 	GPIOC->CRH	|= (0b11<< 20); // PC13 out PP 
  79:../5-PWM_LCD_SERIAL/main.c **** 
 159              		.loc 1 79 13 is_stmt 0 view .LVU16
 160 0012 6368     		ldr	r3, [r4, #4]	@ _3, MEM[(struct GPIO_TypeDef *)1073811456B].CRH
 161 0014 43F44013 		orr	r3, r3, #3145728	@ _4, _3,
 162 0018 6360     		str	r3, [r4, #4]	@ _4, MEM[(struct GPIO_TypeDef *)1073811456B].CRH
 163              	.LVL3:
 164              	.L6:
ARM GAS  /tmp/ccTw5KR6.s 			page 6


  81:../5-PWM_LCD_SERIAL/main.c **** 		GPIOC->ODR	^= (1<<13);
 165              		.loc 1 81 2 is_stmt 1 discriminator 1 view .LVU17
  82:../5-PWM_LCD_SERIAL/main.c **** 		__delay_ms(50);
 166              		.loc 1 82 3 discriminator 1 view .LVU18
 167              	@ ../5-PWM_LCD_SERIAL/main.c:82: 		GPIOC->ODR	^= (1<<13);
  82:../5-PWM_LCD_SERIAL/main.c **** 		__delay_ms(50);
 168              		.loc 1 82 14 is_stmt 0 discriminator 1 view .LVU19
 169 001a E368     		ldr	r3, [r4, #12]	@ _5, MEM[(struct GPIO_TypeDef *)1073811456B].ODR
 170              	@ ../5-PWM_LCD_SERIAL/main.c:83: 		__delay_ms(50);
  83:../5-PWM_LCD_SERIAL/main.c **** 	}
 171              		.loc 1 83 3 discriminator 1 view .LVU20
 172 001c 41F28830 		movw	r0, #5000	@,
 173              	@ ../5-PWM_LCD_SERIAL/main.c:82: 		GPIOC->ODR	^= (1<<13);
  82:../5-PWM_LCD_SERIAL/main.c **** 		__delay_ms(50);
 174              		.loc 1 82 14 discriminator 1 view .LVU21
 175 0020 83F40053 		eor	r3, r3, #8192	@ _6, _5,
 176 0024 E360     		str	r3, [r4, #12]	@ _6, MEM[(struct GPIO_TypeDef *)1073811456B].ODR
  83:../5-PWM_LCD_SERIAL/main.c **** 	}
 177              		.loc 1 83 3 is_stmt 1 discriminator 1 view .LVU22
 178 0026 FFF7FEFF 		bl	vTaskDelay		@
 179              	.LVL4:
  81:../5-PWM_LCD_SERIAL/main.c **** 		GPIOC->ODR	^= (1<<13);
 180              		.loc 1 81 7 discriminator 1 view .LVU23
 181 002a F6E7     		b	.L6		@
 182              	.L8:
 183              		.align	2
 184              	.L7:
 185 002c 00100240 		.word	1073876992
 186 0030 00100140 		.word	1073811456
 187              		.cfi_endproc
 188              	.LFE45:
 189              		.size	task2, .-task2
 190              		.section	.rodata.str1.1,"aMS",%progbits,1
 191              	.LC0:
 192 0000 54657374 		.ascii	"Teste De\\ !&(#@!%@\000"
 192      65204465 
 192      5C202126 
 192      28234021 
 192      254000
 193              	.LC1:
 194 0013 434F4E54 		.ascii	"CONTADOR: \000"
 194      41444F52 
 194      3A2000
 195              		.text
 196              		.align	1
 197              		.syntax unified
 198              		.thumb
 199              		.thumb_func
 200              		.type	task1, %function
 201              	task1:
 202              	.LVL5:
 203              	.LFB44:
  45:../5-PWM_LCD_SERIAL/main.c **** 	/* [2---]
 204              		.loc 1 45 53 view -0
 205              		.cfi_startproc
 206              		@ args = 0, pretend = 0, frame = 0
 207              		@ frame_needed = 0, uses_anonymous_args = 0
ARM GAS  /tmp/ccTw5KR6.s 			page 7


  54:../5-PWM_LCD_SERIAL/main.c **** 	GPIOA->CRL	 |= 0x33333300; // Hab PA(2-7) out PP
 208              		.loc 1 54 2 view .LVU25
 209              	@ ../5-PWM_LCD_SERIAL/main.c:54: 	RCC->APB2ENR |= (1<<2);
  54:../5-PWM_LCD_SERIAL/main.c **** 	GPIOA->CRL	 |= 0x33333300; // Hab PA(2-7) out PP
 210              		.loc 1 54 15 is_stmt 0 view .LVU26
 211 0034 224A     		ldr	r2, .L11	@ tmp134,
 212              	@ ../5-PWM_LCD_SERIAL/main.c:45: static void task1(void *args __attribute((unused))) {
  45:../5-PWM_LCD_SERIAL/main.c **** 	/* [2---]
 213              		.loc 1 45 53 view .LVU27
 214 0036 38B5     		push	{r3, r4, r5, lr}	@
 215              	.LCFI1:
 216              		.cfi_def_cfa_offset 16
 217              		.cfi_offset 3, -16
 218              		.cfi_offset 4, -12
 219              		.cfi_offset 5, -8
 220              		.cfi_offset 14, -4
 221              	@ ../5-PWM_LCD_SERIAL/main.c:54: 	RCC->APB2ENR |= (1<<2);
  54:../5-PWM_LCD_SERIAL/main.c **** 	GPIOA->CRL	 |= 0x33333300; // Hab PA(2-7) out PP
 222              		.loc 1 54 15 view .LVU28
 223 0038 9369     		ldr	r3, [r2, #24]	@ _1, MEM[(struct RCC_TypeDef *)1073876992B].APB2ENR
 224              	@ ../5-PWM_LCD_SERIAL/main.c:65:   u8 cont = 0;
  65:../5-PWM_LCD_SERIAL/main.c **** 	while(1){
 225              		.loc 1 65 6 view .LVU29
 226 003a 0024     		movs	r4, #0	@ cont,
 227              	@ ../5-PWM_LCD_SERIAL/main.c:54: 	RCC->APB2ENR |= (1<<2);
  54:../5-PWM_LCD_SERIAL/main.c **** 	GPIOA->CRL	 |= 0x33333300; // Hab PA(2-7) out PP
 228              		.loc 1 54 15 view .LVU30
 229 003c 43F00403 		orr	r3, r3, #4	@ _2, _1,
 230 0040 9361     		str	r3, [r2, #24]	@ _2, MEM[(struct RCC_TypeDef *)1073876992B].APB2ENR
  55:../5-PWM_LCD_SERIAL/main.c **** 
 231              		.loc 1 55 2 is_stmt 1 view .LVU31
 232              	@ ../5-PWM_LCD_SERIAL/main.c:55: 	GPIOA->CRL	 |= 0x33333300; // Hab PA(2-7) out PP
  55:../5-PWM_LCD_SERIAL/main.c **** 
 233              		.loc 1 55 14 is_stmt 0 view .LVU32
 234 0042 204B     		ldr	r3, .L11+4	@ tmp136,
 235              	@ ../5-PWM_LCD_SERIAL/main.c:70: 		disp_text("CONTADOR: ", 1, 0);
  70:../5-PWM_LCD_SERIAL/main.c **** 		disp_number( cont, 1, 11);
 236              		.loc 1 70 3 view .LVU33
 237 0044 204D     		ldr	r5, .L11+8	@ tmp158,
 238              	@ ../5-PWM_LCD_SERIAL/main.c:55: 	GPIOA->CRL	 |= 0x33333300; // Hab PA(2-7) out PP
  55:../5-PWM_LCD_SERIAL/main.c **** 
 239              		.loc 1 55 14 view .LVU34
 240 0046 1A68     		ldr	r2, [r3]	@ _3, MEM[(struct GPIO_TypeDef *)1073809408B].CRL
 241 0048 42F03322 		orr	r2, r2, #855651072	@ _4, _3,
 242 004c 42F44C12 		orr	r2, r2, #3342336	@ _4, _4,
 243 0050 1A60     		str	r2, [r3]	@ _4, MEM[(struct GPIO_TypeDef *)1073809408B].CRL
  57:../5-PWM_LCD_SERIAL/main.c **** 	set_bit(IO,EN); 	set_bit(IO,D4);
 244              		.loc 1 57 2 is_stmt 1 view .LVU35
 245 0052 DA68     		ldr	r2, [r3, #12]	@ _5, MEM[(struct GPIO_TypeDef *)1073809408B].ODR
 246 0054 42F08002 		orr	r2, r2, #128	@ _6, _5,
 247 0058 DA60     		str	r2, [r3, #12]	@ _6, MEM[(struct GPIO_TypeDef *)1073809408B].ODR
  57:../5-PWM_LCD_SERIAL/main.c **** 	set_bit(IO,EN); 	set_bit(IO,D4);
 248              		.loc 1 57 19 view .LVU36
 249 005a DA68     		ldr	r2, [r3, #12]	@ _7, MEM[(struct GPIO_TypeDef *)1073809408B].ODR
 250 005c 42F08002 		orr	r2, r2, #128	@ _8, _7,
 251 0060 DA60     		str	r2, [r3, #12]	@ _8, MEM[(struct GPIO_TypeDef *)1073809408B].ODR
  58:../5-PWM_LCD_SERIAL/main.c **** 	set_bit(IO,D5); 	set_bit(IO,D6);
ARM GAS  /tmp/ccTw5KR6.s 			page 8


 252              		.loc 1 58 2 view .LVU37
 253 0062 DA68     		ldr	r2, [r3, #12]	@ _9, MEM[(struct GPIO_TypeDef *)1073809408B].ODR
 254 0064 42F04002 		orr	r2, r2, #64	@ _10, _9,
 255 0068 DA60     		str	r2, [r3, #12]	@ _10, MEM[(struct GPIO_TypeDef *)1073809408B].ODR
  58:../5-PWM_LCD_SERIAL/main.c **** 	set_bit(IO,D5); 	set_bit(IO,D6);
 256              		.loc 1 58 19 view .LVU38
 257 006a DA68     		ldr	r2, [r3, #12]	@ _11, MEM[(struct GPIO_TypeDef *)1073809408B].ODR
 258 006c 42F02002 		orr	r2, r2, #32	@ _12, _11,
 259 0070 DA60     		str	r2, [r3, #12]	@ _12, MEM[(struct GPIO_TypeDef *)1073809408B].ODR
  59:../5-PWM_LCD_SERIAL/main.c **** 	set_bit(IO,D7);   disp_init();
 260              		.loc 1 59 2 view .LVU39
 261 0072 DA68     		ldr	r2, [r3, #12]	@ _13, MEM[(struct GPIO_TypeDef *)1073809408B].ODR
 262 0074 42F01002 		orr	r2, r2, #16	@ _14, _13,
 263 0078 DA60     		str	r2, [r3, #12]	@ _14, MEM[(struct GPIO_TypeDef *)1073809408B].ODR
  59:../5-PWM_LCD_SERIAL/main.c **** 	set_bit(IO,D7);   disp_init();
 264              		.loc 1 59 19 view .LVU40
 265 007a DA68     		ldr	r2, [r3, #12]	@ _15, MEM[(struct GPIO_TypeDef *)1073809408B].ODR
 266 007c 42F00802 		orr	r2, r2, #8	@ _16, _15,
 267 0080 DA60     		str	r2, [r3, #12]	@ _16, MEM[(struct GPIO_TypeDef *)1073809408B].ODR
  60:../5-PWM_LCD_SERIAL/main.c **** 
 268              		.loc 1 60 2 view .LVU41
 269 0082 DA68     		ldr	r2, [r3, #12]	@ _17, MEM[(struct GPIO_TypeDef *)1073809408B].ODR
 270 0084 42F00402 		orr	r2, r2, #4	@ _18, _17,
 271 0088 DA60     		str	r2, [r3, #12]	@ _18, MEM[(struct GPIO_TypeDef *)1073809408B].ODR
  60:../5-PWM_LCD_SERIAL/main.c **** 
 272              		.loc 1 60 20 view .LVU42
 273 008a FFF7FEFF 		bl	disp_init		@
 274              	.LVL6:
  62:../5-PWM_LCD_SERIAL/main.c **** 
 275              		.loc 1 62 3 view .LVU43
 276 008e 0C20     		movs	r0, #12	@,
 277 0090 FFF7FEFF 		bl	disp_cmd		@
 278              	.LVL7:
  64:../5-PWM_LCD_SERIAL/main.c ****   u8 cont = 0;
 279              		.loc 1 64 3 view .LVU44
 280 0094 0022     		movs	r2, #0	@,
 281 0096 0D48     		ldr	r0, .L11+12	@,
 282 0098 1146     		mov	r1, r2	@,
 283 009a FFF7FEFF 		bl	disp_text		@
 284              	.LVL8:
  65:../5-PWM_LCD_SERIAL/main.c **** 	while(1){
 285              		.loc 1 65 3 view .LVU45
 286              	.L10:
  66:../5-PWM_LCD_SERIAL/main.c **** 
 287              		.loc 1 66 2 discriminator 1 view .LVU46
  68:../5-PWM_LCD_SERIAL/main.c **** 		cont &= 0x00ff;
 288              		.loc 1 68 3 discriminator 1 view .LVU47
 289              	@ ../5-PWM_LCD_SERIAL/main.c:68: 		cont ++;
  68:../5-PWM_LCD_SERIAL/main.c **** 		cont &= 0x00ff;
 290              		.loc 1 68 8 is_stmt 0 discriminator 1 view .LVU48
 291 009e 0134     		adds	r4, r4, #1	@ tmp154, cont,
 292              	.LVL9:
 293              	@ ../5-PWM_LCD_SERIAL/main.c:70: 		disp_text("CONTADOR: ", 1, 0);
  70:../5-PWM_LCD_SERIAL/main.c **** 		disp_number( cont, 1, 11);
 294              		.loc 1 70 3 discriminator 1 view .LVU49
 295 00a0 2846     		mov	r0, r5	@, tmp158
 296 00a2 0022     		movs	r2, #0	@,
ARM GAS  /tmp/ccTw5KR6.s 			page 9


 297 00a4 0121     		movs	r1, #1	@,
 298              	@ ../5-PWM_LCD_SERIAL/main.c:68: 		cont ++;
  68:../5-PWM_LCD_SERIAL/main.c **** 		cont &= 0x00ff;
 299              		.loc 1 68 8 discriminator 1 view .LVU50
 300 00a6 E4B2     		uxtb	r4, r4	@ cont, tmp154
 301              	.LVL10:
  69:../5-PWM_LCD_SERIAL/main.c **** 		disp_text("CONTADOR: ", 1, 0);
 302              		.loc 1 69 3 is_stmt 1 discriminator 1 view .LVU51
  70:../5-PWM_LCD_SERIAL/main.c **** 		disp_number( cont, 1, 11);
 303              		.loc 1 70 3 discriminator 1 view .LVU52
 304 00a8 FFF7FEFF 		bl	disp_text		@
 305              	.LVL11:
  71:../5-PWM_LCD_SERIAL/main.c **** 		__delay_ms(10);
 306              		.loc 1 71 3 discriminator 1 view .LVU53
 307 00ac 2046     		mov	r0, r4	@, cont
 308 00ae 0B22     		movs	r2, #11	@,
 309 00b0 0121     		movs	r1, #1	@,
 310 00b2 FFF7FEFF 		bl	disp_number		@
 311              	.LVL12:
  72:../5-PWM_LCD_SERIAL/main.c **** 		
 312              		.loc 1 72 3 discriminator 1 view .LVU54
 313 00b6 4FF47A70 		mov	r0, #1000	@,
 314 00ba FFF7FEFF 		bl	vTaskDelay		@
 315              	.LVL13:
  66:../5-PWM_LCD_SERIAL/main.c **** 
 316              		.loc 1 66 7 discriminator 1 view .LVU55
 317 00be EEE7     		b	.L10		@
 318              	.L12:
 319              		.align	2
 320              	.L11:
 321 00c0 00100240 		.word	1073876992
 322 00c4 00080140 		.word	1073809408
 323 00c8 13000000 		.word	.LC1
 324 00cc 00000000 		.word	.LC0
 325              		.cfi_endproc
 326              	.LFE44:
 327              		.size	task1, .-task1
 328              		.align	1
 329              		.global	ADC1_configure
 330              		.syntax unified
 331              		.thumb
 332              		.thumb_func
 333              		.type	ADC1_configure, %function
 334              	ADC1_configure:
 335              	.LFB34:
 336              		.file 2 "../5-PWM_LCD_SERIAL/Me.h"
   1:../5-PWM_LCD_SERIAL/Me.h **** #define __IO volatile
   2:../5-PWM_LCD_SERIAL/Me.h **** 
   3:../5-PWM_LCD_SERIAL/Me.h **** void SystemInit (void);
   4:../5-PWM_LCD_SERIAL/Me.h **** void nvic_IntDisble(u8 IRQn);
   5:../5-PWM_LCD_SERIAL/Me.h **** void nvic_intEnable(u8 IRQn);
   6:../5-PWM_LCD_SERIAL/Me.h **** void set_system_clock_to_25Mhz (void);
   7:../5-PWM_LCD_SERIAL/Me.h **** void set_system_clock_to_72Mhz(void);
   8:../5-PWM_LCD_SERIAL/Me.h **** void Delay ( __IO u32 T );
   9:../5-PWM_LCD_SERIAL/Me.h **** void enable_TIM3_delay (void);
  10:../5-PWM_LCD_SERIAL/Me.h **** void ADC1_configure();
  11:../5-PWM_LCD_SERIAL/Me.h **** 
ARM GAS  /tmp/ccTw5KR6.s 			page 10


  12:../5-PWM_LCD_SERIAL/Me.h **** #define DelayUs(X) Delay(X)
  13:../5-PWM_LCD_SERIAL/Me.h **** 
  14:../5-PWM_LCD_SERIAL/Me.h **** void ADC1_configure(){
 337              		.loc 2 14 22 view -0
 338              		.cfi_startproc
 339              		@ args = 0, pretend = 0, frame = 0
 340              		@ frame_needed = 0, uses_anonymous_args = 0
 341              		@ link register save eliminated.
  15:../5-PWM_LCD_SERIAL/Me.h **** 	RCC->APB2ENR |= 1UL<<2 ; // Hab. GPIOA
 342              		.loc 2 15 2 view .LVU57
 343              	@ ../5-PWM_LCD_SERIAL/Me.h:15: 	RCC->APB2ENR |= 1UL<<2 ; // Hab. GPIOA
 344              		.loc 2 15 15 is_stmt 0 view .LVU58
 345 00d0 1F4B     		ldr	r3, .L18	@ tmp141,
 346              	@ ../5-PWM_LCD_SERIAL/Me.h:16: 	GPIOA->CRL &= ~(0x0F << 4); // Define A1 Input Analogic
  16:../5-PWM_LCD_SERIAL/Me.h **** 	GPIOA->CRL &= ~(0x0F << 4); // Define A1 Input Analogic
 347              		.loc 2 16 13 view .LVU59
 348 00d2 2049     		ldr	r1, .L18+4	@ tmp143,
 349              	@ ../5-PWM_LCD_SERIAL/Me.h:15: 	RCC->APB2ENR |= 1UL<<2 ; // Hab. GPIOA
  15:../5-PWM_LCD_SERIAL/Me.h **** 	RCC->APB2ENR |= 1UL<<2 ; // Hab. GPIOA
 350              		.loc 2 15 15 view .LVU60
 351 00d4 9A69     		ldr	r2, [r3, #24]	@ _1, MEM[(struct RCC_TypeDef *)1073876992B].APB2ENR
 352 00d6 42F00402 		orr	r2, r2, #4	@ _2, _1,
 353 00da 9A61     		str	r2, [r3, #24]	@ _2, MEM[(struct RCC_TypeDef *)1073876992B].APB2ENR
 354              		.loc 2 16 2 is_stmt 1 view .LVU61
 355              	@ ../5-PWM_LCD_SERIAL/Me.h:16: 	GPIOA->CRL &= ~(0x0F << 4); // Define A1 Input Analogic
 356              		.loc 2 16 13 is_stmt 0 view .LVU62
 357 00dc 0A68     		ldr	r2, [r1]	@ _3, MEM[(struct GPIO_TypeDef *)1073809408B].CRL
 358 00de 22F0F002 		bic	r2, r2, #240	@ _4, _3,
 359 00e2 0A60     		str	r2, [r1]	@ _4, MEM[(struct GPIO_TypeDef *)1073809408B].CRL
  17:../5-PWM_LCD_SERIAL/Me.h **** 	
  18:../5-PWM_LCD_SERIAL/Me.h **** 	RCC->APB2ENR |= (1<<9); // Bit 9 ADC1EN: ADC 1 
 360              		.loc 2 18 2 is_stmt 1 view .LVU63
 361              	@ ../5-PWM_LCD_SERIAL/Me.h:18: 	RCC->APB2ENR |= (1<<9); // Bit 9 ADC1EN: ADC 1 
 362              		.loc 2 18 15 is_stmt 0 view .LVU64
 363 00e4 9A69     		ldr	r2, [r3, #24]	@ _5, MEM[(struct RCC_TypeDef *)1073876992B].APB2ENR
 364 00e6 42F40072 		orr	r2, r2, #512	@ _6, _5,
 365 00ea 9A61     		str	r2, [r3, #24]	@ _6, MEM[(struct RCC_TypeDef *)1073876992B].APB2ENR
  19:../5-PWM_LCD_SERIAL/Me.h **** 									// interface clock enable
  20:../5-PWM_LCD_SERIAL/Me.h **** 
  21:../5-PWM_LCD_SERIAL/Me.h **** 	RCC->CFGR	|= (0b10 << 14); // Bits 15:14 ADCPRE:
 366              		.loc 2 21 2 is_stmt 1 view .LVU65
 367              	@ ../5-PWM_LCD_SERIAL/Me.h:21: 	RCC->CFGR	|= (0b10 << 14); // Bits 15:14 ADCPRE:
 368              		.loc 2 21 12 is_stmt 0 view .LVU66
 369 00ec 5A68     		ldr	r2, [r3, #4]	@ _7, MEM[(struct RCC_TypeDef *)1073876992B].CFGR
 370 00ee 42F40042 		orr	r2, r2, #32768	@ _8, _7,
 371 00f2 5A60     		str	r2, [r3, #4]	@ _8, MEM[(struct RCC_TypeDef *)1073876992B].CFGR
  22:../5-PWM_LCD_SERIAL/Me.h **** 										  // ADC prescaler 10:
  23:../5-PWM_LCD_SERIAL/Me.h **** 										  //    PCLK2 divided by 6
  24:../5-PWM_LCD_SERIAL/Me.h **** 	// Enable End of Conversion (EOC) interrupt
  25:../5-PWM_LCD_SERIAL/Me.h **** 	ADC1->CR1 |= (1 << 5);
 372              		.loc 2 25 2 is_stmt 1 view .LVU67
 373              	@ ../5-PWM_LCD_SERIAL/Me.h:25: 	ADC1->CR1 |= (1 << 5);
 374              		.loc 2 25 12 is_stmt 0 view .LVU68
 375 00f4 A3F56C43 		sub	r3, r3, #60416	@ tmp149, tmp149,
 376 00f8 5A68     		ldr	r2, [r3, #4]	@ _9, MEM[(struct ADC_TypeDef *)1073816576B].CR1
 377 00fa 42F02002 		orr	r2, r2, #32	@ _10, _9,
 378 00fe 5A60     		str	r2, [r3, #4]	@ _10, MEM[(struct ADC_TypeDef *)1073816576B].CR1
ARM GAS  /tmp/ccTw5KR6.s 			page 11


  26:../5-PWM_LCD_SERIAL/Me.h **** 
  27:../5-PWM_LCD_SERIAL/Me.h **** 	// One conversion
  28:../5-PWM_LCD_SERIAL/Me.h **** 	ADC1->SQR1 = 0x00000000;
 379              		.loc 2 28 2 is_stmt 1 view .LVU69
 380              	@ ../5-PWM_LCD_SERIAL/Me.h:28: 	ADC1->SQR1 = 0x00000000;
 381              		.loc 2 28 13 is_stmt 0 view .LVU70
 382 0100 0022     		movs	r2, #0	@ tmp152,
 383 0102 DA62     		str	r2, [r3, #44]	@ tmp152, MEM[(struct ADC_TypeDef *)1073816576B].SQR1
  29:../5-PWM_LCD_SERIAL/Me.h **** 
  30:../5-PWM_LCD_SERIAL/Me.h **** 	// Choose the analog channel to read
  31:../5-PWM_LCD_SERIAL/Me.h **** 	// Since we want channel 10 to be the first
  32:../5-PWM_LCD_SERIAL/Me.h **** 	//   conversion we write 10 to SQ1 bits (3:0)
  33:../5-PWM_LCD_SERIAL/Me.h **** 	//   which is in SQR3 register. For multiple conversions
  34:../5-PWM_LCD_SERIAL/Me.h **** 	//   keep writing the channel numbers to SQx bits.
  35:../5-PWM_LCD_SERIAL/Me.h **** 	 ADC1->SQR3 = (10 << 0);
 384              		.loc 2 35 3 is_stmt 1 view .LVU71
 385              	@ ../5-PWM_LCD_SERIAL/Me.h:35: 	 ADC1->SQR3 = (10 << 0);
 386              		.loc 2 35 14 is_stmt 0 view .LVU72
 387 0104 0A22     		movs	r2, #10	@ tmp154,
 388 0106 5A63     		str	r2, [r3, #52]	@ tmp154, MEM[(struct ADC_TypeDef *)1073816576B].SQR3
  36:../5-PWM_LCD_SERIAL/Me.h **** 
  37:../5-PWM_LCD_SERIAL/Me.h **** 	// Set up software trigger to start conversion
  38:../5-PWM_LCD_SERIAL/Me.h **** 	ADC1->CR2 |= (7 << 17);  // Select SWSTART as trigger
 389              		.loc 2 38 2 is_stmt 1 view .LVU73
 390              	@ ../5-PWM_LCD_SERIAL/Me.h:38: 	ADC1->CR2 |= (7 << 17);  // Select SWSTART as trigger
 391              		.loc 2 38 12 is_stmt 0 view .LVU74
 392 0108 9A68     		ldr	r2, [r3, #8]	@ _11, MEM[(struct ADC_TypeDef *)1073816576B].CR2
 393 010a 42F46022 		orr	r2, r2, #917504	@ _12, _11,
 394 010e 9A60     		str	r2, [r3, #8]	@ _12, MEM[(struct ADC_TypeDef *)1073816576B].CR2
  39:../5-PWM_LCD_SERIAL/Me.h **** 	ADC1->CR2 |= (1 << 20);  // Enable external trigger
 395              		.loc 2 39 2 is_stmt 1 view .LVU75
 396              	@ ../5-PWM_LCD_SERIAL/Me.h:39: 	ADC1->CR2 |= (1 << 20);  // Enable external trigger
 397              		.loc 2 39 12 is_stmt 0 view .LVU76
 398 0110 9A68     		ldr	r2, [r3, #8]	@ _13, MEM[(struct ADC_TypeDef *)1073816576B].CR2
 399 0112 42F48012 		orr	r2, r2, #1048576	@ _14, _13,
 400 0116 9A60     		str	r2, [r3, #8]	@ _14, MEM[(struct ADC_TypeDef *)1073816576B].CR2
  40:../5-PWM_LCD_SERIAL/Me.h **** 
  41:../5-PWM_LCD_SERIAL/Me.h **** 	// Enable continuous conversion
  42:../5-PWM_LCD_SERIAL/Me.h **** 	ADC1->CR2 |= (1 << 1);
 401              		.loc 2 42 2 is_stmt 1 view .LVU77
 402              	@ ../5-PWM_LCD_SERIAL/Me.h:42: 	ADC1->CR2 |= (1 << 1);
 403              		.loc 2 42 12 is_stmt 0 view .LVU78
 404 0118 9A68     		ldr	r2, [r3, #8]	@ _15, MEM[(struct ADC_TypeDef *)1073816576B].CR2
 405 011a 42F00202 		orr	r2, r2, #2	@ _16, _15,
 406 011e 9A60     		str	r2, [r3, #8]	@ _16, MEM[(struct ADC_TypeDef *)1073816576B].CR2
  43:../5-PWM_LCD_SERIAL/Me.h **** 
  44:../5-PWM_LCD_SERIAL/Me.h **** 	// enable_interrupt(ADC1_2_IRQn);
  45:../5-PWM_LCD_SERIAL/Me.h **** 
  46:../5-PWM_LCD_SERIAL/Me.h **** 	// Enable A/D conversion
  47:../5-PWM_LCD_SERIAL/Me.h **** 	ADC1->CR2 |= (1 << 0);
 407              		.loc 2 47 2 is_stmt 1 view .LVU79
 408              	@ ../5-PWM_LCD_SERIAL/Me.h:47: 	ADC1->CR2 |= (1 << 0);
 409              		.loc 2 47 12 is_stmt 0 view .LVU80
 410 0120 9A68     		ldr	r2, [r3, #8]	@ _17, MEM[(struct ADC_TypeDef *)1073816576B].CR2
 411 0122 42F00102 		orr	r2, r2, #1	@ _18, _17,
 412 0126 9A60     		str	r2, [r3, #8]	@ _18, MEM[(struct ADC_TypeDef *)1073816576B].CR2
  48:../5-PWM_LCD_SERIAL/Me.h **** 
ARM GAS  /tmp/ccTw5KR6.s 			page 12


  49:../5-PWM_LCD_SERIAL/Me.h **** 	// Calibration reset and start
  50:../5-PWM_LCD_SERIAL/Me.h **** 	//    Optional for better accuracy.
  51:../5-PWM_LCD_SERIAL/Me.h **** 	ADC1->CR2 |= (1 << 3);
 413              		.loc 2 51 2 is_stmt 1 view .LVU81
 414              	@ ../5-PWM_LCD_SERIAL/Me.h:51: 	ADC1->CR2 |= (1 << 3);
 415              		.loc 2 51 12 is_stmt 0 view .LVU82
 416 0128 9A68     		ldr	r2, [r3, #8]	@ _19, MEM[(struct ADC_TypeDef *)1073816576B].CR2
 417 012a 42F00802 		orr	r2, r2, #8	@ _20, _19,
 418 012e 9A60     		str	r2, [r3, #8]	@ _20, MEM[(struct ADC_TypeDef *)1073816576B].CR2
  52:../5-PWM_LCD_SERIAL/Me.h **** 	while((ADC1->CR2 & (1 << 3)));
 419              		.loc 2 52 2 is_stmt 1 view .LVU83
 420              	.L14:
 421              		.loc 2 52 31 discriminator 1 view .LVU84
 422              		.loc 2 52 7 discriminator 1 view .LVU85
 423              	@ ../5-PWM_LCD_SERIAL/Me.h:52: 	while((ADC1->CR2 & (1 << 3)));
 424              		.loc 2 52 13 is_stmt 0 discriminator 1 view .LVU86
 425 0130 9A68     		ldr	r2, [r3, #8]	@ _21, MEM[(struct ADC_TypeDef *)1073816576B].CR2
 426              	@ ../5-PWM_LCD_SERIAL/Me.h:52: 	while((ADC1->CR2 & (1 << 3)));
 427              		.loc 2 52 7 discriminator 1 view .LVU87
 428 0132 1107     		lsls	r1, r2, #28	@, _21,
 429 0134 FCD4     		bmi	.L14		@,
  53:../5-PWM_LCD_SERIAL/Me.h **** 	ADC1->CR2 |= (1 << 2);
 430              		.loc 2 53 2 is_stmt 1 view .LVU88
 431              	@ ../5-PWM_LCD_SERIAL/Me.h:53: 	ADC1->CR2 |= (1 << 2);
 432              		.loc 2 53 12 is_stmt 0 view .LVU89
 433 0136 9A68     		ldr	r2, [r3, #8]	@ _23, MEM[(struct ADC_TypeDef *)1073816576B].CR2
 434 0138 42F00402 		orr	r2, r2, #4	@ _24, _23,
 435 013c 9A60     		str	r2, [r3, #8]	@ _24, MEM[(struct ADC_TypeDef *)1073816576B].CR2
  54:../5-PWM_LCD_SERIAL/Me.h **** 	while((ADC1->CR2 & (1 << 2)));
 436              		.loc 2 54 2 is_stmt 1 view .LVU90
 437              	@ ../5-PWM_LCD_SERIAL/Me.h:54: 	while((ADC1->CR2 & (1 << 2)));
 438              		.loc 2 54 13 is_stmt 0 view .LVU91
 439 013e 064B     		ldr	r3, .L18+8	@ tmp169,
 440              	.L15:
 441              		.loc 2 54 31 is_stmt 1 discriminator 1 view .LVU92
 442              		.loc 2 54 7 discriminator 1 view .LVU93
 443              	@ ../5-PWM_LCD_SERIAL/Me.h:54: 	while((ADC1->CR2 & (1 << 2)));
 444              		.loc 2 54 13 is_stmt 0 discriminator 1 view .LVU94
 445 0140 9A68     		ldr	r2, [r3, #8]	@ _25, MEM[(struct ADC_TypeDef *)1073816576B].CR2
 446              	@ ../5-PWM_LCD_SERIAL/Me.h:54: 	while((ADC1->CR2 & (1 << 2)));
 447              		.loc 2 54 7 discriminator 1 view .LVU95
 448 0142 5207     		lsls	r2, r2, #29	@, _25,
 449 0144 FCD4     		bmi	.L15		@,
  55:../5-PWM_LCD_SERIAL/Me.h **** 
  56:../5-PWM_LCD_SERIAL/Me.h **** 	// Start conversion with software trigger
  57:../5-PWM_LCD_SERIAL/Me.h **** 	ADC1->CR2 |= (1<<22);
 450              		.loc 2 57 2 is_stmt 1 view .LVU96
 451              	@ ../5-PWM_LCD_SERIAL/Me.h:57: 	ADC1->CR2 |= (1<<22);
 452              		.loc 2 57 12 is_stmt 0 view .LVU97
 453 0146 9A68     		ldr	r2, [r3, #8]	@ _27, MEM[(struct ADC_TypeDef *)1073816576B].CR2
 454 0148 42F48002 		orr	r2, r2, #4194304	@ _28, _27,
 455 014c 9A60     		str	r2, [r3, #8]	@ _28, MEM[(struct ADC_TypeDef *)1073816576B].CR2
 456              	@ ../5-PWM_LCD_SERIAL/Me.h:60: }
  58:../5-PWM_LCD_SERIAL/Me.h **** 	//
  59:../5-PWM_LCD_SERIAL/Me.h **** 	// Leitura  ADC1->DR  -> Data Register
  60:../5-PWM_LCD_SERIAL/Me.h **** }
 457              		.loc 2 60 1 view .LVU98
ARM GAS  /tmp/ccTw5KR6.s 			page 13


 458 014e 7047     		bx	lr	@
 459              	.L19:
 460              		.align	2
 461              	.L18:
 462 0150 00100240 		.word	1073876992
 463 0154 00080140 		.word	1073809408
 464 0158 00240140 		.word	1073816576
 465              		.cfi_endproc
 466              	.LFE34:
 467              		.size	ADC1_configure, .-ADC1_configure
 468              		.align	1
 469              		.global	set_system_clock_to_72Mhz
 470              		.syntax unified
 471              		.thumb
 472              		.thumb_func
 473              		.type	set_system_clock_to_72Mhz, %function
 474              	set_system_clock_to_72Mhz:
 475              	.LFB35:
  61:../5-PWM_LCD_SERIAL/Me.h **** 
  62:../5-PWM_LCD_SERIAL/Me.h **** void set_system_clock_to_72Mhz(void)
  63:../5-PWM_LCD_SERIAL/Me.h **** {
 476              		.loc 2 63 1 is_stmt 1 view -0
 477              		.cfi_startproc
 478              		@ args = 0, pretend = 0, frame = 0
 479              		@ frame_needed = 0, uses_anonymous_args = 0
 480              		@ link register save eliminated.
  64:../5-PWM_LCD_SERIAL/Me.h ****    // Necessary wait states for Flash for high speeds
  65:../5-PWM_LCD_SERIAL/Me.h ****    FLASH->ACR = 0x12;
 481              		.loc 2 65 4 view .LVU100
 482              	@ ../5-PWM_LCD_SERIAL/Me.h:65:    FLASH->ACR = 0x12;
 483              		.loc 2 65 15 is_stmt 0 view .LVU101
 484 015c 1222     		movs	r2, #18	@ tmp140,
 485 015e 1B4B     		ldr	r3, .L27	@ tmp139,
 486 0160 1A60     		str	r2, [r3]	@ tmp140, MEM[(struct FLASH_TypeDef *)1073881088B].ACR
  66:../5-PWM_LCD_SERIAL/Me.h ****    // Enable HSE
  67:../5-PWM_LCD_SERIAL/Me.h ****    RCC->CR |= (1 << 16);
 487              		.loc 2 67 4 is_stmt 1 view .LVU102
 488              	@ ../5-PWM_LCD_SERIAL/Me.h:67:    RCC->CR |= (1 << 16);
 489              		.loc 2 67 12 is_stmt 0 view .LVU103
 490 0162 A3F58053 		sub	r3, r3, #4096	@ tmp141, tmp141,
 491 0166 1A68     		ldr	r2, [r3]	@ _1, MEM[(struct RCC_TypeDef *)1073876992B].CR
 492 0168 42F48032 		orr	r2, r2, #65536	@ _2, _1,
 493 016c 1A60     		str	r2, [r3]	@ _2, MEM[(struct RCC_TypeDef *)1073876992B].CR
  68:../5-PWM_LCD_SERIAL/Me.h ****    // Wait untill HSE settles down
  69:../5-PWM_LCD_SERIAL/Me.h ****    while (!(RCC->CR & (1 << 17)));
 494              		.loc 2 69 4 is_stmt 1 view .LVU104
 495              	.L21:
 496              		.loc 2 69 34 discriminator 1 view .LVU105
 497              		.loc 2 69 10 discriminator 1 view .LVU106
 498              	@ ../5-PWM_LCD_SERIAL/Me.h:69:    while (!(RCC->CR & (1 << 17)));
 499              		.loc 2 69 16 is_stmt 0 discriminator 1 view .LVU107
 500 016e 1A68     		ldr	r2, [r3]	@ _3, MEM[(struct RCC_TypeDef *)1073876992B].CR
 501              	@ ../5-PWM_LCD_SERIAL/Me.h:69:    while (!(RCC->CR & (1 << 17)));
 502              		.loc 2 69 10 discriminator 1 view .LVU108
 503 0170 9103     		lsls	r1, r2, #14	@, _3,
 504 0172 FCD5     		bpl	.L21		@,
  70:../5-PWM_LCD_SERIAL/Me.h ****    // Set PREDIV2 division factor to 5
ARM GAS  /tmp/ccTw5KR6.s 			page 14


  71:../5-PWM_LCD_SERIAL/Me.h ****    RCC->CFGR2 |= (0b0100 << 4);
 505              		.loc 2 71 4 is_stmt 1 view .LVU109
 506              	@ ../5-PWM_LCD_SERIAL/Me.h:71:    RCC->CFGR2 |= (0b0100 << 4);
 507              		.loc 2 71 15 is_stmt 0 view .LVU110
 508 0174 DA6A     		ldr	r2, [r3, #44]	@ _5, MEM[(struct RCC_TypeDef *)1073876992B].CFGR2
 509 0176 42F04002 		orr	r2, r2, #64	@ _6, _5,
 510 017a DA62     		str	r2, [r3, #44]	@ _6, MEM[(struct RCC_TypeDef *)1073876992B].CFGR2
  72:../5-PWM_LCD_SERIAL/Me.h ****    // Set PLL2 multiplication factor to 8
  73:../5-PWM_LCD_SERIAL/Me.h ****    RCC->CFGR2 |= (0b0110 << 8);
 511              		.loc 2 73 4 is_stmt 1 view .LVU111
 512              	@ ../5-PWM_LCD_SERIAL/Me.h:73:    RCC->CFGR2 |= (0b0110 << 8);
 513              		.loc 2 73 15 is_stmt 0 view .LVU112
 514 017c DA6A     		ldr	r2, [r3, #44]	@ _7, MEM[(struct RCC_TypeDef *)1073876992B].CFGR2
 515 017e 42F4C062 		orr	r2, r2, #1536	@ _8, _7,
 516 0182 DA62     		str	r2, [r3, #44]	@ _8, MEM[(struct RCC_TypeDef *)1073876992B].CFGR2
  74:../5-PWM_LCD_SERIAL/Me.h ****    // Enable PLL2
  75:../5-PWM_LCD_SERIAL/Me.h ****    RCC->CR |= (1 << 26);
 517              		.loc 2 75 4 is_stmt 1 view .LVU113
 518              	@ ../5-PWM_LCD_SERIAL/Me.h:75:    RCC->CR |= (1 << 26);
 519              		.loc 2 75 12 is_stmt 0 view .LVU114
 520 0184 1A68     		ldr	r2, [r3]	@ _9, MEM[(struct RCC_TypeDef *)1073876992B].CR
 521 0186 42F08062 		orr	r2, r2, #67108864	@ _10, _9,
 522 018a 1A60     		str	r2, [r3]	@ _10, MEM[(struct RCC_TypeDef *)1073876992B].CR
  76:../5-PWM_LCD_SERIAL/Me.h ****    // Wait untill PLL2 settles down
  77:../5-PWM_LCD_SERIAL/Me.h **** 	// while (!(RCC->CR & (1 << 27)));
  78:../5-PWM_LCD_SERIAL/Me.h ****    // Set PLL2 as PREDIV1 clock source
  79:../5-PWM_LCD_SERIAL/Me.h ****    RCC->CFGR2 |= (1 << 16);
 523              		.loc 2 79 4 is_stmt 1 view .LVU115
 524              	@ ../5-PWM_LCD_SERIAL/Me.h:79:    RCC->CFGR2 |= (1 << 16);
 525              		.loc 2 79 15 is_stmt 0 view .LVU116
 526 018c DA6A     		ldr	r2, [r3, #44]	@ _11, MEM[(struct RCC_TypeDef *)1073876992B].CFGR2
 527 018e 42F48032 		orr	r2, r2, #65536	@ _12, _11,
 528 0192 DA62     		str	r2, [r3, #44]	@ _12, MEM[(struct RCC_TypeDef *)1073876992B].CFGR2
  80:../5-PWM_LCD_SERIAL/Me.h ****    // Set PREDIV1 division factor to 5
  81:../5-PWM_LCD_SERIAL/Me.h ****    RCC->CFGR2 |= (0b0100 << 0);
 529              		.loc 2 81 4 is_stmt 1 view .LVU117
 530              	@ ../5-PWM_LCD_SERIAL/Me.h:81:    RCC->CFGR2 |= (0b0100 << 0);
 531              		.loc 2 81 15 is_stmt 0 view .LVU118
 532 0194 DA6A     		ldr	r2, [r3, #44]	@ _13, MEM[(struct RCC_TypeDef *)1073876992B].CFGR2
 533 0196 42F00402 		orr	r2, r2, #4	@ _14, _13,
 534 019a DA62     		str	r2, [r3, #44]	@ _14, MEM[(struct RCC_TypeDef *)1073876992B].CFGR2
  82:../5-PWM_LCD_SERIAL/Me.h ****    // Select Prediv1 as PLL source
  83:../5-PWM_LCD_SERIAL/Me.h ****    RCC->CFGR |= (1 << 16);
 535              		.loc 2 83 4 is_stmt 1 view .LVU119
 536              	@ ../5-PWM_LCD_SERIAL/Me.h:83:    RCC->CFGR |= (1 << 16);
 537              		.loc 2 83 14 is_stmt 0 view .LVU120
 538 019c 5A68     		ldr	r2, [r3, #4]	@ _15, MEM[(struct RCC_TypeDef *)1073876992B].CFGR
 539 019e 42F48032 		orr	r2, r2, #65536	@ _16, _15,
 540 01a2 5A60     		str	r2, [r3, #4]	@ _16, MEM[(struct RCC_TypeDef *)1073876992B].CFGR
  84:../5-PWM_LCD_SERIAL/Me.h ****    // Set PLL1 multiplication factor to 9
  85:../5-PWM_LCD_SERIAL/Me.h ****    RCC->CFGR |= (0b0111 << 18);
 541              		.loc 2 85 4 is_stmt 1 view .LVU121
 542              	@ ../5-PWM_LCD_SERIAL/Me.h:85:    RCC->CFGR |= (0b0111 << 18);
 543              		.loc 2 85 14 is_stmt 0 view .LVU122
 544 01a4 5A68     		ldr	r2, [r3, #4]	@ _17, MEM[(struct RCC_TypeDef *)1073876992B].CFGR
 545 01a6 42F4E012 		orr	r2, r2, #1835008	@ _18, _17,
 546 01aa 5A60     		str	r2, [r3, #4]	@ _18, MEM[(struct RCC_TypeDef *)1073876992B].CFGR
ARM GAS  /tmp/ccTw5KR6.s 			page 15


  86:../5-PWM_LCD_SERIAL/Me.h ****    // Set APB1 to 36MHz
  87:../5-PWM_LCD_SERIAL/Me.h ****    RCC->CFGR |= 1 << 10;
 547              		.loc 2 87 4 is_stmt 1 view .LVU123
 548              	@ ../5-PWM_LCD_SERIAL/Me.h:87:    RCC->CFGR |= 1 << 10;
 549              		.loc 2 87 14 is_stmt 0 view .LVU124
 550 01ac 5A68     		ldr	r2, [r3, #4]	@ _19, MEM[(struct RCC_TypeDef *)1073876992B].CFGR
 551 01ae 42F48062 		orr	r2, r2, #1024	@ _20, _19,
 552 01b2 5A60     		str	r2, [r3, #4]	@ _20, MEM[(struct RCC_TypeDef *)1073876992B].CFGR
  88:../5-PWM_LCD_SERIAL/Me.h ****    // Enable PLL
  89:../5-PWM_LCD_SERIAL/Me.h ****    RCC->CR |= (1 << 24);
 553              		.loc 2 89 4 is_stmt 1 view .LVU125
 554              	@ ../5-PWM_LCD_SERIAL/Me.h:89:    RCC->CR |= (1 << 24);
 555              		.loc 2 89 12 is_stmt 0 view .LVU126
 556 01b4 1A68     		ldr	r2, [r3]	@ _21, MEM[(struct RCC_TypeDef *)1073876992B].CR
 557 01b6 42F08072 		orr	r2, r2, #16777216	@ _22, _21,
 558 01ba 1A60     		str	r2, [r3]	@ _22, MEM[(struct RCC_TypeDef *)1073876992B].CR
  90:../5-PWM_LCD_SERIAL/Me.h ****    // Wait untill PLL settles down
  91:../5-PWM_LCD_SERIAL/Me.h ****    while (!(RCC->CR & (1 << 25)));
 559              		.loc 2 91 4 is_stmt 1 view .LVU127
 560              	.L22:
 561              		.loc 2 91 34 discriminator 1 view .LVU128
 562              		.loc 2 91 10 discriminator 1 view .LVU129
 563              	@ ../5-PWM_LCD_SERIAL/Me.h:91:    while (!(RCC->CR & (1 << 25)));
 564              		.loc 2 91 16 is_stmt 0 discriminator 1 view .LVU130
 565 01bc 1A68     		ldr	r2, [r3]	@ _23, MEM[(struct RCC_TypeDef *)1073876992B].CR
 566              	@ ../5-PWM_LCD_SERIAL/Me.h:91:    while (!(RCC->CR & (1 << 25)));
 567              		.loc 2 91 10 discriminator 1 view .LVU131
 568 01be 9201     		lsls	r2, r2, #6	@, _23,
 569 01c0 FCD5     		bpl	.L22		@,
  92:../5-PWM_LCD_SERIAL/Me.h ****    // Finally, choose PLL as the system clock
  93:../5-PWM_LCD_SERIAL/Me.h ****    RCC->CFGR |= (0b10 << 0);
 570              		.loc 2 93 4 is_stmt 1 view .LVU132
 571              	@ ../5-PWM_LCD_SERIAL/Me.h:93:    RCC->CFGR |= (0b10 << 0);
 572              		.loc 2 93 14 is_stmt 0 view .LVU133
 573 01c2 5A68     		ldr	r2, [r3, #4]	@ _25, MEM[(struct RCC_TypeDef *)1073876992B].CFGR
 574 01c4 42F00202 		orr	r2, r2, #2	@ _26, _25,
 575 01c8 5A60     		str	r2, [r3, #4]	@ _26, MEM[(struct RCC_TypeDef *)1073876992B].CFGR
 576              	@ ../5-PWM_LCD_SERIAL/Me.h:94: } 
  94:../5-PWM_LCD_SERIAL/Me.h **** } 
 577              		.loc 2 94 1 view .LVU134
 578 01ca 7047     		bx	lr	@
 579              	.L28:
 580              		.align	2
 581              	.L27:
 582 01cc 00200240 		.word	1073881088
 583              		.cfi_endproc
 584              	.LFE35:
 585              		.size	set_system_clock_to_72Mhz, .-set_system_clock_to_72Mhz
 586              		.align	1
 587              		.global	Delay
 588              		.syntax unified
 589              		.thumb
 590              		.thumb_func
 591              		.type	Delay, %function
 592              	Delay:
 593              	.LVL14:
 594              	.LFB36:
ARM GAS  /tmp/ccTw5KR6.s 			page 16


  95:../5-PWM_LCD_SERIAL/Me.h **** 
  96:../5-PWM_LCD_SERIAL/Me.h **** void Delay ( __IO u32 T ) { // T=1 ;  868µs -> T=1 ~ 526µs
 595              		.loc 2 96 27 is_stmt 1 view -0
 596              		.cfi_startproc
 597              		@ args = 0, pretend = 0, frame = 8
 598              		@ frame_needed = 0, uses_anonymous_args = 0
 599              		@ link register save eliminated.
  97:../5-PWM_LCD_SERIAL/Me.h ****   for ( T ; T > 0 ; T-- ){
 600              		.loc 2 97 3 view .LVU136
 601              	@ ../5-PWM_LCD_SERIAL/Me.h:96: void Delay ( __IO u32 T ) { // T=1 ;  868µs -> T=1 ~ 526µs
  96:../5-PWM_LCD_SERIAL/Me.h ****   for ( T ; T > 0 ; T-- ){
 602              		.loc 2 96 27 is_stmt 0 view .LVU137
 603 01d0 82B0     		sub	sp, sp, #8	@,,
 604              	.LCFI2:
 605              		.cfi_def_cfa_offset 8
 606              	@ ../5-PWM_LCD_SERIAL/Me.h:96: void Delay ( __IO u32 T ) { // T=1 ;  868µs -> T=1 ~ 526µs
  96:../5-PWM_LCD_SERIAL/Me.h ****   for ( T ; T > 0 ; T-- ){
 607              		.loc 2 96 27 view .LVU138
 608 01d2 0190     		str	r0, [sp, #4]	@ T, T
 609              	@ ../5-PWM_LCD_SERIAL/Me.h:97:   for ( T ; T > 0 ; T-- ){
 610              		.loc 2 97 3 view .LVU139
 611 01d4 019B     		ldr	r3, [sp, #4]	@ vol.0_9, T
 612              	@ ../5-PWM_LCD_SERIAL/Me.h:98:    TIM3->EGR |= ( 1 << 0 );
  98:../5-PWM_LCD_SERIAL/Me.h ****    TIM3->EGR |= ( 1 << 0 );
 613              		.loc 2 98 14 view .LVU140
 614 01d6 094A     		ldr	r2, .L34	@ tmp132,
 615              	.L30:
  97:../5-PWM_LCD_SERIAL/Me.h ****   for ( T ; T > 0 ; T-- ){
 616              		.loc 2 97 13 is_stmt 1 discriminator 1 view .LVU141
 617              	@ ../5-PWM_LCD_SERIAL/Me.h:97:   for ( T ; T > 0 ; T-- ){
  97:../5-PWM_LCD_SERIAL/Me.h ****   for ( T ; T > 0 ; T-- ){
 618              		.loc 2 97 15 is_stmt 0 discriminator 1 view .LVU142
 619 01d8 019B     		ldr	r3, [sp, #4]	@ T.2_6, T
 620              	@ ../5-PWM_LCD_SERIAL/Me.h:97:   for ( T ; T > 0 ; T-- ){
  97:../5-PWM_LCD_SERIAL/Me.h ****   for ( T ; T > 0 ; T-- ){
 621              		.loc 2 97 3 discriminator 1 view .LVU143
 622 01da 0BB9     		cbnz	r3, .L32	@ T.2_6,
 623              	@ ../5-PWM_LCD_SERIAL/Me.h:101: }
  99:../5-PWM_LCD_SERIAL/Me.h ****    while ( TIM3->CNT < 5 ) ; /* 5 * 10-- Configurar para IR */
 100:../5-PWM_LCD_SERIAL/Me.h ****   }
 101:../5-PWM_LCD_SERIAL/Me.h **** }
 624              		.loc 2 101 1 view .LVU144
 625 01dc 02B0     		add	sp, sp, #8	@,,
 626              	.LCFI3:
 627              		.cfi_remember_state
 628              		.cfi_def_cfa_offset 0
 629              		@ sp needed	@
 630 01de 7047     		bx	lr	@
 631              	.L32:
 632              	.LCFI4:
 633              		.cfi_restore_state
  98:../5-PWM_LCD_SERIAL/Me.h ****    TIM3->EGR |= ( 1 << 0 );
 634              		.loc 2 98 4 is_stmt 1 view .LVU145
 635              	@ ../5-PWM_LCD_SERIAL/Me.h:98:    TIM3->EGR |= ( 1 << 0 );
  98:../5-PWM_LCD_SERIAL/Me.h ****    TIM3->EGR |= ( 1 << 0 );
 636              		.loc 2 98 14 is_stmt 0 view .LVU146
 637 01e0 938A     		ldrh	r3, [r2, #20]	@, MEM[(struct TIM_TypeDef *)1073742848B].EGR
ARM GAS  /tmp/ccTw5KR6.s 			page 17


 638 01e2 9BB2     		uxth	r3, r3	@ _1, MEM[(struct TIM_TypeDef *)1073742848B].EGR
 639 01e4 43F00103 		orr	r3, r3, #1	@ _2, _1,
 640 01e8 9382     		strh	r3, [r2, #20]	@ movhi	@ _2, MEM[(struct TIM_TypeDef *)1073742848B].EGR
  99:../5-PWM_LCD_SERIAL/Me.h ****    while ( TIM3->CNT < 5 ) ; /* 5 * 10-- Configurar para IR */
 641              		.loc 2 99 4 is_stmt 1 view .LVU147
 642              	.L31:
  99:../5-PWM_LCD_SERIAL/Me.h ****    while ( TIM3->CNT < 5 ) ; /* 5 * 10-- Configurar para IR */
 643              		.loc 2 99 28 discriminator 1 view .LVU148
  99:../5-PWM_LCD_SERIAL/Me.h ****    while ( TIM3->CNT < 5 ) ; /* 5 * 10-- Configurar para IR */
 644              		.loc 2 99 10 discriminator 1 view .LVU149
 645              	@ ../5-PWM_LCD_SERIAL/Me.h:99:    while ( TIM3->CNT < 5 ) ; /* 5 * 10-- Configurar para IR */
  99:../5-PWM_LCD_SERIAL/Me.h ****    while ( TIM3->CNT < 5 ) ; /* 5 * 10-- Configurar para IR */
 646              		.loc 2 99 16 is_stmt 0 discriminator 1 view .LVU150
 647 01ea 938C     		ldrh	r3, [r2, #36]	@, MEM[(struct TIM_TypeDef *)1073742848B].CNT
 648 01ec 9BB2     		uxth	r3, r3	@ _3, MEM[(struct TIM_TypeDef *)1073742848B].CNT
 649              	@ ../5-PWM_LCD_SERIAL/Me.h:99:    while ( TIM3->CNT < 5 ) ; /* 5 * 10-- Configurar para IR */
  99:../5-PWM_LCD_SERIAL/Me.h ****    while ( TIM3->CNT < 5 ) ; /* 5 * 10-- Configurar para IR */
 650              		.loc 2 99 10 discriminator 1 view .LVU151
 651 01ee 042B     		cmp	r3, #4	@ _3,
 652 01f0 FBD9     		bls	.L31		@,
  97:../5-PWM_LCD_SERIAL/Me.h ****    TIM3->EGR |= ( 1 << 0 );
 653              		.loc 2 97 21 is_stmt 1 discriminator 2 view .LVU152
 654              	@ ../5-PWM_LCD_SERIAL/Me.h:97:   for ( T ; T > 0 ; T-- ){
  97:../5-PWM_LCD_SERIAL/Me.h ****    TIM3->EGR |= ( 1 << 0 );
 655              		.loc 2 97 22 is_stmt 0 discriminator 2 view .LVU153
 656 01f2 019B     		ldr	r3, [sp, #4]	@ T.1_4, T
 657 01f4 013B     		subs	r3, r3, #1	@ _5, T.1_4,
 658 01f6 0193     		str	r3, [sp, #4]	@ _5, T
 659 01f8 EEE7     		b	.L30		@
 660              	.L35:
 661 01fa 00BF     		.align	2
 662              	.L34:
 663 01fc 00040040 		.word	1073742848
 664              		.cfi_endproc
 665              	.LFE36:
 666              		.size	Delay, .-Delay
 667              		.align	1
 668              		.global	enable_TIM3_delay
 669              		.syntax unified
 670              		.thumb
 671              		.thumb_func
 672              		.type	enable_TIM3_delay, %function
 673              	enable_TIM3_delay:
 674              	.LFB37:
 102:../5-PWM_LCD_SERIAL/Me.h **** 
 103:../5-PWM_LCD_SERIAL/Me.h **** void enable_TIM3_delay (void) {
 675              		.loc 2 103 31 is_stmt 1 view -0
 676              		.cfi_startproc
 677              		@ args = 0, pretend = 0, frame = 0
 678              		@ frame_needed = 0, uses_anonymous_args = 0
 679              		@ link register save eliminated.
 104:../5-PWM_LCD_SERIAL/Me.h ****    RCC->APB1ENR |= 1<<1 ;
 680              		.loc 2 104 4 view .LVU155
 681              	@ ../5-PWM_LCD_SERIAL/Me.h:104:    RCC->APB1ENR |= 1<<1 ;
 682              		.loc 2 104 17 is_stmt 0 view .LVU156
 683 0200 084A     		ldr	r2, .L37	@ tmp117,
 684 0202 D369     		ldr	r3, [r2, #28]	@ _1, MEM[(struct RCC_TypeDef *)1073876992B].APB1ENR
ARM GAS  /tmp/ccTw5KR6.s 			page 18


 685 0204 43F00203 		orr	r3, r3, #2	@ _2, _1,
 686 0208 D361     		str	r3, [r2, #28]	@ _2, MEM[(struct RCC_TypeDef *)1073876992B].APB1ENR
 105:../5-PWM_LCD_SERIAL/Me.h ****    TIM3->CR1 = 0x0000;
 687              		.loc 2 105 4 is_stmt 1 view .LVU157
 688              	@ ../5-PWM_LCD_SERIAL/Me.h:105:    TIM3->CR1 = 0x0000;
 689              		.loc 2 105 14 is_stmt 0 view .LVU158
 690 020a 0023     		movs	r3, #0	@ tmp121,
 691 020c A2F50332 		sub	r2, r2, #134144	@ tmp119, tmp119,
 692 0210 1380     		strh	r3, [r2]	@ movhi	@ tmp121, MEM[(struct TIM_TypeDef *)1073742848B].CR1
 106:../5-PWM_LCD_SERIAL/Me.h ****    //TIM3->ARR = 21699;
 107:../5-PWM_LCD_SERIAL/Me.h ****    // TIM3->ARR = 250-1; // 10µs
 108:../5-PWM_LCD_SERIAL/Me.h ****    TIM3->ARR = 720-1; // 10µs
 693              		.loc 2 108 4 is_stmt 1 view .LVU159
 694              	@ ../5-PWM_LCD_SERIAL/Me.h:108:    TIM3->ARR = 720-1; // 10µs
 695              		.loc 2 108 14 is_stmt 0 view .LVU160
 696 0212 40F2CF23 		movw	r3, #719	@ tmp124,
 697 0216 9385     		strh	r3, [r2, #44]	@ movhi	@ tmp124, MEM[(struct TIM_TypeDef *)1073742848B].ARR
 109:../5-PWM_LCD_SERIAL/Me.h ****    // para obter o período de 868µs
 110:../5-PWM_LCD_SERIAL/Me.h **** /*https://www.vishay.com/docs/80071/dataform.pdf PAG 2
 111:../5-PWM_LCD_SERIAL/Me.h ****  * https://controllerstech.com/ir-remote-with-stm32/
 112:../5-PWM_LCD_SERIAL/Me.h ****  * Per=(1+ARR)/Clock_system */
 113:../5-PWM_LCD_SERIAL/Me.h ****    TIM3->CR1 |= 1<<0;
 698              		.loc 2 113 4 is_stmt 1 view .LVU161
 699              	@ ../5-PWM_LCD_SERIAL/Me.h:113:    TIM3->CR1 |= 1<<0;
 700              		.loc 2 113 14 is_stmt 0 view .LVU162
 701 0218 1388     		ldrh	r3, [r2]	@, MEM[(struct TIM_TypeDef *)1073742848B].CR1
 702 021a 9BB2     		uxth	r3, r3	@ _3, MEM[(struct TIM_TypeDef *)1073742848B].CR1
 703 021c 43F00103 		orr	r3, r3, #1	@ _4, _3,
 704 0220 1380     		strh	r3, [r2]	@ movhi	@ _4, MEM[(struct TIM_TypeDef *)1073742848B].CR1
 705              	@ ../5-PWM_LCD_SERIAL/Me.h:114: }
 114:../5-PWM_LCD_SERIAL/Me.h **** }
 706              		.loc 2 114 1 view .LVU163
 707 0222 7047     		bx	lr	@
 708              	.L38:
 709              		.align	2
 710              	.L37:
 711 0224 00100240 		.word	1073876992
 712              		.cfi_endproc
 713              	.LFE37:
 714              		.size	enable_TIM3_delay, .-enable_TIM3_delay
 715              		.align	1
 716              		.global	enable_interrupt
 717              		.syntax unified
 718              		.thumb
 719              		.thumb_func
 720              		.type	enable_interrupt, %function
 721              	enable_interrupt:
 722              	.LVL15:
 723              	.LFB38:
 115:../5-PWM_LCD_SERIAL/Me.h **** 
 116:../5-PWM_LCD_SERIAL/Me.h **** void enable_interrupt(IRQn_Type IRQn)
 117:../5-PWM_LCD_SERIAL/Me.h **** {
 724              		.loc 2 117 1 is_stmt 1 view -0
 725              		.cfi_startproc
 726              		@ args = 0, pretend = 0, frame = 0
 727              		@ frame_needed = 0, uses_anonymous_args = 0
 728              		@ link register save eliminated.
ARM GAS  /tmp/ccTw5KR6.s 			page 19


 118:../5-PWM_LCD_SERIAL/Me.h ****    NVIC->ISER[((uint32_t)(IRQn) >> 5)] = (1 << ((uint32_t)(IRQn) & 0x1F));
 729              		.loc 2 118 4 view .LVU165
 730              	@ ../5-PWM_LCD_SERIAL/Me.h:118:    NVIC->ISER[((uint32_t)(IRQn) >> 5)] = (1 << ((uint32_t)(IRQn) & 
 731              		.loc 2 118 45 is_stmt 0 view .LVU166
 732 0228 0123     		movs	r3, #1	@ tmp124,
 733              	@ ../5-PWM_LCD_SERIAL/Me.h:118:    NVIC->ISER[((uint32_t)(IRQn) >> 5)] = (1 << ((uint32_t)(IRQn) & 
 734              		.loc 2 118 33 view .LVU167
 735 022a 4209     		lsrs	r2, r0, #5	@ _6, IRQn,
 736              	@ ../5-PWM_LCD_SERIAL/Me.h:118:    NVIC->ISER[((uint32_t)(IRQn) >> 5)] = (1 << ((uint32_t)(IRQn) & 
 737              		.loc 2 118 66 view .LVU168
 738 022c 00F01F00 		and	r0, r0, #31	@ tmp123, IRQn,
 739              	.LVL16:
 740              	@ ../5-PWM_LCD_SERIAL/Me.h:118:    NVIC->ISER[((uint32_t)(IRQn) >> 5)] = (1 << ((uint32_t)(IRQn) & 
 741              		.loc 2 118 45 view .LVU169
 742 0230 03FA00F0 		lsl	r0, r3, r0	@ _7, tmp124, tmp123
 743              	@ ../5-PWM_LCD_SERIAL/Me.h:118:    NVIC->ISER[((uint32_t)(IRQn) >> 5)] = (1 << ((uint32_t)(IRQn) & 
 744              		.loc 2 118 40 view .LVU170
 745 0234 014B     		ldr	r3, .L40	@ tmp125,
 746 0236 43F82200 		str	r0, [r3, r2, lsl #2]	@ _7, MEM[(struct NVIC_Type *)3758153984B].ISER[_6]
 747              	@ ../5-PWM_LCD_SERIAL/Me.h:119: }  
 119:../5-PWM_LCD_SERIAL/Me.h **** }  
 748              		.loc 2 119 1 view .LVU171
 749 023a 7047     		bx	lr	@
 750              	.L41:
 751              		.align	2
 752              	.L40:
 753 023c 00E100E0 		.word	-536813312
 754              		.cfi_endproc
 755              	.LFE38:
 756              		.size	enable_interrupt, .-enable_interrupt
 757              		.align	1
 758              		.global	disable_interrupt
 759              		.syntax unified
 760              		.thumb
 761              		.thumb_func
 762              		.type	disable_interrupt, %function
 763              	disable_interrupt:
 764              	.LVL17:
 765              	.LFB39:
 120:../5-PWM_LCD_SERIAL/Me.h ****    
 121:../5-PWM_LCD_SERIAL/Me.h **** /* 
 122:../5-PWM_LCD_SERIAL/Me.h ****  * Disable given interrupt
 123:../5-PWM_LCD_SERIAL/Me.h ****  */
 124:../5-PWM_LCD_SERIAL/Me.h **** void disable_interrupt(IRQn_Type IRQn)
 125:../5-PWM_LCD_SERIAL/Me.h **** {
 766              		.loc 2 125 1 is_stmt 1 view -0
 767              		.cfi_startproc
 768              		@ args = 0, pretend = 0, frame = 0
 769              		@ frame_needed = 0, uses_anonymous_args = 0
 770              		@ link register save eliminated.
 126:../5-PWM_LCD_SERIAL/Me.h ****    NVIC->ICER[((uint32_t)(IRQn) >> 5)] = (1 << ((uint32_t)(IRQn) & 0x1F));
 771              		.loc 2 126 4 view .LVU173
 772              	@ ../5-PWM_LCD_SERIAL/Me.h:126:    NVIC->ICER[((uint32_t)(IRQn) >> 5)] = (1 << ((uint32_t)(IRQn) & 
 773              		.loc 2 126 45 is_stmt 0 view .LVU174
 774 0240 0122     		movs	r2, #1	@ tmp124,
 775              	@ ../5-PWM_LCD_SERIAL/Me.h:126:    NVIC->ICER[((uint32_t)(IRQn) >> 5)] = (1 << ((uint32_t)(IRQn) & 
 776              		.loc 2 126 33 view .LVU175
ARM GAS  /tmp/ccTw5KR6.s 			page 20


 777 0242 4309     		lsrs	r3, r0, #5	@ _6, IRQn,
 778              	@ ../5-PWM_LCD_SERIAL/Me.h:126:    NVIC->ICER[((uint32_t)(IRQn) >> 5)] = (1 << ((uint32_t)(IRQn) & 
 779              		.loc 2 126 66 view .LVU176
 780 0244 00F01F00 		and	r0, r0, #31	@ tmp123, IRQn,
 781              	.LVL18:
 782              	@ ../5-PWM_LCD_SERIAL/Me.h:126:    NVIC->ICER[((uint32_t)(IRQn) >> 5)] = (1 << ((uint32_t)(IRQn) & 
 783              		.loc 2 126 45 view .LVU177
 784 0248 02FA00F0 		lsl	r0, r2, r0	@ _7, tmp124, tmp123
 785              	@ ../5-PWM_LCD_SERIAL/Me.h:126:    NVIC->ICER[((uint32_t)(IRQn) >> 5)] = (1 << ((uint32_t)(IRQn) & 
 786              		.loc 2 126 40 view .LVU178
 787 024c 024A     		ldr	r2, .L43	@ tmp125,
 788 024e 2033     		adds	r3, r3, #32	@ tmp126, _6,
 789 0250 42F82300 		str	r0, [r2, r3, lsl #2]	@ _7, MEM[(struct NVIC_Type *)3758153984B].ICER[_6]
 790              	@ ../5-PWM_LCD_SERIAL/Me.h:127: }
 127:../5-PWM_LCD_SERIAL/Me.h **** }
 791              		.loc 2 127 1 view .LVU179
 792 0254 7047     		bx	lr	@
 793              	.L44:
 794 0256 00BF     		.align	2
 795              	.L43:
 796 0258 00E100E0 		.word	-536813312
 797              		.cfi_endproc
 798              	.LFE39:
 799              		.size	disable_interrupt, .-disable_interrupt
 800              		.align	1
 801              		.global	PWM_T2_out
 802              		.syntax unified
 803              		.thumb
 804              		.thumb_func
 805              		.type	PWM_T2_out, %function
 806              	PWM_T2_out:
 807              	.LVL19:
 808              	.LFB40:
 809              		.file 3 "../5-PWM_LCD_SERIAL/PWM.h"
   1:../5-PWM_LCD_SERIAL/PWM.h **** 
   2:../5-PWM_LCD_SERIAL/PWM.h **** void configure_PWM_TIM2(); // Canal 1 -> PA0
   3:../5-PWM_LCD_SERIAL/PWM.h **** void configure_PWM_TIM4(); // Canal 1 -> PB6
   4:../5-PWM_LCD_SERIAL/PWM.h **** 
   5:../5-PWM_LCD_SERIAL/PWM.h **** void PWM_T2_out(u8 valor_atual);
   6:../5-PWM_LCD_SERIAL/PWM.h **** void PWM_T4_out(u8 valor_atual);
   7:../5-PWM_LCD_SERIAL/PWM.h **** 
   8:../5-PWM_LCD_SERIAL/PWM.h **** /*=========================================================*/
   9:../5-PWM_LCD_SERIAL/PWM.h **** /*=========================================================*/
  10:../5-PWM_LCD_SERIAL/PWM.h **** /*=========================================================*/
  11:../5-PWM_LCD_SERIAL/PWM.h **** 
  12:../5-PWM_LCD_SERIAL/PWM.h **** void PWM_T2_out(u8 valor_atual){
 810              		.loc 3 12 32 is_stmt 1 view -0
 811              		.cfi_startproc
 812              		@ args = 0, pretend = 0, frame = 0
 813              		@ frame_needed = 0, uses_anonymous_args = 0
 814              		@ link register save eliminated.
  13:../5-PWM_LCD_SERIAL/PWM.h **** 	TIM2->CCR1 = valor_atual;
 815              		.loc 3 13 2 view .LVU181
 816              	@ ../5-PWM_LCD_SERIAL/PWM.h:13: 	TIM2->CCR1 = valor_atual;
 817              		.loc 3 13 13 is_stmt 0 view .LVU182
 818 025c 4FF08043 		mov	r3, #1073741824	@ tmp115,
 819 0260 9886     		strh	r0, [r3, #52]	@ movhi	@ _1, MEM[(struct TIM_TypeDef *)1073741824B].CCR1
ARM GAS  /tmp/ccTw5KR6.s 			page 21


 820              	@ ../5-PWM_LCD_SERIAL/PWM.h:14: }
  14:../5-PWM_LCD_SERIAL/PWM.h **** }
 821              		.loc 3 14 1 view .LVU183
 822 0262 7047     		bx	lr	@
 823              		.cfi_endproc
 824              	.LFE40:
 825              		.size	PWM_T2_out, .-PWM_T2_out
 826              		.align	1
 827              		.global	PWM_T4_out
 828              		.syntax unified
 829              		.thumb
 830              		.thumb_func
 831              		.type	PWM_T4_out, %function
 832              	PWM_T4_out:
 833              	.LVL20:
 834              	.LFB41:
  15:../5-PWM_LCD_SERIAL/PWM.h **** 
  16:../5-PWM_LCD_SERIAL/PWM.h **** void PWM_T4_out(u8 valor_atual){
 835              		.loc 3 16 32 is_stmt 1 view -0
 836              		.cfi_startproc
 837              		@ args = 0, pretend = 0, frame = 0
 838              		@ frame_needed = 0, uses_anonymous_args = 0
 839              		@ link register save eliminated.
  17:../5-PWM_LCD_SERIAL/PWM.h **** 	TIM4->CCR1 = valor_atual;
 840              		.loc 3 17 2 view .LVU185
 841              	@ ../5-PWM_LCD_SERIAL/PWM.h:17: 	TIM4->CCR1 = valor_atual;
 842              		.loc 3 17 13 is_stmt 0 view .LVU186
 843 0264 014B     		ldr	r3, .L47	@ tmp115,
 844 0266 9886     		strh	r0, [r3, #52]	@ movhi	@ _1, MEM[(struct TIM_TypeDef *)1073743872B].CCR1
 845              	@ ../5-PWM_LCD_SERIAL/PWM.h:18: }
  18:../5-PWM_LCD_SERIAL/PWM.h **** }
 846              		.loc 3 18 1 view .LVU187
 847 0268 7047     		bx	lr	@
 848              	.L48:
 849 026a 00BF     		.align	2
 850              	.L47:
 851 026c 00080040 		.word	1073743872
 852              		.cfi_endproc
 853              	.LFE41:
 854              		.size	PWM_T4_out, .-PWM_T4_out
 855              		.align	1
 856              		.global	configure_PWM_TIM2
 857              		.syntax unified
 858              		.thumb
 859              		.thumb_func
 860              		.type	configure_PWM_TIM2, %function
 861              	configure_PWM_TIM2:
 862              	.LFB42:
  19:../5-PWM_LCD_SERIAL/PWM.h **** 
  20:../5-PWM_LCD_SERIAL/PWM.h **** void configure_PWM_TIM2(){
 863              		.loc 3 20 26 is_stmt 1 view -0
 864              		.cfi_startproc
 865              		@ args = 0, pretend = 0, frame = 0
 866              		@ frame_needed = 0, uses_anonymous_args = 0
 867              		@ link register save eliminated.
  21:../5-PWM_LCD_SERIAL/PWM.h **** /* Configurado com o exemplo do datasheet pag "387 / 1136" */
  22:../5-PWM_LCD_SERIAL/PWM.h **** 
ARM GAS  /tmp/ccTw5KR6.s 			page 22


  23:../5-PWM_LCD_SERIAL/PWM.h ****    RCC->APB2ENR |= 0b101 << 0 ; /*Habilita o AFIO GPIOA */
 868              		.loc 3 23 4 view .LVU189
 869              	@ ../5-PWM_LCD_SERIAL/PWM.h:23:    RCC->APB2ENR |= 0b101 << 0 ; /*Habilita o AFIO GPIOA */
 870              		.loc 3 23 17 is_stmt 0 view .LVU190
 871 0270 284B     		ldr	r3, .L50	@ tmp141,
 872 0272 9A69     		ldr	r2, [r3, #24]	@ _1, MEM[(struct RCC_TypeDef *)1073876992B].APB2ENR
 873 0274 42F00502 		orr	r2, r2, #5	@ _2, _1,
 874 0278 9A61     		str	r2, [r3, #24]	@ _2, MEM[(struct RCC_TypeDef *)1073876992B].APB2ENR
  24:../5-PWM_LCD_SERIAL/PWM.h ****    RCC->APB1ENR |= 1 << 0; /*Habilita o TIMER 2 - CH na GPIO_A */
 875              		.loc 3 24 4 is_stmt 1 view .LVU191
 876              	@ ../5-PWM_LCD_SERIAL/PWM.h:24:    RCC->APB1ENR |= 1 << 0; /*Habilita o TIMER 2 - CH na GPIO_A */
 877              		.loc 3 24 17 is_stmt 0 view .LVU192
 878 027a DA69     		ldr	r2, [r3, #28]	@ _3, MEM[(struct RCC_TypeDef *)1073876992B].APB1ENR
 879 027c 42F00102 		orr	r2, r2, #1	@ _4, _3,
 880 0280 DA61     		str	r2, [r3, #28]	@ _4, MEM[(struct RCC_TypeDef *)1073876992B].APB1ENR
  25:../5-PWM_LCD_SERIAL/PWM.h **** 
  26:../5-PWM_LCD_SERIAL/PWM.h ****    GPIOA->CRL |= (0x0B << 0) ; /* AF O_PP pino PA0 */
 881              		.loc 3 26 4 is_stmt 1 view .LVU193
 882              	@ ../5-PWM_LCD_SERIAL/PWM.h:26:    GPIOA->CRL |= (0x0B << 0) ; /* AF O_PP pino PA0 */
 883              		.loc 3 26 15 is_stmt 0 view .LVU194
 884 0282 254A     		ldr	r2, .L50+4	@ tmp145,
 885 0284 1368     		ldr	r3, [r2]	@ _5, MEM[(struct GPIO_TypeDef *)1073809408B].CRL
 886 0286 43F00B03 		orr	r3, r3, #11	@ _6, _5,
 887 028a 1360     		str	r3, [r2]	@ _6, MEM[(struct GPIO_TypeDef *)1073809408B].CRL
  27:../5-PWM_LCD_SERIAL/PWM.h **** 	AFIO->MAPR &= ~( 0b11 << 6);
 888              		.loc 3 27 2 is_stmt 1 view .LVU195
 889              	@ ../5-PWM_LCD_SERIAL/PWM.h:27: 	AFIO->MAPR &= ~( 0b11 << 6);
 890              		.loc 3 27 13 is_stmt 0 view .LVU196
 891 028c 234B     		ldr	r3, .L50+8	@ tmp147,
 892 028e 5A68     		ldr	r2, [r3, #4]	@ _7, MEM[(struct AFIO_TypeDef *)1073807360B].MAPR
 893 0290 22F0C002 		bic	r2, r2, #192	@ _8, _7,
 894 0294 5A60     		str	r2, [r3, #4]	@ _8, MEM[(struct AFIO_TypeDef *)1073807360B].MAPR
  28:../5-PWM_LCD_SERIAL/PWM.h ****    AFIO->MAPR &= ~( 0b11 << 8); /* [bit 26:24] SWJ_CFG [nota_2]
 895              		.loc 3 28 4 is_stmt 1 view .LVU197
 896              	@ ../5-PWM_LCD_SERIAL/PWM.h:28:    AFIO->MAPR &= ~( 0b11 << 8); /* [bit 26:24] SWJ_CFG [nota_2]
 897              		.loc 3 28 15 is_stmt 0 view .LVU198
 898 0296 5A68     		ldr	r2, [r3, #4]	@ _9, MEM[(struct AFIO_TypeDef *)1073807360B].MAPR
 899 0298 22F44072 		bic	r2, r2, #768	@ _10, _9,
 900 029c 5A60     		str	r2, [r3, #4]	@ _10, MEM[(struct AFIO_TypeDef *)1073807360B].MAPR
  29:../5-PWM_LCD_SERIAL/PWM.h ****                  [bit 8] TIM3_REMAP[1:0]: TIM2 remapping [nota_3]*/ 
  30:../5-PWM_LCD_SERIAL/PWM.h **** 
  31:../5-PWM_LCD_SERIAL/PWM.h **** 	TIM2->CCMR1 |= 0b110 << 4; /*Bits 6:4 OC1M: Output compare 1 mode
 901              		.loc 3 31 2 is_stmt 1 view .LVU199
 902              	@ ../5-PWM_LCD_SERIAL/PWM.h:31: 	TIM2->CCMR1 |= 0b110 << 4; /*Bits 6:4 OC1M: Output compare 1 mode
 903              		.loc 3 31 14 is_stmt 0 view .LVU200
 904 029e 4FF08043 		mov	r3, #1073741824	@ tmp151,
 905 02a2 1A8B     		ldrh	r2, [r3, #24]	@, MEM[(struct TIM_TypeDef *)1073741824B].CCMR1
 906 02a4 92B2     		uxth	r2, r2	@ _11, MEM[(struct TIM_TypeDef *)1073741824B].CCMR1
 907 02a6 42F06002 		orr	r2, r2, #96	@ _12, _11,
 908 02aa 1A83     		strh	r2, [r3, #24]	@ movhi	@ _12, MEM[(struct TIM_TypeDef *)1073741824B].CCMR1
  32:../5-PWM_LCD_SERIAL/PWM.h ****                                   110: PWM mode 1 */
  33:../5-PWM_LCD_SERIAL/PWM.h ****    TIM2->CCMR1 |= 1UL << 3; /* Bit 3 OC1PE: Output compare 1 preload enable**/
 909              		.loc 3 33 4 is_stmt 1 view .LVU201
 910              	@ ../5-PWM_LCD_SERIAL/PWM.h:33:    TIM2->CCMR1 |= 1UL << 3; /* Bit 3 OC1PE: Output compare 1 preloa
 911              		.loc 3 33 16 is_stmt 0 view .LVU202
 912 02ac 1A8B     		ldrh	r2, [r3, #24]	@, MEM[(struct TIM_TypeDef *)1073741824B].CCMR1
 913 02ae 92B2     		uxth	r2, r2	@ _13, MEM[(struct TIM_TypeDef *)1073741824B].CCMR1
ARM GAS  /tmp/ccTw5KR6.s 			page 23


 914 02b0 42F00802 		orr	r2, r2, #8	@ _14, _13,
 915 02b4 1A83     		strh	r2, [r3, #24]	@ movhi	@ _14, MEM[(struct TIM_TypeDef *)1073741824B].CCMR1
  34:../5-PWM_LCD_SERIAL/PWM.h **** 
  35:../5-PWM_LCD_SERIAL/PWM.h **** 
  36:../5-PWM_LCD_SERIAL/PWM.h ****    TIM2->PSC = 709; /* 249;  25/250 - 1 => 0.1KHz  */
 916              		.loc 3 36 4 is_stmt 1 view .LVU203
 917              	@ ../5-PWM_LCD_SERIAL/PWM.h:36:    TIM2->PSC = 709; /* 249;  25/250 - 1 => 0.1KHz  */
 918              		.loc 3 36 14 is_stmt 0 view .LVU204
 919 02b6 40F2C522 		movw	r2, #709	@ tmp165,
 920 02ba 1A85     		strh	r2, [r3, #40]	@ movhi	@ tmp165, MEM[(struct TIM_TypeDef *)1073741824B].PSC
  37:../5-PWM_LCD_SERIAL/PWM.h ****    TIM2->ARR = 999; /* PWM period = (999 + 1) * 100KHz = 0.01 */
 921              		.loc 3 37 4 is_stmt 1 view .LVU205
 922              	@ ../5-PWM_LCD_SERIAL/PWM.h:37:    TIM2->ARR = 999; /* PWM period = (999 + 1) * 100KHz = 0.01 */
 923              		.loc 3 37 14 is_stmt 0 view .LVU206
 924 02bc 40F2E732 		movw	r2, #999	@ tmp168,
 925 02c0 9A85     		strh	r2, [r3, #44]	@ movhi	@ tmp168, MEM[(struct TIM_TypeDef *)1073741824B].ARR
  38:../5-PWM_LCD_SERIAL/PWM.h ****    TIM2->CR1 &= ~(1<<4);
 926              		.loc 3 38 4 is_stmt 1 view .LVU207
 927              	@ ../5-PWM_LCD_SERIAL/PWM.h:38:    TIM2->CR1 &= ~(1<<4);
 928              		.loc 3 38 14 is_stmt 0 view .LVU208
 929 02c2 1A88     		ldrh	r2, [r3]	@, MEM[(struct TIM_TypeDef *)1073741824B].CR1
 930 02c4 22F01002 		bic	r2, r2, #16	@ _16, MEM[(struct TIM_TypeDef *)1073741824B].CR1,
 931 02c8 1204     		lsls	r2, r2, #16	@ _16, _16,
 932 02ca 120C     		lsrs	r2, r2, #16	@ _16, _16,
 933 02cc 1A80     		strh	r2, [r3]	@ movhi	@ _16, MEM[(struct TIM_TypeDef *)1073741824B].CR1
  39:../5-PWM_LCD_SERIAL/PWM.h ****    TIM2->CR1 |= 1<<7;/*Bit 7 ARPE: Auto-reload preload enable */
 934              		.loc 3 39 4 is_stmt 1 view .LVU209
 935              	@ ../5-PWM_LCD_SERIAL/PWM.h:39:    TIM2->CR1 |= 1<<7;/*Bit 7 ARPE: Auto-reload preload enable */
 936              		.loc 3 39 14 is_stmt 0 view .LVU210
 937 02ce 1A88     		ldrh	r2, [r3]	@, MEM[(struct TIM_TypeDef *)1073741824B].CR1
 938 02d0 92B2     		uxth	r2, r2	@ _17, MEM[(struct TIM_TypeDef *)1073741824B].CR1
 939 02d2 42F08002 		orr	r2, r2, #128	@ _18, _17,
 940 02d6 1A80     		strh	r2, [r3]	@ movhi	@ _18, MEM[(struct TIM_TypeDef *)1073741824B].CR1
  40:../5-PWM_LCD_SERIAL/PWM.h ****    TIM2->CCMR1 |= 1UL << 3; /* Bit 3 OC1PE: Output compare 1 preload enable - ---- CONSEGUIIIIIII *
 941              		.loc 3 40 4 is_stmt 1 view .LVU211
 942              	@ ../5-PWM_LCD_SERIAL/PWM.h:40:    TIM2->CCMR1 |= 1UL << 3; /* Bit 3 OC1PE: Output compare 1 preloa
 943              		.loc 3 40 16 is_stmt 0 view .LVU212
 944 02d8 1A8B     		ldrh	r2, [r3, #24]	@, MEM[(struct TIM_TypeDef *)1073741824B].CCMR1
 945 02da 92B2     		uxth	r2, r2	@ _19, MEM[(struct TIM_TypeDef *)1073741824B].CCMR1
 946 02dc 42F00802 		orr	r2, r2, #8	@ _20, _19,
 947 02e0 1A83     		strh	r2, [r3, #24]	@ movhi	@ _20, MEM[(struct TIM_TypeDef *)1073741824B].CCMR1
  41:../5-PWM_LCD_SERIAL/PWM.h ****    TIM2->EGR |=1<<0;
 948              		.loc 3 41 4 is_stmt 1 view .LVU213
 949              	@ ../5-PWM_LCD_SERIAL/PWM.h:41:    TIM2->EGR |=1<<0;
 950              		.loc 3 41 14 is_stmt 0 view .LVU214
 951 02e2 9A8A     		ldrh	r2, [r3, #20]	@, MEM[(struct TIM_TypeDef *)1073741824B].EGR
 952 02e4 92B2     		uxth	r2, r2	@ _21, MEM[(struct TIM_TypeDef *)1073741824B].EGR
 953 02e6 42F00102 		orr	r2, r2, #1	@ _22, _21,
 954 02ea 9A82     		strh	r2, [r3, #20]	@ movhi	@ _22, MEM[(struct TIM_TypeDef *)1073741824B].EGR
  42:../5-PWM_LCD_SERIAL/PWM.h **** 
  43:../5-PWM_LCD_SERIAL/PWM.h ****    TIM2->CCER |= 1<<0; /*Bit 0 CC1E: Capture/Compare 1 output enable*/
 955              		.loc 3 43 4 is_stmt 1 view .LVU215
 956              	@ ../5-PWM_LCD_SERIAL/PWM.h:43:    TIM2->CCER |= 1<<0; /*Bit 0 CC1E: Capture/Compare 1 output enabl
 957              		.loc 3 43 15 is_stmt 0 view .LVU216
 958 02ec 1A8C     		ldrh	r2, [r3, #32]	@, MEM[(struct TIM_TypeDef *)1073741824B].CCER
 959 02ee 92B2     		uxth	r2, r2	@ _23, MEM[(struct TIM_TypeDef *)1073741824B].CCER
 960 02f0 42F00102 		orr	r2, r2, #1	@ _24, _23,
ARM GAS  /tmp/ccTw5KR6.s 			page 24


 961 02f4 1A84     		strh	r2, [r3, #32]	@ movhi	@ _24, MEM[(struct TIM_TypeDef *)1073741824B].CCER
  44:../5-PWM_LCD_SERIAL/PWM.h ****    TIM2->CCER &= ~(1<<1); /*Bit 1 CC1P: Capture/Compare 1 output polarity
 962              		.loc 3 44 4 is_stmt 1 view .LVU217
 963              	@ ../5-PWM_LCD_SERIAL/PWM.h:44:    TIM2->CCER &= ~(1<<1); /*Bit 1 CC1P: Capture/Compare 1 output po
 964              		.loc 3 44 15 is_stmt 0 view .LVU218
 965 02f6 1A8C     		ldrh	r2, [r3, #32]	@, MEM[(struct TIM_TypeDef *)1073741824B].CCER
 966 02f8 22F00202 		bic	r2, r2, #2	@ _26, MEM[(struct TIM_TypeDef *)1073741824B].CCER,
 967 02fc 1204     		lsls	r2, r2, #16	@ _26, _26,
 968 02fe 120C     		lsrs	r2, r2, #16	@ _26, _26,
 969 0300 1A84     		strh	r2, [r3, #32]	@ movhi	@ _26, MEM[(struct TIM_TypeDef *)1073741824B].CCER
  45:../5-PWM_LCD_SERIAL/PWM.h ****                             0: OC1 active high. */
  46:../5-PWM_LCD_SERIAL/PWM.h **** 
  47:../5-PWM_LCD_SERIAL/PWM.h ****    TIM2->CR1 |= 1<<0; //Habilita o clock
 970              		.loc 3 47 4 is_stmt 1 view .LVU219
 971              	@ ../5-PWM_LCD_SERIAL/PWM.h:47:    TIM2->CR1 |= 1<<0; //Habilita o clock
 972              		.loc 3 47 14 is_stmt 0 view .LVU220
 973 0302 1A88     		ldrh	r2, [r3]	@, MEM[(struct TIM_TypeDef *)1073741824B].CR1
 974 0304 92B2     		uxth	r2, r2	@ _27, MEM[(struct TIM_TypeDef *)1073741824B].CR1
 975 0306 42F00102 		orr	r2, r2, #1	@ _28, _27,
 976 030a 1A80     		strh	r2, [r3]	@ movhi	@ _28, MEM[(struct TIM_TypeDef *)1073741824B].CR1
  48:../5-PWM_LCD_SERIAL/PWM.h ****    TIM2->CCR1 = 00;
 977              		.loc 3 48 4 is_stmt 1 view .LVU221
 978              	@ ../5-PWM_LCD_SERIAL/PWM.h:48:    TIM2->CCR1 = 00;
 979              		.loc 3 48 15 is_stmt 0 view .LVU222
 980 030c 0022     		movs	r2, #0	@ tmp210,
 981 030e 9A86     		strh	r2, [r3, #52]	@ movhi	@ tmp210, MEM[(struct TIM_TypeDef *)1073741824B].CCR1
 982              	@ ../5-PWM_LCD_SERIAL/PWM.h:49: }
  49:../5-PWM_LCD_SERIAL/PWM.h **** }
 983              		.loc 3 49 1 view .LVU223
 984 0310 7047     		bx	lr	@
 985              	.L51:
 986 0312 00BF     		.align	2
 987              	.L50:
 988 0314 00100240 		.word	1073876992
 989 0318 00080140 		.word	1073809408
 990 031c 00000140 		.word	1073807360
 991              		.cfi_endproc
 992              	.LFE42:
 993              		.size	configure_PWM_TIM2, .-configure_PWM_TIM2
 994              		.align	1
 995              		.global	configure_PWM_TIM4
 996              		.syntax unified
 997              		.thumb
 998              		.thumb_func
 999              		.type	configure_PWM_TIM4, %function
 1000              	configure_PWM_TIM4:
 1001              	.LFB43:
  50:../5-PWM_LCD_SERIAL/PWM.h **** 
  51:../5-PWM_LCD_SERIAL/PWM.h **** void configure_PWM_TIM4(){
 1002              		.loc 3 51 26 is_stmt 1 view -0
 1003              		.cfi_startproc
 1004              		@ args = 0, pretend = 0, frame = 0
 1005              		@ frame_needed = 0, uses_anonymous_args = 0
 1006              		@ link register save eliminated.
  52:../5-PWM_LCD_SERIAL/PWM.h **** 
  53:../5-PWM_LCD_SERIAL/PWM.h **** 	RCC->APB1ENR	|= (1<<2); //TIM4 En
 1007              		.loc 3 53 2 view .LVU225
ARM GAS  /tmp/ccTw5KR6.s 			page 25


 1008              	@ ../5-PWM_LCD_SERIAL/PWM.h:53: 	RCC->APB1ENR	|= (1<<2); //TIM4 En
 1009              		.loc 3 53 15 is_stmt 0 view .LVU226
 1010 0320 244B     		ldr	r3, .L53	@ tmp137,
 1011 0322 DA69     		ldr	r2, [r3, #28]	@ _1, MEM[(struct RCC_TypeDef *)1073876992B].APB1ENR
 1012 0324 42F00402 		orr	r2, r2, #4	@ _2, _1,
 1013 0328 DA61     		str	r2, [r3, #28]	@ _2, MEM[(struct RCC_TypeDef *)1073876992B].APB1ENR
  54:../5-PWM_LCD_SERIAL/PWM.h **** 	RCC->APB2ENR	|= (1<<0 | 1<< 3); // Hab AFIO e GPIOB
 1014              		.loc 3 54 2 is_stmt 1 view .LVU227
 1015              	@ ../5-PWM_LCD_SERIAL/PWM.h:54: 	RCC->APB2ENR	|= (1<<0 | 1<< 3); // Hab AFIO e GPIOB
 1016              		.loc 3 54 15 is_stmt 0 view .LVU228
 1017 032a 9A69     		ldr	r2, [r3, #24]	@ _3, MEM[(struct RCC_TypeDef *)1073876992B].APB2ENR
 1018 032c 42F00902 		orr	r2, r2, #9	@ _4, _3,
 1019 0330 9A61     		str	r2, [r3, #24]	@ _4, MEM[(struct RCC_TypeDef *)1073876992B].APB2ENR
  55:../5-PWM_LCD_SERIAL/PWM.h **** 
  56:../5-PWM_LCD_SERIAL/PWM.h **** 	GPIOB->CRL		|= (0b1011<<24); // AF_PP -> PB6
 1020              		.loc 3 56 2 is_stmt 1 view .LVU229
 1021              	@ ../5-PWM_LCD_SERIAL/PWM.h:56: 	GPIOB->CRL		|= (0b1011<<24); // AF_PP -> PB6
 1022              		.loc 3 56 14 is_stmt 0 view .LVU230
 1023 0332 214A     		ldr	r2, .L53+4	@ tmp141,
 1024 0334 1368     		ldr	r3, [r2]	@ _5, MEM[(struct GPIO_TypeDef *)1073810432B].CRL
 1025              	@ ../5-PWM_LCD_SERIAL/PWM.h:57: 	AFIO->MAPR		&= ~(1<<12); // No Remap
  57:../5-PWM_LCD_SERIAL/PWM.h **** 	AFIO->MAPR		&= ~(1<<12); // No Remap
 1026              		.loc 3 57 14 view .LVU231
 1027 0336 A2F54062 		sub	r2, r2, #3072	@ tmp143, tmp143,
 1028              	@ ../5-PWM_LCD_SERIAL/PWM.h:56: 	GPIOB->CRL		|= (0b1011<<24); // AF_PP -> PB6
  56:../5-PWM_LCD_SERIAL/PWM.h **** 	AFIO->MAPR		&= ~(1<<12); // No Remap
 1029              		.loc 3 56 14 view .LVU232
 1030 033a 43F03063 		orr	r3, r3, #184549376	@ _6, _5,
 1031 033e C2F8003C 		str	r3, [r2, #3072]	@ _6, MEM[(struct GPIO_TypeDef *)1073810432B].CRL
 1032              		.loc 3 57 2 is_stmt 1 view .LVU233
 1033              	@ ../5-PWM_LCD_SERIAL/PWM.h:57: 	AFIO->MAPR		&= ~(1<<12); // No Remap
 1034              		.loc 3 57 14 is_stmt 0 view .LVU234
 1035 0342 5368     		ldr	r3, [r2, #4]	@ _7, MEM[(struct AFIO_TypeDef *)1073807360B].MAPR
 1036 0344 23F48053 		bic	r3, r3, #4096	@ _8, _7,
 1037 0348 5360     		str	r3, [r2, #4]	@ _8, MEM[(struct AFIO_TypeDef *)1073807360B].MAPR
  58:../5-PWM_LCD_SERIAL/PWM.h **** 	
  59:../5-PWM_LCD_SERIAL/PWM.h **** 	TIM4->CCMR1		|= 0b110 << 4;
 1038              		.loc 3 59 2 is_stmt 1 view .LVU235
 1039              	@ ../5-PWM_LCD_SERIAL/PWM.h:59: 	TIM4->CCMR1		|= 0b110 << 4;
 1040              		.loc 3 59 15 is_stmt 0 view .LVU236
 1041 034a 1C4B     		ldr	r3, .L53+8	@ tmp145,
 1042 034c 1A8B     		ldrh	r2, [r3, #24]	@, MEM[(struct TIM_TypeDef *)1073743872B].CCMR1
 1043 034e 92B2     		uxth	r2, r2	@ _9, MEM[(struct TIM_TypeDef *)1073743872B].CCMR1
 1044 0350 42F06002 		orr	r2, r2, #96	@ _10, _9,
 1045 0354 1A83     		strh	r2, [r3, #24]	@ movhi	@ _10, MEM[(struct TIM_TypeDef *)1073743872B].CCMR1
  60:../5-PWM_LCD_SERIAL/PWM.h **** 	TIM4->CCMR1		|= (1UL<<3);
 1046              		.loc 3 60 2 is_stmt 1 view .LVU237
 1047              	@ ../5-PWM_LCD_SERIAL/PWM.h:60: 	TIM4->CCMR1		|= (1UL<<3);
 1048              		.loc 3 60 15 is_stmt 0 view .LVU238
 1049 0356 1A8B     		ldrh	r2, [r3, #24]	@, MEM[(struct TIM_TypeDef *)1073743872B].CCMR1
 1050 0358 92B2     		uxth	r2, r2	@ _11, MEM[(struct TIM_TypeDef *)1073743872B].CCMR1
 1051 035a 42F00802 		orr	r2, r2, #8	@ _12, _11,
 1052 035e 1A83     		strh	r2, [r3, #24]	@ movhi	@ _12, MEM[(struct TIM_TypeDef *)1073743872B].CCMR1
  61:../5-PWM_LCD_SERIAL/PWM.h **** 
  62:../5-PWM_LCD_SERIAL/PWM.h **** 	TIM4->PSC		= 719;
 1053              		.loc 3 62 2 is_stmt 1 view .LVU239
 1054              	@ ../5-PWM_LCD_SERIAL/PWM.h:62: 	TIM4->PSC		= 719;
ARM GAS  /tmp/ccTw5KR6.s 			page 26


 1055              		.loc 3 62 13 is_stmt 0 view .LVU240
 1056 0360 40F2CF22 		movw	r2, #719	@ tmp159,
 1057 0364 1A85     		strh	r2, [r3, #40]	@ movhi	@ tmp159, MEM[(struct TIM_TypeDef *)1073743872B].PSC
  63:../5-PWM_LCD_SERIAL/PWM.h **** 	TIM4->ARR		= 999;
 1058              		.loc 3 63 2 is_stmt 1 view .LVU241
 1059              	@ ../5-PWM_LCD_SERIAL/PWM.h:63: 	TIM4->ARR		= 999;
 1060              		.loc 3 63 13 is_stmt 0 view .LVU242
 1061 0366 40F2E732 		movw	r2, #999	@ tmp162,
 1062 036a 9A85     		strh	r2, [r3, #44]	@ movhi	@ tmp162, MEM[(struct TIM_TypeDef *)1073743872B].ARR
  64:../5-PWM_LCD_SERIAL/PWM.h **** 	TIM4->CR1		&= ~(1<<4); // UpCounter
 1063              		.loc 3 64 2 is_stmt 1 view .LVU243
 1064              	@ ../5-PWM_LCD_SERIAL/PWM.h:64: 	TIM4->CR1		&= ~(1<<4); // UpCounter
 1065              		.loc 3 64 13 is_stmt 0 view .LVU244
 1066 036c 1A88     		ldrh	r2, [r3]	@, MEM[(struct TIM_TypeDef *)1073743872B].CR1
 1067 036e 22F01002 		bic	r2, r2, #16	@ _14, MEM[(struct TIM_TypeDef *)1073743872B].CR1,
 1068 0372 1204     		lsls	r2, r2, #16	@ _14, _14,
 1069 0374 120C     		lsrs	r2, r2, #16	@ _14, _14,
 1070 0376 1A80     		strh	r2, [r3]	@ movhi	@ _14, MEM[(struct TIM_TypeDef *)1073743872B].CR1
  65:../5-PWM_LCD_SERIAL/PWM.h **** 	TIM4->CR1		|= (1<<7); 
 1071              		.loc 3 65 2 is_stmt 1 view .LVU245
 1072              	@ ../5-PWM_LCD_SERIAL/PWM.h:65: 	TIM4->CR1		|= (1<<7); 
 1073              		.loc 3 65 13 is_stmt 0 view .LVU246
 1074 0378 1A88     		ldrh	r2, [r3]	@, MEM[(struct TIM_TypeDef *)1073743872B].CR1
 1075 037a 92B2     		uxth	r2, r2	@ _15, MEM[(struct TIM_TypeDef *)1073743872B].CR1
 1076 037c 42F08002 		orr	r2, r2, #128	@ _16, _15,
 1077 0380 1A80     		strh	r2, [r3]	@ movhi	@ _16, MEM[(struct TIM_TypeDef *)1073743872B].CR1
  66:../5-PWM_LCD_SERIAL/PWM.h **** 	TIM4->CCMR1		|= (1UL << 3); // Hab. o Preloar Register
 1078              		.loc 3 66 2 is_stmt 1 view .LVU247
 1079              	@ ../5-PWM_LCD_SERIAL/PWM.h:66: 	TIM4->CCMR1		|= (1UL << 3); // Hab. o Preloar Register
 1080              		.loc 3 66 15 is_stmt 0 view .LVU248
 1081 0382 1A8B     		ldrh	r2, [r3, #24]	@, MEM[(struct TIM_TypeDef *)1073743872B].CCMR1
 1082 0384 92B2     		uxth	r2, r2	@ _17, MEM[(struct TIM_TypeDef *)1073743872B].CCMR1
 1083 0386 42F00802 		orr	r2, r2, #8	@ _18, _17,
 1084 038a 1A83     		strh	r2, [r3, #24]	@ movhi	@ _18, MEM[(struct TIM_TypeDef *)1073743872B].CCMR1
  67:../5-PWM_LCD_SERIAL/PWM.h **** 	TIM4->EGR		|= 1<<0; // Reinicializa o contador e gera
 1085              		.loc 3 67 2 is_stmt 1 view .LVU249
 1086              	@ ../5-PWM_LCD_SERIAL/PWM.h:67: 	TIM4->EGR		|= 1<<0; // Reinicializa o contador e gera
 1087              		.loc 3 67 13 is_stmt 0 view .LVU250
 1088 038c 9A8A     		ldrh	r2, [r3, #20]	@, MEM[(struct TIM_TypeDef *)1073743872B].EGR
 1089 038e 92B2     		uxth	r2, r2	@ _19, MEM[(struct TIM_TypeDef *)1073743872B].EGR
 1090 0390 42F00102 		orr	r2, r2, #1	@ _20, _19,
 1091 0394 9A82     		strh	r2, [r3, #20]	@ movhi	@ _20, MEM[(struct TIM_TypeDef *)1073743872B].EGR
  68:../5-PWM_LCD_SERIAL/PWM.h **** 									// um "evento".
  69:../5-PWM_LCD_SERIAL/PWM.h **** 	TIM4->CCER		|= (1<<0); 
 1092              		.loc 3 69 2 is_stmt 1 view .LVU251
 1093              	@ ../5-PWM_LCD_SERIAL/PWM.h:69: 	TIM4->CCER		|= (1<<0); 
 1094              		.loc 3 69 14 is_stmt 0 view .LVU252
 1095 0396 1A8C     		ldrh	r2, [r3, #32]	@, MEM[(struct TIM_TypeDef *)1073743872B].CCER
 1096 0398 92B2     		uxth	r2, r2	@ _21, MEM[(struct TIM_TypeDef *)1073743872B].CCER
 1097 039a 42F00102 		orr	r2, r2, #1	@ _22, _21,
 1098 039e 1A84     		strh	r2, [r3, #32]	@ movhi	@ _22, MEM[(struct TIM_TypeDef *)1073743872B].CCER
  70:../5-PWM_LCD_SERIAL/PWM.h **** 
  71:../5-PWM_LCD_SERIAL/PWM.h **** 	TIM4->CR1		|= (1<<0); 
 1099              		.loc 3 71 2 is_stmt 1 view .LVU253
 1100              	@ ../5-PWM_LCD_SERIAL/PWM.h:71: 	TIM4->CR1		|= (1<<0); 
 1101              		.loc 3 71 13 is_stmt 0 view .LVU254
 1102 03a0 1A88     		ldrh	r2, [r3]	@, MEM[(struct TIM_TypeDef *)1073743872B].CR1
ARM GAS  /tmp/ccTw5KR6.s 			page 27


 1103 03a2 92B2     		uxth	r2, r2	@ _23, MEM[(struct TIM_TypeDef *)1073743872B].CR1
 1104 03a4 42F00102 		orr	r2, r2, #1	@ _24, _23,
 1105 03a8 1A80     		strh	r2, [r3]	@ movhi	@ _24, MEM[(struct TIM_TypeDef *)1073743872B].CR1
  72:../5-PWM_LCD_SERIAL/PWM.h **** 	TIM4->CCR1		= 0x0fff/2; // Inicializa com
 1106              		.loc 3 72 2 is_stmt 1 view .LVU255
 1107              	@ ../5-PWM_LCD_SERIAL/PWM.h:72: 	TIM4->CCR1		= 0x0fff/2; // Inicializa com
 1108              		.loc 3 72 14 is_stmt 0 view .LVU256
 1109 03aa 40F2FF72 		movw	r2, #2047	@ tmp198,
 1110 03ae 9A86     		strh	r2, [r3, #52]	@ movhi	@ tmp198, MEM[(struct TIM_TypeDef *)1073743872B].CCR1
 1111              	@ ../5-PWM_LCD_SERIAL/PWM.h:74: }
  73:../5-PWM_LCD_SERIAL/PWM.h **** 												 // metade da potencia
  74:../5-PWM_LCD_SERIAL/PWM.h **** }
 1112              		.loc 3 74 1 view .LVU257
 1113 03b0 7047     		bx	lr	@
 1114              	.L54:
 1115 03b2 00BF     		.align	2
 1116              	.L53:
 1117 03b4 00100240 		.word	1073876992
 1118 03b8 000C0140 		.word	1073810432
 1119 03bc 00080040 		.word	1073743872
 1120              		.cfi_endproc
 1121              	.LFE43:
 1122              		.size	configure_PWM_TIM4, .-configure_PWM_TIM4
 1123              		.section	.rodata.str1.1
 1124              	.LC2:
 1125 001e 4C43445F 		.ascii	"LCD_16x2\000"
 1125      31367832 
 1125      00
 1126              	.LC3:
 1127 0027 4C45445F 		.ascii	"LED_13\000"
 1127      313300
 1128              	.LC4:
 1129 002e 55534172 		.ascii	"USArt\000"
 1129      7400
 1130              	.LC5:
 1131 0034 436F6E74 		.ascii	"Contrast\000"
 1131      72617374 
 1131      00
 1132              		.section	.text.startup,"ax",%progbits
 1133              		.align	1
 1134              		.global	main
 1135              		.syntax unified
 1136              		.thumb
 1137              		.thumb_func
 1138              		.type	main, %function
 1139              	main:
 1140              	.LFB48:
 111:../5-PWM_LCD_SERIAL/main.c **** }
 112:../5-PWM_LCD_SERIAL/main.c **** 
 113:../5-PWM_LCD_SERIAL/main.c **** 
 114:../5-PWM_LCD_SERIAL/main.c **** int main(void) {
 1141              		.loc 1 114 16 is_stmt 1 view -0
 1142              		.cfi_startproc
 1143              		@ Volatile: function does not return.
 1144              		@ args = 0, pretend = 0, frame = 0
 1145              		@ frame_needed = 0, uses_anonymous_args = 0
 115:../5-PWM_LCD_SERIAL/main.c **** 	fila_ADC = xQueueCreate(5 /* Tamanho máximo da fila. */,
ARM GAS  /tmp/ccTw5KR6.s 			page 28


 1146              		.loc 1 115 2 view .LVU259
 1147              	@ ../5-PWM_LCD_SERIAL/main.c:121: 	xTaskCreate(task1,"LCD_16x2", 100 ,NULL, 4 ,NULL);
 116:../5-PWM_LCD_SERIAL/main.c **** 								sizeof(u32) /* Largura máxima da fila. */);
 117:../5-PWM_LCD_SERIAL/main.c **** 	LCD_Flag_queue = xQueueCreate(2, sizeof(u8));
 118:../5-PWM_LCD_SERIAL/main.c **** 	
 119:../5-PWM_LCD_SERIAL/main.c **** 	set_system_clock_to_72Mhz();
 120:../5-PWM_LCD_SERIAL/main.c **** 
 121:../5-PWM_LCD_SERIAL/main.c **** 	xTaskCreate(task1,"LCD_16x2", 100 ,NULL, 4 ,NULL);
 1148              		.loc 1 121 2 is_stmt 0 view .LVU260
 1149 0000 0024     		movs	r4, #0	@ tmp116,
 1150 0002 0425     		movs	r5, #4	@ tmp117,
 1151              	@ ../5-PWM_LCD_SERIAL/main.c:114: int main(void) {
 114:../5-PWM_LCD_SERIAL/main.c **** 	fila_ADC = xQueueCreate(5 /* Tamanho máximo da fila. */,
 1152              		.loc 1 114 16 view .LVU261
 1153 0004 07B5     		push	{r0, r1, r2, lr}	@
 1154              	.LCFI5:
 1155              		.cfi_def_cfa_offset 16
 1156              		.cfi_offset 14, -4
 1157              	@ ../5-PWM_LCD_SERIAL/main.c:115: 	fila_ADC = xQueueCreate(5 /* Tamanho máximo da fila. */,
 115:../5-PWM_LCD_SERIAL/main.c **** 	fila_ADC = xQueueCreate(5 /* Tamanho máximo da fila. */,
 1158              		.loc 1 115 13 view .LVU262
 1159 0006 0022     		movs	r2, #0	@,
 1160 0008 0421     		movs	r1, #4	@,
 1161 000a 0520     		movs	r0, #5	@,
 1162 000c FFF7FEFF 		bl	xQueueGenericCreate		@
 1163              	.LVL21:
 117:../5-PWM_LCD_SERIAL/main.c **** 	
 1164              		.loc 1 117 2 is_stmt 1 view .LVU263
 1165              	@ ../5-PWM_LCD_SERIAL/main.c:117: 	LCD_Flag_queue = xQueueCreate(2, sizeof(u8));
 117:../5-PWM_LCD_SERIAL/main.c **** 	
 1166              		.loc 1 117 19 is_stmt 0 view .LVU264
 1167 0010 0022     		movs	r2, #0	@,
 1168 0012 0121     		movs	r1, #1	@,
 1169 0014 0220     		movs	r0, #2	@,
 1170 0016 FFF7FEFF 		bl	xQueueGenericCreate		@
 1171              	.LVL22:
 119:../5-PWM_LCD_SERIAL/main.c **** 
 1172              		.loc 1 119 2 is_stmt 1 view .LVU265
 1173 001a FFF7FEFF 		bl	set_system_clock_to_72Mhz		@
 1174              	.LVL23:
 1175              		.loc 1 121 2 view .LVU266
 1176 001e 1148     		ldr	r0, .L57	@,
 1177 0020 2346     		mov	r3, r4	@, tmp116
 1178 0022 6422     		movs	r2, #100	@,
 1179 0024 1049     		ldr	r1, .L57+4	@,
 1180 0026 CDE90054 		strd	r5, r4, [sp]	@ tmp117, tmp116,
 1181 002a FFF7FEFF 		bl	xTaskCreate		@
 1182              	.LVL24:
 122:../5-PWM_LCD_SERIAL/main.c **** 	xTaskCreate(task2, "LED_13", 100 , NULL, 4 , NULL);
 1183              		.loc 1 122 2 view .LVU267
 1184 002e 2346     		mov	r3, r4	@, tmp116
 1185 0030 6422     		movs	r2, #100	@,
 1186 0032 0E49     		ldr	r1, .L57+8	@,
 1187 0034 CDE90054 		strd	r5, r4, [sp]	@ tmp117, tmp116,
 1188 0038 0D48     		ldr	r0, .L57+12	@,
 1189 003a FFF7FEFF 		bl	xTaskCreate		@
 1190              	.LVL25:
ARM GAS  /tmp/ccTw5KR6.s 			page 29


 123:../5-PWM_LCD_SERIAL/main.c **** 	xTaskCreate(task3, "USArt", 100 , NULL, 4 , NULL);
 1191              		.loc 1 123 2 view .LVU268
 1192 003e 2346     		mov	r3, r4	@, tmp116
 1193 0040 6422     		movs	r2, #100	@,
 1194 0042 0C49     		ldr	r1, .L57+16	@,
 1195 0044 CDE90054 		strd	r5, r4, [sp]	@ tmp117, tmp116,
 1196 0048 0B48     		ldr	r0, .L57+20	@,
 1197 004a FFF7FEFF 		bl	xTaskCreate		@
 1198              	.LVL26:
 124:../5-PWM_LCD_SERIAL/main.c **** 	xTaskCreate(task4, "Contrast", 100 , NULL, 4 , NULL);
 1199              		.loc 1 124 2 view .LVU269
 1200 004e 2346     		mov	r3, r4	@, tmp116
 1201 0050 6422     		movs	r2, #100	@,
 1202 0052 0A49     		ldr	r1, .L57+24	@,
 1203 0054 CDE90054 		strd	r5, r4, [sp]	@ tmp117, tmp116,
 1204 0058 0948     		ldr	r0, .L57+28	@,
 1205 005a FFF7FEFF 		bl	xTaskCreate		@
 1206              	.LVL27:
 125:../5-PWM_LCD_SERIAL/main.c **** 
 126:../5-PWM_LCD_SERIAL/main.c **** 	vTaskStartScheduler(); // inicia o escalonador de
 1207              		.loc 1 126 2 view .LVU270
 1208 005e FFF7FEFF 		bl	vTaskStartScheduler		@
 1209              	.LVL28:
 1210              	.L56:
 127:../5-PWM_LCD_SERIAL/main.c **** 								  // processos.
 128:../5-PWM_LCD_SERIAL/main.c **** 	while(1);
 1211              		.loc 1 128 2 discriminator 1 view .LVU271
 1212              		.loc 1 128 10 discriminator 1 view .LVU272
 1213              		.loc 1 128 7 discriminator 1 view .LVU273
 1214 0062 FEE7     		b	.L56		@
 1215              	.L58:
 1216              		.align	2
 1217              	.L57:
 1218 0064 00000000 		.word	task1
 1219 0068 1E000000 		.word	.LC2
 1220 006c 27000000 		.word	.LC3
 1221 0070 00000000 		.word	task2
 1222 0074 2E000000 		.word	.LC4
 1223 0078 00000000 		.word	task3
 1224 007c 34000000 		.word	.LC5
 1225 0080 00000000 		.word	task4
 1226              		.cfi_endproc
 1227              	.LFE48:
 1228              		.size	main, .-main
 1229              		.text
 1230              	.Letext0:
 1231              		.file 4 "/usr/arm-none-eabi/include/machine/_default_types.h"
 1232              		.file 5 "/usr/arm-none-eabi/include/sys/_stdint.h"
 1233              		.file 6 "../freertos/portable/GCC/ARM_CM3/portmacro.h"
 1234              		.file 7 "../freertos/include/queue.h"
 1235              		.file 8 "../stm32f10x_lib/CMSIS/CM3/DeviceSupport/ST/STM32F10x/stm32f10x.h"
 1236              		.file 9 "../stm32f10x_lib/CMSIS/CM3/CoreSupport/core_cm3.h"
 1237              		.file 10 "../freertos/include/task.h"
 1238              		.file 11 "../5-PWM_LCD_SERIAL/myLcd.h"
 1239              		.section	.debug_info,"",%progbits
 1240              	.Ldebug_info0:
 1241 0000 A50E0000 		.4byte	0xea5
ARM GAS  /tmp/ccTw5KR6.s 			page 30


 1242 0004 0200     		.2byte	0x2
 1243 0006 00000000 		.4byte	.Ldebug_abbrev0
 1244 000a 04       		.byte	0x4
 1245 000b 01       		.uleb128 0x1
 1246 000c 26030000 		.4byte	.LASF176
 1247 0010 0C       		.byte	0xc
 1248 0011 D2060000 		.4byte	.LASF177
 1249 0015 0C040000 		.4byte	.LASF178
 1250 0019 00000000 		.4byte	.Ldebug_ranges0+0
 1251 001d 00000000 		.4byte	0
 1252 0021 00000000 		.4byte	0
 1253 0025 00000000 		.4byte	.Ldebug_line0
 1254 0029 02       		.uleb128 0x2
 1255 002a 04       		.byte	0x4
 1256 002b 05       		.byte	0x5
 1257 002c 696E7400 		.ascii	"int\000"
 1258 0030 03       		.uleb128 0x3
 1259 0031 04       		.byte	0x4
 1260 0032 07       		.byte	0x7
 1261 0033 93020000 		.4byte	.LASF0
 1262 0037 03       		.uleb128 0x3
 1263 0038 08       		.byte	0x8
 1264 0039 05       		.byte	0x5
 1265 003a CB000000 		.4byte	.LASF1
 1266 003e 03       		.uleb128 0x3
 1267 003f 08       		.byte	0x8
 1268 0040 04       		.byte	0x4
 1269 0041 5F060000 		.4byte	.LASF2
 1270 0045 03       		.uleb128 0x3
 1271 0046 01       		.byte	0x1
 1272 0047 06       		.byte	0x6
 1273 0048 D9000000 		.4byte	.LASF3
 1274 004c 04       		.uleb128 0x4
 1275 004d 43000000 		.4byte	.LASF6
 1276 0051 04       		.byte	0x4
 1277 0052 2B       		.byte	0x2b
 1278 0053 18       		.byte	0x18
 1279 0054 58000000 		.4byte	0x58
 1280 0058 03       		.uleb128 0x3
 1281 0059 01       		.byte	0x1
 1282 005a 08       		.byte	0x8
 1283 005b 7A050000 		.4byte	.LASF4
 1284 005f 03       		.uleb128 0x3
 1285 0060 02       		.byte	0x2
 1286 0061 05       		.byte	0x5
 1287 0062 A7050000 		.4byte	.LASF5
 1288 0066 04       		.uleb128 0x4
 1289 0067 3A020000 		.4byte	.LASF7
 1290 006b 04       		.byte	0x4
 1291 006c 39       		.byte	0x39
 1292 006d 19       		.byte	0x19
 1293 006e 72000000 		.4byte	0x72
 1294 0072 03       		.uleb128 0x3
 1295 0073 02       		.byte	0x2
 1296 0074 07       		.byte	0x7
 1297 0075 14020000 		.4byte	.LASF8
 1298 0079 03       		.uleb128 0x3
ARM GAS  /tmp/ccTw5KR6.s 			page 31


 1299 007a 04       		.byte	0x4
 1300 007b 05       		.byte	0x5
 1301 007c 9D010000 		.4byte	.LASF9
 1302 0080 04       		.uleb128 0x4
 1303 0081 45020000 		.4byte	.LASF10
 1304 0085 04       		.byte	0x4
 1305 0086 4F       		.byte	0x4f
 1306 0087 19       		.byte	0x19
 1307 0088 8C000000 		.4byte	0x8c
 1308 008c 03       		.uleb128 0x3
 1309 008d 04       		.byte	0x4
 1310 008e 07       		.byte	0x7
 1311 008f B6020000 		.4byte	.LASF11
 1312 0093 03       		.uleb128 0x3
 1313 0094 08       		.byte	0x8
 1314 0095 07       		.byte	0x7
 1315 0096 18010000 		.4byte	.LASF12
 1316 009a 04       		.uleb128 0x4
 1317 009b 81070000 		.4byte	.LASF13
 1318 009f 05       		.byte	0x5
 1319 00a0 18       		.byte	0x18
 1320 00a1 13       		.byte	0x13
 1321 00a2 4C000000 		.4byte	0x4c
 1322 00a6 05       		.uleb128 0x5
 1323 00a7 9A000000 		.4byte	0x9a
 1324 00ab 04       		.uleb128 0x4
 1325 00ac E7010000 		.4byte	.LASF14
 1326 00b0 05       		.byte	0x5
 1327 00b1 24       		.byte	0x24
 1328 00b2 14       		.byte	0x14
 1329 00b3 66000000 		.4byte	0x66
 1330 00b7 05       		.uleb128 0x5
 1331 00b8 AB000000 		.4byte	0xab
 1332 00bc 04       		.uleb128 0x4
 1333 00bd 30060000 		.4byte	.LASF15
 1334 00c1 05       		.byte	0x5
 1335 00c2 30       		.byte	0x30
 1336 00c3 14       		.byte	0x14
 1337 00c4 80000000 		.4byte	0x80
 1338 00c8 05       		.uleb128 0x5
 1339 00c9 BC000000 		.4byte	0xbc
 1340 00cd 06       		.uleb128 0x6
 1341 00ce 04       		.byte	0x4
 1342 00cf 04       		.uleb128 0x4
 1343 00d0 77040000 		.4byte	.LASF16
 1344 00d4 06       		.byte	0x6
 1345 00d5 3F       		.byte	0x3f
 1346 00d6 13       		.byte	0x13
 1347 00d7 BC000000 		.4byte	0xbc
 1348 00db 03       		.uleb128 0x3
 1349 00dc 01       		.byte	0x1
 1350 00dd 08       		.byte	0x8
 1351 00de 83060000 		.4byte	.LASF17
 1352 00e2 04       		.uleb128 0x4
 1353 00e3 92000000 		.4byte	.LASF18
 1354 00e7 07       		.byte	0x7
 1355 00e8 30       		.byte	0x30
ARM GAS  /tmp/ccTw5KR6.s 			page 32


 1356 00e9 22       		.byte	0x22
 1357 00ea EE000000 		.4byte	0xee
 1358 00ee 07       		.uleb128 0x7
 1359 00ef 04       		.byte	0x4
 1360 00f0 F4000000 		.4byte	0xf4
 1361 00f4 08       		.uleb128 0x8
 1362 00f5 50050000 		.4byte	.LASF179
 1363 00f9 01       		.byte	0x1
 1364 00fa 09       		.uleb128 0x9
 1365 00fb DC030000 		.4byte	.LASF162
 1366 00ff 05       		.byte	0x5
 1367 0100 01       		.byte	0x1
 1368 0101 45000000 		.4byte	0x45
 1369 0105 08       		.byte	0x8
 1370 0106 A7       		.byte	0xa7
 1371 0107 0E       		.byte	0xe
 1372 0108 3F020000 		.4byte	0x23f
 1373 010c 0A       		.uleb128 0xa
 1374 010d BE060000 		.4byte	.LASF19
 1375 0111 72       		.sleb128 -14
 1376 0112 0A       		.uleb128 0xa
 1377 0113 A0020000 		.4byte	.LASF20
 1378 0117 74       		.sleb128 -12
 1379 0118 0A       		.uleb128 0xa
 1380 0119 62020000 		.4byte	.LASF21
 1381 011d 75       		.sleb128 -11
 1382 011e 0A       		.uleb128 0xa
 1383 011f 4F060000 		.4byte	.LASF22
 1384 0123 76       		.sleb128 -10
 1385 0124 0A       		.uleb128 0xa
 1386 0125 4D040000 		.4byte	.LASF23
 1387 0129 7B       		.sleb128 -5
 1388 012a 0A       		.uleb128 0xa
 1389 012b B0030000 		.4byte	.LASF24
 1390 012f 7C       		.sleb128 -4
 1391 0130 0A       		.uleb128 0xa
 1392 0131 08020000 		.4byte	.LASF25
 1393 0135 7E       		.sleb128 -2
 1394 0136 0A       		.uleb128 0xa
 1395 0137 C2030000 		.4byte	.LASF26
 1396 013b 7F       		.sleb128 -1
 1397 013c 0B       		.uleb128 0xb
 1398 013d AB000000 		.4byte	.LASF27
 1399 0141 00       		.byte	0
 1400 0142 0B       		.uleb128 0xb
 1401 0143 16000000 		.4byte	.LASF28
 1402 0147 01       		.byte	0x1
 1403 0148 0B       		.uleb128 0xb
 1404 0149 08070000 		.4byte	.LASF29
 1405 014d 02       		.byte	0x2
 1406 014e 0B       		.uleb128 0xb
 1407 014f 59000000 		.4byte	.LASF30
 1408 0153 03       		.byte	0x3
 1409 0154 0B       		.uleb128 0xb
 1410 0155 D5020000 		.4byte	.LASF31
 1411 0159 04       		.byte	0x4
 1412 015a 0B       		.uleb128 0xb
ARM GAS  /tmp/ccTw5KR6.s 			page 33


 1413 015b 27080000 		.4byte	.LASF32
 1414 015f 05       		.byte	0x5
 1415 0160 0B       		.uleb128 0xb
 1416 0161 EA000000 		.4byte	.LASF33
 1417 0165 06       		.byte	0x6
 1418 0166 0B       		.uleb128 0xb
 1419 0167 41080000 		.4byte	.LASF34
 1420 016b 07       		.byte	0x7
 1421 016c 0B       		.uleb128 0xb
 1422 016d A0000000 		.4byte	.LASF35
 1423 0171 08       		.byte	0x8
 1424 0172 0B       		.uleb128 0xb
 1425 0173 70070000 		.4byte	.LASF36
 1426 0177 09       		.byte	0x9
 1427 0178 0B       		.uleb128 0xb
 1428 0179 9C050000 		.4byte	.LASF37
 1429 017d 0A       		.byte	0xa
 1430 017e 0B       		.uleb128 0xb
 1431 017f E3040000 		.4byte	.LASF38
 1432 0183 0B       		.byte	0xb
 1433 0184 0B       		.uleb128 0xb
 1434 0185 F9030000 		.4byte	.LASF39
 1435 0189 0C       		.byte	0xc
 1436 018a 0B       		.uleb128 0xb
 1437 018b 70060000 		.4byte	.LASF40
 1438 018f 0D       		.byte	0xd
 1439 0190 0B       		.uleb128 0xb
 1440 0191 27020000 		.4byte	.LASF41
 1441 0195 0E       		.byte	0xe
 1442 0196 0B       		.uleb128 0xb
 1443 0197 F8020000 		.4byte	.LASF42
 1444 019b 0F       		.byte	0xf
 1445 019c 0B       		.uleb128 0xb
 1446 019d ED060000 		.4byte	.LASF43
 1447 01a1 10       		.byte	0x10
 1448 01a2 0B       		.uleb128 0xb
 1449 01a3 B0070000 		.4byte	.LASF44
 1450 01a7 11       		.byte	0x11
 1451 01a8 0B       		.uleb128 0xb
 1452 01a9 FC010000 		.4byte	.LASF45
 1453 01ad 12       		.byte	0x12
 1454 01ae 0B       		.uleb128 0xb
 1455 01af 88050000 		.4byte	.LASF46
 1456 01b3 13       		.byte	0x13
 1457 01b4 0B       		.uleb128 0xb
 1458 01b5 C9050000 		.4byte	.LASF47
 1459 01b9 14       		.byte	0x14
 1460 01ba 0B       		.uleb128 0xb
 1461 01bb 62000000 		.4byte	.LASF48
 1462 01bf 15       		.byte	0x15
 1463 01c0 0B       		.uleb128 0xb
 1464 01c1 19080000 		.4byte	.LASF49
 1465 01c5 16       		.byte	0x16
 1466 01c6 0B       		.uleb128 0xb
 1467 01c7 C1010000 		.4byte	.LASF50
 1468 01cb 17       		.byte	0x17
 1469 01cc 0B       		.uleb128 0xb
ARM GAS  /tmp/ccTw5KR6.s 			page 34


 1470 01cd 88060000 		.4byte	.LASF51
 1471 01d1 18       		.byte	0x18
 1472 01d2 0B       		.uleb128 0xb
 1473 01d3 14070000 		.4byte	.LASF52
 1474 01d7 19       		.byte	0x19
 1475 01d8 0B       		.uleb128 0xb
 1476 01d9 24000000 		.4byte	.LASF53
 1477 01dd 1A       		.byte	0x1a
 1478 01de 0B       		.uleb128 0xb
 1479 01df CF030000 		.4byte	.LASF54
 1480 01e3 1B       		.byte	0x1b
 1481 01e4 0B       		.uleb128 0xb
 1482 01e5 4B070000 		.4byte	.LASF55
 1483 01e9 1C       		.byte	0x1c
 1484 01ea 0B       		.uleb128 0xb
 1485 01eb 30080000 		.4byte	.LASF56
 1486 01ef 1D       		.byte	0x1d
 1487 01f0 0B       		.uleb128 0xb
 1488 01f1 88000000 		.4byte	.LASF57
 1489 01f5 1E       		.byte	0x1e
 1490 01f6 0B       		.uleb128 0xb
 1491 01f7 36000000 		.4byte	.LASF58
 1492 01fb 1F       		.byte	0x1f
 1493 01fc 0B       		.uleb128 0xb
 1494 01fd EE070000 		.4byte	.LASF59
 1495 0201 20       		.byte	0x20
 1496 0202 0B       		.uleb128 0xb
 1497 0203 59040000 		.4byte	.LASF60
 1498 0207 21       		.byte	0x21
 1499 0208 0B       		.uleb128 0xb
 1500 0209 7B000000 		.4byte	.LASF61
 1501 020d 22       		.byte	0x22
 1502 020e 0B       		.uleb128 0xb
 1503 020f A6030000 		.4byte	.LASF62
 1504 0213 23       		.byte	0x23
 1505 0214 0B       		.uleb128 0xb
 1506 0215 88040000 		.4byte	.LASF63
 1507 0219 24       		.byte	0x24
 1508 021a 0B       		.uleb128 0xb
 1509 021b 5F070000 		.4byte	.LASF64
 1510 021f 25       		.byte	0x25
 1511 0220 0B       		.uleb128 0xb
 1512 0221 43060000 		.4byte	.LASF65
 1513 0225 26       		.byte	0x26
 1514 0226 0B       		.uleb128 0xb
 1515 0227 3A070000 		.4byte	.LASF66
 1516 022b 27       		.byte	0x27
 1517 022c 0B       		.uleb128 0xb
 1518 022d 17030000 		.4byte	.LASF67
 1519 0231 28       		.byte	0x28
 1520 0232 0B       		.uleb128 0xb
 1521 0233 9B060000 		.4byte	.LASF68
 1522 0237 29       		.byte	0x29
 1523 0238 0B       		.uleb128 0xb
 1524 0239 21070000 		.4byte	.LASF69
 1525 023d 2A       		.byte	0x2a
 1526 023e 00       		.byte	0
ARM GAS  /tmp/ccTw5KR6.s 			page 35


 1527 023f 0C       		.uleb128 0xc
 1528 0240 26060000 		.4byte	.LASF70
 1529 0244 08       		.byte	0x8
 1530 0245 D801     		.2byte	0x1d8
 1531 0247 03       		.byte	0x3
 1532 0248 FA000000 		.4byte	0xfa
 1533 024c 0D       		.uleb128 0xd
 1534 024d 040E     		.2byte	0xe04
 1535 024f 09       		.byte	0x9
 1536 0250 84       		.byte	0x84
 1537 0251 09       		.byte	0x9
 1538 0252 24030000 		.4byte	0x324
 1539 0256 0E       		.uleb128 0xe
 1540 0257 B1050000 		.4byte	.LASF71
 1541 025b 09       		.byte	0x9
 1542 025c 86       		.byte	0x86
 1543 025d 11       		.byte	0x11
 1544 025e 34030000 		.4byte	0x334
 1545 0262 02       		.byte	0x2
 1546 0263 23       		.byte	0x23
 1547 0264 00       		.uleb128 0
 1548 0265 0E       		.uleb128 0xe
 1549 0266 F6040000 		.4byte	.LASF72
 1550 026a 09       		.byte	0x9
 1551 026b 87       		.byte	0x87
 1552 026c 11       		.byte	0x11
 1553 026d 39030000 		.4byte	0x339
 1554 0271 02       		.byte	0x2
 1555 0272 23       		.byte	0x23
 1556 0273 20       		.uleb128 0x20
 1557 0274 0E       		.uleb128 0xe
 1558 0275 AF040000 		.4byte	.LASF73
 1559 0279 09       		.byte	0x9
 1560 027a 88       		.byte	0x88
 1561 027b 11       		.byte	0x11
 1562 027c 34030000 		.4byte	0x334
 1563 0280 03       		.byte	0x3
 1564 0281 23       		.byte	0x23
 1565 0282 8001     		.uleb128 0x80
 1566 0284 0E       		.uleb128 0xe
 1567 0285 89070000 		.4byte	.LASF74
 1568 0289 09       		.byte	0x9
 1569 028a 89       		.byte	0x89
 1570 028b 11       		.byte	0x11
 1571 028c 39030000 		.4byte	0x339
 1572 0290 03       		.byte	0x3
 1573 0291 23       		.byte	0x23
 1574 0292 A001     		.uleb128 0xa0
 1575 0294 0E       		.uleb128 0xe
 1576 0295 B5000000 		.4byte	.LASF75
 1577 0299 09       		.byte	0x9
 1578 029a 8A       		.byte	0x8a
 1579 029b 11       		.byte	0x11
 1580 029c 34030000 		.4byte	0x334
 1581 02a0 03       		.byte	0x3
 1582 02a1 23       		.byte	0x23
 1583 02a2 8002     		.uleb128 0x100
ARM GAS  /tmp/ccTw5KR6.s 			page 36


 1584 02a4 0E       		.uleb128 0xe
 1585 02a5 0A050000 		.4byte	.LASF76
 1586 02a9 09       		.byte	0x9
 1587 02aa 8B       		.byte	0x8b
 1588 02ab 11       		.byte	0x11
 1589 02ac 39030000 		.4byte	0x339
 1590 02b0 03       		.byte	0x3
 1591 02b1 23       		.byte	0x23
 1592 02b2 A002     		.uleb128 0x120
 1593 02b4 0E       		.uleb128 0xe
 1594 02b5 00000000 		.4byte	.LASF77
 1595 02b9 09       		.byte	0x9
 1596 02ba 8C       		.byte	0x8c
 1597 02bb 11       		.byte	0x11
 1598 02bc 34030000 		.4byte	0x334
 1599 02c0 03       		.byte	0x3
 1600 02c1 23       		.byte	0x23
 1601 02c2 8003     		.uleb128 0x180
 1602 02c4 0E       		.uleb128 0xe
 1603 02c5 14050000 		.4byte	.LASF78
 1604 02c9 09       		.byte	0x9
 1605 02ca 8D       		.byte	0x8d
 1606 02cb 11       		.byte	0x11
 1607 02cc 39030000 		.4byte	0x339
 1608 02d0 03       		.byte	0x3
 1609 02d1 23       		.byte	0x23
 1610 02d2 A003     		.uleb128 0x1a0
 1611 02d4 0E       		.uleb128 0xe
 1612 02d5 72040000 		.4byte	.LASF79
 1613 02d9 09       		.byte	0x9
 1614 02da 8E       		.byte	0x8e
 1615 02db 11       		.byte	0x11
 1616 02dc 34030000 		.4byte	0x334
 1617 02e0 03       		.byte	0x3
 1618 02e1 23       		.byte	0x23
 1619 02e2 8004     		.uleb128 0x200
 1620 02e4 0E       		.uleb128 0xe
 1621 02e5 1E050000 		.4byte	.LASF80
 1622 02e9 09       		.byte	0x9
 1623 02ea 8F       		.byte	0x8f
 1624 02eb 11       		.byte	0x11
 1625 02ec 49030000 		.4byte	0x349
 1626 02f0 03       		.byte	0x3
 1627 02f1 23       		.byte	0x23
 1628 02f2 A004     		.uleb128 0x220
 1629 02f4 0F       		.uleb128 0xf
 1630 02f5 495000   		.ascii	"IP\000"
 1631 02f8 09       		.byte	0x9
 1632 02f9 90       		.byte	0x90
 1633 02fa 11       		.byte	0x11
 1634 02fb 69030000 		.4byte	0x369
 1635 02ff 03       		.byte	0x3
 1636 0300 23       		.byte	0x23
 1637 0301 8006     		.uleb128 0x300
 1638 0303 0E       		.uleb128 0xe
 1639 0304 28050000 		.4byte	.LASF81
 1640 0308 09       		.byte	0x9
ARM GAS  /tmp/ccTw5KR6.s 			page 37


 1641 0309 91       		.byte	0x91
 1642 030a 11       		.byte	0x11
 1643 030b 6E030000 		.4byte	0x36e
 1644 030f 03       		.byte	0x3
 1645 0310 23       		.byte	0x23
 1646 0311 F007     		.uleb128 0x3f0
 1647 0313 0E       		.uleb128 0xe
 1648 0314 92070000 		.4byte	.LASF82
 1649 0318 09       		.byte	0x9
 1650 0319 92       		.byte	0x92
 1651 031a 11       		.byte	0x11
 1652 031b C8000000 		.4byte	0xc8
 1653 031f 03       		.byte	0x3
 1654 0320 23       		.byte	0x23
 1655 0321 801C     		.uleb128 0xe00
 1656 0323 00       		.byte	0
 1657 0324 10       		.uleb128 0x10
 1658 0325 C8000000 		.4byte	0xc8
 1659 0329 34030000 		.4byte	0x334
 1660 032d 11       		.uleb128 0x11
 1661 032e 30000000 		.4byte	0x30
 1662 0332 07       		.byte	0x7
 1663 0333 00       		.byte	0
 1664 0334 05       		.uleb128 0x5
 1665 0335 24030000 		.4byte	0x324
 1666 0339 10       		.uleb128 0x10
 1667 033a BC000000 		.4byte	0xbc
 1668 033e 49030000 		.4byte	0x349
 1669 0342 11       		.uleb128 0x11
 1670 0343 30000000 		.4byte	0x30
 1671 0347 17       		.byte	0x17
 1672 0348 00       		.byte	0
 1673 0349 10       		.uleb128 0x10
 1674 034a BC000000 		.4byte	0xbc
 1675 034e 59030000 		.4byte	0x359
 1676 0352 11       		.uleb128 0x11
 1677 0353 30000000 		.4byte	0x30
 1678 0357 37       		.byte	0x37
 1679 0358 00       		.byte	0
 1680 0359 10       		.uleb128 0x10
 1681 035a A6000000 		.4byte	0xa6
 1682 035e 69030000 		.4byte	0x369
 1683 0362 11       		.uleb128 0x11
 1684 0363 30000000 		.4byte	0x30
 1685 0367 EF       		.byte	0xef
 1686 0368 00       		.byte	0
 1687 0369 05       		.uleb128 0x5
 1688 036a 59030000 		.4byte	0x359
 1689 036e 10       		.uleb128 0x10
 1690 036f BC000000 		.4byte	0xbc
 1691 0373 7F030000 		.4byte	0x37f
 1692 0377 12       		.uleb128 0x12
 1693 0378 30000000 		.4byte	0x30
 1694 037c 8302     		.2byte	0x283
 1695 037e 00       		.byte	0
 1696 037f 04       		.uleb128 0x4
 1697 0380 B6050000 		.4byte	.LASF83
ARM GAS  /tmp/ccTw5KR6.s 			page 38


 1698 0384 09       		.byte	0x9
 1699 0385 93       		.byte	0x93
 1700 0386 04       		.byte	0x4
 1701 0387 4C020000 		.4byte	0x24c
 1702 038b 13       		.uleb128 0x13
 1703 038c 75333200 		.ascii	"u32\000"
 1704 0390 08       		.byte	0x8
 1705 0391 F701     		.2byte	0x1f7
 1706 0393 13       		.byte	0x13
 1707 0394 BC000000 		.4byte	0xbc
 1708 0398 05       		.uleb128 0x5
 1709 0399 8B030000 		.4byte	0x38b
 1710 039d 13       		.uleb128 0x13
 1711 039e 753800   		.ascii	"u8\000"
 1712 03a1 08       		.byte	0x8
 1713 03a2 F901     		.2byte	0x1f9
 1714 03a4 12       		.byte	0x12
 1715 03a5 9A000000 		.4byte	0x9a
 1716 03a9 14       		.uleb128 0x14
 1717 03aa 50       		.byte	0x50
 1718 03ab 08       		.byte	0x8
 1719 03ac 1E02     		.2byte	0x21e
 1720 03ae 09       		.byte	0x9
 1721 03af F2040000 		.4byte	0x4f2
 1722 03b3 15       		.uleb128 0x15
 1723 03b4 535200   		.ascii	"SR\000"
 1724 03b7 08       		.byte	0x8
 1725 03b8 2002     		.2byte	0x220
 1726 03ba 11       		.byte	0x11
 1727 03bb C8000000 		.4byte	0xc8
 1728 03bf 02       		.byte	0x2
 1729 03c0 23       		.byte	0x23
 1730 03c1 00       		.uleb128 0
 1731 03c2 15       		.uleb128 0x15
 1732 03c3 43523100 		.ascii	"CR1\000"
 1733 03c7 08       		.byte	0x8
 1734 03c8 2102     		.2byte	0x221
 1735 03ca 11       		.byte	0x11
 1736 03cb C8000000 		.4byte	0xc8
 1737 03cf 02       		.byte	0x2
 1738 03d0 23       		.byte	0x23
 1739 03d1 04       		.uleb128 0x4
 1740 03d2 15       		.uleb128 0x15
 1741 03d3 43523200 		.ascii	"CR2\000"
 1742 03d7 08       		.byte	0x8
 1743 03d8 2202     		.2byte	0x222
 1744 03da 11       		.byte	0x11
 1745 03db C8000000 		.4byte	0xc8
 1746 03df 02       		.byte	0x2
 1747 03e0 23       		.byte	0x23
 1748 03e1 08       		.uleb128 0x8
 1749 03e2 16       		.uleb128 0x16
 1750 03e3 A3040000 		.4byte	.LASF84
 1751 03e7 08       		.byte	0x8
 1752 03e8 2302     		.2byte	0x223
 1753 03ea 11       		.byte	0x11
 1754 03eb C8000000 		.4byte	0xc8
ARM GAS  /tmp/ccTw5KR6.s 			page 39


 1755 03ef 02       		.byte	0x2
 1756 03f0 23       		.byte	0x23
 1757 03f1 0C       		.uleb128 0xc
 1758 03f2 16       		.uleb128 0x16
 1759 03f3 A9040000 		.4byte	.LASF85
 1760 03f7 08       		.byte	0x8
 1761 03f8 2402     		.2byte	0x224
 1762 03fa 11       		.byte	0x11
 1763 03fb C8000000 		.4byte	0xc8
 1764 03ff 02       		.byte	0x2
 1765 0400 23       		.byte	0x23
 1766 0401 10       		.uleb128 0x10
 1767 0402 16       		.uleb128 0x16
 1768 0403 E1030000 		.4byte	.LASF86
 1769 0407 08       		.byte	0x8
 1770 0408 2502     		.2byte	0x225
 1771 040a 11       		.byte	0x11
 1772 040b C8000000 		.4byte	0xc8
 1773 040f 02       		.byte	0x2
 1774 0410 23       		.byte	0x23
 1775 0411 14       		.uleb128 0x14
 1776 0412 16       		.uleb128 0x16
 1777 0413 E7030000 		.4byte	.LASF87
 1778 0417 08       		.byte	0x8
 1779 0418 2602     		.2byte	0x226
 1780 041a 11       		.byte	0x11
 1781 041b C8000000 		.4byte	0xc8
 1782 041f 02       		.byte	0x2
 1783 0420 23       		.byte	0x23
 1784 0421 18       		.uleb128 0x18
 1785 0422 16       		.uleb128 0x16
 1786 0423 ED030000 		.4byte	.LASF88
 1787 0427 08       		.byte	0x8
 1788 0428 2702     		.2byte	0x227
 1789 042a 11       		.byte	0x11
 1790 042b C8000000 		.4byte	0xc8
 1791 042f 02       		.byte	0x2
 1792 0430 23       		.byte	0x23
 1793 0431 1C       		.uleb128 0x1c
 1794 0432 16       		.uleb128 0x16
 1795 0433 F3030000 		.4byte	.LASF89
 1796 0437 08       		.byte	0x8
 1797 0438 2802     		.2byte	0x228
 1798 043a 11       		.byte	0x11
 1799 043b C8000000 		.4byte	0xc8
 1800 043f 02       		.byte	0x2
 1801 0440 23       		.byte	0x23
 1802 0441 20       		.uleb128 0x20
 1803 0442 15       		.uleb128 0x15
 1804 0443 48545200 		.ascii	"HTR\000"
 1805 0447 08       		.byte	0x8
 1806 0448 2902     		.2byte	0x229
 1807 044a 11       		.byte	0x11
 1808 044b C8000000 		.4byte	0xc8
 1809 044f 02       		.byte	0x2
 1810 0450 23       		.byte	0x23
 1811 0451 24       		.uleb128 0x24
ARM GAS  /tmp/ccTw5KR6.s 			page 40


 1812 0452 15       		.uleb128 0x15
 1813 0453 4C545200 		.ascii	"LTR\000"
 1814 0457 08       		.byte	0x8
 1815 0458 2A02     		.2byte	0x22a
 1816 045a 11       		.byte	0x11
 1817 045b C8000000 		.4byte	0xc8
 1818 045f 02       		.byte	0x2
 1819 0460 23       		.byte	0x23
 1820 0461 28       		.uleb128 0x28
 1821 0462 16       		.uleb128 0x16
 1822 0463 D4040000 		.4byte	.LASF90
 1823 0467 08       		.byte	0x8
 1824 0468 2B02     		.2byte	0x22b
 1825 046a 11       		.byte	0x11
 1826 046b C8000000 		.4byte	0xc8
 1827 046f 02       		.byte	0x2
 1828 0470 23       		.byte	0x23
 1829 0471 2C       		.uleb128 0x2c
 1830 0472 16       		.uleb128 0x16
 1831 0473 D9040000 		.4byte	.LASF91
 1832 0477 08       		.byte	0x8
 1833 0478 2C02     		.2byte	0x22c
 1834 047a 11       		.byte	0x11
 1835 047b C8000000 		.4byte	0xc8
 1836 047f 02       		.byte	0x2
 1837 0480 23       		.byte	0x23
 1838 0481 30       		.uleb128 0x30
 1839 0482 16       		.uleb128 0x16
 1840 0483 DE040000 		.4byte	.LASF92
 1841 0487 08       		.byte	0x8
 1842 0488 2D02     		.2byte	0x22d
 1843 048a 11       		.byte	0x11
 1844 048b C8000000 		.4byte	0xc8
 1845 048f 02       		.byte	0x2
 1846 0490 23       		.byte	0x23
 1847 0491 34       		.uleb128 0x34
 1848 0492 16       		.uleb128 0x16
 1849 0493 BA000000 		.4byte	.LASF93
 1850 0497 08       		.byte	0x8
 1851 0498 2E02     		.2byte	0x22e
 1852 049a 11       		.byte	0x11
 1853 049b C8000000 		.4byte	0xc8
 1854 049f 02       		.byte	0x2
 1855 04a0 23       		.byte	0x23
 1856 04a1 38       		.uleb128 0x38
 1857 04a2 16       		.uleb128 0x16
 1858 04a3 97070000 		.4byte	.LASF94
 1859 04a7 08       		.byte	0x8
 1860 04a8 2F02     		.2byte	0x22f
 1861 04aa 11       		.byte	0x11
 1862 04ab C8000000 		.4byte	0xc8
 1863 04af 02       		.byte	0x2
 1864 04b0 23       		.byte	0x23
 1865 04b1 3C       		.uleb128 0x3c
 1866 04b2 16       		.uleb128 0x16
 1867 04b3 9C070000 		.4byte	.LASF95
 1868 04b7 08       		.byte	0x8
ARM GAS  /tmp/ccTw5KR6.s 			page 41


 1869 04b8 3002     		.2byte	0x230
 1870 04ba 11       		.byte	0x11
 1871 04bb C8000000 		.4byte	0xc8
 1872 04bf 02       		.byte	0x2
 1873 04c0 23       		.byte	0x23
 1874 04c1 40       		.uleb128 0x40
 1875 04c2 16       		.uleb128 0x16
 1876 04c3 A1070000 		.4byte	.LASF96
 1877 04c7 08       		.byte	0x8
 1878 04c8 3102     		.2byte	0x231
 1879 04ca 11       		.byte	0x11
 1880 04cb C8000000 		.4byte	0xc8
 1881 04cf 02       		.byte	0x2
 1882 04d0 23       		.byte	0x23
 1883 04d1 44       		.uleb128 0x44
 1884 04d2 16       		.uleb128 0x16
 1885 04d3 A6070000 		.4byte	.LASF97
 1886 04d7 08       		.byte	0x8
 1887 04d8 3202     		.2byte	0x232
 1888 04da 11       		.byte	0x11
 1889 04db C8000000 		.4byte	0xc8
 1890 04df 02       		.byte	0x2
 1891 04e0 23       		.byte	0x23
 1892 04e1 48       		.uleb128 0x48
 1893 04e2 15       		.uleb128 0x15
 1894 04e3 445200   		.ascii	"DR\000"
 1895 04e6 08       		.byte	0x8
 1896 04e7 3302     		.2byte	0x233
 1897 04e9 11       		.byte	0x11
 1898 04ea C8000000 		.4byte	0xc8
 1899 04ee 02       		.byte	0x2
 1900 04ef 23       		.byte	0x23
 1901 04f0 4C       		.uleb128 0x4c
 1902 04f1 00       		.byte	0
 1903 04f2 0C       		.uleb128 0xc
 1904 04f3 F0010000 		.4byte	.LASF98
 1905 04f7 08       		.byte	0x8
 1906 04f8 3402     		.2byte	0x234
 1907 04fa 03       		.byte	0x3
 1908 04fb A9030000 		.4byte	0x3a9
 1909 04ff 14       		.uleb128 0x14
 1910 0500 24       		.byte	0x24
 1911 0501 08       		.byte	0x8
 1912 0502 8503     		.2byte	0x385
 1913 0504 09       		.byte	0x9
 1914 0505 97050000 		.4byte	0x597
 1915 0509 15       		.uleb128 0x15
 1916 050a 41435200 		.ascii	"ACR\000"
 1917 050e 08       		.byte	0x8
 1918 050f 8703     		.2byte	0x387
 1919 0511 11       		.byte	0x11
 1920 0512 C8000000 		.4byte	0xc8
 1921 0516 02       		.byte	0x2
 1922 0517 23       		.byte	0x23
 1923 0518 00       		.uleb128 0
 1924 0519 16       		.uleb128 0x16
 1925 051a 84020000 		.4byte	.LASF99
ARM GAS  /tmp/ccTw5KR6.s 			page 42


 1926 051e 08       		.byte	0x8
 1927 051f 8803     		.2byte	0x388
 1928 0521 11       		.byte	0x11
 1929 0522 C8000000 		.4byte	0xc8
 1930 0526 02       		.byte	0x2
 1931 0527 23       		.byte	0x23
 1932 0528 04       		.uleb128 0x4
 1933 0529 16       		.uleb128 0x16
 1934 052a DF010000 		.4byte	.LASF100
 1935 052e 08       		.byte	0x8
 1936 052f 8903     		.2byte	0x389
 1937 0531 11       		.byte	0x11
 1938 0532 C8000000 		.4byte	0xc8
 1939 0536 02       		.byte	0x2
 1940 0537 23       		.byte	0x23
 1941 0538 08       		.uleb128 0x8
 1942 0539 15       		.uleb128 0x15
 1943 053a 535200   		.ascii	"SR\000"
 1944 053d 08       		.byte	0x8
 1945 053e 8A03     		.2byte	0x38a
 1946 0540 11       		.byte	0x11
 1947 0541 C8000000 		.4byte	0xc8
 1948 0545 02       		.byte	0x2
 1949 0546 23       		.byte	0x23
 1950 0547 0C       		.uleb128 0xc
 1951 0548 15       		.uleb128 0x15
 1952 0549 435200   		.ascii	"CR\000"
 1953 054c 08       		.byte	0x8
 1954 054d 8B03     		.2byte	0x38b
 1955 054f 11       		.byte	0x11
 1956 0550 C8000000 		.4byte	0xc8
 1957 0554 02       		.byte	0x2
 1958 0555 23       		.byte	0x23
 1959 0556 10       		.uleb128 0x10
 1960 0557 15       		.uleb128 0x15
 1961 0558 415200   		.ascii	"AR\000"
 1962 055b 08       		.byte	0x8
 1963 055c 8C03     		.2byte	0x38c
 1964 055e 11       		.byte	0x11
 1965 055f C8000000 		.4byte	0xc8
 1966 0563 02       		.byte	0x2
 1967 0564 23       		.byte	0x23
 1968 0565 14       		.uleb128 0x14
 1969 0566 16       		.uleb128 0x16
 1970 0567 C0050000 		.4byte	.LASF101
 1971 056b 08       		.byte	0x8
 1972 056c 8D03     		.2byte	0x38d
 1973 056e 11       		.byte	0x11
 1974 056f C8000000 		.4byte	0xc8
 1975 0573 02       		.byte	0x2
 1976 0574 23       		.byte	0x23
 1977 0575 18       		.uleb128 0x18
 1978 0576 15       		.uleb128 0x15
 1979 0577 4F425200 		.ascii	"OBR\000"
 1980 057b 08       		.byte	0x8
 1981 057c 8E03     		.2byte	0x38e
 1982 057e 11       		.byte	0x11
ARM GAS  /tmp/ccTw5KR6.s 			page 43


 1983 057f C8000000 		.4byte	0xc8
 1984 0583 02       		.byte	0x2
 1985 0584 23       		.byte	0x23
 1986 0585 1C       		.uleb128 0x1c
 1987 0586 16       		.uleb128 0x16
 1988 0587 6B060000 		.4byte	.LASF102
 1989 058b 08       		.byte	0x8
 1990 058c 8F03     		.2byte	0x38f
 1991 058e 11       		.byte	0x11
 1992 058f C8000000 		.4byte	0xc8
 1993 0593 02       		.byte	0x2
 1994 0594 23       		.byte	0x23
 1995 0595 20       		.uleb128 0x20
 1996 0596 00       		.byte	0
 1997 0597 0C       		.uleb128 0xc
 1998 0598 F5000000 		.4byte	.LASF103
 1999 059c 08       		.byte	0x8
 2000 059d 9803     		.2byte	0x398
 2001 059f 03       		.byte	0x3
 2002 05a0 FF040000 		.4byte	0x4ff
 2003 05a4 14       		.uleb128 0x14
 2004 05a5 1C       		.byte	0x1c
 2005 05a6 08       		.byte	0x8
 2006 05a7 E903     		.2byte	0x3e9
 2007 05a9 09       		.byte	0x9
 2008 05aa 1F060000 		.4byte	0x61f
 2009 05ae 15       		.uleb128 0x15
 2010 05af 43524C00 		.ascii	"CRL\000"
 2011 05b3 08       		.byte	0x8
 2012 05b4 EB03     		.2byte	0x3eb
 2013 05b6 11       		.byte	0x11
 2014 05b7 C8000000 		.4byte	0xc8
 2015 05bb 02       		.byte	0x2
 2016 05bc 23       		.byte	0x23
 2017 05bd 00       		.uleb128 0
 2018 05be 15       		.uleb128 0x15
 2019 05bf 43524800 		.ascii	"CRH\000"
 2020 05c3 08       		.byte	0x8
 2021 05c4 EC03     		.2byte	0x3ec
 2022 05c6 11       		.byte	0x11
 2023 05c7 C8000000 		.4byte	0xc8
 2024 05cb 02       		.byte	0x2
 2025 05cc 23       		.byte	0x23
 2026 05cd 04       		.uleb128 0x4
 2027 05ce 15       		.uleb128 0x15
 2028 05cf 49445200 		.ascii	"IDR\000"
 2029 05d3 08       		.byte	0x8
 2030 05d4 ED03     		.2byte	0x3ed
 2031 05d6 11       		.byte	0x11
 2032 05d7 C8000000 		.4byte	0xc8
 2033 05db 02       		.byte	0x2
 2034 05dc 23       		.byte	0x23
 2035 05dd 08       		.uleb128 0x8
 2036 05de 15       		.uleb128 0x15
 2037 05df 4F445200 		.ascii	"ODR\000"
 2038 05e3 08       		.byte	0x8
 2039 05e4 EE03     		.2byte	0x3ee
ARM GAS  /tmp/ccTw5KR6.s 			page 44


 2040 05e6 11       		.byte	0x11
 2041 05e7 C8000000 		.4byte	0xc8
 2042 05eb 02       		.byte	0x2
 2043 05ec 23       		.byte	0x23
 2044 05ed 0C       		.uleb128 0xc
 2045 05ee 16       		.uleb128 0x16
 2046 05ef E5000000 		.4byte	.LASF104
 2047 05f3 08       		.byte	0x8
 2048 05f4 EF03     		.2byte	0x3ef
 2049 05f6 11       		.byte	0x11
 2050 05f7 C8000000 		.4byte	0xc8
 2051 05fb 02       		.byte	0x2
 2052 05fc 23       		.byte	0x23
 2053 05fd 10       		.uleb128 0x10
 2054 05fe 15       		.uleb128 0x15
 2055 05ff 42525200 		.ascii	"BRR\000"
 2056 0603 08       		.byte	0x8
 2057 0604 F003     		.2byte	0x3f0
 2058 0606 11       		.byte	0x11
 2059 0607 C8000000 		.4byte	0xc8
 2060 060b 02       		.byte	0x2
 2061 060c 23       		.byte	0x23
 2062 060d 14       		.uleb128 0x14
 2063 060e 16       		.uleb128 0x16
 2064 060f 11000000 		.4byte	.LASF105
 2065 0613 08       		.byte	0x8
 2066 0614 F103     		.2byte	0x3f1
 2067 0616 11       		.byte	0x11
 2068 0617 C8000000 		.4byte	0xc8
 2069 061b 02       		.byte	0x2
 2070 061c 23       		.byte	0x23
 2071 061d 18       		.uleb128 0x18
 2072 061e 00       		.byte	0
 2073 061f 0C       		.uleb128 0xc
 2074 0620 C8020000 		.4byte	.LASF106
 2075 0624 08       		.byte	0x8
 2076 0625 F203     		.2byte	0x3f2
 2077 0627 03       		.byte	0x3
 2078 0628 A4050000 		.4byte	0x5a4
 2079 062c 14       		.uleb128 0x14
 2080 062d 20       		.byte	0x20
 2081 062e 08       		.byte	0x8
 2082 062f F803     		.2byte	0x3f8
 2083 0631 09       		.byte	0x9
 2084 0632 87060000 		.4byte	0x687
 2085 0636 16       		.uleb128 0x16
 2086 0637 89020000 		.4byte	.LASF107
 2087 063b 08       		.byte	0x8
 2088 063c FA03     		.2byte	0x3fa
 2089 063e 11       		.byte	0x11
 2090 063f C8000000 		.4byte	0xc8
 2091 0643 02       		.byte	0x2
 2092 0644 23       		.byte	0x23
 2093 0645 00       		.uleb128 0
 2094 0646 16       		.uleb128 0x16
 2095 0647 AB070000 		.4byte	.LASF108
 2096 064b 08       		.byte	0x8
ARM GAS  /tmp/ccTw5KR6.s 			page 45


 2097 064c FB03     		.2byte	0x3fb
 2098 064e 11       		.byte	0x11
 2099 064f C8000000 		.4byte	0xc8
 2100 0653 02       		.byte	0x2
 2101 0654 23       		.byte	0x23
 2102 0655 04       		.uleb128 0x4
 2103 0656 16       		.uleb128 0x16
 2104 0657 3A080000 		.4byte	.LASF109
 2105 065b 08       		.byte	0x8
 2106 065c FC03     		.2byte	0x3fc
 2107 065e 11       		.byte	0x11
 2108 065f 97060000 		.4byte	0x697
 2109 0663 02       		.byte	0x2
 2110 0664 23       		.byte	0x23
 2111 0665 08       		.uleb128 0x8
 2112 0666 16       		.uleb128 0x16
 2113 0667 F6040000 		.4byte	.LASF72
 2114 066b 08       		.byte	0x8
 2115 066c FD03     		.2byte	0x3fd
 2116 066e 0C       		.byte	0xc
 2117 066f BC000000 		.4byte	0xbc
 2118 0673 02       		.byte	0x2
 2119 0674 23       		.byte	0x23
 2120 0675 18       		.uleb128 0x18
 2121 0676 16       		.uleb128 0x16
 2122 0677 75000000 		.4byte	.LASF110
 2123 067b 08       		.byte	0x8
 2124 067c FE03     		.2byte	0x3fe
 2125 067e 11       		.byte	0x11
 2126 067f C8000000 		.4byte	0xc8
 2127 0683 02       		.byte	0x2
 2128 0684 23       		.byte	0x23
 2129 0685 1C       		.uleb128 0x1c
 2130 0686 00       		.byte	0
 2131 0687 10       		.uleb128 0x10
 2132 0688 C8000000 		.4byte	0xc8
 2133 068c 97060000 		.4byte	0x697
 2134 0690 11       		.uleb128 0x11
 2135 0691 30000000 		.4byte	0x30
 2136 0695 03       		.byte	0x3
 2137 0696 00       		.byte	0
 2138 0697 05       		.uleb128 0x5
 2139 0698 87060000 		.4byte	0x687
 2140 069c 0C       		.uleb128 0xc
 2141 069d AF010000 		.4byte	.LASF111
 2142 06a1 08       		.byte	0x8
 2143 06a2 FF03     		.2byte	0x3ff
 2144 06a4 03       		.byte	0x3
 2145 06a5 2C060000 		.4byte	0x62c
 2146 06a9 14       		.uleb128 0x14
 2147 06aa 30       		.byte	0x30
 2148 06ab 08       		.byte	0x8
 2149 06ac 3404     		.2byte	0x434
 2150 06ae 09       		.byte	0x9
 2151 06af 73070000 		.4byte	0x773
 2152 06b3 15       		.uleb128 0x15
 2153 06b4 435200   		.ascii	"CR\000"
ARM GAS  /tmp/ccTw5KR6.s 			page 46


 2154 06b7 08       		.byte	0x8
 2155 06b8 3604     		.2byte	0x436
 2156 06ba 11       		.byte	0x11
 2157 06bb C8000000 		.4byte	0xc8
 2158 06bf 02       		.byte	0x2
 2159 06c0 23       		.byte	0x23
 2160 06c1 00       		.uleb128 0
 2161 06c2 16       		.uleb128 0x16
 2162 06c3 C3070000 		.4byte	.LASF112
 2163 06c7 08       		.byte	0x8
 2164 06c8 3704     		.2byte	0x437
 2165 06ca 11       		.byte	0x11
 2166 06cb C8000000 		.4byte	0xc8
 2167 06cf 02       		.byte	0x2
 2168 06d0 23       		.byte	0x23
 2169 06d1 04       		.uleb128 0x4
 2170 06d2 15       		.uleb128 0x15
 2171 06d3 43495200 		.ascii	"CIR\000"
 2172 06d7 08       		.byte	0x8
 2173 06d8 3804     		.2byte	0x438
 2174 06da 11       		.byte	0x11
 2175 06db C8000000 		.4byte	0xc8
 2176 06df 02       		.byte	0x2
 2177 06e0 23       		.byte	0x23
 2178 06e1 08       		.uleb128 0x8
 2179 06e2 16       		.uleb128 0x16
 2180 06e3 A6010000 		.4byte	.LASF113
 2181 06e7 08       		.byte	0x8
 2182 06e8 3904     		.2byte	0x439
 2183 06ea 11       		.byte	0x11
 2184 06eb C8000000 		.4byte	0xc8
 2185 06ef 02       		.byte	0x2
 2186 06f0 23       		.byte	0x23
 2187 06f1 0C       		.uleb128 0xc
 2188 06f2 16       		.uleb128 0x16
 2189 06f3 CB040000 		.4byte	.LASF114
 2190 06f7 08       		.byte	0x8
 2191 06f8 3A04     		.2byte	0x43a
 2192 06fa 11       		.byte	0x11
 2193 06fb C8000000 		.4byte	0xc8
 2194 06ff 02       		.byte	0x2
 2195 0700 23       		.byte	0x23
 2196 0701 10       		.uleb128 0x10
 2197 0702 16       		.uleb128 0x16
 2198 0703 10030000 		.4byte	.LASF115
 2199 0707 08       		.byte	0x8
 2200 0708 3B04     		.2byte	0x43b
 2201 070a 11       		.byte	0x11
 2202 070b C8000000 		.4byte	0xc8
 2203 070f 02       		.byte	0x2
 2204 0710 23       		.byte	0x23
 2205 0711 14       		.uleb128 0x14
 2206 0712 16       		.uleb128 0x16
 2207 0713 01060000 		.4byte	.LASF116
 2208 0717 08       		.byte	0x8
 2209 0718 3C04     		.2byte	0x43c
 2210 071a 11       		.byte	0x11
ARM GAS  /tmp/ccTw5KR6.s 			page 47


 2211 071b C8000000 		.4byte	0xc8
 2212 071f 02       		.byte	0x2
 2213 0720 23       		.byte	0x23
 2214 0721 18       		.uleb128 0x18
 2215 0722 16       		.uleb128 0x16
 2216 0723 00070000 		.4byte	.LASF117
 2217 0727 08       		.byte	0x8
 2218 0728 3D04     		.2byte	0x43d
 2219 072a 11       		.byte	0x11
 2220 072b C8000000 		.4byte	0xc8
 2221 072f 02       		.byte	0x2
 2222 0730 23       		.byte	0x23
 2223 0731 1C       		.uleb128 0x1c
 2224 0732 16       		.uleb128 0x16
 2225 0733 6B070000 		.4byte	.LASF118
 2226 0737 08       		.byte	0x8
 2227 0738 3E04     		.2byte	0x43e
 2228 073a 11       		.byte	0x11
 2229 073b C8000000 		.4byte	0xc8
 2230 073f 02       		.byte	0x2
 2231 0740 23       		.byte	0x23
 2232 0741 20       		.uleb128 0x20
 2233 0742 15       		.uleb128 0x15
 2234 0743 43535200 		.ascii	"CSR\000"
 2235 0747 08       		.byte	0x8
 2236 0748 3F04     		.2byte	0x43f
 2237 074a 11       		.byte	0x11
 2238 074b C8000000 		.4byte	0xc8
 2239 074f 02       		.byte	0x2
 2240 0750 23       		.byte	0x23
 2241 0751 24       		.uleb128 0x24
 2242 0752 16       		.uleb128 0x16
 2243 0753 B4040000 		.4byte	.LASF119
 2244 0757 08       		.byte	0x8
 2245 0758 4004     		.2byte	0x440
 2246 075a 11       		.byte	0x11
 2247 075b C8000000 		.4byte	0xc8
 2248 075f 02       		.byte	0x2
 2249 0760 23       		.byte	0x23
 2250 0761 28       		.uleb128 0x28
 2251 0762 16       		.uleb128 0x16
 2252 0763 7B070000 		.4byte	.LASF120
 2253 0767 08       		.byte	0x8
 2254 0768 4104     		.2byte	0x441
 2255 076a 11       		.byte	0x11
 2256 076b C8000000 		.4byte	0xc8
 2257 076f 02       		.byte	0x2
 2258 0770 23       		.byte	0x23
 2259 0771 2C       		.uleb128 0x2c
 2260 0772 00       		.byte	0
 2261 0773 0C       		.uleb128 0xc
 2262 0774 05000000 		.4byte	.LASF121
 2263 0778 08       		.byte	0x8
 2264 0779 4204     		.2byte	0x442
 2265 077b 03       		.byte	0x3
 2266 077c A9060000 		.4byte	0x6a9
 2267 0780 14       		.uleb128 0x14
ARM GAS  /tmp/ccTw5KR6.s 			page 48


 2268 0781 50       		.byte	0x50
 2269 0782 08       		.byte	0x8
 2270 0783 9A04     		.2byte	0x49a
 2271 0785 09       		.byte	0x9
 2272 0786 0A0A0000 		.4byte	0xa0a
 2273 078a 15       		.uleb128 0x15
 2274 078b 43523100 		.ascii	"CR1\000"
 2275 078f 08       		.byte	0x8
 2276 0790 9C04     		.2byte	0x49c
 2277 0792 11       		.byte	0x11
 2278 0793 B7000000 		.4byte	0xb7
 2279 0797 02       		.byte	0x2
 2280 0798 23       		.byte	0x23
 2281 0799 00       		.uleb128 0
 2282 079a 16       		.uleb128 0x16
 2283 079b F6040000 		.4byte	.LASF72
 2284 079f 08       		.byte	0x8
 2285 07a0 9D04     		.2byte	0x49d
 2286 07a2 0D       		.byte	0xd
 2287 07a3 AB000000 		.4byte	0xab
 2288 07a7 02       		.byte	0x2
 2289 07a8 23       		.byte	0x23
 2290 07a9 02       		.uleb128 0x2
 2291 07aa 15       		.uleb128 0x15
 2292 07ab 43523200 		.ascii	"CR2\000"
 2293 07af 08       		.byte	0x8
 2294 07b0 9E04     		.2byte	0x49e
 2295 07b2 11       		.byte	0x11
 2296 07b3 B7000000 		.4byte	0xb7
 2297 07b7 02       		.byte	0x2
 2298 07b8 23       		.byte	0x23
 2299 07b9 04       		.uleb128 0x4
 2300 07ba 16       		.uleb128 0x16
 2301 07bb 00050000 		.4byte	.LASF122
 2302 07bf 08       		.byte	0x8
 2303 07c0 9F04     		.2byte	0x49f
 2304 07c2 0D       		.byte	0xd
 2305 07c3 AB000000 		.4byte	0xab
 2306 07c7 02       		.byte	0x2
 2307 07c8 23       		.byte	0x23
 2308 07c9 06       		.uleb128 0x6
 2309 07ca 16       		.uleb128 0x16
 2310 07cb 0B030000 		.4byte	.LASF123
 2311 07cf 08       		.byte	0x8
 2312 07d0 A004     		.2byte	0x4a0
 2313 07d2 11       		.byte	0x11
 2314 07d3 B7000000 		.4byte	0xb7
 2315 07d7 02       		.byte	0x2
 2316 07d8 23       		.byte	0x23
 2317 07d9 08       		.uleb128 0x8
 2318 07da 16       		.uleb128 0x16
 2319 07db 0A050000 		.4byte	.LASF76
 2320 07df 08       		.byte	0x8
 2321 07e0 A104     		.2byte	0x4a1
 2322 07e2 0D       		.byte	0xd
 2323 07e3 AB000000 		.4byte	0xab
 2324 07e7 02       		.byte	0x2
ARM GAS  /tmp/ccTw5KR6.s 			page 49


 2325 07e8 23       		.byte	0x23
 2326 07e9 0A       		.uleb128 0xa
 2327 07ea 16       		.uleb128 0x16
 2328 07eb 1F000000 		.4byte	.LASF124
 2329 07ef 08       		.byte	0x8
 2330 07f0 A204     		.2byte	0x4a2
 2331 07f2 11       		.byte	0x11
 2332 07f3 B7000000 		.4byte	0xb7
 2333 07f7 02       		.byte	0x2
 2334 07f8 23       		.byte	0x23
 2335 07f9 0C       		.uleb128 0xc
 2336 07fa 16       		.uleb128 0x16
 2337 07fb 14050000 		.4byte	.LASF78
 2338 07ff 08       		.byte	0x8
 2339 0800 A304     		.2byte	0x4a3
 2340 0802 0D       		.byte	0xd
 2341 0803 AB000000 		.4byte	0xab
 2342 0807 02       		.byte	0x2
 2343 0808 23       		.byte	0x23
 2344 0809 0E       		.uleb128 0xe
 2345 080a 15       		.uleb128 0x15
 2346 080b 535200   		.ascii	"SR\000"
 2347 080e 08       		.byte	0x8
 2348 080f A404     		.2byte	0x4a4
 2349 0811 11       		.byte	0x11
 2350 0812 B7000000 		.4byte	0xb7
 2351 0816 02       		.byte	0x2
 2352 0817 23       		.byte	0x23
 2353 0818 10       		.uleb128 0x10
 2354 0819 16       		.uleb128 0x16
 2355 081a 1E050000 		.4byte	.LASF80
 2356 081e 08       		.byte	0x8
 2357 081f A504     		.2byte	0x4a5
 2358 0821 0D       		.byte	0xd
 2359 0822 AB000000 		.4byte	0xab
 2360 0826 02       		.byte	0x2
 2361 0827 23       		.byte	0x23
 2362 0828 12       		.uleb128 0x12
 2363 0829 15       		.uleb128 0x15
 2364 082a 45475200 		.ascii	"EGR\000"
 2365 082e 08       		.byte	0x8
 2366 082f A604     		.2byte	0x4a6
 2367 0831 11       		.byte	0x11
 2368 0832 B7000000 		.4byte	0xb7
 2369 0836 02       		.byte	0x2
 2370 0837 23       		.byte	0x23
 2371 0838 14       		.uleb128 0x14
 2372 0839 16       		.uleb128 0x16
 2373 083a 28050000 		.4byte	.LASF81
 2374 083e 08       		.byte	0x8
 2375 083f A704     		.2byte	0x4a7
 2376 0841 0D       		.byte	0xd
 2377 0842 AB000000 		.4byte	0xab
 2378 0846 02       		.byte	0x2
 2379 0847 23       		.byte	0x23
 2380 0848 16       		.uleb128 0x16
 2381 0849 16       		.uleb128 0x16
ARM GAS  /tmp/ccTw5KR6.s 			page 50


 2382 084a BF000000 		.4byte	.LASF125
 2383 084e 08       		.byte	0x8
 2384 084f A804     		.2byte	0x4a8
 2385 0851 11       		.byte	0x11
 2386 0852 B7000000 		.4byte	0xb7
 2387 0856 02       		.byte	0x2
 2388 0857 23       		.byte	0x23
 2389 0858 18       		.uleb128 0x18
 2390 0859 16       		.uleb128 0x16
 2391 085a 32050000 		.4byte	.LASF126
 2392 085e 08       		.byte	0x8
 2393 085f A904     		.2byte	0x4a9
 2394 0861 0D       		.byte	0xd
 2395 0862 AB000000 		.4byte	0xab
 2396 0866 02       		.byte	0x2
 2397 0867 23       		.byte	0x23
 2398 0868 1A       		.uleb128 0x1a
 2399 0869 16       		.uleb128 0x16
 2400 086a C5000000 		.4byte	.LASF127
 2401 086e 08       		.byte	0x8
 2402 086f AA04     		.2byte	0x4aa
 2403 0871 11       		.byte	0x11
 2404 0872 B7000000 		.4byte	0xb7
 2405 0876 02       		.byte	0x2
 2406 0877 23       		.byte	0x23
 2407 0878 1C       		.uleb128 0x1c
 2408 0879 16       		.uleb128 0x16
 2409 087a 39060000 		.4byte	.LASF128
 2410 087e 08       		.byte	0x8
 2411 087f AB04     		.2byte	0x4ab
 2412 0881 0D       		.byte	0xd
 2413 0882 AB000000 		.4byte	0xab
 2414 0886 02       		.byte	0x2
 2415 0887 23       		.byte	0x23
 2416 0888 1E       		.uleb128 0x1e
 2417 0889 16       		.uleb128 0x16
 2418 088a CE010000 		.4byte	.LASF129
 2419 088e 08       		.byte	0x8
 2420 088f AC04     		.2byte	0x4ac
 2421 0891 11       		.byte	0x11
 2422 0892 B7000000 		.4byte	0xb7
 2423 0896 02       		.byte	0x2
 2424 0897 23       		.byte	0x23
 2425 0898 20       		.uleb128 0x20
 2426 0899 16       		.uleb128 0x16
 2427 089a 3C050000 		.4byte	.LASF130
 2428 089e 08       		.byte	0x8
 2429 089f AD04     		.2byte	0x4ad
 2430 08a1 0D       		.byte	0xd
 2431 08a2 AB000000 		.4byte	0xab
 2432 08a6 02       		.byte	0x2
 2433 08a7 23       		.byte	0x23
 2434 08a8 22       		.uleb128 0x22
 2435 08a9 15       		.uleb128 0x15
 2436 08aa 434E5400 		.ascii	"CNT\000"
 2437 08ae 08       		.byte	0x8
 2438 08af AE04     		.2byte	0x4ae
ARM GAS  /tmp/ccTw5KR6.s 			page 51


 2439 08b1 11       		.byte	0x11
 2440 08b2 B7000000 		.4byte	0xb7
 2441 08b6 02       		.byte	0x2
 2442 08b7 23       		.byte	0x23
 2443 08b8 24       		.uleb128 0x24
 2444 08b9 16       		.uleb128 0x16
 2445 08ba 46050000 		.4byte	.LASF131
 2446 08be 08       		.byte	0x8
 2447 08bf AF04     		.2byte	0x4af
 2448 08c1 0D       		.byte	0xd
 2449 08c2 AB000000 		.4byte	0xab
 2450 08c6 02       		.byte	0x2
 2451 08c7 23       		.byte	0x23
 2452 08c8 26       		.uleb128 0x26
 2453 08c9 15       		.uleb128 0x15
 2454 08ca 50534300 		.ascii	"PSC\000"
 2455 08ce 08       		.byte	0x8
 2456 08cf B004     		.2byte	0x4b0
 2457 08d1 11       		.byte	0x11
 2458 08d2 B7000000 		.4byte	0xb7
 2459 08d6 02       		.byte	0x2
 2460 08d7 23       		.byte	0x23
 2461 08d8 28       		.uleb128 0x28
 2462 08d9 16       		.uleb128 0x16
 2463 08da 2F010000 		.4byte	.LASF132
 2464 08de 08       		.byte	0x8
 2465 08df B104     		.2byte	0x4b1
 2466 08e1 0D       		.byte	0xd
 2467 08e2 AB000000 		.4byte	0xab
 2468 08e6 02       		.byte	0x2
 2469 08e7 23       		.byte	0x23
 2470 08e8 2A       		.uleb128 0x2a
 2471 08e9 15       		.uleb128 0x15
 2472 08ea 41525200 		.ascii	"ARR\000"
 2473 08ee 08       		.byte	0x8
 2474 08ef B204     		.2byte	0x4b2
 2475 08f1 11       		.byte	0x11
 2476 08f2 B7000000 		.4byte	0xb7
 2477 08f6 02       		.byte	0x2
 2478 08f7 23       		.byte	0x23
 2479 08f8 2C       		.uleb128 0x2c
 2480 08f9 16       		.uleb128 0x16
 2481 08fa 3A010000 		.4byte	.LASF133
 2482 08fe 08       		.byte	0x8
 2483 08ff B304     		.2byte	0x4b3
 2484 0901 0D       		.byte	0xd
 2485 0902 AB000000 		.4byte	0xab
 2486 0906 02       		.byte	0x2
 2487 0907 23       		.byte	0x23
 2488 0908 2E       		.uleb128 0x2e
 2489 0909 15       		.uleb128 0x15
 2490 090a 52435200 		.ascii	"RCR\000"
 2491 090e 08       		.byte	0x8
 2492 090f B404     		.2byte	0x4b4
 2493 0911 11       		.byte	0x11
 2494 0912 B7000000 		.4byte	0xb7
 2495 0916 02       		.byte	0x2
ARM GAS  /tmp/ccTw5KR6.s 			page 52


 2496 0917 23       		.byte	0x23
 2497 0918 30       		.uleb128 0x30
 2498 0919 16       		.uleb128 0x16
 2499 091a 45010000 		.4byte	.LASF134
 2500 091e 08       		.byte	0x8
 2501 091f B504     		.2byte	0x4b5
 2502 0921 0D       		.byte	0xd
 2503 0922 AB000000 		.4byte	0xab
 2504 0926 02       		.byte	0x2
 2505 0927 23       		.byte	0x23
 2506 0928 32       		.uleb128 0x32
 2507 0929 16       		.uleb128 0x16
 2508 092a 46070000 		.4byte	.LASF135
 2509 092e 08       		.byte	0x8
 2510 092f B604     		.2byte	0x4b6
 2511 0931 11       		.byte	0x11
 2512 0932 B7000000 		.4byte	0xb7
 2513 0936 02       		.byte	0x2
 2514 0937 23       		.byte	0x23
 2515 0938 34       		.uleb128 0x34
 2516 0939 16       		.uleb128 0x16
 2517 093a 50010000 		.4byte	.LASF136
 2518 093e 08       		.byte	0x8
 2519 093f B704     		.2byte	0x4b7
 2520 0941 0D       		.byte	0xd
 2521 0942 AB000000 		.4byte	0xab
 2522 0946 02       		.byte	0x2
 2523 0947 23       		.byte	0x23
 2524 0948 36       		.uleb128 0x36
 2525 0949 16       		.uleb128 0x16
 2526 094a 70000000 		.4byte	.LASF137
 2527 094e 08       		.byte	0x8
 2528 094f B804     		.2byte	0x4b8
 2529 0951 11       		.byte	0x11
 2530 0952 B7000000 		.4byte	0xb7
 2531 0956 02       		.byte	0x2
 2532 0957 23       		.byte	0x23
 2533 0958 38       		.uleb128 0x38
 2534 0959 16       		.uleb128 0x16
 2535 095a 5B010000 		.4byte	.LASF138
 2536 095e 08       		.byte	0x8
 2537 095f B904     		.2byte	0x4b9
 2538 0961 0D       		.byte	0xd
 2539 0962 AB000000 		.4byte	0xab
 2540 0966 02       		.byte	0x2
 2541 0967 23       		.byte	0x23
 2542 0968 3A       		.uleb128 0x3a
 2543 0969 16       		.uleb128 0x16
 2544 096a 55070000 		.4byte	.LASF139
 2545 096e 08       		.byte	0x8
 2546 096f BA04     		.2byte	0x4ba
 2547 0971 11       		.byte	0x11
 2548 0972 B7000000 		.4byte	0xb7
 2549 0976 02       		.byte	0x2
 2550 0977 23       		.byte	0x23
 2551 0978 3C       		.uleb128 0x3c
 2552 0979 16       		.uleb128 0x16
ARM GAS  /tmp/ccTw5KR6.s 			page 53


 2553 097a 66010000 		.4byte	.LASF140
 2554 097e 08       		.byte	0x8
 2555 097f BB04     		.2byte	0x4bb
 2556 0981 0D       		.byte	0xd
 2557 0982 AB000000 		.4byte	0xab
 2558 0986 02       		.byte	0x2
 2559 0987 23       		.byte	0x23
 2560 0988 3E       		.uleb128 0x3e
 2561 0989 16       		.uleb128 0x16
 2562 098a 5A070000 		.4byte	.LASF141
 2563 098e 08       		.byte	0x8
 2564 098f BC04     		.2byte	0x4bc
 2565 0991 11       		.byte	0x11
 2566 0992 B7000000 		.4byte	0xb7
 2567 0996 02       		.byte	0x2
 2568 0997 23       		.byte	0x23
 2569 0998 40       		.uleb128 0x40
 2570 0999 16       		.uleb128 0x16
 2571 099a 71010000 		.4byte	.LASF142
 2572 099e 08       		.byte	0x8
 2573 099f BD04     		.2byte	0x4bd
 2574 09a1 0D       		.byte	0xd
 2575 09a2 AB000000 		.4byte	0xab
 2576 09a6 02       		.byte	0x2
 2577 09a7 23       		.byte	0x23
 2578 09a8 42       		.uleb128 0x42
 2579 09a9 16       		.uleb128 0x16
 2580 09aa 8E020000 		.4byte	.LASF143
 2581 09ae 08       		.byte	0x8
 2582 09af BE04     		.2byte	0x4be
 2583 09b1 11       		.byte	0x11
 2584 09b2 B7000000 		.4byte	0xb7
 2585 09b6 02       		.byte	0x2
 2586 09b7 23       		.byte	0x23
 2587 09b8 44       		.uleb128 0x44
 2588 09b9 16       		.uleb128 0x16
 2589 09ba 7C010000 		.4byte	.LASF144
 2590 09be 08       		.byte	0x8
 2591 09bf BF04     		.2byte	0x4bf
 2592 09c1 0D       		.byte	0xd
 2593 09c2 AB000000 		.4byte	0xab
 2594 09c6 02       		.byte	0x2
 2595 09c7 23       		.byte	0x23
 2596 09c8 46       		.uleb128 0x46
 2597 09c9 15       		.uleb128 0x15
 2598 09ca 44435200 		.ascii	"DCR\000"
 2599 09ce 08       		.byte	0x8
 2600 09cf C004     		.2byte	0x4c0
 2601 09d1 11       		.byte	0x11
 2602 09d2 B7000000 		.4byte	0xb7
 2603 09d6 02       		.byte	0x2
 2604 09d7 23       		.byte	0x23
 2605 09d8 48       		.uleb128 0x48
 2606 09d9 16       		.uleb128 0x16
 2607 09da 87010000 		.4byte	.LASF145
 2608 09de 08       		.byte	0x8
 2609 09df C104     		.2byte	0x4c1
ARM GAS  /tmp/ccTw5KR6.s 			page 54


 2610 09e1 0D       		.byte	0xd
 2611 09e2 AB000000 		.4byte	0xab
 2612 09e6 02       		.byte	0x2
 2613 09e7 23       		.byte	0x23
 2614 09e8 4A       		.uleb128 0x4a
 2615 09e9 16       		.uleb128 0x16
 2616 09ea 96060000 		.4byte	.LASF146
 2617 09ee 08       		.byte	0x8
 2618 09ef C204     		.2byte	0x4c2
 2619 09f1 11       		.byte	0x11
 2620 09f2 B7000000 		.4byte	0xb7
 2621 09f6 02       		.byte	0x2
 2622 09f7 23       		.byte	0x23
 2623 09f8 4C       		.uleb128 0x4c
 2624 09f9 16       		.uleb128 0x16
 2625 09fa 92010000 		.4byte	.LASF147
 2626 09fe 08       		.byte	0x8
 2627 09ff C304     		.2byte	0x4c3
 2628 0a01 0D       		.byte	0xd
 2629 0a02 AB000000 		.4byte	0xab
 2630 0a06 02       		.byte	0x2
 2631 0a07 23       		.byte	0x23
 2632 0a08 4E       		.uleb128 0x4e
 2633 0a09 00       		.byte	0
 2634 0a0a 0C       		.uleb128 0xc
 2635 0a0b 4D000000 		.4byte	.LASF148
 2636 0a0f 08       		.byte	0x8
 2637 0a10 C404     		.2byte	0x4c4
 2638 0a12 03       		.byte	0x3
 2639 0a13 80070000 		.4byte	0x780
 2640 0a17 17       		.uleb128 0x17
 2641 0a18 05080000 		.4byte	.LASF149
 2642 0a1c 01       		.byte	0x1
 2643 0a1d 2A       		.byte	0x2a
 2644 0a1e 16       		.byte	0x16
 2645 0a1f E2000000 		.4byte	0xe2
 2646 0a23 17       		.uleb128 0x17
 2647 0a24 BC040000 		.4byte	.LASF150
 2648 0a28 01       		.byte	0x1
 2649 0a29 2B       		.byte	0x2b
 2650 0a2a 16       		.byte	0x16
 2651 0a2b E2000000 		.4byte	0xe2
 2652 0a2f 18       		.uleb128 0x18
 2653 0a30 01       		.byte	0x1
 2654 0a31 00080000 		.4byte	.LASF180
 2655 0a35 01       		.byte	0x1
 2656 0a36 72       		.byte	0x72
 2657 0a37 05       		.byte	0x5
 2658 0a38 01       		.byte	0x1
 2659 0a39 29000000 		.4byte	0x29
 2660 0a3d 00000000 		.4byte	.LFB48
 2661 0a41 84000000 		.4byte	.LFE48
 2662 0a45 00000000 		.4byte	.LLST10
 2663 0a49 01       		.byte	0x1
 2664 0a4a 860B0000 		.4byte	0xb86
 2665 0a4e 19       		.uleb128 0x19
 2666 0a4f 10000000 		.4byte	.LVL21
ARM GAS  /tmp/ccTw5KR6.s 			page 55


 2667 0a53 340E0000 		.4byte	0xe34
 2668 0a57 6D0A0000 		.4byte	0xa6d
 2669 0a5b 1A       		.uleb128 0x1a
 2670 0a5c 01       		.byte	0x1
 2671 0a5d 50       		.byte	0x50
 2672 0a5e 01       		.byte	0x1
 2673 0a5f 35       		.byte	0x35
 2674 0a60 1A       		.uleb128 0x1a
 2675 0a61 01       		.byte	0x1
 2676 0a62 51       		.byte	0x51
 2677 0a63 02       		.byte	0x2
 2678 0a64 75       		.byte	0x75
 2679 0a65 00       		.sleb128 0
 2680 0a66 1A       		.uleb128 0x1a
 2681 0a67 01       		.byte	0x1
 2682 0a68 52       		.byte	0x52
 2683 0a69 02       		.byte	0x2
 2684 0a6a 74       		.byte	0x74
 2685 0a6b 00       		.sleb128 0
 2686 0a6c 00       		.byte	0
 2687 0a6d 19       		.uleb128 0x19
 2688 0a6e 1A000000 		.4byte	.LVL22
 2689 0a72 340E0000 		.4byte	0xe34
 2690 0a76 8B0A0000 		.4byte	0xa8b
 2691 0a7a 1A       		.uleb128 0x1a
 2692 0a7b 01       		.byte	0x1
 2693 0a7c 50       		.byte	0x50
 2694 0a7d 01       		.byte	0x1
 2695 0a7e 32       		.byte	0x32
 2696 0a7f 1A       		.uleb128 0x1a
 2697 0a80 01       		.byte	0x1
 2698 0a81 51       		.byte	0x51
 2699 0a82 01       		.byte	0x1
 2700 0a83 31       		.byte	0x31
 2701 0a84 1A       		.uleb128 0x1a
 2702 0a85 01       		.byte	0x1
 2703 0a86 52       		.byte	0x52
 2704 0a87 02       		.byte	0x2
 2705 0a88 74       		.byte	0x74
 2706 0a89 00       		.sleb128 0
 2707 0a8a 00       		.byte	0
 2708 0a8b 1B       		.uleb128 0x1b
 2709 0a8c 1E000000 		.4byte	.LVL23
 2710 0a90 090E0000 		.4byte	0xe09
 2711 0a94 19       		.uleb128 0x19
 2712 0a95 2E000000 		.4byte	.LVL24
 2713 0a99 430E0000 		.4byte	0xe43
 2714 0a9d CE0A0000 		.4byte	0xace
 2715 0aa1 1A       		.uleb128 0x1a
 2716 0aa2 01       		.byte	0x1
 2717 0aa3 50       		.byte	0x50
 2718 0aa4 05       		.byte	0x5
 2719 0aa5 03       		.byte	0x3
 2720 0aa6 00000000 		.4byte	task1
 2721 0aaa 1A       		.uleb128 0x1a
 2722 0aab 01       		.byte	0x1
 2723 0aac 51       		.byte	0x51
ARM GAS  /tmp/ccTw5KR6.s 			page 56


 2724 0aad 05       		.byte	0x5
 2725 0aae 03       		.byte	0x3
 2726 0aaf 1E000000 		.4byte	.LC2
 2727 0ab3 1A       		.uleb128 0x1a
 2728 0ab4 01       		.byte	0x1
 2729 0ab5 52       		.byte	0x52
 2730 0ab6 02       		.byte	0x2
 2731 0ab7 08       		.byte	0x8
 2732 0ab8 64       		.byte	0x64
 2733 0ab9 1A       		.uleb128 0x1a
 2734 0aba 01       		.byte	0x1
 2735 0abb 53       		.byte	0x53
 2736 0abc 02       		.byte	0x2
 2737 0abd 74       		.byte	0x74
 2738 0abe 00       		.sleb128 0
 2739 0abf 1A       		.uleb128 0x1a
 2740 0ac0 02       		.byte	0x2
 2741 0ac1 7D       		.byte	0x7d
 2742 0ac2 00       		.sleb128 0
 2743 0ac3 02       		.byte	0x2
 2744 0ac4 75       		.byte	0x75
 2745 0ac5 00       		.sleb128 0
 2746 0ac6 1A       		.uleb128 0x1a
 2747 0ac7 02       		.byte	0x2
 2748 0ac8 7D       		.byte	0x7d
 2749 0ac9 04       		.sleb128 4
 2750 0aca 02       		.byte	0x2
 2751 0acb 74       		.byte	0x74
 2752 0acc 00       		.sleb128 0
 2753 0acd 00       		.byte	0
 2754 0ace 19       		.uleb128 0x19
 2755 0acf 3E000000 		.4byte	.LVL25
 2756 0ad3 430E0000 		.4byte	0xe43
 2757 0ad7 080B0000 		.4byte	0xb08
 2758 0adb 1A       		.uleb128 0x1a
 2759 0adc 01       		.byte	0x1
 2760 0add 50       		.byte	0x50
 2761 0ade 05       		.byte	0x5
 2762 0adf 03       		.byte	0x3
 2763 0ae0 00000000 		.4byte	task2
 2764 0ae4 1A       		.uleb128 0x1a
 2765 0ae5 01       		.byte	0x1
 2766 0ae6 51       		.byte	0x51
 2767 0ae7 05       		.byte	0x5
 2768 0ae8 03       		.byte	0x3
 2769 0ae9 27000000 		.4byte	.LC3
 2770 0aed 1A       		.uleb128 0x1a
 2771 0aee 01       		.byte	0x1
 2772 0aef 52       		.byte	0x52
 2773 0af0 02       		.byte	0x2
 2774 0af1 08       		.byte	0x8
 2775 0af2 64       		.byte	0x64
 2776 0af3 1A       		.uleb128 0x1a
 2777 0af4 01       		.byte	0x1
 2778 0af5 53       		.byte	0x53
 2779 0af6 02       		.byte	0x2
 2780 0af7 74       		.byte	0x74
ARM GAS  /tmp/ccTw5KR6.s 			page 57


 2781 0af8 00       		.sleb128 0
 2782 0af9 1A       		.uleb128 0x1a
 2783 0afa 02       		.byte	0x2
 2784 0afb 7D       		.byte	0x7d
 2785 0afc 00       		.sleb128 0
 2786 0afd 02       		.byte	0x2
 2787 0afe 75       		.byte	0x75
 2788 0aff 00       		.sleb128 0
 2789 0b00 1A       		.uleb128 0x1a
 2790 0b01 02       		.byte	0x2
 2791 0b02 7D       		.byte	0x7d
 2792 0b03 04       		.sleb128 4
 2793 0b04 02       		.byte	0x2
 2794 0b05 74       		.byte	0x74
 2795 0b06 00       		.sleb128 0
 2796 0b07 00       		.byte	0
 2797 0b08 19       		.uleb128 0x19
 2798 0b09 4E000000 		.4byte	.LVL26
 2799 0b0d 430E0000 		.4byte	0xe43
 2800 0b11 420B0000 		.4byte	0xb42
 2801 0b15 1A       		.uleb128 0x1a
 2802 0b16 01       		.byte	0x1
 2803 0b17 50       		.byte	0x50
 2804 0b18 05       		.byte	0x5
 2805 0b19 03       		.byte	0x3
 2806 0b1a 00000000 		.4byte	task3
 2807 0b1e 1A       		.uleb128 0x1a
 2808 0b1f 01       		.byte	0x1
 2809 0b20 51       		.byte	0x51
 2810 0b21 05       		.byte	0x5
 2811 0b22 03       		.byte	0x3
 2812 0b23 2E000000 		.4byte	.LC4
 2813 0b27 1A       		.uleb128 0x1a
 2814 0b28 01       		.byte	0x1
 2815 0b29 52       		.byte	0x52
 2816 0b2a 02       		.byte	0x2
 2817 0b2b 08       		.byte	0x8
 2818 0b2c 64       		.byte	0x64
 2819 0b2d 1A       		.uleb128 0x1a
 2820 0b2e 01       		.byte	0x1
 2821 0b2f 53       		.byte	0x53
 2822 0b30 02       		.byte	0x2
 2823 0b31 74       		.byte	0x74
 2824 0b32 00       		.sleb128 0
 2825 0b33 1A       		.uleb128 0x1a
 2826 0b34 02       		.byte	0x2
 2827 0b35 7D       		.byte	0x7d
 2828 0b36 00       		.sleb128 0
 2829 0b37 02       		.byte	0x2
 2830 0b38 75       		.byte	0x75
 2831 0b39 00       		.sleb128 0
 2832 0b3a 1A       		.uleb128 0x1a
 2833 0b3b 02       		.byte	0x2
 2834 0b3c 7D       		.byte	0x7d
 2835 0b3d 04       		.sleb128 4
 2836 0b3e 02       		.byte	0x2
 2837 0b3f 74       		.byte	0x74
ARM GAS  /tmp/ccTw5KR6.s 			page 58


 2838 0b40 00       		.sleb128 0
 2839 0b41 00       		.byte	0
 2840 0b42 19       		.uleb128 0x19
 2841 0b43 5E000000 		.4byte	.LVL27
 2842 0b47 430E0000 		.4byte	0xe43
 2843 0b4b 7C0B0000 		.4byte	0xb7c
 2844 0b4f 1A       		.uleb128 0x1a
 2845 0b50 01       		.byte	0x1
 2846 0b51 50       		.byte	0x50
 2847 0b52 05       		.byte	0x5
 2848 0b53 03       		.byte	0x3
 2849 0b54 00000000 		.4byte	task4
 2850 0b58 1A       		.uleb128 0x1a
 2851 0b59 01       		.byte	0x1
 2852 0b5a 51       		.byte	0x51
 2853 0b5b 05       		.byte	0x5
 2854 0b5c 03       		.byte	0x3
 2855 0b5d 34000000 		.4byte	.LC5
 2856 0b61 1A       		.uleb128 0x1a
 2857 0b62 01       		.byte	0x1
 2858 0b63 52       		.byte	0x52
 2859 0b64 02       		.byte	0x2
 2860 0b65 08       		.byte	0x8
 2861 0b66 64       		.byte	0x64
 2862 0b67 1A       		.uleb128 0x1a
 2863 0b68 01       		.byte	0x1
 2864 0b69 53       		.byte	0x53
 2865 0b6a 02       		.byte	0x2
 2866 0b6b 74       		.byte	0x74
 2867 0b6c 00       		.sleb128 0
 2868 0b6d 1A       		.uleb128 0x1a
 2869 0b6e 02       		.byte	0x2
 2870 0b6f 7D       		.byte	0x7d
 2871 0b70 00       		.sleb128 0
 2872 0b71 02       		.byte	0x2
 2873 0b72 75       		.byte	0x75
 2874 0b73 00       		.sleb128 0
 2875 0b74 1A       		.uleb128 0x1a
 2876 0b75 02       		.byte	0x2
 2877 0b76 7D       		.byte	0x7d
 2878 0b77 04       		.sleb128 4
 2879 0b78 02       		.byte	0x2
 2880 0b79 74       		.byte	0x74
 2881 0b7a 00       		.sleb128 0
 2882 0b7b 00       		.byte	0
 2883 0b7c 1B       		.uleb128 0x1b
 2884 0b7d 62000000 		.4byte	.LVL28
 2885 0b81 520E0000 		.4byte	0xe52
 2886 0b85 00       		.byte	0
 2887 0b86 1C       		.uleb128 0x1c
 2888 0b87 F2020000 		.4byte	.LASF151
 2889 0b8b 01       		.byte	0x1
 2890 0b8c 67       		.byte	0x67
 2891 0b8d 0D       		.byte	0xd
 2892 0b8e 01       		.byte	0x1
 2893 0b8f 02000000 		.4byte	.LFB47
 2894 0b93 04000000 		.4byte	.LFE47
ARM GAS  /tmp/ccTw5KR6.s 			page 59


 2895 0b97 02       		.byte	0x2
 2896 0b98 7D       		.byte	0x7d
 2897 0b99 00       		.sleb128 0
 2898 0b9a 01       		.byte	0x1
 2899 0b9b B40B0000 		.4byte	0xbb4
 2900 0b9f 1D       		.uleb128 0x1d
 2901 0ba0 FB070000 		.4byte	.LASF153
 2902 0ba4 01       		.byte	0x1
 2903 0ba5 67       		.byte	0x67
 2904 0ba6 19       		.byte	0x19
 2905 0ba7 CD000000 		.4byte	0xcd
 2906 0bab 22000000 		.4byte	.LLST1
 2907 0baf 20000000 		.4byte	.LVUS1
 2908 0bb3 00       		.byte	0
 2909 0bb4 1C       		.uleb128 0x1c
 2910 0bb5 EC020000 		.4byte	.LASF152
 2911 0bb9 01       		.byte	0x1
 2912 0bba 57       		.byte	0x57
 2913 0bbb 0D       		.byte	0xd
 2914 0bbc 01       		.byte	0x1
 2915 0bbd 00000000 		.4byte	.LFB46
 2916 0bc1 02000000 		.4byte	.LFE46
 2917 0bc5 02       		.byte	0x2
 2918 0bc6 7D       		.byte	0x7d
 2919 0bc7 00       		.sleb128 0
 2920 0bc8 01       		.byte	0x1
 2921 0bc9 E20B0000 		.4byte	0xbe2
 2922 0bcd 1D       		.uleb128 0x1d
 2923 0bce FB070000 		.4byte	.LASF153
 2924 0bd2 01       		.byte	0x1
 2925 0bd3 57       		.byte	0x57
 2926 0bd4 19       		.byte	0x19
 2927 0bd5 CD000000 		.4byte	0xcd
 2928 0bd9 37000000 		.4byte	.LLST0
 2929 0bdd 35000000 		.4byte	.LVUS0
 2930 0be1 00       		.byte	0
 2931 0be2 1E       		.uleb128 0x1e
 2932 0be3 E6020000 		.4byte	.LASF154
 2933 0be7 01       		.byte	0x1
 2934 0be8 4D       		.byte	0x4d
 2935 0be9 0D       		.byte	0xd
 2936 0bea 01       		.byte	0x1
 2937 0beb 04000000 		.4byte	.LFB45
 2938 0bef 34000000 		.4byte	.LFE45
 2939 0bf3 4A000000 		.4byte	.LLST2
 2940 0bf7 01       		.byte	0x1
 2941 0bf8 220C0000 		.4byte	0xc22
 2942 0bfc 1D       		.uleb128 0x1d
 2943 0bfd FB070000 		.4byte	.LASF153
 2944 0c01 01       		.byte	0x1
 2945 0c02 4D       		.byte	0x4d
 2946 0c03 19       		.byte	0x19
 2947 0c04 CD000000 		.4byte	0xcd
 2948 0c08 6E000000 		.4byte	.LLST3
 2949 0c0c 6A000000 		.4byte	.LVUS3
 2950 0c10 1F       		.uleb128 0x1f
 2951 0c11 2A000000 		.4byte	.LVL4
ARM GAS  /tmp/ccTw5KR6.s 			page 60


 2952 0c15 610E0000 		.4byte	0xe61
 2953 0c19 1A       		.uleb128 0x1a
 2954 0c1a 01       		.byte	0x1
 2955 0c1b 50       		.byte	0x50
 2956 0c1c 03       		.byte	0x3
 2957 0c1d 0A       		.byte	0xa
 2958 0c1e 8813     		.2byte	0x1388
 2959 0c20 00       		.byte	0
 2960 0c21 00       		.byte	0
 2961 0c22 1E       		.uleb128 0x1e
 2962 0c23 E0020000 		.4byte	.LASF155
 2963 0c27 01       		.byte	0x1
 2964 0c28 2D       		.byte	0x2d
 2965 0c29 0D       		.byte	0xd
 2966 0c2a 01       		.byte	0x1
 2967 0c2b 34000000 		.4byte	.LFB44
 2968 0c2f D0000000 		.4byte	.LFE44
 2969 0c33 8F000000 		.4byte	.LLST4
 2970 0c37 01       		.byte	0x1
 2971 0c38 F10C0000 		.4byte	0xcf1
 2972 0c3c 1D       		.uleb128 0x1d
 2973 0c3d FB070000 		.4byte	.LASF153
 2974 0c41 01       		.byte	0x1
 2975 0c42 2D       		.byte	0x2d
 2976 0c43 19       		.byte	0x19
 2977 0c44 CD000000 		.4byte	0xcd
 2978 0c48 B3000000 		.4byte	.LLST5
 2979 0c4c AF000000 		.4byte	.LVUS5
 2980 0c50 20       		.uleb128 0x20
 2981 0c51 BC010000 		.4byte	.LASF181
 2982 0c55 01       		.byte	0x1
 2983 0c56 41       		.byte	0x41
 2984 0c57 06       		.byte	0x6
 2985 0c58 9D030000 		.4byte	0x39d
 2986 0c5c D8000000 		.4byte	.LLST6
 2987 0c60 D4000000 		.4byte	.LVUS6
 2988 0c64 1B       		.uleb128 0x1b
 2989 0c65 8E000000 		.4byte	.LVL6
 2990 0c69 700E0000 		.4byte	0xe70
 2991 0c6d 19       		.uleb128 0x19
 2992 0c6e 94000000 		.4byte	.LVL7
 2993 0c72 7E0E0000 		.4byte	0xe7e
 2994 0c76 800C0000 		.4byte	0xc80
 2995 0c7a 1A       		.uleb128 0x1a
 2996 0c7b 01       		.byte	0x1
 2997 0c7c 50       		.byte	0x50
 2998 0c7d 01       		.byte	0x1
 2999 0c7e 3C       		.byte	0x3c
 3000 0c7f 00       		.byte	0
 3001 0c80 19       		.uleb128 0x19
 3002 0c81 9E000000 		.4byte	.LVL8
 3003 0c85 8C0E0000 		.4byte	0xe8c
 3004 0c89 A30C0000 		.4byte	0xca3
 3005 0c8d 1A       		.uleb128 0x1a
 3006 0c8e 01       		.byte	0x1
 3007 0c8f 50       		.byte	0x50
 3008 0c90 05       		.byte	0x5
ARM GAS  /tmp/ccTw5KR6.s 			page 61


 3009 0c91 03       		.byte	0x3
 3010 0c92 00000000 		.4byte	.LC0
 3011 0c96 1A       		.uleb128 0x1a
 3012 0c97 01       		.byte	0x1
 3013 0c98 51       		.byte	0x51
 3014 0c99 02       		.byte	0x2
 3015 0c9a 74       		.byte	0x74
 3016 0c9b 00       		.sleb128 0
 3017 0c9c 1A       		.uleb128 0x1a
 3018 0c9d 01       		.byte	0x1
 3019 0c9e 52       		.byte	0x52
 3020 0c9f 02       		.byte	0x2
 3021 0ca0 74       		.byte	0x74
 3022 0ca1 00       		.sleb128 0
 3023 0ca2 00       		.byte	0
 3024 0ca3 19       		.uleb128 0x19
 3025 0ca4 AC000000 		.4byte	.LVL11
 3026 0ca8 8C0E0000 		.4byte	0xe8c
 3027 0cac C10C0000 		.4byte	0xcc1
 3028 0cb0 1A       		.uleb128 0x1a
 3029 0cb1 01       		.byte	0x1
 3030 0cb2 50       		.byte	0x50
 3031 0cb3 02       		.byte	0x2
 3032 0cb4 75       		.byte	0x75
 3033 0cb5 00       		.sleb128 0
 3034 0cb6 1A       		.uleb128 0x1a
 3035 0cb7 01       		.byte	0x1
 3036 0cb8 51       		.byte	0x51
 3037 0cb9 01       		.byte	0x1
 3038 0cba 31       		.byte	0x31
 3039 0cbb 1A       		.uleb128 0x1a
 3040 0cbc 01       		.byte	0x1
 3041 0cbd 52       		.byte	0x52
 3042 0cbe 01       		.byte	0x1
 3043 0cbf 30       		.byte	0x30
 3044 0cc0 00       		.byte	0
 3045 0cc1 19       		.uleb128 0x19
 3046 0cc2 B6000000 		.4byte	.LVL12
 3047 0cc6 9A0E0000 		.4byte	0xe9a
 3048 0cca DF0C0000 		.4byte	0xcdf
 3049 0cce 1A       		.uleb128 0x1a
 3050 0ccf 01       		.byte	0x1
 3051 0cd0 50       		.byte	0x50
 3052 0cd1 02       		.byte	0x2
 3053 0cd2 74       		.byte	0x74
 3054 0cd3 00       		.sleb128 0
 3055 0cd4 1A       		.uleb128 0x1a
 3056 0cd5 01       		.byte	0x1
 3057 0cd6 51       		.byte	0x51
 3058 0cd7 01       		.byte	0x1
 3059 0cd8 31       		.byte	0x31
 3060 0cd9 1A       		.uleb128 0x1a
 3061 0cda 01       		.byte	0x1
 3062 0cdb 52       		.byte	0x52
 3063 0cdc 01       		.byte	0x1
 3064 0cdd 3B       		.byte	0x3b
 3065 0cde 00       		.byte	0
ARM GAS  /tmp/ccTw5KR6.s 			page 62


 3066 0cdf 1F       		.uleb128 0x1f
 3067 0ce0 BE000000 		.4byte	.LVL13
 3068 0ce4 610E0000 		.4byte	0xe61
 3069 0ce8 1A       		.uleb128 0x1a
 3070 0ce9 01       		.byte	0x1
 3071 0cea 50       		.byte	0x50
 3072 0ceb 03       		.byte	0x3
 3073 0cec 0A       		.byte	0xa
 3074 0ced E803     		.2byte	0x3e8
 3075 0cef 00       		.byte	0
 3076 0cf0 00       		.byte	0
 3077 0cf1 21       		.uleb128 0x21
 3078 0cf2 01       		.byte	0x1
 3079 0cf3 DB070000 		.4byte	.LASF156
 3080 0cf7 03       		.byte	0x3
 3081 0cf8 33       		.byte	0x33
 3082 0cf9 06       		.byte	0x6
 3083 0cfa 20030000 		.4byte	.LFB43
 3084 0cfe C0030000 		.4byte	.LFE43
 3085 0d02 02       		.byte	0x2
 3086 0d03 7D       		.byte	0x7d
 3087 0d04 00       		.sleb128 0
 3088 0d05 01       		.byte	0x1
 3089 0d06 21       		.uleb128 0x21
 3090 0d07 01       		.byte	0x1
 3091 0d08 C8070000 		.4byte	.LASF157
 3092 0d0c 03       		.byte	0x3
 3093 0d0d 14       		.byte	0x14
 3094 0d0e 06       		.byte	0x6
 3095 0d0f 70020000 		.4byte	.LFB42
 3096 0d13 20030000 		.4byte	.LFE42
 3097 0d17 02       		.byte	0x2
 3098 0d18 7D       		.byte	0x7d
 3099 0d19 00       		.sleb128 0
 3100 0d1a 01       		.byte	0x1
 3101 0d1b 22       		.uleb128 0x22
 3102 0d1c 01       		.byte	0x1
 3103 0d1d 0E080000 		.4byte	.LASF158
 3104 0d21 03       		.byte	0x3
 3105 0d22 10       		.byte	0x10
 3106 0d23 06       		.byte	0x6
 3107 0d24 01       		.byte	0x1
 3108 0d25 64020000 		.4byte	.LFB41
 3109 0d29 70020000 		.4byte	.LFE41
 3110 0d2d 02       		.byte	0x2
 3111 0d2e 7D       		.byte	0x7d
 3112 0d2f 00       		.sleb128 0
 3113 0d30 01       		.byte	0x1
 3114 0d31 440D0000 		.4byte	0xd44
 3115 0d35 23       		.uleb128 0x23
 3116 0d36 D3010000 		.4byte	.LASF160
 3117 0d3a 03       		.byte	0x3
 3118 0d3b 10       		.byte	0x10
 3119 0d3c 14       		.byte	0x14
 3120 0d3d 9D030000 		.4byte	0x39d
 3121 0d41 01       		.byte	0x1
 3122 0d42 50       		.byte	0x50
ARM GAS  /tmp/ccTw5KR6.s 			page 63


 3123 0d43 00       		.byte	0
 3124 0d44 22       		.uleb128 0x22
 3125 0d45 01       		.byte	0x1
 3126 0d46 09060000 		.4byte	.LASF159
 3127 0d4a 03       		.byte	0x3
 3128 0d4b 0C       		.byte	0xc
 3129 0d4c 06       		.byte	0x6
 3130 0d4d 01       		.byte	0x1
 3131 0d4e 5C020000 		.4byte	.LFB40
 3132 0d52 64020000 		.4byte	.LFE40
 3133 0d56 02       		.byte	0x2
 3134 0d57 7D       		.byte	0x7d
 3135 0d58 00       		.sleb128 0
 3136 0d59 01       		.byte	0x1
 3137 0d5a 6D0D0000 		.4byte	0xd6d
 3138 0d5e 23       		.uleb128 0x23
 3139 0d5f D3010000 		.4byte	.LASF160
 3140 0d63 03       		.byte	0x3
 3141 0d64 0C       		.byte	0xc
 3142 0d65 14       		.byte	0x14
 3143 0d66 9D030000 		.4byte	0x39d
 3144 0d6a 01       		.byte	0x1
 3145 0d6b 50       		.byte	0x50
 3146 0d6c 00       		.byte	0
 3147 0d6d 22       		.uleb128 0x22
 3148 0d6e 01       		.byte	0x1
 3149 0d6f 14060000 		.4byte	.LASF161
 3150 0d73 02       		.byte	0x2
 3151 0d74 7C       		.byte	0x7c
 3152 0d75 06       		.byte	0x6
 3153 0d76 01       		.byte	0x1
 3154 0d77 40020000 		.4byte	.LFB39
 3155 0d7b 5C020000 		.4byte	.LFE39
 3156 0d7f 02       		.byte	0x2
 3157 0d80 7D       		.byte	0x7d
 3158 0d81 00       		.sleb128 0
 3159 0d82 01       		.byte	0x1
 3160 0d83 9C0D0000 		.4byte	0xd9c
 3161 0d87 1D       		.uleb128 0x1d
 3162 0d88 DC030000 		.4byte	.LASF162
 3163 0d8c 02       		.byte	0x2
 3164 0d8d 7C       		.byte	0x7c
 3165 0d8e 22       		.byte	0x22
 3166 0d8f 3F020000 		.4byte	0x23f
 3167 0d93 FA000000 		.4byte	.LLST9
 3168 0d97 F6000000 		.4byte	.LVUS9
 3169 0d9b 00       		.byte	0
 3170 0d9c 22       		.uleb128 0x22
 3171 0d9d 01       		.byte	0x1
 3172 0d9e 92040000 		.4byte	.LASF163
 3173 0da2 02       		.byte	0x2
 3174 0da3 74       		.byte	0x74
 3175 0da4 06       		.byte	0x6
 3176 0da5 01       		.byte	0x1
 3177 0da6 28020000 		.4byte	.LFB38
 3178 0daa 40020000 		.4byte	.LFE38
 3179 0dae 02       		.byte	0x2
ARM GAS  /tmp/ccTw5KR6.s 			page 64


 3180 0daf 7D       		.byte	0x7d
 3181 0db0 00       		.sleb128 0
 3182 0db1 01       		.byte	0x1
 3183 0db2 CB0D0000 		.4byte	0xdcb
 3184 0db6 1D       		.uleb128 0x1d
 3185 0db7 DC030000 		.4byte	.LASF162
 3186 0dbb 02       		.byte	0x2
 3187 0dbc 74       		.byte	0x74
 3188 0dbd 21       		.byte	0x21
 3189 0dbe 3F020000 		.4byte	0x23f
 3190 0dc2 1F010000 		.4byte	.LLST8
 3191 0dc6 1B010000 		.4byte	.LVUS8
 3192 0dca 00       		.byte	0
 3193 0dcb 24       		.uleb128 0x24
 3194 0dcc 01       		.byte	0x1
 3195 0dcd 50020000 		.4byte	.LASF165
 3196 0dd1 02       		.byte	0x2
 3197 0dd2 67       		.byte	0x67
 3198 0dd3 06       		.byte	0x6
 3199 0dd4 01       		.byte	0x1
 3200 0dd5 00020000 		.4byte	.LFB37
 3201 0dd9 28020000 		.4byte	.LFE37
 3202 0ddd 02       		.byte	0x2
 3203 0dde 7D       		.byte	0x7d
 3204 0ddf 00       		.sleb128 0
 3205 0de0 01       		.byte	0x1
 3206 0de1 25       		.uleb128 0x25
 3207 0de2 01       		.byte	0x1
 3208 0de3 82040000 		.4byte	.LASF164
 3209 0de7 02       		.byte	0x2
 3210 0de8 60       		.byte	0x60
 3211 0de9 06       		.byte	0x6
 3212 0dea 01       		.byte	0x1
 3213 0deb D0010000 		.4byte	.LFB36
 3214 0def 00020000 		.4byte	.LFE36
 3215 0df3 40010000 		.4byte	.LLST7
 3216 0df7 01       		.byte	0x1
 3217 0df8 090E0000 		.4byte	0xe09
 3218 0dfc 26       		.uleb128 0x26
 3219 0dfd 5400     		.ascii	"T\000"
 3220 0dff 02       		.byte	0x2
 3221 0e00 60       		.byte	0x60
 3222 0e01 17       		.byte	0x17
 3223 0e02 98030000 		.4byte	0x398
 3224 0e06 01       		.byte	0x1
 3225 0e07 50       		.byte	0x50
 3226 0e08 00       		.byte	0
 3227 0e09 24       		.uleb128 0x24
 3228 0e0a 01       		.byte	0x1
 3229 0e0b 60050000 		.4byte	.LASF166
 3230 0e0f 02       		.byte	0x2
 3231 0e10 3E       		.byte	0x3e
 3232 0e11 06       		.byte	0x6
 3233 0e12 01       		.byte	0x1
 3234 0e13 5C010000 		.4byte	.LFB35
 3235 0e17 D0010000 		.4byte	.LFE35
 3236 0e1b 02       		.byte	0x2
ARM GAS  /tmp/ccTw5KR6.s 			page 65


 3237 0e1c 7D       		.byte	0x7d
 3238 0e1d 00       		.sleb128 0
 3239 0e1e 01       		.byte	0x1
 3240 0e1f 21       		.uleb128 0x21
 3241 0e20 01       		.byte	0x1
 3242 0e21 F2050000 		.4byte	.LASF167
 3243 0e25 02       		.byte	0x2
 3244 0e26 0E       		.byte	0xe
 3245 0e27 06       		.byte	0x6
 3246 0e28 D0000000 		.4byte	.LFB34
 3247 0e2c 5C010000 		.4byte	.LFE34
 3248 0e30 02       		.byte	0x2
 3249 0e31 7D       		.byte	0x7d
 3250 0e32 00       		.sleb128 0
 3251 0e33 01       		.byte	0x1
 3252 0e34 27       		.uleb128 0x27
 3253 0e35 01       		.byte	0x1
 3254 0e36 01       		.byte	0x1
 3255 0e37 DE050000 		.4byte	.LASF168
 3256 0e3b DE050000 		.4byte	.LASF168
 3257 0e3f 07       		.byte	0x7
 3258 0e40 D805     		.2byte	0x5d8
 3259 0e42 10       		.byte	0x10
 3260 0e43 27       		.uleb128 0x27
 3261 0e44 01       		.byte	0x1
 3262 0e45 01       		.byte	0x1
 3263 0e46 66040000 		.4byte	.LASF169
 3264 0e4a 66040000 		.4byte	.LASF169
 3265 0e4e 0A       		.byte	0xa
 3266 0e4f 4A01     		.2byte	0x14a
 3267 0e51 0D       		.byte	0xd
 3268 0e52 27       		.uleb128 0x27
 3269 0e53 01       		.byte	0x1
 3270 0e54 01       		.byte	0x1
 3271 0e55 70020000 		.4byte	.LASF170
 3272 0e59 70020000 		.4byte	.LASF170
 3273 0e5d 0A       		.byte	0xa
 3274 0e5e 9704     		.2byte	0x497
 3275 0e60 06       		.byte	0x6
 3276 0e61 27       		.uleb128 0x27
 3277 0e62 01       		.byte	0x1
 3278 0e63 01       		.byte	0x1
 3279 0e64 0D010000 		.4byte	.LASF171
 3280 0e68 0D010000 		.4byte	.LASF171
 3281 0e6c 0A       		.byte	0xa
 3282 0e6d F602     		.2byte	0x2f6
 3283 0e6f 06       		.byte	0x6
 3284 0e70 28       		.uleb128 0x28
 3285 0e71 01       		.byte	0x1
 3286 0e72 01       		.byte	0x1
 3287 0e73 30070000 		.4byte	.LASF172
 3288 0e77 30070000 		.4byte	.LASF172
 3289 0e7b 0B       		.byte	0xb
 3290 0e7c 2F       		.byte	0x2f
 3291 0e7d 06       		.byte	0x6
 3292 0e7e 28       		.uleb128 0x28
 3293 0e7f 01       		.byte	0x1
ARM GAS  /tmp/ccTw5KR6.s 			page 66


 3294 0e80 01       		.byte	0x1
 3295 0e81 A9060000 		.4byte	.LASF173
 3296 0e85 A9060000 		.4byte	.LASF173
 3297 0e89 0B       		.byte	0xb
 3298 0e8a 2E       		.byte	0x2e
 3299 0e8b 06       		.byte	0x6
 3300 0e8c 28       		.uleb128 0x28
 3301 0e8d 01       		.byte	0x1
 3302 0e8e 01       		.byte	0x1
 3303 0e8f 03010000 		.4byte	.LASF174
 3304 0e93 03010000 		.4byte	.LASF174
 3305 0e97 0B       		.byte	0xb
 3306 0e98 2C       		.byte	0x2c
 3307 0e99 06       		.byte	0x6
 3308 0e9a 28       		.uleb128 0x28
 3309 0e9b 01       		.byte	0x1
 3310 0e9c 01       		.byte	0x1
 3311 0e9d B2060000 		.4byte	.LASF175
 3312 0ea1 B2060000 		.4byte	.LASF175
 3313 0ea5 0B       		.byte	0xb
 3314 0ea6 2A       		.byte	0x2a
 3315 0ea7 06       		.byte	0x6
 3316 0ea8 00       		.byte	0
 3317              		.section	.debug_abbrev,"",%progbits
 3318              	.Ldebug_abbrev0:
 3319 0000 01       		.uleb128 0x1
 3320 0001 11       		.uleb128 0x11
 3321 0002 01       		.byte	0x1
 3322 0003 25       		.uleb128 0x25
 3323 0004 0E       		.uleb128 0xe
 3324 0005 13       		.uleb128 0x13
 3325 0006 0B       		.uleb128 0xb
 3326 0007 03       		.uleb128 0x3
 3327 0008 0E       		.uleb128 0xe
 3328 0009 1B       		.uleb128 0x1b
 3329 000a 0E       		.uleb128 0xe
 3330 000b 55       		.uleb128 0x55
 3331 000c 06       		.uleb128 0x6
 3332 000d 11       		.uleb128 0x11
 3333 000e 01       		.uleb128 0x1
 3334 000f 52       		.uleb128 0x52
 3335 0010 01       		.uleb128 0x1
 3336 0011 10       		.uleb128 0x10
 3337 0012 06       		.uleb128 0x6
 3338 0013 00       		.byte	0
 3339 0014 00       		.byte	0
 3340 0015 02       		.uleb128 0x2
 3341 0016 24       		.uleb128 0x24
 3342 0017 00       		.byte	0
 3343 0018 0B       		.uleb128 0xb
 3344 0019 0B       		.uleb128 0xb
 3345 001a 3E       		.uleb128 0x3e
 3346 001b 0B       		.uleb128 0xb
 3347 001c 03       		.uleb128 0x3
 3348 001d 08       		.uleb128 0x8
 3349 001e 00       		.byte	0
 3350 001f 00       		.byte	0
ARM GAS  /tmp/ccTw5KR6.s 			page 67


 3351 0020 03       		.uleb128 0x3
 3352 0021 24       		.uleb128 0x24
 3353 0022 00       		.byte	0
 3354 0023 0B       		.uleb128 0xb
 3355 0024 0B       		.uleb128 0xb
 3356 0025 3E       		.uleb128 0x3e
 3357 0026 0B       		.uleb128 0xb
 3358 0027 03       		.uleb128 0x3
 3359 0028 0E       		.uleb128 0xe
 3360 0029 00       		.byte	0
 3361 002a 00       		.byte	0
 3362 002b 04       		.uleb128 0x4
 3363 002c 16       		.uleb128 0x16
 3364 002d 00       		.byte	0
 3365 002e 03       		.uleb128 0x3
 3366 002f 0E       		.uleb128 0xe
 3367 0030 3A       		.uleb128 0x3a
 3368 0031 0B       		.uleb128 0xb
 3369 0032 3B       		.uleb128 0x3b
 3370 0033 0B       		.uleb128 0xb
 3371 0034 39       		.uleb128 0x39
 3372 0035 0B       		.uleb128 0xb
 3373 0036 49       		.uleb128 0x49
 3374 0037 13       		.uleb128 0x13
 3375 0038 00       		.byte	0
 3376 0039 00       		.byte	0
 3377 003a 05       		.uleb128 0x5
 3378 003b 35       		.uleb128 0x35
 3379 003c 00       		.byte	0
 3380 003d 49       		.uleb128 0x49
 3381 003e 13       		.uleb128 0x13
 3382 003f 00       		.byte	0
 3383 0040 00       		.byte	0
 3384 0041 06       		.uleb128 0x6
 3385 0042 0F       		.uleb128 0xf
 3386 0043 00       		.byte	0
 3387 0044 0B       		.uleb128 0xb
 3388 0045 0B       		.uleb128 0xb
 3389 0046 00       		.byte	0
 3390 0047 00       		.byte	0
 3391 0048 07       		.uleb128 0x7
 3392 0049 0F       		.uleb128 0xf
 3393 004a 00       		.byte	0
 3394 004b 0B       		.uleb128 0xb
 3395 004c 0B       		.uleb128 0xb
 3396 004d 49       		.uleb128 0x49
 3397 004e 13       		.uleb128 0x13
 3398 004f 00       		.byte	0
 3399 0050 00       		.byte	0
 3400 0051 08       		.uleb128 0x8
 3401 0052 13       		.uleb128 0x13
 3402 0053 00       		.byte	0
 3403 0054 03       		.uleb128 0x3
 3404 0055 0E       		.uleb128 0xe
 3405 0056 3C       		.uleb128 0x3c
 3406 0057 0C       		.uleb128 0xc
 3407 0058 00       		.byte	0
ARM GAS  /tmp/ccTw5KR6.s 			page 68


 3408 0059 00       		.byte	0
 3409 005a 09       		.uleb128 0x9
 3410 005b 04       		.uleb128 0x4
 3411 005c 01       		.byte	0x1
 3412 005d 03       		.uleb128 0x3
 3413 005e 0E       		.uleb128 0xe
 3414 005f 3E       		.uleb128 0x3e
 3415 0060 0B       		.uleb128 0xb
 3416 0061 0B       		.uleb128 0xb
 3417 0062 0B       		.uleb128 0xb
 3418 0063 49       		.uleb128 0x49
 3419 0064 13       		.uleb128 0x13
 3420 0065 3A       		.uleb128 0x3a
 3421 0066 0B       		.uleb128 0xb
 3422 0067 3B       		.uleb128 0x3b
 3423 0068 0B       		.uleb128 0xb
 3424 0069 39       		.uleb128 0x39
 3425 006a 0B       		.uleb128 0xb
 3426 006b 01       		.uleb128 0x1
 3427 006c 13       		.uleb128 0x13
 3428 006d 00       		.byte	0
 3429 006e 00       		.byte	0
 3430 006f 0A       		.uleb128 0xa
 3431 0070 28       		.uleb128 0x28
 3432 0071 00       		.byte	0
 3433 0072 03       		.uleb128 0x3
 3434 0073 0E       		.uleb128 0xe
 3435 0074 1C       		.uleb128 0x1c
 3436 0075 0D       		.uleb128 0xd
 3437 0076 00       		.byte	0
 3438 0077 00       		.byte	0
 3439 0078 0B       		.uleb128 0xb
 3440 0079 28       		.uleb128 0x28
 3441 007a 00       		.byte	0
 3442 007b 03       		.uleb128 0x3
 3443 007c 0E       		.uleb128 0xe
 3444 007d 1C       		.uleb128 0x1c
 3445 007e 0B       		.uleb128 0xb
 3446 007f 00       		.byte	0
 3447 0080 00       		.byte	0
 3448 0081 0C       		.uleb128 0xc
 3449 0082 16       		.uleb128 0x16
 3450 0083 00       		.byte	0
 3451 0084 03       		.uleb128 0x3
 3452 0085 0E       		.uleb128 0xe
 3453 0086 3A       		.uleb128 0x3a
 3454 0087 0B       		.uleb128 0xb
 3455 0088 3B       		.uleb128 0x3b
 3456 0089 05       		.uleb128 0x5
 3457 008a 39       		.uleb128 0x39
 3458 008b 0B       		.uleb128 0xb
 3459 008c 49       		.uleb128 0x49
 3460 008d 13       		.uleb128 0x13
 3461 008e 00       		.byte	0
 3462 008f 00       		.byte	0
 3463 0090 0D       		.uleb128 0xd
 3464 0091 13       		.uleb128 0x13
ARM GAS  /tmp/ccTw5KR6.s 			page 69


 3465 0092 01       		.byte	0x1
 3466 0093 0B       		.uleb128 0xb
 3467 0094 05       		.uleb128 0x5
 3468 0095 3A       		.uleb128 0x3a
 3469 0096 0B       		.uleb128 0xb
 3470 0097 3B       		.uleb128 0x3b
 3471 0098 0B       		.uleb128 0xb
 3472 0099 39       		.uleb128 0x39
 3473 009a 0B       		.uleb128 0xb
 3474 009b 01       		.uleb128 0x1
 3475 009c 13       		.uleb128 0x13
 3476 009d 00       		.byte	0
 3477 009e 00       		.byte	0
 3478 009f 0E       		.uleb128 0xe
 3479 00a0 0D       		.uleb128 0xd
 3480 00a1 00       		.byte	0
 3481 00a2 03       		.uleb128 0x3
 3482 00a3 0E       		.uleb128 0xe
 3483 00a4 3A       		.uleb128 0x3a
 3484 00a5 0B       		.uleb128 0xb
 3485 00a6 3B       		.uleb128 0x3b
 3486 00a7 0B       		.uleb128 0xb
 3487 00a8 39       		.uleb128 0x39
 3488 00a9 0B       		.uleb128 0xb
 3489 00aa 49       		.uleb128 0x49
 3490 00ab 13       		.uleb128 0x13
 3491 00ac 38       		.uleb128 0x38
 3492 00ad 0A       		.uleb128 0xa
 3493 00ae 00       		.byte	0
 3494 00af 00       		.byte	0
 3495 00b0 0F       		.uleb128 0xf
 3496 00b1 0D       		.uleb128 0xd
 3497 00b2 00       		.byte	0
 3498 00b3 03       		.uleb128 0x3
 3499 00b4 08       		.uleb128 0x8
 3500 00b5 3A       		.uleb128 0x3a
 3501 00b6 0B       		.uleb128 0xb
 3502 00b7 3B       		.uleb128 0x3b
 3503 00b8 0B       		.uleb128 0xb
 3504 00b9 39       		.uleb128 0x39
 3505 00ba 0B       		.uleb128 0xb
 3506 00bb 49       		.uleb128 0x49
 3507 00bc 13       		.uleb128 0x13
 3508 00bd 38       		.uleb128 0x38
 3509 00be 0A       		.uleb128 0xa
 3510 00bf 00       		.byte	0
 3511 00c0 00       		.byte	0
 3512 00c1 10       		.uleb128 0x10
 3513 00c2 01       		.uleb128 0x1
 3514 00c3 01       		.byte	0x1
 3515 00c4 49       		.uleb128 0x49
 3516 00c5 13       		.uleb128 0x13
 3517 00c6 01       		.uleb128 0x1
 3518 00c7 13       		.uleb128 0x13
 3519 00c8 00       		.byte	0
 3520 00c9 00       		.byte	0
 3521 00ca 11       		.uleb128 0x11
ARM GAS  /tmp/ccTw5KR6.s 			page 70


 3522 00cb 21       		.uleb128 0x21
 3523 00cc 00       		.byte	0
 3524 00cd 49       		.uleb128 0x49
 3525 00ce 13       		.uleb128 0x13
 3526 00cf 2F       		.uleb128 0x2f
 3527 00d0 0B       		.uleb128 0xb
 3528 00d1 00       		.byte	0
 3529 00d2 00       		.byte	0
 3530 00d3 12       		.uleb128 0x12
 3531 00d4 21       		.uleb128 0x21
 3532 00d5 00       		.byte	0
 3533 00d6 49       		.uleb128 0x49
 3534 00d7 13       		.uleb128 0x13
 3535 00d8 2F       		.uleb128 0x2f
 3536 00d9 05       		.uleb128 0x5
 3537 00da 00       		.byte	0
 3538 00db 00       		.byte	0
 3539 00dc 13       		.uleb128 0x13
 3540 00dd 16       		.uleb128 0x16
 3541 00de 00       		.byte	0
 3542 00df 03       		.uleb128 0x3
 3543 00e0 08       		.uleb128 0x8
 3544 00e1 3A       		.uleb128 0x3a
 3545 00e2 0B       		.uleb128 0xb
 3546 00e3 3B       		.uleb128 0x3b
 3547 00e4 05       		.uleb128 0x5
 3548 00e5 39       		.uleb128 0x39
 3549 00e6 0B       		.uleb128 0xb
 3550 00e7 49       		.uleb128 0x49
 3551 00e8 13       		.uleb128 0x13
 3552 00e9 00       		.byte	0
 3553 00ea 00       		.byte	0
 3554 00eb 14       		.uleb128 0x14
 3555 00ec 13       		.uleb128 0x13
 3556 00ed 01       		.byte	0x1
 3557 00ee 0B       		.uleb128 0xb
 3558 00ef 0B       		.uleb128 0xb
 3559 00f0 3A       		.uleb128 0x3a
 3560 00f1 0B       		.uleb128 0xb
 3561 00f2 3B       		.uleb128 0x3b
 3562 00f3 05       		.uleb128 0x5
 3563 00f4 39       		.uleb128 0x39
 3564 00f5 0B       		.uleb128 0xb
 3565 00f6 01       		.uleb128 0x1
 3566 00f7 13       		.uleb128 0x13
 3567 00f8 00       		.byte	0
 3568 00f9 00       		.byte	0
 3569 00fa 15       		.uleb128 0x15
 3570 00fb 0D       		.uleb128 0xd
 3571 00fc 00       		.byte	0
 3572 00fd 03       		.uleb128 0x3
 3573 00fe 08       		.uleb128 0x8
 3574 00ff 3A       		.uleb128 0x3a
 3575 0100 0B       		.uleb128 0xb
 3576 0101 3B       		.uleb128 0x3b
 3577 0102 05       		.uleb128 0x5
 3578 0103 39       		.uleb128 0x39
ARM GAS  /tmp/ccTw5KR6.s 			page 71


 3579 0104 0B       		.uleb128 0xb
 3580 0105 49       		.uleb128 0x49
 3581 0106 13       		.uleb128 0x13
 3582 0107 38       		.uleb128 0x38
 3583 0108 0A       		.uleb128 0xa
 3584 0109 00       		.byte	0
 3585 010a 00       		.byte	0
 3586 010b 16       		.uleb128 0x16
 3587 010c 0D       		.uleb128 0xd
 3588 010d 00       		.byte	0
 3589 010e 03       		.uleb128 0x3
 3590 010f 0E       		.uleb128 0xe
 3591 0110 3A       		.uleb128 0x3a
 3592 0111 0B       		.uleb128 0xb
 3593 0112 3B       		.uleb128 0x3b
 3594 0113 05       		.uleb128 0x5
 3595 0114 39       		.uleb128 0x39
 3596 0115 0B       		.uleb128 0xb
 3597 0116 49       		.uleb128 0x49
 3598 0117 13       		.uleb128 0x13
 3599 0118 38       		.uleb128 0x38
 3600 0119 0A       		.uleb128 0xa
 3601 011a 00       		.byte	0
 3602 011b 00       		.byte	0
 3603 011c 17       		.uleb128 0x17
 3604 011d 34       		.uleb128 0x34
 3605 011e 00       		.byte	0
 3606 011f 03       		.uleb128 0x3
 3607 0120 0E       		.uleb128 0xe
 3608 0121 3A       		.uleb128 0x3a
 3609 0122 0B       		.uleb128 0xb
 3610 0123 3B       		.uleb128 0x3b
 3611 0124 0B       		.uleb128 0xb
 3612 0125 39       		.uleb128 0x39
 3613 0126 0B       		.uleb128 0xb
 3614 0127 49       		.uleb128 0x49
 3615 0128 13       		.uleb128 0x13
 3616 0129 00       		.byte	0
 3617 012a 00       		.byte	0
 3618 012b 18       		.uleb128 0x18
 3619 012c 2E       		.uleb128 0x2e
 3620 012d 01       		.byte	0x1
 3621 012e 3F       		.uleb128 0x3f
 3622 012f 0C       		.uleb128 0xc
 3623 0130 03       		.uleb128 0x3
 3624 0131 0E       		.uleb128 0xe
 3625 0132 3A       		.uleb128 0x3a
 3626 0133 0B       		.uleb128 0xb
 3627 0134 3B       		.uleb128 0x3b
 3628 0135 0B       		.uleb128 0xb
 3629 0136 39       		.uleb128 0x39
 3630 0137 0B       		.uleb128 0xb
 3631 0138 27       		.uleb128 0x27
 3632 0139 0C       		.uleb128 0xc
 3633 013a 49       		.uleb128 0x49
 3634 013b 13       		.uleb128 0x13
 3635 013c 11       		.uleb128 0x11
ARM GAS  /tmp/ccTw5KR6.s 			page 72


 3636 013d 01       		.uleb128 0x1
 3637 013e 12       		.uleb128 0x12
 3638 013f 01       		.uleb128 0x1
 3639 0140 40       		.uleb128 0x40
 3640 0141 06       		.uleb128 0x6
 3641 0142 9742     		.uleb128 0x2117
 3642 0144 0C       		.uleb128 0xc
 3643 0145 01       		.uleb128 0x1
 3644 0146 13       		.uleb128 0x13
 3645 0147 00       		.byte	0
 3646 0148 00       		.byte	0
 3647 0149 19       		.uleb128 0x19
 3648 014a 898201   		.uleb128 0x4109
 3649 014d 01       		.byte	0x1
 3650 014e 11       		.uleb128 0x11
 3651 014f 01       		.uleb128 0x1
 3652 0150 31       		.uleb128 0x31
 3653 0151 13       		.uleb128 0x13
 3654 0152 01       		.uleb128 0x1
 3655 0153 13       		.uleb128 0x13
 3656 0154 00       		.byte	0
 3657 0155 00       		.byte	0
 3658 0156 1A       		.uleb128 0x1a
 3659 0157 8A8201   		.uleb128 0x410a
 3660 015a 00       		.byte	0
 3661 015b 02       		.uleb128 0x2
 3662 015c 0A       		.uleb128 0xa
 3663 015d 9142     		.uleb128 0x2111
 3664 015f 0A       		.uleb128 0xa
 3665 0160 00       		.byte	0
 3666 0161 00       		.byte	0
 3667 0162 1B       		.uleb128 0x1b
 3668 0163 898201   		.uleb128 0x4109
 3669 0166 00       		.byte	0
 3670 0167 11       		.uleb128 0x11
 3671 0168 01       		.uleb128 0x1
 3672 0169 31       		.uleb128 0x31
 3673 016a 13       		.uleb128 0x13
 3674 016b 00       		.byte	0
 3675 016c 00       		.byte	0
 3676 016d 1C       		.uleb128 0x1c
 3677 016e 2E       		.uleb128 0x2e
 3678 016f 01       		.byte	0x1
 3679 0170 03       		.uleb128 0x3
 3680 0171 0E       		.uleb128 0xe
 3681 0172 3A       		.uleb128 0x3a
 3682 0173 0B       		.uleb128 0xb
 3683 0174 3B       		.uleb128 0x3b
 3684 0175 0B       		.uleb128 0xb
 3685 0176 39       		.uleb128 0x39
 3686 0177 0B       		.uleb128 0xb
 3687 0178 27       		.uleb128 0x27
 3688 0179 0C       		.uleb128 0xc
 3689 017a 11       		.uleb128 0x11
 3690 017b 01       		.uleb128 0x1
 3691 017c 12       		.uleb128 0x12
 3692 017d 01       		.uleb128 0x1
ARM GAS  /tmp/ccTw5KR6.s 			page 73


 3693 017e 40       		.uleb128 0x40
 3694 017f 0A       		.uleb128 0xa
 3695 0180 9742     		.uleb128 0x2117
 3696 0182 0C       		.uleb128 0xc
 3697 0183 01       		.uleb128 0x1
 3698 0184 13       		.uleb128 0x13
 3699 0185 00       		.byte	0
 3700 0186 00       		.byte	0
 3701 0187 1D       		.uleb128 0x1d
 3702 0188 05       		.uleb128 0x5
 3703 0189 00       		.byte	0
 3704 018a 03       		.uleb128 0x3
 3705 018b 0E       		.uleb128 0xe
 3706 018c 3A       		.uleb128 0x3a
 3707 018d 0B       		.uleb128 0xb
 3708 018e 3B       		.uleb128 0x3b
 3709 018f 0B       		.uleb128 0xb
 3710 0190 39       		.uleb128 0x39
 3711 0191 0B       		.uleb128 0xb
 3712 0192 49       		.uleb128 0x49
 3713 0193 13       		.uleb128 0x13
 3714 0194 02       		.uleb128 0x2
 3715 0195 06       		.uleb128 0x6
 3716 0196 B742     		.uleb128 0x2137
 3717 0198 06       		.uleb128 0x6
 3718 0199 00       		.byte	0
 3719 019a 00       		.byte	0
 3720 019b 1E       		.uleb128 0x1e
 3721 019c 2E       		.uleb128 0x2e
 3722 019d 01       		.byte	0x1
 3723 019e 03       		.uleb128 0x3
 3724 019f 0E       		.uleb128 0xe
 3725 01a0 3A       		.uleb128 0x3a
 3726 01a1 0B       		.uleb128 0xb
 3727 01a2 3B       		.uleb128 0x3b
 3728 01a3 0B       		.uleb128 0xb
 3729 01a4 39       		.uleb128 0x39
 3730 01a5 0B       		.uleb128 0xb
 3731 01a6 27       		.uleb128 0x27
 3732 01a7 0C       		.uleb128 0xc
 3733 01a8 11       		.uleb128 0x11
 3734 01a9 01       		.uleb128 0x1
 3735 01aa 12       		.uleb128 0x12
 3736 01ab 01       		.uleb128 0x1
 3737 01ac 40       		.uleb128 0x40
 3738 01ad 06       		.uleb128 0x6
 3739 01ae 9742     		.uleb128 0x2117
 3740 01b0 0C       		.uleb128 0xc
 3741 01b1 01       		.uleb128 0x1
 3742 01b2 13       		.uleb128 0x13
 3743 01b3 00       		.byte	0
 3744 01b4 00       		.byte	0
 3745 01b5 1F       		.uleb128 0x1f
 3746 01b6 898201   		.uleb128 0x4109
 3747 01b9 01       		.byte	0x1
 3748 01ba 11       		.uleb128 0x11
 3749 01bb 01       		.uleb128 0x1
ARM GAS  /tmp/ccTw5KR6.s 			page 74


 3750 01bc 31       		.uleb128 0x31
 3751 01bd 13       		.uleb128 0x13
 3752 01be 00       		.byte	0
 3753 01bf 00       		.byte	0
 3754 01c0 20       		.uleb128 0x20
 3755 01c1 34       		.uleb128 0x34
 3756 01c2 00       		.byte	0
 3757 01c3 03       		.uleb128 0x3
 3758 01c4 0E       		.uleb128 0xe
 3759 01c5 3A       		.uleb128 0x3a
 3760 01c6 0B       		.uleb128 0xb
 3761 01c7 3B       		.uleb128 0x3b
 3762 01c8 0B       		.uleb128 0xb
 3763 01c9 39       		.uleb128 0x39
 3764 01ca 0B       		.uleb128 0xb
 3765 01cb 49       		.uleb128 0x49
 3766 01cc 13       		.uleb128 0x13
 3767 01cd 02       		.uleb128 0x2
 3768 01ce 06       		.uleb128 0x6
 3769 01cf B742     		.uleb128 0x2137
 3770 01d1 06       		.uleb128 0x6
 3771 01d2 00       		.byte	0
 3772 01d3 00       		.byte	0
 3773 01d4 21       		.uleb128 0x21
 3774 01d5 2E       		.uleb128 0x2e
 3775 01d6 00       		.byte	0
 3776 01d7 3F       		.uleb128 0x3f
 3777 01d8 0C       		.uleb128 0xc
 3778 01d9 03       		.uleb128 0x3
 3779 01da 0E       		.uleb128 0xe
 3780 01db 3A       		.uleb128 0x3a
 3781 01dc 0B       		.uleb128 0xb
 3782 01dd 3B       		.uleb128 0x3b
 3783 01de 0B       		.uleb128 0xb
 3784 01df 39       		.uleb128 0x39
 3785 01e0 0B       		.uleb128 0xb
 3786 01e1 11       		.uleb128 0x11
 3787 01e2 01       		.uleb128 0x1
 3788 01e3 12       		.uleb128 0x12
 3789 01e4 01       		.uleb128 0x1
 3790 01e5 40       		.uleb128 0x40
 3791 01e6 0A       		.uleb128 0xa
 3792 01e7 9742     		.uleb128 0x2117
 3793 01e9 0C       		.uleb128 0xc
 3794 01ea 00       		.byte	0
 3795 01eb 00       		.byte	0
 3796 01ec 22       		.uleb128 0x22
 3797 01ed 2E       		.uleb128 0x2e
 3798 01ee 01       		.byte	0x1
 3799 01ef 3F       		.uleb128 0x3f
 3800 01f0 0C       		.uleb128 0xc
 3801 01f1 03       		.uleb128 0x3
 3802 01f2 0E       		.uleb128 0xe
 3803 01f3 3A       		.uleb128 0x3a
 3804 01f4 0B       		.uleb128 0xb
 3805 01f5 3B       		.uleb128 0x3b
 3806 01f6 0B       		.uleb128 0xb
ARM GAS  /tmp/ccTw5KR6.s 			page 75


 3807 01f7 39       		.uleb128 0x39
 3808 01f8 0B       		.uleb128 0xb
 3809 01f9 27       		.uleb128 0x27
 3810 01fa 0C       		.uleb128 0xc
 3811 01fb 11       		.uleb128 0x11
 3812 01fc 01       		.uleb128 0x1
 3813 01fd 12       		.uleb128 0x12
 3814 01fe 01       		.uleb128 0x1
 3815 01ff 40       		.uleb128 0x40
 3816 0200 0A       		.uleb128 0xa
 3817 0201 9742     		.uleb128 0x2117
 3818 0203 0C       		.uleb128 0xc
 3819 0204 01       		.uleb128 0x1
 3820 0205 13       		.uleb128 0x13
 3821 0206 00       		.byte	0
 3822 0207 00       		.byte	0
 3823 0208 23       		.uleb128 0x23
 3824 0209 05       		.uleb128 0x5
 3825 020a 00       		.byte	0
 3826 020b 03       		.uleb128 0x3
 3827 020c 0E       		.uleb128 0xe
 3828 020d 3A       		.uleb128 0x3a
 3829 020e 0B       		.uleb128 0xb
 3830 020f 3B       		.uleb128 0x3b
 3831 0210 0B       		.uleb128 0xb
 3832 0211 39       		.uleb128 0x39
 3833 0212 0B       		.uleb128 0xb
 3834 0213 49       		.uleb128 0x49
 3835 0214 13       		.uleb128 0x13
 3836 0215 02       		.uleb128 0x2
 3837 0216 0A       		.uleb128 0xa
 3838 0217 00       		.byte	0
 3839 0218 00       		.byte	0
 3840 0219 24       		.uleb128 0x24
 3841 021a 2E       		.uleb128 0x2e
 3842 021b 00       		.byte	0
 3843 021c 3F       		.uleb128 0x3f
 3844 021d 0C       		.uleb128 0xc
 3845 021e 03       		.uleb128 0x3
 3846 021f 0E       		.uleb128 0xe
 3847 0220 3A       		.uleb128 0x3a
 3848 0221 0B       		.uleb128 0xb
 3849 0222 3B       		.uleb128 0x3b
 3850 0223 0B       		.uleb128 0xb
 3851 0224 39       		.uleb128 0x39
 3852 0225 0B       		.uleb128 0xb
 3853 0226 27       		.uleb128 0x27
 3854 0227 0C       		.uleb128 0xc
 3855 0228 11       		.uleb128 0x11
 3856 0229 01       		.uleb128 0x1
 3857 022a 12       		.uleb128 0x12
 3858 022b 01       		.uleb128 0x1
 3859 022c 40       		.uleb128 0x40
 3860 022d 0A       		.uleb128 0xa
 3861 022e 9742     		.uleb128 0x2117
 3862 0230 0C       		.uleb128 0xc
 3863 0231 00       		.byte	0
ARM GAS  /tmp/ccTw5KR6.s 			page 76


 3864 0232 00       		.byte	0
 3865 0233 25       		.uleb128 0x25
 3866 0234 2E       		.uleb128 0x2e
 3867 0235 01       		.byte	0x1
 3868 0236 3F       		.uleb128 0x3f
 3869 0237 0C       		.uleb128 0xc
 3870 0238 03       		.uleb128 0x3
 3871 0239 0E       		.uleb128 0xe
 3872 023a 3A       		.uleb128 0x3a
 3873 023b 0B       		.uleb128 0xb
 3874 023c 3B       		.uleb128 0x3b
 3875 023d 0B       		.uleb128 0xb
 3876 023e 39       		.uleb128 0x39
 3877 023f 0B       		.uleb128 0xb
 3878 0240 27       		.uleb128 0x27
 3879 0241 0C       		.uleb128 0xc
 3880 0242 11       		.uleb128 0x11
 3881 0243 01       		.uleb128 0x1
 3882 0244 12       		.uleb128 0x12
 3883 0245 01       		.uleb128 0x1
 3884 0246 40       		.uleb128 0x40
 3885 0247 06       		.uleb128 0x6
 3886 0248 9742     		.uleb128 0x2117
 3887 024a 0C       		.uleb128 0xc
 3888 024b 01       		.uleb128 0x1
 3889 024c 13       		.uleb128 0x13
 3890 024d 00       		.byte	0
 3891 024e 00       		.byte	0
 3892 024f 26       		.uleb128 0x26
 3893 0250 05       		.uleb128 0x5
 3894 0251 00       		.byte	0
 3895 0252 03       		.uleb128 0x3
 3896 0253 08       		.uleb128 0x8
 3897 0254 3A       		.uleb128 0x3a
 3898 0255 0B       		.uleb128 0xb
 3899 0256 3B       		.uleb128 0x3b
 3900 0257 0B       		.uleb128 0xb
 3901 0258 39       		.uleb128 0x39
 3902 0259 0B       		.uleb128 0xb
 3903 025a 49       		.uleb128 0x49
 3904 025b 13       		.uleb128 0x13
 3905 025c 02       		.uleb128 0x2
 3906 025d 0A       		.uleb128 0xa
 3907 025e 00       		.byte	0
 3908 025f 00       		.byte	0
 3909 0260 27       		.uleb128 0x27
 3910 0261 2E       		.uleb128 0x2e
 3911 0262 00       		.byte	0
 3912 0263 3F       		.uleb128 0x3f
 3913 0264 0C       		.uleb128 0xc
 3914 0265 3C       		.uleb128 0x3c
 3915 0266 0C       		.uleb128 0xc
 3916 0267 8740     		.uleb128 0x2007
 3917 0269 0E       		.uleb128 0xe
 3918 026a 03       		.uleb128 0x3
 3919 026b 0E       		.uleb128 0xe
 3920 026c 3A       		.uleb128 0x3a
ARM GAS  /tmp/ccTw5KR6.s 			page 77


 3921 026d 0B       		.uleb128 0xb
 3922 026e 3B       		.uleb128 0x3b
 3923 026f 05       		.uleb128 0x5
 3924 0270 39       		.uleb128 0x39
 3925 0271 0B       		.uleb128 0xb
 3926 0272 00       		.byte	0
 3927 0273 00       		.byte	0
 3928 0274 28       		.uleb128 0x28
 3929 0275 2E       		.uleb128 0x2e
 3930 0276 00       		.byte	0
 3931 0277 3F       		.uleb128 0x3f
 3932 0278 0C       		.uleb128 0xc
 3933 0279 3C       		.uleb128 0x3c
 3934 027a 0C       		.uleb128 0xc
 3935 027b 8740     		.uleb128 0x2007
 3936 027d 0E       		.uleb128 0xe
 3937 027e 03       		.uleb128 0x3
 3938 027f 0E       		.uleb128 0xe
 3939 0280 3A       		.uleb128 0x3a
 3940 0281 0B       		.uleb128 0xb
 3941 0282 3B       		.uleb128 0x3b
 3942 0283 0B       		.uleb128 0xb
 3943 0284 39       		.uleb128 0x39
 3944 0285 0B       		.uleb128 0xb
 3945 0286 00       		.byte	0
 3946 0287 00       		.byte	0
 3947 0288 00       		.byte	0
 3948              		.section	.debug_loc,"",%progbits
 3949              	.Ldebug_loc0:
 3950              	.LLST10:
 3951 0000 00000000 		.4byte	.LFB48
 3952 0004 06000000 		.4byte	.LCFI5
 3953 0008 0200     		.2byte	0x2
 3954 000a 7D       		.byte	0x7d
 3955 000b 00       		.sleb128 0
 3956 000c 06000000 		.4byte	.LCFI5
 3957 0010 84000000 		.4byte	.LFE48
 3958 0014 0200     		.2byte	0x2
 3959 0016 7D       		.byte	0x7d
 3960 0017 10       		.sleb128 16
 3961 0018 00000000 		.4byte	0
 3962 001c 00000000 		.4byte	0
 3963              	.LVUS1:
 3964 0020 01       		.uleb128 .LVU5
 3965 0021 00       		.uleb128 0
 3966              	.LLST1:
 3967 0022 02000000 		.4byte	.LVL1
 3968 0026 04000000 		.4byte	.LFE47
 3969 002a 0100     		.2byte	0x1
 3970 002c 50       		.byte	0x50
 3971 002d 00000000 		.4byte	0
 3972 0031 00000000 		.4byte	0
 3973              	.LVUS0:
 3974 0035 01       		.uleb128 .LVU1
 3975 0036 00       		.uleb128 0
 3976              	.LLST0:
 3977 0037 00000000 		.4byte	.LVL0
ARM GAS  /tmp/ccTw5KR6.s 			page 78


 3978 003b 02000000 		.4byte	.LFE46
 3979 003f 0100     		.2byte	0x1
 3980 0041 50       		.byte	0x50
 3981 0042 00000000 		.4byte	0
 3982 0046 00000000 		.4byte	0
 3983              	.LLST2:
 3984 004a 04000000 		.4byte	.LFB45
 3985 004e 08000000 		.4byte	.LCFI0
 3986 0052 0200     		.2byte	0x2
 3987 0054 7D       		.byte	0x7d
 3988 0055 00       		.sleb128 0
 3989 0056 08000000 		.4byte	.LCFI0
 3990 005a 34000000 		.4byte	.LFE45
 3991 005e 0200     		.2byte	0x2
 3992 0060 7D       		.byte	0x7d
 3993 0061 08       		.sleb128 8
 3994 0062 00000000 		.4byte	0
 3995 0066 00000000 		.4byte	0
 3996              	.LVUS3:
 3997 006a 00       		.uleb128 0
 3998 006b 00       		.uleb128 .LVU17
 3999 006c 00       		.uleb128 .LVU17
 4000 006d 00       		.uleb128 0
 4001              	.LLST3:
 4002 006e 04000000 		.4byte	.LVL2
 4003 0072 1A000000 		.4byte	.LVL3
 4004 0076 0100     		.2byte	0x1
 4005 0078 50       		.byte	0x50
 4006 0079 1A000000 		.4byte	.LVL3
 4007 007d 34000000 		.4byte	.LFE45
 4008 0081 0400     		.2byte	0x4
 4009 0083 F3       		.byte	0xf3
 4010 0084 01       		.uleb128 0x1
 4011 0085 50       		.byte	0x50
 4012 0086 9F       		.byte	0x9f
 4013 0087 00000000 		.4byte	0
 4014 008b 00000000 		.4byte	0
 4015              	.LLST4:
 4016 008f 34000000 		.4byte	.LFB44
 4017 0093 38000000 		.4byte	.LCFI1
 4018 0097 0200     		.2byte	0x2
 4019 0099 7D       		.byte	0x7d
 4020 009a 00       		.sleb128 0
 4021 009b 38000000 		.4byte	.LCFI1
 4022 009f D0000000 		.4byte	.LFE44
 4023 00a3 0200     		.2byte	0x2
 4024 00a5 7D       		.byte	0x7d
 4025 00a6 10       		.sleb128 16
 4026 00a7 00000000 		.4byte	0
 4027 00ab 00000000 		.4byte	0
 4028              	.LVUS5:
 4029 00af 00       		.uleb128 0
 4030 00b0 00       		.uleb128 .LVU43
 4031 00b1 00       		.uleb128 .LVU43
 4032 00b2 00       		.uleb128 0
 4033              	.LLST5:
 4034 00b3 34000000 		.4byte	.LVL5
ARM GAS  /tmp/ccTw5KR6.s 			page 79


 4035 00b7 8D000000 		.4byte	.LVL6-1
 4036 00bb 0100     		.2byte	0x1
 4037 00bd 50       		.byte	0x50
 4038 00be 8D000000 		.4byte	.LVL6-1
 4039 00c2 D0000000 		.4byte	.LFE44
 4040 00c6 0400     		.2byte	0x4
 4041 00c8 F3       		.byte	0xf3
 4042 00c9 01       		.uleb128 0x1
 4043 00ca 50       		.byte	0x50
 4044 00cb 9F       		.byte	0x9f
 4045 00cc 00000000 		.4byte	0
 4046 00d0 00000000 		.4byte	0
 4047              	.LVUS6:
 4048 00d4 01       		.uleb128 .LVU46
 4049 00d5 00       		.uleb128 .LVU49
 4050 00d6 00       		.uleb128 .LVU51
 4051 00d7 00       		.uleb128 0
 4052              	.LLST6:
 4053 00d8 9E000000 		.4byte	.LVL8
 4054 00dc A0000000 		.4byte	.LVL9
 4055 00e0 0100     		.2byte	0x1
 4056 00e2 54       		.byte	0x54
 4057 00e3 A8000000 		.4byte	.LVL10
 4058 00e7 D0000000 		.4byte	.LFE44
 4059 00eb 0100     		.2byte	0x1
 4060 00ed 54       		.byte	0x54
 4061 00ee 00000000 		.4byte	0
 4062 00f2 00000000 		.4byte	0
 4063              	.LVUS9:
 4064 00f6 00       		.uleb128 0
 4065 00f7 00       		.uleb128 .LVU177
 4066 00f8 00       		.uleb128 .LVU177
 4067 00f9 00       		.uleb128 0
 4068              	.LLST9:
 4069 00fa 40020000 		.4byte	.LVL17
 4070 00fe 48020000 		.4byte	.LVL18
 4071 0102 0100     		.2byte	0x1
 4072 0104 50       		.byte	0x50
 4073 0105 48020000 		.4byte	.LVL18
 4074 0109 5C020000 		.4byte	.LFE39
 4075 010d 0400     		.2byte	0x4
 4076 010f F3       		.byte	0xf3
 4077 0110 01       		.uleb128 0x1
 4078 0111 50       		.byte	0x50
 4079 0112 9F       		.byte	0x9f
 4080 0113 00000000 		.4byte	0
 4081 0117 00000000 		.4byte	0
 4082              	.LVUS8:
 4083 011b 00       		.uleb128 0
 4084 011c 00       		.uleb128 .LVU169
 4085 011d 00       		.uleb128 .LVU169
 4086 011e 00       		.uleb128 0
 4087              	.LLST8:
 4088 011f 28020000 		.4byte	.LVL15
 4089 0123 30020000 		.4byte	.LVL16
 4090 0127 0100     		.2byte	0x1
 4091 0129 50       		.byte	0x50
ARM GAS  /tmp/ccTw5KR6.s 			page 80


 4092 012a 30020000 		.4byte	.LVL16
 4093 012e 40020000 		.4byte	.LFE38
 4094 0132 0400     		.2byte	0x4
 4095 0134 F3       		.byte	0xf3
 4096 0135 01       		.uleb128 0x1
 4097 0136 50       		.byte	0x50
 4098 0137 9F       		.byte	0x9f
 4099 0138 00000000 		.4byte	0
 4100 013c 00000000 		.4byte	0
 4101              	.LLST7:
 4102 0140 D0010000 		.4byte	.LFB36
 4103 0144 D2010000 		.4byte	.LCFI2
 4104 0148 0200     		.2byte	0x2
 4105 014a 7D       		.byte	0x7d
 4106 014b 00       		.sleb128 0
 4107 014c D2010000 		.4byte	.LCFI2
 4108 0150 DE010000 		.4byte	.LCFI3
 4109 0154 0200     		.2byte	0x2
 4110 0156 7D       		.byte	0x7d
 4111 0157 08       		.sleb128 8
 4112 0158 DE010000 		.4byte	.LCFI3
 4113 015c E0010000 		.4byte	.LCFI4
 4114 0160 0200     		.2byte	0x2
 4115 0162 7D       		.byte	0x7d
 4116 0163 00       		.sleb128 0
 4117 0164 E0010000 		.4byte	.LCFI4
 4118 0168 00020000 		.4byte	.LFE36
 4119 016c 0200     		.2byte	0x2
 4120 016e 7D       		.byte	0x7d
 4121 016f 08       		.sleb128 8
 4122 0170 00000000 		.4byte	0
 4123 0174 00000000 		.4byte	0
 4124              		.section	.debug_aranges,"",%progbits
 4125 0000 24000000 		.4byte	0x24
 4126 0004 0200     		.2byte	0x2
 4127 0006 00000000 		.4byte	.Ldebug_info0
 4128 000a 04       		.byte	0x4
 4129 000b 00       		.byte	0
 4130 000c 0000     		.2byte	0
 4131 000e 0000     		.2byte	0
 4132 0010 00000000 		.4byte	.Ltext0
 4133 0014 C0030000 		.4byte	.Letext0-.Ltext0
 4134 0018 00000000 		.4byte	.LFB48
 4135 001c 84000000 		.4byte	.LFE48-.LFB48
 4136 0020 00000000 		.4byte	0
 4137 0024 00000000 		.4byte	0
 4138              		.section	.debug_ranges,"",%progbits
 4139              	.Ldebug_ranges0:
 4140 0000 00000000 		.4byte	.Ltext0
 4141 0004 C0030000 		.4byte	.Letext0
 4142 0008 00000000 		.4byte	.LFB48
 4143 000c 84000000 		.4byte	.LFE48
 4144 0010 00000000 		.4byte	0
 4145 0014 00000000 		.4byte	0
 4146              		.section	.debug_line,"",%progbits
 4147              	.Ldebug_line0:
 4148 0000 A3060000 		.section	.debug_str,"MS",%progbits,1
ARM GAS  /tmp/ccTw5KR6.s 			page 81


 4148      03008301 
 4148      00000201 
 4148      FB0E0D00 
 4148      01010101 
 4149              	.LASF77:
 4150 0000 49435052 		.ascii	"ICPR\000"
 4150      00
 4151              	.LASF121:
 4152 0005 5243435F 		.ascii	"RCC_TypeDef\000"
 4152      54797065 
 4152      44656600 
 4153              	.LASF105:
 4154 0011 4C434B52 		.ascii	"LCKR\000"
 4154      00
 4155              	.LASF28:
 4156 0016 5056445F 		.ascii	"PVD_IRQn\000"
 4156      4952516E 
 4156      00
 4157              	.LASF124:
 4158 001f 44494552 		.ascii	"DIER\000"
 4158      00
 4159              	.LASF53:
 4160 0024 54494D31 		.ascii	"TIM1_TRG_COM_IRQn\000"
 4160      5F545247 
 4160      5F434F4D 
 4160      5F495251 
 4160      6E00
 4161              	.LASF58:
 4162 0036 49324331 		.ascii	"I2C1_EV_IRQn\000"
 4162      5F45565F 
 4162      4952516E 
 4162      00
 4163              	.LASF6:
 4164 0043 5F5F7569 		.ascii	"__uint8_t\000"
 4164      6E74385F 
 4164      7400
 4165              	.LASF148:
 4166 004d 54494D5F 		.ascii	"TIM_TypeDef\000"
 4166      54797065 
 4166      44656600 
 4167              	.LASF30:
 4168 0059 5254435F 		.ascii	"RTC_IRQn\000"
 4168      4952516E 
 4168      00
 4169              	.LASF48:
 4170 0062 43414E31 		.ascii	"CAN1_RX1_IRQn\000"
 4170      5F525831 
 4170      5F495251 
 4170      6E00
 4171              	.LASF137:
 4172 0070 43435232 		.ascii	"CCR2\000"
 4172      00
 4173              	.LASF110:
 4174 0075 4D415052 		.ascii	"MAPR2\000"
 4174      3200
 4175              	.LASF61:
 4176 007b 49324332 		.ascii	"I2C2_ER_IRQn\000"
ARM GAS  /tmp/ccTw5KR6.s 			page 82


 4176      5F45525F 
 4176      4952516E 
 4176      00
 4177              	.LASF57:
 4178 0088 54494D34 		.ascii	"TIM4_IRQn\000"
 4178      5F495251 
 4178      6E00
 4179              	.LASF18:
 4180 0092 51756575 		.ascii	"QueueHandle_t\000"
 4180      6548616E 
 4180      646C655F 
 4180      7400
 4181              	.LASF35:
 4182 00a0 45585449 		.ascii	"EXTI2_IRQn\000"
 4182      325F4952 
 4182      516E00
 4183              	.LASF27:
 4184 00ab 57574447 		.ascii	"WWDG_IRQn\000"
 4184      5F495251 
 4184      6E00
 4185              	.LASF75:
 4186 00b5 49535052 		.ascii	"ISPR\000"
 4186      00
 4187              	.LASF93:
 4188 00ba 4A535152 		.ascii	"JSQR\000"
 4188      00
 4189              	.LASF125:
 4190 00bf 43434D52 		.ascii	"CCMR1\000"
 4190      3100
 4191              	.LASF127:
 4192 00c5 43434D52 		.ascii	"CCMR2\000"
 4192      3200
 4193              	.LASF1:
 4194 00cb 6C6F6E67 		.ascii	"long long int\000"
 4194      206C6F6E 
 4194      6720696E 
 4194      7400
 4195              	.LASF3:
 4196 00d9 7369676E 		.ascii	"signed char\000"
 4196      65642063 
 4196      68617200 
 4197              	.LASF104:
 4198 00e5 42535252 		.ascii	"BSRR\000"
 4198      00
 4199              	.LASF33:
 4200 00ea 45585449 		.ascii	"EXTI0_IRQn\000"
 4200      305F4952 
 4200      516E00
 4201              	.LASF103:
 4202 00f5 464C4153 		.ascii	"FLASH_TypeDef\000"
 4202      485F5479 
 4202      70654465 
 4202      6600
 4203              	.LASF174:
 4204 0103 64697370 		.ascii	"disp_text\000"
 4204      5F746578 
 4204      7400
ARM GAS  /tmp/ccTw5KR6.s 			page 83


 4205              	.LASF171:
 4206 010d 76546173 		.ascii	"vTaskDelay\000"
 4206      6B44656C 
 4206      617900
 4207              	.LASF12:
 4208 0118 6C6F6E67 		.ascii	"long long unsigned int\000"
 4208      206C6F6E 
 4208      6720756E 
 4208      7369676E 
 4208      65642069 
 4209              	.LASF132:
 4210 012f 52455345 		.ascii	"RESERVED10\000"
 4210      52564544 
 4210      313000
 4211              	.LASF133:
 4212 013a 52455345 		.ascii	"RESERVED11\000"
 4212      52564544 
 4212      313100
 4213              	.LASF134:
 4214 0145 52455345 		.ascii	"RESERVED12\000"
 4214      52564544 
 4214      313200
 4215              	.LASF136:
 4216 0150 52455345 		.ascii	"RESERVED13\000"
 4216      52564544 
 4216      313300
 4217              	.LASF138:
 4218 015b 52455345 		.ascii	"RESERVED14\000"
 4218      52564544 
 4218      313400
 4219              	.LASF140:
 4220 0166 52455345 		.ascii	"RESERVED15\000"
 4220      52564544 
 4220      313500
 4221              	.LASF142:
 4222 0171 52455345 		.ascii	"RESERVED16\000"
 4222      52564544 
 4222      313600
 4223              	.LASF144:
 4224 017c 52455345 		.ascii	"RESERVED17\000"
 4224      52564544 
 4224      313700
 4225              	.LASF145:
 4226 0187 52455345 		.ascii	"RESERVED18\000"
 4226      52564544 
 4226      313800
 4227              	.LASF147:
 4228 0192 52455345 		.ascii	"RESERVED19\000"
 4228      52564544 
 4228      313900
 4229              	.LASF9:
 4230 019d 6C6F6E67 		.ascii	"long int\000"
 4230      20696E74 
 4230      00
 4231              	.LASF113:
 4232 01a6 41504232 		.ascii	"APB2RSTR\000"
 4232      52535452 
ARM GAS  /tmp/ccTw5KR6.s 			page 84


 4232      00
 4233              	.LASF111:
 4234 01af 4146494F 		.ascii	"AFIO_TypeDef\000"
 4234      5F547970 
 4234      65446566 
 4234      00
 4235              	.LASF181:
 4236 01bc 636F6E74 		.ascii	"cont\000"
 4236      00
 4237              	.LASF50:
 4238 01c1 45585449 		.ascii	"EXTI9_5_IRQn\000"
 4238      395F355F 
 4238      4952516E 
 4238      00
 4239              	.LASF129:
 4240 01ce 43434552 		.ascii	"CCER\000"
 4240      00
 4241              	.LASF160:
 4242 01d3 76616C6F 		.ascii	"valor_atual\000"
 4242      725F6174 
 4242      75616C00 
 4243              	.LASF100:
 4244 01df 4F50544B 		.ascii	"OPTKEYR\000"
 4244      45595200 
 4245              	.LASF14:
 4246 01e7 75696E74 		.ascii	"uint16_t\000"
 4246      31365F74 
 4246      00
 4247              	.LASF98:
 4248 01f0 4144435F 		.ascii	"ADC_TypeDef\000"
 4248      54797065 
 4248      44656600 
 4249              	.LASF45:
 4250 01fc 41444331 		.ascii	"ADC1_2_IRQn\000"
 4250      5F325F49 
 4250      52516E00 
 4251              	.LASF25:
 4252 0208 50656E64 		.ascii	"PendSV_IRQn\000"
 4252      53565F49 
 4252      52516E00 
 4253              	.LASF8:
 4254 0214 73686F72 		.ascii	"short unsigned int\000"
 4254      7420756E 
 4254      7369676E 
 4254      65642069 
 4254      6E7400
 4255              	.LASF41:
 4256 0227 444D4131 		.ascii	"DMA1_Channel4_IRQn\000"
 4256      5F436861 
 4256      6E6E656C 
 4256      345F4952 
 4256      516E00
 4257              	.LASF7:
 4258 023a 5F5F7569 		.ascii	"__uint16_t\000"
 4258      6E743136 
 4258      5F7400
 4259              	.LASF10:
ARM GAS  /tmp/ccTw5KR6.s 			page 85


 4260 0245 5F5F7569 		.ascii	"__uint32_t\000"
 4260      6E743332 
 4260      5F7400
 4261              	.LASF165:
 4262 0250 656E6162 		.ascii	"enable_TIM3_delay\000"
 4262      6C655F54 
 4262      494D335F 
 4262      64656C61 
 4262      7900
 4263              	.LASF21:
 4264 0262 42757346 		.ascii	"BusFault_IRQn\000"
 4264      61756C74 
 4264      5F495251 
 4264      6E00
 4265              	.LASF170:
 4266 0270 76546173 		.ascii	"vTaskStartScheduler\000"
 4266      6B537461 
 4266      72745363 
 4266      68656475 
 4266      6C657200 
 4267              	.LASF99:
 4268 0284 4B455952 		.ascii	"KEYR\000"
 4268      00
 4269              	.LASF107:
 4270 0289 45564352 		.ascii	"EVCR\000"
 4270      00
 4271              	.LASF143:
 4272 028e 42445452 		.ascii	"BDTR\000"
 4272      00
 4273              	.LASF0:
 4274 0293 756E7369 		.ascii	"unsigned int\000"
 4274      676E6564 
 4274      20696E74 
 4274      00
 4275              	.LASF20:
 4276 02a0 4D656D6F 		.ascii	"MemoryManagement_IRQn\000"
 4276      72794D61 
 4276      6E616765 
 4276      6D656E74 
 4276      5F495251 
 4277              	.LASF11:
 4278 02b6 6C6F6E67 		.ascii	"long unsigned int\000"
 4278      20756E73 
 4278      69676E65 
 4278      6420696E 
 4278      7400
 4279              	.LASF106:
 4280 02c8 4750494F 		.ascii	"GPIO_TypeDef\000"
 4280      5F547970 
 4280      65446566 
 4280      00
 4281              	.LASF31:
 4282 02d5 464C4153 		.ascii	"FLASH_IRQn\000"
 4282      485F4952 
 4282      516E00
 4283              	.LASF155:
 4284 02e0 7461736B 		.ascii	"task1\000"
ARM GAS  /tmp/ccTw5KR6.s 			page 86


 4284      3100
 4285              	.LASF154:
 4286 02e6 7461736B 		.ascii	"task2\000"
 4286      3200
 4287              	.LASF152:
 4288 02ec 7461736B 		.ascii	"task3\000"
 4288      3300
 4289              	.LASF151:
 4290 02f2 7461736B 		.ascii	"task4\000"
 4290      3400
 4291              	.LASF42:
 4292 02f8 444D4131 		.ascii	"DMA1_Channel5_IRQn\000"
 4292      5F436861 
 4292      6E6E656C 
 4292      355F4952 
 4292      516E00
 4293              	.LASF123:
 4294 030b 534D4352 		.ascii	"SMCR\000"
 4294      00
 4295              	.LASF115:
 4296 0310 41484245 		.ascii	"AHBENR\000"
 4296      4E5200
 4297              	.LASF67:
 4298 0317 45585449 		.ascii	"EXTI15_10_IRQn\000"
 4298      31355F31 
 4298      305F4952 
 4298      516E00
 4299              	.LASF176:
 4300 0326 474E5520 		.ascii	"GNU C17 10.3.1 20210824 (release) -mcpu=cortex-m3 -"
 4300      43313720 
 4300      31302E33 
 4300      2E312032 
 4300      30323130 
 4301 0359 6D746875 		.ascii	"mthumb -mfloat-abi=soft -march=armv7-m -g -gdwarf-2"
 4301      6D62202D 
 4301      6D666C6F 
 4301      61742D61 
 4301      62693D73 
 4302 038c 202D4F73 		.ascii	" -Os -fomit-frame-pointer\000"
 4302      202D666F 
 4302      6D69742D 
 4302      6672616D 
 4302      652D706F 
 4303              	.LASF62:
 4304 03a6 53504931 		.ascii	"SPI1_IRQn\000"
 4304      5F495251 
 4304      6E00
 4305              	.LASF24:
 4306 03b0 44656275 		.ascii	"DebugMonitor_IRQn\000"
 4306      674D6F6E 
 4306      69746F72 
 4306      5F495251 
 4306      6E00
 4307              	.LASF26:
 4308 03c2 53797354 		.ascii	"SysTick_IRQn\000"
 4308      69636B5F 
 4308      4952516E 
ARM GAS  /tmp/ccTw5KR6.s 			page 87


 4308      00
 4309              	.LASF54:
 4310 03cf 54494D31 		.ascii	"TIM1_CC_IRQn\000"
 4310      5F43435F 
 4310      4952516E 
 4310      00
 4311              	.LASF162:
 4312 03dc 4952516E 		.ascii	"IRQn\000"
 4312      00
 4313              	.LASF86:
 4314 03e1 4A4F4652 		.ascii	"JOFR1\000"
 4314      3100
 4315              	.LASF87:
 4316 03e7 4A4F4652 		.ascii	"JOFR2\000"
 4316      3200
 4317              	.LASF88:
 4318 03ed 4A4F4652 		.ascii	"JOFR3\000"
 4318      3300
 4319              	.LASF89:
 4320 03f3 4A4F4652 		.ascii	"JOFR4\000"
 4320      3400
 4321              	.LASF39:
 4322 03f9 444D4131 		.ascii	"DMA1_Channel2_IRQn\000"
 4322      5F436861 
 4322      6E6E656C 
 4322      325F4952 
 4322      516E00
 4323              	.LASF178:
 4324 040c 2F686F6D 		.ascii	"/home/junior/Codigos/6-Stm32_GCC_FreeRTOS10.2.1/5-P"
 4324      652F6A75 
 4324      6E696F72 
 4324      2F436F64 
 4324      69676F73 
 4325 043f 574D5F4C 		.ascii	"WM_LCD_SERIAL\000"
 4325      43445F53 
 4325      45524941 
 4325      4C00
 4326              	.LASF23:
 4327 044d 53564361 		.ascii	"SVCall_IRQn\000"
 4327      6C6C5F49 
 4327      52516E00 
 4328              	.LASF60:
 4329 0459 49324332 		.ascii	"I2C2_EV_IRQn\000"
 4329      5F45565F 
 4329      4952516E 
 4329      00
 4330              	.LASF169:
 4331 0466 78546173 		.ascii	"xTaskCreate\000"
 4331      6B437265 
 4331      61746500 
 4332              	.LASF79:
 4333 0472 49414252 		.ascii	"IABR\000"
 4333      00
 4334              	.LASF16:
 4335 0477 5469636B 		.ascii	"TickType_t\000"
 4335      54797065 
 4335      5F7400
ARM GAS  /tmp/ccTw5KR6.s 			page 88


 4336              	.LASF164:
 4337 0482 44656C61 		.ascii	"Delay\000"
 4337      7900
 4338              	.LASF63:
 4339 0488 53504932 		.ascii	"SPI2_IRQn\000"
 4339      5F495251 
 4339      6E00
 4340              	.LASF163:
 4341 0492 656E6162 		.ascii	"enable_interrupt\000"
 4341      6C655F69 
 4341      6E746572 
 4341      72757074 
 4341      00
 4342              	.LASF84:
 4343 04a3 534D5052 		.ascii	"SMPR1\000"
 4343      3100
 4344              	.LASF85:
 4345 04a9 534D5052 		.ascii	"SMPR2\000"
 4345      3200
 4346              	.LASF73:
 4347 04af 49434552 		.ascii	"ICER\000"
 4347      00
 4348              	.LASF119:
 4349 04b4 41484252 		.ascii	"AHBRSTR\000"
 4349      53545200 
 4350              	.LASF150:
 4351 04bc 4C43445F 		.ascii	"LCD_Flag_queue\000"
 4351      466C6167 
 4351      5F717565 
 4351      756500
 4352              	.LASF114:
 4353 04cb 41504231 		.ascii	"APB1RSTR\000"
 4353      52535452 
 4353      00
 4354              	.LASF90:
 4355 04d4 53515231 		.ascii	"SQR1\000"
 4355      00
 4356              	.LASF91:
 4357 04d9 53515232 		.ascii	"SQR2\000"
 4357      00
 4358              	.LASF92:
 4359 04de 53515233 		.ascii	"SQR3\000"
 4359      00
 4360              	.LASF38:
 4361 04e3 444D4131 		.ascii	"DMA1_Channel1_IRQn\000"
 4361      5F436861 
 4361      6E6E656C 
 4361      315F4952 
 4361      516E00
 4362              	.LASF72:
 4363 04f6 52455345 		.ascii	"RESERVED0\000"
 4363      52564544 
 4363      3000
 4364              	.LASF122:
 4365 0500 52455345 		.ascii	"RESERVED1\000"
 4365      52564544 
 4365      3100
ARM GAS  /tmp/ccTw5KR6.s 			page 89


 4366              	.LASF76:
 4367 050a 52455345 		.ascii	"RESERVED2\000"
 4367      52564544 
 4367      3200
 4368              	.LASF78:
 4369 0514 52455345 		.ascii	"RESERVED3\000"
 4369      52564544 
 4369      3300
 4370              	.LASF80:
 4371 051e 52455345 		.ascii	"RESERVED4\000"
 4371      52564544 
 4371      3400
 4372              	.LASF81:
 4373 0528 52455345 		.ascii	"RESERVED5\000"
 4373      52564544 
 4373      3500
 4374              	.LASF126:
 4375 0532 52455345 		.ascii	"RESERVED6\000"
 4375      52564544 
 4375      3600
 4376              	.LASF130:
 4377 053c 52455345 		.ascii	"RESERVED8\000"
 4377      52564544 
 4377      3800
 4378              	.LASF131:
 4379 0546 52455345 		.ascii	"RESERVED9\000"
 4379      52564544 
 4379      3900
 4380              	.LASF179:
 4381 0550 51756575 		.ascii	"QueueDefinition\000"
 4381      65446566 
 4381      696E6974 
 4381      696F6E00 
 4382              	.LASF166:
 4383 0560 7365745F 		.ascii	"set_system_clock_to_72Mhz\000"
 4383      73797374 
 4383      656D5F63 
 4383      6C6F636B 
 4383      5F746F5F 
 4384              	.LASF4:
 4385 057a 756E7369 		.ascii	"unsigned char\000"
 4385      676E6564 
 4385      20636861 
 4385      7200
 4386              	.LASF46:
 4387 0588 5553425F 		.ascii	"USB_HP_CAN1_TX_IRQn\000"
 4387      48505F43 
 4387      414E315F 
 4387      54585F49 
 4387      52516E00 
 4388              	.LASF37:
 4389 059c 45585449 		.ascii	"EXTI4_IRQn\000"
 4389      345F4952 
 4389      516E00
 4390              	.LASF5:
 4391 05a7 73686F72 		.ascii	"short int\000"
 4391      7420696E 
ARM GAS  /tmp/ccTw5KR6.s 			page 90


 4391      7400
 4392              	.LASF71:
 4393 05b1 49534552 		.ascii	"ISER\000"
 4393      00
 4394              	.LASF83:
 4395 05b6 4E564943 		.ascii	"NVIC_Type\000"
 4395      5F547970 
 4395      6500
 4396              	.LASF101:
 4397 05c0 52455345 		.ascii	"RESERVED\000"
 4397      52564544 
 4397      00
 4398              	.LASF47:
 4399 05c9 5553425F 		.ascii	"USB_LP_CAN1_RX0_IRQn\000"
 4399      4C505F43 
 4399      414E315F 
 4399      5258305F 
 4399      4952516E 
 4400              	.LASF168:
 4401 05de 78517565 		.ascii	"xQueueGenericCreate\000"
 4401      75654765 
 4401      6E657269 
 4401      63437265 
 4401      61746500 
 4402              	.LASF167:
 4403 05f2 41444331 		.ascii	"ADC1_configure\000"
 4403      5F636F6E 
 4403      66696775 
 4403      726500
 4404              	.LASF116:
 4405 0601 41504232 		.ascii	"APB2ENR\000"
 4405      454E5200 
 4406              	.LASF159:
 4407 0609 50574D5F 		.ascii	"PWM_T2_out\000"
 4407      54325F6F 
 4407      757400
 4408              	.LASF161:
 4409 0614 64697361 		.ascii	"disable_interrupt\000"
 4409      626C655F 
 4409      696E7465 
 4409      72727570 
 4409      7400
 4410              	.LASF70:
 4411 0626 4952516E 		.ascii	"IRQn_Type\000"
 4411      5F547970 
 4411      6500
 4412              	.LASF15:
 4413 0630 75696E74 		.ascii	"uint32_t\000"
 4413      33325F74 
 4413      00
 4414              	.LASF128:
 4415 0639 52455345 		.ascii	"RESERVED7\000"
 4415      52564544 
 4415      3700
 4416              	.LASF65:
 4417 0643 55534152 		.ascii	"USART2_IRQn\000"
 4417      54325F49 
ARM GAS  /tmp/ccTw5KR6.s 			page 91


 4417      52516E00 
 4418              	.LASF22:
 4419 064f 55736167 		.ascii	"UsageFault_IRQn\000"
 4419      65466175 
 4419      6C745F49 
 4419      52516E00 
 4420              	.LASF2:
 4421 065f 6C6F6E67 		.ascii	"long double\000"
 4421      20646F75 
 4421      626C6500 
 4422              	.LASF102:
 4423 066b 57525052 		.ascii	"WRPR\000"
 4423      00
 4424              	.LASF40:
 4425 0670 444D4131 		.ascii	"DMA1_Channel3_IRQn\000"
 4425      5F436861 
 4425      6E6E656C 
 4425      335F4952 
 4425      516E00
 4426              	.LASF17:
 4427 0683 63686172 		.ascii	"char\000"
 4427      00
 4428              	.LASF51:
 4429 0688 54494D31 		.ascii	"TIM1_BRK_IRQn\000"
 4429      5F42524B 
 4429      5F495251 
 4429      6E00
 4430              	.LASF146:
 4431 0696 444D4152 		.ascii	"DMAR\000"
 4431      00
 4432              	.LASF68:
 4433 069b 52544341 		.ascii	"RTCAlarm_IRQn\000"
 4433      6C61726D 
 4433      5F495251 
 4433      6E00
 4434              	.LASF173:
 4435 06a9 64697370 		.ascii	"disp_cmd\000"
 4435      5F636D64 
 4435      00
 4436              	.LASF175:
 4437 06b2 64697370 		.ascii	"disp_number\000"
 4437      5F6E756D 
 4437      62657200 
 4438              	.LASF19:
 4439 06be 4E6F6E4D 		.ascii	"NonMaskableInt_IRQn\000"
 4439      61736B61 
 4439      626C6549 
 4439      6E745F49 
 4439      52516E00 
 4440              	.LASF177:
 4441 06d2 2E2E2F35 		.ascii	"../5-PWM_LCD_SERIAL/main.c\000"
 4441      2D50574D 
 4441      5F4C4344 
 4441      5F534552 
 4441      49414C2F 
 4442              	.LASF43:
 4443 06ed 444D4131 		.ascii	"DMA1_Channel6_IRQn\000"
ARM GAS  /tmp/ccTw5KR6.s 			page 92


 4443      5F436861 
 4443      6E6E656C 
 4443      365F4952 
 4443      516E00
 4444              	.LASF117:
 4445 0700 41504231 		.ascii	"APB1ENR\000"
 4445      454E5200 
 4446              	.LASF29:
 4447 0708 54414D50 		.ascii	"TAMPER_IRQn\000"
 4447      45525F49 
 4447      52516E00 
 4448              	.LASF52:
 4449 0714 54494D31 		.ascii	"TIM1_UP_IRQn\000"
 4449      5F55505F 
 4449      4952516E 
 4449      00
 4450              	.LASF69:
 4451 0721 55534257 		.ascii	"USBWakeUp_IRQn\000"
 4451      616B6555 
 4451      705F4952 
 4451      516E00
 4452              	.LASF172:
 4453 0730 64697370 		.ascii	"disp_init\000"
 4453      5F696E69 
 4453      7400
 4454              	.LASF66:
 4455 073a 55534152 		.ascii	"USART3_IRQn\000"
 4455      54335F49 
 4455      52516E00 
 4456              	.LASF135:
 4457 0746 43435231 		.ascii	"CCR1\000"
 4457      00
 4458              	.LASF55:
 4459 074b 54494D32 		.ascii	"TIM2_IRQn\000"
 4459      5F495251 
 4459      6E00
 4460              	.LASF139:
 4461 0755 43435233 		.ascii	"CCR3\000"
 4461      00
 4462              	.LASF141:
 4463 075a 43435234 		.ascii	"CCR4\000"
 4463      00
 4464              	.LASF64:
 4465 075f 55534152 		.ascii	"USART1_IRQn\000"
 4465      54315F49 
 4465      52516E00 
 4466              	.LASF118:
 4467 076b 42444352 		.ascii	"BDCR\000"
 4467      00
 4468              	.LASF36:
 4469 0770 45585449 		.ascii	"EXTI3_IRQn\000"
 4469      335F4952 
 4469      516E00
 4470              	.LASF120:
 4471 077b 43464752 		.ascii	"CFGR2\000"
 4471      3200
 4472              	.LASF13:
ARM GAS  /tmp/ccTw5KR6.s 			page 93


 4473 0781 75696E74 		.ascii	"uint8_t\000"
 4473      385F7400 
 4474              	.LASF74:
 4475 0789 52534552 		.ascii	"RSERVED1\000"
 4475      56454431 
 4475      00
 4476              	.LASF82:
 4477 0792 53544952 		.ascii	"STIR\000"
 4477      00
 4478              	.LASF94:
 4479 0797 4A445231 		.ascii	"JDR1\000"
 4479      00
 4480              	.LASF95:
 4481 079c 4A445232 		.ascii	"JDR2\000"
 4481      00
 4482              	.LASF96:
 4483 07a1 4A445233 		.ascii	"JDR3\000"
 4483      00
 4484              	.LASF97:
 4485 07a6 4A445234 		.ascii	"JDR4\000"
 4485      00
 4486              	.LASF108:
 4487 07ab 4D415052 		.ascii	"MAPR\000"
 4487      00
 4488              	.LASF44:
 4489 07b0 444D4131 		.ascii	"DMA1_Channel7_IRQn\000"
 4489      5F436861 
 4489      6E6E656C 
 4489      375F4952 
 4489      516E00
 4490              	.LASF112:
 4491 07c3 43464752 		.ascii	"CFGR\000"
 4491      00
 4492              	.LASF157:
 4493 07c8 636F6E66 		.ascii	"configure_PWM_TIM2\000"
 4493      69677572 
 4493      655F5057 
 4493      4D5F5449 
 4493      4D3200
 4494              	.LASF156:
 4495 07db 636F6E66 		.ascii	"configure_PWM_TIM4\000"
 4495      69677572 
 4495      655F5057 
 4495      4D5F5449 
 4495      4D3400
 4496              	.LASF59:
 4497 07ee 49324331 		.ascii	"I2C1_ER_IRQn\000"
 4497      5F45525F 
 4497      4952516E 
 4497      00
 4498              	.LASF153:
 4499 07fb 61726773 		.ascii	"args\000"
 4499      00
 4500              	.LASF180:
 4501 0800 6D61696E 		.ascii	"main\000"
 4501      00
 4502              	.LASF149:
ARM GAS  /tmp/ccTw5KR6.s 			page 94


 4503 0805 66696C61 		.ascii	"fila_ADC\000"
 4503      5F414443 
 4503      00
 4504              	.LASF158:
 4505 080e 50574D5F 		.ascii	"PWM_T4_out\000"
 4505      54345F6F 
 4505      757400
 4506              	.LASF49:
 4507 0819 43414E31 		.ascii	"CAN1_SCE_IRQn\000"
 4507      5F534345 
 4507      5F495251 
 4507      6E00
 4508              	.LASF32:
 4509 0827 5243435F 		.ascii	"RCC_IRQn\000"
 4509      4952516E 
 4509      00
 4510              	.LASF56:
 4511 0830 54494D33 		.ascii	"TIM3_IRQn\000"
 4511      5F495251 
 4511      6E00
 4512              	.LASF109:
 4513 083a 45585449 		.ascii	"EXTICR\000"
 4513      435200
 4514              	.LASF34:
 4515 0841 45585449 		.ascii	"EXTI1_IRQn\000"
 4515      315F4952 
 4515      516E00
 4516              		.ident	"GCC: (GNU Arm Embedded Toolchain 10.3-2021.10) 10.3.1 20210824 (release)"
ARM GAS  /tmp/ccTw5KR6.s 			page 95


DEFINED SYMBOLS
                            *ABS*:0000000000000000 main.c
     /tmp/ccTw5KR6.s:78     .text:0000000000000000 $t
     /tmp/ccTw5KR6.s:83     .text:0000000000000000 task3
     /tmp/ccTw5KR6.s:106    .text:0000000000000002 task4
     /tmp/ccTw5KR6.s:128    .text:0000000000000004 task2
     /tmp/ccTw5KR6.s:185    .text:000000000000002c $d
     /tmp/ccTw5KR6.s:196    .text:0000000000000034 $t
     /tmp/ccTw5KR6.s:201    .text:0000000000000034 task1
     /tmp/ccTw5KR6.s:321    .text:00000000000000c0 $d
     /tmp/ccTw5KR6.s:328    .text:00000000000000d0 $t
     /tmp/ccTw5KR6.s:334    .text:00000000000000d0 ADC1_configure
     /tmp/ccTw5KR6.s:462    .text:0000000000000150 $d
     /tmp/ccTw5KR6.s:468    .text:000000000000015c $t
     /tmp/ccTw5KR6.s:474    .text:000000000000015c set_system_clock_to_72Mhz
     /tmp/ccTw5KR6.s:582    .text:00000000000001cc $d
     /tmp/ccTw5KR6.s:586    .text:00000000000001d0 $t
     /tmp/ccTw5KR6.s:592    .text:00000000000001d0 Delay
     /tmp/ccTw5KR6.s:663    .text:00000000000001fc $d
     /tmp/ccTw5KR6.s:667    .text:0000000000000200 $t
     /tmp/ccTw5KR6.s:673    .text:0000000000000200 enable_TIM3_delay
     /tmp/ccTw5KR6.s:711    .text:0000000000000224 $d
     /tmp/ccTw5KR6.s:715    .text:0000000000000228 $t
     /tmp/ccTw5KR6.s:721    .text:0000000000000228 enable_interrupt
     /tmp/ccTw5KR6.s:753    .text:000000000000023c $d
     /tmp/ccTw5KR6.s:757    .text:0000000000000240 $t
     /tmp/ccTw5KR6.s:763    .text:0000000000000240 disable_interrupt
     /tmp/ccTw5KR6.s:796    .text:0000000000000258 $d
     /tmp/ccTw5KR6.s:800    .text:000000000000025c $t
     /tmp/ccTw5KR6.s:806    .text:000000000000025c PWM_T2_out
     /tmp/ccTw5KR6.s:832    .text:0000000000000264 PWM_T4_out
     /tmp/ccTw5KR6.s:851    .text:000000000000026c $d
     /tmp/ccTw5KR6.s:855    .text:0000000000000270 $t
     /tmp/ccTw5KR6.s:861    .text:0000000000000270 configure_PWM_TIM2
     /tmp/ccTw5KR6.s:988    .text:0000000000000314 $d
     /tmp/ccTw5KR6.s:994    .text:0000000000000320 $t
     /tmp/ccTw5KR6.s:1000   .text:0000000000000320 configure_PWM_TIM4
     /tmp/ccTw5KR6.s:1117   .text:00000000000003b4 $d
     /tmp/ccTw5KR6.s:1133   .text.startup:0000000000000000 $t
     /tmp/ccTw5KR6.s:1139   .text.startup:0000000000000000 main
     /tmp/ccTw5KR6.s:1218   .text.startup:0000000000000064 $d

UNDEFINED SYMBOLS
vTaskDelay
disp_init
disp_cmd
disp_text
disp_number
xQueueGenericCreate
xTaskCreate
vTaskStartScheduler
