ARM GAS  /tmp/cceGGp0Q.s 			page 1


   1              		.cpu cortex-m3
   2              		.arch armv7-m
   3              		.fpu softvfp
   4              		.eabi_attribute 20, 1	@ Tag_ABI_FP_denormal
   5              		.eabi_attribute 21, 1	@ Tag_ABI_FP_exceptions
   6              		.eabi_attribute 23, 3	@ Tag_ABI_FP_number_model
   7              		.eabi_attribute 24, 1	@ Tag_ABI_align8_needed
   8              		.eabi_attribute 25, 1	@ Tag_ABI_align8_preserved
   9              		.eabi_attribute 26, 1	@ Tag_ABI_enum_size
  10              		.eabi_attribute 30, 4	@ Tag_ABI_optimization_goals
  11              		.eabi_attribute 34, 1	@ Tag_CPU_unaligned_access
  12              		.eabi_attribute 18, 4	@ Tag_ABI_PCS_wchar_t
  13              		.file	"main.c"
  14              	@ GNU C17 (Arch Repository) version 13.2.0 (arm-none-eabi)
  15              	@	compiled by GNU C version 13.2.1 20230730, GMP version 6.2.1, MPFR version 4.2.0-p12, MPC version
  16              	
  17              	@ warning: GMP header version 6.2.1 differs from library version 6.3.0.
  18              	@ GGC heuristics: --param ggc-min-expand=100 --param ggc-min-heapsize=131072
  19              	@ options passed: -mcpu=cortex-m3 -mthumb -mfloat-abi=soft -march=armv7-m -g -gdwarf-2 -Os -fomit-f
  20              		.text
  21              	.Ltext0:
  22              		.cfi_sections	.debug_frame
  23              		.file 1 "../5-PWM_LCD_SERIAL/main.c"
  24              		.align	1
  25              		.syntax unified
  26              		.thumb
  27              		.thumb_func
  28              		.type	task4, %function
  29              	task4:
  30              	.LVL0:
  31              	.LFB45:
   1:../5-PWM_LCD_SERIAL/main.c **** /*
   2:../5-PWM_LCD_SERIAL/main.c ****  * Projeto LCD
   3:../5-PWM_LCD_SERIAL/main.c ****  *		Modificações necessárias: 
   4:../5-PWM_LCD_SERIAL/main.c ****  *		  FreeRTOSConfig:
   5:../5-PWM_LCD_SERIAL/main.c ****  *			 TICK_RATE_HZ definido em (100000)Hz -> 1µs
   6:../5-PWM_LCD_SERIAL/main.c ****  *
   7:../5-PWM_LCD_SERIAL/main.c ****  *	Clock do sistema: 
   8:../5-PWM_LCD_SERIAL/main.c ****  *		72Mhz
   9:../5-PWM_LCD_SERIAL/main.c ****  *	
  10:../5-PWM_LCD_SERIAL/main.c ****  *	Lib construída para Arduíno UNO:
  11:../5-PWM_LCD_SERIAL/main.c ****  *		myLcd.h
  12:../5-PWM_LCD_SERIAL/main.c ****  *			#define delayMicroseconds(X)   vTaskDelay(X)
  13:../5-PWM_LCD_SERIAL/main.c ****  *			#define delay(X)  vTaskDelay(X)
  14:../5-PWM_LCD_SERIAL/main.c ****  * */
  15:../5-PWM_LCD_SERIAL/main.c **** //
  16:../5-PWM_LCD_SERIAL/main.c **** // FreeRTOS: 
  17:../5-PWM_LCD_SERIAL/main.c **** #include "FreeRTOS.h"
  18:../5-PWM_LCD_SERIAL/main.c **** #include "queue.h"
  19:../5-PWM_LCD_SERIAL/main.c **** #include "task.h"
  20:../5-PWM_LCD_SERIAL/main.c **** 
  21:../5-PWM_LCD_SERIAL/main.c **** #include <string.h>
  22:../5-PWM_LCD_SERIAL/main.c **** #include <stdlib.h>
  23:../5-PWM_LCD_SERIAL/main.c **** 
  24:../5-PWM_LCD_SERIAL/main.c **** #define __delay_ms( TEMPO ) vTaskDelay(pdMS_TO_TICKS( TEMPO ))
  25:../5-PWM_LCD_SERIAL/main.c **** #define __delay( TEMPO ) vTaskDelay( TEMPO )
  26:../5-PWM_LCD_SERIAL/main.c **** 
ARM GAS  /tmp/cceGGp0Q.s 			page 2


  27:../5-PWM_LCD_SERIAL/main.c **** // LCD 16x2
  28:../5-PWM_LCD_SERIAL/main.c **** #include "stm32f10x.h"
  29:../5-PWM_LCD_SERIAL/main.c **** #include "Me.h"
  30:../5-PWM_LCD_SERIAL/main.c **** #include "myLcd.h"
  31:../5-PWM_LCD_SERIAL/main.c **** #include "Serial.h"
  32:../5-PWM_LCD_SERIAL/main.c **** 
  33:../5-PWM_LCD_SERIAL/main.c **** //#include "adc.h"
  34:../5-PWM_LCD_SERIAL/main.c **** 
  35:../5-PWM_LCD_SERIAL/main.c **** #define BIN 2
  36:../5-PWM_LCD_SERIAL/main.c **** #define OCT 8
  37:../5-PWM_LCD_SERIAL/main.c **** #define DEC 10
  38:../5-PWM_LCD_SERIAL/main.c **** #define HEX 16
  39:../5-PWM_LCD_SERIAL/main.c **** 
  40:../5-PWM_LCD_SERIAL/main.c **** static QueueHandle_t fila_ADC; 
  41:../5-PWM_LCD_SERIAL/main.c **** 
  42:../5-PWM_LCD_SERIAL/main.c **** static void task1(void *args __attribute((unused))) {
  43:../5-PWM_LCD_SERIAL/main.c **** 	RCC->APB2ENR |= (1<<2);
  44:../5-PWM_LCD_SERIAL/main.c **** 	GPIOA->CRL	 = 0x33333300; // Hab PA(2-7) out PP
  45:../5-PWM_LCD_SERIAL/main.c **** 
  46:../5-PWM_LCD_SERIAL/main.c **** 	set_bit(IO,RS);
  47:../5-PWM_LCD_SERIAL/main.c **** 	set_bit(IO,RS);
  48:../5-PWM_LCD_SERIAL/main.c **** 	set_bit(IO,EN);
  49:../5-PWM_LCD_SERIAL/main.c **** 	set_bit(IO,D4);
  50:../5-PWM_LCD_SERIAL/main.c **** 	set_bit(IO,D5);
  51:../5-PWM_LCD_SERIAL/main.c **** 	set_bit(IO,D6);
  52:../5-PWM_LCD_SERIAL/main.c **** 	set_bit(IO,D7);
  53:../5-PWM_LCD_SERIAL/main.c **** 
  54:../5-PWM_LCD_SERIAL/main.c ****   disp_init();
  55:../5-PWM_LCD_SERIAL/main.c ****   disp_cmd(0x0C);
  56:../5-PWM_LCD_SERIAL/main.c **** 
  57:../5-PWM_LCD_SERIAL/main.c ****   disp_text("Teste De\\ !&(#@!%@",0,0);
  58:../5-PWM_LCD_SERIAL/main.c ****   u8 cont = 0;
  59:../5-PWM_LCD_SERIAL/main.c **** 	while(1){
  60:../5-PWM_LCD_SERIAL/main.c **** 
  61:../5-PWM_LCD_SERIAL/main.c **** 		cont ++;
  62:../5-PWM_LCD_SERIAL/main.c **** 		cont &= 0x00ff;
  63:../5-PWM_LCD_SERIAL/main.c **** 		disp_text("CONTADOR: ", 1, 0);
  64:../5-PWM_LCD_SERIAL/main.c **** 		disp_number( cont, 1, 11);
  65:../5-PWM_LCD_SERIAL/main.c **** 		__delay_ms(10);
  66:../5-PWM_LCD_SERIAL/main.c **** 		
  67:../5-PWM_LCD_SERIAL/main.c **** 	}
  68:../5-PWM_LCD_SERIAL/main.c **** }
  69:../5-PWM_LCD_SERIAL/main.c **** 
  70:../5-PWM_LCD_SERIAL/main.c **** static void task2(void *args __attribute ((unused))){
  71:../5-PWM_LCD_SERIAL/main.c **** 	RCC->APB2ENR |= (1<<4); // En GPIOC
  72:../5-PWM_LCD_SERIAL/main.c **** 	GPIOC->CRH	|= (0b11<< 20); // PC13 out PP 
  73:../5-PWM_LCD_SERIAL/main.c **** 
  74:../5-PWM_LCD_SERIAL/main.c **** 	while(1){
  75:../5-PWM_LCD_SERIAL/main.c **** 		GPIOC->ODR	^= (1<<13);
  76:../5-PWM_LCD_SERIAL/main.c **** 		__delay_ms(50);
  77:../5-PWM_LCD_SERIAL/main.c **** 	}
  78:../5-PWM_LCD_SERIAL/main.c **** }
  79:../5-PWM_LCD_SERIAL/main.c **** 
  80:../5-PWM_LCD_SERIAL/main.c **** static void task3(void *args __attribute ((unused))){
  81:../5-PWM_LCD_SERIAL/main.c **** 	USART_init();
  82:../5-PWM_LCD_SERIAL/main.c **** 
  83:../5-PWM_LCD_SERIAL/main.c **** 	u32 dados_recebidos = 0;
ARM GAS  /tmp/cceGGp0Q.s 			page 3


  84:../5-PWM_LCD_SERIAL/main.c **** 
  85:../5-PWM_LCD_SERIAL/main.c **** 	char num_char[8]; // tamanho max de um numero é de 32 bits
  86:../5-PWM_LCD_SERIAL/main.c **** 	u8 status;
  87:../5-PWM_LCD_SERIAL/main.c **** 			
  88:../5-PWM_LCD_SERIAL/main.c **** 
  89:../5-PWM_LCD_SERIAL/main.c **** 	while(1){
  90:../5-PWM_LCD_SERIAL/main.c **** 		status = xQueueReceive(fila_ADC,
  91:../5-PWM_LCD_SERIAL/main.c **** 			  	&dados_recebidos, 
  92:../5-PWM_LCD_SERIAL/main.c **** 				pdMS_TO_TICKS(1));
  93:../5-PWM_LCD_SERIAL/main.c **** 
  94:../5-PWM_LCD_SERIAL/main.c **** 		if (status != NULL ){
  95:../5-PWM_LCD_SERIAL/main.c **** 			USARTSend("\r\nValor Lido: ");
  96:../5-PWM_LCD_SERIAL/main.c **** 
  97:../5-PWM_LCD_SERIAL/main.c **** 			//	itoa numero -> String , Tipo output
  98:../5-PWM_LCD_SERIAL/main.c **** 			itoa((u32) dados_recebidos, num_char, HEX); // Base: 2 8 10 16
  99:../5-PWM_LCD_SERIAL/main.c **** 
 100:../5-PWM_LCD_SERIAL/main.c **** 			USARTSend( num_char );
 101:../5-PWM_LCD_SERIAL/main.c **** 			__delay_ms(1);
 102:../5-PWM_LCD_SERIAL/main.c **** 		}
 103:../5-PWM_LCD_SERIAL/main.c **** 		else
 104:../5-PWM_LCD_SERIAL/main.c **** 			USARTSend("\r\nValor não amostrado ou transmitido!! \r\n");
 105:../5-PWM_LCD_SERIAL/main.c **** 	}
 106:../5-PWM_LCD_SERIAL/main.c **** }
 107:../5-PWM_LCD_SERIAL/main.c **** 
 108:../5-PWM_LCD_SERIAL/main.c **** static void task4(void *args __attribute ((unused))){
  32              		.loc 1 108 53 view -0
  33              		.cfi_startproc
  34              		@ Volatile: function does not return.
  35              		@ args = 0, pretend = 0, frame = 8
  36              		@ frame_needed = 0, uses_anonymous_args = 0
 109:../5-PWM_LCD_SERIAL/main.c **** 	//ADC8_Init();
 110:../5-PWM_LCD_SERIAL/main.c **** 	
 111:../5-PWM_LCD_SERIAL/main.c **** 	u32 adc_dados_lidos = 0; 
  37              		.loc 1 111 2 view .LVU1
  38              	@ ../5-PWM_LCD_SERIAL/main.c:111: 	u32 adc_dados_lidos = 0; 
  39              		.loc 1 111 6 is_stmt 0 view .LVU2
  40 0000 0023     		movs	r3, #0	@ tmp118,
  41              	@ ../5-PWM_LCD_SERIAL/main.c:108: static void task4(void *args __attribute ((unused))){
 108:../5-PWM_LCD_SERIAL/main.c **** 	//ADC8_Init();
  42              		.loc 1 108 53 view .LVU3
  43 0002 07B5     		push	{r0, r1, r2, lr}	@
  44              	.LCFI0:
  45              		.cfi_def_cfa_offset 16
  46              		.cfi_offset 14, -4
  47              	@ ../5-PWM_LCD_SERIAL/main.c:117: 		xQueueSend( fila_ADC,
 112:../5-PWM_LCD_SERIAL/main.c **** 	while(1){
 113:../5-PWM_LCD_SERIAL/main.c **** 
 114:../5-PWM_LCD_SERIAL/main.c **** 		// adc_dados_lidos = ADC8_Read();
 115:../5-PWM_LCD_SERIAL/main.c **** 		adc_dados_lidos ++;
 116:../5-PWM_LCD_SERIAL/main.c **** 
 117:../5-PWM_LCD_SERIAL/main.c **** 		xQueueSend( fila_ADC,
  48              		.loc 1 117 3 view .LVU4
  49 0004 074C     		ldr	r4, .L3	@ tmp122,
  50              	@ ../5-PWM_LCD_SERIAL/main.c:111: 	u32 adc_dados_lidos = 0; 
 111:../5-PWM_LCD_SERIAL/main.c **** 	while(1){
  51              		.loc 1 111 6 view .LVU5
  52 0006 0193     		str	r3, [sp, #4]	@ tmp118, adc_dados_lidos
ARM GAS  /tmp/cceGGp0Q.s 			page 4


  53              	.LVL1:
  54              	.L2:
 112:../5-PWM_LCD_SERIAL/main.c **** 	while(1){
  55              		.loc 1 112 2 is_stmt 1 view .LVU6
 115:../5-PWM_LCD_SERIAL/main.c **** 
  56              		.loc 1 115 3 view .LVU7
  57              	@ ../5-PWM_LCD_SERIAL/main.c:115: 		adc_dados_lidos ++;
 115:../5-PWM_LCD_SERIAL/main.c **** 
  58              		.loc 1 115 19 is_stmt 0 view .LVU8
  59 0008 019B     		ldr	r3, [sp, #4]	@ adc_dados_lidos, adc_dados_lidos
  60              	@ ../5-PWM_LCD_SERIAL/main.c:117: 		xQueueSend( fila_ADC,
  61              		.loc 1 117 3 view .LVU9
  62 000a 2068     		ldr	r0, [r4]	@, fila_ADC
  63              	@ ../5-PWM_LCD_SERIAL/main.c:115: 		adc_dados_lidos ++;
 115:../5-PWM_LCD_SERIAL/main.c **** 
  64              		.loc 1 115 19 view .LVU10
  65 000c 0133     		adds	r3, r3, #1	@ tmp119, adc_dados_lidos,
  66 000e 0193     		str	r3, [sp, #4]	@ tmp119, adc_dados_lidos
  67              		.loc 1 117 3 is_stmt 1 view .LVU11
  68 0010 0023     		movs	r3, #0	@,
  69 0012 01A9     		add	r1, sp, #4	@ tmp125,,
  70 0014 1A46     		mov	r2, r3	@,
  71 0016 FFF7FEFF 		bl	xQueueGenericSend		@
  72              	.LVL2:
 118:../5-PWM_LCD_SERIAL/main.c **** 				&adc_dados_lidos, 
 119:../5-PWM_LCD_SERIAL/main.c **** 				0);
 120:../5-PWM_LCD_SERIAL/main.c **** 
 121:../5-PWM_LCD_SERIAL/main.c **** 		__delay_ms(1);
  73              		.loc 1 121 3 discriminator 1 view .LVU12
  74 001a 6420     		movs	r0, #100	@,
  75 001c FFF7FEFF 		bl	vTaskDelay		@
  76              	.LVL3:
 112:../5-PWM_LCD_SERIAL/main.c **** 
  77              		.loc 1 112 7 view .LVU13
  78 0020 F2E7     		b	.L2		@
  79              	.L4:
  80 0022 00BF     		.align	2
  81              	.L3:
  82 0024 00000000 		.word	.LANCHOR0
  83              		.cfi_endproc
  84              	.LFE45:
  85              		.size	task4, .-task4
  86              		.align	1
  87              		.syntax unified
  88              		.thumb
  89              		.thumb_func
  90              		.type	task2, %function
  91              	task2:
  92              	.LVL4:
  93              	.LFB43:
  70:../5-PWM_LCD_SERIAL/main.c **** 	RCC->APB2ENR |= (1<<4); // En GPIOC
  94              		.loc 1 70 53 view -0
  95              		.cfi_startproc
  96              		@ Volatile: function does not return.
  97              		@ args = 0, pretend = 0, frame = 0
  98              		@ frame_needed = 0, uses_anonymous_args = 0
  71:../5-PWM_LCD_SERIAL/main.c **** 	GPIOC->CRH	|= (0b11<< 20); // PC13 out PP 
ARM GAS  /tmp/cceGGp0Q.s 			page 5


  99              		.loc 1 71 2 view .LVU15
 100              	@ ../5-PWM_LCD_SERIAL/main.c:71: 	RCC->APB2ENR |= (1<<4); // En GPIOC
  71:../5-PWM_LCD_SERIAL/main.c **** 	GPIOC->CRH	|= (0b11<< 20); // PC13 out PP 
 101              		.loc 1 71 5 is_stmt 0 view .LVU16
 102 0028 094A     		ldr	r2, .L7	@ tmp121,
 103              	@ ../5-PWM_LCD_SERIAL/main.c:70: static void task2(void *args __attribute ((unused))){
  70:../5-PWM_LCD_SERIAL/main.c **** 	RCC->APB2ENR |= (1<<4); // En GPIOC
 104              		.loc 1 70 53 view .LVU17
 105 002a 08B5     		push	{r3, lr}	@
 106              	.LCFI1:
 107              		.cfi_def_cfa_offset 8
 108              		.cfi_offset 3, -8
 109              		.cfi_offset 14, -4
 110              	@ ../5-PWM_LCD_SERIAL/main.c:71: 	RCC->APB2ENR |= (1<<4); // En GPIOC
  71:../5-PWM_LCD_SERIAL/main.c **** 	GPIOC->CRH	|= (0b11<< 20); // PC13 out PP 
 111              		.loc 1 71 5 view .LVU18
 112 002c 9369     		ldr	r3, [r2, #24]	@ _1, MEM[(struct RCC_TypeDef *)1073876992B].APB2ENR
 113              	@ ../5-PWM_LCD_SERIAL/main.c:72: 	GPIOC->CRH	|= (0b11<< 20); // PC13 out PP 
  72:../5-PWM_LCD_SERIAL/main.c **** 
 114              		.loc 1 72 7 view .LVU19
 115 002e 094C     		ldr	r4, .L7+4	@ tmp123,
 116              	@ ../5-PWM_LCD_SERIAL/main.c:71: 	RCC->APB2ENR |= (1<<4); // En GPIOC
  71:../5-PWM_LCD_SERIAL/main.c **** 	GPIOC->CRH	|= (0b11<< 20); // PC13 out PP 
 117              		.loc 1 71 15 view .LVU20
 118 0030 43F01003 		orr	r3, r3, #16	@ _2, _1,
 119 0034 9361     		str	r3, [r2, #24]	@ _2, MEM[(struct RCC_TypeDef *)1073876992B].APB2ENR
  72:../5-PWM_LCD_SERIAL/main.c **** 
 120              		.loc 1 72 2 is_stmt 1 view .LVU21
 121              	@ ../5-PWM_LCD_SERIAL/main.c:72: 	GPIOC->CRH	|= (0b11<< 20); // PC13 out PP 
  72:../5-PWM_LCD_SERIAL/main.c **** 
 122              		.loc 1 72 7 is_stmt 0 view .LVU22
 123 0036 6368     		ldr	r3, [r4, #4]	@ _3, MEM[(struct GPIO_TypeDef *)1073811456B].CRH
 124              	@ ../5-PWM_LCD_SERIAL/main.c:72: 	GPIOC->CRH	|= (0b11<< 20); // PC13 out PP 
  72:../5-PWM_LCD_SERIAL/main.c **** 
 125              		.loc 1 72 13 view .LVU23
 126 0038 43F44013 		orr	r3, r3, #3145728	@ _4, _3,
 127 003c 6360     		str	r3, [r4, #4]	@ _4, MEM[(struct GPIO_TypeDef *)1073811456B].CRH
 128              	.LVL5:
 129              	.L6:
  74:../5-PWM_LCD_SERIAL/main.c **** 		GPIOC->ODR	^= (1<<13);
 130              		.loc 1 74 2 is_stmt 1 view .LVU24
  75:../5-PWM_LCD_SERIAL/main.c **** 		__delay_ms(50);
 131              		.loc 1 75 3 view .LVU25
 132              	@ ../5-PWM_LCD_SERIAL/main.c:75: 		GPIOC->ODR	^= (1<<13);
  75:../5-PWM_LCD_SERIAL/main.c **** 		__delay_ms(50);
 133              		.loc 1 75 8 is_stmt 0 view .LVU26
 134 003e E368     		ldr	r3, [r4, #12]	@ _5, MEM[(struct GPIO_TypeDef *)1073811456B].ODR
 135              	@ ../5-PWM_LCD_SERIAL/main.c:76: 		__delay_ms(50);
  76:../5-PWM_LCD_SERIAL/main.c **** 	}
 136              		.loc 1 76 3 discriminator 1 view .LVU27
 137 0040 41F28830 		movw	r0, #5000	@,
 138              	@ ../5-PWM_LCD_SERIAL/main.c:75: 		GPIOC->ODR	^= (1<<13);
  75:../5-PWM_LCD_SERIAL/main.c **** 		__delay_ms(50);
 139              		.loc 1 75 14 view .LVU28
 140 0044 83F40053 		eor	r3, r3, #8192	@ _6, _5,
 141 0048 E360     		str	r3, [r4, #12]	@ _6, MEM[(struct GPIO_TypeDef *)1073811456B].ODR
  76:../5-PWM_LCD_SERIAL/main.c **** 	}
ARM GAS  /tmp/cceGGp0Q.s 			page 6


 142              		.loc 1 76 3 is_stmt 1 discriminator 1 view .LVU29
 143 004a FFF7FEFF 		bl	vTaskDelay		@
 144              	.LVL6:
  74:../5-PWM_LCD_SERIAL/main.c **** 		GPIOC->ODR	^= (1<<13);
 145              		.loc 1 74 7 view .LVU30
 146 004e F6E7     		b	.L6		@
 147              	.L8:
 148              		.align	2
 149              	.L7:
 150 0050 00100240 		.word	1073876992
 151 0054 00100140 		.word	1073811456
 152              		.cfi_endproc
 153              	.LFE43:
 154              		.size	task2, .-task2
 155              		.section	.rodata.str1.1,"aMS",%progbits,1
 156              	.LC0:
 157 0000 54657374 		.ascii	"Teste De\\ !&(#@!%@\000"
 157      65204465 
 157      5C202126 
 157      28234021 
 157      254000
 158              	.LC1:
 159 0013 434F4E54 		.ascii	"CONTADOR: \000"
 159      41444F52 
 159      3A2000
 160              		.text
 161              		.align	1
 162              		.syntax unified
 163              		.thumb
 164              		.thumb_func
 165              		.type	task1, %function
 166              	task1:
 167              	.LVL7:
 168              	.LFB42:
  42:../5-PWM_LCD_SERIAL/main.c **** 	RCC->APB2ENR |= (1<<2);
 169              		.loc 1 42 53 view -0
 170              		.cfi_startproc
 171              		@ args = 0, pretend = 0, frame = 0
 172              		@ frame_needed = 0, uses_anonymous_args = 0
  43:../5-PWM_LCD_SERIAL/main.c **** 	GPIOA->CRL	 = 0x33333300; // Hab PA(2-7) out PP
 173              		.loc 1 43 2 view .LVU32
 174              	@ ../5-PWM_LCD_SERIAL/main.c:43: 	RCC->APB2ENR |= (1<<2);
  43:../5-PWM_LCD_SERIAL/main.c **** 	GPIOA->CRL	 = 0x33333300; // Hab PA(2-7) out PP
 175              		.loc 1 43 5 is_stmt 0 view .LVU33
 176 0058 204A     		ldr	r2, .L11	@ tmp133,
 177              	@ ../5-PWM_LCD_SERIAL/main.c:42: static void task1(void *args __attribute((unused))) {
  42:../5-PWM_LCD_SERIAL/main.c **** 	RCC->APB2ENR |= (1<<2);
 178              		.loc 1 42 53 view .LVU34
 179 005a 38B5     		push	{r3, r4, r5, lr}	@
 180              	.LCFI2:
 181              		.cfi_def_cfa_offset 16
 182              		.cfi_offset 3, -16
 183              		.cfi_offset 4, -12
 184              		.cfi_offset 5, -8
 185              		.cfi_offset 14, -4
 186              	@ ../5-PWM_LCD_SERIAL/main.c:43: 	RCC->APB2ENR |= (1<<2);
  43:../5-PWM_LCD_SERIAL/main.c **** 	GPIOA->CRL	 = 0x33333300; // Hab PA(2-7) out PP
ARM GAS  /tmp/cceGGp0Q.s 			page 7


 187              		.loc 1 43 5 view .LVU35
 188 005c 9369     		ldr	r3, [r2, #24]	@ _1, MEM[(struct RCC_TypeDef *)1073876992B].APB2ENR
 189              	@ ../5-PWM_LCD_SERIAL/main.c:58:   u8 cont = 0;
  58:../5-PWM_LCD_SERIAL/main.c **** 	while(1){
 190              		.loc 1 58 6 view .LVU36
 191 005e 0024     		movs	r4, #0	@ cont,
 192              	@ ../5-PWM_LCD_SERIAL/main.c:43: 	RCC->APB2ENR |= (1<<2);
  43:../5-PWM_LCD_SERIAL/main.c **** 	GPIOA->CRL	 = 0x33333300; // Hab PA(2-7) out PP
 193              		.loc 1 43 15 view .LVU37
 194 0060 43F00403 		orr	r3, r3, #4	@ _2, _1,
 195 0064 9361     		str	r3, [r2, #24]	@ _2, MEM[(struct RCC_TypeDef *)1073876992B].APB2ENR
  44:../5-PWM_LCD_SERIAL/main.c **** 
 196              		.loc 1 44 2 is_stmt 1 view .LVU38
 197              	@ ../5-PWM_LCD_SERIAL/main.c:44: 	GPIOA->CRL	 = 0x33333300; // Hab PA(2-7) out PP
  44:../5-PWM_LCD_SERIAL/main.c **** 
 198              		.loc 1 44 14 is_stmt 0 view .LVU39
 199 0066 1E4B     		ldr	r3, .L11+4	@ tmp135,
 200 0068 1E4A     		ldr	r2, .L11+8	@ tmp136,
 201              	@ ../5-PWM_LCD_SERIAL/main.c:63: 		disp_text("CONTADOR: ", 1, 0);
  63:../5-PWM_LCD_SERIAL/main.c **** 		disp_number( cont, 1, 11);
 202              		.loc 1 63 3 view .LVU40
 203 006a 1F4D     		ldr	r5, .L11+12	@ tmp156,
 204              	@ ../5-PWM_LCD_SERIAL/main.c:44: 	GPIOA->CRL	 = 0x33333300; // Hab PA(2-7) out PP
  44:../5-PWM_LCD_SERIAL/main.c **** 
 205              		.loc 1 44 14 view .LVU41
 206 006c 1A60     		str	r2, [r3]	@ tmp136, MEM[(struct GPIO_TypeDef *)1073809408B].CRL
  46:../5-PWM_LCD_SERIAL/main.c **** 	set_bit(IO,RS);
 207              		.loc 1 46 2 is_stmt 1 view .LVU42
 208 006e DA68     		ldr	r2, [r3, #12]	@ _3, MEM[(struct GPIO_TypeDef *)1073809408B].ODR
 209 0070 42F08002 		orr	r2, r2, #128	@ _4, _3,
 210 0074 DA60     		str	r2, [r3, #12]	@ _4, MEM[(struct GPIO_TypeDef *)1073809408B].ODR
  47:../5-PWM_LCD_SERIAL/main.c **** 	set_bit(IO,EN);
 211              		.loc 1 47 2 view .LVU43
 212 0076 DA68     		ldr	r2, [r3, #12]	@ _5, MEM[(struct GPIO_TypeDef *)1073809408B].ODR
 213 0078 42F08002 		orr	r2, r2, #128	@ _6, _5,
 214 007c DA60     		str	r2, [r3, #12]	@ _6, MEM[(struct GPIO_TypeDef *)1073809408B].ODR
  48:../5-PWM_LCD_SERIAL/main.c **** 	set_bit(IO,D4);
 215              		.loc 1 48 2 view .LVU44
 216 007e DA68     		ldr	r2, [r3, #12]	@ _7, MEM[(struct GPIO_TypeDef *)1073809408B].ODR
 217 0080 42F04002 		orr	r2, r2, #64	@ _8, _7,
 218 0084 DA60     		str	r2, [r3, #12]	@ _8, MEM[(struct GPIO_TypeDef *)1073809408B].ODR
  49:../5-PWM_LCD_SERIAL/main.c **** 	set_bit(IO,D5);
 219              		.loc 1 49 2 view .LVU45
 220 0086 DA68     		ldr	r2, [r3, #12]	@ _9, MEM[(struct GPIO_TypeDef *)1073809408B].ODR
 221 0088 42F02002 		orr	r2, r2, #32	@ _10, _9,
 222 008c DA60     		str	r2, [r3, #12]	@ _10, MEM[(struct GPIO_TypeDef *)1073809408B].ODR
  50:../5-PWM_LCD_SERIAL/main.c **** 	set_bit(IO,D6);
 223              		.loc 1 50 2 view .LVU46
 224 008e DA68     		ldr	r2, [r3, #12]	@ _11, MEM[(struct GPIO_TypeDef *)1073809408B].ODR
 225 0090 42F01002 		orr	r2, r2, #16	@ _12, _11,
 226 0094 DA60     		str	r2, [r3, #12]	@ _12, MEM[(struct GPIO_TypeDef *)1073809408B].ODR
  51:../5-PWM_LCD_SERIAL/main.c **** 	set_bit(IO,D7);
 227              		.loc 1 51 2 view .LVU47
 228 0096 DA68     		ldr	r2, [r3, #12]	@ _13, MEM[(struct GPIO_TypeDef *)1073809408B].ODR
 229 0098 42F00802 		orr	r2, r2, #8	@ _14, _13,
 230 009c DA60     		str	r2, [r3, #12]	@ _14, MEM[(struct GPIO_TypeDef *)1073809408B].ODR
  52:../5-PWM_LCD_SERIAL/main.c **** 
ARM GAS  /tmp/cceGGp0Q.s 			page 8


 231              		.loc 1 52 2 view .LVU48
 232 009e DA68     		ldr	r2, [r3, #12]	@ _15, MEM[(struct GPIO_TypeDef *)1073809408B].ODR
 233 00a0 42F00402 		orr	r2, r2, #4	@ _16, _15,
 234 00a4 DA60     		str	r2, [r3, #12]	@ _16, MEM[(struct GPIO_TypeDef *)1073809408B].ODR
  54:../5-PWM_LCD_SERIAL/main.c ****   disp_cmd(0x0C);
 235              		.loc 1 54 3 view .LVU49
 236 00a6 FFF7FEFF 		bl	disp_init		@
 237              	.LVL8:
  55:../5-PWM_LCD_SERIAL/main.c **** 
 238              		.loc 1 55 3 view .LVU50
 239 00aa 0C20     		movs	r0, #12	@,
 240 00ac FFF7FEFF 		bl	disp_cmd		@
 241              	.LVL9:
  57:../5-PWM_LCD_SERIAL/main.c ****   u8 cont = 0;
 242              		.loc 1 57 3 view .LVU51
 243 00b0 0022     		movs	r2, #0	@,
 244 00b2 0E48     		ldr	r0, .L11+16	@,
 245 00b4 1146     		mov	r1, r2	@,
 246 00b6 FFF7FEFF 		bl	disp_text		@
 247              	.LVL10:
  58:../5-PWM_LCD_SERIAL/main.c **** 	while(1){
 248              		.loc 1 58 3 view .LVU52
 249              	.L10:
  59:../5-PWM_LCD_SERIAL/main.c **** 
 250              		.loc 1 59 2 view .LVU53
  61:../5-PWM_LCD_SERIAL/main.c **** 		cont &= 0x00ff;
 251              		.loc 1 61 3 view .LVU54
 252              	@ ../5-PWM_LCD_SERIAL/main.c:61: 		cont ++;
  61:../5-PWM_LCD_SERIAL/main.c **** 		cont &= 0x00ff;
 253              		.loc 1 61 8 is_stmt 0 view .LVU55
 254 00ba 0134     		adds	r4, r4, #1	@ tmp152, cont,
 255              	.LVL11:
 256              	@ ../5-PWM_LCD_SERIAL/main.c:63: 		disp_text("CONTADOR: ", 1, 0);
  63:../5-PWM_LCD_SERIAL/main.c **** 		disp_number( cont, 1, 11);
 257              		.loc 1 63 3 view .LVU56
 258 00bc 2846     		mov	r0, r5	@, tmp156
 259 00be 0022     		movs	r2, #0	@,
 260 00c0 0121     		movs	r1, #1	@,
 261              	@ ../5-PWM_LCD_SERIAL/main.c:61: 		cont ++;
  61:../5-PWM_LCD_SERIAL/main.c **** 		cont &= 0x00ff;
 262              		.loc 1 61 8 view .LVU57
 263 00c2 E4B2     		uxtb	r4, r4	@ cont, tmp152
 264              	.LVL12:
  62:../5-PWM_LCD_SERIAL/main.c **** 		disp_text("CONTADOR: ", 1, 0);
 265              		.loc 1 62 3 is_stmt 1 view .LVU58
  63:../5-PWM_LCD_SERIAL/main.c **** 		disp_number( cont, 1, 11);
 266              		.loc 1 63 3 view .LVU59
 267 00c4 FFF7FEFF 		bl	disp_text		@
 268              	.LVL13:
  64:../5-PWM_LCD_SERIAL/main.c **** 		__delay_ms(10);
 269              		.loc 1 64 3 view .LVU60
 270 00c8 2046     		mov	r0, r4	@, cont
 271 00ca 0B22     		movs	r2, #11	@,
 272 00cc 0121     		movs	r1, #1	@,
 273 00ce FFF7FEFF 		bl	disp_number		@
 274              	.LVL14:
  65:../5-PWM_LCD_SERIAL/main.c **** 		
ARM GAS  /tmp/cceGGp0Q.s 			page 9


 275              		.loc 1 65 3 discriminator 1 view .LVU61
 276 00d2 4FF47A70 		mov	r0, #1000	@,
 277 00d6 FFF7FEFF 		bl	vTaskDelay		@
 278              	.LVL15:
  59:../5-PWM_LCD_SERIAL/main.c **** 
 279              		.loc 1 59 7 view .LVU62
 280 00da EEE7     		b	.L10		@
 281              	.L12:
 282              		.align	2
 283              	.L11:
 284 00dc 00100240 		.word	1073876992
 285 00e0 00080140 		.word	1073809408
 286 00e4 00333333 		.word	858993408
 287 00e8 13000000 		.word	.LC1
 288 00ec 00000000 		.word	.LC0
 289              		.cfi_endproc
 290              	.LFE42:
 291              		.size	task1, .-task1
 292              		.align	1
 293              		.global	ADC1_configure
 294              		.syntax unified
 295              		.thumb
 296              		.thumb_func
 297              		.type	ADC1_configure, %function
 298              	ADC1_configure:
 299              	.LFB34:
 300              		.file 2 "../5-PWM_LCD_SERIAL/Me.h"
   1:../5-PWM_LCD_SERIAL/Me.h **** #define __IO volatile
   2:../5-PWM_LCD_SERIAL/Me.h **** 
   3:../5-PWM_LCD_SERIAL/Me.h **** void SystemInit (void);
   4:../5-PWM_LCD_SERIAL/Me.h **** void nvic_IntDisble(u8 IRQn);
   5:../5-PWM_LCD_SERIAL/Me.h **** void nvic_intEnable(u8 IRQn);
   6:../5-PWM_LCD_SERIAL/Me.h **** void set_system_clock_to_25Mhz (void);
   7:../5-PWM_LCD_SERIAL/Me.h **** void set_system_clock_to_72Mhz(void);
   8:../5-PWM_LCD_SERIAL/Me.h **** void Delay ( __IO u32 T );
   9:../5-PWM_LCD_SERIAL/Me.h **** void enable_TIM3_delay (void);
  10:../5-PWM_LCD_SERIAL/Me.h **** void ADC1_configure();
  11:../5-PWM_LCD_SERIAL/Me.h **** 
  12:../5-PWM_LCD_SERIAL/Me.h **** #define DelayUs(X) Delay(X)
  13:../5-PWM_LCD_SERIAL/Me.h **** 
  14:../5-PWM_LCD_SERIAL/Me.h **** void ADC1_configure(){
 301              		.loc 2 14 22 view -0
 302              		.cfi_startproc
 303              		@ args = 0, pretend = 0, frame = 0
 304              		@ frame_needed = 0, uses_anonymous_args = 0
 305              		@ link register save eliminated.
  15:../5-PWM_LCD_SERIAL/Me.h **** 	RCC->APB2ENR |= 1UL<<2 ; // Hab. GPIOA
 306              		.loc 2 15 2 view .LVU64
 307              	@ ../5-PWM_LCD_SERIAL/Me.h:15: 	RCC->APB2ENR |= 1UL<<2 ; // Hab. GPIOA
 308              		.loc 2 15 5 is_stmt 0 view .LVU65
 309 00f0 1F4B     		ldr	r3, .L18	@ tmp142,
 310              	@ ../5-PWM_LCD_SERIAL/Me.h:16: 	GPIOA->CRL &= ~(0x0F << 4); // Define A1 Input Analogic
  16:../5-PWM_LCD_SERIAL/Me.h **** 	GPIOA->CRL &= ~(0x0F << 4); // Define A1 Input Analogic
 311              		.loc 2 16 7 view .LVU66
 312 00f2 2049     		ldr	r1, .L18+4	@ tmp144,
 313              	@ ../5-PWM_LCD_SERIAL/Me.h:15: 	RCC->APB2ENR |= 1UL<<2 ; // Hab. GPIOA
  15:../5-PWM_LCD_SERIAL/Me.h **** 	RCC->APB2ENR |= 1UL<<2 ; // Hab. GPIOA
ARM GAS  /tmp/cceGGp0Q.s 			page 10


 314              		.loc 2 15 5 view .LVU67
 315 00f4 9A69     		ldr	r2, [r3, #24]	@ _1, MEM[(struct RCC_TypeDef *)1073876992B].APB2ENR
 316              	@ ../5-PWM_LCD_SERIAL/Me.h:15: 	RCC->APB2ENR |= 1UL<<2 ; // Hab. GPIOA
  15:../5-PWM_LCD_SERIAL/Me.h **** 	RCC->APB2ENR |= 1UL<<2 ; // Hab. GPIOA
 317              		.loc 2 15 15 view .LVU68
 318 00f6 42F00402 		orr	r2, r2, #4	@ _2, _1,
 319 00fa 9A61     		str	r2, [r3, #24]	@ _2, MEM[(struct RCC_TypeDef *)1073876992B].APB2ENR
 320              		.loc 2 16 2 is_stmt 1 view .LVU69
 321              	@ ../5-PWM_LCD_SERIAL/Me.h:16: 	GPIOA->CRL &= ~(0x0F << 4); // Define A1 Input Analogic
 322              		.loc 2 16 7 is_stmt 0 view .LVU70
 323 00fc 0A68     		ldr	r2, [r1]	@ _3, MEM[(struct GPIO_TypeDef *)1073809408B].CRL
 324              	@ ../5-PWM_LCD_SERIAL/Me.h:16: 	GPIOA->CRL &= ~(0x0F << 4); // Define A1 Input Analogic
 325              		.loc 2 16 13 view .LVU71
 326 00fe 22F0F002 		bic	r2, r2, #240	@ _4, _3,
 327 0102 0A60     		str	r2, [r1]	@ _4, MEM[(struct GPIO_TypeDef *)1073809408B].CRL
  17:../5-PWM_LCD_SERIAL/Me.h **** 	
  18:../5-PWM_LCD_SERIAL/Me.h **** 	RCC->APB2ENR |= (1<<9); // Bit 9 ADC1EN: ADC 1 
 328              		.loc 2 18 2 is_stmt 1 view .LVU72
 329              	@ ../5-PWM_LCD_SERIAL/Me.h:18: 	RCC->APB2ENR |= (1<<9); // Bit 9 ADC1EN: ADC 1 
 330              		.loc 2 18 5 is_stmt 0 view .LVU73
 331 0104 9A69     		ldr	r2, [r3, #24]	@ _5, MEM[(struct RCC_TypeDef *)1073876992B].APB2ENR
 332              	@ ../5-PWM_LCD_SERIAL/Me.h:18: 	RCC->APB2ENR |= (1<<9); // Bit 9 ADC1EN: ADC 1 
 333              		.loc 2 18 15 view .LVU74
 334 0106 42F40072 		orr	r2, r2, #512	@ _6, _5,
 335 010a 9A61     		str	r2, [r3, #24]	@ _6, MEM[(struct RCC_TypeDef *)1073876992B].APB2ENR
  19:../5-PWM_LCD_SERIAL/Me.h **** 									// interface clock enable
  20:../5-PWM_LCD_SERIAL/Me.h **** 
  21:../5-PWM_LCD_SERIAL/Me.h **** 	RCC->CFGR	|= (0b10 << 14); // Bits 15:14 ADCPRE:
 336              		.loc 2 21 2 is_stmt 1 view .LVU75
 337              	@ ../5-PWM_LCD_SERIAL/Me.h:21: 	RCC->CFGR	|= (0b10 << 14); // Bits 15:14 ADCPRE:
 338              		.loc 2 21 5 is_stmt 0 view .LVU76
 339 010c 5A68     		ldr	r2, [r3, #4]	@ _7, MEM[(struct RCC_TypeDef *)1073876992B].CFGR
 340              	@ ../5-PWM_LCD_SERIAL/Me.h:21: 	RCC->CFGR	|= (0b10 << 14); // Bits 15:14 ADCPRE:
 341              		.loc 2 21 12 view .LVU77
 342 010e 42F40042 		orr	r2, r2, #32768	@ _8, _7,
 343 0112 5A60     		str	r2, [r3, #4]	@ _8, MEM[(struct RCC_TypeDef *)1073876992B].CFGR
  22:../5-PWM_LCD_SERIAL/Me.h **** 										  // ADC prescaler 10:
  23:../5-PWM_LCD_SERIAL/Me.h **** 										  //    PCLK2 divided by 6
  24:../5-PWM_LCD_SERIAL/Me.h **** 	// Enable End of Conversion (EOC) interrupt
  25:../5-PWM_LCD_SERIAL/Me.h **** 	ADC1->CR1 |= (1 << 5);
 344              		.loc 2 25 2 is_stmt 1 view .LVU78
 345              	@ ../5-PWM_LCD_SERIAL/Me.h:25: 	ADC1->CR1 |= (1 << 5);
 346              		.loc 2 25 6 is_stmt 0 view .LVU79
 347 0114 A3F56C43 		sub	r3, r3, #60416	@ tmp150, tmp150,
 348 0118 5A68     		ldr	r2, [r3, #4]	@ _9, MEM[(struct ADC_TypeDef *)1073816576B].CR1
 349              	@ ../5-PWM_LCD_SERIAL/Me.h:25: 	ADC1->CR1 |= (1 << 5);
 350              		.loc 2 25 12 view .LVU80
 351 011a 42F02002 		orr	r2, r2, #32	@ _10, _9,
 352 011e 5A60     		str	r2, [r3, #4]	@ _10, MEM[(struct ADC_TypeDef *)1073816576B].CR1
  26:../5-PWM_LCD_SERIAL/Me.h **** 
  27:../5-PWM_LCD_SERIAL/Me.h **** 	// One conversion
  28:../5-PWM_LCD_SERIAL/Me.h **** 	ADC1->SQR1 = 0x00000000;
 353              		.loc 2 28 2 is_stmt 1 view .LVU81
 354              	@ ../5-PWM_LCD_SERIAL/Me.h:28: 	ADC1->SQR1 = 0x00000000;
 355              		.loc 2 28 13 is_stmt 0 view .LVU82
 356 0120 0022     		movs	r2, #0	@ tmp153,
 357 0122 DA62     		str	r2, [r3, #44]	@ tmp153, MEM[(struct ADC_TypeDef *)1073816576B].SQR1
ARM GAS  /tmp/cceGGp0Q.s 			page 11


  29:../5-PWM_LCD_SERIAL/Me.h **** 
  30:../5-PWM_LCD_SERIAL/Me.h **** 	// Choose the analog channel to read
  31:../5-PWM_LCD_SERIAL/Me.h **** 	// Since we want channel 10 to be the first
  32:../5-PWM_LCD_SERIAL/Me.h **** 	//   conversion we write 10 to SQ1 bits (3:0)
  33:../5-PWM_LCD_SERIAL/Me.h **** 	//   which is in SQR3 register. For multiple conversions
  34:../5-PWM_LCD_SERIAL/Me.h **** 	//   keep writing the channel numbers to SQx bits.
  35:../5-PWM_LCD_SERIAL/Me.h **** 	 ADC1->SQR3 = (10 << 0);
 358              		.loc 2 35 3 is_stmt 1 view .LVU83
 359              	@ ../5-PWM_LCD_SERIAL/Me.h:35: 	 ADC1->SQR3 = (10 << 0);
 360              		.loc 2 35 14 is_stmt 0 view .LVU84
 361 0124 0A22     		movs	r2, #10	@ tmp155,
 362 0126 5A63     		str	r2, [r3, #52]	@ tmp155, MEM[(struct ADC_TypeDef *)1073816576B].SQR3
  36:../5-PWM_LCD_SERIAL/Me.h **** 
  37:../5-PWM_LCD_SERIAL/Me.h **** 	// Set up software trigger to start conversion
  38:../5-PWM_LCD_SERIAL/Me.h **** 	ADC1->CR2 |= (7 << 17);  // Select SWSTART as trigger
 363              		.loc 2 38 2 is_stmt 1 view .LVU85
 364              	@ ../5-PWM_LCD_SERIAL/Me.h:38: 	ADC1->CR2 |= (7 << 17);  // Select SWSTART as trigger
 365              		.loc 2 38 6 is_stmt 0 view .LVU86
 366 0128 9A68     		ldr	r2, [r3, #8]	@ _11, MEM[(struct ADC_TypeDef *)1073816576B].CR2
 367              	@ ../5-PWM_LCD_SERIAL/Me.h:38: 	ADC1->CR2 |= (7 << 17);  // Select SWSTART as trigger
 368              		.loc 2 38 12 view .LVU87
 369 012a 42F46022 		orr	r2, r2, #917504	@ _12, _11,
 370 012e 9A60     		str	r2, [r3, #8]	@ _12, MEM[(struct ADC_TypeDef *)1073816576B].CR2
  39:../5-PWM_LCD_SERIAL/Me.h **** 	ADC1->CR2 |= (1 << 20);  // Enable external trigger
 371              		.loc 2 39 2 is_stmt 1 view .LVU88
 372              	@ ../5-PWM_LCD_SERIAL/Me.h:39: 	ADC1->CR2 |= (1 << 20);  // Enable external trigger
 373              		.loc 2 39 6 is_stmt 0 view .LVU89
 374 0130 9A68     		ldr	r2, [r3, #8]	@ _13, MEM[(struct ADC_TypeDef *)1073816576B].CR2
 375              	@ ../5-PWM_LCD_SERIAL/Me.h:39: 	ADC1->CR2 |= (1 << 20);  // Enable external trigger
 376              		.loc 2 39 12 view .LVU90
 377 0132 42F48012 		orr	r2, r2, #1048576	@ _14, _13,
 378 0136 9A60     		str	r2, [r3, #8]	@ _14, MEM[(struct ADC_TypeDef *)1073816576B].CR2
  40:../5-PWM_LCD_SERIAL/Me.h **** 
  41:../5-PWM_LCD_SERIAL/Me.h **** 	// Enable continuous conversion
  42:../5-PWM_LCD_SERIAL/Me.h **** 	ADC1->CR2 |= (1 << 1);
 379              		.loc 2 42 2 is_stmt 1 view .LVU91
 380              	@ ../5-PWM_LCD_SERIAL/Me.h:42: 	ADC1->CR2 |= (1 << 1);
 381              		.loc 2 42 6 is_stmt 0 view .LVU92
 382 0138 9A68     		ldr	r2, [r3, #8]	@ _15, MEM[(struct ADC_TypeDef *)1073816576B].CR2
 383              	@ ../5-PWM_LCD_SERIAL/Me.h:42: 	ADC1->CR2 |= (1 << 1);
 384              		.loc 2 42 12 view .LVU93
 385 013a 42F00202 		orr	r2, r2, #2	@ _16, _15,
 386 013e 9A60     		str	r2, [r3, #8]	@ _16, MEM[(struct ADC_TypeDef *)1073816576B].CR2
  43:../5-PWM_LCD_SERIAL/Me.h **** 
  44:../5-PWM_LCD_SERIAL/Me.h **** 	// enable_interrupt(ADC1_2_IRQn);
  45:../5-PWM_LCD_SERIAL/Me.h **** 
  46:../5-PWM_LCD_SERIAL/Me.h **** 	// Enable A/D conversion
  47:../5-PWM_LCD_SERIAL/Me.h **** 	ADC1->CR2 |= (1 << 0);
 387              		.loc 2 47 2 is_stmt 1 view .LVU94
 388              	@ ../5-PWM_LCD_SERIAL/Me.h:47: 	ADC1->CR2 |= (1 << 0);
 389              		.loc 2 47 6 is_stmt 0 view .LVU95
 390 0140 9A68     		ldr	r2, [r3, #8]	@ _17, MEM[(struct ADC_TypeDef *)1073816576B].CR2
 391              	@ ../5-PWM_LCD_SERIAL/Me.h:47: 	ADC1->CR2 |= (1 << 0);
 392              		.loc 2 47 12 view .LVU96
 393 0142 42F00102 		orr	r2, r2, #1	@ _18, _17,
 394 0146 9A60     		str	r2, [r3, #8]	@ _18, MEM[(struct ADC_TypeDef *)1073816576B].CR2
  48:../5-PWM_LCD_SERIAL/Me.h **** 
ARM GAS  /tmp/cceGGp0Q.s 			page 12


  49:../5-PWM_LCD_SERIAL/Me.h **** 	// Calibration reset and start
  50:../5-PWM_LCD_SERIAL/Me.h **** 	//    Optional for better accuracy.
  51:../5-PWM_LCD_SERIAL/Me.h **** 	ADC1->CR2 |= (1 << 3);
 395              		.loc 2 51 2 is_stmt 1 view .LVU97
 396              	@ ../5-PWM_LCD_SERIAL/Me.h:51: 	ADC1->CR2 |= (1 << 3);
 397              		.loc 2 51 6 is_stmt 0 view .LVU98
 398 0148 9A68     		ldr	r2, [r3, #8]	@ _19, MEM[(struct ADC_TypeDef *)1073816576B].CR2
 399              	@ ../5-PWM_LCD_SERIAL/Me.h:51: 	ADC1->CR2 |= (1 << 3);
 400              		.loc 2 51 12 view .LVU99
 401 014a 42F00802 		orr	r2, r2, #8	@ _20, _19,
 402 014e 9A60     		str	r2, [r3, #8]	@ _20, MEM[(struct ADC_TypeDef *)1073816576B].CR2
  52:../5-PWM_LCD_SERIAL/Me.h **** 	while((ADC1->CR2 & (1 << 3)));
 403              		.loc 2 52 2 is_stmt 1 view .LVU100
 404              	.L14:
 405              		.loc 2 52 8 discriminator 1 view .LVU101
 406              	@ ../5-PWM_LCD_SERIAL/Me.h:52: 	while((ADC1->CR2 & (1 << 3)));
 407              		.loc 2 52 13 is_stmt 0 discriminator 1 view .LVU102
 408 0150 9A68     		ldr	r2, [r3, #8]	@ _21, MEM[(struct ADC_TypeDef *)1073816576B].CR2
 409              	@ ../5-PWM_LCD_SERIAL/Me.h:52: 	while((ADC1->CR2 & (1 << 3)));
 410              		.loc 2 52 8 discriminator 1 view .LVU103
 411 0152 1107     		lsls	r1, r2, #28	@, _21,
 412 0154 FCD4     		bmi	.L14		@,
  53:../5-PWM_LCD_SERIAL/Me.h **** 	ADC1->CR2 |= (1 << 2);
 413              		.loc 2 53 2 is_stmt 1 view .LVU104
 414              	@ ../5-PWM_LCD_SERIAL/Me.h:53: 	ADC1->CR2 |= (1 << 2);
 415              		.loc 2 53 6 is_stmt 0 view .LVU105
 416 0156 9A68     		ldr	r2, [r3, #8]	@ _23, MEM[(struct ADC_TypeDef *)1073816576B].CR2
 417              	@ ../5-PWM_LCD_SERIAL/Me.h:53: 	ADC1->CR2 |= (1 << 2);
 418              		.loc 2 53 12 view .LVU106
 419 0158 42F00402 		orr	r2, r2, #4	@ _24, _23,
 420 015c 9A60     		str	r2, [r3, #8]	@ _24, MEM[(struct ADC_TypeDef *)1073816576B].CR2
  54:../5-PWM_LCD_SERIAL/Me.h **** 	while((ADC1->CR2 & (1 << 2)));
 421              		.loc 2 54 2 is_stmt 1 view .LVU107
 422              	@ ../5-PWM_LCD_SERIAL/Me.h:54: 	while((ADC1->CR2 & (1 << 2)));
 423              		.loc 2 54 13 is_stmt 0 discriminator 1 view .LVU108
 424 015e 064B     		ldr	r3, .L18+8	@ tmp170,
 425              	.L15:
 426              		.loc 2 54 8 is_stmt 1 discriminator 1 view .LVU109
 427              	@ ../5-PWM_LCD_SERIAL/Me.h:54: 	while((ADC1->CR2 & (1 << 2)));
 428              		.loc 2 54 13 is_stmt 0 discriminator 1 view .LVU110
 429 0160 9A68     		ldr	r2, [r3, #8]	@ _25, MEM[(struct ADC_TypeDef *)1073816576B].CR2
 430              	@ ../5-PWM_LCD_SERIAL/Me.h:54: 	while((ADC1->CR2 & (1 << 2)));
 431              		.loc 2 54 8 discriminator 1 view .LVU111
 432 0162 5207     		lsls	r2, r2, #29	@, _25,
 433 0164 FCD4     		bmi	.L15		@,
  55:../5-PWM_LCD_SERIAL/Me.h **** 
  56:../5-PWM_LCD_SERIAL/Me.h **** 	// Start conversion with software trigger
  57:../5-PWM_LCD_SERIAL/Me.h **** 	ADC1->CR2 |= (1<<22);
 434              		.loc 2 57 2 is_stmt 1 view .LVU112
 435              	@ ../5-PWM_LCD_SERIAL/Me.h:57: 	ADC1->CR2 |= (1<<22);
 436              		.loc 2 57 6 is_stmt 0 view .LVU113
 437 0166 9A68     		ldr	r2, [r3, #8]	@ _27, MEM[(struct ADC_TypeDef *)1073816576B].CR2
 438              	@ ../5-PWM_LCD_SERIAL/Me.h:57: 	ADC1->CR2 |= (1<<22);
 439              		.loc 2 57 12 view .LVU114
 440 0168 42F48002 		orr	r2, r2, #4194304	@ _28, _27,
 441 016c 9A60     		str	r2, [r3, #8]	@ _28, MEM[(struct ADC_TypeDef *)1073816576B].CR2
 442              	@ ../5-PWM_LCD_SERIAL/Me.h:60: }
ARM GAS  /tmp/cceGGp0Q.s 			page 13


  58:../5-PWM_LCD_SERIAL/Me.h **** 	//
  59:../5-PWM_LCD_SERIAL/Me.h **** 	// Leitura  ADC1->DR  -> Data Register
  60:../5-PWM_LCD_SERIAL/Me.h **** }
 443              		.loc 2 60 1 view .LVU115
 444 016e 7047     		bx	lr	@
 445              	.L19:
 446              		.align	2
 447              	.L18:
 448 0170 00100240 		.word	1073876992
 449 0174 00080140 		.word	1073809408
 450 0178 00240140 		.word	1073816576
 451              		.cfi_endproc
 452              	.LFE34:
 453              		.size	ADC1_configure, .-ADC1_configure
 454              		.align	1
 455              		.global	set_system_clock_to_72Mhz
 456              		.syntax unified
 457              		.thumb
 458              		.thumb_func
 459              		.type	set_system_clock_to_72Mhz, %function
 460              	set_system_clock_to_72Mhz:
 461              	.LFB35:
  61:../5-PWM_LCD_SERIAL/Me.h **** 
  62:../5-PWM_LCD_SERIAL/Me.h **** void set_system_clock_to_72Mhz(void)
  63:../5-PWM_LCD_SERIAL/Me.h **** {
 462              		.loc 2 63 1 is_stmt 1 view -0
 463              		.cfi_startproc
 464              		@ args = 0, pretend = 0, frame = 0
 465              		@ frame_needed = 0, uses_anonymous_args = 0
 466              		@ link register save eliminated.
  64:../5-PWM_LCD_SERIAL/Me.h ****    // Necessary wait states for Flash for high speeds
  65:../5-PWM_LCD_SERIAL/Me.h ****    FLASH->ACR = 0x12;
 467              		.loc 2 65 4 view .LVU117
 468              	@ ../5-PWM_LCD_SERIAL/Me.h:65:    FLASH->ACR = 0x12;
 469              		.loc 2 65 15 is_stmt 0 view .LVU118
 470 017c 1222     		movs	r2, #18	@ tmp141,
 471 017e 1B4B     		ldr	r3, .L27	@ tmp140,
 472 0180 1A60     		str	r2, [r3]	@ tmp141, MEM[(struct FLASH_TypeDef *)1073881088B].ACR
  66:../5-PWM_LCD_SERIAL/Me.h ****    // Enable HSE
  67:../5-PWM_LCD_SERIAL/Me.h ****    RCC->CR |= (1 << 16);
 473              		.loc 2 67 4 is_stmt 1 view .LVU119
 474              	@ ../5-PWM_LCD_SERIAL/Me.h:67:    RCC->CR |= (1 << 16);
 475              		.loc 2 67 7 is_stmt 0 view .LVU120
 476 0182 A3F58053 		sub	r3, r3, #4096	@ tmp142, tmp142,
 477 0186 1A68     		ldr	r2, [r3]	@ _1, MEM[(struct RCC_TypeDef *)1073876992B].CR
 478              	@ ../5-PWM_LCD_SERIAL/Me.h:67:    RCC->CR |= (1 << 16);
 479              		.loc 2 67 12 view .LVU121
 480 0188 42F48032 		orr	r2, r2, #65536	@ _2, _1,
 481 018c 1A60     		str	r2, [r3]	@ _2, MEM[(struct RCC_TypeDef *)1073876992B].CR
  68:../5-PWM_LCD_SERIAL/Me.h ****    // Wait untill HSE settles down
  69:../5-PWM_LCD_SERIAL/Me.h ****    while (!(RCC->CR & (1 << 17)));
 482              		.loc 2 69 4 is_stmt 1 view .LVU122
 483              	.L21:
 484              		.loc 2 69 11 discriminator 1 view .LVU123
 485              	@ ../5-PWM_LCD_SERIAL/Me.h:69:    while (!(RCC->CR & (1 << 17)));
 486              		.loc 2 69 16 is_stmt 0 discriminator 1 view .LVU124
 487 018e 1A68     		ldr	r2, [r3]	@ _3, MEM[(struct RCC_TypeDef *)1073876992B].CR
ARM GAS  /tmp/cceGGp0Q.s 			page 14


 488              	@ ../5-PWM_LCD_SERIAL/Me.h:69:    while (!(RCC->CR & (1 << 17)));
 489              		.loc 2 69 11 discriminator 1 view .LVU125
 490 0190 9103     		lsls	r1, r2, #14	@, _3,
 491 0192 FCD5     		bpl	.L21		@,
  70:../5-PWM_LCD_SERIAL/Me.h ****    // Set PREDIV2 division factor to 5
  71:../5-PWM_LCD_SERIAL/Me.h ****    RCC->CFGR2 |= (0b0100 << 4);
 492              		.loc 2 71 4 is_stmt 1 view .LVU126
 493              	@ ../5-PWM_LCD_SERIAL/Me.h:71:    RCC->CFGR2 |= (0b0100 << 4);
 494              		.loc 2 71 7 is_stmt 0 view .LVU127
 495 0194 DA6A     		ldr	r2, [r3, #44]	@ _5, MEM[(struct RCC_TypeDef *)1073876992B].CFGR2
 496              	@ ../5-PWM_LCD_SERIAL/Me.h:71:    RCC->CFGR2 |= (0b0100 << 4);
 497              		.loc 2 71 15 view .LVU128
 498 0196 42F04002 		orr	r2, r2, #64	@ _6, _5,
 499 019a DA62     		str	r2, [r3, #44]	@ _6, MEM[(struct RCC_TypeDef *)1073876992B].CFGR2
  72:../5-PWM_LCD_SERIAL/Me.h ****    // Set PLL2 multiplication factor to 8
  73:../5-PWM_LCD_SERIAL/Me.h ****    RCC->CFGR2 |= (0b0110 << 8);
 500              		.loc 2 73 4 is_stmt 1 view .LVU129
 501              	@ ../5-PWM_LCD_SERIAL/Me.h:73:    RCC->CFGR2 |= (0b0110 << 8);
 502              		.loc 2 73 7 is_stmt 0 view .LVU130
 503 019c DA6A     		ldr	r2, [r3, #44]	@ _7, MEM[(struct RCC_TypeDef *)1073876992B].CFGR2
 504              	@ ../5-PWM_LCD_SERIAL/Me.h:73:    RCC->CFGR2 |= (0b0110 << 8);
 505              		.loc 2 73 15 view .LVU131
 506 019e 42F4C062 		orr	r2, r2, #1536	@ _8, _7,
 507 01a2 DA62     		str	r2, [r3, #44]	@ _8, MEM[(struct RCC_TypeDef *)1073876992B].CFGR2
  74:../5-PWM_LCD_SERIAL/Me.h ****    // Enable PLL2
  75:../5-PWM_LCD_SERIAL/Me.h ****    RCC->CR |= (1 << 26);
 508              		.loc 2 75 4 is_stmt 1 view .LVU132
 509              	@ ../5-PWM_LCD_SERIAL/Me.h:75:    RCC->CR |= (1 << 26);
 510              		.loc 2 75 7 is_stmt 0 view .LVU133
 511 01a4 1A68     		ldr	r2, [r3]	@ _9, MEM[(struct RCC_TypeDef *)1073876992B].CR
 512              	@ ../5-PWM_LCD_SERIAL/Me.h:75:    RCC->CR |= (1 << 26);
 513              		.loc 2 75 12 view .LVU134
 514 01a6 42F08062 		orr	r2, r2, #67108864	@ _10, _9,
 515 01aa 1A60     		str	r2, [r3]	@ _10, MEM[(struct RCC_TypeDef *)1073876992B].CR
  76:../5-PWM_LCD_SERIAL/Me.h ****    // Wait untill PLL2 settles down
  77:../5-PWM_LCD_SERIAL/Me.h **** 	// while (!(RCC->CR & (1 << 27)));
  78:../5-PWM_LCD_SERIAL/Me.h ****    // Set PLL2 as PREDIV1 clock source
  79:../5-PWM_LCD_SERIAL/Me.h ****    RCC->CFGR2 |= (1 << 16);
 516              		.loc 2 79 4 is_stmt 1 view .LVU135
 517              	@ ../5-PWM_LCD_SERIAL/Me.h:79:    RCC->CFGR2 |= (1 << 16);
 518              		.loc 2 79 7 is_stmt 0 view .LVU136
 519 01ac DA6A     		ldr	r2, [r3, #44]	@ _11, MEM[(struct RCC_TypeDef *)1073876992B].CFGR2
 520              	@ ../5-PWM_LCD_SERIAL/Me.h:79:    RCC->CFGR2 |= (1 << 16);
 521              		.loc 2 79 15 view .LVU137
 522 01ae 42F48032 		orr	r2, r2, #65536	@ _12, _11,
 523 01b2 DA62     		str	r2, [r3, #44]	@ _12, MEM[(struct RCC_TypeDef *)1073876992B].CFGR2
  80:../5-PWM_LCD_SERIAL/Me.h ****    // Set PREDIV1 division factor to 5
  81:../5-PWM_LCD_SERIAL/Me.h ****    RCC->CFGR2 |= (0b0100 << 0);
 524              		.loc 2 81 4 is_stmt 1 view .LVU138
 525              	@ ../5-PWM_LCD_SERIAL/Me.h:81:    RCC->CFGR2 |= (0b0100 << 0);
 526              		.loc 2 81 7 is_stmt 0 view .LVU139
 527 01b4 DA6A     		ldr	r2, [r3, #44]	@ _13, MEM[(struct RCC_TypeDef *)1073876992B].CFGR2
 528              	@ ../5-PWM_LCD_SERIAL/Me.h:81:    RCC->CFGR2 |= (0b0100 << 0);
 529              		.loc 2 81 15 view .LVU140
 530 01b6 42F00402 		orr	r2, r2, #4	@ _14, _13,
 531 01ba DA62     		str	r2, [r3, #44]	@ _14, MEM[(struct RCC_TypeDef *)1073876992B].CFGR2
  82:../5-PWM_LCD_SERIAL/Me.h ****    // Select Prediv1 as PLL source
ARM GAS  /tmp/cceGGp0Q.s 			page 15


  83:../5-PWM_LCD_SERIAL/Me.h ****    RCC->CFGR |= (1 << 16);
 532              		.loc 2 83 4 is_stmt 1 view .LVU141
 533              	@ ../5-PWM_LCD_SERIAL/Me.h:83:    RCC->CFGR |= (1 << 16);
 534              		.loc 2 83 7 is_stmt 0 view .LVU142
 535 01bc 5A68     		ldr	r2, [r3, #4]	@ _15, MEM[(struct RCC_TypeDef *)1073876992B].CFGR
 536              	@ ../5-PWM_LCD_SERIAL/Me.h:83:    RCC->CFGR |= (1 << 16);
 537              		.loc 2 83 14 view .LVU143
 538 01be 42F48032 		orr	r2, r2, #65536	@ _16, _15,
 539 01c2 5A60     		str	r2, [r3, #4]	@ _16, MEM[(struct RCC_TypeDef *)1073876992B].CFGR
  84:../5-PWM_LCD_SERIAL/Me.h ****    // Set PLL1 multiplication factor to 9
  85:../5-PWM_LCD_SERIAL/Me.h ****    RCC->CFGR |= (0b0111 << 18);
 540              		.loc 2 85 4 is_stmt 1 view .LVU144
 541              	@ ../5-PWM_LCD_SERIAL/Me.h:85:    RCC->CFGR |= (0b0111 << 18);
 542              		.loc 2 85 7 is_stmt 0 view .LVU145
 543 01c4 5A68     		ldr	r2, [r3, #4]	@ _17, MEM[(struct RCC_TypeDef *)1073876992B].CFGR
 544              	@ ../5-PWM_LCD_SERIAL/Me.h:85:    RCC->CFGR |= (0b0111 << 18);
 545              		.loc 2 85 14 view .LVU146
 546 01c6 42F4E012 		orr	r2, r2, #1835008	@ _18, _17,
 547 01ca 5A60     		str	r2, [r3, #4]	@ _18, MEM[(struct RCC_TypeDef *)1073876992B].CFGR
  86:../5-PWM_LCD_SERIAL/Me.h ****    // Set APB1 to 36MHz
  87:../5-PWM_LCD_SERIAL/Me.h ****    RCC->CFGR |= 1 << 10;
 548              		.loc 2 87 4 is_stmt 1 view .LVU147
 549              	@ ../5-PWM_LCD_SERIAL/Me.h:87:    RCC->CFGR |= 1 << 10;
 550              		.loc 2 87 7 is_stmt 0 view .LVU148
 551 01cc 5A68     		ldr	r2, [r3, #4]	@ _19, MEM[(struct RCC_TypeDef *)1073876992B].CFGR
 552              	@ ../5-PWM_LCD_SERIAL/Me.h:87:    RCC->CFGR |= 1 << 10;
 553              		.loc 2 87 14 view .LVU149
 554 01ce 42F48062 		orr	r2, r2, #1024	@ _20, _19,
 555 01d2 5A60     		str	r2, [r3, #4]	@ _20, MEM[(struct RCC_TypeDef *)1073876992B].CFGR
  88:../5-PWM_LCD_SERIAL/Me.h ****    // Enable PLL
  89:../5-PWM_LCD_SERIAL/Me.h ****    RCC->CR |= (1 << 24);
 556              		.loc 2 89 4 is_stmt 1 view .LVU150
 557              	@ ../5-PWM_LCD_SERIAL/Me.h:89:    RCC->CR |= (1 << 24);
 558              		.loc 2 89 7 is_stmt 0 view .LVU151
 559 01d4 1A68     		ldr	r2, [r3]	@ _21, MEM[(struct RCC_TypeDef *)1073876992B].CR
 560              	@ ../5-PWM_LCD_SERIAL/Me.h:89:    RCC->CR |= (1 << 24);
 561              		.loc 2 89 12 view .LVU152
 562 01d6 42F08072 		orr	r2, r2, #16777216	@ _22, _21,
 563 01da 1A60     		str	r2, [r3]	@ _22, MEM[(struct RCC_TypeDef *)1073876992B].CR
  90:../5-PWM_LCD_SERIAL/Me.h ****    // Wait untill PLL settles down
  91:../5-PWM_LCD_SERIAL/Me.h ****    while (!(RCC->CR & (1 << 25)));
 564              		.loc 2 91 4 is_stmt 1 view .LVU153
 565              	.L22:
 566              		.loc 2 91 11 discriminator 1 view .LVU154
 567              	@ ../5-PWM_LCD_SERIAL/Me.h:91:    while (!(RCC->CR & (1 << 25)));
 568              		.loc 2 91 16 is_stmt 0 discriminator 1 view .LVU155
 569 01dc 1A68     		ldr	r2, [r3]	@ _23, MEM[(struct RCC_TypeDef *)1073876992B].CR
 570              	@ ../5-PWM_LCD_SERIAL/Me.h:91:    while (!(RCC->CR & (1 << 25)));
 571              		.loc 2 91 11 discriminator 1 view .LVU156
 572 01de 9201     		lsls	r2, r2, #6	@, _23,
 573 01e0 FCD5     		bpl	.L22		@,
  92:../5-PWM_LCD_SERIAL/Me.h ****    // Finally, choose PLL as the system clock
  93:../5-PWM_LCD_SERIAL/Me.h ****    RCC->CFGR |= (0b10 << 0);
 574              		.loc 2 93 4 is_stmt 1 view .LVU157
 575              	@ ../5-PWM_LCD_SERIAL/Me.h:93:    RCC->CFGR |= (0b10 << 0);
 576              		.loc 2 93 7 is_stmt 0 view .LVU158
 577 01e2 5A68     		ldr	r2, [r3, #4]	@ _25, MEM[(struct RCC_TypeDef *)1073876992B].CFGR
ARM GAS  /tmp/cceGGp0Q.s 			page 16


 578              	@ ../5-PWM_LCD_SERIAL/Me.h:93:    RCC->CFGR |= (0b10 << 0);
 579              		.loc 2 93 14 view .LVU159
 580 01e4 42F00202 		orr	r2, r2, #2	@ _26, _25,
 581 01e8 5A60     		str	r2, [r3, #4]	@ _26, MEM[(struct RCC_TypeDef *)1073876992B].CFGR
 582              	@ ../5-PWM_LCD_SERIAL/Me.h:94: } 
  94:../5-PWM_LCD_SERIAL/Me.h **** } 
 583              		.loc 2 94 1 view .LVU160
 584 01ea 7047     		bx	lr	@
 585              	.L28:
 586              		.align	2
 587              	.L27:
 588 01ec 00200240 		.word	1073881088
 589              		.cfi_endproc
 590              	.LFE35:
 591              		.size	set_system_clock_to_72Mhz, .-set_system_clock_to_72Mhz
 592              		.align	1
 593              		.global	Delay
 594              		.syntax unified
 595              		.thumb
 596              		.thumb_func
 597              		.type	Delay, %function
 598              	Delay:
 599              	.LVL16:
 600              	.LFB36:
  95:../5-PWM_LCD_SERIAL/Me.h **** 
  96:../5-PWM_LCD_SERIAL/Me.h **** void Delay ( __IO u32 T ) { // T=1 ;  868µs -> T=1 ~ 526µs
 601              		.loc 2 96 27 is_stmt 1 view -0
 602              		.cfi_startproc
 603              		@ args = 0, pretend = 0, frame = 8
 604              		@ frame_needed = 0, uses_anonymous_args = 0
 605              		@ link register save eliminated.
  97:../5-PWM_LCD_SERIAL/Me.h ****   for ( T ; T > 0 ; T-- ){
 606              		.loc 2 97 3 view .LVU162
 607              	@ ../5-PWM_LCD_SERIAL/Me.h:96: void Delay ( __IO u32 T ) { // T=1 ;  868µs -> T=1 ~ 526µs
  96:../5-PWM_LCD_SERIAL/Me.h ****   for ( T ; T > 0 ; T-- ){
 608              		.loc 2 96 27 is_stmt 0 view .LVU163
 609 01f0 82B0     		sub	sp, sp, #8	@,,
 610              	.LCFI3:
 611              		.cfi_def_cfa_offset 8
 612              	@ ../5-PWM_LCD_SERIAL/Me.h:96: void Delay ( __IO u32 T ) { // T=1 ;  868µs -> T=1 ~ 526µs
  96:../5-PWM_LCD_SERIAL/Me.h ****   for ( T ; T > 0 ; T-- ){
 613              		.loc 2 96 27 view .LVU164
 614 01f2 0190     		str	r0, [sp, #4]	@ T, T
 615              	@ ../5-PWM_LCD_SERIAL/Me.h:97:   for ( T ; T > 0 ; T-- ){
 616              		.loc 2 97 3 view .LVU165
 617 01f4 019B     		ldr	r3, [sp, #4]	@ vol.0_9, T
 618              	@ ../5-PWM_LCD_SERIAL/Me.h:98:    TIM3->EGR |= ( 1 << 0 );
  98:../5-PWM_LCD_SERIAL/Me.h ****    TIM3->EGR |= ( 1 << 0 );
 619              		.loc 2 98 8 view .LVU166
 620 01f6 094A     		ldr	r2, .L34	@ tmp133,
 621              	.L30:
  97:../5-PWM_LCD_SERIAL/Me.h ****   for ( T ; T > 0 ; T-- ){
 622              		.loc 2 97 15 is_stmt 1 discriminator 1 view .LVU167
 623 01f8 019B     		ldr	r3, [sp, #4]	@ T.2_6, T
 624 01fa 0BB9     		cbnz	r3, .L32	@ T.2_6,
 625              	@ ../5-PWM_LCD_SERIAL/Me.h:101: }
  99:../5-PWM_LCD_SERIAL/Me.h ****    while ( TIM3->CNT < 5 ) ; /* 5 * 10-- Configurar para IR */
ARM GAS  /tmp/cceGGp0Q.s 			page 17


 100:../5-PWM_LCD_SERIAL/Me.h ****   }
 101:../5-PWM_LCD_SERIAL/Me.h **** }
 626              		.loc 2 101 1 is_stmt 0 view .LVU168
 627 01fc 02B0     		add	sp, sp, #8	@,,
 628              	.LCFI4:
 629              		.cfi_remember_state
 630              		.cfi_def_cfa_offset 0
 631              		@ sp needed	@
 632 01fe 7047     		bx	lr	@
 633              	.L32:
 634              	.LCFI5:
 635              		.cfi_restore_state
  98:../5-PWM_LCD_SERIAL/Me.h ****    TIM3->EGR |= ( 1 << 0 );
 636              		.loc 2 98 4 is_stmt 1 view .LVU169
 637              	@ ../5-PWM_LCD_SERIAL/Me.h:98:    TIM3->EGR |= ( 1 << 0 );
  98:../5-PWM_LCD_SERIAL/Me.h ****    TIM3->EGR |= ( 1 << 0 );
 638              		.loc 2 98 8 is_stmt 0 view .LVU170
 639 0200 938A     		ldrh	r3, [r2, #20]	@, MEM[(struct TIM_TypeDef *)1073742848B].EGR
 640 0202 9BB2     		uxth	r3, r3	@ _1, MEM[(struct TIM_TypeDef *)1073742848B].EGR
 641              	@ ../5-PWM_LCD_SERIAL/Me.h:98:    TIM3->EGR |= ( 1 << 0 );
  98:../5-PWM_LCD_SERIAL/Me.h ****    TIM3->EGR |= ( 1 << 0 );
 642              		.loc 2 98 14 view .LVU171
 643 0204 43F00103 		orr	r3, r3, #1	@ _2, _1,
 644 0208 9382     		strh	r3, [r2, #20]	@ movhi	@ _2, MEM[(struct TIM_TypeDef *)1073742848B].EGR
  99:../5-PWM_LCD_SERIAL/Me.h ****    while ( TIM3->CNT < 5 ) ; /* 5 * 10-- Configurar para IR */
 645              		.loc 2 99 4 is_stmt 1 view .LVU172
 646              	.L31:
  99:../5-PWM_LCD_SERIAL/Me.h ****    while ( TIM3->CNT < 5 ) ; /* 5 * 10-- Configurar para IR */
 647              		.loc 2 99 22 discriminator 1 view .LVU173
 648              	@ ../5-PWM_LCD_SERIAL/Me.h:99:    while ( TIM3->CNT < 5 ) ; /* 5 * 10-- Configurar para IR */
  99:../5-PWM_LCD_SERIAL/Me.h ****    while ( TIM3->CNT < 5 ) ; /* 5 * 10-- Configurar para IR */
 649              		.loc 2 99 16 is_stmt 0 discriminator 1 view .LVU174
 650 020a 938C     		ldrh	r3, [r2, #36]	@, MEM[(struct TIM_TypeDef *)1073742848B].CNT
 651 020c 9BB2     		uxth	r3, r3	@ _3, MEM[(struct TIM_TypeDef *)1073742848B].CNT
 652              	@ ../5-PWM_LCD_SERIAL/Me.h:99:    while ( TIM3->CNT < 5 ) ; /* 5 * 10-- Configurar para IR */
  99:../5-PWM_LCD_SERIAL/Me.h ****    while ( TIM3->CNT < 5 ) ; /* 5 * 10-- Configurar para IR */
 653              		.loc 2 99 22 discriminator 1 view .LVU175
 654 020e 042B     		cmp	r3, #4	@ _3,
 655 0210 FBD9     		bls	.L31		@,
  97:../5-PWM_LCD_SERIAL/Me.h ****    TIM3->EGR |= ( 1 << 0 );
 656              		.loc 2 97 22 is_stmt 1 discriminator 2 view .LVU176
 657 0212 019B     		ldr	r3, [sp, #4]	@ T.1_4, T
 658 0214 013B     		subs	r3, r3, #1	@ _5, T.1_4,
 659 0216 0193     		str	r3, [sp, #4]	@ _5, T
 660 0218 EEE7     		b	.L30		@
 661              	.L35:
 662 021a 00BF     		.align	2
 663              	.L34:
 664 021c 00040040 		.word	1073742848
 665              		.cfi_endproc
 666              	.LFE36:
 667              		.size	Delay, .-Delay
 668              		.align	1
 669              		.global	enable_TIM3_delay
 670              		.syntax unified
 671              		.thumb
 672              		.thumb_func
ARM GAS  /tmp/cceGGp0Q.s 			page 18


 673              		.type	enable_TIM3_delay, %function
 674              	enable_TIM3_delay:
 675              	.LFB37:
 102:../5-PWM_LCD_SERIAL/Me.h **** 
 103:../5-PWM_LCD_SERIAL/Me.h **** void enable_TIM3_delay (void) {
 676              		.loc 2 103 31 view -0
 677              		.cfi_startproc
 678              		@ args = 0, pretend = 0, frame = 0
 679              		@ frame_needed = 0, uses_anonymous_args = 0
 680              		@ link register save eliminated.
 104:../5-PWM_LCD_SERIAL/Me.h ****    RCC->APB1ENR |= 1<<1 ;
 681              		.loc 2 104 4 view .LVU178
 682              	@ ../5-PWM_LCD_SERIAL/Me.h:104:    RCC->APB1ENR |= 1<<1 ;
 683              		.loc 2 104 7 is_stmt 0 view .LVU179
 684 0220 084A     		ldr	r2, .L37	@ tmp118,
 685 0222 D369     		ldr	r3, [r2, #28]	@ _1, MEM[(struct RCC_TypeDef *)1073876992B].APB1ENR
 686              	@ ../5-PWM_LCD_SERIAL/Me.h:104:    RCC->APB1ENR |= 1<<1 ;
 687              		.loc 2 104 17 view .LVU180
 688 0224 43F00203 		orr	r3, r3, #2	@ _2, _1,
 689 0228 D361     		str	r3, [r2, #28]	@ _2, MEM[(struct RCC_TypeDef *)1073876992B].APB1ENR
 105:../5-PWM_LCD_SERIAL/Me.h ****    TIM3->CR1 = 0x0000;
 690              		.loc 2 105 4 is_stmt 1 view .LVU181
 691              	@ ../5-PWM_LCD_SERIAL/Me.h:105:    TIM3->CR1 = 0x0000;
 692              		.loc 2 105 14 is_stmt 0 view .LVU182
 693 022a 0023     		movs	r3, #0	@ tmp122,
 694 022c A2F50332 		sub	r2, r2, #134144	@ tmp120, tmp120,
 695 0230 1380     		strh	r3, [r2]	@ movhi	@ tmp122, MEM[(struct TIM_TypeDef *)1073742848B].CR1
 106:../5-PWM_LCD_SERIAL/Me.h ****    //TIM3->ARR = 21699;
 107:../5-PWM_LCD_SERIAL/Me.h ****    // TIM3->ARR = 250-1; // 10µs
 108:../5-PWM_LCD_SERIAL/Me.h ****    TIM3->ARR = 720-1; // 10µs
 696              		.loc 2 108 4 is_stmt 1 view .LVU183
 697              	@ ../5-PWM_LCD_SERIAL/Me.h:108:    TIM3->ARR = 720-1; // 10µs
 698              		.loc 2 108 14 is_stmt 0 view .LVU184
 699 0232 40F2CF23 		movw	r3, #719	@ tmp125,
 700 0236 9385     		strh	r3, [r2, #44]	@ movhi	@ tmp125, MEM[(struct TIM_TypeDef *)1073742848B].ARR
 109:../5-PWM_LCD_SERIAL/Me.h ****    // para obter o período de 868µs
 110:../5-PWM_LCD_SERIAL/Me.h **** /*https://www.vishay.com/docs/80071/dataform.pdf PAG 2
 111:../5-PWM_LCD_SERIAL/Me.h ****  * https://controllerstech.com/ir-remote-with-stm32/
 112:../5-PWM_LCD_SERIAL/Me.h ****  * Per=(1+ARR)/Clock_system */
 113:../5-PWM_LCD_SERIAL/Me.h ****    TIM3->CR1 |= 1<<0;
 701              		.loc 2 113 4 is_stmt 1 view .LVU185
 702              	@ ../5-PWM_LCD_SERIAL/Me.h:113:    TIM3->CR1 |= 1<<0;
 703              		.loc 2 113 8 is_stmt 0 view .LVU186
 704 0238 1388     		ldrh	r3, [r2]	@, MEM[(struct TIM_TypeDef *)1073742848B].CR1
 705 023a 9BB2     		uxth	r3, r3	@ _3, MEM[(struct TIM_TypeDef *)1073742848B].CR1
 706              	@ ../5-PWM_LCD_SERIAL/Me.h:113:    TIM3->CR1 |= 1<<0;
 707              		.loc 2 113 14 view .LVU187
 708 023c 43F00103 		orr	r3, r3, #1	@ _4, _3,
 709 0240 1380     		strh	r3, [r2]	@ movhi	@ _4, MEM[(struct TIM_TypeDef *)1073742848B].CR1
 710              	@ ../5-PWM_LCD_SERIAL/Me.h:114: }
 114:../5-PWM_LCD_SERIAL/Me.h **** }
 711              		.loc 2 114 1 view .LVU188
 712 0242 7047     		bx	lr	@
 713              	.L38:
 714              		.align	2
 715              	.L37:
 716 0244 00100240 		.word	1073876992
ARM GAS  /tmp/cceGGp0Q.s 			page 19


 717              		.cfi_endproc
 718              	.LFE37:
 719              		.size	enable_TIM3_delay, .-enable_TIM3_delay
 720              		.align	1
 721              		.global	enable_interrupt
 722              		.syntax unified
 723              		.thumb
 724              		.thumb_func
 725              		.type	enable_interrupt, %function
 726              	enable_interrupt:
 727              	.LVL17:
 728              	.LFB38:
 115:../5-PWM_LCD_SERIAL/Me.h **** 
 116:../5-PWM_LCD_SERIAL/Me.h **** void enable_interrupt(IRQn_Type IRQn)
 117:../5-PWM_LCD_SERIAL/Me.h **** {
 729              		.loc 2 117 1 is_stmt 1 view -0
 730              		.cfi_startproc
 731              		@ args = 0, pretend = 0, frame = 0
 732              		@ frame_needed = 0, uses_anonymous_args = 0
 733              		@ link register save eliminated.
 118:../5-PWM_LCD_SERIAL/Me.h ****    NVIC->ISER[((uint32_t)(IRQn) >> 5)] = (1 << ((uint32_t)(IRQn) & 0x1F));
 734              		.loc 2 118 4 view .LVU190
 735              	@ ../5-PWM_LCD_SERIAL/Me.h:118:    NVIC->ISER[((uint32_t)(IRQn) >> 5)] = (1 << ((uint32_t)(IRQn) & 
 736              		.loc 2 118 45 is_stmt 0 view .LVU191
 737 0248 0123     		movs	r3, #1	@ tmp123,
 738              	@ ../5-PWM_LCD_SERIAL/Me.h:118:    NVIC->ISER[((uint32_t)(IRQn) >> 5)] = (1 << ((uint32_t)(IRQn) & 
 739              		.loc 2 118 33 view .LVU192
 740 024a 4109     		lsrs	r1, r0, #5	@ _5, IRQn,
 741              	@ ../5-PWM_LCD_SERIAL/Me.h:118:    NVIC->ISER[((uint32_t)(IRQn) >> 5)] = (1 << ((uint32_t)(IRQn) & 
 742              		.loc 2 118 40 view .LVU193
 743 024c 034A     		ldr	r2, .L40	@ tmp124,
 744              	@ ../5-PWM_LCD_SERIAL/Me.h:118:    NVIC->ISER[((uint32_t)(IRQn) >> 5)] = (1 << ((uint32_t)(IRQn) & 
 745              		.loc 2 118 66 view .LVU194
 746 024e 00F01F00 		and	r0, r0, #31	@ tmp122, IRQn,
 747              	.LVL18:
 748              	@ ../5-PWM_LCD_SERIAL/Me.h:118:    NVIC->ISER[((uint32_t)(IRQn) >> 5)] = (1 << ((uint32_t)(IRQn) & 
 749              		.loc 2 118 45 view .LVU195
 750 0252 8340     		lsls	r3, r3, r0	@ _6, tmp123, tmp122
 751              	@ ../5-PWM_LCD_SERIAL/Me.h:118:    NVIC->ISER[((uint32_t)(IRQn) >> 5)] = (1 << ((uint32_t)(IRQn) & 
 752              		.loc 2 118 40 view .LVU196
 753 0254 42F82130 		str	r3, [r2, r1, lsl #2]	@ _6, MEM[(struct NVIC_Type *)3758153984B].ISER[_5]
 754              	@ ../5-PWM_LCD_SERIAL/Me.h:119: }  
 119:../5-PWM_LCD_SERIAL/Me.h **** }  
 755              		.loc 2 119 1 view .LVU197
 756 0258 7047     		bx	lr	@
 757              	.L41:
 758 025a 00BF     		.align	2
 759              	.L40:
 760 025c 00E100E0 		.word	-536813312
 761              		.cfi_endproc
 762              	.LFE38:
 763              		.size	enable_interrupt, .-enable_interrupt
 764              		.align	1
 765              		.global	disable_interrupt
 766              		.syntax unified
 767              		.thumb
 768              		.thumb_func
ARM GAS  /tmp/cceGGp0Q.s 			page 20


 769              		.type	disable_interrupt, %function
 770              	disable_interrupt:
 771              	.LVL19:
 772              	.LFB39:
 120:../5-PWM_LCD_SERIAL/Me.h ****    
 121:../5-PWM_LCD_SERIAL/Me.h **** /* 
 122:../5-PWM_LCD_SERIAL/Me.h ****  * Disable given interrupt
 123:../5-PWM_LCD_SERIAL/Me.h ****  */
 124:../5-PWM_LCD_SERIAL/Me.h **** void disable_interrupt(IRQn_Type IRQn)
 125:../5-PWM_LCD_SERIAL/Me.h **** {
 773              		.loc 2 125 1 is_stmt 1 view -0
 774              		.cfi_startproc
 775              		@ args = 0, pretend = 0, frame = 0
 776              		@ frame_needed = 0, uses_anonymous_args = 0
 777              		@ link register save eliminated.
 126:../5-PWM_LCD_SERIAL/Me.h ****    NVIC->ICER[((uint32_t)(IRQn) >> 5)] = (1 << ((uint32_t)(IRQn) & 0x1F));
 778              		.loc 2 126 4 view .LVU199
 779              	@ ../5-PWM_LCD_SERIAL/Me.h:126:    NVIC->ICER[((uint32_t)(IRQn) >> 5)] = (1 << ((uint32_t)(IRQn) & 
 780              		.loc 2 126 45 is_stmt 0 view .LVU200
 781 0260 0122     		movs	r2, #1	@ tmp123,
 782              	@ ../5-PWM_LCD_SERIAL/Me.h:126:    NVIC->ICER[((uint32_t)(IRQn) >> 5)] = (1 << ((uint32_t)(IRQn) & 
 783              		.loc 2 126 33 view .LVU201
 784 0262 4309     		lsrs	r3, r0, #5	@ _5, IRQn,
 785              	@ ../5-PWM_LCD_SERIAL/Me.h:126:    NVIC->ICER[((uint32_t)(IRQn) >> 5)] = (1 << ((uint32_t)(IRQn) & 
 786              		.loc 2 126 40 view .LVU202
 787 0264 0349     		ldr	r1, .L43	@ tmp124,
 788              	@ ../5-PWM_LCD_SERIAL/Me.h:126:    NVIC->ICER[((uint32_t)(IRQn) >> 5)] = (1 << ((uint32_t)(IRQn) & 
 789              		.loc 2 126 66 view .LVU203
 790 0266 00F01F00 		and	r0, r0, #31	@ tmp122, IRQn,
 791              	.LVL20:
 792              	@ ../5-PWM_LCD_SERIAL/Me.h:126:    NVIC->ICER[((uint32_t)(IRQn) >> 5)] = (1 << ((uint32_t)(IRQn) & 
 793              		.loc 2 126 45 view .LVU204
 794 026a 8240     		lsls	r2, r2, r0	@ _6, tmp123, tmp122
 795              	@ ../5-PWM_LCD_SERIAL/Me.h:126:    NVIC->ICER[((uint32_t)(IRQn) >> 5)] = (1 << ((uint32_t)(IRQn) & 
 796              		.loc 2 126 40 view .LVU205
 797 026c 2033     		adds	r3, r3, #32	@ tmp125, _5,
 798 026e 41F82320 		str	r2, [r1, r3, lsl #2]	@ _6, MEM[(struct NVIC_Type *)3758153984B].ICER[_5]
 799              	@ ../5-PWM_LCD_SERIAL/Me.h:127: }
 127:../5-PWM_LCD_SERIAL/Me.h **** }
 800              		.loc 2 127 1 view .LVU206
 801 0272 7047     		bx	lr	@
 802              	.L44:
 803              		.align	2
 804              	.L43:
 805 0274 00E100E0 		.word	-536813312
 806              		.cfi_endproc
 807              	.LFE39:
 808              		.size	disable_interrupt, .-disable_interrupt
 809              		.align	1
 810              		.global	USART_init
 811              		.syntax unified
 812              		.thumb
 813              		.thumb_func
 814              		.type	USART_init, %function
 815              	USART_init:
 816              	.LFB40:
 817              		.file 3 "../5-PWM_LCD_SERIAL/Serial.h"
ARM GAS  /tmp/cceGGp0Q.s 			page 21


   1:../5-PWM_LCD_SERIAL/Serial.h **** // #ifndef	SERIAL_K
   2:../5-PWM_LCD_SERIAL/Serial.h **** // #define 	SERIAL_K
   3:../5-PWM_LCD_SERIAL/Serial.h **** 
   4:../5-PWM_LCD_SERIAL/Serial.h **** void USARTSend(char *pucBuffer);
   5:../5-PWM_LCD_SERIAL/Serial.h **** void USART_init(void);
   6:../5-PWM_LCD_SERIAL/Serial.h **** 
   7:../5-PWM_LCD_SERIAL/Serial.h **** void USART_init(void) {
 818              		.loc 3 7 23 is_stmt 1 view -0
 819              		.cfi_startproc
 820              		@ args = 0, pretend = 0, frame = 24
 821              		@ frame_needed = 0, uses_anonymous_args = 0
   8:../5-PWM_LCD_SERIAL/Serial.h ****    /* Enable USART1 and GPIOA clock */
   9:../5-PWM_LCD_SERIAL/Serial.h ****    RCC_APB2PeriphClockCmd(RCC_APB2Periph_USART1 | RCC_APB2Periph_GPIOA, ENABLE);
 822              		.loc 3 9 4 view .LVU208
 823              	@ ../5-PWM_LCD_SERIAL/Serial.h:7: void USART_init(void) {
   7:../5-PWM_LCD_SERIAL/Serial.h ****    /* Enable USART1 and GPIOA clock */
 824              		.loc 3 7 23 is_stmt 0 view .LVU209
 825 0278 10B5     		push	{r4, lr}	@
 826              	.LCFI6:
 827              		.cfi_def_cfa_offset 8
 828              		.cfi_offset 4, -8
 829              		.cfi_offset 14, -4
 830              	@ ../5-PWM_LCD_SERIAL/Serial.h:9:    RCC_APB2PeriphClockCmd(RCC_APB2Periph_USART1 | RCC_APB2Periph_
 831              		.loc 3 9 4 view .LVU210
 832 027a 0121     		movs	r1, #1	@,
 833              	@ ../5-PWM_LCD_SERIAL/Serial.h:7: void USART_init(void) {
   7:../5-PWM_LCD_SERIAL/Serial.h ****    /* Enable USART1 and GPIOA clock */
 834              		.loc 3 7 23 view .LVU211
 835 027c 86B0     		sub	sp, sp, #24	@,,
 836              	.LCFI7:
 837              		.cfi_def_cfa_offset 32
 838              	@ ../5-PWM_LCD_SERIAL/Serial.h:18:    GPIO_Init(GPIOA, &GPIO_InitStructure);
  10:../5-PWM_LCD_SERIAL/Serial.h **** 
  11:../5-PWM_LCD_SERIAL/Serial.h ****    /* Configure the GPIOs */
  12:../5-PWM_LCD_SERIAL/Serial.h ****    GPIO_InitTypeDef GPIO_InitStructure;
  13:../5-PWM_LCD_SERIAL/Serial.h **** 
  14:../5-PWM_LCD_SERIAL/Serial.h ****    /* Configure USART1 Tx (PA.09) as alternate function push-pull */
  15:../5-PWM_LCD_SERIAL/Serial.h ****    GPIO_InitStructure.GPIO_Pin = GPIO_Pin_9;
  16:../5-PWM_LCD_SERIAL/Serial.h ****    GPIO_InitStructure.GPIO_Mode = GPIO_Mode_AF_PP;
  17:../5-PWM_LCD_SERIAL/Serial.h ****    GPIO_InitStructure.GPIO_Speed = GPIO_Speed_50MHz;
  18:../5-PWM_LCD_SERIAL/Serial.h ****    GPIO_Init(GPIOA, &GPIO_InitStructure);
 839              		.loc 3 18 4 view .LVU212
 840 027e 164C     		ldr	r4, .L46	@ tmp116,
 841              	@ ../5-PWM_LCD_SERIAL/Serial.h:9:    RCC_APB2PeriphClockCmd(RCC_APB2Periph_USART1 | RCC_APB2Periph_
   9:../5-PWM_LCD_SERIAL/Serial.h **** 
 842              		.loc 3 9 4 view .LVU213
 843 0280 44F20400 		movw	r0, #16388	@,
 844 0284 FFF7FEFF 		bl	RCC_APB2PeriphClockCmd		@
 845              	.LVL21:
  12:../5-PWM_LCD_SERIAL/Serial.h **** 
 846              		.loc 3 12 4 is_stmt 1 view .LVU214
  15:../5-PWM_LCD_SERIAL/Serial.h ****    GPIO_InitStructure.GPIO_Mode = GPIO_Mode_AF_PP;
 847              		.loc 3 15 4 view .LVU215
  16:../5-PWM_LCD_SERIAL/Serial.h ****    GPIO_InitStructure.GPIO_Speed = GPIO_Speed_50MHz;
 848              		.loc 3 16 4 view .LVU216
  17:../5-PWM_LCD_SERIAL/Serial.h ****    GPIO_Init(GPIOA, &GPIO_InitStructure);
 849              		.loc 3 17 4 view .LVU217
ARM GAS  /tmp/cceGGp0Q.s 			page 22


 850              	@ ../5-PWM_LCD_SERIAL/Serial.h:15:    GPIO_InitStructure.GPIO_Pin = GPIO_Pin_9;
  15:../5-PWM_LCD_SERIAL/Serial.h ****    GPIO_InitStructure.GPIO_Mode = GPIO_Mode_AF_PP;
 851              		.loc 3 15 32 is_stmt 0 view .LVU218
 852 0288 144B     		ldr	r3, .L46+4	@ tmp114,
 853              	@ ../5-PWM_LCD_SERIAL/Serial.h:18:    GPIO_Init(GPIOA, &GPIO_InitStructure);
 854              		.loc 3 18 4 view .LVU219
 855 028a 2046     		mov	r0, r4	@, tmp116
 856 028c 01A9     		add	r1, sp, #4	@ tmp132,,
 857              	@ ../5-PWM_LCD_SERIAL/Serial.h:15:    GPIO_InitStructure.GPIO_Pin = GPIO_Pin_9;
  15:../5-PWM_LCD_SERIAL/Serial.h ****    GPIO_InitStructure.GPIO_Mode = GPIO_Mode_AF_PP;
 858              		.loc 3 15 32 view .LVU220
 859 028e 0193     		str	r3, [sp, #4]	@ tmp114, MEM <unsigned int> [(void *)&GPIO_InitStructure]
 860              		.loc 3 18 4 is_stmt 1 view .LVU221
 861 0290 FFF7FEFF 		bl	GPIO_Init		@
 862              	.LVL22:
  19:../5-PWM_LCD_SERIAL/Serial.h **** 
  20:../5-PWM_LCD_SERIAL/Serial.h ****    /* Configure USART1 Rx (PA.10) as input floating */
  21:../5-PWM_LCD_SERIAL/Serial.h ****    GPIO_InitStructure.GPIO_Pin = GPIO_Pin_10;
 863              		.loc 3 21 4 view .LVU222
 864              	@ ../5-PWM_LCD_SERIAL/Serial.h:21:    GPIO_InitStructure.GPIO_Pin = GPIO_Pin_10;
 865              		.loc 3 21 32 is_stmt 0 view .LVU223
 866 0294 4FF48063 		mov	r3, #1024	@ tmp118,
 867 0298 ADF80430 		strh	r3, [sp, #4]	@ movhi	@ tmp118, GPIO_InitStructure.GPIO_Pin
  22:../5-PWM_LCD_SERIAL/Serial.h ****    GPIO_InitStructure.GPIO_Mode = GPIO_Mode_IN_FLOATING;
 868              		.loc 3 22 4 is_stmt 1 view .LVU224
 869              	@ ../5-PWM_LCD_SERIAL/Serial.h:22:    GPIO_InitStructure.GPIO_Mode = GPIO_Mode_IN_FLOATING;
 870              		.loc 3 22 33 is_stmt 0 view .LVU225
 871 029c 0423     		movs	r3, #4	@ tmp119,
 872              	@ ../5-PWM_LCD_SERIAL/Serial.h:23:    GPIO_Init(GPIOA, &GPIO_InitStructure);
  23:../5-PWM_LCD_SERIAL/Serial.h ****    GPIO_Init(GPIOA, &GPIO_InitStructure);
 873              		.loc 3 23 4 view .LVU226
 874 029e 2046     		mov	r0, r4	@, tmp116
 875 02a0 0DEB0301 		add	r1, sp, r3	@ tmp133,,
 876              	@ ../5-PWM_LCD_SERIAL/Serial.h:22:    GPIO_InitStructure.GPIO_Mode = GPIO_Mode_IN_FLOATING;
  22:../5-PWM_LCD_SERIAL/Serial.h ****    GPIO_InitStructure.GPIO_Mode = GPIO_Mode_IN_FLOATING;
 877              		.loc 3 22 33 view .LVU227
 878 02a4 8DF80730 		strb	r3, [sp, #7]	@ tmp119, GPIO_InitStructure.GPIO_Mode
 879              		.loc 3 23 4 is_stmt 1 view .LVU228
 880 02a8 FFF7FEFF 		bl	GPIO_Init		@
 881              	.LVL23:
  24:../5-PWM_LCD_SERIAL/Serial.h **** 
  25:../5-PWM_LCD_SERIAL/Serial.h ****    /* Configure the USART1 */
  26:../5-PWM_LCD_SERIAL/Serial.h ****    USART_InitTypeDef USART_InitStructure;
 882              		.loc 3 26 4 view .LVU229
  27:../5-PWM_LCD_SERIAL/Serial.h ****    USART_InitStructure.USART_BaudRate = 115200;
 883              		.loc 3 27 4 view .LVU230
  28:../5-PWM_LCD_SERIAL/Serial.h ****    USART_InitStructure.USART_WordLength = USART_WordLength_8b;
 884              		.loc 3 28 4 view .LVU231
  29:../5-PWM_LCD_SERIAL/Serial.h ****    USART_InitStructure.USART_StopBits = USART_StopBits_1;
 885              		.loc 3 29 4 view .LVU232
  30:../5-PWM_LCD_SERIAL/Serial.h ****    USART_InitStructure.USART_Parity = USART_Parity_No;
 886              		.loc 3 30 4 view .LVU233
  31:../5-PWM_LCD_SERIAL/Serial.h ****    USART_InitStructure.USART_HardwareFlowControl = USART_HardwareFlowControl_None;
 887              		.loc 3 31 4 view .LVU234
  32:../5-PWM_LCD_SERIAL/Serial.h ****    USART_InitStructure.USART_Mode = USART_Mode_Rx | USART_Mode_Tx;
 888              		.loc 3 32 4 view .LVU235
 889              	@ ../5-PWM_LCD_SERIAL/Serial.h:28:    USART_InitStructure.USART_WordLength = USART_WordLength_8b;
ARM GAS  /tmp/cceGGp0Q.s 			page 23


  28:../5-PWM_LCD_SERIAL/Serial.h ****    USART_InitStructure.USART_StopBits = USART_StopBits_1;
 890              		.loc 3 28 41 is_stmt 0 view .LVU236
 891 02ac 0023     		movs	r3, #0	@ tmp124,
 892 02ae 4FF4E132 		mov	r2, #115200	@,
 893 02b2 CDE90223 		strd	r2, r3, [sp, #8]	@, tmp124,,
 894              	@ ../5-PWM_LCD_SERIAL/Serial.h:30:    USART_InitStructure.USART_Parity = USART_Parity_No;
  30:../5-PWM_LCD_SERIAL/Serial.h ****    USART_InitStructure.USART_HardwareFlowControl = USART_HardwareFlowControl_None;
 895              		.loc 3 30 37 view .LVU237
 896 02b6 4FF44022 		mov	r2, #786432	@ tmp125,
 897              	@ ../5-PWM_LCD_SERIAL/Serial.h:34:    USART_Init(USART1, &USART_InitStructure);
  33:../5-PWM_LCD_SERIAL/Serial.h **** 
  34:../5-PWM_LCD_SERIAL/Serial.h ****    USART_Init(USART1, &USART_InitStructure);
 898              		.loc 3 34 4 view .LVU238
 899 02ba 04F54054 		add	r4, r4, #12288	@ tmp129, tmp129,
 900 02be 2046     		mov	r0, r4	@, tmp129
 901 02c0 02A9     		add	r1, sp, #8	@,,
 902              	@ ../5-PWM_LCD_SERIAL/Serial.h:30:    USART_InitStructure.USART_Parity = USART_Parity_No;
  30:../5-PWM_LCD_SERIAL/Serial.h ****    USART_InitStructure.USART_HardwareFlowControl = USART_HardwareFlowControl_None;
 903              		.loc 3 30 37 view .LVU239
 904 02c2 0492     		str	r2, [sp, #16]	@ tmp125, MEM <unsigned int> [(short unsigned int *)&USART_InitStructure + 8B]
 905              	@ ../5-PWM_LCD_SERIAL/Serial.h:31:    USART_InitStructure.USART_HardwareFlowControl = USART_Hardwar
  31:../5-PWM_LCD_SERIAL/Serial.h ****    USART_InitStructure.USART_Mode = USART_Mode_Rx | USART_Mode_Tx;
 906              		.loc 3 31 50 view .LVU240
 907 02c4 ADF81430 		strh	r3, [sp, #20]	@ movhi	@ tmp124, USART_InitStructure.USART_HardwareFlowControl
 908              		.loc 3 34 4 is_stmt 1 view .LVU241
 909 02c8 FFF7FEFF 		bl	USART_Init		@
 910              	.LVL24:
  35:../5-PWM_LCD_SERIAL/Serial.h **** 
  36:../5-PWM_LCD_SERIAL/Serial.h ****    /* Enable USART1 */
  37:../5-PWM_LCD_SERIAL/Serial.h ****    USART_Cmd(USART1, ENABLE);
 911              		.loc 3 37 4 view .LVU242
 912 02cc 0121     		movs	r1, #1	@,
 913 02ce 2046     		mov	r0, r4	@, tmp129
 914 02d0 FFF7FEFF 		bl	USART_Cmd		@
 915              	.LVL25:
 916              	@ ../5-PWM_LCD_SERIAL/Serial.h:38: }
  38:../5-PWM_LCD_SERIAL/Serial.h **** }
 917              		.loc 3 38 1 is_stmt 0 view .LVU243
 918 02d4 06B0     		add	sp, sp, #24	@,,
 919              	.LCFI8:
 920              		.cfi_def_cfa_offset 8
 921              		@ sp needed	@
 922 02d6 10BD     		pop	{r4, pc}	@
 923              	.L47:
 924              		.align	2
 925              	.L46:
 926 02d8 00080140 		.word	1073809408
 927 02dc 00020318 		.word	402850304
 928              		.cfi_endproc
 929              	.LFE40:
 930              		.size	USART_init, .-USART_init
 931              		.align	1
 932              		.global	USARTSend
 933              		.syntax unified
 934              		.thumb
 935              		.thumb_func
 936              		.type	USARTSend, %function
ARM GAS  /tmp/cceGGp0Q.s 			page 24


 937              	USARTSend:
 938              	.LVL26:
 939              	.LFB41:
  39:../5-PWM_LCD_SERIAL/Serial.h **** 
  40:../5-PWM_LCD_SERIAL/Serial.h **** void USARTSend(char *pucBuffer) {
 940              		.loc 3 40 33 is_stmt 1 view -0
 941              		.cfi_startproc
 942              		@ args = 0, pretend = 0, frame = 0
 943              		@ frame_needed = 0, uses_anonymous_args = 0
  41:../5-PWM_LCD_SERIAL/Serial.h ****     while (*pucBuffer)
 944              		.loc 3 41 5 view .LVU245
 945              	@ ../5-PWM_LCD_SERIAL/Serial.h:40: void USARTSend(char *pucBuffer) {
  40:../5-PWM_LCD_SERIAL/Serial.h ****     while (*pucBuffer)
 946              		.loc 3 40 33 is_stmt 0 view .LVU246
 947 02e0 38B5     		push	{r3, r4, r5, lr}	@
 948              	.LCFI9:
 949              		.cfi_def_cfa_offset 16
 950              		.cfi_offset 3, -16
 951              		.cfi_offset 4, -12
 952              		.cfi_offset 5, -8
 953              		.cfi_offset 14, -4
 954              	@ ../5-PWM_LCD_SERIAL/Serial.h:43:         USART_SendData(USART1, *pucBuffer++);
  42:../5-PWM_LCD_SERIAL/Serial.h ****     {
  43:../5-PWM_LCD_SERIAL/Serial.h ****         USART_SendData(USART1, *pucBuffer++);
 955              		.loc 3 43 9 view .LVU247
 956 02e2 084D     		ldr	r5, .L54	@ tmp126,
 957 02e4 441E     		subs	r4, r0, #1	@ ivtmp.64, tmp128,
 958              	.LVL27:
 959              	.L49:
  41:../5-PWM_LCD_SERIAL/Serial.h ****     {
 960              		.loc 3 41 12 is_stmt 1 view .LVU248
 961 02e6 14F8011F 		ldrb	r1, [r4, #1]!	@ zero_extendqisi2	@ _3, MEM[(char *)_18]
 962              	.LVL28:
  41:../5-PWM_LCD_SERIAL/Serial.h ****     {
 963              		.loc 3 41 12 is_stmt 0 view .LVU249
 964 02ea 01B9     		cbnz	r1, .L51	@ _3,
 965              	@ ../5-PWM_LCD_SERIAL/Serial.h:48: }
  44:../5-PWM_LCD_SERIAL/Serial.h ****         while(USART_GetFlagStatus(USART1, USART_FLAG_TC) == RESET)
  45:../5-PWM_LCD_SERIAL/Serial.h ****         {
  46:../5-PWM_LCD_SERIAL/Serial.h ****         }
  47:../5-PWM_LCD_SERIAL/Serial.h ****     }
  48:../5-PWM_LCD_SERIAL/Serial.h **** }
 966              		.loc 3 48 1 view .LVU250
 967 02ec 38BD     		pop	{r3, r4, r5, pc}	@
 968              	.LVL29:
 969              	.L51:
  43:../5-PWM_LCD_SERIAL/Serial.h ****         while(USART_GetFlagStatus(USART1, USART_FLAG_TC) == RESET)
 970              		.loc 3 43 9 is_stmt 1 view .LVU251
  43:../5-PWM_LCD_SERIAL/Serial.h ****         while(USART_GetFlagStatus(USART1, USART_FLAG_TC) == RESET)
 971              		.loc 3 43 9 is_stmt 0 view .LVU252
 972 02ee 2846     		mov	r0, r5	@, tmp126
 973 02f0 FFF7FEFF 		bl	USART_SendData		@
 974              	.LVL30:
  44:../5-PWM_LCD_SERIAL/Serial.h ****         while(USART_GetFlagStatus(USART1, USART_FLAG_TC) == RESET)
 975              		.loc 3 44 9 is_stmt 1 view .LVU253
 976              	.L50:
  46:../5-PWM_LCD_SERIAL/Serial.h ****     }
ARM GAS  /tmp/cceGGp0Q.s 			page 25


 977              		.loc 3 46 9 view .LVU254
  44:../5-PWM_LCD_SERIAL/Serial.h ****         while(USART_GetFlagStatus(USART1, USART_FLAG_TC) == RESET)
 978              		.loc 3 44 58 discriminator 1 view .LVU255
 979              	@ ../5-PWM_LCD_SERIAL/Serial.h:44:         while(USART_GetFlagStatus(USART1, USART_FLAG_TC) == RESE
  44:../5-PWM_LCD_SERIAL/Serial.h ****         while(USART_GetFlagStatus(USART1, USART_FLAG_TC) == RESET)
 980              		.loc 3 44 15 is_stmt 0 discriminator 1 view .LVU256
 981 02f4 4021     		movs	r1, #64	@,
 982 02f6 2846     		mov	r0, r5	@, tmp126
 983 02f8 FFF7FEFF 		bl	USART_GetFlagStatus		@
 984              	.LVL31:
 985              	@ ../5-PWM_LCD_SERIAL/Serial.h:44:         while(USART_GetFlagStatus(USART1, USART_FLAG_TC) == RESE
  44:../5-PWM_LCD_SERIAL/Serial.h ****         while(USART_GetFlagStatus(USART1, USART_FLAG_TC) == RESET)
 986              		.loc 3 44 58 discriminator 1 view .LVU257
 987 02fc 0028     		cmp	r0, #0	@ tmp129
 988 02fe F9D0     		beq	.L50	@
 989 0300 F1E7     		b	.L49		@
 990              	.L55:
 991 0302 00BF     		.align	2
 992              	.L54:
 993 0304 00380140 		.word	1073821696
 994              		.cfi_endproc
 995              	.LFE41:
 996              		.size	USARTSend, .-USARTSend
 997              		.section	.rodata.str1.1
 998              	.LC2:
 999 001e 0D0A5661 		.ascii	"\015\012Valor Lido: \000"
 999      6C6F7220 
 999      4C69646F 
 999      3A2000
 1000              	.LC3:
 1001 002d 0D0A5661 		.ascii	"\015\012Valor n\303\243o amostrado ou transmitido!!"
 1001      6C6F7220 
 1001      6EC3A36F 
 1001      20616D6F 
 1001      73747261 
 1002 0054 200D0A00 		.ascii	" \015\012\000"
 1003              		.text
 1004              		.align	1
 1005              		.syntax unified
 1006              		.thumb
 1007              		.thumb_func
 1008              		.type	task3, %function
 1009              	task3:
 1010              	.LVL32:
 1011              	.LFB44:
  80:../5-PWM_LCD_SERIAL/main.c **** 	USART_init();
 1012              		.loc 1 80 53 is_stmt 1 view -0
 1013              		.cfi_startproc
 1014              		@ args = 0, pretend = 0, frame = 16
 1015              		@ frame_needed = 0, uses_anonymous_args = 0
  81:../5-PWM_LCD_SERIAL/main.c **** 
 1016              		.loc 1 81 2 view .LVU259
 1017              	@ ../5-PWM_LCD_SERIAL/main.c:80: static void task3(void *args __attribute ((unused))){
  80:../5-PWM_LCD_SERIAL/main.c **** 	USART_init();
 1018              		.loc 1 80 53 is_stmt 0 view .LVU260
 1019 0308 7FB5     		push	{r0, r1, r2, r3, r4, r5, r6, lr}	@
 1020              	.LCFI10:
ARM GAS  /tmp/cceGGp0Q.s 			page 26


 1021              		.cfi_def_cfa_offset 32
 1022              		.cfi_offset 4, -16
 1023              		.cfi_offset 5, -12
 1024              		.cfi_offset 6, -8
 1025              		.cfi_offset 14, -4
 1026              	@ ../5-PWM_LCD_SERIAL/main.c:81: 	USART_init();
  81:../5-PWM_LCD_SERIAL/main.c **** 
 1027              		.loc 1 81 2 view .LVU261
 1028 030a FFF7FEFF 		bl	USART_init		@
 1029              	.LVL33:
  83:../5-PWM_LCD_SERIAL/main.c **** 
 1030              		.loc 1 83 2 is_stmt 1 view .LVU262
 1031              	@ ../5-PWM_LCD_SERIAL/main.c:83: 	u32 dados_recebidos = 0;
  83:../5-PWM_LCD_SERIAL/main.c **** 
 1032              		.loc 1 83 6 is_stmt 0 view .LVU263
 1033 030e 0023     		movs	r3, #0	@ tmp120,
 1034              	@ ../5-PWM_LCD_SERIAL/main.c:90: 		status = xQueueReceive(fila_ADC,
  90:../5-PWM_LCD_SERIAL/main.c **** 			  	&dados_recebidos, 
 1035              		.loc 1 90 12 view .LVU264
 1036 0310 0E4D     		ldr	r5, .L60	@ tmp122,
 1037              	@ ../5-PWM_LCD_SERIAL/main.c:104: 			USARTSend("\r\nValor não amostrado ou transmitido!! \r\n");
 104:../5-PWM_LCD_SERIAL/main.c **** 	}
 1038              		.loc 1 104 4 view .LVU265
 1039 0312 0F4C     		ldr	r4, .L60+4	@ tmp129,
 1040              	@ ../5-PWM_LCD_SERIAL/main.c:95: 			USARTSend("\r\nValor Lido: ");
  95:../5-PWM_LCD_SERIAL/main.c **** 
 1041              		.loc 1 95 4 view .LVU266
 1042 0314 0F4E     		ldr	r6, .L60+8	@ tmp130,
 1043              	@ ../5-PWM_LCD_SERIAL/main.c:83: 	u32 dados_recebidos = 0;
  83:../5-PWM_LCD_SERIAL/main.c **** 
 1044              		.loc 1 83 6 view .LVU267
 1045 0316 0193     		str	r3, [sp, #4]	@ tmp120, dados_recebidos
 1046              	.L57:
  85:../5-PWM_LCD_SERIAL/main.c **** 	u8 status;
 1047              		.loc 1 85 2 is_stmt 1 view .LVU268
  86:../5-PWM_LCD_SERIAL/main.c **** 			
 1048              		.loc 1 86 2 view .LVU269
  89:../5-PWM_LCD_SERIAL/main.c **** 		status = xQueueReceive(fila_ADC,
 1049              		.loc 1 89 2 view .LVU270
  90:../5-PWM_LCD_SERIAL/main.c **** 			  	&dados_recebidos, 
 1050              		.loc 1 90 3 view .LVU271
 1051              	@ ../5-PWM_LCD_SERIAL/main.c:90: 		status = xQueueReceive(fila_ADC,
  90:../5-PWM_LCD_SERIAL/main.c **** 			  	&dados_recebidos, 
 1052              		.loc 1 90 12 is_stmt 0 view .LVU272
 1053 0318 6422     		movs	r2, #100	@,
 1054 031a 2868     		ldr	r0, [r5]	@, fila_ADC
 1055 031c 01A9     		add	r1, sp, #4	@,,
 1056 031e FFF7FEFF 		bl	xQueueReceive		@
 1057              	.LVL34:
  94:../5-PWM_LCD_SERIAL/main.c **** 			USARTSend("\r\nValor Lido: ");
 1058              		.loc 1 94 3 is_stmt 1 view .LVU273
 1059              	@ ../5-PWM_LCD_SERIAL/main.c:94: 		if (status != NULL ){
  94:../5-PWM_LCD_SERIAL/main.c **** 			USARTSend("\r\nValor Lido: ");
 1060              		.loc 1 94 6 is_stmt 0 view .LVU274
 1061 0322 C0B2     		uxtb	r0, r0	@ _2, tmp131
  94:../5-PWM_LCD_SERIAL/main.c **** 			USARTSend("\r\nValor Lido: ");
 1062              		.loc 1 94 6 view .LVU275
ARM GAS  /tmp/cceGGp0Q.s 			page 27


 1063 0324 70B1     		cbz	r0, .L58	@ _2,
  95:../5-PWM_LCD_SERIAL/main.c **** 
 1064              		.loc 1 95 4 is_stmt 1 view .LVU276
 1065 0326 3046     		mov	r0, r6	@, tmp130
 1066              	.LVL35:
  95:../5-PWM_LCD_SERIAL/main.c **** 
 1067              		.loc 1 95 4 is_stmt 0 view .LVU277
 1068 0328 FFF7FEFF 		bl	USARTSend		@
 1069              	.LVL36:
  98:../5-PWM_LCD_SERIAL/main.c **** 
 1070              		.loc 1 98 4 is_stmt 1 view .LVU278
 1071 032c 1022     		movs	r2, #16	@,
 1072 032e 02A9     		add	r1, sp, #8	@ tmp133,,
 1073 0330 0198     		ldr	r0, [sp, #4]	@, dados_recebidos
 1074 0332 FFF7FEFF 		bl	itoa		@
 1075              	.LVL37:
 100:../5-PWM_LCD_SERIAL/main.c **** 			__delay_ms(1);
 1076              		.loc 1 100 4 view .LVU279
 1077 0336 02A8     		add	r0, sp, #8	@ tmp134,,
 1078 0338 FFF7FEFF 		bl	USARTSend		@
 1079              	.LVL38:
 101:../5-PWM_LCD_SERIAL/main.c **** 		}
 1080              		.loc 1 101 4 view .LVU280
 1081 033c 6420     		movs	r0, #100	@,
 1082 033e FFF7FEFF 		bl	vTaskDelay		@
 1083              	.LVL39:
 1084 0342 E9E7     		b	.L57		@
 1085              	.LVL40:
 1086              	.L58:
 104:../5-PWM_LCD_SERIAL/main.c **** 	}
 1087              		.loc 1 104 4 view .LVU281
 1088 0344 2046     		mov	r0, r4	@, tmp129
 1089              	.LVL41:
 104:../5-PWM_LCD_SERIAL/main.c **** 	}
 1090              		.loc 1 104 4 is_stmt 0 view .LVU282
 1091 0346 FFF7FEFF 		bl	USARTSend		@
 1092              	.LVL42:
 1093 034a E5E7     		b	.L57		@
 1094              	.L61:
 1095              		.align	2
 1096              	.L60:
 1097 034c 00000000 		.word	.LANCHOR0
 1098 0350 2D000000 		.word	.LC3
 1099 0354 1E000000 		.word	.LC2
 1100              		.cfi_endproc
 1101              	.LFE44:
 1102              		.size	task3, .-task3
 1103              		.section	.rodata.str1.1
 1104              	.LC4:
 1105 0058 4C43445F 		.ascii	"LCD_16x2\000"
 1105      31367832 
 1105      00
 1106              	.LC5:
 1107 0061 4C45445F 		.ascii	"LED_13\000"
 1107      313300
 1108              	.LC6:
 1109 0068 55534172 		.ascii	"USArt\000"
ARM GAS  /tmp/cceGGp0Q.s 			page 28


 1109      7400
 1110              	.LC7:
 1111 006e 41444300 		.ascii	"ADC\000"
 1112              		.section	.text.startup,"ax",%progbits
 1113              		.align	1
 1114              		.global	main
 1115              		.syntax unified
 1116              		.thumb
 1117              		.thumb_func
 1118              		.type	main, %function
 1119              	main:
 1120              	.LFB46:
 122:../5-PWM_LCD_SERIAL/main.c **** 	}
 123:../5-PWM_LCD_SERIAL/main.c **** }
 124:../5-PWM_LCD_SERIAL/main.c **** 
 125:../5-PWM_LCD_SERIAL/main.c **** int main(void) {
 1121              		.loc 1 125 16 is_stmt 1 view -0
 1122              		.cfi_startproc
 1123              		@ Volatile: function does not return.
 1124              		@ args = 0, pretend = 0, frame = 0
 1125              		@ frame_needed = 0, uses_anonymous_args = 0
 126:../5-PWM_LCD_SERIAL/main.c **** 	fila_ADC = xQueueCreate(5 /* Tamanho máximo da fila. */,
 1126              		.loc 1 126 2 view .LVU284
 1127              	@ ../5-PWM_LCD_SERIAL/main.c:125: int main(void) {
 125:../5-PWM_LCD_SERIAL/main.c **** 	fila_ADC = xQueueCreate(5 /* Tamanho máximo da fila. */,
 1128              		.loc 1 125 16 is_stmt 0 view .LVU285
 1129 0000 07B5     		push	{r0, r1, r2, lr}	@
 1130              	.LCFI11:
 1131              		.cfi_def_cfa_offset 16
 1132              		.cfi_offset 14, -4
 1133              	@ ../5-PWM_LCD_SERIAL/main.c:126: 	fila_ADC = xQueueCreate(5 /* Tamanho máximo da fila. */,
 1134              		.loc 1 126 13 view .LVU286
 1135 0002 0022     		movs	r2, #0	@,
 1136 0004 0421     		movs	r1, #4	@,
 1137 0006 0520     		movs	r0, #5	@,
 1138              	@ ../5-PWM_LCD_SERIAL/main.c:131: 	xTaskCreate(task1,"LCD_16x2", 100 ,NULL, 4 ,NULL);
 127:../5-PWM_LCD_SERIAL/main.c **** 								sizeof(u32) /* Largura máxima da fila. */);
 128:../5-PWM_LCD_SERIAL/main.c **** 
 129:../5-PWM_LCD_SERIAL/main.c **** 	set_system_clock_to_72Mhz();
 130:../5-PWM_LCD_SERIAL/main.c **** 
 131:../5-PWM_LCD_SERIAL/main.c **** 	xTaskCreate(task1,"LCD_16x2", 100 ,NULL, 4 ,NULL);
 1139              		.loc 1 131 2 view .LVU287
 1140 0008 0024     		movs	r4, #0	@ tmp119,
 1141              	@ ../5-PWM_LCD_SERIAL/main.c:126: 	fila_ADC = xQueueCreate(5 /* Tamanho máximo da fila. */,
 126:../5-PWM_LCD_SERIAL/main.c **** 								sizeof(u32) /* Largura máxima da fila. */);
 1142              		.loc 1 126 13 view .LVU288
 1143 000a FFF7FEFF 		bl	xQueueGenericCreate		@
 1144              	.LVL43:
 1145              	@ ../5-PWM_LCD_SERIAL/main.c:131: 	xTaskCreate(task1,"LCD_16x2", 100 ,NULL, 4 ,NULL);
 1146              		.loc 1 131 2 view .LVU289
 1147 000e 0425     		movs	r5, #4	@ tmp120,
 1148              	@ ../5-PWM_LCD_SERIAL/main.c:126: 	fila_ADC = xQueueCreate(5 /* Tamanho máximo da fila. */,
 126:../5-PWM_LCD_SERIAL/main.c **** 								sizeof(u32) /* Largura máxima da fila. */);
 1149              		.loc 1 126 11 discriminator 1 view .LVU290
 1150 0010 134B     		ldr	r3, .L64	@ tmp116,
 1151 0012 1860     		str	r0, [r3]	@ tmp133, fila_ADC
 129:../5-PWM_LCD_SERIAL/main.c **** 
ARM GAS  /tmp/cceGGp0Q.s 			page 29


 1152              		.loc 1 129 2 is_stmt 1 view .LVU291
 1153 0014 FFF7FEFF 		bl	set_system_clock_to_72Mhz		@
 1154              	.LVL44:
 1155              		.loc 1 131 2 view .LVU292
 1156 0018 1248     		ldr	r0, .L64+4	@,
 1157 001a 2346     		mov	r3, r4	@, tmp119
 1158 001c 6422     		movs	r2, #100	@,
 1159 001e 1249     		ldr	r1, .L64+8	@,
 1160 0020 CDE90054 		strd	r5, r4, [sp]	@ tmp120, tmp119,
 1161 0024 FFF7FEFF 		bl	xTaskCreate		@
 1162              	.LVL45:
 132:../5-PWM_LCD_SERIAL/main.c **** 	xTaskCreate(task2, "LED_13", 100 , NULL, 4 , NULL);
 1163              		.loc 1 132 2 view .LVU293
 1164 0028 2346     		mov	r3, r4	@, tmp119
 1165 002a 6422     		movs	r2, #100	@,
 1166 002c 0F49     		ldr	r1, .L64+12	@,
 1167 002e CDE90054 		strd	r5, r4, [sp]	@ tmp120, tmp119,
 1168 0032 0F48     		ldr	r0, .L64+16	@,
 1169 0034 FFF7FEFF 		bl	xTaskCreate		@
 1170              	.LVL46:
 133:../5-PWM_LCD_SERIAL/main.c **** 	xTaskCreate(task3, "USArt", 100 , NULL, 4 , NULL);
 1171              		.loc 1 133 2 view .LVU294
 1172 0038 2346     		mov	r3, r4	@, tmp119
 1173 003a 6422     		movs	r2, #100	@,
 1174 003c 0D49     		ldr	r1, .L64+20	@,
 1175 003e CDE90054 		strd	r5, r4, [sp]	@ tmp120, tmp119,
 1176 0042 0D48     		ldr	r0, .L64+24	@,
 1177 0044 FFF7FEFF 		bl	xTaskCreate		@
 1178              	.LVL47:
 134:../5-PWM_LCD_SERIAL/main.c **** 	xTaskCreate(task4, "ADC", 100 , NULL, 4 , NULL);
 1179              		.loc 1 134 2 view .LVU295
 1180 0048 2346     		mov	r3, r4	@, tmp119
 1181 004a 6422     		movs	r2, #100	@,
 1182 004c 0B49     		ldr	r1, .L64+28	@,
 1183 004e CDE90054 		strd	r5, r4, [sp]	@ tmp120, tmp119,
 1184 0052 0B48     		ldr	r0, .L64+32	@,
 1185 0054 FFF7FEFF 		bl	xTaskCreate		@
 1186              	.LVL48:
 135:../5-PWM_LCD_SERIAL/main.c **** 
 136:../5-PWM_LCD_SERIAL/main.c **** 	vTaskStartScheduler(); // inicia o escalonador de
 1187              		.loc 1 136 2 view .LVU296
 1188 0058 FFF7FEFF 		bl	vTaskStartScheduler		@
 1189              	.LVL49:
 1190              	.L63:
 137:../5-PWM_LCD_SERIAL/main.c **** 								  // processos.
 138:../5-PWM_LCD_SERIAL/main.c **** 	while(1);
 1191              		.loc 1 138 2 view .LVU297
 1192              		.loc 1 138 7 view .LVU298
 1193 005c FEE7     		b	.L63		@
 1194              	.L65:
 1195 005e 00BF     		.align	2
 1196              	.L64:
 1197 0060 00000000 		.word	.LANCHOR0
 1198 0064 00000000 		.word	task1
 1199 0068 58000000 		.word	.LC4
 1200 006c 61000000 		.word	.LC5
 1201 0070 00000000 		.word	task2
ARM GAS  /tmp/cceGGp0Q.s 			page 30


 1202 0074 68000000 		.word	.LC6
 1203 0078 00000000 		.word	task3
 1204 007c 6E000000 		.word	.LC7
 1205 0080 00000000 		.word	task4
 1206              		.cfi_endproc
 1207              	.LFE46:
 1208              		.size	main, .-main
 1209              		.bss
 1210              		.align	2
 1211              		.set	.LANCHOR0,. + 0
 1212              		.type	fila_ADC, %object
 1213              		.size	fila_ADC, 4
 1214              	fila_ADC:
 1215 0000 00000000 		.space	4
 1216              		.text
 1217              	.Letext0:
 1218              		.file 4 "/usr/arm-none-eabi/include/machine/_default_types.h"
 1219              		.file 5 "/usr/arm-none-eabi/include/sys/_stdint.h"
 1220              		.file 6 "../freertos/include/projdefs.h"
 1221              		.file 7 "../freertos/portable/GCC/ARM_CM3/portmacro.h"
 1222              		.file 8 "../freertos/include/task.h"
 1223              		.file 9 "../freertos/include/queue.h"
 1224              		.file 10 "../stm32f10x_lib/CMSIS/CM3/DeviceSupport/ST/STM32F10x/stm32f10x.h"
 1225              		.file 11 "../stm32f10x_lib/CMSIS/CM3/CoreSupport/core_cm3.h"
 1226              		.file 12 "../stm32f10x_lib/STM32F10x_StdPeriph_Driver/inc/stm32f10x_gpio.h"
 1227              		.file 13 "../stm32f10x_lib/STM32F10x_StdPeriph_Driver/inc/stm32f10x_usart.h"
 1228              		.file 14 "../5-PWM_LCD_SERIAL/myLcd.h"
 1229              		.file 15 "/usr/arm-none-eabi/include/stdlib.h"
 1230              		.file 16 "../stm32f10x_lib/STM32F10x_StdPeriph_Driver/inc/stm32f10x_rcc.h"