ARM GAS  /tmp/ccxAy8dA.s 			page 1


   1              		.cpu cortex-m3
   2              		.arch armv7-m
   3              		.fpu softvfp
   4              		.eabi_attribute 20, 1	@ Tag_ABI_FP_denormal
   5              		.eabi_attribute 21, 1	@ Tag_ABI_FP_exceptions
   6              		.eabi_attribute 23, 3	@ Tag_ABI_FP_number_model
   7              		.eabi_attribute 24, 1	@ Tag_ABI_align8_needed
   8              		.eabi_attribute 25, 1	@ Tag_ABI_align8_preserved
   9              		.eabi_attribute 26, 1	@ Tag_ABI_enum_size
  10              		.eabi_attribute 30, 4	@ Tag_ABI_optimization_goals
  11              		.eabi_attribute 34, 1	@ Tag_CPU_unaligned_access
  12              		.eabi_attribute 18, 4	@ Tag_ABI_PCS_wchar_t
  13              		.file	"main.c"
  14              	@ GNU C17 (GNU Arm Embedded Toolchain 10.3-2021.10) version 10.3.1 20210824 (release) (arm-none-eab
  15              	@	compiled by GNU C version 4.8.4, GMP version 6.1.0, MPFR version 3.1.4, MPC version 1.0.3, isl ve
  16              	
  17              	@ GGC heuristics: --param ggc-min-expand=100 --param ggc-min-heapsize=131072
  18              	@ options passed:  -I . -I ../5-PWM_LCD_SERIAL
  19              	@ -I ../stm32f10x_lib/CMSIS/CM3/CoreSupport
  20              	@ -I ../stm32f10x_lib/CMSIS/CM3/DeviceSupport/ST/STM32F10x
  21              	@ -I ../stm32f10x_lib/STM32F10x_StdPeriph_Driver/inc
  22              	@ -I ../stm32f10x_lib/STM32F10x_StdPeriph_Driver -I ../freertos/include
  23              	@ -I ../freertos/portable/GCC/ARM_CM3 -imultilib thumb/v7-m/nofp
  24              	@ -iprefix /usr/bin/../lib/gcc/arm-none-eabi/10.3.1/
  25              	@ -isysroot /usr/bin/../arm-none-eabi -D__USES_INITFINI__ -D STM32F10X_MD
  26              	@ -D USE_STDPERIPH_DRIVER -D HSE_VALUE=8000000 -D RUN_FROM_FLASH=1
  27              	@ ../5-PWM_LCD_SERIAL/main.c -mcpu=cortex-m3 -mthumb -mfloat-abi=soft
  28              	@ -mlibarch=armv7-m -march=armv7-m
  29              	@ -auxbase-strip ../5-PWM_LCD_SERIAL/main.o -g -gdwarf-2 -Os -Wall
  30              	@ -fomit-frame-pointer -fverbose-asm
  31              	@ options enabled:  -faggressive-loop-optimizations -fallocation-dce
  32              	@ -fauto-inc-dec -fbranch-count-reg -fcaller-saves -fcode-hoisting
  33              	@ -fcombine-stack-adjustments -fcompare-elim -fcprop-registers
  34              	@ -fcrossjumping -fcse-follow-jumps -fdefer-pop
  35              	@ -fdelete-null-pointer-checks -fdevirtualize -fdevirtualize-speculatively
  36              	@ -fdwarf2-cfi-asm -fearly-inlining -feliminate-unused-debug-symbols
  37              	@ -feliminate-unused-debug-types -fexpensive-optimizations
  38              	@ -fforward-propagate -ffp-int-builtin-inexact -ffunction-cse -fgcse
  39              	@ -fgcse-lm -fgnu-unique -fguess-branch-probability -fhoist-adjacent-loads
  40              	@ -fident -fif-conversion -fif-conversion2 -findirect-inlining -finline
  41              	@ -finline-atomics -finline-functions -finline-functions-called-once
  42              	@ -finline-small-functions -fipa-bit-cp -fipa-cp -fipa-icf
  43              	@ -fipa-icf-functions -fipa-icf-variables -fipa-profile -fipa-pure-const
  44              	@ -fipa-ra -fipa-reference -fipa-reference-addressable -fipa-sra
  45              	@ -fipa-stack-alignment -fipa-vrp -fira-hoist-pressure
  46              	@ -fira-share-save-slots -fira-share-spill-slots
  47              	@ -fisolate-erroneous-paths-dereference -fivopts -fkeep-static-consts
  48              	@ -fleading-underscore -flifetime-dse -flra-remat -fmath-errno
  49              	@ -fmerge-constants -fmerge-debug-strings -fmove-loop-invariants
  50              	@ -fomit-frame-pointer -foptimize-sibling-calls -fpartial-inlining
  51              	@ -fpeephole -fpeephole2 -fplt -fprefetch-loop-arrays -freg-struct-return
  52              	@ -freorder-blocks -freorder-functions -frerun-cse-after-loop
  53              	@ -fsched-critical-path-heuristic -fsched-dep-count-heuristic
  54              	@ -fsched-group-heuristic -fsched-interblock -fsched-last-insn-heuristic
  55              	@ -fsched-pressure -fsched-rank-heuristic -fsched-spec
  56              	@ -fsched-spec-insn-heuristic -fsched-stalled-insns-dep -fschedule-insns2
  57              	@ -fsection-anchors -fsemantic-interposition -fshow-column
ARM GAS  /tmp/ccxAy8dA.s 			page 2


  58              	@ -fshrink-wrap-separate -fsigned-zeros -fsplit-ivs-in-unroller
  59              	@ -fsplit-wide-types -fssa-backprop -fssa-phiopt -fstdarg-opt
  60              	@ -fstore-merging -fstrict-aliasing -fstrict-volatile-bitfields
  61              	@ -fsync-libcalls -fthread-jumps -ftoplevel-reorder -ftrapping-math
  62              	@ -ftree-bit-ccp -ftree-builtin-call-dce -ftree-ccp -ftree-ch
  63              	@ -ftree-coalesce-vars -ftree-copy-prop -ftree-cselim -ftree-dce
  64              	@ -ftree-dominator-opts -ftree-dse -ftree-forwprop -ftree-fre
  65              	@ -ftree-loop-distribute-patterns -ftree-loop-if-convert -ftree-loop-im
  66              	@ -ftree-loop-ivcanon -ftree-loop-optimize -ftree-parallelize-loops=
  67              	@ -ftree-phiprop -ftree-pre -ftree-pta -ftree-reassoc -ftree-scev-cprop
  68              	@ -ftree-sink -ftree-slsr -ftree-sra -ftree-switch-conversion
  69              	@ -ftree-tail-merge -ftree-ter -ftree-vrp -funit-at-a-time -fvar-tracking
  70              	@ -fvar-tracking-assignments -fverbose-asm -fzero-initialized-in-bss
  71              	@ -masm-syntax-unified -mbe32 -mfix-cortex-m3-ldrd -mlittle-endian
  72              	@ -mpic-data-is-text-relative -msched-prolog -mthumb -munaligned-access
  73              	@ -mvectorize-with-neon-quad
  74              	
  75              		.text
  76              	.Ltext0:
  77              		.cfi_sections	.debug_frame
  78              		.align	1
  79              		.syntax unified
  80              		.thumb
  81              		.thumb_func
  82              		.type	task2, %function
  83              	task2:
  84              	.LVL0:
  85              	.LFB45:
  86              		.file 1 "../5-PWM_LCD_SERIAL/main.c"
   1:../5-PWM_LCD_SERIAL/main.c **** /*
   2:../5-PWM_LCD_SERIAL/main.c ****  * Projeto LCD
   3:../5-PWM_LCD_SERIAL/main.c ****  *		Modificações necessárias: 
   4:../5-PWM_LCD_SERIAL/main.c ****  *		  FreeRTOSConfig:
   5:../5-PWM_LCD_SERIAL/main.c ****  *			 TICK_RATE_HZ definido em (100000)Hz -> 1µs
   6:../5-PWM_LCD_SERIAL/main.c ****  *
   7:../5-PWM_LCD_SERIAL/main.c ****  *	Clock do sistema: 
   8:../5-PWM_LCD_SERIAL/main.c ****  *		72Mhz
   9:../5-PWM_LCD_SERIAL/main.c ****  *	
  10:../5-PWM_LCD_SERIAL/main.c ****  *	Lib construída para Arduíno UNO:
  11:../5-PWM_LCD_SERIAL/main.c ****  *		myLcd.h
  12:../5-PWM_LCD_SERIAL/main.c ****  *			#define delayMicroseconds(X)   vTaskDelay(X)
  13:../5-PWM_LCD_SERIAL/main.c ****  *			#define delay(X)  vTaskDelay(X)
  14:../5-PWM_LCD_SERIAL/main.c ****  * */
  15:../5-PWM_LCD_SERIAL/main.c **** //
  16:../5-PWM_LCD_SERIAL/main.c **** // FreeRTOS: 
  17:../5-PWM_LCD_SERIAL/main.c **** 
  18:../5-PWM_LCD_SERIAL/main.c **** #include "FreeRTOS.h"
  19:../5-PWM_LCD_SERIAL/main.c **** #include "queue.h"
  20:../5-PWM_LCD_SERIAL/main.c **** #include "task.h"
  21:../5-PWM_LCD_SERIAL/main.c **** 
  22:../5-PWM_LCD_SERIAL/main.c **** #include <string.h>
  23:../5-PWM_LCD_SERIAL/main.c **** #include <stdlib.h>
  24:../5-PWM_LCD_SERIAL/main.c **** 
  25:../5-PWM_LCD_SERIAL/main.c **** #define __delay_ms( TEMPO ) vTaskDelay(pdMS_TO_TICKS( TEMPO ))
  26:../5-PWM_LCD_SERIAL/main.c **** #define __delay( TEMPO ) vTaskDelay( TEMPO )
  27:../5-PWM_LCD_SERIAL/main.c **** 
  28:../5-PWM_LCD_SERIAL/main.c **** #include "stm32f10x.h"
ARM GAS  /tmp/ccxAy8dA.s 			page 3


  29:../5-PWM_LCD_SERIAL/main.c **** #include "stm32f10x_tim.h"
  30:../5-PWM_LCD_SERIAL/main.c **** #include "Me.h"
  31:../5-PWM_LCD_SERIAL/main.c **** 
  32:../5-PWM_LCD_SERIAL/main.c **** // LCD 16x2
  33:../5-PWM_LCD_SERIAL/main.c **** #include "myLcd.h"
  34:../5-PWM_LCD_SERIAL/main.c **** #include "Serial.h"
  35:../5-PWM_LCD_SERIAL/main.c **** // #include "PWM.h"
  36:../5-PWM_LCD_SERIAL/main.c **** // #include "dht11.h"
  37:../5-PWM_LCD_SERIAL/main.c **** #include "DHT11.h"
  38:../5-PWM_LCD_SERIAL/main.c **** 
  39:../5-PWM_LCD_SERIAL/main.c **** #define BIN 2
  40:../5-PWM_LCD_SERIAL/main.c **** #define OCT 8
  41:../5-PWM_LCD_SERIAL/main.c **** #define DEC 10
  42:../5-PWM_LCD_SERIAL/main.c **** #define HEX 16
  43:../5-PWM_LCD_SERIAL/main.c **** 
  44:../5-PWM_LCD_SERIAL/main.c **** 
  45:../5-PWM_LCD_SERIAL/main.c **** 
  46:../5-PWM_LCD_SERIAL/main.c **** #define CKSUM_FAIL_DHT11 -2 	
  47:../5-PWM_LCD_SERIAL/main.c **** #define TMOUT_DHT11 -1
  48:../5-PWM_LCD_SERIAL/main.c **** 
  49:../5-PWM_LCD_SERIAL/main.c **** static QueueHandle_t LCD_DHT_queue; 
  50:../5-PWM_LCD_SERIAL/main.c **** static void task1(void *args __attribute((unused))) {
  51:../5-PWM_LCD_SERIAL/main.c **** 
  52:../5-PWM_LCD_SERIAL/main.c **** 	/* [2---]
  53:../5-PWM_LCD_SERIAL/main.c **** 	 *
  54:../5-PWM_LCD_SERIAL/main.c **** 	 * Tarefa dedicada em mostrar informações no LCD 16x2.
  55:../5-PWM_LCD_SERIAL/main.c **** 	 * Informações de temperatura, ficando aberto para mais
  56:../5-PWM_LCD_SERIAL/main.c **** 	 * funcionalidades
  57:../5-PWM_LCD_SERIAL/main.c **** 	 * 
  58:../5-PWM_LCD_SERIAL/main.c **** 	 * */
  59:../5-PWM_LCD_SERIAL/main.c **** 
  60:../5-PWM_LCD_SERIAL/main.c **** 	RCC->APB2ENR |= (1<<2);
  61:../5-PWM_LCD_SERIAL/main.c **** 	GPIOA->CRL	 = 0x33333300; // Hab PA(2-7) out PP
  62:../5-PWM_LCD_SERIAL/main.c **** 
  63:../5-PWM_LCD_SERIAL/main.c **** 	set_bit(IO,RS);   set_bit(IO,RS);
  64:../5-PWM_LCD_SERIAL/main.c **** 	set_bit(IO,EN);   set_bit(IO,D4);
  65:../5-PWM_LCD_SERIAL/main.c **** 	set_bit(IO,D5);   set_bit(IO,D6);
  66:../5-PWM_LCD_SERIAL/main.c **** 	set_bit(IO,D7);   disp_init();
  67:../5-PWM_LCD_SERIAL/main.c **** 
  68:../5-PWM_LCD_SERIAL/main.c **** 	disp_cmd(0x0C);
  69:../5-PWM_LCD_SERIAL/main.c **** 
  70:../5-PWM_LCD_SERIAL/main.c **** 
  71:../5-PWM_LCD_SERIAL/main.c **** 	/*
  72:../5-PWM_LCD_SERIAL/main.c **** 	disp_text("Iniciando 12345",0,0);
  73:../5-PWM_LCD_SERIAL/main.c **** 	disp_text("0123456789ABCDEF: ",1,0);
  74:../5-PWM_LCD_SERIAL/main.c **** 	__delay_ms(5000);
  75:../5-PWM_LCD_SERIAL/main.c **** */
  76:../5-PWM_LCD_SERIAL/main.c **** 
  77:../5-PWM_LCD_SERIAL/main.c **** 	disp_text("                ", 0, 0);
  78:../5-PWM_LCD_SERIAL/main.c **** 	disp_text("                ", 1, 0);
  79:../5-PWM_LCD_SERIAL/main.c **** 	__delay_ms(500); 
  80:../5-PWM_LCD_SERIAL/main.c **** 
  81:../5-PWM_LCD_SERIAL/main.c **** 	int msg_buf_rev;
  82:../5-PWM_LCD_SERIAL/main.c **** 
  83:../5-PWM_LCD_SERIAL/main.c **** 	while(1){
  84:../5-PWM_LCD_SERIAL/main.c **** 		xQueueReceive(LCD_DHT_queue, &msg_buf_rev, pdMS_TO_TICKS(1));
  85:../5-PWM_LCD_SERIAL/main.c **** 
ARM GAS  /tmp/ccxAy8dA.s 			page 4


  86:../5-PWM_LCD_SERIAL/main.c **** 		disp_number(msg_buf_rev & (0XF << 0), 0,0);
  87:../5-PWM_LCD_SERIAL/main.c **** 		disp_number(msg_buf_rev & (0XF << 8), 1,0);
  88:../5-PWM_LCD_SERIAL/main.c **** 
  89:../5-PWM_LCD_SERIAL/main.c **** 		__delay_ms(500);
  90:../5-PWM_LCD_SERIAL/main.c **** 	}
  91:../5-PWM_LCD_SERIAL/main.c **** }
  92:../5-PWM_LCD_SERIAL/main.c **** 
  93:../5-PWM_LCD_SERIAL/main.c **** static void task2(void *args __attribute ((unused))){
  87              		.loc 1 93 53 view -0
  88              		.cfi_startproc
  89              		@ Volatile: function does not return.
  90              		@ args = 0, pretend = 0, frame = 0
  91              		@ frame_needed = 0, uses_anonymous_args = 0
  94:../5-PWM_LCD_SERIAL/main.c **** 	RCC->APB2ENR |= (1<<4); // En GPIOC
  92              		.loc 1 94 2 view .LVU1
  93              	@ ../5-PWM_LCD_SERIAL/main.c:94: 	RCC->APB2ENR |= (1<<4); // En GPIOC
  94              		.loc 1 94 15 is_stmt 0 view .LVU2
  95 0000 094A     		ldr	r2, .L3	@ tmp120,
  96              	@ ../5-PWM_LCD_SERIAL/main.c:93: static void task2(void *args __attribute ((unused))){
  93:../5-PWM_LCD_SERIAL/main.c **** 	RCC->APB2ENR |= (1<<4); // En GPIOC
  97              		.loc 1 93 53 view .LVU3
  98 0002 08B5     		push	{r3, lr}	@
  99              	.LCFI0:
 100              		.cfi_def_cfa_offset 8
 101              		.cfi_offset 3, -8
 102              		.cfi_offset 14, -4
 103              	@ ../5-PWM_LCD_SERIAL/main.c:94: 	RCC->APB2ENR |= (1<<4); // En GPIOC
 104              		.loc 1 94 15 view .LVU4
 105 0004 9369     		ldr	r3, [r2, #24]	@ _1, MEM[(struct RCC_TypeDef *)1073876992B].APB2ENR
 106              	@ ../5-PWM_LCD_SERIAL/main.c:95: 	GPIOC->CRH	|= (0b11<< 20); // PC13 out PP 
  95:../5-PWM_LCD_SERIAL/main.c **** 	GPIOC->CRH	|= (0b11<< 20); // PC13 out PP 
 107              		.loc 1 95 13 view .LVU5
 108 0006 094C     		ldr	r4, .L3+4	@ tmp122,
 109              	@ ../5-PWM_LCD_SERIAL/main.c:94: 	RCC->APB2ENR |= (1<<4); // En GPIOC
  94:../5-PWM_LCD_SERIAL/main.c **** 	RCC->APB2ENR |= (1<<4); // En GPIOC
 110              		.loc 1 94 15 view .LVU6
 111 0008 43F01003 		orr	r3, r3, #16	@ _2, _1,
 112 000c 9361     		str	r3, [r2, #24]	@ _2, MEM[(struct RCC_TypeDef *)1073876992B].APB2ENR
 113              		.loc 1 95 2 is_stmt 1 view .LVU7
 114              	@ ../5-PWM_LCD_SERIAL/main.c:95: 	GPIOC->CRH	|= (0b11<< 20); // PC13 out PP 
 115              		.loc 1 95 13 is_stmt 0 view .LVU8
 116 000e 6368     		ldr	r3, [r4, #4]	@ _3, MEM[(struct GPIO_TypeDef *)1073811456B].CRH
 117 0010 43F44013 		orr	r3, r3, #3145728	@ _4, _3,
 118 0014 6360     		str	r3, [r4, #4]	@ _4, MEM[(struct GPIO_TypeDef *)1073811456B].CRH
 119              	.LVL1:
 120              	.L2:
  96:../5-PWM_LCD_SERIAL/main.c **** 
  97:../5-PWM_LCD_SERIAL/main.c **** 	while(1){
 121              		.loc 1 97 2 is_stmt 1 discriminator 1 view .LVU9
  98:../5-PWM_LCD_SERIAL/main.c **** 		GPIOC->ODR	^= (1<<13);
 122              		.loc 1 98 3 discriminator 1 view .LVU10
 123              	@ ../5-PWM_LCD_SERIAL/main.c:98: 		GPIOC->ODR	^= (1<<13);
 124              		.loc 1 98 14 is_stmt 0 discriminator 1 view .LVU11
 125 0016 E368     		ldr	r3, [r4, #12]	@ _5, MEM[(struct GPIO_TypeDef *)1073811456B].ODR
 126              	@ ../5-PWM_LCD_SERIAL/main.c:99: 		__delay_ms(50);
  99:../5-PWM_LCD_SERIAL/main.c **** 		__delay_ms(50);
 127              		.loc 1 99 3 discriminator 1 view .LVU12
ARM GAS  /tmp/ccxAy8dA.s 			page 5


 128 0018 41F28830 		movw	r0, #5000	@,
 129              	@ ../5-PWM_LCD_SERIAL/main.c:98: 		GPIOC->ODR	^= (1<<13);
  98:../5-PWM_LCD_SERIAL/main.c **** 		GPIOC->ODR	^= (1<<13);
 130              		.loc 1 98 14 discriminator 1 view .LVU13
 131 001c 83F40053 		eor	r3, r3, #8192	@ _6, _5,
 132 0020 E360     		str	r3, [r4, #12]	@ _6, MEM[(struct GPIO_TypeDef *)1073811456B].ODR
 133              		.loc 1 99 3 is_stmt 1 discriminator 1 view .LVU14
 134 0022 FFF7FEFF 		bl	vTaskDelay		@
 135              	.LVL2:
  97:../5-PWM_LCD_SERIAL/main.c **** 		GPIOC->ODR	^= (1<<13);
 136              		.loc 1 97 7 discriminator 1 view .LVU15
 137 0026 F6E7     		b	.L2		@
 138              	.L4:
 139              		.align	2
 140              	.L3:
 141 0028 00100240 		.word	1073876992
 142 002c 00100140 		.word	1073811456
 143              		.cfi_endproc
 144              	.LFE45:
 145              		.size	task2, .-task2
 146              		.section	.rodata.str1.1,"aMS",%progbits,1
 147              	.LC0:
 148 0000 20202020 		.ascii	"                \000"
 148      20202020 
 148      20202020 
 148      20202020 
 148      00
 149              		.text
 150              		.align	1
 151              		.syntax unified
 152              		.thumb
 153              		.thumb_func
 154              		.type	task1, %function
 155              	task1:
 156              	.LVL3:
 157              	.LFB44:
  50:../5-PWM_LCD_SERIAL/main.c **** 
 158              		.loc 1 50 53 view -0
 159              		.cfi_startproc
 160              		@ Volatile: function does not return.
 161              		@ args = 0, pretend = 0, frame = 8
 162              		@ frame_needed = 0, uses_anonymous_args = 0
  60:../5-PWM_LCD_SERIAL/main.c **** 	GPIOA->CRL	 = 0x33333300; // Hab PA(2-7) out PP
 163              		.loc 1 60 2 view .LVU17
 164              	@ ../5-PWM_LCD_SERIAL/main.c:50: static void task1(void *args __attribute((unused))) {
  50:../5-PWM_LCD_SERIAL/main.c **** 
 165              		.loc 1 50 53 is_stmt 0 view .LVU18
 166 0030 07B5     		push	{r0, r1, r2, lr}	@
 167              	.LCFI1:
 168              		.cfi_def_cfa_offset 16
 169              		.cfi_offset 14, -4
 170              	@ ../5-PWM_LCD_SERIAL/main.c:60: 	RCC->APB2ENR |= (1<<2);
  60:../5-PWM_LCD_SERIAL/main.c **** 	GPIOA->CRL	 = 0x33333300; // Hab PA(2-7) out PP
 171              		.loc 1 60 15 view .LVU19
 172 0032 284A     		ldr	r2, .L7	@ tmp137,
 173              	@ ../5-PWM_LCD_SERIAL/main.c:84: 		xQueueReceive(LCD_DHT_queue, &msg_buf_rev, pdMS_TO_TICKS(1));
  84:../5-PWM_LCD_SERIAL/main.c **** 
ARM GAS  /tmp/ccxAy8dA.s 			page 6


 174              		.loc 1 84 3 view .LVU20
 175 0034 284C     		ldr	r4, .L7+4	@ tmp158,
 176              	@ ../5-PWM_LCD_SERIAL/main.c:60: 	RCC->APB2ENR |= (1<<2);
  60:../5-PWM_LCD_SERIAL/main.c **** 	GPIOA->CRL	 = 0x33333300; // Hab PA(2-7) out PP
 177              		.loc 1 60 15 view .LVU21
 178 0036 9369     		ldr	r3, [r2, #24]	@ _1, MEM[(struct RCC_TypeDef *)1073876992B].APB2ENR
 179 0038 43F00403 		orr	r3, r3, #4	@ _2, _1,
 180 003c 9361     		str	r3, [r2, #24]	@ _2, MEM[(struct RCC_TypeDef *)1073876992B].APB2ENR
  61:../5-PWM_LCD_SERIAL/main.c **** 
 181              		.loc 1 61 2 is_stmt 1 view .LVU22
 182              	@ ../5-PWM_LCD_SERIAL/main.c:61: 	GPIOA->CRL	 = 0x33333300; // Hab PA(2-7) out PP
  61:../5-PWM_LCD_SERIAL/main.c **** 
 183              		.loc 1 61 14 is_stmt 0 view .LVU23
 184 003e 274B     		ldr	r3, .L7+8	@ tmp139,
 185 0040 274A     		ldr	r2, .L7+12	@ tmp140,
 186 0042 1A60     		str	r2, [r3]	@ tmp140, MEM[(struct GPIO_TypeDef *)1073809408B].CRL
  63:../5-PWM_LCD_SERIAL/main.c **** 	set_bit(IO,EN);   set_bit(IO,D4);
 187              		.loc 1 63 2 is_stmt 1 view .LVU24
 188 0044 DA68     		ldr	r2, [r3, #12]	@ _3, MEM[(struct GPIO_TypeDef *)1073809408B].ODR
 189 0046 42F08002 		orr	r2, r2, #128	@ _4, _3,
 190 004a DA60     		str	r2, [r3, #12]	@ _4, MEM[(struct GPIO_TypeDef *)1073809408B].ODR
  63:../5-PWM_LCD_SERIAL/main.c **** 	set_bit(IO,EN);   set_bit(IO,D4);
 191              		.loc 1 63 20 view .LVU25
 192 004c DA68     		ldr	r2, [r3, #12]	@ _5, MEM[(struct GPIO_TypeDef *)1073809408B].ODR
 193 004e 42F08002 		orr	r2, r2, #128	@ _6, _5,
 194 0052 DA60     		str	r2, [r3, #12]	@ _6, MEM[(struct GPIO_TypeDef *)1073809408B].ODR
  64:../5-PWM_LCD_SERIAL/main.c **** 	set_bit(IO,D5);   set_bit(IO,D6);
 195              		.loc 1 64 2 view .LVU26
 196 0054 DA68     		ldr	r2, [r3, #12]	@ _7, MEM[(struct GPIO_TypeDef *)1073809408B].ODR
 197 0056 42F04002 		orr	r2, r2, #64	@ _8, _7,
 198 005a DA60     		str	r2, [r3, #12]	@ _8, MEM[(struct GPIO_TypeDef *)1073809408B].ODR
  64:../5-PWM_LCD_SERIAL/main.c **** 	set_bit(IO,D5);   set_bit(IO,D6);
 199              		.loc 1 64 20 view .LVU27
 200 005c DA68     		ldr	r2, [r3, #12]	@ _9, MEM[(struct GPIO_TypeDef *)1073809408B].ODR
 201 005e 42F02002 		orr	r2, r2, #32	@ _10, _9,
 202 0062 DA60     		str	r2, [r3, #12]	@ _10, MEM[(struct GPIO_TypeDef *)1073809408B].ODR
  65:../5-PWM_LCD_SERIAL/main.c **** 	set_bit(IO,D7);   disp_init();
 203              		.loc 1 65 2 view .LVU28
 204 0064 DA68     		ldr	r2, [r3, #12]	@ _11, MEM[(struct GPIO_TypeDef *)1073809408B].ODR
 205 0066 42F01002 		orr	r2, r2, #16	@ _12, _11,
 206 006a DA60     		str	r2, [r3, #12]	@ _12, MEM[(struct GPIO_TypeDef *)1073809408B].ODR
  65:../5-PWM_LCD_SERIAL/main.c **** 	set_bit(IO,D7);   disp_init();
 207              		.loc 1 65 20 view .LVU29
 208 006c DA68     		ldr	r2, [r3, #12]	@ _13, MEM[(struct GPIO_TypeDef *)1073809408B].ODR
 209 006e 42F00802 		orr	r2, r2, #8	@ _14, _13,
 210 0072 DA60     		str	r2, [r3, #12]	@ _14, MEM[(struct GPIO_TypeDef *)1073809408B].ODR
  66:../5-PWM_LCD_SERIAL/main.c **** 
 211              		.loc 1 66 2 view .LVU30
 212 0074 DA68     		ldr	r2, [r3, #12]	@ _15, MEM[(struct GPIO_TypeDef *)1073809408B].ODR
 213 0076 42F00402 		orr	r2, r2, #4	@ _16, _15,
 214 007a DA60     		str	r2, [r3, #12]	@ _16, MEM[(struct GPIO_TypeDef *)1073809408B].ODR
  66:../5-PWM_LCD_SERIAL/main.c **** 
 215              		.loc 1 66 20 view .LVU31
 216 007c FFF7FEFF 		bl	disp_init		@
 217              	.LVL4:
  68:../5-PWM_LCD_SERIAL/main.c **** 
 218              		.loc 1 68 2 view .LVU32
ARM GAS  /tmp/ccxAy8dA.s 			page 7


 219 0080 0C20     		movs	r0, #12	@,
 220 0082 FFF7FEFF 		bl	disp_cmd		@
 221              	.LVL5:
  77:../5-PWM_LCD_SERIAL/main.c **** 	disp_text("                ", 1, 0);
 222              		.loc 1 77 2 view .LVU33
 223 0086 0022     		movs	r2, #0	@,
 224 0088 1648     		ldr	r0, .L7+16	@,
 225 008a 1146     		mov	r1, r2	@,
 226 008c FFF7FEFF 		bl	disp_text		@
 227              	.LVL6:
  78:../5-PWM_LCD_SERIAL/main.c **** 	__delay_ms(500); 
 228              		.loc 1 78 2 view .LVU34
 229 0090 0022     		movs	r2, #0	@,
 230 0092 0121     		movs	r1, #1	@,
 231 0094 1348     		ldr	r0, .L7+16	@,
 232 0096 FFF7FEFF 		bl	disp_text		@
 233              	.LVL7:
  79:../5-PWM_LCD_SERIAL/main.c **** 
 234              		.loc 1 79 2 view .LVU35
 235 009a 4CF25030 		movw	r0, #50000	@,
 236 009e FFF7FEFF 		bl	vTaskDelay		@
 237              	.LVL8:
 238              	.L6:
  81:../5-PWM_LCD_SERIAL/main.c **** 
 239              		.loc 1 81 2 discriminator 1 view .LVU36
  83:../5-PWM_LCD_SERIAL/main.c **** 		xQueueReceive(LCD_DHT_queue, &msg_buf_rev, pdMS_TO_TICKS(1));
 240              		.loc 1 83 2 discriminator 1 view .LVU37
  84:../5-PWM_LCD_SERIAL/main.c **** 
 241              		.loc 1 84 3 discriminator 1 view .LVU38
 242 00a2 01A9     		add	r1, sp, #4	@ tmp165,,
 243 00a4 6422     		movs	r2, #100	@,
 244 00a6 2068     		ldr	r0, [r4]	@, LCD_DHT_queue
 245 00a8 FFF7FEFF 		bl	xQueueReceive		@
 246              	.LVL9:
  86:../5-PWM_LCD_SERIAL/main.c **** 		disp_number(msg_buf_rev & (0XF << 8), 1,0);
 247              		.loc 1 86 3 discriminator 1 view .LVU39
 248 00ac 0022     		movs	r2, #0	@,
 249 00ae 0198     		ldr	r0, [sp, #4]	@ msg_buf_rev, msg_buf_rev
 250 00b0 1146     		mov	r1, r2	@,
 251 00b2 00F00F00 		and	r0, r0, #15	@, msg_buf_rev,
 252 00b6 FFF7FEFF 		bl	disp_number		@
 253              	.LVL10:
  87:../5-PWM_LCD_SERIAL/main.c **** 
 254              		.loc 1 87 3 discriminator 1 view .LVU40
 255 00ba 0198     		ldr	r0, [sp, #4]	@ msg_buf_rev, msg_buf_rev
 256 00bc 0022     		movs	r2, #0	@,
 257 00be 0121     		movs	r1, #1	@,
 258 00c0 00F47060 		and	r0, r0, #3840	@, msg_buf_rev,
 259 00c4 FFF7FEFF 		bl	disp_number		@
 260              	.LVL11:
  89:../5-PWM_LCD_SERIAL/main.c **** 	}
 261              		.loc 1 89 3 discriminator 1 view .LVU41
 262 00c8 4CF25030 		movw	r0, #50000	@,
 263 00cc FFF7FEFF 		bl	vTaskDelay		@
 264              	.LVL12:
  83:../5-PWM_LCD_SERIAL/main.c **** 		xQueueReceive(LCD_DHT_queue, &msg_buf_rev, pdMS_TO_TICKS(1));
 265              		.loc 1 83 7 discriminator 1 view .LVU42
ARM GAS  /tmp/ccxAy8dA.s 			page 8


 266 00d0 E7E7     		b	.L6		@
 267              	.L8:
 268 00d2 00BF     		.align	2
 269              	.L7:
 270 00d4 00100240 		.word	1073876992
 271 00d8 00000000 		.word	.LANCHOR0
 272 00dc 00080140 		.word	1073809408
 273 00e0 00333333 		.word	858993408
 274 00e4 00000000 		.word	.LC0
 275              		.cfi_endproc
 276              	.LFE44:
 277              		.size	task1, .-task1
 278              		.align	1
 279              		.global	ADC1_configure
 280              		.syntax unified
 281              		.thumb
 282              		.thumb_func
 283              		.type	ADC1_configure, %function
 284              	ADC1_configure:
 285              	.LFB34:
 286              		.file 2 "../5-PWM_LCD_SERIAL/Me.h"
   1:../5-PWM_LCD_SERIAL/Me.h **** #define __IO volatile
   2:../5-PWM_LCD_SERIAL/Me.h **** 
   3:../5-PWM_LCD_SERIAL/Me.h **** void SystemInit (void);
   4:../5-PWM_LCD_SERIAL/Me.h **** void nvic_IntDisble(u8 IRQn);
   5:../5-PWM_LCD_SERIAL/Me.h **** void nvic_intEnable(u8 IRQn);
   6:../5-PWM_LCD_SERIAL/Me.h **** void set_system_clock_to_25Mhz (void);
   7:../5-PWM_LCD_SERIAL/Me.h **** void set_system_clock_to_72Mhz(void);
   8:../5-PWM_LCD_SERIAL/Me.h **** void Delay ( __IO u32 T );
   9:../5-PWM_LCD_SERIAL/Me.h **** void enable_TIM3_delay (void);
  10:../5-PWM_LCD_SERIAL/Me.h **** void ADC1_configure();
  11:../5-PWM_LCD_SERIAL/Me.h **** 
  12:../5-PWM_LCD_SERIAL/Me.h **** #define DelayUs(X) Delay(X)
  13:../5-PWM_LCD_SERIAL/Me.h **** 
  14:../5-PWM_LCD_SERIAL/Me.h **** void ADC1_configure(){
 287              		.loc 2 14 22 view -0
 288              		.cfi_startproc
 289              		@ args = 0, pretend = 0, frame = 0
 290              		@ frame_needed = 0, uses_anonymous_args = 0
 291              		@ link register save eliminated.
  15:../5-PWM_LCD_SERIAL/Me.h **** 	RCC->APB2ENR |= 1UL<<2 ; // Hab. GPIOA
 292              		.loc 2 15 2 view .LVU44
 293              	@ ../5-PWM_LCD_SERIAL/Me.h:15: 	RCC->APB2ENR |= 1UL<<2 ; // Hab. GPIOA
 294              		.loc 2 15 15 is_stmt 0 view .LVU45
 295 00e8 1F4B     		ldr	r3, .L14	@ tmp141,
 296              	@ ../5-PWM_LCD_SERIAL/Me.h:16: 	GPIOA->CRL &= ~(0x0F << 4); // Define A1 Input Analogic
  16:../5-PWM_LCD_SERIAL/Me.h **** 	GPIOA->CRL &= ~(0x0F << 4); // Define A1 Input Analogic
 297              		.loc 2 16 13 view .LVU46
 298 00ea 2049     		ldr	r1, .L14+4	@ tmp143,
 299              	@ ../5-PWM_LCD_SERIAL/Me.h:15: 	RCC->APB2ENR |= 1UL<<2 ; // Hab. GPIOA
  15:../5-PWM_LCD_SERIAL/Me.h **** 	RCC->APB2ENR |= 1UL<<2 ; // Hab. GPIOA
 300              		.loc 2 15 15 view .LVU47
 301 00ec 9A69     		ldr	r2, [r3, #24]	@ _1, MEM[(struct RCC_TypeDef *)1073876992B].APB2ENR
 302 00ee 42F00402 		orr	r2, r2, #4	@ _2, _1,
 303 00f2 9A61     		str	r2, [r3, #24]	@ _2, MEM[(struct RCC_TypeDef *)1073876992B].APB2ENR
 304              		.loc 2 16 2 is_stmt 1 view .LVU48
 305              	@ ../5-PWM_LCD_SERIAL/Me.h:16: 	GPIOA->CRL &= ~(0x0F << 4); // Define A1 Input Analogic
ARM GAS  /tmp/ccxAy8dA.s 			page 9


 306              		.loc 2 16 13 is_stmt 0 view .LVU49
 307 00f4 0A68     		ldr	r2, [r1]	@ _3, MEM[(struct GPIO_TypeDef *)1073809408B].CRL
 308 00f6 22F0F002 		bic	r2, r2, #240	@ _4, _3,
 309 00fa 0A60     		str	r2, [r1]	@ _4, MEM[(struct GPIO_TypeDef *)1073809408B].CRL
  17:../5-PWM_LCD_SERIAL/Me.h **** 	
  18:../5-PWM_LCD_SERIAL/Me.h **** 	RCC->APB2ENR |= (1<<9); // Bit 9 ADC1EN: ADC 1 
 310              		.loc 2 18 2 is_stmt 1 view .LVU50
 311              	@ ../5-PWM_LCD_SERIAL/Me.h:18: 	RCC->APB2ENR |= (1<<9); // Bit 9 ADC1EN: ADC 1 
 312              		.loc 2 18 15 is_stmt 0 view .LVU51
 313 00fc 9A69     		ldr	r2, [r3, #24]	@ _5, MEM[(struct RCC_TypeDef *)1073876992B].APB2ENR
 314 00fe 42F40072 		orr	r2, r2, #512	@ _6, _5,
 315 0102 9A61     		str	r2, [r3, #24]	@ _6, MEM[(struct RCC_TypeDef *)1073876992B].APB2ENR
  19:../5-PWM_LCD_SERIAL/Me.h **** 									// interface clock enable
  20:../5-PWM_LCD_SERIAL/Me.h **** 
  21:../5-PWM_LCD_SERIAL/Me.h **** 	RCC->CFGR	|= (0b10 << 14); // Bits 15:14 ADCPRE:
 316              		.loc 2 21 2 is_stmt 1 view .LVU52
 317              	@ ../5-PWM_LCD_SERIAL/Me.h:21: 	RCC->CFGR	|= (0b10 << 14); // Bits 15:14 ADCPRE:
 318              		.loc 2 21 12 is_stmt 0 view .LVU53
 319 0104 5A68     		ldr	r2, [r3, #4]	@ _7, MEM[(struct RCC_TypeDef *)1073876992B].CFGR
 320 0106 42F40042 		orr	r2, r2, #32768	@ _8, _7,
 321 010a 5A60     		str	r2, [r3, #4]	@ _8, MEM[(struct RCC_TypeDef *)1073876992B].CFGR
  22:../5-PWM_LCD_SERIAL/Me.h **** 										  // ADC prescaler 10:
  23:../5-PWM_LCD_SERIAL/Me.h **** 										  //    PCLK2 divided by 6
  24:../5-PWM_LCD_SERIAL/Me.h **** 	// Enable End of Conversion (EOC) interrupt
  25:../5-PWM_LCD_SERIAL/Me.h **** 	ADC1->CR1 |= (1 << 5);
 322              		.loc 2 25 2 is_stmt 1 view .LVU54
 323              	@ ../5-PWM_LCD_SERIAL/Me.h:25: 	ADC1->CR1 |= (1 << 5);
 324              		.loc 2 25 12 is_stmt 0 view .LVU55
 325 010c A3F56C43 		sub	r3, r3, #60416	@ tmp149, tmp149,
 326 0110 5A68     		ldr	r2, [r3, #4]	@ _9, MEM[(struct ADC_TypeDef *)1073816576B].CR1
 327 0112 42F02002 		orr	r2, r2, #32	@ _10, _9,
 328 0116 5A60     		str	r2, [r3, #4]	@ _10, MEM[(struct ADC_TypeDef *)1073816576B].CR1
  26:../5-PWM_LCD_SERIAL/Me.h **** 
  27:../5-PWM_LCD_SERIAL/Me.h **** 	// One conversion
  28:../5-PWM_LCD_SERIAL/Me.h **** 	ADC1->SQR1 = 0x00000000;
 329              		.loc 2 28 2 is_stmt 1 view .LVU56
 330              	@ ../5-PWM_LCD_SERIAL/Me.h:28: 	ADC1->SQR1 = 0x00000000;
 331              		.loc 2 28 13 is_stmt 0 view .LVU57
 332 0118 0022     		movs	r2, #0	@ tmp152,
 333 011a DA62     		str	r2, [r3, #44]	@ tmp152, MEM[(struct ADC_TypeDef *)1073816576B].SQR1
  29:../5-PWM_LCD_SERIAL/Me.h **** 
  30:../5-PWM_LCD_SERIAL/Me.h **** 	// Choose the analog channel to read
  31:../5-PWM_LCD_SERIAL/Me.h **** 	// Since we want channel 10 to be the first
  32:../5-PWM_LCD_SERIAL/Me.h **** 	//   conversion we write 10 to SQ1 bits (3:0)
  33:../5-PWM_LCD_SERIAL/Me.h **** 	//   which is in SQR3 register. For multiple conversions
  34:../5-PWM_LCD_SERIAL/Me.h **** 	//   keep writing the channel numbers to SQx bits.
  35:../5-PWM_LCD_SERIAL/Me.h **** 	 ADC1->SQR3 = (10 << 0);
 334              		.loc 2 35 3 is_stmt 1 view .LVU58
 335              	@ ../5-PWM_LCD_SERIAL/Me.h:35: 	 ADC1->SQR3 = (10 << 0);
 336              		.loc 2 35 14 is_stmt 0 view .LVU59
 337 011c 0A22     		movs	r2, #10	@ tmp154,
 338 011e 5A63     		str	r2, [r3, #52]	@ tmp154, MEM[(struct ADC_TypeDef *)1073816576B].SQR3
  36:../5-PWM_LCD_SERIAL/Me.h **** 
  37:../5-PWM_LCD_SERIAL/Me.h **** 	// Set up software trigger to start conversion
  38:../5-PWM_LCD_SERIAL/Me.h **** 	ADC1->CR2 |= (7 << 17);  // Select SWSTART as trigger
 339              		.loc 2 38 2 is_stmt 1 view .LVU60
 340              	@ ../5-PWM_LCD_SERIAL/Me.h:38: 	ADC1->CR2 |= (7 << 17);  // Select SWSTART as trigger
ARM GAS  /tmp/ccxAy8dA.s 			page 10


 341              		.loc 2 38 12 is_stmt 0 view .LVU61
 342 0120 9A68     		ldr	r2, [r3, #8]	@ _11, MEM[(struct ADC_TypeDef *)1073816576B].CR2
 343 0122 42F46022 		orr	r2, r2, #917504	@ _12, _11,
 344 0126 9A60     		str	r2, [r3, #8]	@ _12, MEM[(struct ADC_TypeDef *)1073816576B].CR2
  39:../5-PWM_LCD_SERIAL/Me.h **** 	ADC1->CR2 |= (1 << 20);  // Enable external trigger
 345              		.loc 2 39 2 is_stmt 1 view .LVU62
 346              	@ ../5-PWM_LCD_SERIAL/Me.h:39: 	ADC1->CR2 |= (1 << 20);  // Enable external trigger
 347              		.loc 2 39 12 is_stmt 0 view .LVU63
 348 0128 9A68     		ldr	r2, [r3, #8]	@ _13, MEM[(struct ADC_TypeDef *)1073816576B].CR2
 349 012a 42F48012 		orr	r2, r2, #1048576	@ _14, _13,
 350 012e 9A60     		str	r2, [r3, #8]	@ _14, MEM[(struct ADC_TypeDef *)1073816576B].CR2
  40:../5-PWM_LCD_SERIAL/Me.h **** 
  41:../5-PWM_LCD_SERIAL/Me.h **** 	// Enable continuous conversion
  42:../5-PWM_LCD_SERIAL/Me.h **** 	ADC1->CR2 |= (1 << 1);
 351              		.loc 2 42 2 is_stmt 1 view .LVU64
 352              	@ ../5-PWM_LCD_SERIAL/Me.h:42: 	ADC1->CR2 |= (1 << 1);
 353              		.loc 2 42 12 is_stmt 0 view .LVU65
 354 0130 9A68     		ldr	r2, [r3, #8]	@ _15, MEM[(struct ADC_TypeDef *)1073816576B].CR2
 355 0132 42F00202 		orr	r2, r2, #2	@ _16, _15,
 356 0136 9A60     		str	r2, [r3, #8]	@ _16, MEM[(struct ADC_TypeDef *)1073816576B].CR2
  43:../5-PWM_LCD_SERIAL/Me.h **** 
  44:../5-PWM_LCD_SERIAL/Me.h **** 	// enable_interrupt(ADC1_2_IRQn);
  45:../5-PWM_LCD_SERIAL/Me.h **** 
  46:../5-PWM_LCD_SERIAL/Me.h **** 	// Enable A/D conversion
  47:../5-PWM_LCD_SERIAL/Me.h **** 	ADC1->CR2 |= (1 << 0);
 357              		.loc 2 47 2 is_stmt 1 view .LVU66
 358              	@ ../5-PWM_LCD_SERIAL/Me.h:47: 	ADC1->CR2 |= (1 << 0);
 359              		.loc 2 47 12 is_stmt 0 view .LVU67
 360 0138 9A68     		ldr	r2, [r3, #8]	@ _17, MEM[(struct ADC_TypeDef *)1073816576B].CR2
 361 013a 42F00102 		orr	r2, r2, #1	@ _18, _17,
 362 013e 9A60     		str	r2, [r3, #8]	@ _18, MEM[(struct ADC_TypeDef *)1073816576B].CR2
  48:../5-PWM_LCD_SERIAL/Me.h **** 
  49:../5-PWM_LCD_SERIAL/Me.h **** 	// Calibration reset and start
  50:../5-PWM_LCD_SERIAL/Me.h **** 	//    Optional for better accuracy.
  51:../5-PWM_LCD_SERIAL/Me.h **** 	ADC1->CR2 |= (1 << 3);
 363              		.loc 2 51 2 is_stmt 1 view .LVU68
 364              	@ ../5-PWM_LCD_SERIAL/Me.h:51: 	ADC1->CR2 |= (1 << 3);
 365              		.loc 2 51 12 is_stmt 0 view .LVU69
 366 0140 9A68     		ldr	r2, [r3, #8]	@ _19, MEM[(struct ADC_TypeDef *)1073816576B].CR2
 367 0142 42F00802 		orr	r2, r2, #8	@ _20, _19,
 368 0146 9A60     		str	r2, [r3, #8]	@ _20, MEM[(struct ADC_TypeDef *)1073816576B].CR2
  52:../5-PWM_LCD_SERIAL/Me.h **** 	while((ADC1->CR2 & (1 << 3)));
 369              		.loc 2 52 2 is_stmt 1 view .LVU70
 370              	.L10:
 371              		.loc 2 52 31 discriminator 1 view .LVU71
 372              		.loc 2 52 7 discriminator 1 view .LVU72
 373              	@ ../5-PWM_LCD_SERIAL/Me.h:52: 	while((ADC1->CR2 & (1 << 3)));
 374              		.loc 2 52 13 is_stmt 0 discriminator 1 view .LVU73
 375 0148 9A68     		ldr	r2, [r3, #8]	@ _21, MEM[(struct ADC_TypeDef *)1073816576B].CR2
 376              	@ ../5-PWM_LCD_SERIAL/Me.h:52: 	while((ADC1->CR2 & (1 << 3)));
 377              		.loc 2 52 7 discriminator 1 view .LVU74
 378 014a 1107     		lsls	r1, r2, #28	@, _21,
 379 014c FCD4     		bmi	.L10		@,
  53:../5-PWM_LCD_SERIAL/Me.h **** 	ADC1->CR2 |= (1 << 2);
 380              		.loc 2 53 2 is_stmt 1 view .LVU75
 381              	@ ../5-PWM_LCD_SERIAL/Me.h:53: 	ADC1->CR2 |= (1 << 2);
 382              		.loc 2 53 12 is_stmt 0 view .LVU76
ARM GAS  /tmp/ccxAy8dA.s 			page 11


 383 014e 9A68     		ldr	r2, [r3, #8]	@ _23, MEM[(struct ADC_TypeDef *)1073816576B].CR2
 384 0150 42F00402 		orr	r2, r2, #4	@ _24, _23,
 385 0154 9A60     		str	r2, [r3, #8]	@ _24, MEM[(struct ADC_TypeDef *)1073816576B].CR2
  54:../5-PWM_LCD_SERIAL/Me.h **** 	while((ADC1->CR2 & (1 << 2)));
 386              		.loc 2 54 2 is_stmt 1 view .LVU77
 387              	@ ../5-PWM_LCD_SERIAL/Me.h:54: 	while((ADC1->CR2 & (1 << 2)));
 388              		.loc 2 54 13 is_stmt 0 view .LVU78
 389 0156 064B     		ldr	r3, .L14+8	@ tmp169,
 390              	.L11:
 391              		.loc 2 54 31 is_stmt 1 discriminator 1 view .LVU79
 392              		.loc 2 54 7 discriminator 1 view .LVU80
 393              	@ ../5-PWM_LCD_SERIAL/Me.h:54: 	while((ADC1->CR2 & (1 << 2)));
 394              		.loc 2 54 13 is_stmt 0 discriminator 1 view .LVU81
 395 0158 9A68     		ldr	r2, [r3, #8]	@ _25, MEM[(struct ADC_TypeDef *)1073816576B].CR2
 396              	@ ../5-PWM_LCD_SERIAL/Me.h:54: 	while((ADC1->CR2 & (1 << 2)));
 397              		.loc 2 54 7 discriminator 1 view .LVU82
 398 015a 5207     		lsls	r2, r2, #29	@, _25,
 399 015c FCD4     		bmi	.L11		@,
  55:../5-PWM_LCD_SERIAL/Me.h **** 
  56:../5-PWM_LCD_SERIAL/Me.h **** 	// Start conversion with software trigger
  57:../5-PWM_LCD_SERIAL/Me.h **** 	ADC1->CR2 |= (1<<22);
 400              		.loc 2 57 2 is_stmt 1 view .LVU83
 401              	@ ../5-PWM_LCD_SERIAL/Me.h:57: 	ADC1->CR2 |= (1<<22);
 402              		.loc 2 57 12 is_stmt 0 view .LVU84
 403 015e 9A68     		ldr	r2, [r3, #8]	@ _27, MEM[(struct ADC_TypeDef *)1073816576B].CR2
 404 0160 42F48002 		orr	r2, r2, #4194304	@ _28, _27,
 405 0164 9A60     		str	r2, [r3, #8]	@ _28, MEM[(struct ADC_TypeDef *)1073816576B].CR2
 406              	@ ../5-PWM_LCD_SERIAL/Me.h:60: }
  58:../5-PWM_LCD_SERIAL/Me.h **** 	//
  59:../5-PWM_LCD_SERIAL/Me.h **** 	// Leitura  ADC1->DR  -> Data Register
  60:../5-PWM_LCD_SERIAL/Me.h **** }
 407              		.loc 2 60 1 view .LVU85
 408 0166 7047     		bx	lr	@
 409              	.L15:
 410              		.align	2
 411              	.L14:
 412 0168 00100240 		.word	1073876992
 413 016c 00080140 		.word	1073809408
 414 0170 00240140 		.word	1073816576
 415              		.cfi_endproc
 416              	.LFE34:
 417              		.size	ADC1_configure, .-ADC1_configure
 418              		.align	1
 419              		.global	set_system_clock_to_72Mhz
 420              		.syntax unified
 421              		.thumb
 422              		.thumb_func
 423              		.type	set_system_clock_to_72Mhz, %function
 424              	set_system_clock_to_72Mhz:
 425              	.LFB35:
  61:../5-PWM_LCD_SERIAL/Me.h **** 
  62:../5-PWM_LCD_SERIAL/Me.h **** void set_system_clock_to_72Mhz(void)
  63:../5-PWM_LCD_SERIAL/Me.h **** {
 426              		.loc 2 63 1 is_stmt 1 view -0
 427              		.cfi_startproc
 428              		@ args = 0, pretend = 0, frame = 0
 429              		@ frame_needed = 0, uses_anonymous_args = 0
ARM GAS  /tmp/ccxAy8dA.s 			page 12


 430              		@ link register save eliminated.
  64:../5-PWM_LCD_SERIAL/Me.h ****    // Necessary wait states for Flash for high speeds
  65:../5-PWM_LCD_SERIAL/Me.h ****    FLASH->ACR = 0x12;
 431              		.loc 2 65 4 view .LVU87
 432              	@ ../5-PWM_LCD_SERIAL/Me.h:65:    FLASH->ACR = 0x12;
 433              		.loc 2 65 15 is_stmt 0 view .LVU88
 434 0174 1222     		movs	r2, #18	@ tmp140,
 435 0176 1B4B     		ldr	r3, .L23	@ tmp139,
 436 0178 1A60     		str	r2, [r3]	@ tmp140, MEM[(struct FLASH_TypeDef *)1073881088B].ACR
  66:../5-PWM_LCD_SERIAL/Me.h ****    // Enable HSE
  67:../5-PWM_LCD_SERIAL/Me.h ****    RCC->CR |= (1 << 16);
 437              		.loc 2 67 4 is_stmt 1 view .LVU89
 438              	@ ../5-PWM_LCD_SERIAL/Me.h:67:    RCC->CR |= (1 << 16);
 439              		.loc 2 67 12 is_stmt 0 view .LVU90
 440 017a A3F58053 		sub	r3, r3, #4096	@ tmp141, tmp141,
 441 017e 1A68     		ldr	r2, [r3]	@ _1, MEM[(struct RCC_TypeDef *)1073876992B].CR
 442 0180 42F48032 		orr	r2, r2, #65536	@ _2, _1,
 443 0184 1A60     		str	r2, [r3]	@ _2, MEM[(struct RCC_TypeDef *)1073876992B].CR
  68:../5-PWM_LCD_SERIAL/Me.h ****    // Wait untill HSE settles down
  69:../5-PWM_LCD_SERIAL/Me.h ****    while (!(RCC->CR & (1 << 17)));
 444              		.loc 2 69 4 is_stmt 1 view .LVU91
 445              	.L17:
 446              		.loc 2 69 34 discriminator 1 view .LVU92
 447              		.loc 2 69 10 discriminator 1 view .LVU93
 448              	@ ../5-PWM_LCD_SERIAL/Me.h:69:    while (!(RCC->CR & (1 << 17)));
 449              		.loc 2 69 16 is_stmt 0 discriminator 1 view .LVU94
 450 0186 1A68     		ldr	r2, [r3]	@ _3, MEM[(struct RCC_TypeDef *)1073876992B].CR
 451              	@ ../5-PWM_LCD_SERIAL/Me.h:69:    while (!(RCC->CR & (1 << 17)));
 452              		.loc 2 69 10 discriminator 1 view .LVU95
 453 0188 9103     		lsls	r1, r2, #14	@, _3,
 454 018a FCD5     		bpl	.L17		@,
  70:../5-PWM_LCD_SERIAL/Me.h ****    // Set PREDIV2 division factor to 5
  71:../5-PWM_LCD_SERIAL/Me.h ****    RCC->CFGR2 |= (0b0100 << 4);
 455              		.loc 2 71 4 is_stmt 1 view .LVU96
 456              	@ ../5-PWM_LCD_SERIAL/Me.h:71:    RCC->CFGR2 |= (0b0100 << 4);
 457              		.loc 2 71 15 is_stmt 0 view .LVU97
 458 018c DA6A     		ldr	r2, [r3, #44]	@ _5, MEM[(struct RCC_TypeDef *)1073876992B].CFGR2
 459 018e 42F04002 		orr	r2, r2, #64	@ _6, _5,
 460 0192 DA62     		str	r2, [r3, #44]	@ _6, MEM[(struct RCC_TypeDef *)1073876992B].CFGR2
  72:../5-PWM_LCD_SERIAL/Me.h ****    // Set PLL2 multiplication factor to 8
  73:../5-PWM_LCD_SERIAL/Me.h ****    RCC->CFGR2 |= (0b0110 << 8);
 461              		.loc 2 73 4 is_stmt 1 view .LVU98
 462              	@ ../5-PWM_LCD_SERIAL/Me.h:73:    RCC->CFGR2 |= (0b0110 << 8);
 463              		.loc 2 73 15 is_stmt 0 view .LVU99
 464 0194 DA6A     		ldr	r2, [r3, #44]	@ _7, MEM[(struct RCC_TypeDef *)1073876992B].CFGR2
 465 0196 42F4C062 		orr	r2, r2, #1536	@ _8, _7,
 466 019a DA62     		str	r2, [r3, #44]	@ _8, MEM[(struct RCC_TypeDef *)1073876992B].CFGR2
  74:../5-PWM_LCD_SERIAL/Me.h ****    // Enable PLL2
  75:../5-PWM_LCD_SERIAL/Me.h ****    RCC->CR |= (1 << 26);
 467              		.loc 2 75 4 is_stmt 1 view .LVU100
 468              	@ ../5-PWM_LCD_SERIAL/Me.h:75:    RCC->CR |= (1 << 26);
 469              		.loc 2 75 12 is_stmt 0 view .LVU101
 470 019c 1A68     		ldr	r2, [r3]	@ _9, MEM[(struct RCC_TypeDef *)1073876992B].CR
 471 019e 42F08062 		orr	r2, r2, #67108864	@ _10, _9,
 472 01a2 1A60     		str	r2, [r3]	@ _10, MEM[(struct RCC_TypeDef *)1073876992B].CR
  76:../5-PWM_LCD_SERIAL/Me.h ****    // Wait untill PLL2 settles down
  77:../5-PWM_LCD_SERIAL/Me.h **** 	// while (!(RCC->CR & (1 << 27)));
ARM GAS  /tmp/ccxAy8dA.s 			page 13


  78:../5-PWM_LCD_SERIAL/Me.h ****    // Set PLL2 as PREDIV1 clock source
  79:../5-PWM_LCD_SERIAL/Me.h ****    RCC->CFGR2 |= (1 << 16);
 473              		.loc 2 79 4 is_stmt 1 view .LVU102
 474              	@ ../5-PWM_LCD_SERIAL/Me.h:79:    RCC->CFGR2 |= (1 << 16);
 475              		.loc 2 79 15 is_stmt 0 view .LVU103
 476 01a4 DA6A     		ldr	r2, [r3, #44]	@ _11, MEM[(struct RCC_TypeDef *)1073876992B].CFGR2
 477 01a6 42F48032 		orr	r2, r2, #65536	@ _12, _11,
 478 01aa DA62     		str	r2, [r3, #44]	@ _12, MEM[(struct RCC_TypeDef *)1073876992B].CFGR2
  80:../5-PWM_LCD_SERIAL/Me.h ****    // Set PREDIV1 division factor to 5
  81:../5-PWM_LCD_SERIAL/Me.h ****    RCC->CFGR2 |= (0b0100 << 0);
 479              		.loc 2 81 4 is_stmt 1 view .LVU104
 480              	@ ../5-PWM_LCD_SERIAL/Me.h:81:    RCC->CFGR2 |= (0b0100 << 0);
 481              		.loc 2 81 15 is_stmt 0 view .LVU105
 482 01ac DA6A     		ldr	r2, [r3, #44]	@ _13, MEM[(struct RCC_TypeDef *)1073876992B].CFGR2
 483 01ae 42F00402 		orr	r2, r2, #4	@ _14, _13,
 484 01b2 DA62     		str	r2, [r3, #44]	@ _14, MEM[(struct RCC_TypeDef *)1073876992B].CFGR2
  82:../5-PWM_LCD_SERIAL/Me.h ****    // Select Prediv1 as PLL source
  83:../5-PWM_LCD_SERIAL/Me.h ****    RCC->CFGR |= (1 << 16);
 485              		.loc 2 83 4 is_stmt 1 view .LVU106
 486              	@ ../5-PWM_LCD_SERIAL/Me.h:83:    RCC->CFGR |= (1 << 16);
 487              		.loc 2 83 14 is_stmt 0 view .LVU107
 488 01b4 5A68     		ldr	r2, [r3, #4]	@ _15, MEM[(struct RCC_TypeDef *)1073876992B].CFGR
 489 01b6 42F48032 		orr	r2, r2, #65536	@ _16, _15,
 490 01ba 5A60     		str	r2, [r3, #4]	@ _16, MEM[(struct RCC_TypeDef *)1073876992B].CFGR
  84:../5-PWM_LCD_SERIAL/Me.h ****    // Set PLL1 multiplication factor to 9
  85:../5-PWM_LCD_SERIAL/Me.h ****    RCC->CFGR |= (0b0111 << 18);
 491              		.loc 2 85 4 is_stmt 1 view .LVU108
 492              	@ ../5-PWM_LCD_SERIAL/Me.h:85:    RCC->CFGR |= (0b0111 << 18);
 493              		.loc 2 85 14 is_stmt 0 view .LVU109
 494 01bc 5A68     		ldr	r2, [r3, #4]	@ _17, MEM[(struct RCC_TypeDef *)1073876992B].CFGR
 495 01be 42F4E012 		orr	r2, r2, #1835008	@ _18, _17,
 496 01c2 5A60     		str	r2, [r3, #4]	@ _18, MEM[(struct RCC_TypeDef *)1073876992B].CFGR
  86:../5-PWM_LCD_SERIAL/Me.h ****    // Set APB1 to 36MHz
  87:../5-PWM_LCD_SERIAL/Me.h ****    RCC->CFGR |= 1 << 10;
 497              		.loc 2 87 4 is_stmt 1 view .LVU110
 498              	@ ../5-PWM_LCD_SERIAL/Me.h:87:    RCC->CFGR |= 1 << 10;
 499              		.loc 2 87 14 is_stmt 0 view .LVU111
 500 01c4 5A68     		ldr	r2, [r3, #4]	@ _19, MEM[(struct RCC_TypeDef *)1073876992B].CFGR
 501 01c6 42F48062 		orr	r2, r2, #1024	@ _20, _19,
 502 01ca 5A60     		str	r2, [r3, #4]	@ _20, MEM[(struct RCC_TypeDef *)1073876992B].CFGR
  88:../5-PWM_LCD_SERIAL/Me.h ****    // Enable PLL
  89:../5-PWM_LCD_SERIAL/Me.h ****    RCC->CR |= (1 << 24);
 503              		.loc 2 89 4 is_stmt 1 view .LVU112
 504              	@ ../5-PWM_LCD_SERIAL/Me.h:89:    RCC->CR |= (1 << 24);
 505              		.loc 2 89 12 is_stmt 0 view .LVU113
 506 01cc 1A68     		ldr	r2, [r3]	@ _21, MEM[(struct RCC_TypeDef *)1073876992B].CR
 507 01ce 42F08072 		orr	r2, r2, #16777216	@ _22, _21,
 508 01d2 1A60     		str	r2, [r3]	@ _22, MEM[(struct RCC_TypeDef *)1073876992B].CR
  90:../5-PWM_LCD_SERIAL/Me.h ****    // Wait untill PLL settles down
  91:../5-PWM_LCD_SERIAL/Me.h ****    while (!(RCC->CR & (1 << 25)));
 509              		.loc 2 91 4 is_stmt 1 view .LVU114
 510              	.L18:
 511              		.loc 2 91 34 discriminator 1 view .LVU115
 512              		.loc 2 91 10 discriminator 1 view .LVU116
 513              	@ ../5-PWM_LCD_SERIAL/Me.h:91:    while (!(RCC->CR & (1 << 25)));
 514              		.loc 2 91 16 is_stmt 0 discriminator 1 view .LVU117
 515 01d4 1A68     		ldr	r2, [r3]	@ _23, MEM[(struct RCC_TypeDef *)1073876992B].CR
ARM GAS  /tmp/ccxAy8dA.s 			page 14


 516              	@ ../5-PWM_LCD_SERIAL/Me.h:91:    while (!(RCC->CR & (1 << 25)));
 517              		.loc 2 91 10 discriminator 1 view .LVU118
 518 01d6 9201     		lsls	r2, r2, #6	@, _23,
 519 01d8 FCD5     		bpl	.L18		@,
  92:../5-PWM_LCD_SERIAL/Me.h ****    // Finally, choose PLL as the system clock
  93:../5-PWM_LCD_SERIAL/Me.h ****    RCC->CFGR |= (0b10 << 0);
 520              		.loc 2 93 4 is_stmt 1 view .LVU119
 521              	@ ../5-PWM_LCD_SERIAL/Me.h:93:    RCC->CFGR |= (0b10 << 0);
 522              		.loc 2 93 14 is_stmt 0 view .LVU120
 523 01da 5A68     		ldr	r2, [r3, #4]	@ _25, MEM[(struct RCC_TypeDef *)1073876992B].CFGR
 524 01dc 42F00202 		orr	r2, r2, #2	@ _26, _25,
 525 01e0 5A60     		str	r2, [r3, #4]	@ _26, MEM[(struct RCC_TypeDef *)1073876992B].CFGR
 526              	@ ../5-PWM_LCD_SERIAL/Me.h:94: } 
  94:../5-PWM_LCD_SERIAL/Me.h **** } 
 527              		.loc 2 94 1 view .LVU121
 528 01e2 7047     		bx	lr	@
 529              	.L24:
 530              		.align	2
 531              	.L23:
 532 01e4 00200240 		.word	1073881088
 533              		.cfi_endproc
 534              	.LFE35:
 535              		.size	set_system_clock_to_72Mhz, .-set_system_clock_to_72Mhz
 536              		.align	1
 537              		.global	Delay
 538              		.syntax unified
 539              		.thumb
 540              		.thumb_func
 541              		.type	Delay, %function
 542              	Delay:
 543              	.LVL13:
 544              	.LFB36:
  95:../5-PWM_LCD_SERIAL/Me.h **** 
  96:../5-PWM_LCD_SERIAL/Me.h **** void Delay ( __IO u32 T ) { // T=1 ;  868µs -> T=1 ~ 526µs
 545              		.loc 2 96 27 is_stmt 1 view -0
 546              		.cfi_startproc
 547              		@ args = 0, pretend = 0, frame = 8
 548              		@ frame_needed = 0, uses_anonymous_args = 0
 549              		@ link register save eliminated.
  97:../5-PWM_LCD_SERIAL/Me.h ****   for ( T ; T > 0 ; T-- ){
 550              		.loc 2 97 3 view .LVU123
 551              	@ ../5-PWM_LCD_SERIAL/Me.h:96: void Delay ( __IO u32 T ) { // T=1 ;  868µs -> T=1 ~ 526µs
  96:../5-PWM_LCD_SERIAL/Me.h ****   for ( T ; T > 0 ; T-- ){
 552              		.loc 2 96 27 is_stmt 0 view .LVU124
 553 01e8 82B0     		sub	sp, sp, #8	@,,
 554              	.LCFI2:
 555              		.cfi_def_cfa_offset 8
 556              	@ ../5-PWM_LCD_SERIAL/Me.h:96: void Delay ( __IO u32 T ) { // T=1 ;  868µs -> T=1 ~ 526µs
  96:../5-PWM_LCD_SERIAL/Me.h ****   for ( T ; T > 0 ; T-- ){
 557              		.loc 2 96 27 view .LVU125
 558 01ea 0190     		str	r0, [sp, #4]	@ T, T
 559              	@ ../5-PWM_LCD_SERIAL/Me.h:97:   for ( T ; T > 0 ; T-- ){
 560              		.loc 2 97 3 view .LVU126
 561 01ec 019B     		ldr	r3, [sp, #4]	@ vol.0_9, T
 562              	@ ../5-PWM_LCD_SERIAL/Me.h:98:    TIM3->EGR |= ( 1 << 0 );
  98:../5-PWM_LCD_SERIAL/Me.h ****    TIM3->EGR |= ( 1 << 0 );
 563              		.loc 2 98 14 view .LVU127
ARM GAS  /tmp/ccxAy8dA.s 			page 15


 564 01ee 094A     		ldr	r2, .L30	@ tmp132,
 565              	.L26:
  97:../5-PWM_LCD_SERIAL/Me.h ****   for ( T ; T > 0 ; T-- ){
 566              		.loc 2 97 13 is_stmt 1 discriminator 1 view .LVU128
 567              	@ ../5-PWM_LCD_SERIAL/Me.h:97:   for ( T ; T > 0 ; T-- ){
  97:../5-PWM_LCD_SERIAL/Me.h ****   for ( T ; T > 0 ; T-- ){
 568              		.loc 2 97 15 is_stmt 0 discriminator 1 view .LVU129
 569 01f0 019B     		ldr	r3, [sp, #4]	@ T.2_6, T
 570              	@ ../5-PWM_LCD_SERIAL/Me.h:97:   for ( T ; T > 0 ; T-- ){
  97:../5-PWM_LCD_SERIAL/Me.h ****   for ( T ; T > 0 ; T-- ){
 571              		.loc 2 97 3 discriminator 1 view .LVU130
 572 01f2 0BB9     		cbnz	r3, .L28	@ T.2_6,
 573              	@ ../5-PWM_LCD_SERIAL/Me.h:101: }
  99:../5-PWM_LCD_SERIAL/Me.h ****    while ( TIM3->CNT < 5 ) ; /* 5 * 10-- Configurar para IR */
 100:../5-PWM_LCD_SERIAL/Me.h ****   }
 101:../5-PWM_LCD_SERIAL/Me.h **** }
 574              		.loc 2 101 1 view .LVU131
 575 01f4 02B0     		add	sp, sp, #8	@,,
 576              	.LCFI3:
 577              		.cfi_remember_state
 578              		.cfi_def_cfa_offset 0
 579              		@ sp needed	@
 580 01f6 7047     		bx	lr	@
 581              	.L28:
 582              	.LCFI4:
 583              		.cfi_restore_state
  98:../5-PWM_LCD_SERIAL/Me.h ****    TIM3->EGR |= ( 1 << 0 );
 584              		.loc 2 98 4 is_stmt 1 view .LVU132
 585              	@ ../5-PWM_LCD_SERIAL/Me.h:98:    TIM3->EGR |= ( 1 << 0 );
  98:../5-PWM_LCD_SERIAL/Me.h ****    TIM3->EGR |= ( 1 << 0 );
 586              		.loc 2 98 14 is_stmt 0 view .LVU133
 587 01f8 938A     		ldrh	r3, [r2, #20]	@, MEM[(struct TIM_TypeDef *)1073742848B].EGR
 588 01fa 9BB2     		uxth	r3, r3	@ _1, MEM[(struct TIM_TypeDef *)1073742848B].EGR
 589 01fc 43F00103 		orr	r3, r3, #1	@ _2, _1,
 590 0200 9382     		strh	r3, [r2, #20]	@ movhi	@ _2, MEM[(struct TIM_TypeDef *)1073742848B].EGR
  99:../5-PWM_LCD_SERIAL/Me.h ****    while ( TIM3->CNT < 5 ) ; /* 5 * 10-- Configurar para IR */
 591              		.loc 2 99 4 is_stmt 1 view .LVU134
 592              	.L27:
  99:../5-PWM_LCD_SERIAL/Me.h ****    while ( TIM3->CNT < 5 ) ; /* 5 * 10-- Configurar para IR */
 593              		.loc 2 99 28 discriminator 1 view .LVU135
  99:../5-PWM_LCD_SERIAL/Me.h ****    while ( TIM3->CNT < 5 ) ; /* 5 * 10-- Configurar para IR */
 594              		.loc 2 99 10 discriminator 1 view .LVU136
 595              	@ ../5-PWM_LCD_SERIAL/Me.h:99:    while ( TIM3->CNT < 5 ) ; /* 5 * 10-- Configurar para IR */
  99:../5-PWM_LCD_SERIAL/Me.h ****    while ( TIM3->CNT < 5 ) ; /* 5 * 10-- Configurar para IR */
 596              		.loc 2 99 16 is_stmt 0 discriminator 1 view .LVU137
 597 0202 938C     		ldrh	r3, [r2, #36]	@, MEM[(struct TIM_TypeDef *)1073742848B].CNT
 598 0204 9BB2     		uxth	r3, r3	@ _3, MEM[(struct TIM_TypeDef *)1073742848B].CNT
 599              	@ ../5-PWM_LCD_SERIAL/Me.h:99:    while ( TIM3->CNT < 5 ) ; /* 5 * 10-- Configurar para IR */
  99:../5-PWM_LCD_SERIAL/Me.h ****    while ( TIM3->CNT < 5 ) ; /* 5 * 10-- Configurar para IR */
 600              		.loc 2 99 10 discriminator 1 view .LVU138
 601 0206 042B     		cmp	r3, #4	@ _3,
 602 0208 FBD9     		bls	.L27		@,
  97:../5-PWM_LCD_SERIAL/Me.h ****    TIM3->EGR |= ( 1 << 0 );
 603              		.loc 2 97 21 is_stmt 1 discriminator 2 view .LVU139
 604              	@ ../5-PWM_LCD_SERIAL/Me.h:97:   for ( T ; T > 0 ; T-- ){
  97:../5-PWM_LCD_SERIAL/Me.h ****    TIM3->EGR |= ( 1 << 0 );
 605              		.loc 2 97 22 is_stmt 0 discriminator 2 view .LVU140
ARM GAS  /tmp/ccxAy8dA.s 			page 16


 606 020a 019B     		ldr	r3, [sp, #4]	@ T.1_4, T
 607 020c 013B     		subs	r3, r3, #1	@ _5, T.1_4,
 608 020e 0193     		str	r3, [sp, #4]	@ _5, T
 609 0210 EEE7     		b	.L26		@
 610              	.L31:
 611 0212 00BF     		.align	2
 612              	.L30:
 613 0214 00040040 		.word	1073742848
 614              		.cfi_endproc
 615              	.LFE36:
 616              		.size	Delay, .-Delay
 617              		.align	1
 618              		.global	enable_TIM3_delay
 619              		.syntax unified
 620              		.thumb
 621              		.thumb_func
 622              		.type	enable_TIM3_delay, %function
 623              	enable_TIM3_delay:
 624              	.LFB37:
 102:../5-PWM_LCD_SERIAL/Me.h **** 
 103:../5-PWM_LCD_SERIAL/Me.h **** void enable_TIM3_delay (void) {
 625              		.loc 2 103 31 is_stmt 1 view -0
 626              		.cfi_startproc
 627              		@ args = 0, pretend = 0, frame = 0
 628              		@ frame_needed = 0, uses_anonymous_args = 0
 629              		@ link register save eliminated.
 104:../5-PWM_LCD_SERIAL/Me.h ****    RCC->APB1ENR |= 1<<1 ;
 630              		.loc 2 104 4 view .LVU142
 631              	@ ../5-PWM_LCD_SERIAL/Me.h:104:    RCC->APB1ENR |= 1<<1 ;
 632              		.loc 2 104 17 is_stmt 0 view .LVU143
 633 0218 084A     		ldr	r2, .L33	@ tmp117,
 634 021a D369     		ldr	r3, [r2, #28]	@ _1, MEM[(struct RCC_TypeDef *)1073876992B].APB1ENR
 635 021c 43F00203 		orr	r3, r3, #2	@ _2, _1,
 636 0220 D361     		str	r3, [r2, #28]	@ _2, MEM[(struct RCC_TypeDef *)1073876992B].APB1ENR
 105:../5-PWM_LCD_SERIAL/Me.h ****    TIM3->CR1 = 0x0000;
 637              		.loc 2 105 4 is_stmt 1 view .LVU144
 638              	@ ../5-PWM_LCD_SERIAL/Me.h:105:    TIM3->CR1 = 0x0000;
 639              		.loc 2 105 14 is_stmt 0 view .LVU145
 640 0222 0023     		movs	r3, #0	@ tmp121,
 641 0224 A2F50332 		sub	r2, r2, #134144	@ tmp119, tmp119,
 642 0228 1380     		strh	r3, [r2]	@ movhi	@ tmp121, MEM[(struct TIM_TypeDef *)1073742848B].CR1
 106:../5-PWM_LCD_SERIAL/Me.h ****    //TIM3->ARR = 21699;
 107:../5-PWM_LCD_SERIAL/Me.h ****    // TIM3->ARR = 250-1; // 10µs
 108:../5-PWM_LCD_SERIAL/Me.h ****    TIM3->ARR = 720-1; // 10µs
 643              		.loc 2 108 4 is_stmt 1 view .LVU146
 644              	@ ../5-PWM_LCD_SERIAL/Me.h:108:    TIM3->ARR = 720-1; // 10µs
 645              		.loc 2 108 14 is_stmt 0 view .LVU147
 646 022a 40F2CF23 		movw	r3, #719	@ tmp124,
 647 022e 9385     		strh	r3, [r2, #44]	@ movhi	@ tmp124, MEM[(struct TIM_TypeDef *)1073742848B].ARR
 109:../5-PWM_LCD_SERIAL/Me.h ****    // para obter o período de 868µs
 110:../5-PWM_LCD_SERIAL/Me.h **** /*https://www.vishay.com/docs/80071/dataform.pdf PAG 2
 111:../5-PWM_LCD_SERIAL/Me.h ****  * https://controllerstech.com/ir-remote-with-stm32/
 112:../5-PWM_LCD_SERIAL/Me.h ****  * Per=(1+ARR)/Clock_system */
 113:../5-PWM_LCD_SERIAL/Me.h ****    TIM3->CR1 |= 1<<0;
 648              		.loc 2 113 4 is_stmt 1 view .LVU148
 649              	@ ../5-PWM_LCD_SERIAL/Me.h:113:    TIM3->CR1 |= 1<<0;
 650              		.loc 2 113 14 is_stmt 0 view .LVU149
ARM GAS  /tmp/ccxAy8dA.s 			page 17


 651 0230 1388     		ldrh	r3, [r2]	@, MEM[(struct TIM_TypeDef *)1073742848B].CR1
 652 0232 9BB2     		uxth	r3, r3	@ _3, MEM[(struct TIM_TypeDef *)1073742848B].CR1
 653 0234 43F00103 		orr	r3, r3, #1	@ _4, _3,
 654 0238 1380     		strh	r3, [r2]	@ movhi	@ _4, MEM[(struct TIM_TypeDef *)1073742848B].CR1
 655              	@ ../5-PWM_LCD_SERIAL/Me.h:114: }
 114:../5-PWM_LCD_SERIAL/Me.h **** }
 656              		.loc 2 114 1 view .LVU150
 657 023a 7047     		bx	lr	@
 658              	.L34:
 659              		.align	2
 660              	.L33:
 661 023c 00100240 		.word	1073876992
 662              		.cfi_endproc
 663              	.LFE37:
 664              		.size	enable_TIM3_delay, .-enable_TIM3_delay
 665              		.align	1
 666              		.global	enable_interrupt
 667              		.syntax unified
 668              		.thumb
 669              		.thumb_func
 670              		.type	enable_interrupt, %function
 671              	enable_interrupt:
 672              	.LVL14:
 673              	.LFB38:
 115:../5-PWM_LCD_SERIAL/Me.h **** 
 116:../5-PWM_LCD_SERIAL/Me.h **** void enable_interrupt(IRQn_Type IRQn)
 117:../5-PWM_LCD_SERIAL/Me.h **** {
 674              		.loc 2 117 1 is_stmt 1 view -0
 675              		.cfi_startproc
 676              		@ args = 0, pretend = 0, frame = 0
 677              		@ frame_needed = 0, uses_anonymous_args = 0
 678              		@ link register save eliminated.
 118:../5-PWM_LCD_SERIAL/Me.h ****    NVIC->ISER[((uint32_t)(IRQn) >> 5)] = (1 << ((uint32_t)(IRQn) & 0x1F));
 679              		.loc 2 118 4 view .LVU152
 680              	@ ../5-PWM_LCD_SERIAL/Me.h:118:    NVIC->ISER[((uint32_t)(IRQn) >> 5)] = (1 << ((uint32_t)(IRQn) & 
 681              		.loc 2 118 45 is_stmt 0 view .LVU153
 682 0240 0123     		movs	r3, #1	@ tmp124,
 683              	@ ../5-PWM_LCD_SERIAL/Me.h:118:    NVIC->ISER[((uint32_t)(IRQn) >> 5)] = (1 << ((uint32_t)(IRQn) & 
 684              		.loc 2 118 33 view .LVU154
 685 0242 4209     		lsrs	r2, r0, #5	@ _6, IRQn,
 686              	@ ../5-PWM_LCD_SERIAL/Me.h:118:    NVIC->ISER[((uint32_t)(IRQn) >> 5)] = (1 << ((uint32_t)(IRQn) & 
 687              		.loc 2 118 66 view .LVU155
 688 0244 00F01F00 		and	r0, r0, #31	@ tmp123, IRQn,
 689              	.LVL15:
 690              	@ ../5-PWM_LCD_SERIAL/Me.h:118:    NVIC->ISER[((uint32_t)(IRQn) >> 5)] = (1 << ((uint32_t)(IRQn) & 
 691              		.loc 2 118 45 view .LVU156
 692 0248 03FA00F0 		lsl	r0, r3, r0	@ _7, tmp124, tmp123
 693              	@ ../5-PWM_LCD_SERIAL/Me.h:118:    NVIC->ISER[((uint32_t)(IRQn) >> 5)] = (1 << ((uint32_t)(IRQn) & 
 694              		.loc 2 118 40 view .LVU157
 695 024c 014B     		ldr	r3, .L36	@ tmp125,
 696 024e 43F82200 		str	r0, [r3, r2, lsl #2]	@ _7, MEM[(struct NVIC_Type *)3758153984B].ISER[_6]
 697              	@ ../5-PWM_LCD_SERIAL/Me.h:119: }  
 119:../5-PWM_LCD_SERIAL/Me.h **** }  
 698              		.loc 2 119 1 view .LVU158
 699 0252 7047     		bx	lr	@
 700              	.L37:
 701              		.align	2
ARM GAS  /tmp/ccxAy8dA.s 			page 18


 702              	.L36:
 703 0254 00E100E0 		.word	-536813312
 704              		.cfi_endproc
 705              	.LFE38:
 706              		.size	enable_interrupt, .-enable_interrupt
 707              		.align	1
 708              		.global	disable_interrupt
 709              		.syntax unified
 710              		.thumb
 711              		.thumb_func
 712              		.type	disable_interrupt, %function
 713              	disable_interrupt:
 714              	.LVL16:
 715              	.LFB39:
 120:../5-PWM_LCD_SERIAL/Me.h ****    
 121:../5-PWM_LCD_SERIAL/Me.h **** /* 
 122:../5-PWM_LCD_SERIAL/Me.h ****  * Disable given interrupt
 123:../5-PWM_LCD_SERIAL/Me.h ****  */
 124:../5-PWM_LCD_SERIAL/Me.h **** void disable_interrupt(IRQn_Type IRQn)
 125:../5-PWM_LCD_SERIAL/Me.h **** {
 716              		.loc 2 125 1 is_stmt 1 view -0
 717              		.cfi_startproc
 718              		@ args = 0, pretend = 0, frame = 0
 719              		@ frame_needed = 0, uses_anonymous_args = 0
 720              		@ link register save eliminated.
 126:../5-PWM_LCD_SERIAL/Me.h ****    NVIC->ICER[((uint32_t)(IRQn) >> 5)] = (1 << ((uint32_t)(IRQn) & 0x1F));
 721              		.loc 2 126 4 view .LVU160
 722              	@ ../5-PWM_LCD_SERIAL/Me.h:126:    NVIC->ICER[((uint32_t)(IRQn) >> 5)] = (1 << ((uint32_t)(IRQn) & 
 723              		.loc 2 126 45 is_stmt 0 view .LVU161
 724 0258 0122     		movs	r2, #1	@ tmp124,
 725              	@ ../5-PWM_LCD_SERIAL/Me.h:126:    NVIC->ICER[((uint32_t)(IRQn) >> 5)] = (1 << ((uint32_t)(IRQn) & 
 726              		.loc 2 126 33 view .LVU162
 727 025a 4309     		lsrs	r3, r0, #5	@ _6, IRQn,
 728              	@ ../5-PWM_LCD_SERIAL/Me.h:126:    NVIC->ICER[((uint32_t)(IRQn) >> 5)] = (1 << ((uint32_t)(IRQn) & 
 729              		.loc 2 126 66 view .LVU163
 730 025c 00F01F00 		and	r0, r0, #31	@ tmp123, IRQn,
 731              	.LVL17:
 732              	@ ../5-PWM_LCD_SERIAL/Me.h:126:    NVIC->ICER[((uint32_t)(IRQn) >> 5)] = (1 << ((uint32_t)(IRQn) & 
 733              		.loc 2 126 45 view .LVU164
 734 0260 02FA00F0 		lsl	r0, r2, r0	@ _7, tmp124, tmp123
 735              	@ ../5-PWM_LCD_SERIAL/Me.h:126:    NVIC->ICER[((uint32_t)(IRQn) >> 5)] = (1 << ((uint32_t)(IRQn) & 
 736              		.loc 2 126 40 view .LVU165
 737 0264 024A     		ldr	r2, .L39	@ tmp125,
 738 0266 2033     		adds	r3, r3, #32	@ tmp126, _6,
 739 0268 42F82300 		str	r0, [r2, r3, lsl #2]	@ _7, MEM[(struct NVIC_Type *)3758153984B].ICER[_6]
 740              	@ ../5-PWM_LCD_SERIAL/Me.h:127: }
 127:../5-PWM_LCD_SERIAL/Me.h **** }
 741              		.loc 2 127 1 view .LVU166
 742 026c 7047     		bx	lr	@
 743              	.L40:
 744 026e 00BF     		.align	2
 745              	.L39:
 746 0270 00E100E0 		.word	-536813312
 747              		.cfi_endproc
 748              	.LFE39:
 749              		.size	disable_interrupt, .-disable_interrupt
 750              		.align	1
ARM GAS  /tmp/ccxAy8dA.s 			page 19


 751              		.global	USART_init
 752              		.syntax unified
 753              		.thumb
 754              		.thumb_func
 755              		.type	USART_init, %function
 756              	USART_init:
 757              	.LFB40:
 758              		.file 3 "../5-PWM_LCD_SERIAL/Serial.h"
   1:../5-PWM_LCD_SERIAL/Serial.h **** // #ifndef	SERIAL_K
   2:../5-PWM_LCD_SERIAL/Serial.h **** // #define 	SERIAL_K
   3:../5-PWM_LCD_SERIAL/Serial.h **** 
   4:../5-PWM_LCD_SERIAL/Serial.h **** void USARTSend(char *pucBuffer);
   5:../5-PWM_LCD_SERIAL/Serial.h **** void USART_init(void);
   6:../5-PWM_LCD_SERIAL/Serial.h **** 
   7:../5-PWM_LCD_SERIAL/Serial.h **** void USART_init(void) {
 759              		.loc 3 7 23 is_stmt 1 view -0
 760              		.cfi_startproc
 761              		@ args = 0, pretend = 0, frame = 24
 762              		@ frame_needed = 0, uses_anonymous_args = 0
   8:../5-PWM_LCD_SERIAL/Serial.h ****    /* Enable USART1 and GPIOA clock */
   9:../5-PWM_LCD_SERIAL/Serial.h ****    RCC_APB2PeriphClockCmd(RCC_APB2Periph_USART1 | RCC_APB2Periph_GPIOA, ENABLE);
 763              		.loc 3 9 4 view .LVU168
 764              	@ ../5-PWM_LCD_SERIAL/Serial.h:7: void USART_init(void) {
   7:../5-PWM_LCD_SERIAL/Serial.h ****    /* Enable USART1 and GPIOA clock */
 765              		.loc 3 7 23 is_stmt 0 view .LVU169
 766 0274 10B5     		push	{r4, lr}	@
 767              	.LCFI5:
 768              		.cfi_def_cfa_offset 8
 769              		.cfi_offset 4, -8
 770              		.cfi_offset 14, -4
 771              	@ ../5-PWM_LCD_SERIAL/Serial.h:9:    RCC_APB2PeriphClockCmd(RCC_APB2Periph_USART1 | RCC_APB2Periph_
 772              		.loc 3 9 4 view .LVU170
 773 0276 0121     		movs	r1, #1	@,
 774              	@ ../5-PWM_LCD_SERIAL/Serial.h:7: void USART_init(void) {
   7:../5-PWM_LCD_SERIAL/Serial.h ****    /* Enable USART1 and GPIOA clock */
 775              		.loc 3 7 23 view .LVU171
 776 0278 86B0     		sub	sp, sp, #24	@,,
 777              	.LCFI6:
 778              		.cfi_def_cfa_offset 32
 779              	@ ../5-PWM_LCD_SERIAL/Serial.h:9:    RCC_APB2PeriphClockCmd(RCC_APB2Periph_USART1 | RCC_APB2Periph_
 780              		.loc 3 9 4 view .LVU172
 781 027a 44F20400 		movw	r0, #16388	@,
 782 027e FFF7FEFF 		bl	RCC_APB2PeriphClockCmd		@
 783              	.LVL18:
  10:../5-PWM_LCD_SERIAL/Serial.h **** 
  11:../5-PWM_LCD_SERIAL/Serial.h ****    /* Configure the GPIOs */
  12:../5-PWM_LCD_SERIAL/Serial.h ****    GPIO_InitTypeDef GPIO_InitStructure;
 784              		.loc 3 12 4 is_stmt 1 view .LVU173
  13:../5-PWM_LCD_SERIAL/Serial.h **** 
  14:../5-PWM_LCD_SERIAL/Serial.h ****    /* Configure USART1 Tx (PA.09) as alternate function push-pull */
  15:../5-PWM_LCD_SERIAL/Serial.h ****    GPIO_InitStructure.GPIO_Pin = GPIO_Pin_9;
 785              		.loc 3 15 4 view .LVU174
  16:../5-PWM_LCD_SERIAL/Serial.h ****    GPIO_InitStructure.GPIO_Mode = GPIO_Mode_AF_PP;
 786              		.loc 3 16 4 view .LVU175
  17:../5-PWM_LCD_SERIAL/Serial.h ****    GPIO_InitStructure.GPIO_Speed = GPIO_Speed_50MHz;
 787              		.loc 3 17 4 view .LVU176
 788              	@ ../5-PWM_LCD_SERIAL/Serial.h:15:    GPIO_InitStructure.GPIO_Pin = GPIO_Pin_9;
ARM GAS  /tmp/ccxAy8dA.s 			page 20


  15:../5-PWM_LCD_SERIAL/Serial.h ****    GPIO_InitStructure.GPIO_Mode = GPIO_Mode_AF_PP;
 789              		.loc 3 15 32 is_stmt 0 view .LVU177
 790 0282 4FF40073 		mov	r3, #512	@ tmp114,
 791 0286 ADF80430 		strh	r3, [sp, #4]	@ movhi	@ tmp114, GPIO_InitStructure.GPIO_Pin
 792              	@ ../5-PWM_LCD_SERIAL/Serial.h:17:    GPIO_InitStructure.GPIO_Speed = GPIO_Speed_50MHz;
 793              		.loc 3 17 34 view .LVU178
 794 028a 41F60303 		movw	r3, #6147	@ tmp116,
 795              	@ ../5-PWM_LCD_SERIAL/Serial.h:18:    GPIO_Init(GPIOA, &GPIO_InitStructure);
  18:../5-PWM_LCD_SERIAL/Serial.h ****    GPIO_Init(GPIOA, &GPIO_InitStructure);
 796              		.loc 3 18 4 view .LVU179
 797 028e 144C     		ldr	r4, .L42	@ tmp118,
 798 0290 01A9     		add	r1, sp, #4	@ tmp134,,
 799 0292 2046     		mov	r0, r4	@, tmp118
 800              	@ ../5-PWM_LCD_SERIAL/Serial.h:17:    GPIO_InitStructure.GPIO_Speed = GPIO_Speed_50MHz;
  17:../5-PWM_LCD_SERIAL/Serial.h ****    GPIO_InitStructure.GPIO_Speed = GPIO_Speed_50MHz;
 801              		.loc 3 17 34 view .LVU180
 802 0294 ADF80630 		strh	r3, [sp, #6]	@ movhi	@ tmp116, MEM <unsigned short> [(void *)&GPIO_InitStructure + 2B]
 803              		.loc 3 18 4 is_stmt 1 view .LVU181
 804 0298 FFF7FEFF 		bl	GPIO_Init		@
 805              	.LVL19:
  19:../5-PWM_LCD_SERIAL/Serial.h **** 
  20:../5-PWM_LCD_SERIAL/Serial.h ****    /* Configure USART1 Rx (PA.10) as input floating */
  21:../5-PWM_LCD_SERIAL/Serial.h ****    GPIO_InitStructure.GPIO_Pin = GPIO_Pin_10;
 806              		.loc 3 21 4 view .LVU182
 807              	@ ../5-PWM_LCD_SERIAL/Serial.h:21:    GPIO_InitStructure.GPIO_Pin = GPIO_Pin_10;
 808              		.loc 3 21 32 is_stmt 0 view .LVU183
 809 029c 4FF48063 		mov	r3, #1024	@ tmp120,
 810 02a0 ADF80430 		strh	r3, [sp, #4]	@ movhi	@ tmp120, GPIO_InitStructure.GPIO_Pin
  22:../5-PWM_LCD_SERIAL/Serial.h ****    GPIO_InitStructure.GPIO_Mode = GPIO_Mode_IN_FLOATING;
 811              		.loc 3 22 4 is_stmt 1 view .LVU184
 812              	@ ../5-PWM_LCD_SERIAL/Serial.h:22:    GPIO_InitStructure.GPIO_Mode = GPIO_Mode_IN_FLOATING;
 813              		.loc 3 22 33 is_stmt 0 view .LVU185
 814 02a4 0423     		movs	r3, #4	@ tmp121,
 815              	@ ../5-PWM_LCD_SERIAL/Serial.h:23:    GPIO_Init(GPIOA, &GPIO_InitStructure);
  23:../5-PWM_LCD_SERIAL/Serial.h ****    GPIO_Init(GPIOA, &GPIO_InitStructure);
 816              		.loc 3 23 4 view .LVU186
 817 02a6 2046     		mov	r0, r4	@, tmp118
 818 02a8 0DEB0301 		add	r1, sp, r3	@ tmp135,,
 819              	@ ../5-PWM_LCD_SERIAL/Serial.h:22:    GPIO_InitStructure.GPIO_Mode = GPIO_Mode_IN_FLOATING;
  22:../5-PWM_LCD_SERIAL/Serial.h ****    GPIO_InitStructure.GPIO_Mode = GPIO_Mode_IN_FLOATING;
 820              		.loc 3 22 33 view .LVU187
 821 02ac 8DF80730 		strb	r3, [sp, #7]	@ tmp121, GPIO_InitStructure.GPIO_Mode
 822              		.loc 3 23 4 is_stmt 1 view .LVU188
 823 02b0 FFF7FEFF 		bl	GPIO_Init		@
 824              	.LVL20:
  24:../5-PWM_LCD_SERIAL/Serial.h **** 
  25:../5-PWM_LCD_SERIAL/Serial.h ****    /* Configure the USART1 */
  26:../5-PWM_LCD_SERIAL/Serial.h ****    USART_InitTypeDef USART_InitStructure;
 825              		.loc 3 26 4 view .LVU189
  27:../5-PWM_LCD_SERIAL/Serial.h ****    USART_InitStructure.USART_BaudRate = 115200;
 826              		.loc 3 27 4 view .LVU190
  28:../5-PWM_LCD_SERIAL/Serial.h ****    USART_InitStructure.USART_WordLength = USART_WordLength_8b;
 827              		.loc 3 28 4 view .LVU191
  29:../5-PWM_LCD_SERIAL/Serial.h ****    USART_InitStructure.USART_StopBits = USART_StopBits_1;
 828              		.loc 3 29 4 view .LVU192
  30:../5-PWM_LCD_SERIAL/Serial.h ****    USART_InitStructure.USART_Parity = USART_Parity_No;
 829              		.loc 3 30 4 view .LVU193
ARM GAS  /tmp/ccxAy8dA.s 			page 21


  31:../5-PWM_LCD_SERIAL/Serial.h ****    USART_InitStructure.USART_HardwareFlowControl = USART_HardwareFlowControl_None;
 830              		.loc 3 31 4 view .LVU194
  32:../5-PWM_LCD_SERIAL/Serial.h ****    USART_InitStructure.USART_Mode = USART_Mode_Rx | USART_Mode_Tx;
 831              		.loc 3 32 4 view .LVU195
 832              	@ ../5-PWM_LCD_SERIAL/Serial.h:28:    USART_InitStructure.USART_WordLength = USART_WordLength_8b;
  28:../5-PWM_LCD_SERIAL/Serial.h ****    USART_InitStructure.USART_StopBits = USART_StopBits_1;
 833              		.loc 3 28 41 is_stmt 0 view .LVU196
 834 02b4 0023     		movs	r3, #0	@ tmp126,
 835 02b6 4FF4E132 		mov	r2, #115200	@,
 836 02ba CDE90223 		strd	r2, r3, [sp, #8]	@, tmp126,,
 837              	@ ../5-PWM_LCD_SERIAL/Serial.h:30:    USART_InitStructure.USART_Parity = USART_Parity_No;
  30:../5-PWM_LCD_SERIAL/Serial.h ****    USART_InitStructure.USART_HardwareFlowControl = USART_HardwareFlowControl_None;
 838              		.loc 3 30 37 view .LVU197
 839 02be 4FF44022 		mov	r2, #786432	@ tmp127,
 840              	@ ../5-PWM_LCD_SERIAL/Serial.h:34:    USART_Init(USART1, &USART_InitStructure);
  33:../5-PWM_LCD_SERIAL/Serial.h **** 
  34:../5-PWM_LCD_SERIAL/Serial.h ****    USART_Init(USART1, &USART_InitStructure);
 841              		.loc 3 34 4 view .LVU198
 842 02c2 04F54054 		add	r4, r4, #12288	@ tmp131, tmp131,
 843 02c6 2046     		mov	r0, r4	@, tmp131
 844 02c8 02A9     		add	r1, sp, #8	@,,
 845              	@ ../5-PWM_LCD_SERIAL/Serial.h:30:    USART_InitStructure.USART_Parity = USART_Parity_No;
  30:../5-PWM_LCD_SERIAL/Serial.h ****    USART_InitStructure.USART_HardwareFlowControl = USART_HardwareFlowControl_None;
 846              		.loc 3 30 37 view .LVU199
 847 02ca 0492     		str	r2, [sp, #16]	@ tmp127, MEM <unsigned int> [(short unsigned int *)&USART_InitStructure + 8B]
 848              	@ ../5-PWM_LCD_SERIAL/Serial.h:31:    USART_InitStructure.USART_HardwareFlowControl = USART_Hardwar
  31:../5-PWM_LCD_SERIAL/Serial.h ****    USART_InitStructure.USART_Mode = USART_Mode_Rx | USART_Mode_Tx;
 849              		.loc 3 31 50 view .LVU200
 850 02cc ADF81430 		strh	r3, [sp, #20]	@ movhi	@ tmp126, USART_InitStructure.USART_HardwareFlowControl
 851              		.loc 3 34 4 is_stmt 1 view .LVU201
 852 02d0 FFF7FEFF 		bl	USART_Init		@
 853              	.LVL21:
  35:../5-PWM_LCD_SERIAL/Serial.h **** 
  36:../5-PWM_LCD_SERIAL/Serial.h ****    /* Enable USART1 */
  37:../5-PWM_LCD_SERIAL/Serial.h ****    USART_Cmd(USART1, ENABLE);
 854              		.loc 3 37 4 view .LVU202
 855 02d4 0121     		movs	r1, #1	@,
 856 02d6 2046     		mov	r0, r4	@, tmp131
 857 02d8 FFF7FEFF 		bl	USART_Cmd		@
 858              	.LVL22:
 859              	@ ../5-PWM_LCD_SERIAL/Serial.h:38: }
  38:../5-PWM_LCD_SERIAL/Serial.h **** }
 860              		.loc 3 38 1 is_stmt 0 view .LVU203
 861 02dc 06B0     		add	sp, sp, #24	@,,
 862              	.LCFI7:
 863              		.cfi_def_cfa_offset 8
 864              		@ sp needed	@
 865 02de 10BD     		pop	{r4, pc}	@
 866              	.L43:
 867              		.align	2
 868              	.L42:
 869 02e0 00080140 		.word	1073809408
 870              		.cfi_endproc
 871              	.LFE40:
 872              		.size	USART_init, .-USART_init
 873              		.align	1
 874              		.global	USARTSend
ARM GAS  /tmp/ccxAy8dA.s 			page 22


 875              		.syntax unified
 876              		.thumb
 877              		.thumb_func
 878              		.type	USARTSend, %function
 879              	USARTSend:
 880              	.LVL23:
 881              	.LFB41:
  39:../5-PWM_LCD_SERIAL/Serial.h **** 
  40:../5-PWM_LCD_SERIAL/Serial.h **** void USARTSend(char *pucBuffer) {
 882              		.loc 3 40 33 is_stmt 1 view -0
 883              		.cfi_startproc
 884              		@ args = 0, pretend = 0, frame = 0
 885              		@ frame_needed = 0, uses_anonymous_args = 0
  41:../5-PWM_LCD_SERIAL/Serial.h ****     while (*pucBuffer)
 886              		.loc 3 41 5 view .LVU205
 887              	@ ../5-PWM_LCD_SERIAL/Serial.h:40: void USARTSend(char *pucBuffer) {
  40:../5-PWM_LCD_SERIAL/Serial.h ****     while (*pucBuffer)
 888              		.loc 3 40 33 is_stmt 0 view .LVU206
 889 02e4 38B5     		push	{r3, r4, r5, lr}	@
 890              	.LCFI8:
 891              		.cfi_def_cfa_offset 16
 892              		.cfi_offset 3, -16
 893              		.cfi_offset 4, -12
 894              		.cfi_offset 5, -8
 895              		.cfi_offset 14, -4
 896              	@ ../5-PWM_LCD_SERIAL/Serial.h:43:         USART_SendData(USART1, *pucBuffer++);
  42:../5-PWM_LCD_SERIAL/Serial.h ****     {
  43:../5-PWM_LCD_SERIAL/Serial.h ****         USART_SendData(USART1, *pucBuffer++);
 897              		.loc 3 43 9 view .LVU207
 898 02e6 084D     		ldr	r5, .L50	@ tmp126,
 899 02e8 441E     		subs	r4, r0, #1	@ ivtmp.62, tmp128,
 900              	.LVL24:
 901              	.L45:
  41:../5-PWM_LCD_SERIAL/Serial.h ****     {
 902              		.loc 3 41 11 is_stmt 1 view .LVU208
 903              	@ ../5-PWM_LCD_SERIAL/Serial.h:41:     while (*pucBuffer)
  41:../5-PWM_LCD_SERIAL/Serial.h ****     {
 904              		.loc 3 41 12 is_stmt 0 view .LVU209
 905 02ea 14F8011F 		ldrb	r1, [r4, #1]!	@ zero_extendqisi2	@ _3, MEM[base: _16, offset: 0B]
 906              	.LVL25:
 907              	@ ../5-PWM_LCD_SERIAL/Serial.h:41:     while (*pucBuffer)
  41:../5-PWM_LCD_SERIAL/Serial.h ****     {
 908              		.loc 3 41 11 view .LVU210
 909 02ee 01B9     		cbnz	r1, .L47	@ _3,
 910              	@ ../5-PWM_LCD_SERIAL/Serial.h:48: }
  44:../5-PWM_LCD_SERIAL/Serial.h ****         while(USART_GetFlagStatus(USART1, USART_FLAG_TC) == RESET)
  45:../5-PWM_LCD_SERIAL/Serial.h ****         {
  46:../5-PWM_LCD_SERIAL/Serial.h ****         }
  47:../5-PWM_LCD_SERIAL/Serial.h ****     }
  48:../5-PWM_LCD_SERIAL/Serial.h **** }
 911              		.loc 3 48 1 view .LVU211
 912 02f0 38BD     		pop	{r3, r4, r5, pc}	@
 913              	.LVL26:
 914              	.L47:
  43:../5-PWM_LCD_SERIAL/Serial.h ****         while(USART_GetFlagStatus(USART1, USART_FLAG_TC) == RESET)
 915              		.loc 3 43 9 is_stmt 1 view .LVU212
  43:../5-PWM_LCD_SERIAL/Serial.h ****         while(USART_GetFlagStatus(USART1, USART_FLAG_TC) == RESET)
ARM GAS  /tmp/ccxAy8dA.s 			page 23


 916              		.loc 3 43 9 is_stmt 0 view .LVU213
 917 02f2 2846     		mov	r0, r5	@, tmp126
 918 02f4 FFF7FEFF 		bl	USART_SendData		@
 919              	.LVL27:
  44:../5-PWM_LCD_SERIAL/Serial.h ****         while(USART_GetFlagStatus(USART1, USART_FLAG_TC) == RESET)
 920              		.loc 3 44 9 is_stmt 1 view .LVU214
 921              	.L46:
  46:../5-PWM_LCD_SERIAL/Serial.h ****     }
 922              		.loc 3 46 9 discriminator 1 view .LVU215
  44:../5-PWM_LCD_SERIAL/Serial.h ****         while(USART_GetFlagStatus(USART1, USART_FLAG_TC) == RESET)
 923              		.loc 3 44 14 discriminator 1 view .LVU216
 924              	@ ../5-PWM_LCD_SERIAL/Serial.h:44:         while(USART_GetFlagStatus(USART1, USART_FLAG_TC) == RESE
  44:../5-PWM_LCD_SERIAL/Serial.h ****         while(USART_GetFlagStatus(USART1, USART_FLAG_TC) == RESET)
 925              		.loc 3 44 15 is_stmt 0 discriminator 1 view .LVU217
 926 02f8 4021     		movs	r1, #64	@,
 927 02fa 2846     		mov	r0, r5	@, tmp126
 928 02fc FFF7FEFF 		bl	USART_GetFlagStatus		@
 929              	.LVL28:
 930              	@ ../5-PWM_LCD_SERIAL/Serial.h:44:         while(USART_GetFlagStatus(USART1, USART_FLAG_TC) == RESE
  44:../5-PWM_LCD_SERIAL/Serial.h ****         while(USART_GetFlagStatus(USART1, USART_FLAG_TC) == RESET)
 931              		.loc 3 44 14 discriminator 1 view .LVU218
 932 0300 0028     		cmp	r0, #0	@ tmp129
 933 0302 F9D0     		beq	.L46	@
 934 0304 F1E7     		b	.L45		@
 935              	.L51:
 936 0306 00BF     		.align	2
 937              	.L50:
 938 0308 00380140 		.word	1073821696
 939              		.cfi_endproc
 940              	.LFE41:
 941              		.size	USARTSend, .-USARTSend
 942              		.align	1
 943              		.global	DHT11_start
 944              		.syntax unified
 945              		.thumb
 946              		.thumb_func
 947              		.type	DHT11_start, %function
 948              	DHT11_start:
 949              	.LFB42:
 950              		.file 4 "../5-PWM_LCD_SERIAL/DHT11.h"
   1:../5-PWM_LCD_SERIAL/DHT11.h **** #define DHT11_DATA_PIN GPIO_Pin_12
   2:../5-PWM_LCD_SERIAL/DHT11.h **** #define DHT11_GPIO GPIOA
   3:../5-PWM_LCD_SERIAL/DHT11.h **** 
   4:../5-PWM_LCD_SERIAL/DHT11.h **** #define DELAY_VALUE 1000    // Atraso necessário para a leitura do sensor
   5:../5-PWM_LCD_SERIAL/DHT11.h **** 
   6:../5-PWM_LCD_SERIAL/DHT11.h **** void DHT11_start(void) {
 951              		.loc 4 6 24 is_stmt 1 view -0
 952              		.cfi_startproc
 953              		@ args = 0, pretend = 0, frame = 8
 954              		@ frame_needed = 0, uses_anonymous_args = 0
   7:../5-PWM_LCD_SERIAL/DHT11.h **** 	RCC->APB2ENR |= 0x3 <<2;
 955              		.loc 4 7 2 view .LVU220
 956              	@ ../5-PWM_LCD_SERIAL/DHT11.h:6: void DHT11_start(void) {
   6:../5-PWM_LCD_SERIAL/DHT11.h **** 	RCC->APB2ENR |= 0x3 <<2;
 957              		.loc 4 6 24 is_stmt 0 view .LVU221
 958 030c 37B5     		push	{r0, r1, r2, r4, r5, lr}	@
 959              	.LCFI9:
ARM GAS  /tmp/ccxAy8dA.s 			page 24


 960              		.cfi_def_cfa_offset 24
 961              		.cfi_offset 4, -12
 962              		.cfi_offset 5, -8
 963              		.cfi_offset 14, -4
 964              	@ ../5-PWM_LCD_SERIAL/DHT11.h:7: 	RCC->APB2ENR |= 0x3 <<2;
 965              		.loc 4 7 15 view .LVU222
 966 030e 154A     		ldr	r2, .L53	@ tmp115,
 967              	@ ../5-PWM_LCD_SERIAL/DHT11.h:11:     GPIO_InitStruct.GPIO_Pin = DHT11_DATA_PIN;
   8:../5-PWM_LCD_SERIAL/DHT11.h **** 
   9:../5-PWM_LCD_SERIAL/DHT11.h ****     // Configurar o pino como saída
  10:../5-PWM_LCD_SERIAL/DHT11.h ****     GPIO_InitTypeDef GPIO_InitStruct;
  11:../5-PWM_LCD_SERIAL/DHT11.h ****     GPIO_InitStruct.GPIO_Pin = DHT11_DATA_PIN;
 968              		.loc 4 11 30 view .LVU223
 969 0310 4FF48055 		mov	r5, #4096	@ tmp118,
 970              	@ ../5-PWM_LCD_SERIAL/DHT11.h:7: 	RCC->APB2ENR |= 0x3 <<2;
   7:../5-PWM_LCD_SERIAL/DHT11.h **** 
 971              		.loc 4 7 15 view .LVU224
 972 0314 9369     		ldr	r3, [r2, #24]	@ _1, MEM[(struct RCC_TypeDef *)1073876992B].APB2ENR
 973              	@ ../5-PWM_LCD_SERIAL/DHT11.h:14:     GPIO_Init(DHT11_GPIO, &GPIO_InitStruct);
  12:../5-PWM_LCD_SERIAL/DHT11.h ****     GPIO_InitStruct.GPIO_Mode = GPIO_Mode_Out_PP;
  13:../5-PWM_LCD_SERIAL/DHT11.h ****     GPIO_InitStruct.GPIO_Speed = GPIO_Speed_50MHz;
  14:../5-PWM_LCD_SERIAL/DHT11.h ****     GPIO_Init(DHT11_GPIO, &GPIO_InitStruct);
 974              		.loc 4 14 5 view .LVU225
 975 0316 144C     		ldr	r4, .L53+4	@ tmp122,
 976              	@ ../5-PWM_LCD_SERIAL/DHT11.h:7: 	RCC->APB2ENR |= 0x3 <<2;
   7:../5-PWM_LCD_SERIAL/DHT11.h **** 
 977              		.loc 4 7 15 view .LVU226
 978 0318 43F00C03 		orr	r3, r3, #12	@ _2, _1,
 979 031c 9361     		str	r3, [r2, #24]	@ _2, MEM[(struct RCC_TypeDef *)1073876992B].APB2ENR
  10:../5-PWM_LCD_SERIAL/DHT11.h ****     GPIO_InitStruct.GPIO_Pin = DHT11_DATA_PIN;
 980              		.loc 4 10 5 is_stmt 1 view .LVU227
  11:../5-PWM_LCD_SERIAL/DHT11.h ****     GPIO_InitStruct.GPIO_Mode = GPIO_Mode_Out_PP;
 981              		.loc 4 11 5 view .LVU228
  12:../5-PWM_LCD_SERIAL/DHT11.h ****     GPIO_InitStruct.GPIO_Mode = GPIO_Mode_Out_PP;
 982              		.loc 4 12 5 view .LVU229
  13:../5-PWM_LCD_SERIAL/DHT11.h ****     GPIO_Init(DHT11_GPIO, &GPIO_InitStruct);
 983              		.loc 4 13 5 view .LVU230
 984              	@ ../5-PWM_LCD_SERIAL/DHT11.h:13:     GPIO_InitStruct.GPIO_Speed = GPIO_Speed_50MHz;
  13:../5-PWM_LCD_SERIAL/DHT11.h ****     GPIO_Init(DHT11_GPIO, &GPIO_InitStruct);
 985              		.loc 4 13 32 is_stmt 0 view .LVU231
 986 031e 41F20303 		movw	r3, #4099	@ tmp120,
 987              	@ ../5-PWM_LCD_SERIAL/DHT11.h:14:     GPIO_Init(DHT11_GPIO, &GPIO_InitStruct);
 988              		.loc 4 14 5 view .LVU232
 989 0322 2046     		mov	r0, r4	@, tmp122
 990 0324 01A9     		add	r1, sp, #4	@ tmp130,,
 991              	@ ../5-PWM_LCD_SERIAL/DHT11.h:13:     GPIO_InitStruct.GPIO_Speed = GPIO_Speed_50MHz;
  13:../5-PWM_LCD_SERIAL/DHT11.h ****     GPIO_Init(DHT11_GPIO, &GPIO_InitStruct);
 992              		.loc 4 13 32 view .LVU233
 993 0326 ADF80630 		strh	r3, [sp, #6]	@ movhi	@ tmp120, MEM <unsigned short> [(void *)&GPIO_InitStruct + 2B]
 994              		.loc 4 14 5 is_stmt 1 view .LVU234
 995              	@ ../5-PWM_LCD_SERIAL/DHT11.h:11:     GPIO_InitStruct.GPIO_Pin = DHT11_DATA_PIN;
  11:../5-PWM_LCD_SERIAL/DHT11.h ****     GPIO_InitStruct.GPIO_Mode = GPIO_Mode_Out_PP;
 996              		.loc 4 11 30 is_stmt 0 view .LVU235
 997 032a ADF80450 		strh	r5, [sp, #4]	@ movhi	@ tmp118, GPIO_InitStruct.GPIO_Pin
 998              	@ ../5-PWM_LCD_SERIAL/DHT11.h:14:     GPIO_Init(DHT11_GPIO, &GPIO_InitStruct);
 999              		.loc 4 14 5 view .LVU236
 1000 032e FFF7FEFF 		bl	GPIO_Init		@
ARM GAS  /tmp/ccxAy8dA.s 			page 25


 1001              	.LVL29:
  15:../5-PWM_LCD_SERIAL/DHT11.h **** 
  16:../5-PWM_LCD_SERIAL/DHT11.h ****     // Enviar sinal de inicialização do sensor
  17:../5-PWM_LCD_SERIAL/DHT11.h ****     GPIO_ResetBits(DHT11_GPIO, DHT11_DATA_PIN);
 1002              		.loc 4 17 5 is_stmt 1 view .LVU237
 1003 0332 2946     		mov	r1, r5	@, tmp118
 1004 0334 2046     		mov	r0, r4	@, tmp122
 1005 0336 FFF7FEFF 		bl	GPIO_ResetBits		@
 1006              	.LVL30:
  18:../5-PWM_LCD_SERIAL/DHT11.h ****     __delay(18000);
 1007              		.loc 4 18 5 view .LVU238
 1008 033a 44F25060 		movw	r0, #18000	@,
 1009 033e FFF7FEFF 		bl	vTaskDelay		@
 1010              	.LVL31:
  19:../5-PWM_LCD_SERIAL/DHT11.h ****     GPIO_SetBits(DHT11_GPIO, DHT11_DATA_PIN);
 1011              		.loc 4 19 5 view .LVU239
 1012 0342 2946     		mov	r1, r5	@, tmp118
 1013 0344 2046     		mov	r0, r4	@, tmp122
 1014 0346 FFF7FEFF 		bl	GPIO_SetBits		@
 1015              	.LVL32:
  20:../5-PWM_LCD_SERIAL/DHT11.h ****     __delay(20);
 1016              		.loc 4 20 5 view .LVU240
 1017 034a 1420     		movs	r0, #20	@,
 1018 034c FFF7FEFF 		bl	vTaskDelay		@
 1019              	.LVL33:
  21:../5-PWM_LCD_SERIAL/DHT11.h **** 
  22:../5-PWM_LCD_SERIAL/DHT11.h ****     // Configurar o pino como entrada para leitura dos dados do sensor
  23:../5-PWM_LCD_SERIAL/DHT11.h ****     GPIO_InitStruct.GPIO_Mode = GPIO_Mode_IPU;
 1020              		.loc 4 23 5 view .LVU241
 1021              	@ ../5-PWM_LCD_SERIAL/DHT11.h:23:     GPIO_InitStruct.GPIO_Mode = GPIO_Mode_IPU;
 1022              		.loc 4 23 31 is_stmt 0 view .LVU242
 1023 0350 4823     		movs	r3, #72	@ tmp125,
 1024              	@ ../5-PWM_LCD_SERIAL/DHT11.h:24:     GPIO_Init(DHT11_GPIO, &GPIO_InitStruct);
  24:../5-PWM_LCD_SERIAL/DHT11.h ****     GPIO_Init(DHT11_GPIO, &GPIO_InitStruct);
 1025              		.loc 4 24 5 view .LVU243
 1026 0352 2046     		mov	r0, r4	@, tmp122
 1027 0354 01A9     		add	r1, sp, #4	@ tmp131,,
 1028              	@ ../5-PWM_LCD_SERIAL/DHT11.h:23:     GPIO_InitStruct.GPIO_Mode = GPIO_Mode_IPU;
  23:../5-PWM_LCD_SERIAL/DHT11.h ****     GPIO_Init(DHT11_GPIO, &GPIO_InitStruct);
 1029              		.loc 4 23 31 view .LVU244
 1030 0356 8DF80730 		strb	r3, [sp, #7]	@ tmp125, GPIO_InitStruct.GPIO_Mode
 1031              		.loc 4 24 5 is_stmt 1 view .LVU245
 1032 035a FFF7FEFF 		bl	GPIO_Init		@
 1033              	.LVL34:
 1034              	@ ../5-PWM_LCD_SERIAL/DHT11.h:26: }
  25:../5-PWM_LCD_SERIAL/DHT11.h **** 
  26:../5-PWM_LCD_SERIAL/DHT11.h **** }
 1035              		.loc 4 26 1 is_stmt 0 view .LVU246
 1036 035e 03B0     		add	sp, sp, #12	@,,
 1037              	.LCFI10:
 1038              		.cfi_def_cfa_offset 12
 1039              		@ sp needed	@
 1040 0360 30BD     		pop	{r4, r5, pc}	@
 1041              	.L54:
 1042 0362 00BF     		.align	2
 1043              	.L53:
 1044 0364 00100240 		.word	1073876992
ARM GAS  /tmp/ccxAy8dA.s 			page 26


 1045 0368 00080140 		.word	1073809408
 1046              		.cfi_endproc
 1047              	.LFE42:
 1048              		.size	DHT11_start, .-DHT11_start
 1049              		.align	1
 1050              		.global	DHT11_read
 1051              		.syntax unified
 1052              		.thumb
 1053              		.thumb_func
 1054              		.type	DHT11_read, %function
 1055              	DHT11_read:
 1056              	.LFB43:
  27:../5-PWM_LCD_SERIAL/DHT11.h **** 
  28:../5-PWM_LCD_SERIAL/DHT11.h **** u16 DHT11_read( void ){
 1057              		.loc 4 28 23 is_stmt 1 view -0
 1058              		.cfi_startproc
 1059              		@ args = 0, pretend = 0, frame = 8
 1060              		@ frame_needed = 0, uses_anonymous_args = 0
  29:../5-PWM_LCD_SERIAL/DHT11.h **** 	u16 RETORNO;
 1061              		.loc 4 29 2 view .LVU248
  30:../5-PWM_LCD_SERIAL/DHT11.h **** 	u8 K =0 ;
 1062              		.loc 4 30 2 view .LVU249
 1063              	.LVL35:
  31:../5-PWM_LCD_SERIAL/DHT11.h **** 
  32:../5-PWM_LCD_SERIAL/DHT11.h ****     uint8_t data[5] = {0};
 1064              		.loc 4 32 5 view .LVU250
 1065              	@ ../5-PWM_LCD_SERIAL/DHT11.h:32:     uint8_t data[5] = {0};
 1066              		.loc 4 32 13 is_stmt 0 view .LVU251
 1067 036c 0023     		movs	r3, #0	@ tmp146,
 1068              	@ ../5-PWM_LCD_SERIAL/DHT11.h:28: u16 DHT11_read( void ){
  28:../5-PWM_LCD_SERIAL/DHT11.h **** 	u16 RETORNO;
 1069              		.loc 4 28 23 view .LVU252
 1070 036e 73B5     		push	{r0, r1, r4, r5, r6, lr}	@
 1071              	.LCFI11:
 1072              		.cfi_def_cfa_offset 24
 1073              		.cfi_offset 4, -16
 1074              		.cfi_offset 5, -12
 1075              		.cfi_offset 6, -8
 1076              		.cfi_offset 14, -4
 1077              	@ ../5-PWM_LCD_SERIAL/DHT11.h:35:     while (!GPIO_ReadInputDataBit(DHT11_GPIO, DHT11_DATA_PIN)){
  33:../5-PWM_LCD_SERIAL/DHT11.h **** 
  34:../5-PWM_LCD_SERIAL/DHT11.h ****     // Esperar o sensor iniciar a transmissão de dados
  35:../5-PWM_LCD_SERIAL/DHT11.h ****     while (!GPIO_ReadInputDataBit(DHT11_GPIO, DHT11_DATA_PIN)){
 1078              		.loc 4 35 13 view .LVU253
 1079 0370 1F4C     		ldr	r4, .L66	@ tmp180,
 1080              	@ ../5-PWM_LCD_SERIAL/DHT11.h:32:     uint8_t data[5] = {0};
  32:../5-PWM_LCD_SERIAL/DHT11.h **** 
 1081              		.loc 4 32 13 view .LVU254
 1082 0372 0093     		str	r3, [sp]	@ tmp146, data
 1083 0374 8DF80430 		strb	r3, [sp, #4]	@ tmp146, data
 1084              		.loc 4 35 5 is_stmt 1 view .LVU255
 1085              	.LVL36:
 1086              	.L56:
 1087              		.loc 4 35 11 view .LVU256
 1088              	@ ../5-PWM_LCD_SERIAL/DHT11.h:35:     while (!GPIO_ReadInputDataBit(DHT11_GPIO, DHT11_DATA_PIN)){
 1089              		.loc 4 35 13 is_stmt 0 view .LVU257
 1090 0378 4FF48051 		mov	r1, #4096	@,
ARM GAS  /tmp/ccxAy8dA.s 			page 27


 1091 037c 2046     		mov	r0, r4	@, tmp180
 1092 037e FFF7FEFF 		bl	GPIO_ReadInputDataBit		@
 1093              	.LVL37:
 1094              	@ ../5-PWM_LCD_SERIAL/DHT11.h:35:     while (!GPIO_ReadInputDataBit(DHT11_GPIO, DHT11_DATA_PIN)){
 1095              		.loc 4 35 11 view .LVU258
 1096 0382 80B3     		cbz	r0, .L57	@ tmp182,
 1097 0384 0024     		movs	r4, #0	@ ivtmp.71,
 1098              	.LBB2:
 1099              	@ ../5-PWM_LCD_SERIAL/DHT11.h:59:         if (GPIO_ReadInputDataBit(DHT11_GPIO, DHT11_DATA_PIN)) {
  36:../5-PWM_LCD_SERIAL/DHT11.h **** 		 __delay(1);
  37:../5-PWM_LCD_SERIAL/DHT11.h **** 			K++;
  38:../5-PWM_LCD_SERIAL/DHT11.h **** 				if (K > 1000)
  39:../5-PWM_LCD_SERIAL/DHT11.h **** 					return 1;
  40:../5-PWM_LCD_SERIAL/DHT11.h **** 		  } K =0;
  41:../5-PWM_LCD_SERIAL/DHT11.h **** 
  42:../5-PWM_LCD_SERIAL/DHT11.h ****     // Ler os 40 bits de dados enviados pelo sensor
  43:../5-PWM_LCD_SERIAL/DHT11.h ****     for (uint8_t i = 0; i < 40; i++) {
  44:../5-PWM_LCD_SERIAL/DHT11.h ****         // Esperar até que o bit atual seja transmitido completamente
  45:../5-PWM_LCD_SERIAL/DHT11.h **** /*
  46:../5-PWM_LCD_SERIAL/DHT11.h ****         while (GPIO_ReadInputDataBit(DHT11_GPIO, DHT11_DATA_PIN)){
  47:../5-PWM_LCD_SERIAL/DHT11.h **** 		 __delay(1);
  48:../5-PWM_LCD_SERIAL/DHT11.h **** 			K++;
  49:../5-PWM_LCD_SERIAL/DHT11.h **** 				if (K > 1000)
  50:../5-PWM_LCD_SERIAL/DHT11.h **** 					return 2;
  51:../5-PWM_LCD_SERIAL/DHT11.h **** 		  } K =0;
  52:../5-PWM_LCD_SERIAL/DHT11.h **** */
  53:../5-PWM_LCD_SERIAL/DHT11.h **** 	//USARTSend("\r\n___RUNNING....");
  54:../5-PWM_LCD_SERIAL/DHT11.h ****         // Aguardarle (GPIO_ReadInputDataBit(DHT11_GPIO, DHT11_DATA_PIN));
  55:../5-PWM_LCD_SERIAL/DHT11.h **** 		  //
  56:../5-PWM_LCD_SERIAL/DHT11.h **** 		  //     // Ler os 40 bits de dados enviados pelo
  57:../5-PWM_LCD_SERIAL/DHT11.h **** 		  //     sensor)) 30us (LOW) e verificar se o bit atual é um 0 ou 1
  58:../5-PWM_LCD_SERIAL/DHT11.h ****         __delay(30);
  59:../5-PWM_LCD_SERIAL/DHT11.h ****         if (GPIO_ReadInputDataBit(DHT11_GPIO, DHT11_DATA_PIN)) {
 1100              		.loc 4 59 13 view .LVU259
 1101 0386 1A4E     		ldr	r6, .L66	@ tmp178,
 1102              	.L59:
 1103              	@ ../5-PWM_LCD_SERIAL/DHT11.h:58:         __delay(30);
  58:../5-PWM_LCD_SERIAL/DHT11.h ****         if (GPIO_ReadInputDataBit(DHT11_GPIO, DHT11_DATA_PIN)) {
 1104              		.loc 4 58 9 view .LVU260
 1105 0388 1E20     		movs	r0, #30	@,
 1106 038a FFF7FEFF 		bl	vTaskDelay		@
 1107              	.LVL38:
 1108              	@ ../5-PWM_LCD_SERIAL/DHT11.h:59:         if (GPIO_ReadInputDataBit(DHT11_GPIO, DHT11_DATA_PIN)) {
 1109              		.loc 4 59 13 view .LVU261
 1110 038e 4FF48051 		mov	r1, #4096	@,
 1111 0392 3046     		mov	r0, r6	@, tmp178
 1112 0394 E5B2     		uxtb	r5, r4	@ _63, ivtmp.71
 1113              	.LVL39:
  58:../5-PWM_LCD_SERIAL/DHT11.h ****         if (GPIO_ReadInputDataBit(DHT11_GPIO, DHT11_DATA_PIN)) {
 1114              		.loc 4 58 9 is_stmt 1 view .LVU262
 1115              		.loc 4 59 9 view .LVU263
 1116              	@ ../5-PWM_LCD_SERIAL/DHT11.h:59:         if (GPIO_ReadInputDataBit(DHT11_GPIO, DHT11_DATA_PIN)) {
 1117              		.loc 4 59 13 is_stmt 0 view .LVU264
 1118 0396 FFF7FEFF 		bl	GPIO_ReadInputDataBit		@
 1119              	.LVL40:
 1120              	@ ../5-PWM_LCD_SERIAL/DHT11.h:59:         if (GPIO_ReadInputDataBit(DHT11_GPIO, DHT11_DATA_PIN)) {
 1121              		.loc 4 59 12 view .LVU265
ARM GAS  /tmp/ccxAy8dA.s 			page 28


 1122 039a 60B1     		cbz	r0, .L58	@ tmp183,
  60:../5-PWM_LCD_SERIAL/DHT11.h ****             // Se o nível for alto, o bit atual é 1
  61:../5-PWM_LCD_SERIAL/DHT11.h ****             data[i / 8] |= (1 << (7 - (i % 8)));
 1123              		.loc 4 61 13 is_stmt 1 view .LVU266
 1124              	@ ../5-PWM_LCD_SERIAL/DHT11.h:61:             data[i / 8] |= (1 << (7 - (i % 8)));
 1125              		.loc 4 61 25 is_stmt 0 view .LVU267
 1126 039c 02AB     		add	r3, sp, #8	@ tmp185,,
 1127 039e 03EBD502 		add	r2, r3, r5, lsr #3	@ tmp154, tmp185, _63,
 1128              	@ ../5-PWM_LCD_SERIAL/DHT11.h:61:             data[i / 8] |= (1 << (7 - (i % 8)));
 1129              		.loc 4 61 37 view .LVU268
 1130 03a2 E343     		mvns	r3, r4	@ tmp155, ivtmp.71
 1131 03a4 03F00701 		and	r1, r3, #7	@ tmp156, tmp155,
 1132              	@ ../5-PWM_LCD_SERIAL/DHT11.h:61:             data[i / 8] |= (1 << (7 - (i % 8)));
 1133              		.loc 4 61 31 view .LVU269
 1134 03a8 0123     		movs	r3, #1	@ tmp158,
 1135 03aa 8B40     		lsls	r3, r3, r1	@ tmp157, tmp158, tmp156
 1136              	@ ../5-PWM_LCD_SERIAL/DHT11.h:61:             data[i / 8] |= (1 << (7 - (i % 8)));
 1137              		.loc 4 61 25 view .LVU270
 1138 03ac 12F8081C 		ldrb	r1, [r2, #-8]	@ zero_extendqisi2	@ data[_3], data[_3]
 1139 03b0 0B43     		orrs	r3, r3, r1	@, tmp163, tmp157, data[_3]
 1140 03b2 02F8083C 		strb	r3, [r2, #-8]	@ tmp163, data[_3]
 1141              	.L58:
  43:../5-PWM_LCD_SERIAL/DHT11.h ****         // Esperar até que o bit atual seja transmitido completamente
 1142              		.loc 4 43 33 is_stmt 1 discriminator 2 view .LVU271
 1143              	.LVL41:
  43:../5-PWM_LCD_SERIAL/DHT11.h ****         // Esperar até que o bit atual seja transmitido completamente
 1144              		.loc 4 43 25 discriminator 2 view .LVU272
 1145              	@ ../5-PWM_LCD_SERIAL/DHT11.h:43:     for (uint8_t i = 0; i < 40; i++) {
  43:../5-PWM_LCD_SERIAL/DHT11.h ****         // Esperar até que o bit atual seja transmitido completamente
 1146              		.loc 4 43 5 is_stmt 0 discriminator 2 view .LVU273
 1147 03b6 0134     		adds	r4, r4, #1	@ ivtmp.71, ivtmp.71,
 1148              	.LVL42:
  43:../5-PWM_LCD_SERIAL/DHT11.h ****         // Esperar até que o bit atual seja transmitido completamente
 1149              		.loc 4 43 5 discriminator 2 view .LVU274
 1150 03b8 282C     		cmp	r4, #40	@ ivtmp.71,
 1151 03ba E5D1     		bne	.L59		@,
 1152              	.LBE2:
  62:../5-PWM_LCD_SERIAL/DHT11.h ****         }
  63:../5-PWM_LCD_SERIAL/DHT11.h **** /*
  64:../5-PWM_LCD_SERIAL/DHT11.h ****         // Esperar até que o bit atual seja transmitido completamente
  65:../5-PWM_LCD_SERIAL/DHT11.h ****         while (GPIO_ReadInputDataBit(DHT11_GPIO, DHT11_DATA_PIN)){
  66:../5-PWM_LCD_SERIAL/DHT11.h **** 		 __delay(1);
  67:../5-PWM_LCD_SERIAL/DHT11.h **** 			K++;
  68:../5-PWM_LCD_SERIAL/DHT11.h **** 				if (K > 1000)
  69:../5-PWM_LCD_SERIAL/DHT11.h **** 					return 3;
  70:../5-PWM_LCD_SERIAL/DHT11.h **** 		  } K =0;
  71:../5-PWM_LCD_SERIAL/DHT11.h **** */
  72:../5-PWM_LCD_SERIAL/DHT11.h ****     }
  73:../5-PWM_LCD_SERIAL/DHT11.h **** 
  74:../5-PWM_LCD_SERIAL/DHT11.h ****     // Verificar a integridade dos dados recebidos
  75:../5-PWM_LCD_SERIAL/DHT11.h ****     if (data[0] + data[1] + data[2] + data[3] == data[4]) {
 1153              		.loc 4 75 5 is_stmt 1 view .LVU275
 1154              	@ ../5-PWM_LCD_SERIAL/DHT11.h:75:     if (data[0] + data[1] + data[2] + data[3] == data[4]) {
 1155              		.loc 4 75 13 is_stmt 0 view .LVU276
 1156 03bc 9DF80020 		ldrb	r2, [sp]	@ zero_extendqisi2	@ _14, data[0]
 1157              	@ ../5-PWM_LCD_SERIAL/DHT11.h:75:     if (data[0] + data[1] + data[2] + data[3] == data[4]) {
 1158              		.loc 4 75 23 view .LVU277
ARM GAS  /tmp/ccxAy8dA.s 			page 29


 1159 03c0 9DF80130 		ldrb	r3, [sp, #1]	@ zero_extendqisi2	@ data[1], data[1]
 1160              	@ ../5-PWM_LCD_SERIAL/DHT11.h:75:     if (data[0] + data[1] + data[2] + data[3] == data[4]) {
 1161              		.loc 4 75 33 view .LVU278
 1162 03c4 9DF80200 		ldrb	r0, [sp, #2]	@ zero_extendqisi2	@ _18, data[2]
 1163              	@ ../5-PWM_LCD_SERIAL/DHT11.h:75:     if (data[0] + data[1] + data[2] + data[3] == data[4]) {
 1164              		.loc 4 75 43 view .LVU279
 1165 03c8 9DF80310 		ldrb	r1, [sp, #3]	@ zero_extendqisi2	@ data[3], data[3]
 1166              	@ ../5-PWM_LCD_SERIAL/DHT11.h:75:     if (data[0] + data[1] + data[2] + data[3] == data[4]) {
 1167              		.loc 4 75 17 view .LVU280
 1168 03cc 1344     		add	r3, r3, r2	@ tmp166, _14
 1169              	@ ../5-PWM_LCD_SERIAL/DHT11.h:75:     if (data[0] + data[1] + data[2] + data[3] == data[4]) {
 1170              		.loc 4 75 27 view .LVU281
 1171 03ce 0344     		add	r3, r3, r0	@ tmp167, _18
 1172              	@ ../5-PWM_LCD_SERIAL/DHT11.h:75:     if (data[0] + data[1] + data[2] + data[3] == data[4]) {
 1173              		.loc 4 75 37 view .LVU282
 1174 03d0 0B44     		add	r3, r3, r1	@ tmp169, data[3]
 1175              	@ ../5-PWM_LCD_SERIAL/DHT11.h:75:     if (data[0] + data[1] + data[2] + data[3] == data[4]) {
 1176              		.loc 4 75 54 view .LVU283
 1177 03d2 9DF80410 		ldrb	r1, [sp, #4]	@ zero_extendqisi2	@ data[4], data[4]
 1178              	@ ../5-PWM_LCD_SERIAL/DHT11.h:75:     if (data[0] + data[1] + data[2] + data[3] == data[4]) {
 1179              		.loc 4 75 8 view .LVU284
 1180 03d6 8B42     		cmp	r3, r1	@ tmp169, data[4]
  76:../5-PWM_LCD_SERIAL/DHT11.h **** 		return RETORNO = data[0] << 8| data[2] <<0;
 1181              		.loc 4 76 3 is_stmt 1 view .LVU285
 1182              	@ ../5-PWM_LCD_SERIAL/DHT11.h:79:   return 0xFFFF;
  77:../5-PWM_LCD_SERIAL/DHT11.h ****     }
  78:../5-PWM_LCD_SERIAL/DHT11.h **** 
  79:../5-PWM_LCD_SERIAL/DHT11.h ****   return 0xFFFF;
 1183              		.loc 4 79 10 is_stmt 0 view .LVU286
 1184 03d8 14BF     		ite	ne
 1185 03da 4FF6FF70 		movwne	r0, #65535	@ <retval>,
 1186              	@ ../5-PWM_LCD_SERIAL/DHT11.h:76: 		return RETORNO = data[0] << 8| data[2] <<0;
  76:../5-PWM_LCD_SERIAL/DHT11.h **** 		return RETORNO = data[0] << 8| data[2] <<0;
 1187              		.loc 4 76 18 view .LVU287
 1188 03de 40EA0220 		orreq	r0, r0, r2, lsl #8	@ <retval>, _18, _14,
 1189              	@ ../5-PWM_LCD_SERIAL/DHT11.h:80: }
  80:../5-PWM_LCD_SERIAL/DHT11.h **** }
 1190              		.loc 4 80 1 view .LVU288
 1191 03e2 02B0     		add	sp, sp, #8	@,,
 1192              	.LCFI12:
 1193              		.cfi_remember_state
 1194              		.cfi_def_cfa_offset 16
 1195              		@ sp needed	@
 1196 03e4 70BD     		pop	{r4, r5, r6, pc}	@
 1197              	.LVL43:
 1198              	.L57:
 1199              	.LCFI13:
 1200              		.cfi_restore_state
  36:../5-PWM_LCD_SERIAL/DHT11.h **** 			K++;
 1201              		.loc 4 36 4 is_stmt 1 view .LVU289
 1202 03e6 0120     		movs	r0, #1	@,
 1203 03e8 FFF7FEFF 		bl	vTaskDelay		@
 1204              	.LVL44:
  37:../5-PWM_LCD_SERIAL/DHT11.h **** 				if (K > 1000)
 1205              		.loc 4 37 4 view .LVU290
  38:../5-PWM_LCD_SERIAL/DHT11.h **** 					return 1;
 1206              		.loc 4 38 5 view .LVU291
ARM GAS  /tmp/ccxAy8dA.s 			page 30


 1207 03ec C4E7     		b	.L56		@
 1208              	.L67:
 1209 03ee 00BF     		.align	2
 1210              	.L66:
 1211 03f0 00080140 		.word	1073809408
 1212              		.cfi_endproc
 1213              	.LFE43:
 1214              		.size	DHT11_read, .-DHT11_read
 1215              		.section	.rodata.str1.1
 1216              	.LC1:
 1217 0011 0D0A494E 		.ascii	"\015\012INICIANDO....\015\012\000"
 1217      49434941 
 1217      4E444F2E 
 1217      2E2E2E0D 
 1217      0A00
 1218              	.LC2:
 1219 0023 0A0D5465 		.ascii	"\012\015Temperatura: \000"
 1219      6D706572 
 1219      61747572 
 1219      613A2000 
 1220              	.LC3:
 1221 0033 0A0D4875 		.ascii	"\012\015Humidade: \000"
 1221      6D696461 
 1221      64653A20 
 1221      00
 1222              		.text
 1223              		.align	1
 1224              		.global	task3
 1225              		.syntax unified
 1226              		.thumb
 1227              		.thumb_func
 1228              		.type	task3, %function
 1229              	task3:
 1230              	.LVL45:
 1231              	.LFB46:
 100:../5-PWM_LCD_SERIAL/main.c **** 	}
 101:../5-PWM_LCD_SERIAL/main.c **** }
 102:../5-PWM_LCD_SERIAL/main.c **** 
 103:../5-PWM_LCD_SERIAL/main.c ****  void task3(void *args __attribute ((unused))){
 1232              		.loc 1 103 47 view -0
 1233              		.cfi_startproc
 1234              		@ args = 0, pretend = 0, frame = 32
 1235              		@ frame_needed = 0, uses_anonymous_args = 0
 104:../5-PWM_LCD_SERIAL/main.c **** 	/* [1---]
 105:../5-PWM_LCD_SERIAL/main.c **** 	 *
 106:../5-PWM_LCD_SERIAL/main.c **** 	 * Tarefa dedicada a leitura do sensor de temperatura e
 107:../5-PWM_LCD_SERIAL/main.c **** 	 * humidade do ar.
 108:../5-PWM_LCD_SERIAL/main.c **** 	 *
 109:../5-PWM_LCD_SERIAL/main.c **** 	 * O valor amostrado deve ser transmitido a cada 500ms
 110:../5-PWM_LCD_SERIAL/main.c **** 	 * usando área de memória compartilhada. -> [2---]
 111:../5-PWM_LCD_SERIAL/main.c **** 	 *
 112:../5-PWM_LCD_SERIAL/main.c **** 	 * Problemas: A configuração do TIMER está errada nas
 113:../5-PWM_LCD_SERIAL/main.c **** 	 * linhas: 15 e 93 do arquivo dht11.c !!!!!
 114:../5-PWM_LCD_SERIAL/main.c **** 	 *
 115:../5-PWM_LCD_SERIAL/main.c **** 	 * Solução: 
 116:../5-PWM_LCD_SERIAL/main.c **** 	 *		Comparar com a biblioteca funcional do outro
 117:../5-PWM_LCD_SERIAL/main.c **** 	 *		projeto!!!
ARM GAS  /tmp/ccxAy8dA.s 			page 31


 118:../5-PWM_LCD_SERIAL/main.c **** 	 *
 119:../5-PWM_LCD_SERIAL/main.c **** 	 *
 120:../5-PWM_LCD_SERIAL/main.c **** 	 *
 121:../5-PWM_LCD_SERIAL/main.c **** 	 * */
 122:../5-PWM_LCD_SERIAL/main.c **** 
 123:../5-PWM_LCD_SERIAL/main.c **** 	USART_init();
 1236              		.loc 1 123 2 view .LVU293
 1237              	@ ../5-PWM_LCD_SERIAL/main.c:103:  void task3(void *args __attribute ((unused))){
 103:../5-PWM_LCD_SERIAL/main.c **** 	/* [1---]
 1238              		.loc 1 103 47 is_stmt 0 view .LVU294
 1239 03f4 30B5     		push	{r4, r5, lr}	@
 1240              	.LCFI14:
 1241              		.cfi_def_cfa_offset 12
 1242              		.cfi_offset 4, -12
 1243              		.cfi_offset 5, -8
 1244              		.cfi_offset 14, -4
 1245 03f6 89B0     		sub	sp, sp, #36	@,,
 1246              	.LCFI15:
 1247              		.cfi_def_cfa_offset 48
 1248              	@ ../5-PWM_LCD_SERIAL/main.c:123: 	USART_init();
 1249              		.loc 1 123 2 view .LVU295
 1250 03f8 FFF7FEFF 		bl	USART_init		@
 1251              	.LVL46:
 124:../5-PWM_LCD_SERIAL/main.c **** 	DHT11_start();
 1252              		.loc 1 124 2 is_stmt 1 view .LVU296
 1253 03fc FFF7FEFF 		bl	DHT11_start		@
 1254              	.LVL47:
 125:../5-PWM_LCD_SERIAL/main.c **** 
 126:../5-PWM_LCD_SERIAL/main.c **** 	u16 dados_leitura=0xFFFF;
 1255              		.loc 1 126 2 view .LVU297
 1256              	@ ../5-PWM_LCD_SERIAL/main.c:126: 	u16 dados_leitura=0xFFFF;
 1257              		.loc 1 126 6 is_stmt 0 view .LVU298
 1258 0400 4FF6FF73 		movw	r3, #65535	@ tmp123,
 1259              	@ ../5-PWM_LCD_SERIAL/main.c:134: 	USARTSend("\r\nINICIANDO....\r\n");
 127:../5-PWM_LCD_SERIAL/main.c **** 
 128:../5-PWM_LCD_SERIAL/main.c **** 	int j = 0; 
 129:../5-PWM_LCD_SERIAL/main.c **** 
 130:../5-PWM_LCD_SERIAL/main.c **** 	j++;
 131:../5-PWM_LCD_SERIAL/main.c **** 
 132:../5-PWM_LCD_SERIAL/main.c **** 	char t[4], h[4], env[20];
 133:../5-PWM_LCD_SERIAL/main.c **** 
 134:../5-PWM_LCD_SERIAL/main.c **** 	USARTSend("\r\nINICIANDO....\r\n");
 1260              		.loc 1 134 2 view .LVU299
 1261 0404 2048     		ldr	r0, .L70	@,
 1262              	@ ../5-PWM_LCD_SERIAL/main.c:126: 	u16 dados_leitura=0xFFFF;
 126:../5-PWM_LCD_SERIAL/main.c **** 
 1263              		.loc 1 126 6 view .LVU300
 1264 0406 ADF80230 		strh	r3, [sp, #2]	@ movhi	@ tmp123, dados_leitura
 128:../5-PWM_LCD_SERIAL/main.c **** 
 1265              		.loc 1 128 2 is_stmt 1 view .LVU301
 1266              	.LVL48:
 130:../5-PWM_LCD_SERIAL/main.c **** 
 1267              		.loc 1 130 2 view .LVU302
 132:../5-PWM_LCD_SERIAL/main.c **** 
 1268              		.loc 1 132 2 view .LVU303
 1269              		.loc 1 134 2 view .LVU304
 1270 040a FFF7FEFF 		bl	USARTSend		@
ARM GAS  /tmp/ccxAy8dA.s 			page 32


 1271              	.LVL49:
 1272              	@ ../5-PWM_LCD_SERIAL/main.c:139: 	USARTSend("\r\nINICIANDO....\r\n");
 135:../5-PWM_LCD_SERIAL/main.c **** 
 136:../5-PWM_LCD_SERIAL/main.c **** 	while(1){
 137:../5-PWM_LCD_SERIAL/main.c **** 
 138:../5-PWM_LCD_SERIAL/main.c **** 		dados_leitura = DHT11_read();
 139:../5-PWM_LCD_SERIAL/main.c **** 	USARTSend("\r\nINICIANDO....\r\n");
 1273              		.loc 1 139 2 is_stmt 0 view .LVU305
 1274 040e 1E4D     		ldr	r5, .L70	@ tmp148,
 1275              	@ ../5-PWM_LCD_SERIAL/main.c:145: 		strcpy(env, "\n\rTemperatura: ");
 140:../5-PWM_LCD_SERIAL/main.c **** 
 141:../5-PWM_LCD_SERIAL/main.c **** 		itoa(dados_leitura & (0xF << 8), t, 10);
 142:../5-PWM_LCD_SERIAL/main.c **** 		itoa(dados_leitura & (0xF << 0), h, 10);
 143:../5-PWM_LCD_SERIAL/main.c **** 
 144:../5-PWM_LCD_SERIAL/main.c **** 		
 145:../5-PWM_LCD_SERIAL/main.c **** 		strcpy(env, "\n\rTemperatura: ");
 1276              		.loc 1 145 3 view .LVU306
 1277 0410 1E4C     		ldr	r4, .L70+4	@ tmp150,
 1278              	.L69:
 136:../5-PWM_LCD_SERIAL/main.c **** 
 1279              		.loc 1 136 2 is_stmt 1 discriminator 1 view .LVU307
 138:../5-PWM_LCD_SERIAL/main.c **** 	USARTSend("\r\nINICIANDO....\r\n");
 1280              		.loc 1 138 3 discriminator 1 view .LVU308
 1281              	@ ../5-PWM_LCD_SERIAL/main.c:138: 		dados_leitura = DHT11_read();
 138:../5-PWM_LCD_SERIAL/main.c **** 	USARTSend("\r\nINICIANDO....\r\n");
 1282              		.loc 1 138 19 is_stmt 0 discriminator 1 view .LVU309
 1283 0412 FFF7FEFF 		bl	DHT11_read		@
 1284              	.LVL50:
 1285              	@ ../5-PWM_LCD_SERIAL/main.c:138: 		dados_leitura = DHT11_read();
 138:../5-PWM_LCD_SERIAL/main.c **** 	USARTSend("\r\nINICIANDO....\r\n");
 1286              		.loc 1 138 17 discriminator 1 view .LVU310
 1287 0416 ADF80200 		strh	r0, [sp, #2]	@ movhi	@ tmp151, dados_leitura
 139:../5-PWM_LCD_SERIAL/main.c **** 
 1288              		.loc 1 139 2 is_stmt 1 discriminator 1 view .LVU311
 1289 041a 2846     		mov	r0, r5	@, tmp148
 1290 041c FFF7FEFF 		bl	USARTSend		@
 1291              	.LVL51:
 141:../5-PWM_LCD_SERIAL/main.c **** 		itoa(dados_leitura & (0xF << 0), h, 10);
 1292              		.loc 1 141 3 discriminator 1 view .LVU312
 1293 0420 BDF80200 		ldrh	r0, [sp, #2]	@, dados_leitura
 1294 0424 01A9     		add	r1, sp, #4	@ tmp153,,
 1295 0426 0A22     		movs	r2, #10	@,
 1296 0428 00F47060 		and	r0, r0, #3840	@, dados_leitura,
 1297 042c FFF7FEFF 		bl	itoa		@
 1298              	.LVL52:
 142:../5-PWM_LCD_SERIAL/main.c **** 
 1299              		.loc 1 142 3 discriminator 1 view .LVU313
 1300 0430 BDF80200 		ldrh	r0, [sp, #2]	@, dados_leitura
 1301 0434 0A22     		movs	r2, #10	@,
 1302 0436 02A9     		add	r1, sp, #8	@ tmp154,,
 1303 0438 00F00F00 		and	r0, r0, #15	@, dados_leitura,
 1304 043c FFF7FEFF 		bl	itoa		@
 1305              	.LVL53:
 1306              		.loc 1 145 3 discriminator 1 view .LVU314
 1307 0440 2146     		mov	r1, r4	@, tmp150
 1308 0442 03A8     		add	r0, sp, #12	@ tmp155,,
 1309 0444 FFF7FEFF 		bl	strcpy		@
ARM GAS  /tmp/ccxAy8dA.s 			page 33


 1310              	.LVL54:
 146:../5-PWM_LCD_SERIAL/main.c **** 		strcat(env, t);
 1311              		.loc 1 146 3 discriminator 1 view .LVU315
 1312 0448 01A9     		add	r1, sp, #4	@ tmp156,,
 1313 044a 03A8     		add	r0, sp, #12	@ tmp157,,
 1314 044c FFF7FEFF 		bl	strcat		@
 1315              	.LVL55:
 147:../5-PWM_LCD_SERIAL/main.c **** 		USARTSend(env);
 1316              		.loc 1 147 3 discriminator 1 view .LVU316
 1317 0450 03A8     		add	r0, sp, #12	@ tmp158,,
 1318 0452 FFF7FEFF 		bl	USARTSend		@
 1319              	.LVL56:
 148:../5-PWM_LCD_SERIAL/main.c **** 
 149:../5-PWM_LCD_SERIAL/main.c **** 		strcpy(env, "\n\rHumidade: ");
 1320              		.loc 1 149 3 discriminator 1 view .LVU317
 1321 0456 0E49     		ldr	r1, .L70+8	@,
 1322 0458 03A8     		add	r0, sp, #12	@ tmp159,,
 1323 045a FFF7FEFF 		bl	strcpy		@
 1324              	.LVL57:
 150:../5-PWM_LCD_SERIAL/main.c **** 		strcat(env, h);
 1325              		.loc 1 150 3 discriminator 1 view .LVU318
 1326 045e 02A9     		add	r1, sp, #8	@ tmp160,,
 1327 0460 03A8     		add	r0, sp, #12	@ tmp161,,
 1328 0462 FFF7FEFF 		bl	strcat		@
 1329              	.LVL58:
 151:../5-PWM_LCD_SERIAL/main.c **** 		USARTSend(env);
 1330              		.loc 1 151 3 discriminator 1 view .LVU319
 1331 0466 03A8     		add	r0, sp, #12	@ tmp162,,
 1332 0468 FFF7FEFF 		bl	USARTSend		@
 1333              	.LVL59:
 152:../5-PWM_LCD_SERIAL/main.c **** 
 153:../5-PWM_LCD_SERIAL/main.c **** 
 154:../5-PWM_LCD_SERIAL/main.c **** 		__delay_ms(500);
 1334              		.loc 1 154 3 discriminator 1 view .LVU320
 1335 046c 4CF25030 		movw	r0, #50000	@,
 1336 0470 FFF7FEFF 		bl	vTaskDelay		@
 1337              	.LVL60:
 155:../5-PWM_LCD_SERIAL/main.c **** 		xQueueSend(LCD_DHT_queue, &dados_leitura, 0);
 1338              		.loc 1 155 3 discriminator 1 view .LVU321
 1339 0474 0023     		movs	r3, #0	@,
 1340 0476 0748     		ldr	r0, .L70+12	@ tmp147,
 1341 0478 1A46     		mov	r2, r3	@,
 1342 047a 0DF10201 		add	r1, sp, #2	@,,
 1343 047e 0068     		ldr	r0, [r0]	@, LCD_DHT_queue
 1344 0480 FFF7FEFF 		bl	xQueueGenericSend		@
 1345              	.LVL61:
 136:../5-PWM_LCD_SERIAL/main.c **** 
 1346              		.loc 1 136 7 discriminator 1 view .LVU322
 1347 0484 C5E7     		b	.L69		@
 1348              	.L71:
 1349 0486 00BF     		.align	2
 1350              	.L70:
 1351 0488 11000000 		.word	.LC1
 1352 048c 23000000 		.word	.LC2
 1353 0490 33000000 		.word	.LC3
 1354 0494 00000000 		.word	.LANCHOR0
 1355              		.cfi_endproc
ARM GAS  /tmp/ccxAy8dA.s 			page 34


 1356              	.LFE46:
 1357              		.size	task3, .-task3
 1358              		.section	.rodata.str1.1
 1359              	.LC4:
 1360 0040 4C43445F 		.ascii	"LCD_16x2\000"
 1360      31367832 
 1360      00
 1361              	.LC5:
 1362 0049 4C45445F 		.ascii	"LED_13\000"
 1362      313300
 1363              	.LC6:
 1364 0050 4448545F 		.ascii	"DHT_read\000"
 1364      72656164 
 1364      00
 1365              		.section	.text.startup,"ax",%progbits
 1366              		.align	1
 1367              		.global	main
 1368              		.syntax unified
 1369              		.thumb
 1370              		.thumb_func
 1371              		.type	main, %function
 1372              	main:
 1373              	.LFB48:
 156:../5-PWM_LCD_SERIAL/main.c **** 
 157:../5-PWM_LCD_SERIAL/main.c **** 	}
 158:../5-PWM_LCD_SERIAL/main.c **** }
 159:../5-PWM_LCD_SERIAL/main.c **** 
 160:../5-PWM_LCD_SERIAL/main.c **** static void task4(void *args __attribute ((unused))){
 161:../5-PWM_LCD_SERIAL/main.c **** 	/* [3---]
 162:../5-PWM_LCD_SERIAL/main.c **** 	 * Tarefa dedicada a leitura de botões para controlar o
 163:../5-PWM_LCD_SERIAL/main.c **** 	 * PWM -> ajuste de contraste.
 164:../5-PWM_LCD_SERIAL/main.c **** 	 * */
 165:../5-PWM_LCD_SERIAL/main.c **** 	
 166:../5-PWM_LCD_SERIAL/main.c **** 	while(1){
 167:../5-PWM_LCD_SERIAL/main.c **** 		
 168:../5-PWM_LCD_SERIAL/main.c **** 	}
 169:../5-PWM_LCD_SERIAL/main.c **** }
 170:../5-PWM_LCD_SERIAL/main.c **** 
 171:../5-PWM_LCD_SERIAL/main.c **** int main(void) {
 1374              		.loc 1 171 16 view -0
 1375              		.cfi_startproc
 1376              		@ Volatile: function does not return.
 1377              		@ args = 0, pretend = 0, frame = 0
 1378              		@ frame_needed = 0, uses_anonymous_args = 0
 172:../5-PWM_LCD_SERIAL/main.c **** 
 173:../5-PWM_LCD_SERIAL/main.c **** 	LCD_DHT_queue = xQueueCreate(17, sizeof(int));
 1379              		.loc 1 173 2 view .LVU324
 1380              	@ ../5-PWM_LCD_SERIAL/main.c:171: int main(void) {
 171:../5-PWM_LCD_SERIAL/main.c **** 
 1381              		.loc 1 171 16 is_stmt 0 view .LVU325
 1382 0000 07B5     		push	{r0, r1, r2, lr}	@
 1383              	.LCFI16:
 1384              		.cfi_def_cfa_offset 16
 1385              		.cfi_offset 14, -4
 1386              	@ ../5-PWM_LCD_SERIAL/main.c:173: 	LCD_DHT_queue = xQueueCreate(17, sizeof(int));
 1387              		.loc 1 173 18 view .LVU326
 1388 0002 0022     		movs	r2, #0	@,
ARM GAS  /tmp/ccxAy8dA.s 			page 35


 1389 0004 0421     		movs	r1, #4	@,
 1390 0006 1120     		movs	r0, #17	@,
 1391 0008 FFF7FEFF 		bl	xQueueGenericCreate		@
 1392              	.LVL62:
 1393              	@ ../5-PWM_LCD_SERIAL/main.c:177: 	xTaskCreate(task1,"LCD_16x2", 100 ,NULL, 3 ,NULL);
 174:../5-PWM_LCD_SERIAL/main.c **** 	
 175:../5-PWM_LCD_SERIAL/main.c **** 	set_system_clock_to_72Mhz();
 176:../5-PWM_LCD_SERIAL/main.c **** 
 177:../5-PWM_LCD_SERIAL/main.c **** 	xTaskCreate(task1,"LCD_16x2", 100 ,NULL, 3 ,NULL);
 1394              		.loc 1 177 2 view .LVU327
 1395 000c 0024     		movs	r4, #0	@ tmp118,
 1396 000e 0325     		movs	r5, #3	@ tmp119,
 1397              	@ ../5-PWM_LCD_SERIAL/main.c:173: 	LCD_DHT_queue = xQueueCreate(17, sizeof(int));
 173:../5-PWM_LCD_SERIAL/main.c **** 	
 1398              		.loc 1 173 16 view .LVU328
 1399 0010 104B     		ldr	r3, .L74	@ tmp115,
 1400 0012 1860     		str	r0, [r3]	@ tmp128, LCD_DHT_queue
 175:../5-PWM_LCD_SERIAL/main.c **** 
 1401              		.loc 1 175 2 is_stmt 1 view .LVU329
 1402 0014 FFF7FEFF 		bl	set_system_clock_to_72Mhz		@
 1403              	.LVL63:
 1404              		.loc 1 177 2 view .LVU330
 1405 0018 0F48     		ldr	r0, .L74+4	@,
 1406 001a 2346     		mov	r3, r4	@, tmp118
 1407 001c 6422     		movs	r2, #100	@,
 1408 001e 0F49     		ldr	r1, .L74+8	@,
 1409 0020 CDE90054 		strd	r5, r4, [sp]	@ tmp119, tmp118,
 1410 0024 FFF7FEFF 		bl	xTaskCreate		@
 1411              	.LVL64:
 178:../5-PWM_LCD_SERIAL/main.c **** 	xTaskCreate(task2, "LED_13", 100 , NULL, 3, NULL);
 1412              		.loc 1 178 2 view .LVU331
 1413 0028 2346     		mov	r3, r4	@, tmp118
 1414 002a 6422     		movs	r2, #100	@,
 1415 002c 0C49     		ldr	r1, .L74+12	@,
 1416 002e CDE90054 		strd	r5, r4, [sp]	@ tmp119, tmp118,
 1417 0032 0C48     		ldr	r0, .L74+16	@,
 1418 0034 FFF7FEFF 		bl	xTaskCreate		@
 1419              	.LVL65:
 179:../5-PWM_LCD_SERIAL/main.c **** 	xTaskCreate(task3, "DHT_read", 300 , NULL, 4 , NULL);
 1420              		.loc 1 179 2 view .LVU332
 1421 0038 0423     		movs	r3, #4	@ tmp127,
 1422 003a 4FF49672 		mov	r2, #300	@,
 1423 003e 0A49     		ldr	r1, .L74+20	@,
 1424 0040 0093     		str	r3, [sp]	@ tmp127,
 1425 0042 0A48     		ldr	r0, .L74+24	@,
 1426 0044 2346     		mov	r3, r4	@, tmp118
 1427 0046 0194     		str	r4, [sp, #4]	@ tmp118,
 1428 0048 FFF7FEFF 		bl	xTaskCreate		@
 1429              	.LVL66:
 180:../5-PWM_LCD_SERIAL/main.c **** 	// xTaskCreate(task4, "Contrast", 100 , NULL, 4 , NULL);
 181:../5-PWM_LCD_SERIAL/main.c **** 
 182:../5-PWM_LCD_SERIAL/main.c **** 	vTaskStartScheduler(); 
 1430              		.loc 1 182 2 view .LVU333
 1431 004c FFF7FEFF 		bl	vTaskStartScheduler		@
 1432              	.LVL67:
 1433              	.L73:
 183:../5-PWM_LCD_SERIAL/main.c **** 
ARM GAS  /tmp/ccxAy8dA.s 			page 36


 184:../5-PWM_LCD_SERIAL/main.c **** 	while(1);
 1434              		.loc 1 184 2 discriminator 1 view .LVU334
 1435              		.loc 1 184 10 discriminator 1 view .LVU335
 1436              		.loc 1 184 7 discriminator 1 view .LVU336
 1437 0050 FEE7     		b	.L73		@
 1438              	.L75:
 1439 0052 00BF     		.align	2
 1440              	.L74:
 1441 0054 00000000 		.word	.LANCHOR0
 1442 0058 00000000 		.word	task1
 1443 005c 40000000 		.word	.LC4
 1444 0060 49000000 		.word	.LC5
 1445 0064 00000000 		.word	task2
 1446 0068 50000000 		.word	.LC6
 1447 006c 00000000 		.word	task3
 1448              		.cfi_endproc
 1449              	.LFE48:
 1450              		.size	main, .-main
 1451              		.bss
 1452              		.align	2
 1453              		.set	.LANCHOR0,. + 0
 1454              		.type	LCD_DHT_queue, %object
 1455              		.size	LCD_DHT_queue, 4
 1456              	LCD_DHT_queue:
 1457 0000 00000000 		.space	4
 1458              		.text
 1459              	.Letext0:
 1460              		.file 5 "/usr/arm-none-eabi/include/machine/_default_types.h"
 1461              		.file 6 "/usr/arm-none-eabi/include/sys/_stdint.h"
 1462              		.file 7 "../freertos/portable/GCC/ARM_CM3/portmacro.h"
 1463              		.file 8 "../freertos/include/queue.h"
 1464              		.file 9 "../stm32f10x_lib/CMSIS/CM3/DeviceSupport/ST/STM32F10x/stm32f10x.h"
 1465              		.file 10 "../stm32f10x_lib/CMSIS/CM3/CoreSupport/core_cm3.h"
 1466              		.file 11 "../stm32f10x_lib/STM32F10x_StdPeriph_Driver/inc/stm32f10x_gpio.h"
 1467              		.file 12 "../stm32f10x_lib/STM32F10x_StdPeriph_Driver/inc/stm32f10x_usart.h"
 1468              		.file 13 "../freertos/include/task.h"
 1469              		.file 14 "/usr/arm-none-eabi/include/stdlib.h"
 1470              		.file 15 "/usr/arm-none-eabi/include/string.h"
 1471              		.file 16 "../5-PWM_LCD_SERIAL/myLcd.h"
 1472              		.file 17 "../stm32f10x_lib/STM32F10x_StdPeriph_Driver/inc/stm32f10x_rcc.h"
 1473              		.section	.debug_info,"",%progbits
 1474              	.Ldebug_info0:
 1475 0000 E3140000 		.4byte	0x14e3
 1476 0004 0200     		.2byte	0x2
 1477 0006 00000000 		.4byte	.Ldebug_abbrev0
 1478 000a 04       		.byte	0x4
 1479 000b 01       		.uleb128 0x1
 1480 000c B0080000 		.4byte	.LASF220
 1481 0010 0C       		.byte	0xc
 1482 0011 0F0A0000 		.4byte	.LASF221
 1483 0015 72060000 		.4byte	.LASF222
 1484 0019 00000000 		.4byte	.Ldebug_ranges0+0
 1485 001d 00000000 		.4byte	0
 1486 0021 00000000 		.4byte	0
 1487 0025 00000000 		.4byte	.Ldebug_line0
 1488 0029 02       		.uleb128 0x2
 1489 002a 04       		.byte	0x4
ARM GAS  /tmp/ccxAy8dA.s 			page 37


 1490 002b 05       		.byte	0x5
 1491 002c 696E7400 		.ascii	"int\000"
 1492 0030 03       		.uleb128 0x3
 1493 0031 04       		.byte	0x4
 1494 0032 07       		.byte	0x7
 1495 0033 8E050000 		.4byte	.LASF0
 1496 0037 03       		.uleb128 0x3
 1497 0038 08       		.byte	0x8
 1498 0039 05       		.byte	0x5
 1499 003a 14050000 		.4byte	.LASF1
 1500 003e 03       		.uleb128 0x3
 1501 003f 08       		.byte	0x8
 1502 0040 04       		.byte	0x4
 1503 0041 06060000 		.4byte	.LASF2
 1504 0045 03       		.uleb128 0x3
 1505 0046 01       		.byte	0x1
 1506 0047 06       		.byte	0x6
 1507 0048 A1010000 		.4byte	.LASF3
 1508 004c 04       		.uleb128 0x4
 1509 004d CE000000 		.4byte	.LASF6
 1510 0051 05       		.byte	0x5
 1511 0052 2B       		.byte	0x2b
 1512 0053 18       		.byte	0x18
 1513 0054 58000000 		.4byte	0x58
 1514 0058 03       		.uleb128 0x3
 1515 0059 01       		.byte	0x1
 1516 005a 08       		.byte	0x8
 1517 005b E6010000 		.4byte	.LASF4
 1518 005f 03       		.uleb128 0x3
 1519 0060 02       		.byte	0x2
 1520 0061 05       		.byte	0x5
 1521 0062 49080000 		.4byte	.LASF5
 1522 0066 04       		.uleb128 0x4
 1523 0067 10030000 		.4byte	.LASF7
 1524 006b 05       		.byte	0x5
 1525 006c 39       		.byte	0x39
 1526 006d 19       		.byte	0x19
 1527 006e 72000000 		.4byte	0x72
 1528 0072 03       		.uleb128 0x3
 1529 0073 02       		.byte	0x2
 1530 0074 07       		.byte	0x7
 1531 0075 460A0000 		.4byte	.LASF8
 1532 0079 03       		.uleb128 0x3
 1533 007a 04       		.byte	0x4
 1534 007b 05       		.byte	0x5
 1535 007c ED000000 		.4byte	.LASF9
 1536 0080 04       		.uleb128 0x4
 1537 0081 09050000 		.4byte	.LASF10
 1538 0085 05       		.byte	0x5
 1539 0086 4F       		.byte	0x4f
 1540 0087 19       		.byte	0x19
 1541 0088 8C000000 		.4byte	0x8c
 1542 008c 03       		.uleb128 0x3
 1543 008d 04       		.byte	0x4
 1544 008e 07       		.byte	0x7
 1545 008f 4C040000 		.4byte	.LASF11
 1546 0093 03       		.uleb128 0x3
ARM GAS  /tmp/ccxAy8dA.s 			page 38


 1547 0094 08       		.byte	0x8
 1548 0095 07       		.byte	0x7
 1549 0096 5B060000 		.4byte	.LASF12
 1550 009a 04       		.uleb128 0x4
 1551 009b AD010000 		.4byte	.LASF13
 1552 009f 06       		.byte	0x6
 1553 00a0 18       		.byte	0x18
 1554 00a1 13       		.byte	0x13
 1555 00a2 4C000000 		.4byte	0x4c
 1556 00a6 05       		.uleb128 0x5
 1557 00a7 9A000000 		.4byte	0x9a
 1558 00ab 04       		.uleb128 0x4
 1559 00ac B3060000 		.4byte	.LASF14
 1560 00b0 06       		.byte	0x6
 1561 00b1 24       		.byte	0x24
 1562 00b2 14       		.byte	0x14
 1563 00b3 66000000 		.4byte	0x66
 1564 00b7 05       		.uleb128 0x5
 1565 00b8 AB000000 		.4byte	0xab
 1566 00bc 04       		.uleb128 0x4
 1567 00bd B4090000 		.4byte	.LASF15
 1568 00c1 06       		.byte	0x6
 1569 00c2 30       		.byte	0x30
 1570 00c3 14       		.byte	0x14
 1571 00c4 80000000 		.4byte	0x80
 1572 00c8 05       		.uleb128 0x5
 1573 00c9 BC000000 		.4byte	0xbc
 1574 00cd 06       		.uleb128 0x6
 1575 00ce 04       		.byte	0x4
 1576 00cf 04       		.uleb128 0x4
 1577 00d0 73000000 		.4byte	.LASF16
 1578 00d4 07       		.byte	0x7
 1579 00d5 38       		.byte	0x38
 1580 00d6 0E       		.byte	0xe
 1581 00d7 79000000 		.4byte	0x79
 1582 00db 04       		.uleb128 0x4
 1583 00dc 6B070000 		.4byte	.LASF17
 1584 00e0 07       		.byte	0x7
 1585 00e1 3F       		.byte	0x3f
 1586 00e2 13       		.byte	0x13
 1587 00e3 BC000000 		.4byte	0xbc
 1588 00e7 03       		.uleb128 0x3
 1589 00e8 01       		.byte	0x1
 1590 00e9 08       		.byte	0x8
 1591 00ea E3020000 		.4byte	.LASF18
 1592 00ee 04       		.uleb128 0x4
 1593 00ef 93010000 		.4byte	.LASF19
 1594 00f3 08       		.byte	0x8
 1595 00f4 30       		.byte	0x30
 1596 00f5 22       		.byte	0x22
 1597 00f6 FA000000 		.4byte	0xfa
 1598 00fa 07       		.uleb128 0x7
 1599 00fb 04       		.byte	0x4
 1600 00fc 00010000 		.4byte	0x100
 1601 0100 08       		.uleb128 0x8
 1602 0101 F6000000 		.4byte	.LASF223
 1603 0105 01       		.byte	0x1
ARM GAS  /tmp/ccxAy8dA.s 			page 39


 1604 0106 07       		.uleb128 0x7
 1605 0107 04       		.byte	0x4
 1606 0108 E7000000 		.4byte	0xe7
 1607 010c 09       		.uleb128 0x9
 1608 010d 39010000 		.4byte	.LASF193
 1609 0111 05       		.byte	0x5
 1610 0112 01       		.byte	0x1
 1611 0113 45000000 		.4byte	0x45
 1612 0117 09       		.byte	0x9
 1613 0118 A7       		.byte	0xa7
 1614 0119 0E       		.byte	0xe
 1615 011a 51020000 		.4byte	0x251
 1616 011e 0A       		.uleb128 0xa
 1617 011f 2E040000 		.4byte	.LASF20
 1618 0123 72       		.sleb128 -14
 1619 0124 0A       		.uleb128 0xa
 1620 0125 66040000 		.4byte	.LASF21
 1621 0129 74       		.sleb128 -12
 1622 012a 0A       		.uleb128 0xa
 1623 012b FB040000 		.4byte	.LASF22
 1624 012f 75       		.sleb128 -11
 1625 0130 0A       		.uleb128 0xa
 1626 0131 B9020000 		.4byte	.LASF23
 1627 0135 76       		.sleb128 -10
 1628 0136 0A       		.uleb128 0xa
 1629 0137 4D050000 		.4byte	.LASF24
 1630 013b 7B       		.sleb128 -5
 1631 013c 0A       		.uleb128 0xa
 1632 013d F5070000 		.4byte	.LASF25
 1633 0141 7C       		.sleb128 -4
 1634 0142 0A       		.uleb128 0xa
 1635 0143 7F0A0000 		.4byte	.LASF26
 1636 0147 7E       		.sleb128 -2
 1637 0148 0A       		.uleb128 0xa
 1638 0149 75010000 		.4byte	.LASF27
 1639 014d 7F       		.sleb128 -1
 1640 014e 0B       		.uleb128 0xb
 1641 014f 42040000 		.4byte	.LASF28
 1642 0153 00       		.byte	0
 1643 0154 0B       		.uleb128 0xb
 1644 0155 B3070000 		.4byte	.LASF29
 1645 0159 01       		.byte	0x1
 1646 015a 0B       		.uleb128 0xb
 1647 015b 14010000 		.4byte	.LASF30
 1648 015f 02       		.byte	0x2
 1649 0160 0B       		.uleb128 0xb
 1650 0161 B20A0000 		.4byte	.LASF31
 1651 0165 03       		.byte	0x3
 1652 0166 0B       		.uleb128 0xb
 1653 0167 84000000 		.4byte	.LASF32
 1654 016b 04       		.byte	0x4
 1655 016c 0B       		.uleb128 0xb
 1656 016d 53080000 		.4byte	.LASF33
 1657 0171 05       		.byte	0x5
 1658 0172 0B       		.uleb128 0xb
 1659 0173 C8070000 		.4byte	.LASF34
 1660 0177 06       		.byte	0x6
ARM GAS  /tmp/ccxAy8dA.s 			page 40


 1661 0178 0B       		.uleb128 0xb
 1662 0179 E2030000 		.4byte	.LASF35
 1663 017d 07       		.byte	0x7
 1664 017e 0B       		.uleb128 0xb
 1665 017f 09000000 		.4byte	.LASF36
 1666 0183 08       		.byte	0x8
 1667 0184 0B       		.uleb128 0xb
 1668 0185 740A0000 		.4byte	.LASF37
 1669 0189 09       		.byte	0x9
 1670 018a 0B       		.uleb128 0xb
 1671 018b 3B0A0000 		.4byte	.LASF38
 1672 018f 0A       		.byte	0xa
 1673 0190 0B       		.uleb128 0xb
 1674 0191 81020000 		.4byte	.LASF39
 1675 0195 0B       		.byte	0xb
 1676 0196 0B       		.uleb128 0xb
 1677 0197 75090000 		.4byte	.LASF40
 1678 019b 0C       		.byte	0xc
 1679 019c 0B       		.uleb128 0xb
 1680 019d 25080000 		.4byte	.LASF41
 1681 01a1 0D       		.byte	0xd
 1682 01a2 0B       		.uleb128 0xb
 1683 01a3 83040000 		.4byte	.LASF42
 1684 01a7 0E       		.byte	0xe
 1685 01a8 0B       		.uleb128 0xb
 1686 01a9 60000000 		.4byte	.LASF43
 1687 01ad 0F       		.byte	0xf
 1688 01ae 0B       		.uleb128 0xb
 1689 01af 900A0000 		.4byte	.LASF44
 1690 01b3 10       		.byte	0x10
 1691 01b4 0B       		.uleb128 0xb
 1692 01b5 CD050000 		.4byte	.LASF45
 1693 01b9 11       		.byte	0x11
 1694 01ba 0B       		.uleb128 0xb
 1695 01bb 8A080000 		.4byte	.LASF46
 1696 01bf 12       		.byte	0x12
 1697 01c0 0B       		.uleb128 0xb
 1698 01c1 CF020000 		.4byte	.LASF47
 1699 01c5 13       		.byte	0x13
 1700 01c6 0B       		.uleb128 0xb
 1701 01c7 10080000 		.4byte	.LASF48
 1702 01cb 14       		.byte	0x14
 1703 01cc 0B       		.uleb128 0xb
 1704 01cd CA090000 		.4byte	.LASF49
 1705 01d1 15       		.byte	0x15
 1706 01d2 0B       		.uleb128 0xb
 1707 01d3 9B040000 		.4byte	.LASF50
 1708 01d7 16       		.byte	0x16
 1709 01d8 0B       		.uleb128 0xb
 1710 01d9 020A0000 		.4byte	.LASF51
 1711 01dd 17       		.byte	0x17
 1712 01de 0B       		.uleb128 0xb
 1713 01df 94020000 		.4byte	.LASF52
 1714 01e3 18       		.byte	0x18
 1715 01e4 0B       		.uleb128 0xb
 1716 01e5 BD090000 		.4byte	.LASF53
 1717 01e9 19       		.byte	0x19
ARM GAS  /tmp/ccxAy8dA.s 			page 41


 1718 01ea 0B       		.uleb128 0xb
 1719 01eb 12060000 		.4byte	.LASF54
 1720 01ef 1A       		.byte	0x1a
 1721 01f0 0B       		.uleb128 0xb
 1722 01f1 D5030000 		.4byte	.LASF55
 1723 01f5 1B       		.byte	0x1b
 1724 01f6 0B       		.uleb128 0xb
 1725 01f7 A6000000 		.4byte	.LASF56
 1726 01fb 1C       		.byte	0x1c
 1727 01fc 0B       		.uleb128 0xb
 1728 01fd CB060000 		.4byte	.LASF57
 1729 0201 1D       		.byte	0x1d
 1730 0202 0B       		.uleb128 0xb
 1731 0203 5B030000 		.4byte	.LASF58
 1732 0207 1E       		.byte	0x1e
 1733 0208 0B       		.uleb128 0xb
 1734 0209 94030000 		.4byte	.LASF59
 1735 020d 1F       		.byte	0x1f
 1736 020e 0B       		.uleb128 0xb
 1737 020f 60020000 		.4byte	.LASF60
 1738 0213 20       		.byte	0x20
 1739 0214 0B       		.uleb128 0xb
 1740 0215 AC050000 		.4byte	.LASF61
 1741 0219 21       		.byte	0x21
 1742 021a 0B       		.uleb128 0xb
 1743 021b E1040000 		.4byte	.LASF62
 1744 021f 22       		.byte	0x22
 1745 0220 0B       		.uleb128 0xb
 1746 0221 43050000 		.4byte	.LASF63
 1747 0225 23       		.byte	0x23
 1748 0226 0B       		.uleb128 0xb
 1749 0227 D8000000 		.4byte	.LASF64
 1750 022b 24       		.byte	0x24
 1751 022c 0B       		.uleb128 0xb
 1752 022d E5060000 		.4byte	.LASF65
 1753 0231 25       		.byte	0x25
 1754 0232 0B       		.uleb128 0xb
 1755 0233 65030000 		.4byte	.LASF66
 1756 0237 26       		.byte	0x26
 1757 0238 0B       		.uleb128 0xb
 1758 0239 87010000 		.4byte	.LASF67
 1759 023d 27       		.byte	0x27
 1760 023e 0B       		.uleb128 0xb
 1761 023f 4C060000 		.4byte	.LASF68
 1762 0243 28       		.byte	0x28
 1763 0244 0B       		.uleb128 0xb
 1764 0245 62050000 		.4byte	.LASF69
 1765 0249 29       		.byte	0x29
 1766 024a 0B       		.uleb128 0xb
 1767 024b 4C030000 		.4byte	.LASF70
 1768 024f 2A       		.byte	0x2a
 1769 0250 00       		.byte	0
 1770 0251 0C       		.uleb128 0xc
 1771 0252 A9040000 		.4byte	.LASF71
 1772 0256 09       		.byte	0x9
 1773 0257 D801     		.2byte	0x1d8
 1774 0259 03       		.byte	0x3
ARM GAS  /tmp/ccxAy8dA.s 			page 42


 1775 025a 0C010000 		.4byte	0x10c
 1776 025e 0D       		.uleb128 0xd
 1777 025f 040E     		.2byte	0xe04
 1778 0261 0A       		.byte	0xa
 1779 0262 84       		.byte	0x84
 1780 0263 09       		.byte	0x9
 1781 0264 36030000 		.4byte	0x336
 1782 0268 0E       		.uleb128 0xe
 1783 0269 8B0A0000 		.4byte	.LASF72
 1784 026d 0A       		.byte	0xa
 1785 026e 86       		.byte	0x86
 1786 026f 11       		.byte	0x11
 1787 0270 46030000 		.4byte	0x346
 1788 0274 02       		.byte	0x2
 1789 0275 23       		.byte	0x23
 1790 0276 00       		.uleb128 0
 1791 0277 0E       		.uleb128 0xe
 1792 0278 D2010000 		.4byte	.LASF73
 1793 027c 0A       		.byte	0xa
 1794 027d 87       		.byte	0x87
 1795 027e 11       		.byte	0x11
 1796 027f 4B030000 		.4byte	0x34b
 1797 0283 02       		.byte	0x2
 1798 0284 23       		.byte	0x23
 1799 0285 20       		.uleb128 0x20
 1800 0286 0E       		.uleb128 0xe
 1801 0287 76070000 		.4byte	.LASF74
 1802 028b 0A       		.byte	0xa
 1803 028c 88       		.byte	0x88
 1804 028d 11       		.byte	0x11
 1805 028e 46030000 		.4byte	0x346
 1806 0292 03       		.byte	0x3
 1807 0293 23       		.byte	0x23
 1808 0294 8001     		.uleb128 0x80
 1809 0296 0E       		.uleb128 0xe
 1810 0297 00000000 		.4byte	.LASF75
 1811 029b 0A       		.byte	0xa
 1812 029c 89       		.byte	0x89
 1813 029d 11       		.byte	0x11
 1814 029e 4B030000 		.4byte	0x34b
 1815 02a2 03       		.byte	0x3
 1816 02a3 23       		.byte	0x23
 1817 02a4 A001     		.uleb128 0xa0
 1818 02a6 0E       		.uleb128 0xe
 1819 02a7 6F0A0000 		.4byte	.LASF76
 1820 02ab 0A       		.byte	0xa
 1821 02ac 8A       		.byte	0x8a
 1822 02ad 11       		.byte	0x11
 1823 02ae 46030000 		.4byte	0x346
 1824 02b2 03       		.byte	0x3
 1825 02b3 23       		.byte	0x23
 1826 02b4 8002     		.uleb128 0x100
 1827 02b6 0E       		.uleb128 0xe
 1828 02b7 A2020000 		.4byte	.LASF77
 1829 02bb 0A       		.byte	0xa
 1830 02bc 8B       		.byte	0x8b
 1831 02bd 11       		.byte	0x11
ARM GAS  /tmp/ccxAy8dA.s 			page 43


 1832 02be 4B030000 		.4byte	0x34b
 1833 02c2 03       		.byte	0x3
 1834 02c3 23       		.byte	0x23
 1835 02c4 A002     		.uleb128 0x120
 1836 02c6 0E       		.uleb128 0xe
 1837 02c7 B5000000 		.4byte	.LASF78
 1838 02cb 0A       		.byte	0xa
 1839 02cc 8C       		.byte	0x8c
 1840 02cd 11       		.byte	0x11
 1841 02ce 46030000 		.4byte	0x346
 1842 02d2 03       		.byte	0x3
 1843 02d3 23       		.byte	0x23
 1844 02d4 8003     		.uleb128 0x180
 1845 02d6 0E       		.uleb128 0xe
 1846 02d7 F4010000 		.4byte	.LASF79
 1847 02db 0A       		.byte	0xa
 1848 02dc 8D       		.byte	0x8d
 1849 02dd 11       		.byte	0x11
 1850 02de 4B030000 		.4byte	0x34b
 1851 02e2 03       		.byte	0x3
 1852 02e3 23       		.byte	0x23
 1853 02e4 A003     		.uleb128 0x1a0
 1854 02e6 0E       		.uleb128 0xe
 1855 02e7 4A020000 		.4byte	.LASF80
 1856 02eb 0A       		.byte	0xa
 1857 02ec 8E       		.byte	0x8e
 1858 02ed 11       		.byte	0x11
 1859 02ee 46030000 		.4byte	0x346
 1860 02f2 03       		.byte	0x3
 1861 02f3 23       		.byte	0x23
 1862 02f4 8004     		.uleb128 0x200
 1863 02f6 0E       		.uleb128 0xe
 1864 02f7 FE010000 		.4byte	.LASF81
 1865 02fb 0A       		.byte	0xa
 1866 02fc 8F       		.byte	0x8f
 1867 02fd 11       		.byte	0x11
 1868 02fe 5B030000 		.4byte	0x35b
 1869 0302 03       		.byte	0x3
 1870 0303 23       		.byte	0x23
 1871 0304 A004     		.uleb128 0x220
 1872 0306 0F       		.uleb128 0xf
 1873 0307 495000   		.ascii	"IP\000"
 1874 030a 0A       		.byte	0xa
 1875 030b 90       		.byte	0x90
 1876 030c 11       		.byte	0x11
 1877 030d 7B030000 		.4byte	0x37b
 1878 0311 03       		.byte	0x3
 1879 0312 23       		.byte	0x23
 1880 0313 8006     		.uleb128 0x300
 1881 0315 0E       		.uleb128 0xe
 1882 0316 08020000 		.4byte	.LASF82
 1883 031a 0A       		.byte	0xa
 1884 031b 91       		.byte	0x91
 1885 031c 11       		.byte	0x11
 1886 031d 80030000 		.4byte	0x380
 1887 0321 03       		.byte	0x3
 1888 0322 23       		.byte	0x23
ARM GAS  /tmp/ccxAy8dA.s 			page 44


 1889 0323 F007     		.uleb128 0x3f0
 1890 0325 0E       		.uleb128 0xe
 1891 0326 8F030000 		.4byte	.LASF83
 1892 032a 0A       		.byte	0xa
 1893 032b 92       		.byte	0x92
 1894 032c 11       		.byte	0x11
 1895 032d C8000000 		.4byte	0xc8
 1896 0331 03       		.byte	0x3
 1897 0332 23       		.byte	0x23
 1898 0333 801C     		.uleb128 0xe00
 1899 0335 00       		.byte	0
 1900 0336 10       		.uleb128 0x10
 1901 0337 C8000000 		.4byte	0xc8
 1902 033b 46030000 		.4byte	0x346
 1903 033f 11       		.uleb128 0x11
 1904 0340 30000000 		.4byte	0x30
 1905 0344 07       		.byte	0x7
 1906 0345 00       		.byte	0
 1907 0346 05       		.uleb128 0x5
 1908 0347 36030000 		.4byte	0x336
 1909 034b 10       		.uleb128 0x10
 1910 034c BC000000 		.4byte	0xbc
 1911 0350 5B030000 		.4byte	0x35b
 1912 0354 11       		.uleb128 0x11
 1913 0355 30000000 		.4byte	0x30
 1914 0359 17       		.byte	0x17
 1915 035a 00       		.byte	0
 1916 035b 10       		.uleb128 0x10
 1917 035c BC000000 		.4byte	0xbc
 1918 0360 6B030000 		.4byte	0x36b
 1919 0364 11       		.uleb128 0x11
 1920 0365 30000000 		.4byte	0x30
 1921 0369 37       		.byte	0x37
 1922 036a 00       		.byte	0
 1923 036b 10       		.uleb128 0x10
 1924 036c A6000000 		.4byte	0xa6
 1925 0370 7B030000 		.4byte	0x37b
 1926 0374 11       		.uleb128 0x11
 1927 0375 30000000 		.4byte	0x30
 1928 0379 EF       		.byte	0xef
 1929 037a 00       		.byte	0
 1930 037b 05       		.uleb128 0x5
 1931 037c 6B030000 		.4byte	0x36b
 1932 0380 10       		.uleb128 0x10
 1933 0381 BC000000 		.4byte	0xbc
 1934 0385 91030000 		.4byte	0x391
 1935 0389 12       		.uleb128 0x12
 1936 038a 30000000 		.4byte	0x30
 1937 038e 8302     		.2byte	0x283
 1938 0390 00       		.byte	0
 1939 0391 04       		.uleb128 0x4
 1940 0392 37060000 		.4byte	.LASF84
 1941 0396 0A       		.byte	0xa
 1942 0397 93       		.byte	0x93
 1943 0398 04       		.byte	0x4
 1944 0399 5E020000 		.4byte	0x25e
 1945 039d 13       		.uleb128 0x13
ARM GAS  /tmp/ccxAy8dA.s 			page 45


 1946 039e 75333200 		.ascii	"u32\000"
 1947 03a2 09       		.byte	0x9
 1948 03a3 F701     		.2byte	0x1f7
 1949 03a5 13       		.byte	0x13
 1950 03a6 BC000000 		.4byte	0xbc
 1951 03aa 05       		.uleb128 0x5
 1952 03ab 9D030000 		.4byte	0x39d
 1953 03af 13       		.uleb128 0x13
 1954 03b0 75313600 		.ascii	"u16\000"
 1955 03b4 09       		.byte	0x9
 1956 03b5 F801     		.2byte	0x1f8
 1957 03b7 12       		.byte	0x12
 1958 03b8 AB000000 		.4byte	0xab
 1959 03bc 13       		.uleb128 0x13
 1960 03bd 753800   		.ascii	"u8\000"
 1961 03c0 09       		.byte	0x9
 1962 03c1 F901     		.2byte	0x1f9
 1963 03c3 12       		.byte	0x12
 1964 03c4 9A000000 		.4byte	0x9a
 1965 03c8 14       		.uleb128 0x14
 1966 03c9 07       		.byte	0x7
 1967 03ca 01       		.byte	0x1
 1968 03cb 58000000 		.4byte	0x58
 1969 03cf 09       		.byte	0x9
 1970 03d0 0702     		.2byte	0x207
 1971 03d2 0E       		.byte	0xe
 1972 03d3 E4030000 		.4byte	0x3e4
 1973 03d7 0B       		.uleb128 0xb
 1974 03d8 91070000 		.4byte	.LASF85
 1975 03dc 00       		.byte	0
 1976 03dd 15       		.uleb128 0x15
 1977 03de 53455400 		.ascii	"SET\000"
 1978 03e2 01       		.byte	0x1
 1979 03e3 00       		.byte	0
 1980 03e4 14       		.uleb128 0x14
 1981 03e5 07       		.byte	0x7
 1982 03e6 01       		.byte	0x1
 1983 03e7 58000000 		.4byte	0x58
 1984 03eb 09       		.byte	0x9
 1985 03ec 0902     		.2byte	0x209
 1986 03ee 0E       		.byte	0xe
 1987 03ef 00040000 		.4byte	0x400
 1988 03f3 0B       		.uleb128 0xb
 1989 03f4 FE050000 		.4byte	.LASF86
 1990 03f8 00       		.byte	0
 1991 03f9 0B       		.uleb128 0xb
 1992 03fa 96080000 		.4byte	.LASF87
 1993 03fe 01       		.byte	0x1
 1994 03ff 00       		.byte	0
 1995 0400 16       		.uleb128 0x16
 1996 0401 50       		.byte	0x50
 1997 0402 09       		.byte	0x9
 1998 0403 1E02     		.2byte	0x21e
 1999 0405 09       		.byte	0x9
 2000 0406 49050000 		.4byte	0x549
 2001 040a 17       		.uleb128 0x17
 2002 040b 535200   		.ascii	"SR\000"
ARM GAS  /tmp/ccxAy8dA.s 			page 46


 2003 040e 09       		.byte	0x9
 2004 040f 2002     		.2byte	0x220
 2005 0411 11       		.byte	0x11
 2006 0412 C8000000 		.4byte	0xc8
 2007 0416 02       		.byte	0x2
 2008 0417 23       		.byte	0x23
 2009 0418 00       		.uleb128 0
 2010 0419 17       		.uleb128 0x17
 2011 041a 43523100 		.ascii	"CR1\000"
 2012 041e 09       		.byte	0x9
 2013 041f 2102     		.2byte	0x221
 2014 0421 11       		.byte	0x11
 2015 0422 C8000000 		.4byte	0xc8
 2016 0426 02       		.byte	0x2
 2017 0427 23       		.byte	0x23
 2018 0428 04       		.uleb128 0x4
 2019 0429 17       		.uleb128 0x17
 2020 042a 43523200 		.ascii	"CR2\000"
 2021 042e 09       		.byte	0x9
 2022 042f 2202     		.2byte	0x222
 2023 0431 11       		.byte	0x11
 2024 0432 C8000000 		.4byte	0xc8
 2025 0436 02       		.byte	0x2
 2026 0437 23       		.byte	0x23
 2027 0438 08       		.uleb128 0x8
 2028 0439 18       		.uleb128 0x18
 2029 043a B3040000 		.4byte	.LASF88
 2030 043e 09       		.byte	0x9
 2031 043f 2302     		.2byte	0x223
 2032 0441 11       		.byte	0x11
 2033 0442 C8000000 		.4byte	0xc8
 2034 0446 02       		.byte	0x2
 2035 0447 23       		.byte	0x23
 2036 0448 0C       		.uleb128 0xc
 2037 0449 18       		.uleb128 0x18
 2038 044a B9040000 		.4byte	.LASF89
 2039 044e 09       		.byte	0x9
 2040 044f 2402     		.2byte	0x224
 2041 0451 11       		.byte	0x11
 2042 0452 C8000000 		.4byte	0xc8
 2043 0456 02       		.byte	0x2
 2044 0457 23       		.byte	0x23
 2045 0458 10       		.uleb128 0x10
 2046 0459 18       		.uleb128 0x18
 2047 045a 72080000 		.4byte	.LASF90
 2048 045e 09       		.byte	0x9
 2049 045f 2502     		.2byte	0x225
 2050 0461 11       		.byte	0x11
 2051 0462 C8000000 		.4byte	0xc8
 2052 0466 02       		.byte	0x2
 2053 0467 23       		.byte	0x23
 2054 0468 14       		.uleb128 0x14
 2055 0469 18       		.uleb128 0x18
 2056 046a 78080000 		.4byte	.LASF91
 2057 046e 09       		.byte	0x9
 2058 046f 2602     		.2byte	0x226
 2059 0471 11       		.byte	0x11
ARM GAS  /tmp/ccxAy8dA.s 			page 47


 2060 0472 C8000000 		.4byte	0xc8
 2061 0476 02       		.byte	0x2
 2062 0477 23       		.byte	0x23
 2063 0478 18       		.uleb128 0x18
 2064 0479 18       		.uleb128 0x18
 2065 047a 7E080000 		.4byte	.LASF92
 2066 047e 09       		.byte	0x9
 2067 047f 2702     		.2byte	0x227
 2068 0481 11       		.byte	0x11
 2069 0482 C8000000 		.4byte	0xc8
 2070 0486 02       		.byte	0x2
 2071 0487 23       		.byte	0x23
 2072 0488 1C       		.uleb128 0x1c
 2073 0489 18       		.uleb128 0x18
 2074 048a 84080000 		.4byte	.LASF93
 2075 048e 09       		.byte	0x9
 2076 048f 2802     		.2byte	0x228
 2077 0491 11       		.byte	0x11
 2078 0492 C8000000 		.4byte	0xc8
 2079 0496 02       		.byte	0x2
 2080 0497 23       		.byte	0x23
 2081 0498 20       		.uleb128 0x20
 2082 0499 17       		.uleb128 0x17
 2083 049a 48545200 		.ascii	"HTR\000"
 2084 049e 09       		.byte	0x9
 2085 049f 2902     		.2byte	0x229
 2086 04a1 11       		.byte	0x11
 2087 04a2 C8000000 		.4byte	0xc8
 2088 04a6 02       		.byte	0x2
 2089 04a7 23       		.byte	0x23
 2090 04a8 24       		.uleb128 0x24
 2091 04a9 17       		.uleb128 0x17
 2092 04aa 4C545200 		.ascii	"LTR\000"
 2093 04ae 09       		.byte	0x9
 2094 04af 2A02     		.2byte	0x22a
 2095 04b1 11       		.byte	0x11
 2096 04b2 C8000000 		.4byte	0xc8
 2097 04b6 02       		.byte	0x2
 2098 04b7 23       		.byte	0x23
 2099 04b8 28       		.uleb128 0x28
 2100 04b9 18       		.uleb128 0x18
 2101 04ba 3A000000 		.4byte	.LASF94
 2102 04be 09       		.byte	0x9
 2103 04bf 2B02     		.2byte	0x22b
 2104 04c1 11       		.byte	0x11
 2105 04c2 C8000000 		.4byte	0xc8
 2106 04c6 02       		.byte	0x2
 2107 04c7 23       		.byte	0x23
 2108 04c8 2C       		.uleb128 0x2c
 2109 04c9 18       		.uleb128 0x18
 2110 04ca 3F000000 		.4byte	.LASF95
 2111 04ce 09       		.byte	0x9
 2112 04cf 2C02     		.2byte	0x22c
 2113 04d1 11       		.byte	0x11
 2114 04d2 C8000000 		.4byte	0xc8
 2115 04d6 02       		.byte	0x2
 2116 04d7 23       		.byte	0x23
ARM GAS  /tmp/ccxAy8dA.s 			page 48


 2117 04d8 30       		.uleb128 0x30
 2118 04d9 18       		.uleb128 0x18
 2119 04da 44000000 		.4byte	.LASF96
 2120 04de 09       		.byte	0x9
 2121 04df 2D02     		.2byte	0x22d
 2122 04e1 11       		.byte	0x11
 2123 04e2 C8000000 		.4byte	0xc8
 2124 04e6 02       		.byte	0x2
 2125 04e7 23       		.byte	0x23
 2126 04e8 34       		.uleb128 0x34
 2127 04e9 18       		.uleb128 0x18
 2128 04ea 63090000 		.4byte	.LASF97
 2129 04ee 09       		.byte	0x9
 2130 04ef 2E02     		.2byte	0x22e
 2131 04f1 11       		.byte	0x11
 2132 04f2 C8000000 		.4byte	0xc8
 2133 04f6 02       		.byte	0x2
 2134 04f7 23       		.byte	0x23
 2135 04f8 38       		.uleb128 0x38
 2136 04f9 18       		.uleb128 0x18
 2137 04fa 35090000 		.4byte	.LASF98
 2138 04fe 09       		.byte	0x9
 2139 04ff 2F02     		.2byte	0x22f
 2140 0501 11       		.byte	0x11
 2141 0502 C8000000 		.4byte	0xc8
 2142 0506 02       		.byte	0x2
 2143 0507 23       		.byte	0x23
 2144 0508 3C       		.uleb128 0x3c
 2145 0509 18       		.uleb128 0x18
 2146 050a 3A090000 		.4byte	.LASF99
 2147 050e 09       		.byte	0x9
 2148 050f 3002     		.2byte	0x230
 2149 0511 11       		.byte	0x11
 2150 0512 C8000000 		.4byte	0xc8
 2151 0516 02       		.byte	0x2
 2152 0517 23       		.byte	0x23
 2153 0518 40       		.uleb128 0x40
 2154 0519 18       		.uleb128 0x18
 2155 051a 3F090000 		.4byte	.LASF100
 2156 051e 09       		.byte	0x9
 2157 051f 3102     		.2byte	0x231
 2158 0521 11       		.byte	0x11
 2159 0522 C8000000 		.4byte	0xc8
 2160 0526 02       		.byte	0x2
 2161 0527 23       		.byte	0x23
 2162 0528 44       		.uleb128 0x44
 2163 0529 18       		.uleb128 0x18
 2164 052a 44090000 		.4byte	.LASF101
 2165 052e 09       		.byte	0x9
 2166 052f 3202     		.2byte	0x232
 2167 0531 11       		.byte	0x11
 2168 0532 C8000000 		.4byte	0xc8
 2169 0536 02       		.byte	0x2
 2170 0537 23       		.byte	0x23
 2171 0538 48       		.uleb128 0x48
 2172 0539 17       		.uleb128 0x17
 2173 053a 445200   		.ascii	"DR\000"
ARM GAS  /tmp/ccxAy8dA.s 			page 49


 2174 053d 09       		.byte	0x9
 2175 053e 3302     		.2byte	0x233
 2176 0540 11       		.byte	0x11
 2177 0541 C8000000 		.4byte	0xc8
 2178 0545 02       		.byte	0x2
 2179 0546 23       		.byte	0x23
 2180 0547 4C       		.uleb128 0x4c
 2181 0548 00       		.byte	0
 2182 0549 0C       		.uleb128 0xc
 2183 054a A1030000 		.4byte	.LASF102
 2184 054e 09       		.byte	0x9
 2185 054f 3402     		.2byte	0x234
 2186 0551 03       		.byte	0x3
 2187 0552 00040000 		.4byte	0x400
 2188 0556 16       		.uleb128 0x16
 2189 0557 24       		.byte	0x24
 2190 0558 09       		.byte	0x9
 2191 0559 8503     		.2byte	0x385
 2192 055b 09       		.byte	0x9
 2193 055c EE050000 		.4byte	0x5ee
 2194 0560 17       		.uleb128 0x17
 2195 0561 41435200 		.ascii	"ACR\000"
 2196 0565 09       		.byte	0x9
 2197 0566 8703     		.2byte	0x387
 2198 0568 11       		.byte	0x11
 2199 0569 C8000000 		.4byte	0xc8
 2200 056d 02       		.byte	0x2
 2201 056e 23       		.byte	0x23
 2202 056f 00       		.uleb128 0
 2203 0570 18       		.uleb128 0x18
 2204 0571 38080000 		.4byte	.LASF103
 2205 0575 09       		.byte	0x9
 2206 0576 8803     		.2byte	0x388
 2207 0578 11       		.byte	0x11
 2208 0579 C8000000 		.4byte	0xc8
 2209 057d 02       		.byte	0x2
 2210 057e 23       		.byte	0x23
 2211 057f 04       		.uleb128 0x4
 2212 0580 18       		.uleb128 0x18
 2213 0581 10040000 		.4byte	.LASF104
 2214 0585 09       		.byte	0x9
 2215 0586 8903     		.2byte	0x389
 2216 0588 11       		.byte	0x11
 2217 0589 C8000000 		.4byte	0xc8
 2218 058d 02       		.byte	0x2
 2219 058e 23       		.byte	0x23
 2220 058f 08       		.uleb128 0x8
 2221 0590 17       		.uleb128 0x17
 2222 0591 535200   		.ascii	"SR\000"
 2223 0594 09       		.byte	0x9
 2224 0595 8A03     		.2byte	0x38a
 2225 0597 11       		.byte	0x11
 2226 0598 C8000000 		.4byte	0xc8
 2227 059c 02       		.byte	0x2
 2228 059d 23       		.byte	0x23
 2229 059e 0C       		.uleb128 0xc
 2230 059f 17       		.uleb128 0x17
ARM GAS  /tmp/ccxAy8dA.s 			page 50


 2231 05a0 435200   		.ascii	"CR\000"
 2232 05a3 09       		.byte	0x9
 2233 05a4 8B03     		.2byte	0x38b
 2234 05a6 11       		.byte	0x11
 2235 05a7 C8000000 		.4byte	0xc8
 2236 05ab 02       		.byte	0x2
 2237 05ac 23       		.byte	0x23
 2238 05ad 10       		.uleb128 0x10
 2239 05ae 17       		.uleb128 0x17
 2240 05af 415200   		.ascii	"AR\000"
 2241 05b2 09       		.byte	0x9
 2242 05b3 8C03     		.2byte	0x38c
 2243 05b5 11       		.byte	0x11
 2244 05b6 C8000000 		.4byte	0xc8
 2245 05ba 02       		.byte	0x2
 2246 05bb 23       		.byte	0x23
 2247 05bc 14       		.uleb128 0x14
 2248 05bd 18       		.uleb128 0x18
 2249 05be AD030000 		.4byte	.LASF105
 2250 05c2 09       		.byte	0x9
 2251 05c3 8D03     		.2byte	0x38d
 2252 05c5 11       		.byte	0x11
 2253 05c6 C8000000 		.4byte	0xc8
 2254 05ca 02       		.byte	0x2
 2255 05cb 23       		.byte	0x23
 2256 05cc 18       		.uleb128 0x18
 2257 05cd 17       		.uleb128 0x17
 2258 05ce 4F425200 		.ascii	"OBR\000"
 2259 05d2 09       		.byte	0x9
 2260 05d3 8E03     		.2byte	0x38e
 2261 05d5 11       		.byte	0x11
 2262 05d6 C8000000 		.4byte	0xc8
 2263 05da 02       		.byte	0x2
 2264 05db 23       		.byte	0x23
 2265 05dc 1C       		.uleb128 0x1c
 2266 05dd 18       		.uleb128 0x18
 2267 05de 82010000 		.4byte	.LASF106
 2268 05e2 09       		.byte	0x9
 2269 05e3 8F03     		.2byte	0x38f
 2270 05e5 11       		.byte	0x11
 2271 05e6 C8000000 		.4byte	0xc8
 2272 05ea 02       		.byte	0x2
 2273 05eb 23       		.byte	0x23
 2274 05ec 20       		.uleb128 0x20
 2275 05ed 00       		.byte	0
 2276 05ee 0C       		.uleb128 0xc
 2277 05ef 88090000 		.4byte	.LASF107
 2278 05f3 09       		.byte	0x9
 2279 05f4 9803     		.2byte	0x398
 2280 05f6 03       		.byte	0x3
 2281 05f7 56050000 		.4byte	0x556
 2282 05fb 16       		.uleb128 0x16
 2283 05fc 1C       		.byte	0x1c
 2284 05fd 09       		.byte	0x9
 2285 05fe E903     		.2byte	0x3e9
 2286 0600 09       		.byte	0x9
 2287 0601 76060000 		.4byte	0x676
ARM GAS  /tmp/ccxAy8dA.s 			page 51


 2288 0605 17       		.uleb128 0x17
 2289 0606 43524C00 		.ascii	"CRL\000"
 2290 060a 09       		.byte	0x9
 2291 060b EB03     		.2byte	0x3eb
 2292 060d 11       		.byte	0x11
 2293 060e C8000000 		.4byte	0xc8
 2294 0612 02       		.byte	0x2
 2295 0613 23       		.byte	0x23
 2296 0614 00       		.uleb128 0
 2297 0615 17       		.uleb128 0x17
 2298 0616 43524800 		.ascii	"CRH\000"
 2299 061a 09       		.byte	0x9
 2300 061b EC03     		.2byte	0x3ec
 2301 061d 11       		.byte	0x11
 2302 061e C8000000 		.4byte	0xc8
 2303 0622 02       		.byte	0x2
 2304 0623 23       		.byte	0x23
 2305 0624 04       		.uleb128 0x4
 2306 0625 17       		.uleb128 0x17
 2307 0626 49445200 		.ascii	"IDR\000"
 2308 062a 09       		.byte	0x9
 2309 062b ED03     		.2byte	0x3ed
 2310 062d 11       		.byte	0x11
 2311 062e C8000000 		.4byte	0xc8
 2312 0632 02       		.byte	0x2
 2313 0633 23       		.byte	0x23
 2314 0634 08       		.uleb128 0x8
 2315 0635 17       		.uleb128 0x17
 2316 0636 4F445200 		.ascii	"ODR\000"
 2317 063a 09       		.byte	0x9
 2318 063b EE03     		.2byte	0x3ee
 2319 063d 11       		.byte	0x11
 2320 063e C8000000 		.4byte	0xc8
 2321 0642 02       		.byte	0x2
 2322 0643 23       		.byte	0x23
 2323 0644 0C       		.uleb128 0xc
 2324 0645 18       		.uleb128 0x18
 2325 0646 30090000 		.4byte	.LASF108
 2326 064a 09       		.byte	0x9
 2327 064b EF03     		.2byte	0x3ef
 2328 064d 11       		.byte	0x11
 2329 064e C8000000 		.4byte	0xc8
 2330 0652 02       		.byte	0x2
 2331 0653 23       		.byte	0x23
 2332 0654 10       		.uleb128 0x10
 2333 0655 17       		.uleb128 0x17
 2334 0656 42525200 		.ascii	"BRR\000"
 2335 065a 09       		.byte	0x9
 2336 065b F003     		.2byte	0x3f0
 2337 065d 11       		.byte	0x11
 2338 065e C8000000 		.4byte	0xc8
 2339 0662 02       		.byte	0x2
 2340 0663 23       		.byte	0x23
 2341 0664 14       		.uleb128 0x14
 2342 0665 18       		.uleb128 0x18
 2343 0666 DC040000 		.4byte	.LASF109
 2344 066a 09       		.byte	0x9
ARM GAS  /tmp/ccxAy8dA.s 			page 52


 2345 066b F103     		.2byte	0x3f1
 2346 066d 11       		.byte	0x11
 2347 066e C8000000 		.4byte	0xc8
 2348 0672 02       		.byte	0x2
 2349 0673 23       		.byte	0x23
 2350 0674 18       		.uleb128 0x18
 2351 0675 00       		.byte	0
 2352 0676 0C       		.uleb128 0xc
 2353 0677 68090000 		.4byte	.LASF110
 2354 067b 09       		.byte	0x9
 2355 067c F203     		.2byte	0x3f2
 2356 067e 03       		.byte	0x3
 2357 067f FB050000 		.4byte	0x5fb
 2358 0683 16       		.uleb128 0x16
 2359 0684 30       		.byte	0x30
 2360 0685 09       		.byte	0x9
 2361 0686 3404     		.2byte	0x434
 2362 0688 09       		.byte	0x9
 2363 0689 4D070000 		.4byte	0x74d
 2364 068d 17       		.uleb128 0x17
 2365 068e 435200   		.ascii	"CR\000"
 2366 0691 09       		.byte	0x9
 2367 0692 3604     		.2byte	0x436
 2368 0694 11       		.byte	0x11
 2369 0695 C8000000 		.4byte	0xc8
 2370 0699 02       		.byte	0x2
 2371 069a 23       		.byte	0x23
 2372 069b 00       		.uleb128 0
 2373 069c 18       		.uleb128 0x18
 2374 069d C5030000 		.4byte	.LASF111
 2375 06a1 09       		.byte	0x9
 2376 06a2 3704     		.2byte	0x437
 2377 06a4 11       		.byte	0x11
 2378 06a5 C8000000 		.4byte	0xc8
 2379 06a9 02       		.byte	0x2
 2380 06aa 23       		.byte	0x23
 2381 06ab 04       		.uleb128 0x4
 2382 06ac 17       		.uleb128 0x17
 2383 06ad 43495200 		.ascii	"CIR\000"
 2384 06b1 09       		.byte	0x9
 2385 06b2 3804     		.2byte	0x438
 2386 06b4 11       		.byte	0x11
 2387 06b5 C8000000 		.4byte	0xc8
 2388 06b9 02       		.byte	0x2
 2389 06ba 23       		.byte	0x23
 2390 06bb 08       		.uleb128 0x8
 2391 06bc 18       		.uleb128 0x18
 2392 06bd 59050000 		.4byte	.LASF112
 2393 06c1 09       		.byte	0x9
 2394 06c2 3904     		.2byte	0x439
 2395 06c4 11       		.byte	0x11
 2396 06c5 C8000000 		.4byte	0xc8
 2397 06c9 02       		.byte	0x2
 2398 06ca 23       		.byte	0x23
 2399 06cb 0C       		.uleb128 0xc
 2400 06cc 18       		.uleb128 0x18
 2401 06cd 24060000 		.4byte	.LASF113
ARM GAS  /tmp/ccxAy8dA.s 			page 53


 2402 06d1 09       		.byte	0x9
 2403 06d2 3A04     		.2byte	0x43a
 2404 06d4 11       		.byte	0x11
 2405 06d5 C8000000 		.4byte	0xc8
 2406 06d9 02       		.byte	0x2
 2407 06da 23       		.byte	0x23
 2408 06db 10       		.uleb128 0x10
 2409 06dc 18       		.uleb128 0x18
 2410 06dd 9D080000 		.4byte	.LASF114
 2411 06e1 09       		.byte	0x9
 2412 06e2 3B04     		.2byte	0x43b
 2413 06e4 11       		.byte	0x11
 2414 06e5 C8000000 		.4byte	0xc8
 2415 06e9 02       		.byte	0x2
 2416 06ea 23       		.byte	0x23
 2417 06eb 14       		.uleb128 0x14
 2418 06ec 18       		.uleb128 0x18
 2419 06ed 49010000 		.4byte	.LASF115
 2420 06f1 09       		.byte	0x9
 2421 06f2 3C04     		.2byte	0x43c
 2422 06f4 11       		.byte	0x11
 2423 06f5 C8000000 		.4byte	0xc8
 2424 06f9 02       		.byte	0x2
 2425 06fa 23       		.byte	0x23
 2426 06fb 18       		.uleb128 0x18
 2427 06fc 18       		.uleb128 0x18
 2428 06fd 5E040000 		.4byte	.LASF116
 2429 0701 09       		.byte	0x9
 2430 0702 3D04     		.2byte	0x43d
 2431 0704 11       		.byte	0x11
 2432 0705 C8000000 		.4byte	0xc8
 2433 0709 02       		.byte	0x2
 2434 070a 23       		.byte	0x23
 2435 070b 1C       		.uleb128 0x1c
 2436 070c 18       		.uleb128 0x18
 2437 070d 8A030000 		.4byte	.LASF117
 2438 0711 09       		.byte	0x9
 2439 0712 3E04     		.2byte	0x43e
 2440 0714 11       		.byte	0x11
 2441 0715 C8000000 		.4byte	0xc8
 2442 0719 02       		.byte	0x2
 2443 071a 23       		.byte	0x23
 2444 071b 20       		.uleb128 0x20
 2445 071c 17       		.uleb128 0x17
 2446 071d 43535200 		.ascii	"CSR\000"
 2447 0721 09       		.byte	0x9
 2448 0722 3F04     		.2byte	0x43f
 2449 0724 11       		.byte	0x11
 2450 0725 C8000000 		.4byte	0xc8
 2451 0729 02       		.byte	0x2
 2452 072a 23       		.byte	0x23
 2453 072b 24       		.uleb128 0x24
 2454 072c 18       		.uleb128 0x18
 2455 072d F3040000 		.4byte	.LASF118
 2456 0731 09       		.byte	0x9
 2457 0732 4004     		.2byte	0x440
 2458 0734 11       		.byte	0x11
ARM GAS  /tmp/ccxAy8dA.s 			page 54


 2459 0735 C8000000 		.4byte	0xc8
 2460 0739 02       		.byte	0x2
 2461 073a 23       		.byte	0x23
 2462 073b 28       		.uleb128 0x28
 2463 073c 18       		.uleb128 0x18
 2464 073d A6050000 		.4byte	.LASF119
 2465 0741 09       		.byte	0x9
 2466 0742 4104     		.2byte	0x441
 2467 0744 11       		.byte	0x11
 2468 0745 C8000000 		.4byte	0xc8
 2469 0749 02       		.byte	0x2
 2470 074a 23       		.byte	0x23
 2471 074b 2C       		.uleb128 0x2c
 2472 074c 00       		.byte	0
 2473 074d 0C       		.uleb128 0xc
 2474 074e 3D080000 		.4byte	.LASF120
 2475 0752 09       		.byte	0x9
 2476 0753 4204     		.2byte	0x442
 2477 0755 03       		.byte	0x3
 2478 0756 83060000 		.4byte	0x683
 2479 075a 16       		.uleb128 0x16
 2480 075b 50       		.byte	0x50
 2481 075c 09       		.byte	0x9
 2482 075d 9A04     		.2byte	0x49a
 2483 075f 09       		.byte	0x9
 2484 0760 E4090000 		.4byte	0x9e4
 2485 0764 17       		.uleb128 0x17
 2486 0765 43523100 		.ascii	"CR1\000"
 2487 0769 09       		.byte	0x9
 2488 076a 9C04     		.2byte	0x49c
 2489 076c 11       		.byte	0x11
 2490 076d B7000000 		.4byte	0xb7
 2491 0771 02       		.byte	0x2
 2492 0772 23       		.byte	0x23
 2493 0773 00       		.uleb128 0
 2494 0774 18       		.uleb128 0x18
 2495 0775 D2010000 		.4byte	.LASF73
 2496 0779 09       		.byte	0x9
 2497 077a 9D04     		.2byte	0x49d
 2498 077c 0D       		.byte	0xd
 2499 077d AB000000 		.4byte	0xab
 2500 0781 02       		.byte	0x2
 2501 0782 23       		.byte	0x23
 2502 0783 02       		.uleb128 0x2
 2503 0784 17       		.uleb128 0x17
 2504 0785 43523200 		.ascii	"CR2\000"
 2505 0789 09       		.byte	0x9
 2506 078a 9E04     		.2byte	0x49e
 2507 078c 11       		.byte	0x11
 2508 078d B7000000 		.4byte	0xb7
 2509 0791 02       		.byte	0x2
 2510 0792 23       		.byte	0x23
 2511 0793 04       		.uleb128 0x4
 2512 0794 18       		.uleb128 0x18
 2513 0795 DC010000 		.4byte	.LASF121
 2514 0799 09       		.byte	0x9
 2515 079a 9F04     		.2byte	0x49f
ARM GAS  /tmp/ccxAy8dA.s 			page 55


 2516 079c 0D       		.byte	0xd
 2517 079d AB000000 		.4byte	0xab
 2518 07a1 02       		.byte	0x2
 2519 07a2 23       		.byte	0x23
 2520 07a3 06       		.uleb128 0x6
 2521 07a4 18       		.uleb128 0x18
 2522 07a5 7B070000 		.4byte	.LASF122
 2523 07a9 09       		.byte	0x9
 2524 07aa A004     		.2byte	0x4a0
 2525 07ac 11       		.byte	0x11
 2526 07ad B7000000 		.4byte	0xb7
 2527 07b1 02       		.byte	0x2
 2528 07b2 23       		.byte	0x23
 2529 07b3 08       		.uleb128 0x8
 2530 07b4 18       		.uleb128 0x18
 2531 07b5 A2020000 		.4byte	.LASF77
 2532 07b9 09       		.byte	0x9
 2533 07ba A104     		.2byte	0x4a1
 2534 07bc 0D       		.byte	0xd
 2535 07bd AB000000 		.4byte	0xab
 2536 07c1 02       		.byte	0x2
 2537 07c2 23       		.byte	0x23
 2538 07c3 0A       		.uleb128 0xa
 2539 07c4 18       		.uleb128 0x18
 2540 07c5 96040000 		.4byte	.LASF123
 2541 07c9 09       		.byte	0x9
 2542 07ca A204     		.2byte	0x4a2
 2543 07cc 11       		.byte	0x11
 2544 07cd B7000000 		.4byte	0xb7
 2545 07d1 02       		.byte	0x2
 2546 07d2 23       		.byte	0x23
 2547 07d3 0C       		.uleb128 0xc
 2548 07d4 18       		.uleb128 0x18
 2549 07d5 F4010000 		.4byte	.LASF79
 2550 07d9 09       		.byte	0x9
 2551 07da A304     		.2byte	0x4a3
 2552 07dc 0D       		.byte	0xd
 2553 07dd AB000000 		.4byte	0xab
 2554 07e1 02       		.byte	0x2
 2555 07e2 23       		.byte	0x23
 2556 07e3 0E       		.uleb128 0xe
 2557 07e4 17       		.uleb128 0x17
 2558 07e5 535200   		.ascii	"SR\000"
 2559 07e8 09       		.byte	0x9
 2560 07e9 A404     		.2byte	0x4a4
 2561 07eb 11       		.byte	0x11
 2562 07ec B7000000 		.4byte	0xb7
 2563 07f0 02       		.byte	0x2
 2564 07f1 23       		.byte	0x23
 2565 07f2 10       		.uleb128 0x10
 2566 07f3 18       		.uleb128 0x18
 2567 07f4 FE010000 		.4byte	.LASF81
 2568 07f8 09       		.byte	0x9
 2569 07f9 A504     		.2byte	0x4a5
 2570 07fb 0D       		.byte	0xd
 2571 07fc AB000000 		.4byte	0xab
 2572 0800 02       		.byte	0x2
ARM GAS  /tmp/ccxAy8dA.s 			page 56


 2573 0801 23       		.byte	0x23
 2574 0802 12       		.uleb128 0x12
 2575 0803 17       		.uleb128 0x17
 2576 0804 45475200 		.ascii	"EGR\000"
 2577 0808 09       		.byte	0x9
 2578 0809 A604     		.2byte	0x4a6
 2579 080b 11       		.byte	0x11
 2580 080c B7000000 		.4byte	0xb7
 2581 0810 02       		.byte	0x2
 2582 0811 23       		.byte	0x23
 2583 0812 14       		.uleb128 0x14
 2584 0813 18       		.uleb128 0x18
 2585 0814 08020000 		.4byte	.LASF82
 2586 0818 09       		.byte	0x9
 2587 0819 A704     		.2byte	0x4a7
 2588 081b 0D       		.byte	0xd
 2589 081c AB000000 		.4byte	0xab
 2590 0820 02       		.byte	0x2
 2591 0821 23       		.byte	0x23
 2592 0822 16       		.uleb128 0x16
 2593 0823 18       		.uleb128 0x18
 2594 0824 C9020000 		.4byte	.LASF124
 2595 0828 09       		.byte	0x9
 2596 0829 A804     		.2byte	0x4a8
 2597 082b 11       		.byte	0x11
 2598 082c B7000000 		.4byte	0xb7
 2599 0830 02       		.byte	0x2
 2600 0831 23       		.byte	0x23
 2601 0832 18       		.uleb128 0x18
 2602 0833 18       		.uleb128 0x18
 2603 0834 12020000 		.4byte	.LASF125
 2604 0838 09       		.byte	0x9
 2605 0839 A904     		.2byte	0x4a9
 2606 083b 0D       		.byte	0xd
 2607 083c AB000000 		.4byte	0xab
 2608 0840 02       		.byte	0x2
 2609 0841 23       		.byte	0x23
 2610 0842 1A       		.uleb128 0x1a
 2611 0843 18       		.uleb128 0x18
 2612 0844 B9050000 		.4byte	.LASF126
 2613 0848 09       		.byte	0x9
 2614 0849 AA04     		.2byte	0x4aa
 2615 084b 11       		.byte	0x11
 2616 084c B7000000 		.4byte	0xb7
 2617 0850 02       		.byte	0x2
 2618 0851 23       		.byte	0x23
 2619 0852 1C       		.uleb128 0x1c
 2620 0853 18       		.uleb128 0x18
 2621 0854 1C020000 		.4byte	.LASF127
 2622 0858 09       		.byte	0x9
 2623 0859 AB04     		.2byte	0x4ab
 2624 085b 0D       		.byte	0xd
 2625 085c AB000000 		.4byte	0xab
 2626 0860 02       		.byte	0x2
 2627 0861 23       		.byte	0x23
 2628 0862 1E       		.uleb128 0x1e
 2629 0863 18       		.uleb128 0x18
ARM GAS  /tmp/ccxAy8dA.s 			page 57


 2630 0864 D5060000 		.4byte	.LASF128
 2631 0868 09       		.byte	0x9
 2632 0869 AC04     		.2byte	0x4ac
 2633 086b 11       		.byte	0x11
 2634 086c B7000000 		.4byte	0xb7
 2635 0870 02       		.byte	0x2
 2636 0871 23       		.byte	0x23
 2637 0872 20       		.uleb128 0x20
 2638 0873 18       		.uleb128 0x18
 2639 0874 26020000 		.4byte	.LASF129
 2640 0878 09       		.byte	0x9
 2641 0879 AD04     		.2byte	0x4ad
 2642 087b 0D       		.byte	0xd
 2643 087c AB000000 		.4byte	0xab
 2644 0880 02       		.byte	0x2
 2645 0881 23       		.byte	0x23
 2646 0882 22       		.uleb128 0x22
 2647 0883 17       		.uleb128 0x17
 2648 0884 434E5400 		.ascii	"CNT\000"
 2649 0888 09       		.byte	0x9
 2650 0889 AE04     		.2byte	0x4ae
 2651 088b 11       		.byte	0x11
 2652 088c B7000000 		.4byte	0xb7
 2653 0890 02       		.byte	0x2
 2654 0891 23       		.byte	0x23
 2655 0892 24       		.uleb128 0x24
 2656 0893 18       		.uleb128 0x18
 2657 0894 30020000 		.4byte	.LASF130
 2658 0898 09       		.byte	0x9
 2659 0899 AF04     		.2byte	0x4af
 2660 089b 0D       		.byte	0xd
 2661 089c AB000000 		.4byte	0xab
 2662 08a0 02       		.byte	0x2
 2663 08a1 23       		.byte	0x23
 2664 08a2 26       		.uleb128 0x26
 2665 08a3 17       		.uleb128 0x17
 2666 08a4 50534300 		.ascii	"PSC\000"
 2667 08a8 09       		.byte	0x9
 2668 08a9 B004     		.2byte	0x4b0
 2669 08ab 11       		.byte	0x11
 2670 08ac B7000000 		.4byte	0xb7
 2671 08b0 02       		.byte	0x2
 2672 08b1 23       		.byte	0x23
 2673 08b2 28       		.uleb128 0x28
 2674 08b3 18       		.uleb128 0x18
 2675 08b4 590A0000 		.4byte	.LASF131
 2676 08b8 09       		.byte	0x9
 2677 08b9 B104     		.2byte	0x4b1
 2678 08bb 0D       		.byte	0xd
 2679 08bc AB000000 		.4byte	0xab
 2680 08c0 02       		.byte	0x2
 2681 08c1 23       		.byte	0x23
 2682 08c2 2A       		.uleb128 0x2a
 2683 08c3 17       		.uleb128 0x17
 2684 08c4 41525200 		.ascii	"ARR\000"
 2685 08c8 09       		.byte	0x9
 2686 08c9 B204     		.2byte	0x4b2
ARM GAS  /tmp/ccxAy8dA.s 			page 58


 2687 08cb 11       		.byte	0x11
 2688 08cc B7000000 		.4byte	0xb7
 2689 08d0 02       		.byte	0x2
 2690 08d1 23       		.byte	0x23
 2691 08d2 2C       		.uleb128 0x2c
 2692 08d3 18       		.uleb128 0x18
 2693 08d4 640A0000 		.4byte	.LASF132
 2694 08d8 09       		.byte	0x9
 2695 08d9 B304     		.2byte	0x4b3
 2696 08db 0D       		.byte	0xd
 2697 08dc AB000000 		.4byte	0xab
 2698 08e0 02       		.byte	0x2
 2699 08e1 23       		.byte	0x23
 2700 08e2 2E       		.uleb128 0x2e
 2701 08e3 17       		.uleb128 0x17
 2702 08e4 52435200 		.ascii	"RCR\000"
 2703 08e8 09       		.byte	0x9
 2704 08e9 B404     		.2byte	0x4b4
 2705 08eb 11       		.byte	0x11
 2706 08ec B7000000 		.4byte	0xb7
 2707 08f0 02       		.byte	0x2
 2708 08f1 23       		.byte	0x23
 2709 08f2 30       		.uleb128 0x30
 2710 08f3 18       		.uleb128 0x18
 2711 08f4 DA060000 		.4byte	.LASF133
 2712 08f8 09       		.byte	0x9
 2713 08f9 B504     		.2byte	0x4b5
 2714 08fb 0D       		.byte	0xd
 2715 08fc AB000000 		.4byte	0xab
 2716 0900 02       		.byte	0x2
 2717 0901 23       		.byte	0x23
 2718 0902 32       		.uleb128 0x32
 2719 0903 18       		.uleb128 0x18
 2720 0904 BA000000 		.4byte	.LASF134
 2721 0908 09       		.byte	0x9
 2722 0909 B604     		.2byte	0x4b6
 2723 090b 11       		.byte	0x11
 2724 090c B7000000 		.4byte	0xb7
 2725 0910 02       		.byte	0x2
 2726 0911 23       		.byte	0x23
 2727 0912 34       		.uleb128 0x34
 2728 0913 18       		.uleb128 0x18
 2729 0914 3E010000 		.4byte	.LASF135
 2730 0918 09       		.byte	0x9
 2731 0919 B704     		.2byte	0x4b7
 2732 091b 0D       		.byte	0xd
 2733 091c AB000000 		.4byte	0xab
 2734 0920 02       		.byte	0x2
 2735 0921 23       		.byte	0x23
 2736 0922 36       		.uleb128 0x36
 2737 0923 18       		.uleb128 0x18
 2738 0924 BF000000 		.4byte	.LASF136
 2739 0928 09       		.byte	0x9
 2740 0929 B804     		.2byte	0x4b8
 2741 092b 11       		.byte	0x11
 2742 092c B7000000 		.4byte	0xb7
 2743 0930 02       		.byte	0x2
ARM GAS  /tmp/ccxAy8dA.s 			page 59


 2744 0931 23       		.byte	0x23
 2745 0932 38       		.uleb128 0x38
 2746 0933 18       		.uleb128 0x18
 2747 0934 F1060000 		.4byte	.LASF137
 2748 0938 09       		.byte	0x9
 2749 0939 B904     		.2byte	0x4b9
 2750 093b 0D       		.byte	0xd
 2751 093c AB000000 		.4byte	0xab
 2752 0940 02       		.byte	0x2
 2753 0941 23       		.byte	0x23
 2754 0942 3A       		.uleb128 0x3a
 2755 0943 18       		.uleb128 0x18
 2756 0944 C4000000 		.4byte	.LASF138
 2757 0948 09       		.byte	0x9
 2758 0949 BA04     		.2byte	0x4ba
 2759 094b 11       		.byte	0x11
 2760 094c B7000000 		.4byte	0xb7
 2761 0950 02       		.byte	0x2
 2762 0951 23       		.byte	0x23
 2763 0952 3C       		.uleb128 0x3c
 2764 0953 18       		.uleb128 0x18
 2765 0954 FC060000 		.4byte	.LASF139
 2766 0958 09       		.byte	0x9
 2767 0959 BB04     		.2byte	0x4bb
 2768 095b 0D       		.byte	0xd
 2769 095c AB000000 		.4byte	0xab
 2770 0960 02       		.byte	0x2
 2771 0961 23       		.byte	0x23
 2772 0962 3E       		.uleb128 0x3e
 2773 0963 18       		.uleb128 0x18
 2774 0964 C9000000 		.4byte	.LASF140
 2775 0968 09       		.byte	0x9
 2776 0969 BC04     		.2byte	0x4bc
 2777 096b 11       		.byte	0x11
 2778 096c B7000000 		.4byte	0xb7
 2779 0970 02       		.byte	0x2
 2780 0971 23       		.byte	0x23
 2781 0972 40       		.uleb128 0x40
 2782 0973 18       		.uleb128 0x18
 2783 0974 07070000 		.4byte	.LASF141
 2784 0978 09       		.byte	0x9
 2785 0979 BD04     		.2byte	0x4bd
 2786 097b 0D       		.byte	0xd
 2787 097c AB000000 		.4byte	0xab
 2788 0980 02       		.byte	0x2
 2789 0981 23       		.byte	0x23
 2790 0982 42       		.uleb128 0x42
 2791 0983 18       		.uleb128 0x18
 2792 0984 A3090000 		.4byte	.LASF142
 2793 0988 09       		.byte	0x9
 2794 0989 BE04     		.2byte	0x4be
 2795 098b 11       		.byte	0x11
 2796 098c B7000000 		.4byte	0xb7
 2797 0990 02       		.byte	0x2
 2798 0991 23       		.byte	0x23
 2799 0992 44       		.uleb128 0x44
 2800 0993 18       		.uleb128 0x18
ARM GAS  /tmp/ccxAy8dA.s 			page 60


 2801 0994 12070000 		.4byte	.LASF143
 2802 0998 09       		.byte	0x9
 2803 0999 BF04     		.2byte	0x4bf
 2804 099b 0D       		.byte	0xd
 2805 099c AB000000 		.4byte	0xab
 2806 09a0 02       		.byte	0x2
 2807 09a1 23       		.byte	0x23
 2808 09a2 46       		.uleb128 0x46
 2809 09a3 17       		.uleb128 0x17
 2810 09a4 44435200 		.ascii	"DCR\000"
 2811 09a8 09       		.byte	0x9
 2812 09a9 C004     		.2byte	0x4c0
 2813 09ab 11       		.byte	0x11
 2814 09ac B7000000 		.4byte	0xb7
 2815 09b0 02       		.byte	0x2
 2816 09b1 23       		.byte	0x23
 2817 09b2 48       		.uleb128 0x48
 2818 09b3 18       		.uleb128 0x18
 2819 09b4 1D070000 		.4byte	.LASF144
 2820 09b8 09       		.byte	0x9
 2821 09b9 C104     		.2byte	0x4c1
 2822 09bb 0D       		.byte	0xd
 2823 09bc AB000000 		.4byte	0xab
 2824 09c0 02       		.byte	0x2
 2825 09c1 23       		.byte	0x23
 2826 09c2 4A       		.uleb128 0x4a
 2827 09c3 18       		.uleb128 0x18
 2828 09c4 B0000000 		.4byte	.LASF145
 2829 09c8 09       		.byte	0x9
 2830 09c9 C204     		.2byte	0x4c2
 2831 09cb 11       		.byte	0x11
 2832 09cc B7000000 		.4byte	0xb7
 2833 09d0 02       		.byte	0x2
 2834 09d1 23       		.byte	0x23
 2835 09d2 4C       		.uleb128 0x4c
 2836 09d3 18       		.uleb128 0x18
 2837 09d4 28070000 		.4byte	.LASF146
 2838 09d8 09       		.byte	0x9
 2839 09d9 C304     		.2byte	0x4c3
 2840 09db 0D       		.byte	0xd
 2841 09dc AB000000 		.4byte	0xab
 2842 09e0 02       		.byte	0x2
 2843 09e1 23       		.byte	0x23
 2844 09e2 4E       		.uleb128 0x4e
 2845 09e3 00       		.byte	0
 2846 09e4 0C       		.uleb128 0xc
 2847 09e5 C6010000 		.4byte	.LASF147
 2848 09e9 09       		.byte	0x9
 2849 09ea C404     		.2byte	0x4c4
 2850 09ec 03       		.byte	0x3
 2851 09ed 5A070000 		.4byte	0x75a
 2852 09f1 16       		.uleb128 0x16
 2853 09f2 1C       		.byte	0x1c
 2854 09f3 09       		.byte	0x9
 2855 09f4 CA04     		.2byte	0x4ca
 2856 09f6 09       		.byte	0x9
 2857 09f7 DA0A0000 		.4byte	0xada
ARM GAS  /tmp/ccxAy8dA.s 			page 61


 2858 09fb 17       		.uleb128 0x17
 2859 09fc 535200   		.ascii	"SR\000"
 2860 09ff 09       		.byte	0x9
 2861 0a00 CC04     		.2byte	0x4cc
 2862 0a02 11       		.byte	0x11
 2863 0a03 B7000000 		.4byte	0xb7
 2864 0a07 02       		.byte	0x2
 2865 0a08 23       		.byte	0x23
 2866 0a09 00       		.uleb128 0
 2867 0a0a 18       		.uleb128 0x18
 2868 0a0b D2010000 		.4byte	.LASF73
 2869 0a0f 09       		.byte	0x9
 2870 0a10 CD04     		.2byte	0x4cd
 2871 0a12 0D       		.byte	0xd
 2872 0a13 AB000000 		.4byte	0xab
 2873 0a17 02       		.byte	0x2
 2874 0a18 23       		.byte	0x23
 2875 0a19 02       		.uleb128 0x2
 2876 0a1a 17       		.uleb128 0x17
 2877 0a1b 445200   		.ascii	"DR\000"
 2878 0a1e 09       		.byte	0x9
 2879 0a1f CE04     		.2byte	0x4ce
 2880 0a21 11       		.byte	0x11
 2881 0a22 B7000000 		.4byte	0xb7
 2882 0a26 02       		.byte	0x2
 2883 0a27 23       		.byte	0x23
 2884 0a28 04       		.uleb128 0x4
 2885 0a29 18       		.uleb128 0x18
 2886 0a2a DC010000 		.4byte	.LASF121
 2887 0a2e 09       		.byte	0x9
 2888 0a2f CF04     		.2byte	0x4cf
 2889 0a31 0D       		.byte	0xd
 2890 0a32 AB000000 		.4byte	0xab
 2891 0a36 02       		.byte	0x2
 2892 0a37 23       		.byte	0x23
 2893 0a38 06       		.uleb128 0x6
 2894 0a39 17       		.uleb128 0x17
 2895 0a3a 42525200 		.ascii	"BRR\000"
 2896 0a3e 09       		.byte	0x9
 2897 0a3f D004     		.2byte	0x4d0
 2898 0a41 11       		.byte	0x11
 2899 0a42 B7000000 		.4byte	0xb7
 2900 0a46 02       		.byte	0x2
 2901 0a47 23       		.byte	0x23
 2902 0a48 08       		.uleb128 0x8
 2903 0a49 18       		.uleb128 0x18
 2904 0a4a A2020000 		.4byte	.LASF77
 2905 0a4e 09       		.byte	0x9
 2906 0a4f D104     		.2byte	0x4d1
 2907 0a51 0D       		.byte	0xd
 2908 0a52 AB000000 		.4byte	0xab
 2909 0a56 02       		.byte	0x2
 2910 0a57 23       		.byte	0x23
 2911 0a58 0A       		.uleb128 0xa
 2912 0a59 17       		.uleb128 0x17
 2913 0a5a 43523100 		.ascii	"CR1\000"
 2914 0a5e 09       		.byte	0x9
ARM GAS  /tmp/ccxAy8dA.s 			page 62


 2915 0a5f D204     		.2byte	0x4d2
 2916 0a61 11       		.byte	0x11
 2917 0a62 B7000000 		.4byte	0xb7
 2918 0a66 02       		.byte	0x2
 2919 0a67 23       		.byte	0x23
 2920 0a68 0C       		.uleb128 0xc
 2921 0a69 18       		.uleb128 0x18
 2922 0a6a F4010000 		.4byte	.LASF79
 2923 0a6e 09       		.byte	0x9
 2924 0a6f D304     		.2byte	0x4d3
 2925 0a71 0D       		.byte	0xd
 2926 0a72 AB000000 		.4byte	0xab
 2927 0a76 02       		.byte	0x2
 2928 0a77 23       		.byte	0x23
 2929 0a78 0E       		.uleb128 0xe
 2930 0a79 17       		.uleb128 0x17
 2931 0a7a 43523200 		.ascii	"CR2\000"
 2932 0a7e 09       		.byte	0x9
 2933 0a7f D404     		.2byte	0x4d4
 2934 0a81 11       		.byte	0x11
 2935 0a82 B7000000 		.4byte	0xb7
 2936 0a86 02       		.byte	0x2
 2937 0a87 23       		.byte	0x23
 2938 0a88 10       		.uleb128 0x10
 2939 0a89 18       		.uleb128 0x18
 2940 0a8a FE010000 		.4byte	.LASF81
 2941 0a8e 09       		.byte	0x9
 2942 0a8f D504     		.2byte	0x4d5
 2943 0a91 0D       		.byte	0xd
 2944 0a92 AB000000 		.4byte	0xab
 2945 0a96 02       		.byte	0x2
 2946 0a97 23       		.byte	0x23
 2947 0a98 12       		.uleb128 0x12
 2948 0a99 17       		.uleb128 0x17
 2949 0a9a 43523300 		.ascii	"CR3\000"
 2950 0a9e 09       		.byte	0x9
 2951 0a9f D604     		.2byte	0x4d6
 2952 0aa1 11       		.byte	0x11
 2953 0aa2 B7000000 		.4byte	0xb7
 2954 0aa6 02       		.byte	0x2
 2955 0aa7 23       		.byte	0x23
 2956 0aa8 14       		.uleb128 0x14
 2957 0aa9 18       		.uleb128 0x18
 2958 0aaa 08020000 		.4byte	.LASF82
 2959 0aae 09       		.byte	0x9
 2960 0aaf D704     		.2byte	0x4d7
 2961 0ab1 0D       		.byte	0xd
 2962 0ab2 AB000000 		.4byte	0xab
 2963 0ab6 02       		.byte	0x2
 2964 0ab7 23       		.byte	0x23
 2965 0ab8 16       		.uleb128 0x16
 2966 0ab9 18       		.uleb128 0x18
 2967 0aba 5B000000 		.4byte	.LASF148
 2968 0abe 09       		.byte	0x9
 2969 0abf D804     		.2byte	0x4d8
 2970 0ac1 11       		.byte	0x11
 2971 0ac2 B7000000 		.4byte	0xb7
ARM GAS  /tmp/ccxAy8dA.s 			page 63


 2972 0ac6 02       		.byte	0x2
 2973 0ac7 23       		.byte	0x23
 2974 0ac8 18       		.uleb128 0x18
 2975 0ac9 18       		.uleb128 0x18
 2976 0aca 12020000 		.4byte	.LASF125
 2977 0ace 09       		.byte	0x9
 2978 0acf D904     		.2byte	0x4d9
 2979 0ad1 0D       		.byte	0xd
 2980 0ad2 AB000000 		.4byte	0xab
 2981 0ad6 02       		.byte	0x2
 2982 0ad7 23       		.byte	0x23
 2983 0ad8 1A       		.uleb128 0x1a
 2984 0ad9 00       		.byte	0
 2985 0ada 0C       		.uleb128 0xc
 2986 0adb 3E030000 		.4byte	.LASF149
 2987 0adf 09       		.byte	0x9
 2988 0ae0 DA04     		.2byte	0x4da
 2989 0ae2 03       		.byte	0x3
 2990 0ae3 F1090000 		.4byte	0x9f1
 2991 0ae7 19       		.uleb128 0x19
 2992 0ae8 07       		.byte	0x7
 2993 0ae9 01       		.byte	0x1
 2994 0aea 58000000 		.4byte	0x58
 2995 0aee 0B       		.byte	0xb
 2996 0aef 3B       		.byte	0x3b
 2997 0af0 01       		.byte	0x1
 2998 0af1 080B0000 		.4byte	0xb08
 2999 0af5 0B       		.uleb128 0xb
 3000 0af6 2A0A0000 		.4byte	.LASF150
 3001 0afa 01       		.byte	0x1
 3002 0afb 0B       		.uleb128 0xb
 3003 0afc D3070000 		.4byte	.LASF151
 3004 0b00 02       		.byte	0x2
 3005 0b01 0B       		.uleb128 0xb
 3006 0b02 2D030000 		.4byte	.LASF152
 3007 0b06 03       		.byte	0x3
 3008 0b07 00       		.byte	0
 3009 0b08 04       		.uleb128 0x4
 3010 0b09 E3070000 		.4byte	.LASF153
 3011 0b0d 0B       		.byte	0xb
 3012 0b0e 3F       		.byte	0x3f
 3013 0b0f 02       		.byte	0x2
 3014 0b10 E70A0000 		.4byte	0xae7
 3015 0b14 19       		.uleb128 0x19
 3016 0b15 07       		.byte	0x7
 3017 0b16 01       		.byte	0x1
 3018 0b17 58000000 		.4byte	0x58
 3019 0b1b 0B       		.byte	0xb
 3020 0b1c 48       		.byte	0x48
 3021 0b1d 01       		.byte	0x1
 3022 0b1e 530B0000 		.4byte	0xb53
 3023 0b22 0B       		.uleb128 0xb
 3024 0b23 06010000 		.4byte	.LASF154
 3025 0b27 00       		.byte	0
 3026 0b28 0B       		.uleb128 0xb
 3027 0b29 5C080000 		.4byte	.LASF155
 3028 0b2d 04       		.byte	0x4
ARM GAS  /tmp/ccxAy8dA.s 			page 64


 3029 0b2e 0B       		.uleb128 0xb
 3030 0b2f BB0A0000 		.4byte	.LASF156
 3031 0b33 28       		.byte	0x28
 3032 0b34 0B       		.uleb128 0xb
 3033 0b35 14000000 		.4byte	.LASF157
 3034 0b39 48       		.byte	0x48
 3035 0b3a 0B       		.uleb128 0xb
 3036 0b3b FF020000 		.4byte	.LASF158
 3037 0b3f 14       		.byte	0x14
 3038 0b40 0B       		.uleb128 0xb
 3039 0b41 ED030000 		.4byte	.LASF159
 3040 0b45 10       		.byte	0x10
 3041 0b46 0B       		.uleb128 0xb
 3042 0b47 65010000 		.4byte	.LASF160
 3043 0b4b 1C       		.byte	0x1c
 3044 0b4c 0B       		.uleb128 0xb
 3045 0b4d 3A020000 		.4byte	.LASF161
 3046 0b51 18       		.byte	0x18
 3047 0b52 00       		.byte	0
 3048 0b53 04       		.uleb128 0x4
 3049 0b54 80070000 		.4byte	.LASF162
 3050 0b58 0B       		.byte	0xb
 3051 0b59 50       		.byte	0x50
 3052 0b5a 02       		.byte	0x2
 3053 0b5b 140B0000 		.4byte	0xb14
 3054 0b5f 1A       		.uleb128 0x1a
 3055 0b60 04       		.byte	0x4
 3056 0b61 0B       		.byte	0xb
 3057 0b62 5B       		.byte	0x5b
 3058 0b63 09       		.byte	0x9
 3059 0b64 960B0000 		.4byte	0xb96
 3060 0b68 0E       		.uleb128 0xe
 3061 0b69 07080000 		.4byte	.LASF163
 3062 0b6d 0B       		.byte	0xb
 3063 0b6e 5D       		.byte	0x5d
 3064 0b6f 0C       		.byte	0xc
 3065 0b70 AB000000 		.4byte	0xab
 3066 0b74 02       		.byte	0x2
 3067 0b75 23       		.byte	0x23
 3068 0b76 00       		.uleb128 0
 3069 0b77 0E       		.uleb128 0xe
 3070 0b78 E2000000 		.4byte	.LASF164
 3071 0b7c 0B       		.byte	0xb
 3072 0b7d 60       		.byte	0x60
 3073 0b7e 15       		.byte	0x15
 3074 0b7f 080B0000 		.4byte	0xb08
 3075 0b83 02       		.byte	0x2
 3076 0b84 23       		.byte	0x23
 3077 0b85 02       		.uleb128 0x2
 3078 0b86 0E       		.uleb128 0xe
 3079 0b87 57070000 		.4byte	.LASF165
 3080 0b8b 0B       		.byte	0xb
 3081 0b8c 63       		.byte	0x63
 3082 0b8d 14       		.byte	0x14
 3083 0b8e 530B0000 		.4byte	0xb53
 3084 0b92 02       		.byte	0x2
 3085 0b93 23       		.byte	0x23
ARM GAS  /tmp/ccxAy8dA.s 			page 65


 3086 0b94 03       		.uleb128 0x3
 3087 0b95 00       		.byte	0
 3088 0b96 04       		.uleb128 0x4
 3089 0b97 B5010000 		.4byte	.LASF166
 3090 0b9b 0B       		.byte	0xb
 3091 0b9c 65       		.byte	0x65
 3092 0b9d 02       		.byte	0x2
 3093 0b9e 5F0B0000 		.4byte	0xb5f
 3094 0ba2 1A       		.uleb128 0x1a
 3095 0ba3 10       		.byte	0x10
 3096 0ba4 0C       		.byte	0xc
 3097 0ba5 32       		.byte	0x32
 3098 0ba6 09       		.byte	0x9
 3099 0ba7 060C0000 		.4byte	0xc06
 3100 0bab 0E       		.uleb128 0xe
 3101 0bac B6030000 		.4byte	.LASF167
 3102 0bb0 0C       		.byte	0xc
 3103 0bb1 34       		.byte	0x34
 3104 0bb2 0C       		.byte	0xc
 3105 0bb3 BC000000 		.4byte	0xbc
 3106 0bb7 02       		.byte	0x2
 3107 0bb8 23       		.byte	0x23
 3108 0bb9 00       		.uleb128 0
 3109 0bba 0E       		.uleb128 0xe
 3110 0bbb 4F020000 		.4byte	.LASF168
 3111 0bbf 0C       		.byte	0xc
 3112 0bc0 39       		.byte	0x39
 3113 0bc1 0C       		.byte	0xc
 3114 0bc2 AB000000 		.4byte	0xab
 3115 0bc6 02       		.byte	0x2
 3116 0bc7 23       		.byte	0x23
 3117 0bc8 04       		.uleb128 0x4
 3118 0bc9 0E       		.uleb128 0xe
 3119 0bca CD040000 		.4byte	.LASF169
 3120 0bce 0C       		.byte	0xc
 3121 0bcf 3C       		.byte	0x3c
 3122 0bd0 0C       		.byte	0xc
 3123 0bd1 AB000000 		.4byte	0xab
 3124 0bd5 02       		.byte	0x2
 3125 0bd6 23       		.byte	0x23
 3126 0bd7 06       		.uleb128 0x6
 3127 0bd8 0E       		.uleb128 0xe
 3128 0bd9 AC020000 		.4byte	.LASF170
 3129 0bdd 0C       		.byte	0xc
 3130 0bde 3F       		.byte	0x3f
 3131 0bdf 0C       		.byte	0xc
 3132 0be0 AB000000 		.4byte	0xab
 3133 0be4 02       		.byte	0x2
 3134 0be5 23       		.byte	0x23
 3135 0be6 08       		.uleb128 0x8
 3136 0be7 0E       		.uleb128 0xe
 3137 0be8 CA030000 		.4byte	.LASF171
 3138 0bec 0C       		.byte	0xc
 3139 0bed 46       		.byte	0x46
 3140 0bee 0C       		.byte	0xc
 3141 0bef AB000000 		.4byte	0xab
 3142 0bf3 02       		.byte	0x2
ARM GAS  /tmp/ccxAy8dA.s 			page 66


 3143 0bf4 23       		.byte	0x23
 3144 0bf5 0A       		.uleb128 0xa
 3145 0bf6 0E       		.uleb128 0xe
 3146 0bf7 D8090000 		.4byte	.LASF172
 3147 0bfb 0C       		.byte	0xc
 3148 0bfc 49       		.byte	0x49
 3149 0bfd 0C       		.byte	0xc
 3150 0bfe AB000000 		.4byte	0xab
 3151 0c02 02       		.byte	0x2
 3152 0c03 23       		.byte	0x23
 3153 0c04 0C       		.uleb128 0xc
 3154 0c05 00       		.byte	0
 3155 0c06 04       		.uleb128 0x4
 3156 0c07 A1070000 		.4byte	.LASF173
 3157 0c0b 0C       		.byte	0xc
 3158 0c0c 4C       		.byte	0x4c
 3159 0c0d 03       		.byte	0x3
 3160 0c0e A20B0000 		.4byte	0xba2
 3161 0c12 1B       		.uleb128 0x1b
 3162 0c13 BF050000 		.4byte	.LASF174
 3163 0c17 01       		.byte	0x1
 3164 0c18 31       		.byte	0x31
 3165 0c19 16       		.byte	0x16
 3166 0c1a EE000000 		.4byte	0xee
 3167 0c1e 05       		.byte	0x5
 3168 0c1f 03       		.byte	0x3
 3169 0c20 00000000 		.4byte	LCD_DHT_queue
 3170 0c24 1C       		.uleb128 0x1c
 3171 0c25 01       		.byte	0x1
 3172 0c26 34010000 		.4byte	.LASF180
 3173 0c2a 01       		.byte	0x1
 3174 0c2b AB       		.byte	0xab
 3175 0c2c 05       		.byte	0x5
 3176 0c2d 01       		.byte	0x1
 3177 0c2e 29000000 		.4byte	0x29
 3178 0c32 00000000 		.4byte	.LFB48
 3179 0c36 70000000 		.4byte	.LFE48
 3180 0c3a 00000000 		.4byte	.LLST17
 3181 0c3e 01       		.byte	0x1
 3182 0c3f 210D0000 		.4byte	0xd21
 3183 0c43 1D       		.uleb128 0x1d
 3184 0c44 0C000000 		.4byte	.LVL62
 3185 0c48 A3130000 		.4byte	0x13a3
 3186 0c4c 600C0000 		.4byte	0xc60
 3187 0c50 1E       		.uleb128 0x1e
 3188 0c51 01       		.byte	0x1
 3189 0c52 50       		.byte	0x50
 3190 0c53 01       		.byte	0x1
 3191 0c54 41       		.byte	0x41
 3192 0c55 1E       		.uleb128 0x1e
 3193 0c56 01       		.byte	0x1
 3194 0c57 51       		.byte	0x51
 3195 0c58 01       		.byte	0x1
 3196 0c59 34       		.byte	0x34
 3197 0c5a 1E       		.uleb128 0x1e
 3198 0c5b 01       		.byte	0x1
 3199 0c5c 52       		.byte	0x52
ARM GAS  /tmp/ccxAy8dA.s 			page 67


 3200 0c5d 01       		.byte	0x1
 3201 0c5e 30       		.byte	0x30
 3202 0c5f 00       		.byte	0
 3203 0c60 1F       		.uleb128 0x1f
 3204 0c61 18000000 		.4byte	.LVL63
 3205 0c65 78130000 		.4byte	0x1378
 3206 0c69 1D       		.uleb128 0x1d
 3207 0c6a 28000000 		.4byte	.LVL64
 3208 0c6e B2130000 		.4byte	0x13b2
 3209 0c72 A30C0000 		.4byte	0xca3
 3210 0c76 1E       		.uleb128 0x1e
 3211 0c77 01       		.byte	0x1
 3212 0c78 50       		.byte	0x50
 3213 0c79 05       		.byte	0x5
 3214 0c7a 03       		.byte	0x3
 3215 0c7b 00000000 		.4byte	task1
 3216 0c7f 1E       		.uleb128 0x1e
 3217 0c80 01       		.byte	0x1
 3218 0c81 51       		.byte	0x51
 3219 0c82 05       		.byte	0x5
 3220 0c83 03       		.byte	0x3
 3221 0c84 40000000 		.4byte	.LC4
 3222 0c88 1E       		.uleb128 0x1e
 3223 0c89 01       		.byte	0x1
 3224 0c8a 52       		.byte	0x52
 3225 0c8b 02       		.byte	0x2
 3226 0c8c 08       		.byte	0x8
 3227 0c8d 64       		.byte	0x64
 3228 0c8e 1E       		.uleb128 0x1e
 3229 0c8f 01       		.byte	0x1
 3230 0c90 53       		.byte	0x53
 3231 0c91 02       		.byte	0x2
 3232 0c92 74       		.byte	0x74
 3233 0c93 00       		.sleb128 0
 3234 0c94 1E       		.uleb128 0x1e
 3235 0c95 02       		.byte	0x2
 3236 0c96 7D       		.byte	0x7d
 3237 0c97 00       		.sleb128 0
 3238 0c98 02       		.byte	0x2
 3239 0c99 75       		.byte	0x75
 3240 0c9a 00       		.sleb128 0
 3241 0c9b 1E       		.uleb128 0x1e
 3242 0c9c 02       		.byte	0x2
 3243 0c9d 7D       		.byte	0x7d
 3244 0c9e 04       		.sleb128 4
 3245 0c9f 02       		.byte	0x2
 3246 0ca0 74       		.byte	0x74
 3247 0ca1 00       		.sleb128 0
 3248 0ca2 00       		.byte	0
 3249 0ca3 1D       		.uleb128 0x1d
 3250 0ca4 38000000 		.4byte	.LVL65
 3251 0ca8 B2130000 		.4byte	0x13b2
 3252 0cac DD0C0000 		.4byte	0xcdd
 3253 0cb0 1E       		.uleb128 0x1e
 3254 0cb1 01       		.byte	0x1
 3255 0cb2 50       		.byte	0x50
 3256 0cb3 05       		.byte	0x5
ARM GAS  /tmp/ccxAy8dA.s 			page 68


 3257 0cb4 03       		.byte	0x3
 3258 0cb5 00000000 		.4byte	task2
 3259 0cb9 1E       		.uleb128 0x1e
 3260 0cba 01       		.byte	0x1
 3261 0cbb 51       		.byte	0x51
 3262 0cbc 05       		.byte	0x5
 3263 0cbd 03       		.byte	0x3
 3264 0cbe 49000000 		.4byte	.LC5
 3265 0cc2 1E       		.uleb128 0x1e
 3266 0cc3 01       		.byte	0x1
 3267 0cc4 52       		.byte	0x52
 3268 0cc5 02       		.byte	0x2
 3269 0cc6 08       		.byte	0x8
 3270 0cc7 64       		.byte	0x64
 3271 0cc8 1E       		.uleb128 0x1e
 3272 0cc9 01       		.byte	0x1
 3273 0cca 53       		.byte	0x53
 3274 0ccb 02       		.byte	0x2
 3275 0ccc 74       		.byte	0x74
 3276 0ccd 00       		.sleb128 0
 3277 0cce 1E       		.uleb128 0x1e
 3278 0ccf 02       		.byte	0x2
 3279 0cd0 7D       		.byte	0x7d
 3280 0cd1 00       		.sleb128 0
 3281 0cd2 02       		.byte	0x2
 3282 0cd3 75       		.byte	0x75
 3283 0cd4 00       		.sleb128 0
 3284 0cd5 1E       		.uleb128 0x1e
 3285 0cd6 02       		.byte	0x2
 3286 0cd7 7D       		.byte	0x7d
 3287 0cd8 04       		.sleb128 4
 3288 0cd9 02       		.byte	0x2
 3289 0cda 74       		.byte	0x74
 3290 0cdb 00       		.sleb128 0
 3291 0cdc 00       		.byte	0
 3292 0cdd 1D       		.uleb128 0x1d
 3293 0cde 4C000000 		.4byte	.LVL66
 3294 0ce2 B2130000 		.4byte	0x13b2
 3295 0ce6 170D0000 		.4byte	0xd17
 3296 0cea 1E       		.uleb128 0x1e
 3297 0ceb 01       		.byte	0x1
 3298 0cec 50       		.byte	0x50
 3299 0ced 05       		.byte	0x5
 3300 0cee 03       		.byte	0x3
 3301 0cef 00000000 		.4byte	task3
 3302 0cf3 1E       		.uleb128 0x1e
 3303 0cf4 01       		.byte	0x1
 3304 0cf5 51       		.byte	0x51
 3305 0cf6 05       		.byte	0x5
 3306 0cf7 03       		.byte	0x3
 3307 0cf8 50000000 		.4byte	.LC6
 3308 0cfc 1E       		.uleb128 0x1e
 3309 0cfd 01       		.byte	0x1
 3310 0cfe 52       		.byte	0x52
 3311 0cff 03       		.byte	0x3
 3312 0d00 0A       		.byte	0xa
 3313 0d01 2C01     		.2byte	0x12c
ARM GAS  /tmp/ccxAy8dA.s 			page 69


 3314 0d03 1E       		.uleb128 0x1e
 3315 0d04 01       		.byte	0x1
 3316 0d05 53       		.byte	0x53
 3317 0d06 02       		.byte	0x2
 3318 0d07 74       		.byte	0x74
 3319 0d08 00       		.sleb128 0
 3320 0d09 1E       		.uleb128 0x1e
 3321 0d0a 02       		.byte	0x2
 3322 0d0b 7D       		.byte	0x7d
 3323 0d0c 00       		.sleb128 0
 3324 0d0d 01       		.byte	0x1
 3325 0d0e 34       		.byte	0x34
 3326 0d0f 1E       		.uleb128 0x1e
 3327 0d10 02       		.byte	0x2
 3328 0d11 7D       		.byte	0x7d
 3329 0d12 04       		.sleb128 4
 3330 0d13 02       		.byte	0x2
 3331 0d14 74       		.byte	0x74
 3332 0d15 00       		.sleb128 0
 3333 0d16 00       		.byte	0
 3334 0d17 1F       		.uleb128 0x1f
 3335 0d18 50000000 		.4byte	.LVL67
 3336 0d1c C1130000 		.4byte	0x13c1
 3337 0d20 00       		.byte	0
 3338 0d21 20       		.uleb128 0x20
 3339 0d22 01       		.byte	0x1
 3340 0d23 F8050000 		.4byte	.LASF184
 3341 0d27 01       		.byte	0x1
 3342 0d28 67       		.byte	0x67
 3343 0d29 07       		.byte	0x7
 3344 0d2a 01       		.byte	0x1
 3345 0d2b F4030000 		.4byte	.LFB46
 3346 0d2f 98040000 		.4byte	.LFE46
 3347 0d33 20000000 		.4byte	.LLST14
 3348 0d37 01       		.byte	0x1
 3349 0d38 D50E0000 		.4byte	0xed5
 3350 0d3c 21       		.uleb128 0x21
 3351 0d3d EE040000 		.4byte	.LASF176
 3352 0d41 01       		.byte	0x1
 3353 0d42 67       		.byte	0x67
 3354 0d43 13       		.byte	0x13
 3355 0d44 CD000000 		.4byte	0xcd
 3356 0d48 50000000 		.4byte	.LLST15
 3357 0d4c 4C000000 		.4byte	.LVUS15
 3358 0d50 1B       		.uleb128 0x1b
 3359 0d51 7C030000 		.4byte	.LASF175
 3360 0d55 01       		.byte	0x1
 3361 0d56 7E       		.byte	0x7e
 3362 0d57 06       		.byte	0x6
 3363 0d58 AF030000 		.4byte	0x3af
 3364 0d5c 02       		.byte	0x2
 3365 0d5d 91       		.byte	0x91
 3366 0d5e 52       		.sleb128 -46
 3367 0d5f 22       		.uleb128 0x22
 3368 0d60 6A00     		.ascii	"j\000"
 3369 0d62 01       		.byte	0x1
 3370 0d63 80       		.byte	0x80
ARM GAS  /tmp/ccxAy8dA.s 			page 70


 3371 0d64 06       		.byte	0x6
 3372 0d65 29000000 		.4byte	0x29
 3373 0d69 75000000 		.4byte	.LLST16
 3374 0d6d 71000000 		.4byte	.LVUS16
 3375 0d71 23       		.uleb128 0x23
 3376 0d72 7400     		.ascii	"t\000"
 3377 0d74 01       		.byte	0x1
 3378 0d75 84       		.byte	0x84
 3379 0d76 07       		.byte	0x7
 3380 0d77 D50E0000 		.4byte	0xed5
 3381 0d7b 02       		.byte	0x2
 3382 0d7c 91       		.byte	0x91
 3383 0d7d 54       		.sleb128 -44
 3384 0d7e 23       		.uleb128 0x23
 3385 0d7f 6800     		.ascii	"h\000"
 3386 0d81 01       		.byte	0x1
 3387 0d82 84       		.byte	0x84
 3388 0d83 0D       		.byte	0xd
 3389 0d84 D50E0000 		.4byte	0xed5
 3390 0d88 02       		.byte	0x2
 3391 0d89 91       		.byte	0x91
 3392 0d8a 58       		.sleb128 -40
 3393 0d8b 23       		.uleb128 0x23
 3394 0d8c 656E7600 		.ascii	"env\000"
 3395 0d90 01       		.byte	0x1
 3396 0d91 84       		.byte	0x84
 3397 0d92 13       		.byte	0x13
 3398 0d93 E50E0000 		.4byte	0xee5
 3399 0d97 02       		.byte	0x2
 3400 0d98 91       		.byte	0x91
 3401 0d99 5C       		.sleb128 -36
 3402 0d9a 1F       		.uleb128 0x1f
 3403 0d9b FC030000 		.4byte	.LVL46
 3404 0d9f 25120000 		.4byte	0x1225
 3405 0da3 1F       		.uleb128 0x1f
 3406 0da4 00040000 		.4byte	.LVL47
 3407 0da8 14110000 		.4byte	0x1114
 3408 0dac 1D       		.uleb128 0x1d
 3409 0dad 0E040000 		.4byte	.LVL49
 3410 0db1 CB110000 		.4byte	0x11cb
 3411 0db5 C30D0000 		.4byte	0xdc3
 3412 0db9 1E       		.uleb128 0x1e
 3413 0dba 01       		.byte	0x1
 3414 0dbb 50       		.byte	0x50
 3415 0dbc 05       		.byte	0x5
 3416 0dbd 03       		.byte	0x3
 3417 0dbe 11000000 		.4byte	.LC1
 3418 0dc2 00       		.byte	0
 3419 0dc3 1F       		.uleb128 0x1f
 3420 0dc4 16040000 		.4byte	.LVL50
 3421 0dc8 41100000 		.4byte	0x1041
 3422 0dcc 1D       		.uleb128 0x1d
 3423 0dcd 20040000 		.4byte	.LVL51
 3424 0dd1 CB110000 		.4byte	0x11cb
 3425 0dd5 E00D0000 		.4byte	0xde0
 3426 0dd9 1E       		.uleb128 0x1e
 3427 0dda 01       		.byte	0x1
ARM GAS  /tmp/ccxAy8dA.s 			page 71


 3428 0ddb 50       		.byte	0x50
 3429 0ddc 02       		.byte	0x2
 3430 0ddd 75       		.byte	0x75
 3431 0dde 00       		.sleb128 0
 3432 0ddf 00       		.byte	0
 3433 0de0 1D       		.uleb128 0x1d
 3434 0de1 30040000 		.4byte	.LVL52
 3435 0de5 D0130000 		.4byte	0x13d0
 3436 0de9 F90D0000 		.4byte	0xdf9
 3437 0ded 1E       		.uleb128 0x1e
 3438 0dee 01       		.byte	0x1
 3439 0def 51       		.byte	0x51
 3440 0df0 02       		.byte	0x2
 3441 0df1 91       		.byte	0x91
 3442 0df2 54       		.sleb128 -44
 3443 0df3 1E       		.uleb128 0x1e
 3444 0df4 01       		.byte	0x1
 3445 0df5 52       		.byte	0x52
 3446 0df6 01       		.byte	0x1
 3447 0df7 3A       		.byte	0x3a
 3448 0df8 00       		.byte	0
 3449 0df9 1D       		.uleb128 0x1d
 3450 0dfa 40040000 		.4byte	.LVL53
 3451 0dfe D0130000 		.4byte	0x13d0
 3452 0e02 120E0000 		.4byte	0xe12
 3453 0e06 1E       		.uleb128 0x1e
 3454 0e07 01       		.byte	0x1
 3455 0e08 51       		.byte	0x51
 3456 0e09 02       		.byte	0x2
 3457 0e0a 91       		.byte	0x91
 3458 0e0b 58       		.sleb128 -40
 3459 0e0c 1E       		.uleb128 0x1e
 3460 0e0d 01       		.byte	0x1
 3461 0e0e 52       		.byte	0x52
 3462 0e0f 01       		.byte	0x1
 3463 0e10 3A       		.byte	0x3a
 3464 0e11 00       		.byte	0
 3465 0e12 1D       		.uleb128 0x1d
 3466 0e13 48040000 		.4byte	.LVL54
 3467 0e17 DE130000 		.4byte	0x13de
 3468 0e1b 2C0E0000 		.4byte	0xe2c
 3469 0e1f 1E       		.uleb128 0x1e
 3470 0e20 01       		.byte	0x1
 3471 0e21 50       		.byte	0x50
 3472 0e22 02       		.byte	0x2
 3473 0e23 91       		.byte	0x91
 3474 0e24 5C       		.sleb128 -36
 3475 0e25 1E       		.uleb128 0x1e
 3476 0e26 01       		.byte	0x1
 3477 0e27 51       		.byte	0x51
 3478 0e28 02       		.byte	0x2
 3479 0e29 74       		.byte	0x74
 3480 0e2a 00       		.sleb128 0
 3481 0e2b 00       		.byte	0
 3482 0e2c 1D       		.uleb128 0x1d
 3483 0e2d 50040000 		.4byte	.LVL55
 3484 0e31 EC130000 		.4byte	0x13ec
ARM GAS  /tmp/ccxAy8dA.s 			page 72


 3485 0e35 460E0000 		.4byte	0xe46
 3486 0e39 1E       		.uleb128 0x1e
 3487 0e3a 01       		.byte	0x1
 3488 0e3b 50       		.byte	0x50
 3489 0e3c 02       		.byte	0x2
 3490 0e3d 91       		.byte	0x91
 3491 0e3e 5C       		.sleb128 -36
 3492 0e3f 1E       		.uleb128 0x1e
 3493 0e40 01       		.byte	0x1
 3494 0e41 51       		.byte	0x51
 3495 0e42 02       		.byte	0x2
 3496 0e43 91       		.byte	0x91
 3497 0e44 54       		.sleb128 -44
 3498 0e45 00       		.byte	0
 3499 0e46 1D       		.uleb128 0x1d
 3500 0e47 56040000 		.4byte	.LVL56
 3501 0e4b CB110000 		.4byte	0x11cb
 3502 0e4f 5A0E0000 		.4byte	0xe5a
 3503 0e53 1E       		.uleb128 0x1e
 3504 0e54 01       		.byte	0x1
 3505 0e55 50       		.byte	0x50
 3506 0e56 02       		.byte	0x2
 3507 0e57 91       		.byte	0x91
 3508 0e58 5C       		.sleb128 -36
 3509 0e59 00       		.byte	0
 3510 0e5a 1D       		.uleb128 0x1d
 3511 0e5b 5E040000 		.4byte	.LVL57
 3512 0e5f DE130000 		.4byte	0x13de
 3513 0e63 770E0000 		.4byte	0xe77
 3514 0e67 1E       		.uleb128 0x1e
 3515 0e68 01       		.byte	0x1
 3516 0e69 50       		.byte	0x50
 3517 0e6a 02       		.byte	0x2
 3518 0e6b 91       		.byte	0x91
 3519 0e6c 5C       		.sleb128 -36
 3520 0e6d 1E       		.uleb128 0x1e
 3521 0e6e 01       		.byte	0x1
 3522 0e6f 51       		.byte	0x51
 3523 0e70 05       		.byte	0x5
 3524 0e71 03       		.byte	0x3
 3525 0e72 33000000 		.4byte	.LC3
 3526 0e76 00       		.byte	0
 3527 0e77 1D       		.uleb128 0x1d
 3528 0e78 66040000 		.4byte	.LVL58
 3529 0e7c EC130000 		.4byte	0x13ec
 3530 0e80 910E0000 		.4byte	0xe91
 3531 0e84 1E       		.uleb128 0x1e
 3532 0e85 01       		.byte	0x1
 3533 0e86 50       		.byte	0x50
 3534 0e87 02       		.byte	0x2
 3535 0e88 91       		.byte	0x91
 3536 0e89 5C       		.sleb128 -36
 3537 0e8a 1E       		.uleb128 0x1e
 3538 0e8b 01       		.byte	0x1
 3539 0e8c 51       		.byte	0x51
 3540 0e8d 02       		.byte	0x2
 3541 0e8e 91       		.byte	0x91
ARM GAS  /tmp/ccxAy8dA.s 			page 73


 3542 0e8f 58       		.sleb128 -40
 3543 0e90 00       		.byte	0
 3544 0e91 1D       		.uleb128 0x1d
 3545 0e92 6C040000 		.4byte	.LVL59
 3546 0e96 CB110000 		.4byte	0x11cb
 3547 0e9a A50E0000 		.4byte	0xea5
 3548 0e9e 1E       		.uleb128 0x1e
 3549 0e9f 01       		.byte	0x1
 3550 0ea0 50       		.byte	0x50
 3551 0ea1 02       		.byte	0x2
 3552 0ea2 91       		.byte	0x91
 3553 0ea3 5C       		.sleb128 -36
 3554 0ea4 00       		.byte	0
 3555 0ea5 1D       		.uleb128 0x1d
 3556 0ea6 74040000 		.4byte	.LVL60
 3557 0eaa FA130000 		.4byte	0x13fa
 3558 0eae BA0E0000 		.4byte	0xeba
 3559 0eb2 1E       		.uleb128 0x1e
 3560 0eb3 01       		.byte	0x1
 3561 0eb4 50       		.byte	0x50
 3562 0eb5 03       		.byte	0x3
 3563 0eb6 0A       		.byte	0xa
 3564 0eb7 50C3     		.2byte	0xc350
 3565 0eb9 00       		.byte	0
 3566 0eba 24       		.uleb128 0x24
 3567 0ebb 84040000 		.4byte	.LVL61
 3568 0ebf 09140000 		.4byte	0x1409
 3569 0ec3 1E       		.uleb128 0x1e
 3570 0ec4 01       		.byte	0x1
 3571 0ec5 51       		.byte	0x51
 3572 0ec6 02       		.byte	0x2
 3573 0ec7 91       		.byte	0x91
 3574 0ec8 52       		.sleb128 -46
 3575 0ec9 1E       		.uleb128 0x1e
 3576 0eca 01       		.byte	0x1
 3577 0ecb 52       		.byte	0x52
 3578 0ecc 01       		.byte	0x1
 3579 0ecd 30       		.byte	0x30
 3580 0ece 1E       		.uleb128 0x1e
 3581 0ecf 01       		.byte	0x1
 3582 0ed0 53       		.byte	0x53
 3583 0ed1 01       		.byte	0x1
 3584 0ed2 30       		.byte	0x30
 3585 0ed3 00       		.byte	0
 3586 0ed4 00       		.byte	0
 3587 0ed5 10       		.uleb128 0x10
 3588 0ed6 E7000000 		.4byte	0xe7
 3589 0eda E50E0000 		.4byte	0xee5
 3590 0ede 11       		.uleb128 0x11
 3591 0edf 30000000 		.4byte	0x30
 3592 0ee3 03       		.byte	0x3
 3593 0ee4 00       		.byte	0
 3594 0ee5 10       		.uleb128 0x10
 3595 0ee6 E7000000 		.4byte	0xe7
 3596 0eea F50E0000 		.4byte	0xef5
 3597 0eee 11       		.uleb128 0x11
 3598 0eef 30000000 		.4byte	0x30
ARM GAS  /tmp/ccxAy8dA.s 			page 74


 3599 0ef3 13       		.byte	0x13
 3600 0ef4 00       		.byte	0
 3601 0ef5 25       		.uleb128 0x25
 3602 0ef6 F2050000 		.4byte	.LASF177
 3603 0efa 01       		.byte	0x1
 3604 0efb 5D       		.byte	0x5d
 3605 0efc 0D       		.byte	0xd
 3606 0efd 01       		.byte	0x1
 3607 0efe 00000000 		.4byte	.LFB45
 3608 0f02 30000000 		.4byte	.LFE45
 3609 0f06 95000000 		.4byte	.LLST0
 3610 0f0a 01       		.byte	0x1
 3611 0f0b 350F0000 		.4byte	0xf35
 3612 0f0f 21       		.uleb128 0x21
 3613 0f10 EE040000 		.4byte	.LASF176
 3614 0f14 01       		.byte	0x1
 3615 0f15 5D       		.byte	0x5d
 3616 0f16 19       		.byte	0x19
 3617 0f17 CD000000 		.4byte	0xcd
 3618 0f1b B9000000 		.4byte	.LLST1
 3619 0f1f B5000000 		.4byte	.LVUS1
 3620 0f23 24       		.uleb128 0x24
 3621 0f24 26000000 		.4byte	.LVL2
 3622 0f28 FA130000 		.4byte	0x13fa
 3623 0f2c 1E       		.uleb128 0x1e
 3624 0f2d 01       		.byte	0x1
 3625 0f2e 50       		.byte	0x50
 3626 0f2f 03       		.byte	0x3
 3627 0f30 0A       		.byte	0xa
 3628 0f31 8813     		.2byte	0x1388
 3629 0f33 00       		.byte	0
 3630 0f34 00       		.byte	0
 3631 0f35 25       		.uleb128 0x25
 3632 0f36 EC050000 		.4byte	.LASF178
 3633 0f3a 01       		.byte	0x1
 3634 0f3b 32       		.byte	0x32
 3635 0f3c 0D       		.byte	0xd
 3636 0f3d 01       		.byte	0x1
 3637 0f3e 30000000 		.4byte	.LFB44
 3638 0f42 E8000000 		.4byte	.LFE44
 3639 0f46 DA000000 		.4byte	.LLST2
 3640 0f4a 01       		.byte	0x1
 3641 0f4b 41100000 		.4byte	0x1041
 3642 0f4f 21       		.uleb128 0x21
 3643 0f50 EE040000 		.4byte	.LASF176
 3644 0f54 01       		.byte	0x1
 3645 0f55 32       		.byte	0x32
 3646 0f56 19       		.byte	0x19
 3647 0f57 CD000000 		.4byte	0xcd
 3648 0f5b FE000000 		.4byte	.LLST3
 3649 0f5f FA000000 		.4byte	.LVUS3
 3650 0f63 1B       		.uleb128 0x1b
 3651 0f64 A8090000 		.4byte	.LASF179
 3652 0f68 01       		.byte	0x1
 3653 0f69 51       		.byte	0x51
 3654 0f6a 06       		.byte	0x6
 3655 0f6b 29000000 		.4byte	0x29
ARM GAS  /tmp/ccxAy8dA.s 			page 75


 3656 0f6f 02       		.byte	0x2
 3657 0f70 91       		.byte	0x91
 3658 0f71 74       		.sleb128 -12
 3659 0f72 1F       		.uleb128 0x1f
 3660 0f73 80000000 		.4byte	.LVL4
 3661 0f77 18140000 		.4byte	0x1418
 3662 0f7b 1D       		.uleb128 0x1d
 3663 0f7c 86000000 		.4byte	.LVL5
 3664 0f80 26140000 		.4byte	0x1426
 3665 0f84 8E0F0000 		.4byte	0xf8e
 3666 0f88 1E       		.uleb128 0x1e
 3667 0f89 01       		.byte	0x1
 3668 0f8a 50       		.byte	0x50
 3669 0f8b 01       		.byte	0x1
 3670 0f8c 3C       		.byte	0x3c
 3671 0f8d 00       		.byte	0
 3672 0f8e 1D       		.uleb128 0x1d
 3673 0f8f 90000000 		.4byte	.LVL6
 3674 0f93 34140000 		.4byte	0x1434
 3675 0f97 AF0F0000 		.4byte	0xfaf
 3676 0f9b 1E       		.uleb128 0x1e
 3677 0f9c 01       		.byte	0x1
 3678 0f9d 50       		.byte	0x50
 3679 0f9e 05       		.byte	0x5
 3680 0f9f 03       		.byte	0x3
 3681 0fa0 00000000 		.4byte	.LC0
 3682 0fa4 1E       		.uleb128 0x1e
 3683 0fa5 01       		.byte	0x1
 3684 0fa6 51       		.byte	0x51
 3685 0fa7 01       		.byte	0x1
 3686 0fa8 30       		.byte	0x30
 3687 0fa9 1E       		.uleb128 0x1e
 3688 0faa 01       		.byte	0x1
 3689 0fab 52       		.byte	0x52
 3690 0fac 01       		.byte	0x1
 3691 0fad 30       		.byte	0x30
 3692 0fae 00       		.byte	0
 3693 0faf 1D       		.uleb128 0x1d
 3694 0fb0 9A000000 		.4byte	.LVL7
 3695 0fb4 34140000 		.4byte	0x1434
 3696 0fb8 D00F0000 		.4byte	0xfd0
 3697 0fbc 1E       		.uleb128 0x1e
 3698 0fbd 01       		.byte	0x1
 3699 0fbe 50       		.byte	0x50
 3700 0fbf 05       		.byte	0x5
 3701 0fc0 03       		.byte	0x3
 3702 0fc1 00000000 		.4byte	.LC0
 3703 0fc5 1E       		.uleb128 0x1e
 3704 0fc6 01       		.byte	0x1
 3705 0fc7 51       		.byte	0x51
 3706 0fc8 01       		.byte	0x1
 3707 0fc9 31       		.byte	0x31
 3708 0fca 1E       		.uleb128 0x1e
 3709 0fcb 01       		.byte	0x1
 3710 0fcc 52       		.byte	0x52
 3711 0fcd 01       		.byte	0x1
 3712 0fce 30       		.byte	0x30
ARM GAS  /tmp/ccxAy8dA.s 			page 76


 3713 0fcf 00       		.byte	0
 3714 0fd0 1D       		.uleb128 0x1d
 3715 0fd1 A2000000 		.4byte	.LVL8
 3716 0fd5 FA130000 		.4byte	0x13fa
 3717 0fd9 E50F0000 		.4byte	0xfe5
 3718 0fdd 1E       		.uleb128 0x1e
 3719 0fde 01       		.byte	0x1
 3720 0fdf 50       		.byte	0x50
 3721 0fe0 03       		.byte	0x3
 3722 0fe1 0A       		.byte	0xa
 3723 0fe2 50C3     		.2byte	0xc350
 3724 0fe4 00       		.byte	0
 3725 0fe5 1D       		.uleb128 0x1d
 3726 0fe6 AC000000 		.4byte	.LVL9
 3727 0fea 42140000 		.4byte	0x1442
 3728 0fee FF0F0000 		.4byte	0xfff
 3729 0ff2 1E       		.uleb128 0x1e
 3730 0ff3 01       		.byte	0x1
 3731 0ff4 51       		.byte	0x51
 3732 0ff5 02       		.byte	0x2
 3733 0ff6 91       		.byte	0x91
 3734 0ff7 74       		.sleb128 -12
 3735 0ff8 1E       		.uleb128 0x1e
 3736 0ff9 01       		.byte	0x1
 3737 0ffa 52       		.byte	0x52
 3738 0ffb 02       		.byte	0x2
 3739 0ffc 08       		.byte	0x8
 3740 0ffd 64       		.byte	0x64
 3741 0ffe 00       		.byte	0
 3742 0fff 1D       		.uleb128 0x1d
 3743 1000 BA000000 		.4byte	.LVL10
 3744 1004 51140000 		.4byte	0x1451
 3745 1008 17100000 		.4byte	0x1017
 3746 100c 1E       		.uleb128 0x1e
 3747 100d 01       		.byte	0x1
 3748 100e 51       		.byte	0x51
 3749 100f 01       		.byte	0x1
 3750 1010 30       		.byte	0x30
 3751 1011 1E       		.uleb128 0x1e
 3752 1012 01       		.byte	0x1
 3753 1013 52       		.byte	0x52
 3754 1014 01       		.byte	0x1
 3755 1015 30       		.byte	0x30
 3756 1016 00       		.byte	0
 3757 1017 1D       		.uleb128 0x1d
 3758 1018 C8000000 		.4byte	.LVL11
 3759 101c 51140000 		.4byte	0x1451
 3760 1020 2F100000 		.4byte	0x102f
 3761 1024 1E       		.uleb128 0x1e
 3762 1025 01       		.byte	0x1
 3763 1026 51       		.byte	0x51
 3764 1027 01       		.byte	0x1
 3765 1028 31       		.byte	0x31
 3766 1029 1E       		.uleb128 0x1e
 3767 102a 01       		.byte	0x1
 3768 102b 52       		.byte	0x52
 3769 102c 01       		.byte	0x1
ARM GAS  /tmp/ccxAy8dA.s 			page 77


 3770 102d 30       		.byte	0x30
 3771 102e 00       		.byte	0
 3772 102f 24       		.uleb128 0x24
 3773 1030 D0000000 		.4byte	.LVL12
 3774 1034 FA130000 		.4byte	0x13fa
 3775 1038 1E       		.uleb128 0x1e
 3776 1039 01       		.byte	0x1
 3777 103a 50       		.byte	0x50
 3778 103b 03       		.byte	0x3
 3779 103c 0A       		.byte	0xa
 3780 103d 50C3     		.2byte	0xc350
 3781 103f 00       		.byte	0
 3782 1040 00       		.byte	0
 3783 1041 1C       		.uleb128 0x1c
 3784 1042 01       		.byte	0x1
 3785 1043 9B050000 		.4byte	.LASF181
 3786 1047 04       		.byte	0x4
 3787 1048 1C       		.byte	0x1c
 3788 1049 05       		.byte	0x5
 3789 104a 01       		.byte	0x1
 3790 104b AF030000 		.4byte	0x3af
 3791 104f 6C030000 		.4byte	.LFB43
 3792 1053 F4030000 		.4byte	.LFE43
 3793 1057 1F010000 		.4byte	.LLST11
 3794 105b 01       		.byte	0x1
 3795 105c 04110000 		.4byte	0x1104
 3796 1060 1B       		.uleb128 0x1b
 3797 1061 9E000000 		.4byte	.LASF182
 3798 1065 04       		.byte	0x4
 3799 1066 1D       		.byte	0x1d
 3800 1067 06       		.byte	0x6
 3801 1068 AF030000 		.4byte	0x3af
 3802 106c 01       		.byte	0x1
 3803 106d 50       		.byte	0x50
 3804 106e 22       		.uleb128 0x22
 3805 106f 4B00     		.ascii	"K\000"
 3806 1071 04       		.byte	0x4
 3807 1072 1E       		.byte	0x1e
 3808 1073 05       		.byte	0x5
 3809 1074 BC030000 		.4byte	0x3bc
 3810 1078 59010000 		.4byte	.LLST12
 3811 107c 57010000 		.4byte	.LVUS12
 3812 1080 1B       		.uleb128 0x1b
 3813 1081 A30A0000 		.4byte	.LASF183
 3814 1085 04       		.byte	0x4
 3815 1086 20       		.byte	0x20
 3816 1087 0D       		.byte	0xd
 3817 1088 04110000 		.4byte	0x1104
 3818 108c 02       		.byte	0x2
 3819 108d 91       		.byte	0x91
 3820 108e 68       		.sleb128 -24
 3821 108f 26       		.uleb128 0x26
 3822 1090 86030000 		.4byte	.LBB2
 3823 1094 BC030000 		.4byte	.LBE2
 3824 1098 D9100000 		.4byte	0x10d9
 3825 109c 22       		.uleb128 0x22
 3826 109d 6900     		.ascii	"i\000"
ARM GAS  /tmp/ccxAy8dA.s 			page 78


 3827 109f 04       		.byte	0x4
 3828 10a0 2B       		.byte	0x2b
 3829 10a1 12       		.byte	0x12
 3830 10a2 9A000000 		.4byte	0x9a
 3831 10a6 73010000 		.4byte	.LLST13
 3832 10aa 6D010000 		.4byte	.LVUS13
 3833 10ae 1D       		.uleb128 0x1d
 3834 10af 8E030000 		.4byte	.LVL38
 3835 10b3 FA130000 		.4byte	0x13fa
 3836 10b7 C1100000 		.4byte	0x10c1
 3837 10bb 1E       		.uleb128 0x1e
 3838 10bc 01       		.byte	0x1
 3839 10bd 50       		.byte	0x50
 3840 10be 01       		.byte	0x1
 3841 10bf 4E       		.byte	0x4e
 3842 10c0 00       		.byte	0
 3843 10c1 24       		.uleb128 0x24
 3844 10c2 9A030000 		.4byte	.LVL40
 3845 10c6 5F140000 		.4byte	0x145f
 3846 10ca 1E       		.uleb128 0x1e
 3847 10cb 01       		.byte	0x1
 3848 10cc 50       		.byte	0x50
 3849 10cd 02       		.byte	0x2
 3850 10ce 76       		.byte	0x76
 3851 10cf 00       		.sleb128 0
 3852 10d0 1E       		.uleb128 0x1e
 3853 10d1 01       		.byte	0x1
 3854 10d2 51       		.byte	0x51
 3855 10d3 03       		.byte	0x3
 3856 10d4 0A       		.byte	0xa
 3857 10d5 0010     		.2byte	0x1000
 3858 10d7 00       		.byte	0
 3859 10d8 00       		.byte	0
 3860 10d9 1D       		.uleb128 0x1d
 3861 10da 82030000 		.4byte	.LVL37
 3862 10de 5F140000 		.4byte	0x145f
 3863 10e2 F4100000 		.4byte	0x10f4
 3864 10e6 1E       		.uleb128 0x1e
 3865 10e7 01       		.byte	0x1
 3866 10e8 50       		.byte	0x50
 3867 10e9 02       		.byte	0x2
 3868 10ea 74       		.byte	0x74
 3869 10eb 00       		.sleb128 0
 3870 10ec 1E       		.uleb128 0x1e
 3871 10ed 01       		.byte	0x1
 3872 10ee 51       		.byte	0x51
 3873 10ef 03       		.byte	0x3
 3874 10f0 0A       		.byte	0xa
 3875 10f1 0010     		.2byte	0x1000
 3876 10f3 00       		.byte	0
 3877 10f4 24       		.uleb128 0x24
 3878 10f5 EC030000 		.4byte	.LVL44
 3879 10f9 FA130000 		.4byte	0x13fa
 3880 10fd 1E       		.uleb128 0x1e
 3881 10fe 01       		.byte	0x1
 3882 10ff 50       		.byte	0x50
 3883 1100 01       		.byte	0x1
ARM GAS  /tmp/ccxAy8dA.s 			page 79


 3884 1101 31       		.byte	0x31
 3885 1102 00       		.byte	0
 3886 1103 00       		.byte	0
 3887 1104 10       		.uleb128 0x10
 3888 1105 9A000000 		.4byte	0x9a
 3889 1109 14110000 		.4byte	0x1114
 3890 110d 11       		.uleb128 0x11
 3891 110e 30000000 		.4byte	0x30
 3892 1112 04       		.byte	0x4
 3893 1113 00       		.byte	0
 3894 1114 20       		.uleb128 0x20
 3895 1115 01       		.byte	0x1
 3896 1116 A4080000 		.4byte	.LASF185
 3897 111a 04       		.byte	0x4
 3898 111b 06       		.byte	0x6
 3899 111c 06       		.byte	0x6
 3900 111d 01       		.byte	0x1
 3901 111e 0C030000 		.4byte	.LFB42
 3902 1122 6C030000 		.4byte	.LFE42
 3903 1126 A0010000 		.4byte	.LLST10
 3904 112a 01       		.byte	0x1
 3905 112b CB110000 		.4byte	0x11cb
 3906 112f 1B       		.uleb128 0x1b
 3907 1130 F2090000 		.4byte	.LASF186
 3908 1134 04       		.byte	0x4
 3909 1135 0A       		.byte	0xa
 3910 1136 16       		.byte	0x16
 3911 1137 960B0000 		.4byte	0xb96
 3912 113b 02       		.byte	0x2
 3913 113c 91       		.byte	0x91
 3914 113d 6C       		.sleb128 -20
 3915 113e 1D       		.uleb128 0x1d
 3916 113f 32030000 		.4byte	.LVL29
 3917 1143 6E140000 		.4byte	0x146e
 3918 1147 58110000 		.4byte	0x1158
 3919 114b 1E       		.uleb128 0x1e
 3920 114c 01       		.byte	0x1
 3921 114d 50       		.byte	0x50
 3922 114e 02       		.byte	0x2
 3923 114f 74       		.byte	0x74
 3924 1150 00       		.sleb128 0
 3925 1151 1E       		.uleb128 0x1e
 3926 1152 01       		.byte	0x1
 3927 1153 51       		.byte	0x51
 3928 1154 02       		.byte	0x2
 3929 1155 91       		.byte	0x91
 3930 1156 6C       		.sleb128 -20
 3931 1157 00       		.byte	0
 3932 1158 1D       		.uleb128 0x1d
 3933 1159 3A030000 		.4byte	.LVL30
 3934 115d 7D140000 		.4byte	0x147d
 3935 1161 72110000 		.4byte	0x1172
 3936 1165 1E       		.uleb128 0x1e
 3937 1166 01       		.byte	0x1
 3938 1167 50       		.byte	0x50
 3939 1168 02       		.byte	0x2
 3940 1169 74       		.byte	0x74
ARM GAS  /tmp/ccxAy8dA.s 			page 80


 3941 116a 00       		.sleb128 0
 3942 116b 1E       		.uleb128 0x1e
 3943 116c 01       		.byte	0x1
 3944 116d 51       		.byte	0x51
 3945 116e 02       		.byte	0x2
 3946 116f 75       		.byte	0x75
 3947 1170 00       		.sleb128 0
 3948 1171 00       		.byte	0
 3949 1172 1D       		.uleb128 0x1d
 3950 1173 42030000 		.4byte	.LVL31
 3951 1177 FA130000 		.4byte	0x13fa
 3952 117b 87110000 		.4byte	0x1187
 3953 117f 1E       		.uleb128 0x1e
 3954 1180 01       		.byte	0x1
 3955 1181 50       		.byte	0x50
 3956 1182 03       		.byte	0x3
 3957 1183 0A       		.byte	0xa
 3958 1184 5046     		.2byte	0x4650
 3959 1186 00       		.byte	0
 3960 1187 1D       		.uleb128 0x1d
 3961 1188 4A030000 		.4byte	.LVL32
 3962 118c 8C140000 		.4byte	0x148c
 3963 1190 A1110000 		.4byte	0x11a1
 3964 1194 1E       		.uleb128 0x1e
 3965 1195 01       		.byte	0x1
 3966 1196 50       		.byte	0x50
 3967 1197 02       		.byte	0x2
 3968 1198 74       		.byte	0x74
 3969 1199 00       		.sleb128 0
 3970 119a 1E       		.uleb128 0x1e
 3971 119b 01       		.byte	0x1
 3972 119c 51       		.byte	0x51
 3973 119d 02       		.byte	0x2
 3974 119e 75       		.byte	0x75
 3975 119f 00       		.sleb128 0
 3976 11a0 00       		.byte	0
 3977 11a1 1D       		.uleb128 0x1d
 3978 11a2 50030000 		.4byte	.LVL33
 3979 11a6 FA130000 		.4byte	0x13fa
 3980 11aa B4110000 		.4byte	0x11b4
 3981 11ae 1E       		.uleb128 0x1e
 3982 11af 01       		.byte	0x1
 3983 11b0 50       		.byte	0x50
 3984 11b1 01       		.byte	0x1
 3985 11b2 44       		.byte	0x44
 3986 11b3 00       		.byte	0
 3987 11b4 24       		.uleb128 0x24
 3988 11b5 5E030000 		.4byte	.LVL34
 3989 11b9 6E140000 		.4byte	0x146e
 3990 11bd 1E       		.uleb128 0x1e
 3991 11be 01       		.byte	0x1
 3992 11bf 50       		.byte	0x50
 3993 11c0 02       		.byte	0x2
 3994 11c1 74       		.byte	0x74
 3995 11c2 00       		.sleb128 0
 3996 11c3 1E       		.uleb128 0x1e
 3997 11c4 01       		.byte	0x1
ARM GAS  /tmp/ccxAy8dA.s 			page 81


 3998 11c5 51       		.byte	0x51
 3999 11c6 02       		.byte	0x2
 4000 11c7 91       		.byte	0x91
 4001 11c8 6C       		.sleb128 -20
 4002 11c9 00       		.byte	0
 4003 11ca 00       		.byte	0
 4004 11cb 20       		.uleb128 0x20
 4005 11cc 01       		.byte	0x1
 4006 11cd 84050000 		.4byte	.LASF187
 4007 11d1 03       		.byte	0x3
 4008 11d2 28       		.byte	0x28
 4009 11d3 06       		.byte	0x6
 4010 11d4 01       		.byte	0x1
 4011 11d5 E4020000 		.4byte	.LFB41
 4012 11d9 0C030000 		.4byte	.LFE41
 4013 11dd CC010000 		.4byte	.LLST8
 4014 11e1 01       		.byte	0x1
 4015 11e2 25120000 		.4byte	0x1225
 4016 11e6 21       		.uleb128 0x21
 4017 11e7 3A070000 		.4byte	.LASF188
 4018 11eb 03       		.byte	0x3
 4019 11ec 28       		.byte	0x28
 4020 11ed 16       		.byte	0x16
 4021 11ee 06010000 		.4byte	0x106
 4022 11f2 F4010000 		.4byte	.LLST9
 4023 11f6 EC010000 		.4byte	.LVUS9
 4024 11fa 1D       		.uleb128 0x1d
 4025 11fb F8020000 		.4byte	.LVL27
 4026 11ff 9B140000 		.4byte	0x149b
 4027 1203 0E120000 		.4byte	0x120e
 4028 1207 1E       		.uleb128 0x1e
 4029 1208 01       		.byte	0x1
 4030 1209 50       		.byte	0x50
 4031 120a 02       		.byte	0x2
 4032 120b 75       		.byte	0x75
 4033 120c 00       		.sleb128 0
 4034 120d 00       		.byte	0
 4035 120e 24       		.uleb128 0x24
 4036 120f 00030000 		.4byte	.LVL28
 4037 1213 AA140000 		.4byte	0x14aa
 4038 1217 1E       		.uleb128 0x1e
 4039 1218 01       		.byte	0x1
 4040 1219 50       		.byte	0x50
 4041 121a 02       		.byte	0x2
 4042 121b 75       		.byte	0x75
 4043 121c 00       		.sleb128 0
 4044 121d 1E       		.uleb128 0x1e
 4045 121e 01       		.byte	0x1
 4046 121f 51       		.byte	0x51
 4047 1220 02       		.byte	0x2
 4048 1221 08       		.byte	0x8
 4049 1222 40       		.byte	0x40
 4050 1223 00       		.byte	0
 4051 1224 00       		.byte	0
 4052 1225 20       		.uleb128 0x20
 4053 1226 01       		.byte	0x1
 4054 1227 22050000 		.4byte	.LASF189
ARM GAS  /tmp/ccxAy8dA.s 			page 82


 4055 122b 03       		.byte	0x3
 4056 122c 07       		.byte	0x7
 4057 122d 06       		.byte	0x6
 4058 122e 01       		.byte	0x1
 4059 122f 74020000 		.4byte	.LFB40
 4060 1233 E4020000 		.4byte	.LFE40
 4061 1237 2C020000 		.4byte	.LLST7
 4062 123b 01       		.byte	0x1
 4063 123c DC120000 		.4byte	0x12dc
 4064 1240 1B       		.uleb128 0x1b
 4065 1241 44070000 		.4byte	.LASF190
 4066 1245 03       		.byte	0x3
 4067 1246 0C       		.byte	0xc
 4068 1247 15       		.byte	0x15
 4069 1248 960B0000 		.4byte	0xb96
 4070 124c 02       		.byte	0x2
 4071 124d 91       		.byte	0x91
 4072 124e 64       		.sleb128 -28
 4073 124f 1B       		.uleb128 0x1b
 4074 1250 51010000 		.4byte	.LASF191
 4075 1254 03       		.byte	0x3
 4076 1255 1A       		.byte	0x1a
 4077 1256 16       		.byte	0x16
 4078 1257 060C0000 		.4byte	0xc06
 4079 125b 02       		.byte	0x2
 4080 125c 91       		.byte	0x91
 4081 125d 68       		.sleb128 -24
 4082 125e 1D       		.uleb128 0x1d
 4083 125f 82020000 		.4byte	.LVL18
 4084 1263 B9140000 		.4byte	0x14b9
 4085 1267 78120000 		.4byte	0x1278
 4086 126b 1E       		.uleb128 0x1e
 4087 126c 01       		.byte	0x1
 4088 126d 50       		.byte	0x50
 4089 126e 03       		.byte	0x3
 4090 126f 0A       		.byte	0xa
 4091 1270 0440     		.2byte	0x4004
 4092 1272 1E       		.uleb128 0x1e
 4093 1273 01       		.byte	0x1
 4094 1274 51       		.byte	0x51
 4095 1275 01       		.byte	0x1
 4096 1276 31       		.byte	0x31
 4097 1277 00       		.byte	0
 4098 1278 1D       		.uleb128 0x1d
 4099 1279 9C020000 		.4byte	.LVL19
 4100 127d 6E140000 		.4byte	0x146e
 4101 1281 92120000 		.4byte	0x1292
 4102 1285 1E       		.uleb128 0x1e
 4103 1286 01       		.byte	0x1
 4104 1287 50       		.byte	0x50
 4105 1288 02       		.byte	0x2
 4106 1289 74       		.byte	0x74
 4107 128a 00       		.sleb128 0
 4108 128b 1E       		.uleb128 0x1e
 4109 128c 01       		.byte	0x1
 4110 128d 51       		.byte	0x51
 4111 128e 02       		.byte	0x2
ARM GAS  /tmp/ccxAy8dA.s 			page 83


 4112 128f 91       		.byte	0x91
 4113 1290 64       		.sleb128 -28
 4114 1291 00       		.byte	0
 4115 1292 1D       		.uleb128 0x1d
 4116 1293 B4020000 		.4byte	.LVL20
 4117 1297 6E140000 		.4byte	0x146e
 4118 129b AC120000 		.4byte	0x12ac
 4119 129f 1E       		.uleb128 0x1e
 4120 12a0 01       		.byte	0x1
 4121 12a1 50       		.byte	0x50
 4122 12a2 02       		.byte	0x2
 4123 12a3 74       		.byte	0x74
 4124 12a4 00       		.sleb128 0
 4125 12a5 1E       		.uleb128 0x1e
 4126 12a6 01       		.byte	0x1
 4127 12a7 51       		.byte	0x51
 4128 12a8 02       		.byte	0x2
 4129 12a9 91       		.byte	0x91
 4130 12aa 64       		.sleb128 -28
 4131 12ab 00       		.byte	0
 4132 12ac 1D       		.uleb128 0x1d
 4133 12ad D4020000 		.4byte	.LVL21
 4134 12b1 C8140000 		.4byte	0x14c8
 4135 12b5 C6120000 		.4byte	0x12c6
 4136 12b9 1E       		.uleb128 0x1e
 4137 12ba 01       		.byte	0x1
 4138 12bb 50       		.byte	0x50
 4139 12bc 02       		.byte	0x2
 4140 12bd 74       		.byte	0x74
 4141 12be 00       		.sleb128 0
 4142 12bf 1E       		.uleb128 0x1e
 4143 12c0 01       		.byte	0x1
 4144 12c1 51       		.byte	0x51
 4145 12c2 02       		.byte	0x2
 4146 12c3 91       		.byte	0x91
 4147 12c4 68       		.sleb128 -24
 4148 12c5 00       		.byte	0
 4149 12c6 24       		.uleb128 0x24
 4150 12c7 DC020000 		.4byte	.LVL22
 4151 12cb D7140000 		.4byte	0x14d7
 4152 12cf 1E       		.uleb128 0x1e
 4153 12d0 01       		.byte	0x1
 4154 12d1 50       		.byte	0x50
 4155 12d2 02       		.byte	0x2
 4156 12d3 74       		.byte	0x74
 4157 12d4 00       		.sleb128 0
 4158 12d5 1E       		.uleb128 0x1e
 4159 12d6 01       		.byte	0x1
 4160 12d7 51       		.byte	0x51
 4161 12d8 01       		.byte	0x1
 4162 12d9 31       		.byte	0x31
 4163 12da 00       		.byte	0
 4164 12db 00       		.byte	0
 4165 12dc 27       		.uleb128 0x27
 4166 12dd 01       		.byte	0x1
 4167 12de 1B030000 		.4byte	.LASF192
 4168 12e2 02       		.byte	0x2
ARM GAS  /tmp/ccxAy8dA.s 			page 84


 4169 12e3 7C       		.byte	0x7c
 4170 12e4 06       		.byte	0x6
 4171 12e5 01       		.byte	0x1
 4172 12e6 58020000 		.4byte	.LFB39
 4173 12ea 74020000 		.4byte	.LFE39
 4174 12ee 02       		.byte	0x2
 4175 12ef 7D       		.byte	0x7d
 4176 12f0 00       		.sleb128 0
 4177 12f1 01       		.byte	0x1
 4178 12f2 0B130000 		.4byte	0x130b
 4179 12f6 21       		.uleb128 0x21
 4180 12f7 39010000 		.4byte	.LASF193
 4181 12fb 02       		.byte	0x2
 4182 12fc 7C       		.byte	0x7c
 4183 12fd 22       		.byte	0x22
 4184 12fe 51020000 		.4byte	0x251
 4185 1302 68020000 		.4byte	.LLST6
 4186 1306 64020000 		.4byte	.LVUS6
 4187 130a 00       		.byte	0
 4188 130b 27       		.uleb128 0x27
 4189 130c 01       		.byte	0x1
 4190 130d 32050000 		.4byte	.LASF194
 4191 1311 02       		.byte	0x2
 4192 1312 74       		.byte	0x74
 4193 1313 06       		.byte	0x6
 4194 1314 01       		.byte	0x1
 4195 1315 40020000 		.4byte	.LFB38
 4196 1319 58020000 		.4byte	.LFE38
 4197 131d 02       		.byte	0x2
 4198 131e 7D       		.byte	0x7d
 4199 131f 00       		.sleb128 0
 4200 1320 01       		.byte	0x1
 4201 1321 3A130000 		.4byte	0x133a
 4202 1325 21       		.uleb128 0x21
 4203 1326 39010000 		.4byte	.LASF193
 4204 132a 02       		.byte	0x2
 4205 132b 74       		.byte	0x74
 4206 132c 21       		.byte	0x21
 4207 132d 51020000 		.4byte	0x251
 4208 1331 8D020000 		.4byte	.LLST5
 4209 1335 89020000 		.4byte	.LVUS5
 4210 1339 00       		.byte	0
 4211 133a 28       		.uleb128 0x28
 4212 133b 01       		.byte	0x1
 4213 133c 49000000 		.4byte	.LASF196
 4214 1340 02       		.byte	0x2
 4215 1341 67       		.byte	0x67
 4216 1342 06       		.byte	0x6
 4217 1343 01       		.byte	0x1
 4218 1344 18020000 		.4byte	.LFB37
 4219 1348 40020000 		.4byte	.LFE37
 4220 134c 02       		.byte	0x2
 4221 134d 7D       		.byte	0x7d
 4222 134e 00       		.sleb128 0
 4223 134f 01       		.byte	0x1
 4224 1350 20       		.uleb128 0x20
 4225 1351 01       		.byte	0x1
ARM GAS  /tmp/ccxAy8dA.s 			page 85


 4226 1352 7E000000 		.4byte	.LASF195
 4227 1356 02       		.byte	0x2
 4228 1357 60       		.byte	0x60
 4229 1358 06       		.byte	0x6
 4230 1359 01       		.byte	0x1
 4231 135a E8010000 		.4byte	.LFB36
 4232 135e 18020000 		.4byte	.LFE36
 4233 1362 AE020000 		.4byte	.LLST4
 4234 1366 01       		.byte	0x1
 4235 1367 78130000 		.4byte	0x1378
 4236 136b 29       		.uleb128 0x29
 4237 136c 5400     		.ascii	"T\000"
 4238 136e 02       		.byte	0x2
 4239 136f 60       		.byte	0x60
 4240 1370 17       		.byte	0x17
 4241 1371 AA030000 		.4byte	0x3aa
 4242 1375 01       		.byte	0x1
 4243 1376 50       		.byte	0x50
 4244 1377 00       		.byte	0
 4245 1378 28       		.uleb128 0x28
 4246 1379 01       		.byte	0x1
 4247 137a 49090000 		.4byte	.LASF197
 4248 137e 02       		.byte	0x2
 4249 137f 3E       		.byte	0x3e
 4250 1380 06       		.byte	0x6
 4251 1381 01       		.byte	0x1
 4252 1382 74010000 		.4byte	.LFB35
 4253 1386 E8010000 		.4byte	.LFE35
 4254 138a 02       		.byte	0x2
 4255 138b 7D       		.byte	0x7d
 4256 138c 00       		.sleb128 0
 4257 138d 01       		.byte	0x1
 4258 138e 2A       		.uleb128 0x2a
 4259 138f 01       		.byte	0x1
 4260 1390 8F000000 		.4byte	.LASF224
 4261 1394 02       		.byte	0x2
 4262 1395 0E       		.byte	0xe
 4263 1396 06       		.byte	0x6
 4264 1397 E8000000 		.4byte	.LFB34
 4265 139b 74010000 		.4byte	.LFE34
 4266 139f 02       		.byte	0x2
 4267 13a0 7D       		.byte	0x7d
 4268 13a1 00       		.sleb128 0
 4269 13a2 01       		.byte	0x1
 4270 13a3 2B       		.uleb128 0x2b
 4271 13a4 01       		.byte	0x1
 4272 13a5 01       		.byte	0x1
 4273 13a6 6D020000 		.4byte	.LASF198
 4274 13aa 6D020000 		.4byte	.LASF198
 4275 13ae 08       		.byte	0x8
 4276 13af D805     		.2byte	0x5d8
 4277 13b1 10       		.byte	0x10
 4278 13b2 2B       		.uleb128 0x2b
 4279 13b3 01       		.byte	0x1
 4280 13b4 01       		.byte	0x1
 4281 13b5 E0050000 		.4byte	.LASF199
 4282 13b9 E0050000 		.4byte	.LASF199
ARM GAS  /tmp/ccxAy8dA.s 			page 86


 4283 13bd 0D       		.byte	0xd
 4284 13be 4A01     		.2byte	0x14a
 4285 13c0 0D       		.byte	0xd
 4286 13c1 2B       		.uleb128 0x2b
 4287 13c2 01       		.byte	0x1
 4288 13c3 01       		.byte	0x1
 4289 13c4 20010000 		.4byte	.LASF200
 4290 13c8 20010000 		.4byte	.LASF200
 4291 13cc 0D       		.byte	0xd
 4292 13cd 9704     		.2byte	0x497
 4293 13cf 06       		.byte	0x6
 4294 13d0 2C       		.uleb128 0x2c
 4295 13d1 01       		.byte	0x1
 4296 13d2 01       		.byte	0x1
 4297 13d3 2D050000 		.4byte	.LASF201
 4298 13d7 2D050000 		.4byte	.LASF201
 4299 13db 0E       		.byte	0xe
 4300 13dc E3       		.byte	0xe3
 4301 13dd 08       		.byte	0x8
 4302 13de 2C       		.uleb128 0x2c
 4303 13df 01       		.byte	0x1
 4304 13e0 01       		.byte	0x1
 4305 13e1 7C040000 		.4byte	.LASF202
 4306 13e5 7C040000 		.4byte	.LASF202
 4307 13e9 0F       		.byte	0xf
 4308 13ea 26       		.byte	0x26
 4309 13eb 08       		.byte	0x8
 4310 13ec 2C       		.uleb128 0x2c
 4311 13ed 01       		.byte	0x1
 4312 13ee 01       		.byte	0x1
 4313 13ef 33070000 		.4byte	.LASF203
 4314 13f3 33070000 		.4byte	.LASF203
 4315 13f7 0F       		.byte	0xf
 4316 13f8 22       		.byte	0x22
 4317 13f9 08       		.byte	0x8
 4318 13fa 2B       		.uleb128 0x2b
 4319 13fb 01       		.byte	0x1
 4320 13fc 01       		.byte	0x1
 4321 13fd 41060000 		.4byte	.LASF204
 4322 1401 41060000 		.4byte	.LASF204
 4323 1405 0D       		.byte	0xd
 4324 1406 F602     		.2byte	0x2f6
 4325 1408 06       		.byte	0x6
 4326 1409 2B       		.uleb128 0x2b
 4327 140a 01       		.byte	0x1
 4328 140b 01       		.byte	0x1
 4329 140c FE030000 		.4byte	.LASF205
 4330 1410 FE030000 		.4byte	.LASF205
 4331 1414 08       		.byte	0x8
 4332 1415 8A02     		.2byte	0x28a
 4333 1417 0C       		.byte	0xc
 4334 1418 2C       		.uleb128 0x2c
 4335 1419 01       		.byte	0x1
 4336 141a 01       		.byte	0x1
 4337 141b 97070000 		.4byte	.LASF206
 4338 141f 97070000 		.4byte	.LASF206
 4339 1423 10       		.byte	0x10
ARM GAS  /tmp/ccxAy8dA.s 			page 87


 4340 1424 2F       		.byte	0x2f
 4341 1425 06       		.byte	0x6
 4342 1426 2C       		.uleb128 0x2c
 4343 1427 01       		.byte	0x1
 4344 1428 01       		.byte	0x1
 4345 1429 31000000 		.4byte	.LASF207
 4346 142d 31000000 		.4byte	.LASF207
 4347 1431 10       		.byte	0x10
 4348 1432 2E       		.byte	0x2e
 4349 1433 06       		.byte	0x6
 4350 1434 2C       		.uleb128 0x2c
 4351 1435 01       		.byte	0x1
 4352 1436 01       		.byte	0x1
 4353 1437 A80A0000 		.4byte	.LASF208
 4354 143b A80A0000 		.4byte	.LASF208
 4355 143f 10       		.byte	0x10
 4356 1440 2C       		.byte	0x2c
 4357 1441 06       		.byte	0x6
 4358 1442 2B       		.uleb128 0x2b
 4359 1443 01       		.byte	0x1
 4360 1444 01       		.byte	0x1
 4361 1445 BF040000 		.4byte	.LASF209
 4362 1449 BF040000 		.4byte	.LASF209
 4363 144d 08       		.byte	0x8
 4364 144e 6403     		.2byte	0x364
 4365 1450 0C       		.byte	0xc
 4366 1451 2C       		.uleb128 0x2c
 4367 1452 01       		.byte	0x1
 4368 1453 01       		.byte	0x1
 4369 1454 BC070000 		.4byte	.LASF210
 4370 1458 BC070000 		.4byte	.LASF210
 4371 145c 10       		.byte	0x10
 4372 145d 2A       		.byte	0x2a
 4373 145e 06       		.byte	0x6
 4374 145f 2B       		.uleb128 0x2b
 4375 1460 01       		.byte	0x1
 4376 1461 01       		.byte	0x1
 4377 1462 18040000 		.4byte	.LASF211
 4378 1466 18040000 		.4byte	.LASF211
 4379 146a 0B       		.byte	0xb
 4380 146b 6101     		.2byte	0x161
 4381 146d 09       		.byte	0x9
 4382 146e 2B       		.uleb128 0x2b
 4383 146f 01       		.byte	0x1
 4384 1470 01       		.byte	0x1
 4385 1471 2D060000 		.4byte	.LASF212
 4386 1475 2D060000 		.4byte	.LASF212
 4387 1479 0B       		.byte	0xb
 4388 147a 5F01     		.2byte	0x15f
 4389 147c 06       		.byte	0x6
 4390 147d 2B       		.uleb128 0x2b
 4391 147e 01       		.byte	0x1
 4392 147f 01       		.byte	0x1
 4393 1480 BC060000 		.4byte	.LASF213
 4394 1484 BC060000 		.4byte	.LASF213
 4395 1488 0B       		.byte	0xb
 4396 1489 6601     		.2byte	0x166
ARM GAS  /tmp/ccxAy8dA.s 			page 88


 4397 148b 06       		.byte	0x6
 4398 148c 2B       		.uleb128 0x2b
 4399 148d 01       		.byte	0x1
 4400 148e 01       		.byte	0x1
 4401 148f 96090000 		.4byte	.LASF214
 4402 1493 96090000 		.4byte	.LASF214
 4403 1497 0B       		.byte	0xb
 4404 1498 6501     		.2byte	0x165
 4405 149a 06       		.byte	0x6
 4406 149b 2B       		.uleb128 0x2b
 4407 149c 01       		.byte	0x1
 4408 149d 01       		.byte	0x1
 4409 149e 22000000 		.4byte	.LASF215
 4410 14a2 22000000 		.4byte	.LASF215
 4411 14a6 0C       		.byte	0xc
 4412 14a7 7A01     		.2byte	0x17a
 4413 14a9 06       		.byte	0x6
 4414 14aa 2B       		.uleb128 0x2b
 4415 14ab 01       		.byte	0x1
 4416 14ac 01       		.byte	0x1
 4417 14ad 70050000 		.4byte	.LASF216
 4418 14b1 70050000 		.4byte	.LASF216
 4419 14b5 0C       		.byte	0xc
 4420 14b6 8601     		.2byte	0x186
 4421 14b8 0C       		.byte	0xc
 4422 14b9 2B       		.uleb128 0x2b
 4423 14ba 01       		.byte	0x1
 4424 14bb 01       		.byte	0x1
 4425 14bc E8020000 		.4byte	.LASF217
 4426 14c0 E8020000 		.4byte	.LASF217
 4427 14c4 11       		.byte	0x11
 4428 14c5 B502     		.2byte	0x2b5
 4429 14c7 06       		.byte	0x6
 4430 14c8 2B       		.uleb128 0x2b
 4431 14c9 01       		.byte	0x1
 4432 14ca 01       		.byte	0x1
 4433 14cb 71030000 		.4byte	.LASF218
 4434 14cf 71030000 		.4byte	.LASF218
 4435 14d3 0C       		.byte	0xc
 4436 14d4 6E01     		.2byte	0x16e
 4437 14d6 06       		.byte	0x6
 4438 14d7 2B       		.uleb128 0x2b
 4439 14d8 01       		.byte	0x1
 4440 14d9 01       		.byte	0x1
 4441 14da 61070000 		.4byte	.LASF219
 4442 14de 61070000 		.4byte	.LASF219
 4443 14e2 0C       		.byte	0xc
 4444 14e3 7201     		.2byte	0x172
 4445 14e5 06       		.byte	0x6
 4446 14e6 00       		.byte	0
 4447              		.section	.debug_abbrev,"",%progbits
 4448              	.Ldebug_abbrev0:
 4449 0000 01       		.uleb128 0x1
 4450 0001 11       		.uleb128 0x11
 4451 0002 01       		.byte	0x1
 4452 0003 25       		.uleb128 0x25
 4453 0004 0E       		.uleb128 0xe
ARM GAS  /tmp/ccxAy8dA.s 			page 89


 4454 0005 13       		.uleb128 0x13
 4455 0006 0B       		.uleb128 0xb
 4456 0007 03       		.uleb128 0x3
 4457 0008 0E       		.uleb128 0xe
 4458 0009 1B       		.uleb128 0x1b
 4459 000a 0E       		.uleb128 0xe
 4460 000b 55       		.uleb128 0x55
 4461 000c 06       		.uleb128 0x6
 4462 000d 11       		.uleb128 0x11
 4463 000e 01       		.uleb128 0x1
 4464 000f 52       		.uleb128 0x52
 4465 0010 01       		.uleb128 0x1
 4466 0011 10       		.uleb128 0x10
 4467 0012 06       		.uleb128 0x6
 4468 0013 00       		.byte	0
 4469 0014 00       		.byte	0
 4470 0015 02       		.uleb128 0x2
 4471 0016 24       		.uleb128 0x24
 4472 0017 00       		.byte	0
 4473 0018 0B       		.uleb128 0xb
 4474 0019 0B       		.uleb128 0xb
 4475 001a 3E       		.uleb128 0x3e
 4476 001b 0B       		.uleb128 0xb
 4477 001c 03       		.uleb128 0x3
 4478 001d 08       		.uleb128 0x8
 4479 001e 00       		.byte	0
 4480 001f 00       		.byte	0
 4481 0020 03       		.uleb128 0x3
 4482 0021 24       		.uleb128 0x24
 4483 0022 00       		.byte	0
 4484 0023 0B       		.uleb128 0xb
 4485 0024 0B       		.uleb128 0xb
 4486 0025 3E       		.uleb128 0x3e
 4487 0026 0B       		.uleb128 0xb
 4488 0027 03       		.uleb128 0x3
 4489 0028 0E       		.uleb128 0xe
 4490 0029 00       		.byte	0
 4491 002a 00       		.byte	0
 4492 002b 04       		.uleb128 0x4
 4493 002c 16       		.uleb128 0x16
 4494 002d 00       		.byte	0
 4495 002e 03       		.uleb128 0x3
 4496 002f 0E       		.uleb128 0xe
 4497 0030 3A       		.uleb128 0x3a
 4498 0031 0B       		.uleb128 0xb
 4499 0032 3B       		.uleb128 0x3b
 4500 0033 0B       		.uleb128 0xb
 4501 0034 39       		.uleb128 0x39
 4502 0035 0B       		.uleb128 0xb
 4503 0036 49       		.uleb128 0x49
 4504 0037 13       		.uleb128 0x13
 4505 0038 00       		.byte	0
 4506 0039 00       		.byte	0
 4507 003a 05       		.uleb128 0x5
 4508 003b 35       		.uleb128 0x35
 4509 003c 00       		.byte	0
 4510 003d 49       		.uleb128 0x49
ARM GAS  /tmp/ccxAy8dA.s 			page 90


 4511 003e 13       		.uleb128 0x13
 4512 003f 00       		.byte	0
 4513 0040 00       		.byte	0
 4514 0041 06       		.uleb128 0x6
 4515 0042 0F       		.uleb128 0xf
 4516 0043 00       		.byte	0
 4517 0044 0B       		.uleb128 0xb
 4518 0045 0B       		.uleb128 0xb
 4519 0046 00       		.byte	0
 4520 0047 00       		.byte	0
 4521 0048 07       		.uleb128 0x7
 4522 0049 0F       		.uleb128 0xf
 4523 004a 00       		.byte	0
 4524 004b 0B       		.uleb128 0xb
 4525 004c 0B       		.uleb128 0xb
 4526 004d 49       		.uleb128 0x49
 4527 004e 13       		.uleb128 0x13
 4528 004f 00       		.byte	0
 4529 0050 00       		.byte	0
 4530 0051 08       		.uleb128 0x8
 4531 0052 13       		.uleb128 0x13
 4532 0053 00       		.byte	0
 4533 0054 03       		.uleb128 0x3
 4534 0055 0E       		.uleb128 0xe
 4535 0056 3C       		.uleb128 0x3c
 4536 0057 0C       		.uleb128 0xc
 4537 0058 00       		.byte	0
 4538 0059 00       		.byte	0
 4539 005a 09       		.uleb128 0x9
 4540 005b 04       		.uleb128 0x4
 4541 005c 01       		.byte	0x1
 4542 005d 03       		.uleb128 0x3
 4543 005e 0E       		.uleb128 0xe
 4544 005f 3E       		.uleb128 0x3e
 4545 0060 0B       		.uleb128 0xb
 4546 0061 0B       		.uleb128 0xb
 4547 0062 0B       		.uleb128 0xb
 4548 0063 49       		.uleb128 0x49
 4549 0064 13       		.uleb128 0x13
 4550 0065 3A       		.uleb128 0x3a
 4551 0066 0B       		.uleb128 0xb
 4552 0067 3B       		.uleb128 0x3b
 4553 0068 0B       		.uleb128 0xb
 4554 0069 39       		.uleb128 0x39
 4555 006a 0B       		.uleb128 0xb
 4556 006b 01       		.uleb128 0x1
 4557 006c 13       		.uleb128 0x13
 4558 006d 00       		.byte	0
 4559 006e 00       		.byte	0
 4560 006f 0A       		.uleb128 0xa
 4561 0070 28       		.uleb128 0x28
 4562 0071 00       		.byte	0
 4563 0072 03       		.uleb128 0x3
 4564 0073 0E       		.uleb128 0xe
 4565 0074 1C       		.uleb128 0x1c
 4566 0075 0D       		.uleb128 0xd
 4567 0076 00       		.byte	0
ARM GAS  /tmp/ccxAy8dA.s 			page 91


 4568 0077 00       		.byte	0
 4569 0078 0B       		.uleb128 0xb
 4570 0079 28       		.uleb128 0x28
 4571 007a 00       		.byte	0
 4572 007b 03       		.uleb128 0x3
 4573 007c 0E       		.uleb128 0xe
 4574 007d 1C       		.uleb128 0x1c
 4575 007e 0B       		.uleb128 0xb
 4576 007f 00       		.byte	0
 4577 0080 00       		.byte	0
 4578 0081 0C       		.uleb128 0xc
 4579 0082 16       		.uleb128 0x16
 4580 0083 00       		.byte	0
 4581 0084 03       		.uleb128 0x3
 4582 0085 0E       		.uleb128 0xe
 4583 0086 3A       		.uleb128 0x3a
 4584 0087 0B       		.uleb128 0xb
 4585 0088 3B       		.uleb128 0x3b
 4586 0089 05       		.uleb128 0x5
 4587 008a 39       		.uleb128 0x39
 4588 008b 0B       		.uleb128 0xb
 4589 008c 49       		.uleb128 0x49
 4590 008d 13       		.uleb128 0x13
 4591 008e 00       		.byte	0
 4592 008f 00       		.byte	0
 4593 0090 0D       		.uleb128 0xd
 4594 0091 13       		.uleb128 0x13
 4595 0092 01       		.byte	0x1
 4596 0093 0B       		.uleb128 0xb
 4597 0094 05       		.uleb128 0x5
 4598 0095 3A       		.uleb128 0x3a
 4599 0096 0B       		.uleb128 0xb
 4600 0097 3B       		.uleb128 0x3b
 4601 0098 0B       		.uleb128 0xb
 4602 0099 39       		.uleb128 0x39
 4603 009a 0B       		.uleb128 0xb
 4604 009b 01       		.uleb128 0x1
 4605 009c 13       		.uleb128 0x13
 4606 009d 00       		.byte	0
 4607 009e 00       		.byte	0
 4608 009f 0E       		.uleb128 0xe
 4609 00a0 0D       		.uleb128 0xd
 4610 00a1 00       		.byte	0
 4611 00a2 03       		.uleb128 0x3
 4612 00a3 0E       		.uleb128 0xe
 4613 00a4 3A       		.uleb128 0x3a
 4614 00a5 0B       		.uleb128 0xb
 4615 00a6 3B       		.uleb128 0x3b
 4616 00a7 0B       		.uleb128 0xb
 4617 00a8 39       		.uleb128 0x39
 4618 00a9 0B       		.uleb128 0xb
 4619 00aa 49       		.uleb128 0x49
 4620 00ab 13       		.uleb128 0x13
 4621 00ac 38       		.uleb128 0x38
 4622 00ad 0A       		.uleb128 0xa
 4623 00ae 00       		.byte	0
 4624 00af 00       		.byte	0
ARM GAS  /tmp/ccxAy8dA.s 			page 92


 4625 00b0 0F       		.uleb128 0xf
 4626 00b1 0D       		.uleb128 0xd
 4627 00b2 00       		.byte	0
 4628 00b3 03       		.uleb128 0x3
 4629 00b4 08       		.uleb128 0x8
 4630 00b5 3A       		.uleb128 0x3a
 4631 00b6 0B       		.uleb128 0xb
 4632 00b7 3B       		.uleb128 0x3b
 4633 00b8 0B       		.uleb128 0xb
 4634 00b9 39       		.uleb128 0x39
 4635 00ba 0B       		.uleb128 0xb
 4636 00bb 49       		.uleb128 0x49
 4637 00bc 13       		.uleb128 0x13
 4638 00bd 38       		.uleb128 0x38
 4639 00be 0A       		.uleb128 0xa
 4640 00bf 00       		.byte	0
 4641 00c0 00       		.byte	0
 4642 00c1 10       		.uleb128 0x10
 4643 00c2 01       		.uleb128 0x1
 4644 00c3 01       		.byte	0x1
 4645 00c4 49       		.uleb128 0x49
 4646 00c5 13       		.uleb128 0x13
 4647 00c6 01       		.uleb128 0x1
 4648 00c7 13       		.uleb128 0x13
 4649 00c8 00       		.byte	0
 4650 00c9 00       		.byte	0
 4651 00ca 11       		.uleb128 0x11
 4652 00cb 21       		.uleb128 0x21
 4653 00cc 00       		.byte	0
 4654 00cd 49       		.uleb128 0x49
 4655 00ce 13       		.uleb128 0x13
 4656 00cf 2F       		.uleb128 0x2f
 4657 00d0 0B       		.uleb128 0xb
 4658 00d1 00       		.byte	0
 4659 00d2 00       		.byte	0
 4660 00d3 12       		.uleb128 0x12
 4661 00d4 21       		.uleb128 0x21
 4662 00d5 00       		.byte	0
 4663 00d6 49       		.uleb128 0x49
 4664 00d7 13       		.uleb128 0x13
 4665 00d8 2F       		.uleb128 0x2f
 4666 00d9 05       		.uleb128 0x5
 4667 00da 00       		.byte	0
 4668 00db 00       		.byte	0
 4669 00dc 13       		.uleb128 0x13
 4670 00dd 16       		.uleb128 0x16
 4671 00de 00       		.byte	0
 4672 00df 03       		.uleb128 0x3
 4673 00e0 08       		.uleb128 0x8
 4674 00e1 3A       		.uleb128 0x3a
 4675 00e2 0B       		.uleb128 0xb
 4676 00e3 3B       		.uleb128 0x3b
 4677 00e4 05       		.uleb128 0x5
 4678 00e5 39       		.uleb128 0x39
 4679 00e6 0B       		.uleb128 0xb
 4680 00e7 49       		.uleb128 0x49
 4681 00e8 13       		.uleb128 0x13
ARM GAS  /tmp/ccxAy8dA.s 			page 93


 4682 00e9 00       		.byte	0
 4683 00ea 00       		.byte	0
 4684 00eb 14       		.uleb128 0x14
 4685 00ec 04       		.uleb128 0x4
 4686 00ed 01       		.byte	0x1
 4687 00ee 3E       		.uleb128 0x3e
 4688 00ef 0B       		.uleb128 0xb
 4689 00f0 0B       		.uleb128 0xb
 4690 00f1 0B       		.uleb128 0xb
 4691 00f2 49       		.uleb128 0x49
 4692 00f3 13       		.uleb128 0x13
 4693 00f4 3A       		.uleb128 0x3a
 4694 00f5 0B       		.uleb128 0xb
 4695 00f6 3B       		.uleb128 0x3b
 4696 00f7 05       		.uleb128 0x5
 4697 00f8 39       		.uleb128 0x39
 4698 00f9 0B       		.uleb128 0xb
 4699 00fa 01       		.uleb128 0x1
 4700 00fb 13       		.uleb128 0x13
 4701 00fc 00       		.byte	0
 4702 00fd 00       		.byte	0
 4703 00fe 15       		.uleb128 0x15
 4704 00ff 28       		.uleb128 0x28
 4705 0100 00       		.byte	0
 4706 0101 03       		.uleb128 0x3
 4707 0102 08       		.uleb128 0x8
 4708 0103 1C       		.uleb128 0x1c
 4709 0104 0B       		.uleb128 0xb
 4710 0105 00       		.byte	0
 4711 0106 00       		.byte	0
 4712 0107 16       		.uleb128 0x16
 4713 0108 13       		.uleb128 0x13
 4714 0109 01       		.byte	0x1
 4715 010a 0B       		.uleb128 0xb
 4716 010b 0B       		.uleb128 0xb
 4717 010c 3A       		.uleb128 0x3a
 4718 010d 0B       		.uleb128 0xb
 4719 010e 3B       		.uleb128 0x3b
 4720 010f 05       		.uleb128 0x5
 4721 0110 39       		.uleb128 0x39
 4722 0111 0B       		.uleb128 0xb
 4723 0112 01       		.uleb128 0x1
 4724 0113 13       		.uleb128 0x13
 4725 0114 00       		.byte	0
 4726 0115 00       		.byte	0
 4727 0116 17       		.uleb128 0x17
 4728 0117 0D       		.uleb128 0xd
 4729 0118 00       		.byte	0
 4730 0119 03       		.uleb128 0x3
 4731 011a 08       		.uleb128 0x8
 4732 011b 3A       		.uleb128 0x3a
 4733 011c 0B       		.uleb128 0xb
 4734 011d 3B       		.uleb128 0x3b
 4735 011e 05       		.uleb128 0x5
 4736 011f 39       		.uleb128 0x39
 4737 0120 0B       		.uleb128 0xb
 4738 0121 49       		.uleb128 0x49
ARM GAS  /tmp/ccxAy8dA.s 			page 94


 4739 0122 13       		.uleb128 0x13
 4740 0123 38       		.uleb128 0x38
 4741 0124 0A       		.uleb128 0xa
 4742 0125 00       		.byte	0
 4743 0126 00       		.byte	0
 4744 0127 18       		.uleb128 0x18
 4745 0128 0D       		.uleb128 0xd
 4746 0129 00       		.byte	0
 4747 012a 03       		.uleb128 0x3
 4748 012b 0E       		.uleb128 0xe
 4749 012c 3A       		.uleb128 0x3a
 4750 012d 0B       		.uleb128 0xb
 4751 012e 3B       		.uleb128 0x3b
 4752 012f 05       		.uleb128 0x5
 4753 0130 39       		.uleb128 0x39
 4754 0131 0B       		.uleb128 0xb
 4755 0132 49       		.uleb128 0x49
 4756 0133 13       		.uleb128 0x13
 4757 0134 38       		.uleb128 0x38
 4758 0135 0A       		.uleb128 0xa
 4759 0136 00       		.byte	0
 4760 0137 00       		.byte	0
 4761 0138 19       		.uleb128 0x19
 4762 0139 04       		.uleb128 0x4
 4763 013a 01       		.byte	0x1
 4764 013b 3E       		.uleb128 0x3e
 4765 013c 0B       		.uleb128 0xb
 4766 013d 0B       		.uleb128 0xb
 4767 013e 0B       		.uleb128 0xb
 4768 013f 49       		.uleb128 0x49
 4769 0140 13       		.uleb128 0x13
 4770 0141 3A       		.uleb128 0x3a
 4771 0142 0B       		.uleb128 0xb
 4772 0143 3B       		.uleb128 0x3b
 4773 0144 0B       		.uleb128 0xb
 4774 0145 39       		.uleb128 0x39
 4775 0146 0B       		.uleb128 0xb
 4776 0147 01       		.uleb128 0x1
 4777 0148 13       		.uleb128 0x13
 4778 0149 00       		.byte	0
 4779 014a 00       		.byte	0
 4780 014b 1A       		.uleb128 0x1a
 4781 014c 13       		.uleb128 0x13
 4782 014d 01       		.byte	0x1
 4783 014e 0B       		.uleb128 0xb
 4784 014f 0B       		.uleb128 0xb
 4785 0150 3A       		.uleb128 0x3a
 4786 0151 0B       		.uleb128 0xb
 4787 0152 3B       		.uleb128 0x3b
 4788 0153 0B       		.uleb128 0xb
 4789 0154 39       		.uleb128 0x39
 4790 0155 0B       		.uleb128 0xb
 4791 0156 01       		.uleb128 0x1
 4792 0157 13       		.uleb128 0x13
 4793 0158 00       		.byte	0
 4794 0159 00       		.byte	0
 4795 015a 1B       		.uleb128 0x1b
ARM GAS  /tmp/ccxAy8dA.s 			page 95


 4796 015b 34       		.uleb128 0x34
 4797 015c 00       		.byte	0
 4798 015d 03       		.uleb128 0x3
 4799 015e 0E       		.uleb128 0xe
 4800 015f 3A       		.uleb128 0x3a
 4801 0160 0B       		.uleb128 0xb
 4802 0161 3B       		.uleb128 0x3b
 4803 0162 0B       		.uleb128 0xb
 4804 0163 39       		.uleb128 0x39
 4805 0164 0B       		.uleb128 0xb
 4806 0165 49       		.uleb128 0x49
 4807 0166 13       		.uleb128 0x13
 4808 0167 02       		.uleb128 0x2
 4809 0168 0A       		.uleb128 0xa
 4810 0169 00       		.byte	0
 4811 016a 00       		.byte	0
 4812 016b 1C       		.uleb128 0x1c
 4813 016c 2E       		.uleb128 0x2e
 4814 016d 01       		.byte	0x1
 4815 016e 3F       		.uleb128 0x3f
 4816 016f 0C       		.uleb128 0xc
 4817 0170 03       		.uleb128 0x3
 4818 0171 0E       		.uleb128 0xe
 4819 0172 3A       		.uleb128 0x3a
 4820 0173 0B       		.uleb128 0xb
 4821 0174 3B       		.uleb128 0x3b
 4822 0175 0B       		.uleb128 0xb
 4823 0176 39       		.uleb128 0x39
 4824 0177 0B       		.uleb128 0xb
 4825 0178 27       		.uleb128 0x27
 4826 0179 0C       		.uleb128 0xc
 4827 017a 49       		.uleb128 0x49
 4828 017b 13       		.uleb128 0x13
 4829 017c 11       		.uleb128 0x11
 4830 017d 01       		.uleb128 0x1
 4831 017e 12       		.uleb128 0x12
 4832 017f 01       		.uleb128 0x1
 4833 0180 40       		.uleb128 0x40
 4834 0181 06       		.uleb128 0x6
 4835 0182 9742     		.uleb128 0x2117
 4836 0184 0C       		.uleb128 0xc
 4837 0185 01       		.uleb128 0x1
 4838 0186 13       		.uleb128 0x13
 4839 0187 00       		.byte	0
 4840 0188 00       		.byte	0
 4841 0189 1D       		.uleb128 0x1d
 4842 018a 898201   		.uleb128 0x4109
 4843 018d 01       		.byte	0x1
 4844 018e 11       		.uleb128 0x11
 4845 018f 01       		.uleb128 0x1
 4846 0190 31       		.uleb128 0x31
 4847 0191 13       		.uleb128 0x13
 4848 0192 01       		.uleb128 0x1
 4849 0193 13       		.uleb128 0x13
 4850 0194 00       		.byte	0
 4851 0195 00       		.byte	0
 4852 0196 1E       		.uleb128 0x1e
ARM GAS  /tmp/ccxAy8dA.s 			page 96


 4853 0197 8A8201   		.uleb128 0x410a
 4854 019a 00       		.byte	0
 4855 019b 02       		.uleb128 0x2
 4856 019c 0A       		.uleb128 0xa
 4857 019d 9142     		.uleb128 0x2111
 4858 019f 0A       		.uleb128 0xa
 4859 01a0 00       		.byte	0
 4860 01a1 00       		.byte	0
 4861 01a2 1F       		.uleb128 0x1f
 4862 01a3 898201   		.uleb128 0x4109
 4863 01a6 00       		.byte	0
 4864 01a7 11       		.uleb128 0x11
 4865 01a8 01       		.uleb128 0x1
 4866 01a9 31       		.uleb128 0x31
 4867 01aa 13       		.uleb128 0x13
 4868 01ab 00       		.byte	0
 4869 01ac 00       		.byte	0
 4870 01ad 20       		.uleb128 0x20
 4871 01ae 2E       		.uleb128 0x2e
 4872 01af 01       		.byte	0x1
 4873 01b0 3F       		.uleb128 0x3f
 4874 01b1 0C       		.uleb128 0xc
 4875 01b2 03       		.uleb128 0x3
 4876 01b3 0E       		.uleb128 0xe
 4877 01b4 3A       		.uleb128 0x3a
 4878 01b5 0B       		.uleb128 0xb
 4879 01b6 3B       		.uleb128 0x3b
 4880 01b7 0B       		.uleb128 0xb
 4881 01b8 39       		.uleb128 0x39
 4882 01b9 0B       		.uleb128 0xb
 4883 01ba 27       		.uleb128 0x27
 4884 01bb 0C       		.uleb128 0xc
 4885 01bc 11       		.uleb128 0x11
 4886 01bd 01       		.uleb128 0x1
 4887 01be 12       		.uleb128 0x12
 4888 01bf 01       		.uleb128 0x1
 4889 01c0 40       		.uleb128 0x40
 4890 01c1 06       		.uleb128 0x6
 4891 01c2 9742     		.uleb128 0x2117
 4892 01c4 0C       		.uleb128 0xc
 4893 01c5 01       		.uleb128 0x1
 4894 01c6 13       		.uleb128 0x13
 4895 01c7 00       		.byte	0
 4896 01c8 00       		.byte	0
 4897 01c9 21       		.uleb128 0x21
 4898 01ca 05       		.uleb128 0x5
 4899 01cb 00       		.byte	0
 4900 01cc 03       		.uleb128 0x3
 4901 01cd 0E       		.uleb128 0xe
 4902 01ce 3A       		.uleb128 0x3a
 4903 01cf 0B       		.uleb128 0xb
 4904 01d0 3B       		.uleb128 0x3b
 4905 01d1 0B       		.uleb128 0xb
 4906 01d2 39       		.uleb128 0x39
 4907 01d3 0B       		.uleb128 0xb
 4908 01d4 49       		.uleb128 0x49
 4909 01d5 13       		.uleb128 0x13
ARM GAS  /tmp/ccxAy8dA.s 			page 97


 4910 01d6 02       		.uleb128 0x2
 4911 01d7 06       		.uleb128 0x6
 4912 01d8 B742     		.uleb128 0x2137
 4913 01da 06       		.uleb128 0x6
 4914 01db 00       		.byte	0
 4915 01dc 00       		.byte	0
 4916 01dd 22       		.uleb128 0x22
 4917 01de 34       		.uleb128 0x34
 4918 01df 00       		.byte	0
 4919 01e0 03       		.uleb128 0x3
 4920 01e1 08       		.uleb128 0x8
 4921 01e2 3A       		.uleb128 0x3a
 4922 01e3 0B       		.uleb128 0xb
 4923 01e4 3B       		.uleb128 0x3b
 4924 01e5 0B       		.uleb128 0xb
 4925 01e6 39       		.uleb128 0x39
 4926 01e7 0B       		.uleb128 0xb
 4927 01e8 49       		.uleb128 0x49
 4928 01e9 13       		.uleb128 0x13
 4929 01ea 02       		.uleb128 0x2
 4930 01eb 06       		.uleb128 0x6
 4931 01ec B742     		.uleb128 0x2137
 4932 01ee 06       		.uleb128 0x6
 4933 01ef 00       		.byte	0
 4934 01f0 00       		.byte	0
 4935 01f1 23       		.uleb128 0x23
 4936 01f2 34       		.uleb128 0x34
 4937 01f3 00       		.byte	0
 4938 01f4 03       		.uleb128 0x3
 4939 01f5 08       		.uleb128 0x8
 4940 01f6 3A       		.uleb128 0x3a
 4941 01f7 0B       		.uleb128 0xb
 4942 01f8 3B       		.uleb128 0x3b
 4943 01f9 0B       		.uleb128 0xb
 4944 01fa 39       		.uleb128 0x39
 4945 01fb 0B       		.uleb128 0xb
 4946 01fc 49       		.uleb128 0x49
 4947 01fd 13       		.uleb128 0x13
 4948 01fe 02       		.uleb128 0x2
 4949 01ff 0A       		.uleb128 0xa
 4950 0200 00       		.byte	0
 4951 0201 00       		.byte	0
 4952 0202 24       		.uleb128 0x24
 4953 0203 898201   		.uleb128 0x4109
 4954 0206 01       		.byte	0x1
 4955 0207 11       		.uleb128 0x11
 4956 0208 01       		.uleb128 0x1
 4957 0209 31       		.uleb128 0x31
 4958 020a 13       		.uleb128 0x13
 4959 020b 00       		.byte	0
 4960 020c 00       		.byte	0
 4961 020d 25       		.uleb128 0x25
 4962 020e 2E       		.uleb128 0x2e
 4963 020f 01       		.byte	0x1
 4964 0210 03       		.uleb128 0x3
 4965 0211 0E       		.uleb128 0xe
 4966 0212 3A       		.uleb128 0x3a
ARM GAS  /tmp/ccxAy8dA.s 			page 98


 4967 0213 0B       		.uleb128 0xb
 4968 0214 3B       		.uleb128 0x3b
 4969 0215 0B       		.uleb128 0xb
 4970 0216 39       		.uleb128 0x39
 4971 0217 0B       		.uleb128 0xb
 4972 0218 27       		.uleb128 0x27
 4973 0219 0C       		.uleb128 0xc
 4974 021a 11       		.uleb128 0x11
 4975 021b 01       		.uleb128 0x1
 4976 021c 12       		.uleb128 0x12
 4977 021d 01       		.uleb128 0x1
 4978 021e 40       		.uleb128 0x40
 4979 021f 06       		.uleb128 0x6
 4980 0220 9742     		.uleb128 0x2117
 4981 0222 0C       		.uleb128 0xc
 4982 0223 01       		.uleb128 0x1
 4983 0224 13       		.uleb128 0x13
 4984 0225 00       		.byte	0
 4985 0226 00       		.byte	0
 4986 0227 26       		.uleb128 0x26
 4987 0228 0B       		.uleb128 0xb
 4988 0229 01       		.byte	0x1
 4989 022a 11       		.uleb128 0x11
 4990 022b 01       		.uleb128 0x1
 4991 022c 12       		.uleb128 0x12
 4992 022d 01       		.uleb128 0x1
 4993 022e 01       		.uleb128 0x1
 4994 022f 13       		.uleb128 0x13
 4995 0230 00       		.byte	0
 4996 0231 00       		.byte	0
 4997 0232 27       		.uleb128 0x27
 4998 0233 2E       		.uleb128 0x2e
 4999 0234 01       		.byte	0x1
 5000 0235 3F       		.uleb128 0x3f
 5001 0236 0C       		.uleb128 0xc
 5002 0237 03       		.uleb128 0x3
 5003 0238 0E       		.uleb128 0xe
 5004 0239 3A       		.uleb128 0x3a
 5005 023a 0B       		.uleb128 0xb
 5006 023b 3B       		.uleb128 0x3b
 5007 023c 0B       		.uleb128 0xb
 5008 023d 39       		.uleb128 0x39
 5009 023e 0B       		.uleb128 0xb
 5010 023f 27       		.uleb128 0x27
 5011 0240 0C       		.uleb128 0xc
 5012 0241 11       		.uleb128 0x11
 5013 0242 01       		.uleb128 0x1
 5014 0243 12       		.uleb128 0x12
 5015 0244 01       		.uleb128 0x1
 5016 0245 40       		.uleb128 0x40
 5017 0246 0A       		.uleb128 0xa
 5018 0247 9742     		.uleb128 0x2117
 5019 0249 0C       		.uleb128 0xc
 5020 024a 01       		.uleb128 0x1
 5021 024b 13       		.uleb128 0x13
 5022 024c 00       		.byte	0
 5023 024d 00       		.byte	0
ARM GAS  /tmp/ccxAy8dA.s 			page 99


 5024 024e 28       		.uleb128 0x28
 5025 024f 2E       		.uleb128 0x2e
 5026 0250 00       		.byte	0
 5027 0251 3F       		.uleb128 0x3f
 5028 0252 0C       		.uleb128 0xc
 5029 0253 03       		.uleb128 0x3
 5030 0254 0E       		.uleb128 0xe
 5031 0255 3A       		.uleb128 0x3a
 5032 0256 0B       		.uleb128 0xb
 5033 0257 3B       		.uleb128 0x3b
 5034 0258 0B       		.uleb128 0xb
 5035 0259 39       		.uleb128 0x39
 5036 025a 0B       		.uleb128 0xb
 5037 025b 27       		.uleb128 0x27
 5038 025c 0C       		.uleb128 0xc
 5039 025d 11       		.uleb128 0x11
 5040 025e 01       		.uleb128 0x1
 5041 025f 12       		.uleb128 0x12
 5042 0260 01       		.uleb128 0x1
 5043 0261 40       		.uleb128 0x40
 5044 0262 0A       		.uleb128 0xa
 5045 0263 9742     		.uleb128 0x2117
 5046 0265 0C       		.uleb128 0xc
 5047 0266 00       		.byte	0
 5048 0267 00       		.byte	0
 5049 0268 29       		.uleb128 0x29
 5050 0269 05       		.uleb128 0x5
 5051 026a 00       		.byte	0
 5052 026b 03       		.uleb128 0x3
 5053 026c 08       		.uleb128 0x8
 5054 026d 3A       		.uleb128 0x3a
 5055 026e 0B       		.uleb128 0xb
 5056 026f 3B       		.uleb128 0x3b
 5057 0270 0B       		.uleb128 0xb
 5058 0271 39       		.uleb128 0x39
 5059 0272 0B       		.uleb128 0xb
 5060 0273 49       		.uleb128 0x49
 5061 0274 13       		.uleb128 0x13
 5062 0275 02       		.uleb128 0x2
 5063 0276 0A       		.uleb128 0xa
 5064 0277 00       		.byte	0
 5065 0278 00       		.byte	0
 5066 0279 2A       		.uleb128 0x2a
 5067 027a 2E       		.uleb128 0x2e
 5068 027b 00       		.byte	0
 5069 027c 3F       		.uleb128 0x3f
 5070 027d 0C       		.uleb128 0xc
 5071 027e 03       		.uleb128 0x3
 5072 027f 0E       		.uleb128 0xe
 5073 0280 3A       		.uleb128 0x3a
 5074 0281 0B       		.uleb128 0xb
 5075 0282 3B       		.uleb128 0x3b
 5076 0283 0B       		.uleb128 0xb
 5077 0284 39       		.uleb128 0x39
 5078 0285 0B       		.uleb128 0xb
 5079 0286 11       		.uleb128 0x11
 5080 0287 01       		.uleb128 0x1
ARM GAS  /tmp/ccxAy8dA.s 			page 100


 5081 0288 12       		.uleb128 0x12
 5082 0289 01       		.uleb128 0x1
 5083 028a 40       		.uleb128 0x40
 5084 028b 0A       		.uleb128 0xa
 5085 028c 9742     		.uleb128 0x2117
 5086 028e 0C       		.uleb128 0xc
 5087 028f 00       		.byte	0
 5088 0290 00       		.byte	0
 5089 0291 2B       		.uleb128 0x2b
 5090 0292 2E       		.uleb128 0x2e
 5091 0293 00       		.byte	0
 5092 0294 3F       		.uleb128 0x3f
 5093 0295 0C       		.uleb128 0xc
 5094 0296 3C       		.uleb128 0x3c
 5095 0297 0C       		.uleb128 0xc
 5096 0298 8740     		.uleb128 0x2007
 5097 029a 0E       		.uleb128 0xe
 5098 029b 03       		.uleb128 0x3
 5099 029c 0E       		.uleb128 0xe
 5100 029d 3A       		.uleb128 0x3a
 5101 029e 0B       		.uleb128 0xb
 5102 029f 3B       		.uleb128 0x3b
 5103 02a0 05       		.uleb128 0x5
 5104 02a1 39       		.uleb128 0x39
 5105 02a2 0B       		.uleb128 0xb
 5106 02a3 00       		.byte	0
 5107 02a4 00       		.byte	0
 5108 02a5 2C       		.uleb128 0x2c
 5109 02a6 2E       		.uleb128 0x2e
 5110 02a7 00       		.byte	0
 5111 02a8 3F       		.uleb128 0x3f
 5112 02a9 0C       		.uleb128 0xc
 5113 02aa 3C       		.uleb128 0x3c
 5114 02ab 0C       		.uleb128 0xc
 5115 02ac 8740     		.uleb128 0x2007
 5116 02ae 0E       		.uleb128 0xe
 5117 02af 03       		.uleb128 0x3
 5118 02b0 0E       		.uleb128 0xe
 5119 02b1 3A       		.uleb128 0x3a
 5120 02b2 0B       		.uleb128 0xb
 5121 02b3 3B       		.uleb128 0x3b
 5122 02b4 0B       		.uleb128 0xb
 5123 02b5 39       		.uleb128 0x39
 5124 02b6 0B       		.uleb128 0xb
 5125 02b7 00       		.byte	0
 5126 02b8 00       		.byte	0
 5127 02b9 00       		.byte	0
 5128              		.section	.debug_loc,"",%progbits
 5129              	.Ldebug_loc0:
 5130              	.LLST17:
 5131 0000 00000000 		.4byte	.LFB48
 5132 0004 02000000 		.4byte	.LCFI16
 5133 0008 0200     		.2byte	0x2
 5134 000a 7D       		.byte	0x7d
 5135 000b 00       		.sleb128 0
 5136 000c 02000000 		.4byte	.LCFI16
 5137 0010 70000000 		.4byte	.LFE48
ARM GAS  /tmp/ccxAy8dA.s 			page 101


 5138 0014 0200     		.2byte	0x2
 5139 0016 7D       		.byte	0x7d
 5140 0017 10       		.sleb128 16
 5141 0018 00000000 		.4byte	0
 5142 001c 00000000 		.4byte	0
 5143              	.LLST14:
 5144 0020 F4030000 		.4byte	.LFB46
 5145 0024 F6030000 		.4byte	.LCFI14
 5146 0028 0200     		.2byte	0x2
 5147 002a 7D       		.byte	0x7d
 5148 002b 00       		.sleb128 0
 5149 002c F6030000 		.4byte	.LCFI14
 5150 0030 F8030000 		.4byte	.LCFI15
 5151 0034 0200     		.2byte	0x2
 5152 0036 7D       		.byte	0x7d
 5153 0037 0C       		.sleb128 12
 5154 0038 F8030000 		.4byte	.LCFI15
 5155 003c 98040000 		.4byte	.LFE46
 5156 0040 0200     		.2byte	0x2
 5157 0042 7D       		.byte	0x7d
 5158 0043 30       		.sleb128 48
 5159 0044 00000000 		.4byte	0
 5160 0048 00000000 		.4byte	0
 5161              	.LVUS15:
 5162 004c 00       		.uleb128 0
 5163 004d 00       		.uleb128 .LVU296
 5164 004e 00       		.uleb128 .LVU296
 5165 004f 00       		.uleb128 0
 5166              	.LLST15:
 5167 0050 F4030000 		.4byte	.LVL45
 5168 0054 FB030000 		.4byte	.LVL46-1
 5169 0058 0100     		.2byte	0x1
 5170 005a 50       		.byte	0x50
 5171 005b FB030000 		.4byte	.LVL46-1
 5172 005f 98040000 		.4byte	.LFE46
 5173 0063 0400     		.2byte	0x4
 5174 0065 F3       		.byte	0xf3
 5175 0066 01       		.uleb128 0x1
 5176 0067 50       		.byte	0x50
 5177 0068 9F       		.byte	0x9f
 5178 0069 00000000 		.4byte	0
 5179 006d 00000000 		.4byte	0
 5180              	.LVUS16:
 5181 0071 01       		.uleb128 .LVU302
 5182 0072 02       		.uleb128 .LVU303
 5183 0073 02       		.uleb128 .LVU303
 5184 0074 00       		.uleb128 0
 5185              	.LLST16:
 5186 0075 0A040000 		.4byte	.LVL48
 5187 0079 0A040000 		.4byte	.LVL48
 5188 007d 0200     		.2byte	0x2
 5189 007f 30       		.byte	0x30
 5190 0080 9F       		.byte	0x9f
 5191 0081 0A040000 		.4byte	.LVL48
 5192 0085 98040000 		.4byte	.LFE46
 5193 0089 0200     		.2byte	0x2
 5194 008b 31       		.byte	0x31
ARM GAS  /tmp/ccxAy8dA.s 			page 102


 5195 008c 9F       		.byte	0x9f
 5196 008d 00000000 		.4byte	0
 5197 0091 00000000 		.4byte	0
 5198              	.LLST0:
 5199 0095 00000000 		.4byte	.LFB45
 5200 0099 04000000 		.4byte	.LCFI0
 5201 009d 0200     		.2byte	0x2
 5202 009f 7D       		.byte	0x7d
 5203 00a0 00       		.sleb128 0
 5204 00a1 04000000 		.4byte	.LCFI0
 5205 00a5 30000000 		.4byte	.LFE45
 5206 00a9 0200     		.2byte	0x2
 5207 00ab 7D       		.byte	0x7d
 5208 00ac 08       		.sleb128 8
 5209 00ad 00000000 		.4byte	0
 5210 00b1 00000000 		.4byte	0
 5211              	.LVUS1:
 5212 00b5 00       		.uleb128 0
 5213 00b6 00       		.uleb128 .LVU9
 5214 00b7 00       		.uleb128 .LVU9
 5215 00b8 00       		.uleb128 0
 5216              	.LLST1:
 5217 00b9 00000000 		.4byte	.LVL0
 5218 00bd 16000000 		.4byte	.LVL1
 5219 00c1 0100     		.2byte	0x1
 5220 00c3 50       		.byte	0x50
 5221 00c4 16000000 		.4byte	.LVL1
 5222 00c8 30000000 		.4byte	.LFE45
 5223 00cc 0400     		.2byte	0x4
 5224 00ce F3       		.byte	0xf3
 5225 00cf 01       		.uleb128 0x1
 5226 00d0 50       		.byte	0x50
 5227 00d1 9F       		.byte	0x9f
 5228 00d2 00000000 		.4byte	0
 5229 00d6 00000000 		.4byte	0
 5230              	.LLST2:
 5231 00da 30000000 		.4byte	.LFB44
 5232 00de 32000000 		.4byte	.LCFI1
 5233 00e2 0200     		.2byte	0x2
 5234 00e4 7D       		.byte	0x7d
 5235 00e5 00       		.sleb128 0
 5236 00e6 32000000 		.4byte	.LCFI1
 5237 00ea E8000000 		.4byte	.LFE44
 5238 00ee 0200     		.2byte	0x2
 5239 00f0 7D       		.byte	0x7d
 5240 00f1 10       		.sleb128 16
 5241 00f2 00000000 		.4byte	0
 5242 00f6 00000000 		.4byte	0
 5243              	.LVUS3:
 5244 00fa 00       		.uleb128 0
 5245 00fb 00       		.uleb128 .LVU32
 5246 00fc 00       		.uleb128 .LVU32
 5247 00fd 00       		.uleb128 0
 5248              	.LLST3:
 5249 00fe 30000000 		.4byte	.LVL3
 5250 0102 7F000000 		.4byte	.LVL4-1
 5251 0106 0100     		.2byte	0x1
ARM GAS  /tmp/ccxAy8dA.s 			page 103


 5252 0108 50       		.byte	0x50
 5253 0109 7F000000 		.4byte	.LVL4-1
 5254 010d E8000000 		.4byte	.LFE44
 5255 0111 0400     		.2byte	0x4
 5256 0113 F3       		.byte	0xf3
 5257 0114 01       		.uleb128 0x1
 5258 0115 50       		.byte	0x50
 5259 0116 9F       		.byte	0x9f
 5260 0117 00000000 		.4byte	0
 5261 011b 00000000 		.4byte	0
 5262              	.LLST11:
 5263 011f 6C030000 		.4byte	.LFB43
 5264 0123 70030000 		.4byte	.LCFI11
 5265 0127 0200     		.2byte	0x2
 5266 0129 7D       		.byte	0x7d
 5267 012a 00       		.sleb128 0
 5268 012b 70030000 		.4byte	.LCFI11
 5269 012f E4030000 		.4byte	.LCFI12
 5270 0133 0200     		.2byte	0x2
 5271 0135 7D       		.byte	0x7d
 5272 0136 18       		.sleb128 24
 5273 0137 E4030000 		.4byte	.LCFI12
 5274 013b E6030000 		.4byte	.LCFI13
 5275 013f 0200     		.2byte	0x2
 5276 0141 7D       		.byte	0x7d
 5277 0142 10       		.sleb128 16
 5278 0143 E6030000 		.4byte	.LCFI13
 5279 0147 F4030000 		.4byte	.LFE43
 5280 014b 0200     		.2byte	0x2
 5281 014d 7D       		.byte	0x7d
 5282 014e 18       		.sleb128 24
 5283 014f 00000000 		.4byte	0
 5284 0153 00000000 		.4byte	0
 5285              	.LVUS12:
 5286 0157 03       		.uleb128 .LVU250
 5287 0158 01       		.uleb128 .LVU256
 5288              	.LLST12:
 5289 0159 6C030000 		.4byte	.LVL35
 5290 015d 78030000 		.4byte	.LVL36
 5291 0161 0200     		.2byte	0x2
 5292 0163 30       		.byte	0x30
 5293 0164 9F       		.byte	0x9f
 5294 0165 00000000 		.4byte	0
 5295 0169 00000000 		.4byte	0
 5296              	.LVUS13:
 5297 016d 00       		.uleb128 .LVU262
 5298 016e 01       		.uleb128 .LVU272
 5299 016f 01       		.uleb128 .LVU272
 5300 0170 00       		.uleb128 .LVU274
 5301 0171 00       		.uleb128 .LVU274
 5302 0172 00       		.uleb128 .LVU289
 5303              	.LLST13:
 5304 0173 96030000 		.4byte	.LVL39
 5305 0177 B6030000 		.4byte	.LVL41
 5306 017b 0100     		.2byte	0x1
 5307 017d 55       		.byte	0x55
 5308 017e B6030000 		.4byte	.LVL41
ARM GAS  /tmp/ccxAy8dA.s 			page 104


 5309 0182 B8030000 		.4byte	.LVL42
 5310 0186 0300     		.2byte	0x3
 5311 0188 74       		.byte	0x74
 5312 0189 01       		.sleb128 1
 5313 018a 9F       		.byte	0x9f
 5314 018b B8030000 		.4byte	.LVL42
 5315 018f E6030000 		.4byte	.LVL43
 5316 0193 0300     		.2byte	0x3
 5317 0195 75       		.byte	0x75
 5318 0196 01       		.sleb128 1
 5319 0197 9F       		.byte	0x9f
 5320 0198 00000000 		.4byte	0
 5321 019c 00000000 		.4byte	0
 5322              	.LLST10:
 5323 01a0 0C030000 		.4byte	.LFB42
 5324 01a4 0E030000 		.4byte	.LCFI9
 5325 01a8 0200     		.2byte	0x2
 5326 01aa 7D       		.byte	0x7d
 5327 01ab 00       		.sleb128 0
 5328 01ac 0E030000 		.4byte	.LCFI9
 5329 01b0 60030000 		.4byte	.LCFI10
 5330 01b4 0200     		.2byte	0x2
 5331 01b6 7D       		.byte	0x7d
 5332 01b7 18       		.sleb128 24
 5333 01b8 60030000 		.4byte	.LCFI10
 5334 01bc 6C030000 		.4byte	.LFE42
 5335 01c0 0200     		.2byte	0x2
 5336 01c2 7D       		.byte	0x7d
 5337 01c3 0C       		.sleb128 12
 5338 01c4 00000000 		.4byte	0
 5339 01c8 00000000 		.4byte	0
 5340              	.LLST8:
 5341 01cc E4020000 		.4byte	.LFB41
 5342 01d0 E6020000 		.4byte	.LCFI8
 5343 01d4 0200     		.2byte	0x2
 5344 01d6 7D       		.byte	0x7d
 5345 01d7 00       		.sleb128 0
 5346 01d8 E6020000 		.4byte	.LCFI8
 5347 01dc 0C030000 		.4byte	.LFE41
 5348 01e0 0200     		.2byte	0x2
 5349 01e2 7D       		.byte	0x7d
 5350 01e3 10       		.sleb128 16
 5351 01e4 00000000 		.4byte	0
 5352 01e8 00000000 		.4byte	0
 5353              	.LVUS9:
 5354 01ec 00       		.uleb128 0
 5355 01ed 00       		.uleb128 .LVU208
 5356 01ee 00       		.uleb128 .LVU208
 5357 01ef 00       		.uleb128 .LVU210
 5358 01f0 00       		.uleb128 .LVU210
 5359 01f1 01       		.uleb128 .LVU213
 5360 01f2 01       		.uleb128 .LVU213
 5361 01f3 00       		.uleb128 0
 5362              	.LLST9:
 5363 01f4 E4020000 		.4byte	.LVL23
 5364 01f8 EA020000 		.4byte	.LVL24
 5365 01fc 0100     		.2byte	0x1
ARM GAS  /tmp/ccxAy8dA.s 			page 105


 5366 01fe 50       		.byte	0x50
 5367 01ff EA020000 		.4byte	.LVL24
 5368 0203 EE020000 		.4byte	.LVL25
 5369 0207 0300     		.2byte	0x3
 5370 0209 74       		.byte	0x74
 5371 020a 01       		.sleb128 1
 5372 020b 9F       		.byte	0x9f
 5373 020c EE020000 		.4byte	.LVL25
 5374 0210 F2020000 		.4byte	.LVL26
 5375 0214 0100     		.2byte	0x1
 5376 0216 54       		.byte	0x54
 5377 0217 F2020000 		.4byte	.LVL26
 5378 021b 0C030000 		.4byte	.LFE41
 5379 021f 0300     		.2byte	0x3
 5380 0221 74       		.byte	0x74
 5381 0222 01       		.sleb128 1
 5382 0223 9F       		.byte	0x9f
 5383 0224 00000000 		.4byte	0
 5384 0228 00000000 		.4byte	0
 5385              	.LLST7:
 5386 022c 74020000 		.4byte	.LFB40
 5387 0230 76020000 		.4byte	.LCFI5
 5388 0234 0200     		.2byte	0x2
 5389 0236 7D       		.byte	0x7d
 5390 0237 00       		.sleb128 0
 5391 0238 76020000 		.4byte	.LCFI5
 5392 023c 7A020000 		.4byte	.LCFI6
 5393 0240 0200     		.2byte	0x2
 5394 0242 7D       		.byte	0x7d
 5395 0243 08       		.sleb128 8
 5396 0244 7A020000 		.4byte	.LCFI6
 5397 0248 DE020000 		.4byte	.LCFI7
 5398 024c 0200     		.2byte	0x2
 5399 024e 7D       		.byte	0x7d
 5400 024f 20       		.sleb128 32
 5401 0250 DE020000 		.4byte	.LCFI7
 5402 0254 E4020000 		.4byte	.LFE40
 5403 0258 0200     		.2byte	0x2
 5404 025a 7D       		.byte	0x7d
 5405 025b 08       		.sleb128 8
 5406 025c 00000000 		.4byte	0
 5407 0260 00000000 		.4byte	0
 5408              	.LVUS6:
 5409 0264 00       		.uleb128 0
 5410 0265 00       		.uleb128 .LVU164
 5411 0266 00       		.uleb128 .LVU164
 5412 0267 00       		.uleb128 0
 5413              	.LLST6:
 5414 0268 58020000 		.4byte	.LVL16
 5415 026c 60020000 		.4byte	.LVL17
 5416 0270 0100     		.2byte	0x1
 5417 0272 50       		.byte	0x50
 5418 0273 60020000 		.4byte	.LVL17
 5419 0277 74020000 		.4byte	.LFE39
 5420 027b 0400     		.2byte	0x4
 5421 027d F3       		.byte	0xf3
 5422 027e 01       		.uleb128 0x1
ARM GAS  /tmp/ccxAy8dA.s 			page 106


 5423 027f 50       		.byte	0x50
 5424 0280 9F       		.byte	0x9f
 5425 0281 00000000 		.4byte	0
 5426 0285 00000000 		.4byte	0
 5427              	.LVUS5:
 5428 0289 00       		.uleb128 0
 5429 028a 00       		.uleb128 .LVU156
 5430 028b 00       		.uleb128 .LVU156
 5431 028c 00       		.uleb128 0
 5432              	.LLST5:
 5433 028d 40020000 		.4byte	.LVL14
 5434 0291 48020000 		.4byte	.LVL15
 5435 0295 0100     		.2byte	0x1
 5436 0297 50       		.byte	0x50
 5437 0298 48020000 		.4byte	.LVL15
 5438 029c 58020000 		.4byte	.LFE38
 5439 02a0 0400     		.2byte	0x4
 5440 02a2 F3       		.byte	0xf3
 5441 02a3 01       		.uleb128 0x1
 5442 02a4 50       		.byte	0x50
 5443 02a5 9F       		.byte	0x9f
 5444 02a6 00000000 		.4byte	0
 5445 02aa 00000000 		.4byte	0
 5446              	.LLST4:
 5447 02ae E8010000 		.4byte	.LFB36
 5448 02b2 EA010000 		.4byte	.LCFI2
 5449 02b6 0200     		.2byte	0x2
 5450 02b8 7D       		.byte	0x7d
 5451 02b9 00       		.sleb128 0
 5452 02ba EA010000 		.4byte	.LCFI2
 5453 02be F6010000 		.4byte	.LCFI3
 5454 02c2 0200     		.2byte	0x2
 5455 02c4 7D       		.byte	0x7d
 5456 02c5 08       		.sleb128 8
 5457 02c6 F6010000 		.4byte	.LCFI3
 5458 02ca F8010000 		.4byte	.LCFI4
 5459 02ce 0200     		.2byte	0x2
 5460 02d0 7D       		.byte	0x7d
 5461 02d1 00       		.sleb128 0
 5462 02d2 F8010000 		.4byte	.LCFI4
 5463 02d6 18020000 		.4byte	.LFE36
 5464 02da 0200     		.2byte	0x2
 5465 02dc 7D       		.byte	0x7d
 5466 02dd 08       		.sleb128 8
 5467 02de 00000000 		.4byte	0
 5468 02e2 00000000 		.4byte	0
 5469              		.section	.debug_aranges,"",%progbits
 5470 0000 24000000 		.4byte	0x24
 5471 0004 0200     		.2byte	0x2
 5472 0006 00000000 		.4byte	.Ldebug_info0
 5473 000a 04       		.byte	0x4
 5474 000b 00       		.byte	0
 5475 000c 0000     		.2byte	0
 5476 000e 0000     		.2byte	0
 5477 0010 00000000 		.4byte	.Ltext0
 5478 0014 98040000 		.4byte	.Letext0-.Ltext0
 5479 0018 00000000 		.4byte	.LFB48
ARM GAS  /tmp/ccxAy8dA.s 			page 107


 5480 001c 70000000 		.4byte	.LFE48-.LFB48
 5481 0020 00000000 		.4byte	0
 5482 0024 00000000 		.4byte	0
 5483              		.section	.debug_ranges,"",%progbits
 5484              	.Ldebug_ranges0:
 5485 0000 00000000 		.4byte	.Ltext0
 5486 0004 98040000 		.4byte	.Letext0
 5487 0008 00000000 		.4byte	.LFB48
 5488 000c 70000000 		.4byte	.LFE48
 5489 0010 00000000 		.4byte	0
 5490 0014 00000000 		.4byte	0
 5491              		.section	.debug_line,"",%progbits
 5492              	.Ldebug_line0:
 5493 0000 F4070000 		.section	.debug_str,"MS",%progbits,1
 5493      03003002 
 5493      00000201 
 5493      FB0E0D00 
 5493      01010101 
 5494              	.LASF75:
 5495 0000 52534552 		.ascii	"RSERVED1\000"
 5495      56454431 
 5495      00
 5496              	.LASF36:
 5497 0009 45585449 		.ascii	"EXTI2_IRQn\000"
 5497      325F4952 
 5497      516E00
 5498              	.LASF157:
 5499 0014 4750494F 		.ascii	"GPIO_Mode_IPU\000"
 5499      5F4D6F64 
 5499      655F4950 
 5499      5500
 5500              	.LASF215:
 5501 0022 55534152 		.ascii	"USART_SendData\000"
 5501      545F5365 
 5501      6E644461 
 5501      746100
 5502              	.LASF207:
 5503 0031 64697370 		.ascii	"disp_cmd\000"
 5503      5F636D64 
 5503      00
 5504              	.LASF94:
 5505 003a 53515231 		.ascii	"SQR1\000"
 5505      00
 5506              	.LASF95:
 5507 003f 53515232 		.ascii	"SQR2\000"
 5507      00
 5508              	.LASF96:
 5509 0044 53515233 		.ascii	"SQR3\000"
 5509      00
 5510              	.LASF196:
 5511 0049 656E6162 		.ascii	"enable_TIM3_delay\000"
 5511      6C655F54 
 5511      494D335F 
 5511      64656C61 
 5511      7900
 5512              	.LASF148:
 5513 005b 47545052 		.ascii	"GTPR\000"
ARM GAS  /tmp/ccxAy8dA.s 			page 108


 5513      00
 5514              	.LASF43:
 5515 0060 444D4131 		.ascii	"DMA1_Channel5_IRQn\000"
 5515      5F436861 
 5515      6E6E656C 
 5515      355F4952 
 5515      516E00
 5516              	.LASF16:
 5517 0073 42617365 		.ascii	"BaseType_t\000"
 5517      54797065 
 5517      5F7400
 5518              	.LASF195:
 5519 007e 44656C61 		.ascii	"Delay\000"
 5519      7900
 5520              	.LASF32:
 5521 0084 464C4153 		.ascii	"FLASH_IRQn\000"
 5521      485F4952 
 5521      516E00
 5522              	.LASF224:
 5523 008f 41444331 		.ascii	"ADC1_configure\000"
 5523      5F636F6E 
 5523      66696775 
 5523      726500
 5524              	.LASF182:
 5525 009e 5245544F 		.ascii	"RETORNO\000"
 5525      524E4F00 
 5526              	.LASF56:
 5527 00a6 54494D32 		.ascii	"TIM2_IRQn\000"
 5527      5F495251 
 5527      6E00
 5528              	.LASF145:
 5529 00b0 444D4152 		.ascii	"DMAR\000"
 5529      00
 5530              	.LASF78:
 5531 00b5 49435052 		.ascii	"ICPR\000"
 5531      00
 5532              	.LASF134:
 5533 00ba 43435231 		.ascii	"CCR1\000"
 5533      00
 5534              	.LASF136:
 5535 00bf 43435232 		.ascii	"CCR2\000"
 5535      00
 5536              	.LASF138:
 5537 00c4 43435233 		.ascii	"CCR3\000"
 5537      00
 5538              	.LASF140:
 5539 00c9 43435234 		.ascii	"CCR4\000"
 5539      00
 5540              	.LASF6:
 5541 00ce 5F5F7569 		.ascii	"__uint8_t\000"
 5541      6E74385F 
 5541      7400
 5542              	.LASF64:
 5543 00d8 53504932 		.ascii	"SPI2_IRQn\000"
 5543      5F495251 
 5543      6E00
 5544              	.LASF164:
ARM GAS  /tmp/ccxAy8dA.s 			page 109


 5545 00e2 4750494F 		.ascii	"GPIO_Speed\000"
 5545      5F537065 
 5545      656400
 5546              	.LASF9:
 5547 00ed 6C6F6E67 		.ascii	"long int\000"
 5547      20696E74 
 5547      00
 5548              	.LASF223:
 5549 00f6 51756575 		.ascii	"QueueDefinition\000"
 5549      65446566 
 5549      696E6974 
 5549      696F6E00 
 5550              	.LASF154:
 5551 0106 4750494F 		.ascii	"GPIO_Mode_AIN\000"
 5551      5F4D6F64 
 5551      655F4149 
 5551      4E00
 5552              	.LASF30:
 5553 0114 54414D50 		.ascii	"TAMPER_IRQn\000"
 5553      45525F49 
 5553      52516E00 
 5554              	.LASF200:
 5555 0120 76546173 		.ascii	"vTaskStartScheduler\000"
 5555      6B537461 
 5555      72745363 
 5555      68656475 
 5555      6C657200 
 5556              	.LASF180:
 5557 0134 6D61696E 		.ascii	"main\000"
 5557      00
 5558              	.LASF193:
 5559 0139 4952516E 		.ascii	"IRQn\000"
 5559      00
 5560              	.LASF135:
 5561 013e 52455345 		.ascii	"RESERVED13\000"
 5561      52564544 
 5561      313300
 5562              	.LASF115:
 5563 0149 41504232 		.ascii	"APB2ENR\000"
 5563      454E5200 
 5564              	.LASF191:
 5565 0151 55534152 		.ascii	"USART_InitStructure\000"
 5565      545F496E 
 5565      69745374 
 5565      72756374 
 5565      75726500 
 5566              	.LASF160:
 5567 0165 4750494F 		.ascii	"GPIO_Mode_AF_OD\000"
 5567      5F4D6F64 
 5567      655F4146 
 5567      5F4F4400 
 5568              	.LASF27:
 5569 0175 53797354 		.ascii	"SysTick_IRQn\000"
 5569      69636B5F 
 5569      4952516E 
 5569      00
 5570              	.LASF106:
ARM GAS  /tmp/ccxAy8dA.s 			page 110


 5571 0182 57525052 		.ascii	"WRPR\000"
 5571      00
 5572              	.LASF67:
 5573 0187 55534152 		.ascii	"USART3_IRQn\000"
 5573      54335F49 
 5573      52516E00 
 5574              	.LASF19:
 5575 0193 51756575 		.ascii	"QueueHandle_t\000"
 5575      6548616E 
 5575      646C655F 
 5575      7400
 5576              	.LASF3:
 5577 01a1 7369676E 		.ascii	"signed char\000"
 5577      65642063 
 5577      68617200 
 5578              	.LASF13:
 5579 01ad 75696E74 		.ascii	"uint8_t\000"
 5579      385F7400 
 5580              	.LASF166:
 5581 01b5 4750494F 		.ascii	"GPIO_InitTypeDef\000"
 5581      5F496E69 
 5581      74547970 
 5581      65446566 
 5581      00
 5582              	.LASF147:
 5583 01c6 54494D5F 		.ascii	"TIM_TypeDef\000"
 5583      54797065 
 5583      44656600 
 5584              	.LASF73:
 5585 01d2 52455345 		.ascii	"RESERVED0\000"
 5585      52564544 
 5585      3000
 5586              	.LASF121:
 5587 01dc 52455345 		.ascii	"RESERVED1\000"
 5587      52564544 
 5587      3100
 5588              	.LASF4:
 5589 01e6 756E7369 		.ascii	"unsigned char\000"
 5589      676E6564 
 5589      20636861 
 5589      7200
 5590              	.LASF79:
 5591 01f4 52455345 		.ascii	"RESERVED3\000"
 5591      52564544 
 5591      3300
 5592              	.LASF81:
 5593 01fe 52455345 		.ascii	"RESERVED4\000"
 5593      52564544 
 5593      3400
 5594              	.LASF82:
 5595 0208 52455345 		.ascii	"RESERVED5\000"
 5595      52564544 
 5595      3500
 5596              	.LASF125:
 5597 0212 52455345 		.ascii	"RESERVED6\000"
 5597      52564544 
 5597      3600
ARM GAS  /tmp/ccxAy8dA.s 			page 111


 5598              	.LASF127:
 5599 021c 52455345 		.ascii	"RESERVED7\000"
 5599      52564544 
 5599      3700
 5600              	.LASF129:
 5601 0226 52455345 		.ascii	"RESERVED8\000"
 5601      52564544 
 5601      3800
 5602              	.LASF130:
 5603 0230 52455345 		.ascii	"RESERVED9\000"
 5603      52564544 
 5603      3900
 5604              	.LASF161:
 5605 023a 4750494F 		.ascii	"GPIO_Mode_AF_PP\000"
 5605      5F4D6F64 
 5605      655F4146 
 5605      5F505000 
 5606              	.LASF80:
 5607 024a 49414252 		.ascii	"IABR\000"
 5607      00
 5608              	.LASF168:
 5609 024f 55534152 		.ascii	"USART_WordLength\000"
 5609      545F576F 
 5609      72644C65 
 5609      6E677468 
 5609      00
 5610              	.LASF60:
 5611 0260 49324331 		.ascii	"I2C1_ER_IRQn\000"
 5611      5F45525F 
 5611      4952516E 
 5611      00
 5612              	.LASF198:
 5613 026d 78517565 		.ascii	"xQueueGenericCreate\000"
 5613      75654765 
 5613      6E657269 
 5613      63437265 
 5613      61746500 
 5614              	.LASF39:
 5615 0281 444D4131 		.ascii	"DMA1_Channel1_IRQn\000"
 5615      5F436861 
 5615      6E6E656C 
 5615      315F4952 
 5615      516E00
 5616              	.LASF52:
 5617 0294 54494D31 		.ascii	"TIM1_BRK_IRQn\000"
 5617      5F42524B 
 5617      5F495251 
 5617      6E00
 5618              	.LASF77:
 5619 02a2 52455345 		.ascii	"RESERVED2\000"
 5619      52564544 
 5619      3200
 5620              	.LASF170:
 5621 02ac 55534152 		.ascii	"USART_Parity\000"
 5621      545F5061 
 5621      72697479 
 5621      00
ARM GAS  /tmp/ccxAy8dA.s 			page 112


 5622              	.LASF23:
 5623 02b9 55736167 		.ascii	"UsageFault_IRQn\000"
 5623      65466175 
 5623      6C745F49 
 5623      52516E00 
 5624              	.LASF124:
 5625 02c9 43434D52 		.ascii	"CCMR1\000"
 5625      3100
 5626              	.LASF47:
 5627 02cf 5553425F 		.ascii	"USB_HP_CAN1_TX_IRQn\000"
 5627      48505F43 
 5627      414E315F 
 5627      54585F49 
 5627      52516E00 
 5628              	.LASF18:
 5629 02e3 63686172 		.ascii	"char\000"
 5629      00
 5630              	.LASF217:
 5631 02e8 5243435F 		.ascii	"RCC_APB2PeriphClockCmd\000"
 5631      41504232 
 5631      50657269 
 5631      7068436C 
 5631      6F636B43 
 5632              	.LASF158:
 5633 02ff 4750494F 		.ascii	"GPIO_Mode_Out_OD\000"
 5633      5F4D6F64 
 5633      655F4F75 
 5633      745F4F44 
 5633      00
 5634              	.LASF7:
 5635 0310 5F5F7569 		.ascii	"__uint16_t\000"
 5635      6E743136 
 5635      5F7400
 5636              	.LASF192:
 5637 031b 64697361 		.ascii	"disable_interrupt\000"
 5637      626C655F 
 5637      696E7465 
 5637      72727570 
 5637      7400
 5638              	.LASF152:
 5639 032d 4750494F 		.ascii	"GPIO_Speed_50MHz\000"
 5639      5F537065 
 5639      65645F35 
 5639      304D487A 
 5639      00
 5640              	.LASF149:
 5641 033e 55534152 		.ascii	"USART_TypeDef\000"
 5641      545F5479 
 5641      70654465 
 5641      6600
 5642              	.LASF70:
 5643 034c 55534257 		.ascii	"USBWakeUp_IRQn\000"
 5643      616B6555 
 5643      705F4952 
 5643      516E00
 5644              	.LASF58:
 5645 035b 54494D34 		.ascii	"TIM4_IRQn\000"
ARM GAS  /tmp/ccxAy8dA.s 			page 113


 5645      5F495251 
 5645      6E00
 5646              	.LASF66:
 5647 0365 55534152 		.ascii	"USART2_IRQn\000"
 5647      54325F49 
 5647      52516E00 
 5648              	.LASF218:
 5649 0371 55534152 		.ascii	"USART_Init\000"
 5649      545F496E 
 5649      697400
 5650              	.LASF175:
 5651 037c 6461646F 		.ascii	"dados_leitura\000"
 5651      735F6C65 
 5651      69747572 
 5651      6100
 5652              	.LASF117:
 5653 038a 42444352 		.ascii	"BDCR\000"
 5653      00
 5654              	.LASF83:
 5655 038f 53544952 		.ascii	"STIR\000"
 5655      00
 5656              	.LASF59:
 5657 0394 49324331 		.ascii	"I2C1_EV_IRQn\000"
 5657      5F45565F 
 5657      4952516E 
 5657      00
 5658              	.LASF102:
 5659 03a1 4144435F 		.ascii	"ADC_TypeDef\000"
 5659      54797065 
 5659      44656600 
 5660              	.LASF105:
 5661 03ad 52455345 		.ascii	"RESERVED\000"
 5661      52564544 
 5661      00
 5662              	.LASF167:
 5663 03b6 55534152 		.ascii	"USART_BaudRate\000"
 5663      545F4261 
 5663      75645261 
 5663      746500
 5664              	.LASF111:
 5665 03c5 43464752 		.ascii	"CFGR\000"
 5665      00
 5666              	.LASF171:
 5667 03ca 55534152 		.ascii	"USART_Mode\000"
 5667      545F4D6F 
 5667      646500
 5668              	.LASF55:
 5669 03d5 54494D31 		.ascii	"TIM1_CC_IRQn\000"
 5669      5F43435F 
 5669      4952516E 
 5669      00
 5670              	.LASF35:
 5671 03e2 45585449 		.ascii	"EXTI1_IRQn\000"
 5671      315F4952 
 5671      516E00
 5672              	.LASF159:
 5673 03ed 4750494F 		.ascii	"GPIO_Mode_Out_PP\000"
ARM GAS  /tmp/ccxAy8dA.s 			page 114


 5673      5F4D6F64 
 5673      655F4F75 
 5673      745F5050 
 5673      00
 5674              	.LASF205:
 5675 03fe 78517565 		.ascii	"xQueueGenericSend\000"
 5675      75654765 
 5675      6E657269 
 5675      6353656E 
 5675      6400
 5676              	.LASF104:
 5677 0410 4F50544B 		.ascii	"OPTKEYR\000"
 5677      45595200 
 5678              	.LASF211:
 5679 0418 4750494F 		.ascii	"GPIO_ReadInputDataBit\000"
 5679      5F526561 
 5679      64496E70 
 5679      75744461 
 5679      74614269 
 5680              	.LASF20:
 5681 042e 4E6F6E4D 		.ascii	"NonMaskableInt_IRQn\000"
 5681      61736B61 
 5681      626C6549 
 5681      6E745F49 
 5681      52516E00 
 5682              	.LASF28:
 5683 0442 57574447 		.ascii	"WWDG_IRQn\000"
 5683      5F495251 
 5683      6E00
 5684              	.LASF11:
 5685 044c 6C6F6E67 		.ascii	"long unsigned int\000"
 5685      20756E73 
 5685      69676E65 
 5685      6420696E 
 5685      7400
 5686              	.LASF116:
 5687 045e 41504231 		.ascii	"APB1ENR\000"
 5687      454E5200 
 5688              	.LASF21:
 5689 0466 4D656D6F 		.ascii	"MemoryManagement_IRQn\000"
 5689      72794D61 
 5689      6E616765 
 5689      6D656E74 
 5689      5F495251 
 5690              	.LASF202:
 5691 047c 73747263 		.ascii	"strcpy\000"
 5691      707900
 5692              	.LASF42:
 5693 0483 444D4131 		.ascii	"DMA1_Channel4_IRQn\000"
 5693      5F436861 
 5693      6E6E656C 
 5693      345F4952 
 5693      516E00
 5694              	.LASF123:
 5695 0496 44494552 		.ascii	"DIER\000"
 5695      00
 5696              	.LASF50:
ARM GAS  /tmp/ccxAy8dA.s 			page 115


 5697 049b 43414E31 		.ascii	"CAN1_SCE_IRQn\000"
 5697      5F534345 
 5697      5F495251 
 5697      6E00
 5698              	.LASF71:
 5699 04a9 4952516E 		.ascii	"IRQn_Type\000"
 5699      5F547970 
 5699      6500
 5700              	.LASF88:
 5701 04b3 534D5052 		.ascii	"SMPR1\000"
 5701      3100
 5702              	.LASF89:
 5703 04b9 534D5052 		.ascii	"SMPR2\000"
 5703      3200
 5704              	.LASF209:
 5705 04bf 78517565 		.ascii	"xQueueReceive\000"
 5705      75655265 
 5705      63656976 
 5705      6500
 5706              	.LASF169:
 5707 04cd 55534152 		.ascii	"USART_StopBits\000"
 5707      545F5374 
 5707      6F704269 
 5707      747300
 5708              	.LASF109:
 5709 04dc 4C434B52 		.ascii	"LCKR\000"
 5709      00
 5710              	.LASF62:
 5711 04e1 49324332 		.ascii	"I2C2_ER_IRQn\000"
 5711      5F45525F 
 5711      4952516E 
 5711      00
 5712              	.LASF176:
 5713 04ee 61726773 		.ascii	"args\000"
 5713      00
 5714              	.LASF118:
 5715 04f3 41484252 		.ascii	"AHBRSTR\000"
 5715      53545200 
 5716              	.LASF22:
 5717 04fb 42757346 		.ascii	"BusFault_IRQn\000"
 5717      61756C74 
 5717      5F495251 
 5717      6E00
 5718              	.LASF10:
 5719 0509 5F5F7569 		.ascii	"__uint32_t\000"
 5719      6E743332 
 5719      5F7400
 5720              	.LASF1:
 5721 0514 6C6F6E67 		.ascii	"long long int\000"
 5721      206C6F6E 
 5721      6720696E 
 5721      7400
 5722              	.LASF189:
 5723 0522 55534152 		.ascii	"USART_init\000"
 5723      545F696E 
 5723      697400
 5724              	.LASF201:
ARM GAS  /tmp/ccxAy8dA.s 			page 116


 5725 052d 69746F61 		.ascii	"itoa\000"
 5725      00
 5726              	.LASF194:
 5727 0532 656E6162 		.ascii	"enable_interrupt\000"
 5727      6C655F69 
 5727      6E746572 
 5727      72757074 
 5727      00
 5728              	.LASF63:
 5729 0543 53504931 		.ascii	"SPI1_IRQn\000"
 5729      5F495251 
 5729      6E00
 5730              	.LASF24:
 5731 054d 53564361 		.ascii	"SVCall_IRQn\000"
 5731      6C6C5F49 
 5731      52516E00 
 5732              	.LASF112:
 5733 0559 41504232 		.ascii	"APB2RSTR\000"
 5733      52535452 
 5733      00
 5734              	.LASF69:
 5735 0562 52544341 		.ascii	"RTCAlarm_IRQn\000"
 5735      6C61726D 
 5735      5F495251 
 5735      6E00
 5736              	.LASF216:
 5737 0570 55534152 		.ascii	"USART_GetFlagStatus\000"
 5737      545F4765 
 5737      74466C61 
 5737      67537461 
 5737      74757300 
 5738              	.LASF187:
 5739 0584 55534152 		.ascii	"USARTSend\000"
 5739      5453656E 
 5739      6400
 5740              	.LASF0:
 5741 058e 756E7369 		.ascii	"unsigned int\000"
 5741      676E6564 
 5741      20696E74 
 5741      00
 5742              	.LASF181:
 5743 059b 44485431 		.ascii	"DHT11_read\000"
 5743      315F7265 
 5743      616400
 5744              	.LASF119:
 5745 05a6 43464752 		.ascii	"CFGR2\000"
 5745      3200
 5746              	.LASF61:
 5747 05ac 49324332 		.ascii	"I2C2_EV_IRQn\000"
 5747      5F45565F 
 5747      4952516E 
 5747      00
 5748              	.LASF126:
 5749 05b9 43434D52 		.ascii	"CCMR2\000"
 5749      3200
 5750              	.LASF174:
 5751 05bf 4C43445F 		.ascii	"LCD_DHT_queue\000"
ARM GAS  /tmp/ccxAy8dA.s 			page 117


 5751      4448545F 
 5751      71756575 
 5751      6500
 5752              	.LASF45:
 5753 05cd 444D4131 		.ascii	"DMA1_Channel7_IRQn\000"
 5753      5F436861 
 5753      6E6E656C 
 5753      375F4952 
 5753      516E00
 5754              	.LASF199:
 5755 05e0 78546173 		.ascii	"xTaskCreate\000"
 5755      6B437265 
 5755      61746500 
 5756              	.LASF178:
 5757 05ec 7461736B 		.ascii	"task1\000"
 5757      3100
 5758              	.LASF177:
 5759 05f2 7461736B 		.ascii	"task2\000"
 5759      3200
 5760              	.LASF184:
 5761 05f8 7461736B 		.ascii	"task3\000"
 5761      3300
 5762              	.LASF86:
 5763 05fe 44495341 		.ascii	"DISABLE\000"
 5763      424C4500 
 5764              	.LASF2:
 5765 0606 6C6F6E67 		.ascii	"long double\000"
 5765      20646F75 
 5765      626C6500 
 5766              	.LASF54:
 5767 0612 54494D31 		.ascii	"TIM1_TRG_COM_IRQn\000"
 5767      5F545247 
 5767      5F434F4D 
 5767      5F495251 
 5767      6E00
 5768              	.LASF113:
 5769 0624 41504231 		.ascii	"APB1RSTR\000"
 5769      52535452 
 5769      00
 5770              	.LASF212:
 5771 062d 4750494F 		.ascii	"GPIO_Init\000"
 5771      5F496E69 
 5771      7400
 5772              	.LASF84:
 5773 0637 4E564943 		.ascii	"NVIC_Type\000"
 5773      5F547970 
 5773      6500
 5774              	.LASF204:
 5775 0641 76546173 		.ascii	"vTaskDelay\000"
 5775      6B44656C 
 5775      617900
 5776              	.LASF68:
 5777 064c 45585449 		.ascii	"EXTI15_10_IRQn\000"
 5777      31355F31 
 5777      305F4952 
 5777      516E00
 5778              	.LASF12:
ARM GAS  /tmp/ccxAy8dA.s 			page 118


 5779 065b 6C6F6E67 		.ascii	"long long unsigned int\000"
 5779      206C6F6E 
 5779      6720756E 
 5779      7369676E 
 5779      65642069 
 5780              	.LASF222:
 5781 0672 2F686F6D 		.ascii	"/home/junior/Codigos/6-Stm32_GCC_FreeRTOS10.2.1/5-P"
 5781      652F6A75 
 5781      6E696F72 
 5781      2F436F64 
 5781      69676F73 
 5782 06a5 574D5F4C 		.ascii	"WM_LCD_SERIAL\000"
 5782      43445F53 
 5782      45524941 
 5782      4C00
 5783              	.LASF14:
 5784 06b3 75696E74 		.ascii	"uint16_t\000"
 5784      31365F74 
 5784      00
 5785              	.LASF213:
 5786 06bc 4750494F 		.ascii	"GPIO_ResetBits\000"
 5786      5F526573 
 5786      65744269 
 5786      747300
 5787              	.LASF57:
 5788 06cb 54494D33 		.ascii	"TIM3_IRQn\000"
 5788      5F495251 
 5788      6E00
 5789              	.LASF128:
 5790 06d5 43434552 		.ascii	"CCER\000"
 5790      00
 5791              	.LASF133:
 5792 06da 52455345 		.ascii	"RESERVED12\000"
 5792      52564544 
 5792      313200
 5793              	.LASF65:
 5794 06e5 55534152 		.ascii	"USART1_IRQn\000"
 5794      54315F49 
 5794      52516E00 
 5795              	.LASF137:
 5796 06f1 52455345 		.ascii	"RESERVED14\000"
 5796      52564544 
 5796      313400
 5797              	.LASF139:
 5798 06fc 52455345 		.ascii	"RESERVED15\000"
 5798      52564544 
 5798      313500
 5799              	.LASF141:
 5800 0707 52455345 		.ascii	"RESERVED16\000"
 5800      52564544 
 5800      313600
 5801              	.LASF143:
 5802 0712 52455345 		.ascii	"RESERVED17\000"
 5802      52564544 
 5802      313700
 5803              	.LASF144:
 5804 071d 52455345 		.ascii	"RESERVED18\000"
ARM GAS  /tmp/ccxAy8dA.s 			page 119


 5804      52564544 
 5804      313800
 5805              	.LASF146:
 5806 0728 52455345 		.ascii	"RESERVED19\000"
 5806      52564544 
 5806      313900
 5807              	.LASF203:
 5808 0733 73747263 		.ascii	"strcat\000"
 5808      617400
 5809              	.LASF188:
 5810 073a 70756342 		.ascii	"pucBuffer\000"
 5810      75666665 
 5810      7200
 5811              	.LASF190:
 5812 0744 4750494F 		.ascii	"GPIO_InitStructure\000"
 5812      5F496E69 
 5812      74537472 
 5812      75637475 
 5812      726500
 5813              	.LASF165:
 5814 0757 4750494F 		.ascii	"GPIO_Mode\000"
 5814      5F4D6F64 
 5814      6500
 5815              	.LASF219:
 5816 0761 55534152 		.ascii	"USART_Cmd\000"
 5816      545F436D 
 5816      6400
 5817              	.LASF17:
 5818 076b 5469636B 		.ascii	"TickType_t\000"
 5818      54797065 
 5818      5F7400
 5819              	.LASF74:
 5820 0776 49434552 		.ascii	"ICER\000"
 5820      00
 5821              	.LASF122:
 5822 077b 534D4352 		.ascii	"SMCR\000"
 5822      00
 5823              	.LASF162:
 5824 0780 4750494F 		.ascii	"GPIOMode_TypeDef\000"
 5824      4D6F6465 
 5824      5F547970 
 5824      65446566 
 5824      00
 5825              	.LASF85:
 5826 0791 52455345 		.ascii	"RESET\000"
 5826      5400
 5827              	.LASF206:
 5828 0797 64697370 		.ascii	"disp_init\000"
 5828      5F696E69 
 5828      7400
 5829              	.LASF173:
 5830 07a1 55534152 		.ascii	"USART_InitTypeDef\000"
 5830      545F496E 
 5830      69745479 
 5830      70654465 
 5830      6600
 5831              	.LASF29:
ARM GAS  /tmp/ccxAy8dA.s 			page 120


 5832 07b3 5056445F 		.ascii	"PVD_IRQn\000"
 5832      4952516E 
 5832      00
 5833              	.LASF210:
 5834 07bc 64697370 		.ascii	"disp_number\000"
 5834      5F6E756D 
 5834      62657200 
 5835              	.LASF34:
 5836 07c8 45585449 		.ascii	"EXTI0_IRQn\000"
 5836      305F4952 
 5836      516E00
 5837              	.LASF151:
 5838 07d3 4750494F 		.ascii	"GPIO_Speed_2MHz\000"
 5838      5F537065 
 5838      65645F32 
 5838      4D487A00 
 5839              	.LASF153:
 5840 07e3 4750494F 		.ascii	"GPIOSpeed_TypeDef\000"
 5840      53706565 
 5840      645F5479 
 5840      70654465 
 5840      6600
 5841              	.LASF25:
 5842 07f5 44656275 		.ascii	"DebugMonitor_IRQn\000"
 5842      674D6F6E 
 5842      69746F72 
 5842      5F495251 
 5842      6E00
 5843              	.LASF163:
 5844 0807 4750494F 		.ascii	"GPIO_Pin\000"
 5844      5F50696E 
 5844      00
 5845              	.LASF48:
 5846 0810 5553425F 		.ascii	"USB_LP_CAN1_RX0_IRQn\000"
 5846      4C505F43 
 5846      414E315F 
 5846      5258305F 
 5846      4952516E 
 5847              	.LASF41:
 5848 0825 444D4131 		.ascii	"DMA1_Channel3_IRQn\000"
 5848      5F436861 
 5848      6E6E656C 
 5848      335F4952 
 5848      516E00
 5849              	.LASF103:
 5850 0838 4B455952 		.ascii	"KEYR\000"
 5850      00
 5851              	.LASF120:
 5852 083d 5243435F 		.ascii	"RCC_TypeDef\000"
 5852      54797065 
 5852      44656600 
 5853              	.LASF5:
 5854 0849 73686F72 		.ascii	"short int\000"
 5854      7420696E 
 5854      7400
 5855              	.LASF33:
 5856 0853 5243435F 		.ascii	"RCC_IRQn\000"
ARM GAS  /tmp/ccxAy8dA.s 			page 121


 5856      4952516E 
 5856      00
 5857              	.LASF155:
 5858 085c 4750494F 		.ascii	"GPIO_Mode_IN_FLOATING\000"
 5858      5F4D6F64 
 5858      655F494E 
 5858      5F464C4F 
 5858      4154494E 
 5859              	.LASF90:
 5860 0872 4A4F4652 		.ascii	"JOFR1\000"
 5860      3100
 5861              	.LASF91:
 5862 0878 4A4F4652 		.ascii	"JOFR2\000"
 5862      3200
 5863              	.LASF92:
 5864 087e 4A4F4652 		.ascii	"JOFR3\000"
 5864      3300
 5865              	.LASF93:
 5866 0884 4A4F4652 		.ascii	"JOFR4\000"
 5866      3400
 5867              	.LASF46:
 5868 088a 41444331 		.ascii	"ADC1_2_IRQn\000"
 5868      5F325F49 
 5868      52516E00 
 5869              	.LASF87:
 5870 0896 454E4142 		.ascii	"ENABLE\000"
 5870      4C4500
 5871              	.LASF114:
 5872 089d 41484245 		.ascii	"AHBENR\000"
 5872      4E5200
 5873              	.LASF185:
 5874 08a4 44485431 		.ascii	"DHT11_start\000"
 5874      315F7374 
 5874      61727400 
 5875              	.LASF220:
 5876 08b0 474E5520 		.ascii	"GNU C17 10.3.1 20210824 (release) -mcpu=cortex-m3 -"
 5876      43313720 
 5876      31302E33 
 5876      2E312032 
 5876      30323130 
 5877 08e3 6D746875 		.ascii	"mthumb -mfloat-abi=soft -march=armv7-m -g -gdwarf-2"
 5877      6D62202D 
 5877      6D666C6F 
 5877      61742D61 
 5877      62693D73 
 5878 0916 202D4F73 		.ascii	" -Os -fomit-frame-pointer\000"
 5878      202D666F 
 5878      6D69742D 
 5878      6672616D 
 5878      652D706F 
 5879              	.LASF108:
 5880 0930 42535252 		.ascii	"BSRR\000"
 5880      00
 5881              	.LASF98:
 5882 0935 4A445231 		.ascii	"JDR1\000"
 5882      00
 5883              	.LASF99:
ARM GAS  /tmp/ccxAy8dA.s 			page 122


 5884 093a 4A445232 		.ascii	"JDR2\000"
 5884      00
 5885              	.LASF100:
 5886 093f 4A445233 		.ascii	"JDR3\000"
 5886      00
 5887              	.LASF101:
 5888 0944 4A445234 		.ascii	"JDR4\000"
 5888      00
 5889              	.LASF197:
 5890 0949 7365745F 		.ascii	"set_system_clock_to_72Mhz\000"
 5890      73797374 
 5890      656D5F63 
 5890      6C6F636B 
 5890      5F746F5F 
 5891              	.LASF97:
 5892 0963 4A535152 		.ascii	"JSQR\000"
 5892      00
 5893              	.LASF110:
 5894 0968 4750494F 		.ascii	"GPIO_TypeDef\000"
 5894      5F547970 
 5894      65446566 
 5894      00
 5895              	.LASF40:
 5896 0975 444D4131 		.ascii	"DMA1_Channel2_IRQn\000"
 5896      5F436861 
 5896      6E6E656C 
 5896      325F4952 
 5896      516E00
 5897              	.LASF107:
 5898 0988 464C4153 		.ascii	"FLASH_TypeDef\000"
 5898      485F5479 
 5898      70654465 
 5898      6600
 5899              	.LASF214:
 5900 0996 4750494F 		.ascii	"GPIO_SetBits\000"
 5900      5F536574 
 5900      42697473 
 5900      00
 5901              	.LASF142:
 5902 09a3 42445452 		.ascii	"BDTR\000"
 5902      00
 5903              	.LASF179:
 5904 09a8 6D73675F 		.ascii	"msg_buf_rev\000"
 5904      6275665F 
 5904      72657600 
 5905              	.LASF15:
 5906 09b4 75696E74 		.ascii	"uint32_t\000"
 5906      33325F74 
 5906      00
 5907              	.LASF53:
 5908 09bd 54494D31 		.ascii	"TIM1_UP_IRQn\000"
 5908      5F55505F 
 5908      4952516E 
 5908      00
 5909              	.LASF49:
 5910 09ca 43414E31 		.ascii	"CAN1_RX1_IRQn\000"
 5910      5F525831 
ARM GAS  /tmp/ccxAy8dA.s 			page 123


 5910      5F495251 
 5910      6E00
 5911              	.LASF172:
 5912 09d8 55534152 		.ascii	"USART_HardwareFlowControl\000"
 5912      545F4861 
 5912      72647761 
 5912      7265466C 
 5912      6F77436F 
 5913              	.LASF186:
 5914 09f2 4750494F 		.ascii	"GPIO_InitStruct\000"
 5914      5F496E69 
 5914      74537472 
 5914      75637400 
 5915              	.LASF51:
 5916 0a02 45585449 		.ascii	"EXTI9_5_IRQn\000"
 5916      395F355F 
 5916      4952516E 
 5916      00
 5917              	.LASF221:
 5918 0a0f 2E2E2F35 		.ascii	"../5-PWM_LCD_SERIAL/main.c\000"
 5918      2D50574D 
 5918      5F4C4344 
 5918      5F534552 
 5918      49414C2F 
 5919              	.LASF150:
 5920 0a2a 4750494F 		.ascii	"GPIO_Speed_10MHz\000"
 5920      5F537065 
 5920      65645F31 
 5920      304D487A 
 5920      00
 5921              	.LASF38:
 5922 0a3b 45585449 		.ascii	"EXTI4_IRQn\000"
 5922      345F4952 
 5922      516E00
 5923              	.LASF8:
 5924 0a46 73686F72 		.ascii	"short unsigned int\000"
 5924      7420756E 
 5924      7369676E 
 5924      65642069 
 5924      6E7400
 5925              	.LASF131:
 5926 0a59 52455345 		.ascii	"RESERVED10\000"
 5926      52564544 
 5926      313000
 5927              	.LASF132:
 5928 0a64 52455345 		.ascii	"RESERVED11\000"
 5928      52564544 
 5928      313100
 5929              	.LASF76:
 5930 0a6f 49535052 		.ascii	"ISPR\000"
 5930      00
 5931              	.LASF37:
 5932 0a74 45585449 		.ascii	"EXTI3_IRQn\000"
 5932      335F4952 
 5932      516E00
 5933              	.LASF26:
 5934 0a7f 50656E64 		.ascii	"PendSV_IRQn\000"
ARM GAS  /tmp/ccxAy8dA.s 			page 124


 5934      53565F49 
 5934      52516E00 
 5935              	.LASF72:
 5936 0a8b 49534552 		.ascii	"ISER\000"
 5936      00
 5937              	.LASF44:
 5938 0a90 444D4131 		.ascii	"DMA1_Channel6_IRQn\000"
 5938      5F436861 
 5938      6E6E656C 
 5938      365F4952 
 5938      516E00
 5939              	.LASF183:
 5940 0aa3 64617461 		.ascii	"data\000"
 5940      00
 5941              	.LASF208:
 5942 0aa8 64697370 		.ascii	"disp_text\000"
 5942      5F746578 
 5942      7400
 5943              	.LASF31:
 5944 0ab2 5254435F 		.ascii	"RTC_IRQn\000"
 5944      4952516E 
 5944      00
 5945              	.LASF156:
 5946 0abb 4750494F 		.ascii	"GPIO_Mode_IPD\000"
 5946      5F4D6F64 
 5946      655F4950 
 5946      4400
 5947              		.ident	"GCC: (GNU Arm Embedded Toolchain 10.3-2021.10) 10.3.1 20210824 (release)"
ARM GAS  /tmp/ccxAy8dA.s 			page 125


DEFINED SYMBOLS
                            *ABS*:0000000000000000 main.c
     /tmp/ccxAy8dA.s:78     .text:0000000000000000 $t
     /tmp/ccxAy8dA.s:83     .text:0000000000000000 task2
     /tmp/ccxAy8dA.s:141    .text:0000000000000028 $d
     /tmp/ccxAy8dA.s:150    .text:0000000000000030 $t
     /tmp/ccxAy8dA.s:155    .text:0000000000000030 task1
     /tmp/ccxAy8dA.s:270    .text:00000000000000d4 $d
     /tmp/ccxAy8dA.s:278    .text:00000000000000e8 $t
     /tmp/ccxAy8dA.s:284    .text:00000000000000e8 ADC1_configure
     /tmp/ccxAy8dA.s:412    .text:0000000000000168 $d
     /tmp/ccxAy8dA.s:418    .text:0000000000000174 $t
     /tmp/ccxAy8dA.s:424    .text:0000000000000174 set_system_clock_to_72Mhz
     /tmp/ccxAy8dA.s:532    .text:00000000000001e4 $d
     /tmp/ccxAy8dA.s:536    .text:00000000000001e8 $t
     /tmp/ccxAy8dA.s:542    .text:00000000000001e8 Delay
     /tmp/ccxAy8dA.s:613    .text:0000000000000214 $d
     /tmp/ccxAy8dA.s:617    .text:0000000000000218 $t
     /tmp/ccxAy8dA.s:623    .text:0000000000000218 enable_TIM3_delay
     /tmp/ccxAy8dA.s:661    .text:000000000000023c $d
     /tmp/ccxAy8dA.s:665    .text:0000000000000240 $t
     /tmp/ccxAy8dA.s:671    .text:0000000000000240 enable_interrupt
     /tmp/ccxAy8dA.s:703    .text:0000000000000254 $d
     /tmp/ccxAy8dA.s:707    .text:0000000000000258 $t
     /tmp/ccxAy8dA.s:713    .text:0000000000000258 disable_interrupt
     /tmp/ccxAy8dA.s:746    .text:0000000000000270 $d
     /tmp/ccxAy8dA.s:750    .text:0000000000000274 $t
     /tmp/ccxAy8dA.s:756    .text:0000000000000274 USART_init
     /tmp/ccxAy8dA.s:869    .text:00000000000002e0 $d
     /tmp/ccxAy8dA.s:873    .text:00000000000002e4 $t
     /tmp/ccxAy8dA.s:879    .text:00000000000002e4 USARTSend
     /tmp/ccxAy8dA.s:938    .text:0000000000000308 $d
     /tmp/ccxAy8dA.s:942    .text:000000000000030c $t
     /tmp/ccxAy8dA.s:948    .text:000000000000030c DHT11_start
     /tmp/ccxAy8dA.s:1044   .text:0000000000000364 $d
     /tmp/ccxAy8dA.s:1049   .text:000000000000036c $t
     /tmp/ccxAy8dA.s:1055   .text:000000000000036c DHT11_read
     /tmp/ccxAy8dA.s:1211   .text:00000000000003f0 $d
     /tmp/ccxAy8dA.s:1223   .text:00000000000003f4 $t
     /tmp/ccxAy8dA.s:1229   .text:00000000000003f4 task3
     /tmp/ccxAy8dA.s:1351   .text:0000000000000488 $d
     /tmp/ccxAy8dA.s:1366   .text.startup:0000000000000000 $t
     /tmp/ccxAy8dA.s:1372   .text.startup:0000000000000000 main
     /tmp/ccxAy8dA.s:1441   .text.startup:0000000000000054 $d
     /tmp/ccxAy8dA.s:1452   .bss:0000000000000000 $d
     /tmp/ccxAy8dA.s:1456   .bss:0000000000000000 LCD_DHT_queue

UNDEFINED SYMBOLS
vTaskDelay
disp_init
disp_cmd
disp_text
xQueueReceive
disp_number
RCC_APB2PeriphClockCmd
GPIO_Init
USART_Init
ARM GAS  /tmp/ccxAy8dA.s 			page 126


USART_Cmd
USART_SendData
USART_GetFlagStatus
GPIO_ResetBits
GPIO_SetBits
GPIO_ReadInputDataBit
itoa
strcpy
strcat
xQueueGenericSend
xQueueGenericCreate
xTaskCreate
vTaskStartScheduler
