ARM GAS  /tmp/cc4r6sqw.s 			page 1


   1              		.cpu cortex-m3
   2              		.arch armv7-m
   3              		.fpu softvfp
   4              		.eabi_attribute 20, 1	@ Tag_ABI_FP_denormal
   5              		.eabi_attribute 21, 1	@ Tag_ABI_FP_exceptions
   6              		.eabi_attribute 23, 3	@ Tag_ABI_FP_number_model
   7              		.eabi_attribute 24, 1	@ Tag_ABI_align8_needed
   8              		.eabi_attribute 25, 1	@ Tag_ABI_align8_preserved
   9              		.eabi_attribute 26, 1	@ Tag_ABI_enum_size
  10              		.eabi_attribute 30, 4	@ Tag_ABI_optimization_goals
  11              		.eabi_attribute 34, 1	@ Tag_CPU_unaligned_access
  12              		.eabi_attribute 18, 4	@ Tag_ABI_PCS_wchar_t
  13              		.file	"main.c"
  14              	@ GNU C17 (GNU Arm Embedded Toolchain 10.3-2021.10) version 10.3.1 20210824 (release) (arm-none-eab
  15              	@	compiled by GNU C version 4.8.4, GMP version 6.1.0, MPFR version 3.1.4, MPC version 1.0.3, isl ve
  16              	
  17              	@ GGC heuristics: --param ggc-min-expand=100 --param ggc-min-heapsize=131072
  18              	@ options passed:  -I . -I ../8-LCD-TEMP-STP_Motor_IR
  19              	@ -I ../stm32f10x_lib/CMSIS/CM3/CoreSupport
  20              	@ -I ../stm32f10x_lib/CMSIS/CM3/DeviceSupport/ST/STM32F10x
  21              	@ -I ../stm32f10x_lib/STM32F10x_StdPeriph_Driver/inc
  22              	@ -I ../stm32f10x_lib/STM32F10x_StdPeriph_Driver -I ../freertos/include
  23              	@ -I ../freertos/portable/GCC/ARM_CM3 -imultilib thumb/v7-m/nofp
  24              	@ -iprefix /usr/bin/../lib/gcc/arm-none-eabi/10.3.1/
  25              	@ -isysroot /usr/bin/../arm-none-eabi -D__USES_INITFINI__ -D STM32F10X_MD
  26              	@ -D USE_STDPERIPH_DRIVER -D HSE_VALUE=8000000 -D RUN_FROM_FLASH=1
  27              	@ ../8-LCD-TEMP-STP_Motor_IR/main.c -mcpu=cortex-m3 -mthumb
  28              	@ -mfloat-abi=soft -mlibarch=armv7-m -march=armv7-m
  29              	@ -auxbase-strip ../8-LCD-TEMP-STP_Motor_IR/main.o -g -gdwarf-2 -Os -Wall
  30              	@ -fomit-frame-pointer -fverbose-asm
  31              	@ options enabled:  -faggressive-loop-optimizations -fallocation-dce
  32              	@ -fauto-inc-dec -fbranch-count-reg -fcaller-saves -fcode-hoisting
  33              	@ -fcombine-stack-adjustments -fcompare-elim -fcprop-registers
  34              	@ -fcrossjumping -fcse-follow-jumps -fdefer-pop
  35              	@ -fdelete-null-pointer-checks -fdevirtualize -fdevirtualize-speculatively
  36              	@ -fdwarf2-cfi-asm -fearly-inlining -feliminate-unused-debug-symbols
  37              	@ -feliminate-unused-debug-types -fexpensive-optimizations
  38              	@ -fforward-propagate -ffp-int-builtin-inexact -ffunction-cse -fgcse
  39              	@ -fgcse-lm -fgnu-unique -fguess-branch-probability -fhoist-adjacent-loads
  40              	@ -fident -fif-conversion -fif-conversion2 -findirect-inlining -finline
  41              	@ -finline-atomics -finline-functions -finline-functions-called-once
  42              	@ -finline-small-functions -fipa-bit-cp -fipa-cp -fipa-icf
  43              	@ -fipa-icf-functions -fipa-icf-variables -fipa-profile -fipa-pure-const
  44              	@ -fipa-ra -fipa-reference -fipa-reference-addressable -fipa-sra
  45              	@ -fipa-stack-alignment -fipa-vrp -fira-hoist-pressure
  46              	@ -fira-share-save-slots -fira-share-spill-slots
  47              	@ -fisolate-erroneous-paths-dereference -fivopts -fkeep-static-consts
  48              	@ -fleading-underscore -flifetime-dse -flra-remat -fmath-errno
  49              	@ -fmerge-constants -fmerge-debug-strings -fmove-loop-invariants
  50              	@ -fomit-frame-pointer -foptimize-sibling-calls -fpartial-inlining
  51              	@ -fpeephole -fpeephole2 -fplt -fprefetch-loop-arrays -freg-struct-return
  52              	@ -freorder-blocks -freorder-functions -frerun-cse-after-loop
  53              	@ -fsched-critical-path-heuristic -fsched-dep-count-heuristic
  54              	@ -fsched-group-heuristic -fsched-interblock -fsched-last-insn-heuristic
  55              	@ -fsched-pressure -fsched-rank-heuristic -fsched-spec
  56              	@ -fsched-spec-insn-heuristic -fsched-stalled-insns-dep -fschedule-insns2
  57              	@ -fsection-anchors -fsemantic-interposition -fshow-column
ARM GAS  /tmp/cc4r6sqw.s 			page 2


  58              	@ -fshrink-wrap-separate -fsigned-zeros -fsplit-ivs-in-unroller
  59              	@ -fsplit-wide-types -fssa-backprop -fssa-phiopt -fstdarg-opt
  60              	@ -fstore-merging -fstrict-aliasing -fstrict-volatile-bitfields
  61              	@ -fsync-libcalls -fthread-jumps -ftoplevel-reorder -ftrapping-math
  62              	@ -ftree-bit-ccp -ftree-builtin-call-dce -ftree-ccp -ftree-ch
  63              	@ -ftree-coalesce-vars -ftree-copy-prop -ftree-cselim -ftree-dce
  64              	@ -ftree-dominator-opts -ftree-dse -ftree-forwprop -ftree-fre
  65              	@ -ftree-loop-distribute-patterns -ftree-loop-if-convert -ftree-loop-im
  66              	@ -ftree-loop-ivcanon -ftree-loop-optimize -ftree-parallelize-loops=
  67              	@ -ftree-phiprop -ftree-pre -ftree-pta -ftree-reassoc -ftree-scev-cprop
  68              	@ -ftree-sink -ftree-slsr -ftree-sra -ftree-switch-conversion
  69              	@ -ftree-tail-merge -ftree-ter -ftree-vrp -funit-at-a-time -fvar-tracking
  70              	@ -fvar-tracking-assignments -fverbose-asm -fzero-initialized-in-bss
  71              	@ -masm-syntax-unified -mbe32 -mfix-cortex-m3-ldrd -mlittle-endian
  72              	@ -mpic-data-is-text-relative -msched-prolog -mthumb -munaligned-access
  73              	@ -mvectorize-with-neon-quad
  74              	
  75              		.text
  76              	.Ltext0:
  77              		.cfi_sections	.debug_frame
  78              		.align	1
  79              		.syntax unified
  80              		.thumb
  81              		.thumb_func
  82              		.type	task2, %function
  83              	task2:
  84              	.LVL0:
  85              	.LFB53:
  86              		.file 1 "../8-LCD-TEMP-STP_Motor_IR/main.c"
   1:../8-LCD-TEMP-STP_Motor_IR/main.c **** /*
   2:../8-LCD-TEMP-STP_Motor_IR/main.c ****  * Projeto LCD
   3:../8-LCD-TEMP-STP_Motor_IR/main.c ****  *		Modificações necessárias: 
   4:../8-LCD-TEMP-STP_Motor_IR/main.c ****  *		  FreeRTOSConfig:
   5:../8-LCD-TEMP-STP_Motor_IR/main.c ****  *			 TICK_RATE_HZ definido em (100000)Hz -> 1µs
   6:../8-LCD-TEMP-STP_Motor_IR/main.c ****  *
   7:../8-LCD-TEMP-STP_Motor_IR/main.c ****  *	Clock do sistema: 
   8:../8-LCD-TEMP-STP_Motor_IR/main.c ****  *		72Mhz
   9:../8-LCD-TEMP-STP_Motor_IR/main.c ****  *	
  10:../8-LCD-TEMP-STP_Motor_IR/main.c ****  *	Lib construída para Arduíno UNO:
  11:../8-LCD-TEMP-STP_Motor_IR/main.c ****  *		myLcd.h
  12:../8-LCD-TEMP-STP_Motor_IR/main.c ****  *			#define delayMicroseconds(X)   vTaskDelay(X)
  13:../8-LCD-TEMP-STP_Motor_IR/main.c ****  *			#define delay(X)  vTaskDelay(X)
  14:../8-LCD-TEMP-STP_Motor_IR/main.c ****  * */
  15:../8-LCD-TEMP-STP_Motor_IR/main.c **** 
  16:../8-LCD-TEMP-STP_Motor_IR/main.c **** // FreeRTOS: 
  17:../8-LCD-TEMP-STP_Motor_IR/main.c **** 
  18:../8-LCD-TEMP-STP_Motor_IR/main.c **** #include "FreeRTOS.h"
  19:../8-LCD-TEMP-STP_Motor_IR/main.c **** #include "queue.h"
  20:../8-LCD-TEMP-STP_Motor_IR/main.c **** #include "task.h"
  21:../8-LCD-TEMP-STP_Motor_IR/main.c **** 
  22:../8-LCD-TEMP-STP_Motor_IR/main.c **** #include <stdlib.h> // funçao itoa
  23:../8-LCD-TEMP-STP_Motor_IR/main.c **** 
  24:../8-LCD-TEMP-STP_Motor_IR/main.c **** #define __delay_ms( TEMPO ) vTaskDelay(pdMS_TO_TICKS( TEMPO ))
  25:../8-LCD-TEMP-STP_Motor_IR/main.c **** #define __delay( TEMPO ) vTaskDelay( TEMPO )
  26:../8-LCD-TEMP-STP_Motor_IR/main.c **** #define TICKS_Q pdMS_TO_TICKS(10)
  27:../8-LCD-TEMP-STP_Motor_IR/main.c **** 
  28:../8-LCD-TEMP-STP_Motor_IR/main.c **** #include "stm32f10x.h"
ARM GAS  /tmp/cc4r6sqw.s 			page 3


  29:../8-LCD-TEMP-STP_Motor_IR/main.c **** #include "stm32f10x_tim.h"
  30:../8-LCD-TEMP-STP_Motor_IR/main.c **** #include "Me.h"
  31:../8-LCD-TEMP-STP_Motor_IR/main.c **** 
  32:../8-LCD-TEMP-STP_Motor_IR/main.c **** #include "myLcd.h"
  33:../8-LCD-TEMP-STP_Motor_IR/main.c **** #include "Serial.h"
  34:../8-LCD-TEMP-STP_Motor_IR/main.c **** #include "adc.h"
  35:../8-LCD-TEMP-STP_Motor_IR/main.c **** #include "infraRed.h"
  36:../8-LCD-TEMP-STP_Motor_IR/main.c **** 
  37:../8-LCD-TEMP-STP_Motor_IR/main.c **** #define BIN 2
  38:../8-LCD-TEMP-STP_Motor_IR/main.c **** #define OCT 8
  39:../8-LCD-TEMP-STP_Motor_IR/main.c **** #define DEC 10
  40:../8-LCD-TEMP-STP_Motor_IR/main.c **** #define HEX 16
  41:../8-LCD-TEMP-STP_Motor_IR/main.c **** 
  42:../8-LCD-TEMP-STP_Motor_IR/main.c **** // Vadc * 3.3 * 10 / 4096 (12 bits) 
  43:../8-LCD-TEMP-STP_Motor_IR/main.c **** #define ADC_Const 0.008056
  44:../8-LCD-TEMP-STP_Motor_IR/main.c **** #define VEL_ANIMACAO 15
  45:../8-LCD-TEMP-STP_Motor_IR/main.c **** 
  46:../8-LCD-TEMP-STP_Motor_IR/main.c **** 
  47:../8-LCD-TEMP-STP_Motor_IR/main.c **** // Codigos IR - Botoes:
  48:../8-LCD-TEMP-STP_Motor_IR/main.c **** #define CR_NUM_0 0xffe7feb9
  49:../8-LCD-TEMP-STP_Motor_IR/main.c **** #define CR_NUM_1 0xffe7fbb9
  50:../8-LCD-TEMP-STP_Motor_IR/main.c **** #define CR_NUM_4 0xffe7faf9
  51:../8-LCD-TEMP-STP_Motor_IR/main.c **** 
  52:../8-LCD-TEMP-STP_Motor_IR/main.c **** #define CR_B4 0xffe7fbb9
  53:../8-LCD-TEMP-STP_Motor_IR/main.c **** #define CR_B7 0xfc3ffe30
  54:../8-LCD-TEMP-STP_Motor_IR/main.c **** #define CR_B8 0xfc3ffe30
  55:../8-LCD-TEMP-STP_Motor_IR/main.c **** #define CR_B9 0xf83ffe30
  56:../8-LCD-TEMP-STP_Motor_IR/main.c **** 
  57:../8-LCD-TEMP-STP_Motor_IR/main.c **** // Quantidade max de elementos fila:
  58:../8-LCD-TEMP-STP_Motor_IR/main.c **** #define ELEMENTOS_FILA_LCD 2
  59:../8-LCD-TEMP-STP_Motor_IR/main.c **** #define ELEMENTOS_FILA_SM 1
  60:../8-LCD-TEMP-STP_Motor_IR/main.c **** #define ELEMENTOS_FILA_PWM 1
  61:../8-LCD-TEMP-STP_Motor_IR/main.c **** 
  62:../8-LCD-TEMP-STP_Motor_IR/main.c **** static QueueHandle_t LCD_Show_queue; 
  63:../8-LCD-TEMP-STP_Motor_IR/main.c **** static QueueHandle_t STMotor_queue; 
  64:../8-LCD-TEMP-STP_Motor_IR/main.c **** static QueueHandle_t PWM_data_queue; 
  65:../8-LCD-TEMP-STP_Motor_IR/main.c **** 
  66:../8-LCD-TEMP-STP_Motor_IR/main.c **** void LCD16x2_init(){
  67:../8-LCD-TEMP-STP_Motor_IR/main.c **** 
  68:../8-LCD-TEMP-STP_Motor_IR/main.c **** 	RCC->APB2ENR |= (1<<2);
  69:../8-LCD-TEMP-STP_Motor_IR/main.c **** 	GPIOA->CRL	 = 0x33333300; // Hab PA(2-7) out PP
  70:../8-LCD-TEMP-STP_Motor_IR/main.c **** 
  71:../8-LCD-TEMP-STP_Motor_IR/main.c **** 	set_bit(IO,RS);   set_bit(IO,RS);
  72:../8-LCD-TEMP-STP_Motor_IR/main.c **** 	set_bit(IO,EN);   set_bit(IO,D4);
  73:../8-LCD-TEMP-STP_Motor_IR/main.c **** 	set_bit(IO,D5);   set_bit(IO,D6);
  74:../8-LCD-TEMP-STP_Motor_IR/main.c **** 	set_bit(IO,D7);   disp_init();
  75:../8-LCD-TEMP-STP_Motor_IR/main.c **** 	disp_cmd(0x0C);
  76:../8-LCD-TEMP-STP_Motor_IR/main.c **** 
  77:../8-LCD-TEMP-STP_Motor_IR/main.c **** // Animação no visor:
  78:../8-LCD-TEMP-STP_Motor_IR/main.c **** 	disp_text("----------------", 0 ,0);
  79:../8-LCD-TEMP-STP_Motor_IR/main.c **** 	disp_text("================", 1, 0);
  80:../8-LCD-TEMP-STP_Motor_IR/main.c **** 
  81:../8-LCD-TEMP-STP_Motor_IR/main.c **** 	for (u8 i=0 ; i<16 ; i++){
  82:../8-LCD-TEMP-STP_Motor_IR/main.c **** 		__delay_ms(VEL_ANIMACAO);
  83:../8-LCD-TEMP-STP_Motor_IR/main.c **** 		disp_text("=", 0 ,i);
  84:../8-LCD-TEMP-STP_Motor_IR/main.c **** 		disp_text("-", 1 , 16 - i);
  85:../8-LCD-TEMP-STP_Motor_IR/main.c **** 	}
ARM GAS  /tmp/cc4r6sqw.s 			page 4


  86:../8-LCD-TEMP-STP_Motor_IR/main.c **** 	__delay_ms(VEL_ANIMACAO); 
  87:../8-LCD-TEMP-STP_Motor_IR/main.c **** 	disp_clear();
  88:../8-LCD-TEMP-STP_Motor_IR/main.c **** }
  89:../8-LCD-TEMP-STP_Motor_IR/main.c **** 
  90:../8-LCD-TEMP-STP_Motor_IR/main.c **** static void task1(void *args __attribute((unused))) {
  91:../8-LCD-TEMP-STP_Motor_IR/main.c **** 
  92:../8-LCD-TEMP-STP_Motor_IR/main.c **** 	/* [2---]
  93:../8-LCD-TEMP-STP_Motor_IR/main.c **** 	 *
  94:../8-LCD-TEMP-STP_Motor_IR/main.c **** 	 * Tarefa dedicada em mostrar informações no LCD 16x2.
  95:../8-LCD-TEMP-STP_Motor_IR/main.c **** 	 * Informações de temperatura, ficando aberto para mais
  96:../8-LCD-TEMP-STP_Motor_IR/main.c **** 	 * funcionalidades
  97:../8-LCD-TEMP-STP_Motor_IR/main.c **** 	 * 
  98:../8-LCD-TEMP-STP_Motor_IR/main.c **** 	 * */
  99:../8-LCD-TEMP-STP_Motor_IR/main.c **** 
 100:../8-LCD-TEMP-STP_Motor_IR/main.c **** 	LCD16x2_init();
 101:../8-LCD-TEMP-STP_Motor_IR/main.c **** 	RCC->APB2ENR |= 1<<3;
 102:../8-LCD-TEMP-STP_Motor_IR/main.c **** 	GPIOB->CRH |= 0x4<<0; // Input Pull
 103:../8-LCD-TEMP-STP_Motor_IR/main.c **** 	GPIOB->ODR |= 1<<8; // Pull-up
 104:../8-LCD-TEMP-STP_Motor_IR/main.c **** 	int msg_buf_rev, BUFF = 0;
 105:../8-LCD-TEMP-STP_Motor_IR/main.c **** 
 106:../8-LCD-TEMP-STP_Motor_IR/main.c **** 	char Float_point[6];
 107:../8-LCD-TEMP-STP_Motor_IR/main.c **** 	u8 ent_atual=1;
 108:../8-LCD-TEMP-STP_Motor_IR/main.c **** 
 109:../8-LCD-TEMP-STP_Motor_IR/main.c **** #define MAX_MENU 3
 110:../8-LCD-TEMP-STP_Motor_IR/main.c **** 
 111:../8-LCD-TEMP-STP_Motor_IR/main.c **** 	u8 RD = 0;
 112:../8-LCD-TEMP-STP_Motor_IR/main.c **** 	u32 code_ir;
 113:../8-LCD-TEMP-STP_Motor_IR/main.c **** 	char word_IR[8];
 114:../8-LCD-TEMP-STP_Motor_IR/main.c **** 
 115:../8-LCD-TEMP-STP_Motor_IR/main.c **** 	while(1){
 116:../8-LCD-TEMP-STP_Motor_IR/main.c **** // ----------- FILAS
 117:../8-LCD-TEMP-STP_Motor_IR/main.c **** 		if (xQueueReceive(LCD_Show_queue, 
 118:../8-LCD-TEMP-STP_Motor_IR/main.c **** 					&msg_buf_rev, pdMS_TO_TICKS(10)))
 119:../8-LCD-TEMP-STP_Motor_IR/main.c **** 			BUFF = msg_buf_rev;
 120:../8-LCD-TEMP-STP_Motor_IR/main.c **** 
 121:../8-LCD-TEMP-STP_Motor_IR/main.c **** 
 122:../8-LCD-TEMP-STP_Motor_IR/main.c **** 		code_ir = 0xffffff;
 123:../8-LCD-TEMP-STP_Motor_IR/main.c **** 		if (xQueuePeek(STMotor_queue, &code_ir, pdMS_TO_TICKS(10)))
 124:../8-LCD-TEMP-STP_Motor_IR/main.c **** 			itoa (code_ir, word_IR, 16);
 125:../8-LCD-TEMP-STP_Motor_IR/main.c **** 
 126:../8-LCD-TEMP-STP_Motor_IR/main.c **** // ----------- FILAS
 127:../8-LCD-TEMP-STP_Motor_IR/main.c **** 
 128:../8-LCD-TEMP-STP_Motor_IR/main.c **** 		while (RD > 12){
 129:../8-LCD-TEMP-STP_Motor_IR/main.c **** 			
 130:../8-LCD-TEMP-STP_Motor_IR/main.c **** 		RD = 0;
 131:../8-LCD-TEMP-STP_Motor_IR/main.c **** 		disp_clear();
 132:../8-LCD-TEMP-STP_Motor_IR/main.c **** 		} RD ++;
 133:../8-LCD-TEMP-STP_Motor_IR/main.c **** 
 134:../8-LCD-TEMP-STP_Motor_IR/main.c **** 
 135:../8-LCD-TEMP-STP_Motor_IR/main.c **** 
 136:../8-LCD-TEMP-STP_Motor_IR/main.c **** 		if ((GPIOB->IDR & (1<<8)) || code_ir == CR_B4){{
 137:../8-LCD-TEMP-STP_Motor_IR/main.c **** 			ent_atual ++;
 138:../8-LCD-TEMP-STP_Motor_IR/main.c **** 		}
 139:../8-LCD-TEMP-STP_Motor_IR/main.c **** 
 140:../8-LCD-TEMP-STP_Motor_IR/main.c **** 		if (ent_atual > MAX_MENU )
 141:../8-LCD-TEMP-STP_Motor_IR/main.c **** 			ent_atual = 1;
 142:../8-LCD-TEMP-STP_Motor_IR/main.c **** 		disp_clear();
ARM GAS  /tmp/cc4r6sqw.s 			page 5


 143:../8-LCD-TEMP-STP_Motor_IR/main.c **** 		}
 144:../8-LCD-TEMP-STP_Motor_IR/main.c **** 
 145:../8-LCD-TEMP-STP_Motor_IR/main.c **** 
 146:../8-LCD-TEMP-STP_Motor_IR/main.c **** 
 147:../8-LCD-TEMP-STP_Motor_IR/main.c **** 		if (ent_atual == 1 ){
 148:../8-LCD-TEMP-STP_Motor_IR/main.c **** 				disp_text("Temperatura - C", 0, 0); 
 149:../8-LCD-TEMP-STP_Motor_IR/main.c **** 
 150:../8-LCD-TEMP-STP_Motor_IR/main.c **** 				floatToString((float) BUFF * ADC_Const, Float_point, 2);
 151:../8-LCD-TEMP-STP_Motor_IR/main.c **** 				disp_text(Float_point, 1, 6);
 152:../8-LCD-TEMP-STP_Motor_IR/main.c **** 		} 
 153:../8-LCD-TEMP-STP_Motor_IR/main.c **** 		if (ent_atual == 2 ){
 154:../8-LCD-TEMP-STP_Motor_IR/main.c **** 			disp_text("----------------", 0 ,0);
 155:../8-LCD-TEMP-STP_Motor_IR/main.c **** 			disp_text("================", 1, 0);
 156:../8-LCD-TEMP-STP_Motor_IR/main.c **** 
 157:../8-LCD-TEMP-STP_Motor_IR/main.c **** 			for (u8 i=0 ; i<16 ; i++){
 158:../8-LCD-TEMP-STP_Motor_IR/main.c **** 				__delay_ms(10);
 159:../8-LCD-TEMP-STP_Motor_IR/main.c **** 				disp_text("=", 0 ,i);
 160:../8-LCD-TEMP-STP_Motor_IR/main.c **** 				disp_text("-", 1 , 15 - i);
 161:../8-LCD-TEMP-STP_Motor_IR/main.c **** 			}
 162:../8-LCD-TEMP-STP_Motor_IR/main.c **** 		}
 163:../8-LCD-TEMP-STP_Motor_IR/main.c **** 
 164:../8-LCD-TEMP-STP_Motor_IR/main.c **** 		if (ent_atual == 3 ){
 165:../8-LCD-TEMP-STP_Motor_IR/main.c **** 			disp_text("--- IR Hex Code", 0, 0); 
 166:../8-LCD-TEMP-STP_Motor_IR/main.c **** 			disp_text( word_IR, 1, 4);
 167:../8-LCD-TEMP-STP_Motor_IR/main.c **** 			__delay_ms(100);
 168:../8-LCD-TEMP-STP_Motor_IR/main.c **** 		}
 169:../8-LCD-TEMP-STP_Motor_IR/main.c **** 	}
 170:../8-LCD-TEMP-STP_Motor_IR/main.c **** }
 171:../8-LCD-TEMP-STP_Motor_IR/main.c **** 
 172:../8-LCD-TEMP-STP_Motor_IR/main.c **** static void task2(void *args __attribute ((unused))){
  87              		.loc 1 172 53 view -0
  88              		.cfi_startproc
  89              		@ Volatile: function does not return.
  90              		@ args = 0, pretend = 0, frame = 0
  91              		@ frame_needed = 0, uses_anonymous_args = 0
 173:../8-LCD-TEMP-STP_Motor_IR/main.c **** 	RCC->APB2ENR |= (1<<4); // En GPIOC
  92              		.loc 1 173 2 view .LVU1
  93              	@ ../8-LCD-TEMP-STP_Motor_IR/main.c:173: 	RCC->APB2ENR |= (1<<4); // En GPIOC
  94              		.loc 1 173 15 is_stmt 0 view .LVU2
  95 0000 094A     		ldr	r2, .L3	@ tmp120,
  96              	@ ../8-LCD-TEMP-STP_Motor_IR/main.c:172: static void task2(void *args __attribute ((unused))){
 172:../8-LCD-TEMP-STP_Motor_IR/main.c **** 	RCC->APB2ENR |= (1<<4); // En GPIOC
  97              		.loc 1 172 53 view .LVU3
  98 0002 08B5     		push	{r3, lr}	@
  99              	.LCFI0:
 100              		.cfi_def_cfa_offset 8
 101              		.cfi_offset 3, -8
 102              		.cfi_offset 14, -4
 103              	@ ../8-LCD-TEMP-STP_Motor_IR/main.c:173: 	RCC->APB2ENR |= (1<<4); // En GPIOC
 104              		.loc 1 173 15 view .LVU4
 105 0004 9369     		ldr	r3, [r2, #24]	@ _1, MEM[(struct RCC_TypeDef *)1073876992B].APB2ENR
 106              	@ ../8-LCD-TEMP-STP_Motor_IR/main.c:174: 	GPIOC->CRH	|= (0b11<< 20); // PC13 out PP 
 174:../8-LCD-TEMP-STP_Motor_IR/main.c **** 	GPIOC->CRH	|= (0b11<< 20); // PC13 out PP 
 107              		.loc 1 174 13 view .LVU5
 108 0006 094C     		ldr	r4, .L3+4	@ tmp122,
 109              	@ ../8-LCD-TEMP-STP_Motor_IR/main.c:173: 	RCC->APB2ENR |= (1<<4); // En GPIOC
 173:../8-LCD-TEMP-STP_Motor_IR/main.c **** 	RCC->APB2ENR |= (1<<4); // En GPIOC
ARM GAS  /tmp/cc4r6sqw.s 			page 6


 110              		.loc 1 173 15 view .LVU6
 111 0008 43F01003 		orr	r3, r3, #16	@ _2, _1,
 112 000c 9361     		str	r3, [r2, #24]	@ _2, MEM[(struct RCC_TypeDef *)1073876992B].APB2ENR
 113              		.loc 1 174 2 is_stmt 1 view .LVU7
 114              	@ ../8-LCD-TEMP-STP_Motor_IR/main.c:174: 	GPIOC->CRH	|= (0b11<< 20); // PC13 out PP 
 115              		.loc 1 174 13 is_stmt 0 view .LVU8
 116 000e 6368     		ldr	r3, [r4, #4]	@ _3, MEM[(struct GPIO_TypeDef *)1073811456B].CRH
 117 0010 43F44013 		orr	r3, r3, #3145728	@ _4, _3,
 118 0014 6360     		str	r3, [r4, #4]	@ _4, MEM[(struct GPIO_TypeDef *)1073811456B].CRH
 119              	.LVL1:
 120              	.L2:
 175:../8-LCD-TEMP-STP_Motor_IR/main.c **** 
 176:../8-LCD-TEMP-STP_Motor_IR/main.c **** 	while(1){
 121              		.loc 1 176 2 is_stmt 1 discriminator 1 view .LVU9
 177:../8-LCD-TEMP-STP_Motor_IR/main.c **** 		GPIOC->ODR	^= (1<<13);
 122              		.loc 1 177 3 discriminator 1 view .LVU10
 123              	@ ../8-LCD-TEMP-STP_Motor_IR/main.c:177: 		GPIOC->ODR	^= (1<<13);
 124              		.loc 1 177 14 is_stmt 0 discriminator 1 view .LVU11
 125 0016 E368     		ldr	r3, [r4, #12]	@ _5, MEM[(struct GPIO_TypeDef *)1073811456B].ODR
 126              	@ ../8-LCD-TEMP-STP_Motor_IR/main.c:178: 		__delay_ms(50);
 178:../8-LCD-TEMP-STP_Motor_IR/main.c **** 		__delay_ms(50);
 127              		.loc 1 178 3 discriminator 1 view .LVU12
 128 0018 41F28830 		movw	r0, #5000	@,
 129              	@ ../8-LCD-TEMP-STP_Motor_IR/main.c:177: 		GPIOC->ODR	^= (1<<13);
 177:../8-LCD-TEMP-STP_Motor_IR/main.c **** 		GPIOC->ODR	^= (1<<13);
 130              		.loc 1 177 14 discriminator 1 view .LVU13
 131 001c 83F40053 		eor	r3, r3, #8192	@ _6, _5,
 132 0020 E360     		str	r3, [r4, #12]	@ _6, MEM[(struct GPIO_TypeDef *)1073811456B].ODR
 133              		.loc 1 178 3 is_stmt 1 discriminator 1 view .LVU14
 134 0022 FFF7FEFF 		bl	vTaskDelay		@
 135              	.LVL2:
 176:../8-LCD-TEMP-STP_Motor_IR/main.c **** 		GPIOC->ODR	^= (1<<13);
 136              		.loc 1 176 7 discriminator 1 view .LVU15
 137 0026 F6E7     		b	.L2		@
 138              	.L4:
 139              		.align	2
 140              	.L3:
 141 0028 00100240 		.word	1073876992
 142 002c 00100140 		.word	1073811456
 143              		.cfi_endproc
 144              	.LFE53:
 145              		.size	task2, .-task2
 146              		.align	1
 147              		.syntax unified
 148              		.thumb
 149              		.thumb_func
 150              		.type	task6, %function
 151              	task6:
 152              	.LVL3:
 153              	.LFB57:
 179:../8-LCD-TEMP-STP_Motor_IR/main.c **** 	}
 180:../8-LCD-TEMP-STP_Motor_IR/main.c **** }
 181:../8-LCD-TEMP-STP_Motor_IR/main.c **** 
 182:../8-LCD-TEMP-STP_Motor_IR/main.c **** 
 183:../8-LCD-TEMP-STP_Motor_IR/main.c ****  void task3(void *args __attribute ((unused))){
 184:../8-LCD-TEMP-STP_Motor_IR/main.c **** 	/* [1---]
 185:../8-LCD-TEMP-STP_Motor_IR/main.c **** 	 *
ARM GAS  /tmp/cc4r6sqw.s 			page 7


 186:../8-LCD-TEMP-STP_Motor_IR/main.c **** 	 * Tarefa dedicada a leitura do sensor de temperatura
 187:../8-LCD-TEMP-STP_Motor_IR/main.c **** 	 * usando ADC9 -> PB1
 188:../8-LCD-TEMP-STP_Motor_IR/main.c **** 	 *
 189:../8-LCD-TEMP-STP_Motor_IR/main.c **** 	 * O valor amostrado deve ser transmitido a cada 500ms
 190:../8-LCD-TEMP-STP_Motor_IR/main.c **** 	 * usando área de memória compartilhada. -> [2---]
 191:../8-LCD-TEMP-STP_Motor_IR/main.c **** 	 *
 192:../8-LCD-TEMP-STP_Motor_IR/main.c **** 	 * */
 193:../8-LCD-TEMP-STP_Motor_IR/main.c **** 
 194:../8-LCD-TEMP-STP_Motor_IR/main.c **** 	ADC9_Configuration();
 195:../8-LCD-TEMP-STP_Motor_IR/main.c **** 	u32 Valor_ADC_normalizado; 
 196:../8-LCD-TEMP-STP_Motor_IR/main.c **** 
 197:../8-LCD-TEMP-STP_Motor_IR/main.c **** 	while(1){
 198:../8-LCD-TEMP-STP_Motor_IR/main.c **** 
 199:../8-LCD-TEMP-STP_Motor_IR/main.c **** 		Valor_ADC_normalizado = ADC2->DR;
 200:../8-LCD-TEMP-STP_Motor_IR/main.c **** 
 201:../8-LCD-TEMP-STP_Motor_IR/main.c **** 		if(uxQueueMessagesWaiting(LCD_Show_queue) <= ELEMENTOS_FILA_LCD){
 202:../8-LCD-TEMP-STP_Motor_IR/main.c **** 				xQueueSend(LCD_Show_queue, &Valor_ADC_normalizado, pdMS_TO_TICKS(10));
 203:../8-LCD-TEMP-STP_Motor_IR/main.c **** 		}
 204:../8-LCD-TEMP-STP_Motor_IR/main.c **** 		__delay_ms(500);
 205:../8-LCD-TEMP-STP_Motor_IR/main.c **** 		
 206:../8-LCD-TEMP-STP_Motor_IR/main.c **** 	}
 207:../8-LCD-TEMP-STP_Motor_IR/main.c **** }
 208:../8-LCD-TEMP-STP_Motor_IR/main.c **** 
 209:../8-LCD-TEMP-STP_Motor_IR/main.c **** static void task4(void *args __attribute ((unused))){
 210:../8-LCD-TEMP-STP_Motor_IR/main.c **** 	/* 
 211:../8-LCD-TEMP-STP_Motor_IR/main.c **** 	 * Tarefa dedicada a controlar um motor de passos usando
 212:../8-LCD-TEMP-STP_Motor_IR/main.c **** 	 * os pinos PB 15, 14, 13 e 12 
 213:../8-LCD-TEMP-STP_Motor_IR/main.c **** 	 *
 214:../8-LCD-TEMP-STP_Motor_IR/main.c **** 	 * A sequência deve ser mantida por causa da manipulação
 215:../8-LCD-TEMP-STP_Motor_IR/main.c **** 	 * bit a bit, definida no arquivo de cabeçalho Me.h
 216:../8-LCD-TEMP-STP_Motor_IR/main.c **** 	 *
 217:../8-LCD-TEMP-STP_Motor_IR/main.c **** 	 * Essa função receberá comandos da tarefa 5 -
 218:../8-LCD-TEMP-STP_Motor_IR/main.c **** 	 * decodificadora de infravermelho. 
 219:../8-LCD-TEMP-STP_Motor_IR/main.c **** 	 *
 220:../8-LCD-TEMP-STP_Motor_IR/main.c **** 	 * */
 221:../8-LCD-TEMP-STP_Motor_IR/main.c **** 
 222:../8-LCD-TEMP-STP_Motor_IR/main.c **** 	RCC->APB2ENR |= (1<<3); // En GPIOC
 223:../8-LCD-TEMP-STP_Motor_IR/main.c **** 	GPIOB->CRH	|= (0x3333<< 16); 
 224:../8-LCD-TEMP-STP_Motor_IR/main.c **** 	u32 code_ir; 
 225:../8-LCD-TEMP-STP_Motor_IR/main.c **** 
 226:../8-LCD-TEMP-STP_Motor_IR/main.c **** #define STP 6
 227:../8-LCD-TEMP-STP_Motor_IR/main.c **** 
 228:../8-LCD-TEMP-STP_Motor_IR/main.c **** 	while(1){
 229:../8-LCD-TEMP-STP_Motor_IR/main.c **** 		if (xQueueReceive(STMotor_queue, &code_ir, pdMS_TO_TICKS(10))) {
 230:../8-LCD-TEMP-STP_Motor_IR/main.c **** 
 231:../8-LCD-TEMP-STP_Motor_IR/main.c **** 			if (code_ir == CR_B7){
 232:../8-LCD-TEMP-STP_Motor_IR/main.c **** 				for (u32 i=0 ; i<=STP *360 ; i++){
 233:../8-LCD-TEMP-STP_Motor_IR/main.c **** 					controlarMotorPasso(i);
 234:../8-LCD-TEMP-STP_Motor_IR/main.c **** 					__delay(140);
 235:../8-LCD-TEMP-STP_Motor_IR/main.c **** 				}
 236:../8-LCD-TEMP-STP_Motor_IR/main.c **** 			}
 237:../8-LCD-TEMP-STP_Motor_IR/main.c **** 			if (code_ir == CR_B9){
 238:../8-LCD-TEMP-STP_Motor_IR/main.c **** 				for (u32 i=STP  *360+90 ; i>0 ; i--){
 239:../8-LCD-TEMP-STP_Motor_IR/main.c **** 					controlarMotorPasso(i);
 240:../8-LCD-TEMP-STP_Motor_IR/main.c **** 					__delay(130);
 241:../8-LCD-TEMP-STP_Motor_IR/main.c **** 				}
 242:../8-LCD-TEMP-STP_Motor_IR/main.c **** 				
ARM GAS  /tmp/cc4r6sqw.s 			page 8


 243:../8-LCD-TEMP-STP_Motor_IR/main.c **** 			}
 244:../8-LCD-TEMP-STP_Motor_IR/main.c **** 				// Stepp_end();
 245:../8-LCD-TEMP-STP_Motor_IR/main.c **** 		}
 246:../8-LCD-TEMP-STP_Motor_IR/main.c **** 	}
 247:../8-LCD-TEMP-STP_Motor_IR/main.c **** 
 248:../8-LCD-TEMP-STP_Motor_IR/main.c **** }
 249:../8-LCD-TEMP-STP_Motor_IR/main.c **** 
 250:../8-LCD-TEMP-STP_Motor_IR/main.c **** static void task5(void *args __attribute ((unused))){
 251:../8-LCD-TEMP-STP_Motor_IR/main.c **** 
 252:../8-LCD-TEMP-STP_Motor_IR/main.c **** 	/*
 253:../8-LCD-TEMP-STP_Motor_IR/main.c **** 	 * Tarefa responsável por decodificar dados recebido por
 254:../8-LCD-TEMP-STP_Motor_IR/main.c **** 	 * um sensor IR, localizado em:
 255:../8-LCD-TEMP-STP_Motor_IR/main.c **** 	 *		 PB6 
 256:../8-LCD-TEMP-STP_Motor_IR/main.c **** 	 *
 257:../8-LCD-TEMP-STP_Motor_IR/main.c **** 	 * Essa função enviará também, comandos para o display de
 258:../8-LCD-TEMP-STP_Motor_IR/main.c **** 	 * forma secundária, usando o 
 259:../8-LCD-TEMP-STP_Motor_IR/main.c **** 	 *		xQueuePeek para inspecionar a fila sem remover os
 260:../8-LCD-TEMP-STP_Motor_IR/main.c **** 	 *		dados
 261:../8-LCD-TEMP-STP_Motor_IR/main.c **** 	 *
 262:../8-LCD-TEMP-STP_Motor_IR/main.c **** 	 *	Para facilitar a idendificação dos códigos, será
 263:../8-LCD-TEMP-STP_Motor_IR/main.c **** 	 *	enviado pela USART
 264:../8-LCD-TEMP-STP_Motor_IR/main.c **** 	 * */
 265:../8-LCD-TEMP-STP_Motor_IR/main.c **** 
 266:../8-LCD-TEMP-STP_Motor_IR/main.c **** 	USART_init();
 267:../8-LCD-TEMP-STP_Motor_IR/main.c **** 	IR_Init();
 268:../8-LCD-TEMP-STP_Motor_IR/main.c **** 	char word_IR[8];
 269:../8-LCD-TEMP-STP_Motor_IR/main.c **** 
 270:../8-LCD-TEMP-STP_Motor_IR/main.c **** 	u32 code_ir;
 271:../8-LCD-TEMP-STP_Motor_IR/main.c **** 
 272:../8-LCD-TEMP-STP_Motor_IR/main.c **** 	while(1){
 273:../8-LCD-TEMP-STP_Motor_IR/main.c **** 		code_ir = 0xFFFFFFFF;
 274:../8-LCD-TEMP-STP_Motor_IR/main.c **** 		code_ir = IR_Read();
 275:../8-LCD-TEMP-STP_Motor_IR/main.c **** 		
 276:../8-LCD-TEMP-STP_Motor_IR/main.c **** 		// Converte os dados numéricos para string
 277:../8-LCD-TEMP-STP_Motor_IR/main.c **** 		// itoa (code_ir, word_IR, 10); 
 278:../8-LCD-TEMP-STP_Motor_IR/main.c **** 
 279:../8-LCD-TEMP-STP_Motor_IR/main.c **** 		if (code_ir != 0xffffffff){
 280:../8-LCD-TEMP-STP_Motor_IR/main.c **** 
 281:../8-LCD-TEMP-STP_Motor_IR/main.c **** 			USARTSend("\r\nCodigo: 0x");
 282:../8-LCD-TEMP-STP_Motor_IR/main.c **** 			itoa (code_ir, word_IR, 16);
 283:../8-LCD-TEMP-STP_Motor_IR/main.c **** 			USARTSend(word_IR);
 284:../8-LCD-TEMP-STP_Motor_IR/main.c **** 			
 285:../8-LCD-TEMP-STP_Motor_IR/main.c **** 			if (code_ir == CR_B7 || code_ir == CR_NUM_0){
 286:../8-LCD-TEMP-STP_Motor_IR/main.c **** 				// Testa se a fila está cheia
 287:../8-LCD-TEMP-STP_Motor_IR/main.c **** 				if( uxQueueMessagesWaiting( STMotor_queue ) <= ELEMENTOS_FILA_SM ){
 288:../8-LCD-TEMP-STP_Motor_IR/main.c **** 					xQueueSend(STMotor_queue, &code_ir, pdMS_TO_TICKS(10));
 289:../8-LCD-TEMP-STP_Motor_IR/main.c **** 				}
 290:../8-LCD-TEMP-STP_Motor_IR/main.c **** 			}
 291:../8-LCD-TEMP-STP_Motor_IR/main.c **** 
 292:../8-LCD-TEMP-STP_Motor_IR/main.c **** 			if (code_ir == CR_NUM_4 || code_ir == CR_NUM_1){
 293:../8-LCD-TEMP-STP_Motor_IR/main.c **** 				// Testa se a fila está cheia
 294:../8-LCD-TEMP-STP_Motor_IR/main.c **** 				if( uxQueueMessagesWaiting( PWM_data_queue ) <= ELEMENTOS_FILA_PWM ){
 295:../8-LCD-TEMP-STP_Motor_IR/main.c **** 					xQueueSend(PWM_data_queue, &code_ir, pdMS_TO_TICKS(10));
 296:../8-LCD-TEMP-STP_Motor_IR/main.c **** 			}
 297:../8-LCD-TEMP-STP_Motor_IR/main.c **** 		 }
 298:../8-LCD-TEMP-STP_Motor_IR/main.c **** 	  }
 299:../8-LCD-TEMP-STP_Motor_IR/main.c **** 		__delay(250);
ARM GAS  /tmp/cc4r6sqw.s 			page 9


 300:../8-LCD-TEMP-STP_Motor_IR/main.c **** 	}
 301:../8-LCD-TEMP-STP_Motor_IR/main.c **** }
 302:../8-LCD-TEMP-STP_Motor_IR/main.c **** 
 303:../8-LCD-TEMP-STP_Motor_IR/main.c **** static void task6(void *args __attribute((unused))) {
 154              		.loc 1 303 53 view -0
 155              		.cfi_startproc
 156              		@ args = 0, pretend = 0, frame = 8
 157              		@ frame_needed = 0, uses_anonymous_args = 0
 304:../8-LCD-TEMP-STP_Motor_IR/main.c **** 	// configure_PWM_TIM2();
 305:../8-LCD-TEMP-STP_Motor_IR/main.c ****    GPIOB->CRH &= ~(0xf << 8 ); // ip analogico PA10
 158              		.loc 1 305 4 view .LVU17
 159              	@ ../8-LCD-TEMP-STP_Motor_IR/main.c:303: static void task6(void *args __attribute((unused))) {
 303:../8-LCD-TEMP-STP_Motor_IR/main.c **** 	// configure_PWM_TIM2();
 160              		.loc 1 303 53 is_stmt 0 view .LVU18
 161 0030 F7B5     		push	{r0, r1, r2, r4, r5, r6, r7, lr}	@
 162              	.LCFI1:
 163              		.cfi_def_cfa_offset 32
 164              		.cfi_offset 4, -20
 165              		.cfi_offset 5, -16
 166              		.cfi_offset 6, -12
 167              		.cfi_offset 7, -8
 168              		.cfi_offset 14, -4
 169              	@ ../8-LCD-TEMP-STP_Motor_IR/main.c:305:    GPIOB->CRH &= ~(0xf << 8 ); // ip analogico PA10
 170              		.loc 1 305 15 view .LVU19
 171 0032 124A     		ldr	r2, .L14	@ tmp120,
 172              	@ ../8-LCD-TEMP-STP_Motor_IR/main.c:309:    u16 cicle_duty = 0xfff /2; 
 306:../8-LCD-TEMP-STP_Motor_IR/main.c **** 
 307:../8-LCD-TEMP-STP_Motor_IR/main.c **** 	u32 code_ir = 0x0; 
 308:../8-LCD-TEMP-STP_Motor_IR/main.c **** 
 309:../8-LCD-TEMP-STP_Motor_IR/main.c ****    u16 cicle_duty = 0xfff /2; 
 173              		.loc 1 309 8 view .LVU20
 174 0034 40F2FF74 		movw	r4, #2047	@ cicle_duty,
 175              	@ ../8-LCD-TEMP-STP_Motor_IR/main.c:305:    GPIOB->CRH &= ~(0xf << 8 ); // ip analogico PA10
 305:../8-LCD-TEMP-STP_Motor_IR/main.c **** 
 176              		.loc 1 305 15 view .LVU21
 177 0038 5368     		ldr	r3, [r2, #4]	@ _1, MEM[(struct GPIO_TypeDef *)1073810432B].CRH
 178              	@ ../8-LCD-TEMP-STP_Motor_IR/main.c:313: 		if ( xQueueReceive(PWM_data_queue, &code_ir, pdMS_TO_TIC
 310:../8-LCD-TEMP-STP_Motor_IR/main.c **** 		// TIM2->CCR1 = vpwm; 
 311:../8-LCD-TEMP-STP_Motor_IR/main.c **** 
 312:../8-LCD-TEMP-STP_Motor_IR/main.c ****    while(1){
 313:../8-LCD-TEMP-STP_Motor_IR/main.c **** 		if ( xQueueReceive(PWM_data_queue, &code_ir, pdMS_TO_TICKS(10))) {
 179              		.loc 1 313 8 view .LVU22
 180 003a 114D     		ldr	r5, .L14+4	@ tmp124,
 181              	@ ../8-LCD-TEMP-STP_Motor_IR/main.c:305:    GPIOB->CRH &= ~(0xf << 8 ); // ip analogico PA10
 305:../8-LCD-TEMP-STP_Motor_IR/main.c **** 
 182              		.loc 1 305 15 view .LVU23
 183 003c 23F47063 		bic	r3, r3, #3840	@ _2, _1,
 184 0040 5360     		str	r3, [r2, #4]	@ _2, MEM[(struct GPIO_TypeDef *)1073810432B].CRH
 307:../8-LCD-TEMP-STP_Motor_IR/main.c **** 
 185              		.loc 1 307 2 is_stmt 1 view .LVU24
 186              	@ ../8-LCD-TEMP-STP_Motor_IR/main.c:307: 	u32 code_ir = 0x0; 
 307:../8-LCD-TEMP-STP_Motor_IR/main.c **** 
 187              		.loc 1 307 6 is_stmt 0 view .LVU25
 188 0042 0023     		movs	r3, #0	@ tmp122,
 189              	@ ../8-LCD-TEMP-STP_Motor_IR/main.c:315: 			if( code_ir == CR_NUM_4)
 314:../8-LCD-TEMP-STP_Motor_IR/main.c **** 
 315:../8-LCD-TEMP-STP_Motor_IR/main.c **** 			if( code_ir == CR_NUM_4)
ARM GAS  /tmp/cc4r6sqw.s 			page 10


 190              		.loc 1 315 6 view .LVU26
 191 0044 0F4E     		ldr	r6, .L14+8	@ tmp134,
 192              	@ ../8-LCD-TEMP-STP_Motor_IR/main.c:318: 			if( code_ir == CR_NUM_1)
 316:../8-LCD-TEMP-STP_Motor_IR/main.c **** 				 cicle_duty +=3;
 317:../8-LCD-TEMP-STP_Motor_IR/main.c **** 
 318:../8-LCD-TEMP-STP_Motor_IR/main.c **** 			if( code_ir == CR_NUM_1)
 193              		.loc 1 318 6 view .LVU27
 194 0046 104F     		ldr	r7, .L14+12	@ tmp135,
 195              	@ ../8-LCD-TEMP-STP_Motor_IR/main.c:307: 	u32 code_ir = 0x0; 
 307:../8-LCD-TEMP-STP_Motor_IR/main.c **** 
 196              		.loc 1 307 6 view .LVU28
 197 0048 0193     		str	r3, [sp, #4]	@ tmp122, code_ir
 309:../8-LCD-TEMP-STP_Motor_IR/main.c **** 		// TIM2->CCR1 = vpwm; 
 198              		.loc 1 309 4 is_stmt 1 view .LVU29
 199              	.LVL4:
 200              	.L9:
 312:../8-LCD-TEMP-STP_Motor_IR/main.c **** 		if ( xQueueReceive(PWM_data_queue, &code_ir, pdMS_TO_TICKS(10))) {
 201              		.loc 1 312 4 view .LVU30
 313:../8-LCD-TEMP-STP_Motor_IR/main.c **** 
 202              		.loc 1 313 3 view .LVU31
 203              	@ ../8-LCD-TEMP-STP_Motor_IR/main.c:313: 		if ( xQueueReceive(PWM_data_queue, &code_ir, pdMS_TO_TIC
 313:../8-LCD-TEMP-STP_Motor_IR/main.c **** 
 204              		.loc 1 313 8 is_stmt 0 view .LVU32
 205 004a 4FF47A72 		mov	r2, #1000	@,
 206 004e 2868     		ldr	r0, [r5]	@, PWM_data_queue
 207 0050 01A9     		add	r1, sp, #4	@,,
 208 0052 FFF7FEFF 		bl	xQueueReceive		@
 209              	.LVL5:
 210              	@ ../8-LCD-TEMP-STP_Motor_IR/main.c:313: 		if ( xQueueReceive(PWM_data_queue, &code_ir, pdMS_TO_TIC
 313:../8-LCD-TEMP-STP_Motor_IR/main.c **** 
 211              		.loc 1 313 6 view .LVU33
 212 0056 48B1     		cbz	r0, .L6	@ tmp136,
 315:../8-LCD-TEMP-STP_Motor_IR/main.c **** 				 cicle_duty +=3;
 213              		.loc 1 315 4 is_stmt 1 view .LVU34
 214              	@ ../8-LCD-TEMP-STP_Motor_IR/main.c:315: 			if( code_ir == CR_NUM_4)
 315:../8-LCD-TEMP-STP_Motor_IR/main.c **** 				 cicle_duty +=3;
 215              		.loc 1 315 16 is_stmt 0 view .LVU35
 216 0058 019B     		ldr	r3, [sp, #4]	@ code_ir.17_5, code_ir
 217              	@ ../8-LCD-TEMP-STP_Motor_IR/main.c:315: 			if( code_ir == CR_NUM_4)
 315:../8-LCD-TEMP-STP_Motor_IR/main.c **** 				 cicle_duty +=3;
 218              		.loc 1 315 6 view .LVU36
 219 005a B342     		cmp	r3, r6	@ code_ir.17_5, tmp134
 220 005c 0AD1     		bne	.L7		@,
 316:../8-LCD-TEMP-STP_Motor_IR/main.c **** 
 221              		.loc 1 316 6 is_stmt 1 view .LVU37
 222              	@ ../8-LCD-TEMP-STP_Motor_IR/main.c:316: 				 cicle_duty +=3;
 316:../8-LCD-TEMP-STP_Motor_IR/main.c **** 
 223              		.loc 1 316 17 is_stmt 0 view .LVU38
 224 005e 0334     		adds	r4, r4, #3	@ tmp126, cicle_duty,
 225              	.LVL6:
 226              	.L13:
 227              	@ ../8-LCD-TEMP-STP_Motor_IR/main.c:319: 				 cicle_duty -=3;
 319:../8-LCD-TEMP-STP_Motor_IR/main.c **** 				 cicle_duty -=3;
 228              		.loc 1 319 17 view .LVU39
 229 0060 A4B2     		uxth	r4, r4	@ cicle_duty, tmp128
 230              	.LVL7:
 231              	.L8:
ARM GAS  /tmp/cc4r6sqw.s 			page 11


 320:../8-LCD-TEMP-STP_Motor_IR/main.c **** 
 321:../8-LCD-TEMP-STP_Motor_IR/main.c **** 			if(cicle_duty >= 0xfff)
 232              		.loc 1 321 4 is_stmt 1 view .LVU40
 233              	@ ../8-LCD-TEMP-STP_Motor_IR/main.c:322: 				cicle_duty = 0;
 322:../8-LCD-TEMP-STP_Motor_IR/main.c **** 				cicle_duty = 0;
 234              		.loc 1 322 16 is_stmt 0 view .LVU41
 235 0062 40F6FE73 		movw	r3, #4094	@ tmp131,
 236 0066 9C42     		cmp	r4, r3	@ cicle_duty, tmp131
 237 0068 88BF     		it	hi		@
 238 006a 0024     		movhi	r4, #0	@, cicle_duty,
 239              	.LVL8:
 240              	.L6:
 323:../8-LCD-TEMP-STP_Motor_IR/main.c **** 		}
 324:../8-LCD-TEMP-STP_Motor_IR/main.c **** 
 325:../8-LCD-TEMP-STP_Motor_IR/main.c ****       
 326:../8-LCD-TEMP-STP_Motor_IR/main.c ****       TIM2->CCR1 = cicle_duty; 
 241              		.loc 1 326 7 is_stmt 1 view .LVU42
 242              	@ ../8-LCD-TEMP-STP_Motor_IR/main.c:326:       TIM2->CCR1 = cicle_duty; 
 243              		.loc 1 326 18 is_stmt 0 view .LVU43
 244 006c 4FF08043 		mov	r3, #1073741824	@ tmp132,
 245 0070 9C86     		strh	r4, [r3, #52]	@ movhi	@ cicle_duty, MEM[(struct TIM_TypeDef *)1073741824B].CCR1
 312:../8-LCD-TEMP-STP_Motor_IR/main.c **** 		if ( xQueueReceive(PWM_data_queue, &code_ir, pdMS_TO_TICKS(10))) {
 246              		.loc 1 312 9 is_stmt 1 view .LVU44
 247              	@ ../8-LCD-TEMP-STP_Motor_IR/main.c:313: 		if ( xQueueReceive(PWM_data_queue, &code_ir, pdMS_TO_TIC
 313:../8-LCD-TEMP-STP_Motor_IR/main.c **** 
 248              		.loc 1 313 6 is_stmt 0 view .LVU45
 249 0072 EAE7     		b	.L9		@
 250              	.L7:
 318:../8-LCD-TEMP-STP_Motor_IR/main.c **** 				 cicle_duty -=3;
 251              		.loc 1 318 4 is_stmt 1 view .LVU46
 252              	@ ../8-LCD-TEMP-STP_Motor_IR/main.c:318: 			if( code_ir == CR_NUM_1)
 318:../8-LCD-TEMP-STP_Motor_IR/main.c **** 				 cicle_duty -=3;
 253              		.loc 1 318 6 is_stmt 0 view .LVU47
 254 0074 BB42     		cmp	r3, r7	@ code_ir.17_5, tmp135
 255 0076 F4D1     		bne	.L8		@,
 319:../8-LCD-TEMP-STP_Motor_IR/main.c **** 
 256              		.loc 1 319 6 is_stmt 1 view .LVU48
 257              	@ ../8-LCD-TEMP-STP_Motor_IR/main.c:319: 				 cicle_duty -=3;
 319:../8-LCD-TEMP-STP_Motor_IR/main.c **** 
 258              		.loc 1 319 17 is_stmt 0 view .LVU49
 259 0078 033C     		subs	r4, r4, #3	@ tmp128, cicle_duty,
 260              	.LVL9:
 319:../8-LCD-TEMP-STP_Motor_IR/main.c **** 
 261              		.loc 1 319 17 view .LVU50
 262 007a F1E7     		b	.L13		@
 263              	.L15:
 264              		.align	2
 265              	.L14:
 266 007c 000C0140 		.word	1073810432
 267 0080 00000000 		.word	.LANCHOR0
 268 0084 F9FAE7FF 		.word	-1574151
 269 0088 B9FBE7FF 		.word	-1573959
 270              		.cfi_endproc
 271              	.LFE57:
 272              		.size	task6, .-task6
 273              		.align	1
 274              		.global	configure_PWM_TIM2
ARM GAS  /tmp/cc4r6sqw.s 			page 12


 275              		.syntax unified
 276              		.thumb
 277              		.thumb_func
 278              		.type	configure_PWM_TIM2, %function
 279              	configure_PWM_TIM2:
 280              	.LFB34:
 281              		.file 2 "../8-LCD-TEMP-STP_Motor_IR/Me.h"
   1:../8-LCD-TEMP-STP_Motor_IR/Me.h **** #include <math.h>
   2:../8-LCD-TEMP-STP_Motor_IR/Me.h **** #define __IO volatile
   3:../8-LCD-TEMP-STP_Motor_IR/Me.h **** 
   4:../8-LCD-TEMP-STP_Motor_IR/Me.h **** void SystemInit (void);
   5:../8-LCD-TEMP-STP_Motor_IR/Me.h **** void nvic_IntDisble(u8 IRQn);
   6:../8-LCD-TEMP-STP_Motor_IR/Me.h **** void nvic_intEnable(u8 IRQn);
   7:../8-LCD-TEMP-STP_Motor_IR/Me.h **** void set_system_clock_to_25Mhz (void);
   8:../8-LCD-TEMP-STP_Motor_IR/Me.h **** void set_system_clock_to_72Mhz(void);
   9:../8-LCD-TEMP-STP_Motor_IR/Me.h **** void Delay ( __IO u32 T );
  10:../8-LCD-TEMP-STP_Motor_IR/Me.h **** void enable_TIM3_delay (void);
  11:../8-LCD-TEMP-STP_Motor_IR/Me.h **** void ADC1_configure();
  12:../8-LCD-TEMP-STP_Motor_IR/Me.h **** 
  13:../8-LCD-TEMP-STP_Motor_IR/Me.h **** void configure_PWM_TIM2(){
 282              		.loc 2 13 26 is_stmt 1 view -0
 283              		.cfi_startproc
 284              		@ args = 0, pretend = 0, frame = 0
 285              		@ frame_needed = 0, uses_anonymous_args = 0
 286              		@ link register save eliminated.
  14:../8-LCD-TEMP-STP_Motor_IR/Me.h **** /* Configurado com o exemplo do datasheet pag "387 / 1136" */
  15:../8-LCD-TEMP-STP_Motor_IR/Me.h **** 
  16:../8-LCD-TEMP-STP_Motor_IR/Me.h ****    RCC->APB2ENR |= 0b101 << 0 ; /*Habilita o AFIO GPIOA */
 287              		.loc 2 16 4 view .LVU52
 288              	@ ../8-LCD-TEMP-STP_Motor_IR/Me.h:16:    RCC->APB2ENR |= 0b101 << 0 ; /*Habilita o AFIO GPIOA */
 289              		.loc 2 16 17 is_stmt 0 view .LVU53
 290 008c 284B     		ldr	r3, .L17	@ tmp141,
 291 008e 9A69     		ldr	r2, [r3, #24]	@ _1, MEM[(struct RCC_TypeDef *)1073876992B].APB2ENR
 292 0090 42F00502 		orr	r2, r2, #5	@ _2, _1,
 293 0094 9A61     		str	r2, [r3, #24]	@ _2, MEM[(struct RCC_TypeDef *)1073876992B].APB2ENR
  17:../8-LCD-TEMP-STP_Motor_IR/Me.h ****    RCC->APB1ENR |= 1 << 0; /*Habilita o TIMER 2 - CH na GPIO_A */
 294              		.loc 2 17 4 is_stmt 1 view .LVU54
 295              	@ ../8-LCD-TEMP-STP_Motor_IR/Me.h:17:    RCC->APB1ENR |= 1 << 0; /*Habilita o TIMER 2 - CH na GPIO_
 296              		.loc 2 17 17 is_stmt 0 view .LVU55
 297 0096 DA69     		ldr	r2, [r3, #28]	@ _3, MEM[(struct RCC_TypeDef *)1073876992B].APB1ENR
 298 0098 42F00102 		orr	r2, r2, #1	@ _4, _3,
 299 009c DA61     		str	r2, [r3, #28]	@ _4, MEM[(struct RCC_TypeDef *)1073876992B].APB1ENR
  18:../8-LCD-TEMP-STP_Motor_IR/Me.h **** 
  19:../8-LCD-TEMP-STP_Motor_IR/Me.h ****    GPIOA->CRL |= (0x0B << 0) ; /* AF O_PP pino PA0 */
 300              		.loc 2 19 4 is_stmt 1 view .LVU56
 301              	@ ../8-LCD-TEMP-STP_Motor_IR/Me.h:19:    GPIOA->CRL |= (0x0B << 0) ; /* AF O_PP pino PA0 */
 302              		.loc 2 19 15 is_stmt 0 view .LVU57
 303 009e 254A     		ldr	r2, .L17+4	@ tmp145,
 304 00a0 1368     		ldr	r3, [r2]	@ _5, MEM[(struct GPIO_TypeDef *)1073809408B].CRL
 305 00a2 43F00B03 		orr	r3, r3, #11	@ _6, _5,
 306 00a6 1360     		str	r3, [r2]	@ _6, MEM[(struct GPIO_TypeDef *)1073809408B].CRL
  20:../8-LCD-TEMP-STP_Motor_IR/Me.h **** 	AFIO->MAPR &= ~( 0b11 << 6);
 307              		.loc 2 20 2 is_stmt 1 view .LVU58
 308              	@ ../8-LCD-TEMP-STP_Motor_IR/Me.h:20: 	AFIO->MAPR &= ~( 0b11 << 6);
 309              		.loc 2 20 13 is_stmt 0 view .LVU59
 310 00a8 234B     		ldr	r3, .L17+8	@ tmp147,
 311 00aa 5A68     		ldr	r2, [r3, #4]	@ _7, MEM[(struct AFIO_TypeDef *)1073807360B].MAPR
ARM GAS  /tmp/cc4r6sqw.s 			page 13


 312 00ac 22F0C002 		bic	r2, r2, #192	@ _8, _7,
 313 00b0 5A60     		str	r2, [r3, #4]	@ _8, MEM[(struct AFIO_TypeDef *)1073807360B].MAPR
  21:../8-LCD-TEMP-STP_Motor_IR/Me.h ****    AFIO->MAPR &= ~( 0b11 << 8); /* [bit 26:24] SWJ_CFG [nota_2]
 314              		.loc 2 21 4 is_stmt 1 view .LVU60
 315              	@ ../8-LCD-TEMP-STP_Motor_IR/Me.h:21:    AFIO->MAPR &= ~( 0b11 << 8); /* [bit 26:24] SWJ_CFG [nota_
 316              		.loc 2 21 15 is_stmt 0 view .LVU61
 317 00b2 5A68     		ldr	r2, [r3, #4]	@ _9, MEM[(struct AFIO_TypeDef *)1073807360B].MAPR
 318 00b4 22F44072 		bic	r2, r2, #768	@ _10, _9,
 319 00b8 5A60     		str	r2, [r3, #4]	@ _10, MEM[(struct AFIO_TypeDef *)1073807360B].MAPR
  22:../8-LCD-TEMP-STP_Motor_IR/Me.h ****                  [bit 8] TIM3_REMAP[1:0]: TIM2 remapping [nota_3]*/ 
  23:../8-LCD-TEMP-STP_Motor_IR/Me.h **** 
  24:../8-LCD-TEMP-STP_Motor_IR/Me.h **** 	TIM2->CCMR1 |= 0b110 << 4; /*Bits 6:4 OC1M: Output compare 1 mode
 320              		.loc 2 24 2 is_stmt 1 view .LVU62
 321              	@ ../8-LCD-TEMP-STP_Motor_IR/Me.h:24: 	TIM2->CCMR1 |= 0b110 << 4; /*Bits 6:4 OC1M: Output compare 1
 322              		.loc 2 24 14 is_stmt 0 view .LVU63
 323 00ba 4FF08043 		mov	r3, #1073741824	@ tmp151,
 324 00be 1A8B     		ldrh	r2, [r3, #24]	@, MEM[(struct TIM_TypeDef *)1073741824B].CCMR1
 325 00c0 92B2     		uxth	r2, r2	@ _11, MEM[(struct TIM_TypeDef *)1073741824B].CCMR1
 326 00c2 42F06002 		orr	r2, r2, #96	@ _12, _11,
 327 00c6 1A83     		strh	r2, [r3, #24]	@ movhi	@ _12, MEM[(struct TIM_TypeDef *)1073741824B].CCMR1
  25:../8-LCD-TEMP-STP_Motor_IR/Me.h ****                                   110: PWM mode 1 */
  26:../8-LCD-TEMP-STP_Motor_IR/Me.h ****    TIM2->CCMR1 |= 1UL << 3; /* Bit 3 OC1PE: Output compare 1 preload enable**/
 328              		.loc 2 26 4 is_stmt 1 view .LVU64
 329              	@ ../8-LCD-TEMP-STP_Motor_IR/Me.h:26:    TIM2->CCMR1 |= 1UL << 3; /* Bit 3 OC1PE: Output compare 1 
 330              		.loc 2 26 16 is_stmt 0 view .LVU65
 331 00c8 1A8B     		ldrh	r2, [r3, #24]	@, MEM[(struct TIM_TypeDef *)1073741824B].CCMR1
 332 00ca 92B2     		uxth	r2, r2	@ _13, MEM[(struct TIM_TypeDef *)1073741824B].CCMR1
 333 00cc 42F00802 		orr	r2, r2, #8	@ _14, _13,
 334 00d0 1A83     		strh	r2, [r3, #24]	@ movhi	@ _14, MEM[(struct TIM_TypeDef *)1073741824B].CCMR1
  27:../8-LCD-TEMP-STP_Motor_IR/Me.h **** 
  28:../8-LCD-TEMP-STP_Motor_IR/Me.h **** 
  29:../8-LCD-TEMP-STP_Motor_IR/Me.h ****    TIM2->PSC = 709; /* 249;  25/250 - 1 => 0.1KHz  */
 335              		.loc 2 29 4 is_stmt 1 view .LVU66
 336              	@ ../8-LCD-TEMP-STP_Motor_IR/Me.h:29:    TIM2->PSC = 709; /* 249;  25/250 - 1 => 0.1KHz  */
 337              		.loc 2 29 14 is_stmt 0 view .LVU67
 338 00d2 40F2C522 		movw	r2, #709	@ tmp165,
 339 00d6 1A85     		strh	r2, [r3, #40]	@ movhi	@ tmp165, MEM[(struct TIM_TypeDef *)1073741824B].PSC
  30:../8-LCD-TEMP-STP_Motor_IR/Me.h ****    TIM2->ARR = 999; /* PWM period = (999 + 1) * 100KHz = 0.01 */
 340              		.loc 2 30 4 is_stmt 1 view .LVU68
 341              	@ ../8-LCD-TEMP-STP_Motor_IR/Me.h:30:    TIM2->ARR = 999; /* PWM period = (999 + 1) * 100KHz = 0.01
 342              		.loc 2 30 14 is_stmt 0 view .LVU69
 343 00d8 40F2E732 		movw	r2, #999	@ tmp168,
 344 00dc 9A85     		strh	r2, [r3, #44]	@ movhi	@ tmp168, MEM[(struct TIM_TypeDef *)1073741824B].ARR
  31:../8-LCD-TEMP-STP_Motor_IR/Me.h ****    TIM2->CR1 &= ~(1<<4);
 345              		.loc 2 31 4 is_stmt 1 view .LVU70
 346              	@ ../8-LCD-TEMP-STP_Motor_IR/Me.h:31:    TIM2->CR1 &= ~(1<<4);
 347              		.loc 2 31 14 is_stmt 0 view .LVU71
 348 00de 1A88     		ldrh	r2, [r3]	@, MEM[(struct TIM_TypeDef *)1073741824B].CR1
 349 00e0 22F01002 		bic	r2, r2, #16	@ _16, MEM[(struct TIM_TypeDef *)1073741824B].CR1,
 350 00e4 1204     		lsls	r2, r2, #16	@ _16, _16,
 351 00e6 120C     		lsrs	r2, r2, #16	@ _16, _16,
 352 00e8 1A80     		strh	r2, [r3]	@ movhi	@ _16, MEM[(struct TIM_TypeDef *)1073741824B].CR1
  32:../8-LCD-TEMP-STP_Motor_IR/Me.h ****    TIM2->CR1 |= 1<<7;/*Bit 7 ARPE: Auto-reload preload enable */
 353              		.loc 2 32 4 is_stmt 1 view .LVU72
 354              	@ ../8-LCD-TEMP-STP_Motor_IR/Me.h:32:    TIM2->CR1 |= 1<<7;/*Bit 7 ARPE: Auto-reload preload enable
 355              		.loc 2 32 14 is_stmt 0 view .LVU73
 356 00ea 1A88     		ldrh	r2, [r3]	@, MEM[(struct TIM_TypeDef *)1073741824B].CR1
ARM GAS  /tmp/cc4r6sqw.s 			page 14


 357 00ec 92B2     		uxth	r2, r2	@ _17, MEM[(struct TIM_TypeDef *)1073741824B].CR1
 358 00ee 42F08002 		orr	r2, r2, #128	@ _18, _17,
 359 00f2 1A80     		strh	r2, [r3]	@ movhi	@ _18, MEM[(struct TIM_TypeDef *)1073741824B].CR1
  33:../8-LCD-TEMP-STP_Motor_IR/Me.h ****    TIM2->CCMR1 |= 1UL << 3; /* Bit 3 OC1PE: Output compare 1 preload enable - ---- CONSEGUIIIIIII *
 360              		.loc 2 33 4 is_stmt 1 view .LVU74
 361              	@ ../8-LCD-TEMP-STP_Motor_IR/Me.h:33:    TIM2->CCMR1 |= 1UL << 3; /* Bit 3 OC1PE: Output compare 1 
 362              		.loc 2 33 16 is_stmt 0 view .LVU75
 363 00f4 1A8B     		ldrh	r2, [r3, #24]	@, MEM[(struct TIM_TypeDef *)1073741824B].CCMR1
 364 00f6 92B2     		uxth	r2, r2	@ _19, MEM[(struct TIM_TypeDef *)1073741824B].CCMR1
 365 00f8 42F00802 		orr	r2, r2, #8	@ _20, _19,
 366 00fc 1A83     		strh	r2, [r3, #24]	@ movhi	@ _20, MEM[(struct TIM_TypeDef *)1073741824B].CCMR1
  34:../8-LCD-TEMP-STP_Motor_IR/Me.h ****    TIM2->EGR |=1<<0;
 367              		.loc 2 34 4 is_stmt 1 view .LVU76
 368              	@ ../8-LCD-TEMP-STP_Motor_IR/Me.h:34:    TIM2->EGR |=1<<0;
 369              		.loc 2 34 14 is_stmt 0 view .LVU77
 370 00fe 9A8A     		ldrh	r2, [r3, #20]	@, MEM[(struct TIM_TypeDef *)1073741824B].EGR
 371 0100 92B2     		uxth	r2, r2	@ _21, MEM[(struct TIM_TypeDef *)1073741824B].EGR
 372 0102 42F00102 		orr	r2, r2, #1	@ _22, _21,
 373 0106 9A82     		strh	r2, [r3, #20]	@ movhi	@ _22, MEM[(struct TIM_TypeDef *)1073741824B].EGR
  35:../8-LCD-TEMP-STP_Motor_IR/Me.h **** 
  36:../8-LCD-TEMP-STP_Motor_IR/Me.h ****    TIM2->CCER |= 1<<0; /*Bit 0 CC1E: Capture/Compare 1 output enable*/
 374              		.loc 2 36 4 is_stmt 1 view .LVU78
 375              	@ ../8-LCD-TEMP-STP_Motor_IR/Me.h:36:    TIM2->CCER |= 1<<0; /*Bit 0 CC1E: Capture/Compare 1 output
 376              		.loc 2 36 15 is_stmt 0 view .LVU79
 377 0108 1A8C     		ldrh	r2, [r3, #32]	@, MEM[(struct TIM_TypeDef *)1073741824B].CCER
 378 010a 92B2     		uxth	r2, r2	@ _23, MEM[(struct TIM_TypeDef *)1073741824B].CCER
 379 010c 42F00102 		orr	r2, r2, #1	@ _24, _23,
 380 0110 1A84     		strh	r2, [r3, #32]	@ movhi	@ _24, MEM[(struct TIM_TypeDef *)1073741824B].CCER
  37:../8-LCD-TEMP-STP_Motor_IR/Me.h ****    TIM2->CCER &= ~(1<<1); /*Bit 1 CC1P: Capture/Compare 1 output polarity
 381              		.loc 2 37 4 is_stmt 1 view .LVU80
 382              	@ ../8-LCD-TEMP-STP_Motor_IR/Me.h:37:    TIM2->CCER &= ~(1<<1); /*Bit 1 CC1P: Capture/Compare 1 out
 383              		.loc 2 37 15 is_stmt 0 view .LVU81
 384 0112 1A8C     		ldrh	r2, [r3, #32]	@, MEM[(struct TIM_TypeDef *)1073741824B].CCER
 385 0114 22F00202 		bic	r2, r2, #2	@ _26, MEM[(struct TIM_TypeDef *)1073741824B].CCER,
 386 0118 1204     		lsls	r2, r2, #16	@ _26, _26,
 387 011a 120C     		lsrs	r2, r2, #16	@ _26, _26,
 388 011c 1A84     		strh	r2, [r3, #32]	@ movhi	@ _26, MEM[(struct TIM_TypeDef *)1073741824B].CCER
  38:../8-LCD-TEMP-STP_Motor_IR/Me.h ****                             0: OC1 active high. */
  39:../8-LCD-TEMP-STP_Motor_IR/Me.h **** 
  40:../8-LCD-TEMP-STP_Motor_IR/Me.h ****    TIM2->CR1 |= 1<<0; //Habilita o clock
 389              		.loc 2 40 4 is_stmt 1 view .LVU82
 390              	@ ../8-LCD-TEMP-STP_Motor_IR/Me.h:40:    TIM2->CR1 |= 1<<0; //Habilita o clock
 391              		.loc 2 40 14 is_stmt 0 view .LVU83
 392 011e 1A88     		ldrh	r2, [r3]	@, MEM[(struct TIM_TypeDef *)1073741824B].CR1
 393 0120 92B2     		uxth	r2, r2	@ _27, MEM[(struct TIM_TypeDef *)1073741824B].CR1
 394 0122 42F00102 		orr	r2, r2, #1	@ _28, _27,
 395 0126 1A80     		strh	r2, [r3]	@ movhi	@ _28, MEM[(struct TIM_TypeDef *)1073741824B].CR1
  41:../8-LCD-TEMP-STP_Motor_IR/Me.h ****    TIM2->CCR1 = 00;
 396              		.loc 2 41 4 is_stmt 1 view .LVU84
 397              	@ ../8-LCD-TEMP-STP_Motor_IR/Me.h:41:    TIM2->CCR1 = 00;
 398              		.loc 2 41 15 is_stmt 0 view .LVU85
 399 0128 0022     		movs	r2, #0	@ tmp210,
 400 012a 9A86     		strh	r2, [r3, #52]	@ movhi	@ tmp210, MEM[(struct TIM_TypeDef *)1073741824B].CCR1
 401              	@ ../8-LCD-TEMP-STP_Motor_IR/Me.h:42: }
  42:../8-LCD-TEMP-STP_Motor_IR/Me.h **** }
 402              		.loc 2 42 1 view .LVU86
 403 012c 7047     		bx	lr	@
ARM GAS  /tmp/cc4r6sqw.s 			page 15


 404              	.L18:
 405 012e 00BF     		.align	2
 406              	.L17:
 407 0130 00100240 		.word	1073876992
 408 0134 00080140 		.word	1073809408
 409 0138 00000140 		.word	1073807360
 410              		.cfi_endproc
 411              	.LFE34:
 412              		.size	configure_PWM_TIM2, .-configure_PWM_TIM2
 413              		.align	1
 414              		.global	ADC1_configure
 415              		.syntax unified
 416              		.thumb
 417              		.thumb_func
 418              		.type	ADC1_configure, %function
 419              	ADC1_configure:
 420              	.LFB35:
  43:../8-LCD-TEMP-STP_Motor_IR/Me.h **** 
  44:../8-LCD-TEMP-STP_Motor_IR/Me.h **** void ADC1_configure(){
 421              		.loc 2 44 22 is_stmt 1 view -0
 422              		.cfi_startproc
 423              		@ args = 0, pretend = 0, frame = 0
 424              		@ frame_needed = 0, uses_anonymous_args = 0
 425              		@ link register save eliminated.
  45:../8-LCD-TEMP-STP_Motor_IR/Me.h **** 	RCC->APB2ENR |= 1UL<<2 ; // Hab. GPIOA
 426              		.loc 2 45 2 view .LVU88
 427              	@ ../8-LCD-TEMP-STP_Motor_IR/Me.h:45: 	RCC->APB2ENR |= 1UL<<2 ; // Hab. GPIOA
 428              		.loc 2 45 15 is_stmt 0 view .LVU89
 429 013c 1F4B     		ldr	r3, .L24	@ tmp141,
 430              	@ ../8-LCD-TEMP-STP_Motor_IR/Me.h:46: 	GPIOA->CRL &= ~(0x0F << 4); // Define A1 Input Analogic
  46:../8-LCD-TEMP-STP_Motor_IR/Me.h **** 	GPIOA->CRL &= ~(0x0F << 4); // Define A1 Input Analogic
 431              		.loc 2 46 13 view .LVU90
 432 013e 2049     		ldr	r1, .L24+4	@ tmp143,
 433              	@ ../8-LCD-TEMP-STP_Motor_IR/Me.h:45: 	RCC->APB2ENR |= 1UL<<2 ; // Hab. GPIOA
  45:../8-LCD-TEMP-STP_Motor_IR/Me.h **** 	RCC->APB2ENR |= 1UL<<2 ; // Hab. GPIOA
 434              		.loc 2 45 15 view .LVU91
 435 0140 9A69     		ldr	r2, [r3, #24]	@ _1, MEM[(struct RCC_TypeDef *)1073876992B].APB2ENR
 436 0142 42F00402 		orr	r2, r2, #4	@ _2, _1,
 437 0146 9A61     		str	r2, [r3, #24]	@ _2, MEM[(struct RCC_TypeDef *)1073876992B].APB2ENR
 438              		.loc 2 46 2 is_stmt 1 view .LVU92
 439              	@ ../8-LCD-TEMP-STP_Motor_IR/Me.h:46: 	GPIOA->CRL &= ~(0x0F << 4); // Define A1 Input Analogic
 440              		.loc 2 46 13 is_stmt 0 view .LVU93
 441 0148 0A68     		ldr	r2, [r1]	@ _3, MEM[(struct GPIO_TypeDef *)1073809408B].CRL
 442 014a 22F0F002 		bic	r2, r2, #240	@ _4, _3,
 443 014e 0A60     		str	r2, [r1]	@ _4, MEM[(struct GPIO_TypeDef *)1073809408B].CRL
  47:../8-LCD-TEMP-STP_Motor_IR/Me.h **** 	
  48:../8-LCD-TEMP-STP_Motor_IR/Me.h **** 	RCC->APB2ENR |= (1<<9); // Bit 9 ADC1EN: ADC 1 
 444              		.loc 2 48 2 is_stmt 1 view .LVU94
 445              	@ ../8-LCD-TEMP-STP_Motor_IR/Me.h:48: 	RCC->APB2ENR |= (1<<9); // Bit 9 ADC1EN: ADC 1 
 446              		.loc 2 48 15 is_stmt 0 view .LVU95
 447 0150 9A69     		ldr	r2, [r3, #24]	@ _5, MEM[(struct RCC_TypeDef *)1073876992B].APB2ENR
 448 0152 42F40072 		orr	r2, r2, #512	@ _6, _5,
 449 0156 9A61     		str	r2, [r3, #24]	@ _6, MEM[(struct RCC_TypeDef *)1073876992B].APB2ENR
  49:../8-LCD-TEMP-STP_Motor_IR/Me.h **** 									// interface clock enable
  50:../8-LCD-TEMP-STP_Motor_IR/Me.h **** 
  51:../8-LCD-TEMP-STP_Motor_IR/Me.h **** 	RCC->CFGR	|= (0b10 << 14); // Bits 15:14 ADCPRE:
 450              		.loc 2 51 2 is_stmt 1 view .LVU96
ARM GAS  /tmp/cc4r6sqw.s 			page 16


 451              	@ ../8-LCD-TEMP-STP_Motor_IR/Me.h:51: 	RCC->CFGR	|= (0b10 << 14); // Bits 15:14 ADCPRE:
 452              		.loc 2 51 12 is_stmt 0 view .LVU97
 453 0158 5A68     		ldr	r2, [r3, #4]	@ _7, MEM[(struct RCC_TypeDef *)1073876992B].CFGR
 454 015a 42F40042 		orr	r2, r2, #32768	@ _8, _7,
 455 015e 5A60     		str	r2, [r3, #4]	@ _8, MEM[(struct RCC_TypeDef *)1073876992B].CFGR
  52:../8-LCD-TEMP-STP_Motor_IR/Me.h **** 										  // ADC prescaler 10:
  53:../8-LCD-TEMP-STP_Motor_IR/Me.h **** 										  //    PCLK2 divided by 6
  54:../8-LCD-TEMP-STP_Motor_IR/Me.h **** 	// Enable End of Conversion (EOC) interrupt
  55:../8-LCD-TEMP-STP_Motor_IR/Me.h **** 	ADC1->CR1 |= (1 << 5);
 456              		.loc 2 55 2 is_stmt 1 view .LVU98
 457              	@ ../8-LCD-TEMP-STP_Motor_IR/Me.h:55: 	ADC1->CR1 |= (1 << 5);
 458              		.loc 2 55 12 is_stmt 0 view .LVU99
 459 0160 A3F56C43 		sub	r3, r3, #60416	@ tmp149, tmp149,
 460 0164 5A68     		ldr	r2, [r3, #4]	@ _9, MEM[(struct ADC_TypeDef *)1073816576B].CR1
 461 0166 42F02002 		orr	r2, r2, #32	@ _10, _9,
 462 016a 5A60     		str	r2, [r3, #4]	@ _10, MEM[(struct ADC_TypeDef *)1073816576B].CR1
  56:../8-LCD-TEMP-STP_Motor_IR/Me.h **** 
  57:../8-LCD-TEMP-STP_Motor_IR/Me.h **** 	// One conversion
  58:../8-LCD-TEMP-STP_Motor_IR/Me.h **** 	ADC1->SQR1 = 0x00000000;
 463              		.loc 2 58 2 is_stmt 1 view .LVU100
 464              	@ ../8-LCD-TEMP-STP_Motor_IR/Me.h:58: 	ADC1->SQR1 = 0x00000000;
 465              		.loc 2 58 13 is_stmt 0 view .LVU101
 466 016c 0022     		movs	r2, #0	@ tmp152,
 467 016e DA62     		str	r2, [r3, #44]	@ tmp152, MEM[(struct ADC_TypeDef *)1073816576B].SQR1
  59:../8-LCD-TEMP-STP_Motor_IR/Me.h **** 
  60:../8-LCD-TEMP-STP_Motor_IR/Me.h **** 	// Choose the analog channel to read
  61:../8-LCD-TEMP-STP_Motor_IR/Me.h **** 	// Since we want channel 10 to be the first
  62:../8-LCD-TEMP-STP_Motor_IR/Me.h **** 	//   conversion we write 10 to SQ1 bits (3:0)
  63:../8-LCD-TEMP-STP_Motor_IR/Me.h **** 	//   which is in SQR3 register. For multiple conversions
  64:../8-LCD-TEMP-STP_Motor_IR/Me.h **** 	//   keep writing the channel numbers to SQx bits.
  65:../8-LCD-TEMP-STP_Motor_IR/Me.h **** 	 ADC1->SQR3 = (10 << 0);
 468              		.loc 2 65 3 is_stmt 1 view .LVU102
 469              	@ ../8-LCD-TEMP-STP_Motor_IR/Me.h:65: 	 ADC1->SQR3 = (10 << 0);
 470              		.loc 2 65 14 is_stmt 0 view .LVU103
 471 0170 0A22     		movs	r2, #10	@ tmp154,
 472 0172 5A63     		str	r2, [r3, #52]	@ tmp154, MEM[(struct ADC_TypeDef *)1073816576B].SQR3
  66:../8-LCD-TEMP-STP_Motor_IR/Me.h **** 
  67:../8-LCD-TEMP-STP_Motor_IR/Me.h **** 	// Set up software trigger to start conversion
  68:../8-LCD-TEMP-STP_Motor_IR/Me.h **** 	ADC1->CR2 |= (7 << 17);  // Select SWSTART as trigger
 473              		.loc 2 68 2 is_stmt 1 view .LVU104
 474              	@ ../8-LCD-TEMP-STP_Motor_IR/Me.h:68: 	ADC1->CR2 |= (7 << 17);  // Select SWSTART as trigger
 475              		.loc 2 68 12 is_stmt 0 view .LVU105
 476 0174 9A68     		ldr	r2, [r3, #8]	@ _11, MEM[(struct ADC_TypeDef *)1073816576B].CR2
 477 0176 42F46022 		orr	r2, r2, #917504	@ _12, _11,
 478 017a 9A60     		str	r2, [r3, #8]	@ _12, MEM[(struct ADC_TypeDef *)1073816576B].CR2
  69:../8-LCD-TEMP-STP_Motor_IR/Me.h **** 	ADC1->CR2 |= (1 << 20);  // Enable external trigger
 479              		.loc 2 69 2 is_stmt 1 view .LVU106
 480              	@ ../8-LCD-TEMP-STP_Motor_IR/Me.h:69: 	ADC1->CR2 |= (1 << 20);  // Enable external trigger
 481              		.loc 2 69 12 is_stmt 0 view .LVU107
 482 017c 9A68     		ldr	r2, [r3, #8]	@ _13, MEM[(struct ADC_TypeDef *)1073816576B].CR2
 483 017e 42F48012 		orr	r2, r2, #1048576	@ _14, _13,
 484 0182 9A60     		str	r2, [r3, #8]	@ _14, MEM[(struct ADC_TypeDef *)1073816576B].CR2
  70:../8-LCD-TEMP-STP_Motor_IR/Me.h **** 
  71:../8-LCD-TEMP-STP_Motor_IR/Me.h **** 	// Enable continuous conversion
  72:../8-LCD-TEMP-STP_Motor_IR/Me.h **** 	ADC1->CR2 |= (1 << 1);
 485              		.loc 2 72 2 is_stmt 1 view .LVU108
 486              	@ ../8-LCD-TEMP-STP_Motor_IR/Me.h:72: 	ADC1->CR2 |= (1 << 1);
ARM GAS  /tmp/cc4r6sqw.s 			page 17


 487              		.loc 2 72 12 is_stmt 0 view .LVU109
 488 0184 9A68     		ldr	r2, [r3, #8]	@ _15, MEM[(struct ADC_TypeDef *)1073816576B].CR2
 489 0186 42F00202 		orr	r2, r2, #2	@ _16, _15,
 490 018a 9A60     		str	r2, [r3, #8]	@ _16, MEM[(struct ADC_TypeDef *)1073816576B].CR2
  73:../8-LCD-TEMP-STP_Motor_IR/Me.h **** 
  74:../8-LCD-TEMP-STP_Motor_IR/Me.h **** 	// enable_interrupt(ADC1_2_IRQn);
  75:../8-LCD-TEMP-STP_Motor_IR/Me.h **** 
  76:../8-LCD-TEMP-STP_Motor_IR/Me.h **** 	// Enable A/D conversion
  77:../8-LCD-TEMP-STP_Motor_IR/Me.h **** 	ADC1->CR2 |= (1 << 0);
 491              		.loc 2 77 2 is_stmt 1 view .LVU110
 492              	@ ../8-LCD-TEMP-STP_Motor_IR/Me.h:77: 	ADC1->CR2 |= (1 << 0);
 493              		.loc 2 77 12 is_stmt 0 view .LVU111
 494 018c 9A68     		ldr	r2, [r3, #8]	@ _17, MEM[(struct ADC_TypeDef *)1073816576B].CR2
 495 018e 42F00102 		orr	r2, r2, #1	@ _18, _17,
 496 0192 9A60     		str	r2, [r3, #8]	@ _18, MEM[(struct ADC_TypeDef *)1073816576B].CR2
  78:../8-LCD-TEMP-STP_Motor_IR/Me.h **** 
  79:../8-LCD-TEMP-STP_Motor_IR/Me.h **** 	// Calibration reset and start
  80:../8-LCD-TEMP-STP_Motor_IR/Me.h **** 	//    Optional for better accuracy.
  81:../8-LCD-TEMP-STP_Motor_IR/Me.h **** 	ADC1->CR2 |= (1 << 3);
 497              		.loc 2 81 2 is_stmt 1 view .LVU112
 498              	@ ../8-LCD-TEMP-STP_Motor_IR/Me.h:81: 	ADC1->CR2 |= (1 << 3);
 499              		.loc 2 81 12 is_stmt 0 view .LVU113
 500 0194 9A68     		ldr	r2, [r3, #8]	@ _19, MEM[(struct ADC_TypeDef *)1073816576B].CR2
 501 0196 42F00802 		orr	r2, r2, #8	@ _20, _19,
 502 019a 9A60     		str	r2, [r3, #8]	@ _20, MEM[(struct ADC_TypeDef *)1073816576B].CR2
  82:../8-LCD-TEMP-STP_Motor_IR/Me.h **** 	while((ADC1->CR2 & (1 << 3)));
 503              		.loc 2 82 2 is_stmt 1 view .LVU114
 504              	.L20:
 505              		.loc 2 82 31 discriminator 1 view .LVU115
 506              		.loc 2 82 7 discriminator 1 view .LVU116
 507              	@ ../8-LCD-TEMP-STP_Motor_IR/Me.h:82: 	while((ADC1->CR2 & (1 << 3)));
 508              		.loc 2 82 13 is_stmt 0 discriminator 1 view .LVU117
 509 019c 9A68     		ldr	r2, [r3, #8]	@ _21, MEM[(struct ADC_TypeDef *)1073816576B].CR2
 510              	@ ../8-LCD-TEMP-STP_Motor_IR/Me.h:82: 	while((ADC1->CR2 & (1 << 3)));
 511              		.loc 2 82 7 discriminator 1 view .LVU118
 512 019e 1107     		lsls	r1, r2, #28	@, _21,
 513 01a0 FCD4     		bmi	.L20		@,
  83:../8-LCD-TEMP-STP_Motor_IR/Me.h **** 	ADC1->CR2 |= (1 << 2);
 514              		.loc 2 83 2 is_stmt 1 view .LVU119
 515              	@ ../8-LCD-TEMP-STP_Motor_IR/Me.h:83: 	ADC1->CR2 |= (1 << 2);
 516              		.loc 2 83 12 is_stmt 0 view .LVU120
 517 01a2 9A68     		ldr	r2, [r3, #8]	@ _23, MEM[(struct ADC_TypeDef *)1073816576B].CR2
 518 01a4 42F00402 		orr	r2, r2, #4	@ _24, _23,
 519 01a8 9A60     		str	r2, [r3, #8]	@ _24, MEM[(struct ADC_TypeDef *)1073816576B].CR2
  84:../8-LCD-TEMP-STP_Motor_IR/Me.h **** 	while((ADC1->CR2 & (1 << 2)));
 520              		.loc 2 84 2 is_stmt 1 view .LVU121
 521              	@ ../8-LCD-TEMP-STP_Motor_IR/Me.h:84: 	while((ADC1->CR2 & (1 << 2)));
 522              		.loc 2 84 13 is_stmt 0 view .LVU122
 523 01aa 064B     		ldr	r3, .L24+8	@ tmp169,
 524              	.L21:
 525              		.loc 2 84 31 is_stmt 1 discriminator 1 view .LVU123
 526              		.loc 2 84 7 discriminator 1 view .LVU124
 527              	@ ../8-LCD-TEMP-STP_Motor_IR/Me.h:84: 	while((ADC1->CR2 & (1 << 2)));
 528              		.loc 2 84 13 is_stmt 0 discriminator 1 view .LVU125
 529 01ac 9A68     		ldr	r2, [r3, #8]	@ _25, MEM[(struct ADC_TypeDef *)1073816576B].CR2
 530              	@ ../8-LCD-TEMP-STP_Motor_IR/Me.h:84: 	while((ADC1->CR2 & (1 << 2)));
 531              		.loc 2 84 7 discriminator 1 view .LVU126
ARM GAS  /tmp/cc4r6sqw.s 			page 18


 532 01ae 5207     		lsls	r2, r2, #29	@, _25,
 533 01b0 FCD4     		bmi	.L21		@,
  85:../8-LCD-TEMP-STP_Motor_IR/Me.h **** 
  86:../8-LCD-TEMP-STP_Motor_IR/Me.h **** 	// Start conversion with software trigger
  87:../8-LCD-TEMP-STP_Motor_IR/Me.h **** 	ADC1->CR2 |= (1<<22);
 534              		.loc 2 87 2 is_stmt 1 view .LVU127
 535              	@ ../8-LCD-TEMP-STP_Motor_IR/Me.h:87: 	ADC1->CR2 |= (1<<22);
 536              		.loc 2 87 12 is_stmt 0 view .LVU128
 537 01b2 9A68     		ldr	r2, [r3, #8]	@ _27, MEM[(struct ADC_TypeDef *)1073816576B].CR2
 538 01b4 42F48002 		orr	r2, r2, #4194304	@ _28, _27,
 539 01b8 9A60     		str	r2, [r3, #8]	@ _28, MEM[(struct ADC_TypeDef *)1073816576B].CR2
 540              	@ ../8-LCD-TEMP-STP_Motor_IR/Me.h:90: }
  88:../8-LCD-TEMP-STP_Motor_IR/Me.h **** 	//
  89:../8-LCD-TEMP-STP_Motor_IR/Me.h **** 	// Leitura  ADC1->DR  -> Data Register
  90:../8-LCD-TEMP-STP_Motor_IR/Me.h **** }
 541              		.loc 2 90 1 view .LVU129
 542 01ba 7047     		bx	lr	@
 543              	.L25:
 544              		.align	2
 545              	.L24:
 546 01bc 00100240 		.word	1073876992
 547 01c0 00080140 		.word	1073809408
 548 01c4 00240140 		.word	1073816576
 549              		.cfi_endproc
 550              	.LFE35:
 551              		.size	ADC1_configure, .-ADC1_configure
 552              		.align	1
 553              		.global	set_system_clock_to_72Mhz
 554              		.syntax unified
 555              		.thumb
 556              		.thumb_func
 557              		.type	set_system_clock_to_72Mhz, %function
 558              	set_system_clock_to_72Mhz:
 559              	.LFB36:
  91:../8-LCD-TEMP-STP_Motor_IR/Me.h **** 
  92:../8-LCD-TEMP-STP_Motor_IR/Me.h **** void set_system_clock_to_72Mhz(void)
  93:../8-LCD-TEMP-STP_Motor_IR/Me.h **** {
 560              		.loc 2 93 1 is_stmt 1 view -0
 561              		.cfi_startproc
 562              		@ args = 0, pretend = 0, frame = 0
 563              		@ frame_needed = 0, uses_anonymous_args = 0
 564              		@ link register save eliminated.
  94:../8-LCD-TEMP-STP_Motor_IR/Me.h ****    // Necessary wait states for Flash for high speeds
  95:../8-LCD-TEMP-STP_Motor_IR/Me.h ****    FLASH->ACR = 0x12;
 565              		.loc 2 95 4 view .LVU131
 566              	@ ../8-LCD-TEMP-STP_Motor_IR/Me.h:95:    FLASH->ACR = 0x12;
 567              		.loc 2 95 15 is_stmt 0 view .LVU132
 568 01c8 1222     		movs	r2, #18	@ tmp140,
 569 01ca 1B4B     		ldr	r3, .L33	@ tmp139,
 570 01cc 1A60     		str	r2, [r3]	@ tmp140, MEM[(struct FLASH_TypeDef *)1073881088B].ACR
  96:../8-LCD-TEMP-STP_Motor_IR/Me.h ****    // Enable HSE
  97:../8-LCD-TEMP-STP_Motor_IR/Me.h ****    RCC->CR |= (1 << 16);
 571              		.loc 2 97 4 is_stmt 1 view .LVU133
 572              	@ ../8-LCD-TEMP-STP_Motor_IR/Me.h:97:    RCC->CR |= (1 << 16);
 573              		.loc 2 97 12 is_stmt 0 view .LVU134
 574 01ce A3F58053 		sub	r3, r3, #4096	@ tmp141, tmp141,
 575 01d2 1A68     		ldr	r2, [r3]	@ _1, MEM[(struct RCC_TypeDef *)1073876992B].CR
ARM GAS  /tmp/cc4r6sqw.s 			page 19


 576 01d4 42F48032 		orr	r2, r2, #65536	@ _2, _1,
 577 01d8 1A60     		str	r2, [r3]	@ _2, MEM[(struct RCC_TypeDef *)1073876992B].CR
  98:../8-LCD-TEMP-STP_Motor_IR/Me.h ****    // Wait untill HSE settles down
  99:../8-LCD-TEMP-STP_Motor_IR/Me.h ****    while (!(RCC->CR & (1 << 17)));
 578              		.loc 2 99 4 is_stmt 1 view .LVU135
 579              	.L27:
 580              		.loc 2 99 34 discriminator 1 view .LVU136
 581              		.loc 2 99 10 discriminator 1 view .LVU137
 582              	@ ../8-LCD-TEMP-STP_Motor_IR/Me.h:99:    while (!(RCC->CR & (1 << 17)));
 583              		.loc 2 99 16 is_stmt 0 discriminator 1 view .LVU138
 584 01da 1A68     		ldr	r2, [r3]	@ _3, MEM[(struct RCC_TypeDef *)1073876992B].CR
 585              	@ ../8-LCD-TEMP-STP_Motor_IR/Me.h:99:    while (!(RCC->CR & (1 << 17)));
 586              		.loc 2 99 10 discriminator 1 view .LVU139
 587 01dc 9103     		lsls	r1, r2, #14	@, _3,
 588 01de FCD5     		bpl	.L27		@,
 100:../8-LCD-TEMP-STP_Motor_IR/Me.h ****    // Set PREDIV2 division factor to 5
 101:../8-LCD-TEMP-STP_Motor_IR/Me.h ****    RCC->CFGR2 |= (0b0100 << 4);
 589              		.loc 2 101 4 is_stmt 1 view .LVU140
 590              	@ ../8-LCD-TEMP-STP_Motor_IR/Me.h:101:    RCC->CFGR2 |= (0b0100 << 4);
 591              		.loc 2 101 15 is_stmt 0 view .LVU141
 592 01e0 DA6A     		ldr	r2, [r3, #44]	@ _5, MEM[(struct RCC_TypeDef *)1073876992B].CFGR2
 593 01e2 42F04002 		orr	r2, r2, #64	@ _6, _5,
 594 01e6 DA62     		str	r2, [r3, #44]	@ _6, MEM[(struct RCC_TypeDef *)1073876992B].CFGR2
 102:../8-LCD-TEMP-STP_Motor_IR/Me.h ****    // Set PLL2 multiplication factor to 8
 103:../8-LCD-TEMP-STP_Motor_IR/Me.h ****    RCC->CFGR2 |= (0b0110 << 8);
 595              		.loc 2 103 4 is_stmt 1 view .LVU142
 596              	@ ../8-LCD-TEMP-STP_Motor_IR/Me.h:103:    RCC->CFGR2 |= (0b0110 << 8);
 597              		.loc 2 103 15 is_stmt 0 view .LVU143
 598 01e8 DA6A     		ldr	r2, [r3, #44]	@ _7, MEM[(struct RCC_TypeDef *)1073876992B].CFGR2
 599 01ea 42F4C062 		orr	r2, r2, #1536	@ _8, _7,
 600 01ee DA62     		str	r2, [r3, #44]	@ _8, MEM[(struct RCC_TypeDef *)1073876992B].CFGR2
 104:../8-LCD-TEMP-STP_Motor_IR/Me.h ****    // Enable PLL2
 105:../8-LCD-TEMP-STP_Motor_IR/Me.h ****    RCC->CR |= (1 << 26);
 601              		.loc 2 105 4 is_stmt 1 view .LVU144
 602              	@ ../8-LCD-TEMP-STP_Motor_IR/Me.h:105:    RCC->CR |= (1 << 26);
 603              		.loc 2 105 12 is_stmt 0 view .LVU145
 604 01f0 1A68     		ldr	r2, [r3]	@ _9, MEM[(struct RCC_TypeDef *)1073876992B].CR
 605 01f2 42F08062 		orr	r2, r2, #67108864	@ _10, _9,
 606 01f6 1A60     		str	r2, [r3]	@ _10, MEM[(struct RCC_TypeDef *)1073876992B].CR
 106:../8-LCD-TEMP-STP_Motor_IR/Me.h ****    // Wait untill PLL2 settles down
 107:../8-LCD-TEMP-STP_Motor_IR/Me.h **** 	// while (!(RCC->CR & (1 << 27)));
 108:../8-LCD-TEMP-STP_Motor_IR/Me.h ****    // Set PLL2 as PREDIV1 clock source
 109:../8-LCD-TEMP-STP_Motor_IR/Me.h ****    RCC->CFGR2 |= (1 << 16);
 607              		.loc 2 109 4 is_stmt 1 view .LVU146
 608              	@ ../8-LCD-TEMP-STP_Motor_IR/Me.h:109:    RCC->CFGR2 |= (1 << 16);
 609              		.loc 2 109 15 is_stmt 0 view .LVU147
 610 01f8 DA6A     		ldr	r2, [r3, #44]	@ _11, MEM[(struct RCC_TypeDef *)1073876992B].CFGR2
 611 01fa 42F48032 		orr	r2, r2, #65536	@ _12, _11,
 612 01fe DA62     		str	r2, [r3, #44]	@ _12, MEM[(struct RCC_TypeDef *)1073876992B].CFGR2
 110:../8-LCD-TEMP-STP_Motor_IR/Me.h ****    // Set PREDIV1 division factor to 5
 111:../8-LCD-TEMP-STP_Motor_IR/Me.h ****    RCC->CFGR2 |= (0b0100 << 0);
 613              		.loc 2 111 4 is_stmt 1 view .LVU148
 614              	@ ../8-LCD-TEMP-STP_Motor_IR/Me.h:111:    RCC->CFGR2 |= (0b0100 << 0);
 615              		.loc 2 111 15 is_stmt 0 view .LVU149
 616 0200 DA6A     		ldr	r2, [r3, #44]	@ _13, MEM[(struct RCC_TypeDef *)1073876992B].CFGR2
 617 0202 42F00402 		orr	r2, r2, #4	@ _14, _13,
 618 0206 DA62     		str	r2, [r3, #44]	@ _14, MEM[(struct RCC_TypeDef *)1073876992B].CFGR2
ARM GAS  /tmp/cc4r6sqw.s 			page 20


 112:../8-LCD-TEMP-STP_Motor_IR/Me.h ****    // Select Prediv1 as PLL source
 113:../8-LCD-TEMP-STP_Motor_IR/Me.h ****    RCC->CFGR |= (1 << 16);
 619              		.loc 2 113 4 is_stmt 1 view .LVU150
 620              	@ ../8-LCD-TEMP-STP_Motor_IR/Me.h:113:    RCC->CFGR |= (1 << 16);
 621              		.loc 2 113 14 is_stmt 0 view .LVU151
 622 0208 5A68     		ldr	r2, [r3, #4]	@ _15, MEM[(struct RCC_TypeDef *)1073876992B].CFGR
 623 020a 42F48032 		orr	r2, r2, #65536	@ _16, _15,
 624 020e 5A60     		str	r2, [r3, #4]	@ _16, MEM[(struct RCC_TypeDef *)1073876992B].CFGR
 114:../8-LCD-TEMP-STP_Motor_IR/Me.h ****    // Set PLL1 multiplication factor to 9
 115:../8-LCD-TEMP-STP_Motor_IR/Me.h ****    RCC->CFGR |= (0b0111 << 18);
 625              		.loc 2 115 4 is_stmt 1 view .LVU152
 626              	@ ../8-LCD-TEMP-STP_Motor_IR/Me.h:115:    RCC->CFGR |= (0b0111 << 18);
 627              		.loc 2 115 14 is_stmt 0 view .LVU153
 628 0210 5A68     		ldr	r2, [r3, #4]	@ _17, MEM[(struct RCC_TypeDef *)1073876992B].CFGR
 629 0212 42F4E012 		orr	r2, r2, #1835008	@ _18, _17,
 630 0216 5A60     		str	r2, [r3, #4]	@ _18, MEM[(struct RCC_TypeDef *)1073876992B].CFGR
 116:../8-LCD-TEMP-STP_Motor_IR/Me.h ****    // Set APB1 to 36MHz
 117:../8-LCD-TEMP-STP_Motor_IR/Me.h ****    RCC->CFGR |= 1 << 10;
 631              		.loc 2 117 4 is_stmt 1 view .LVU154
 632              	@ ../8-LCD-TEMP-STP_Motor_IR/Me.h:117:    RCC->CFGR |= 1 << 10;
 633              		.loc 2 117 14 is_stmt 0 view .LVU155
 634 0218 5A68     		ldr	r2, [r3, #4]	@ _19, MEM[(struct RCC_TypeDef *)1073876992B].CFGR
 635 021a 42F48062 		orr	r2, r2, #1024	@ _20, _19,
 636 021e 5A60     		str	r2, [r3, #4]	@ _20, MEM[(struct RCC_TypeDef *)1073876992B].CFGR
 118:../8-LCD-TEMP-STP_Motor_IR/Me.h ****    // Enable PLL
 119:../8-LCD-TEMP-STP_Motor_IR/Me.h ****    RCC->CR |= (1 << 24);
 637              		.loc 2 119 4 is_stmt 1 view .LVU156
 638              	@ ../8-LCD-TEMP-STP_Motor_IR/Me.h:119:    RCC->CR |= (1 << 24);
 639              		.loc 2 119 12 is_stmt 0 view .LVU157
 640 0220 1A68     		ldr	r2, [r3]	@ _21, MEM[(struct RCC_TypeDef *)1073876992B].CR
 641 0222 42F08072 		orr	r2, r2, #16777216	@ _22, _21,
 642 0226 1A60     		str	r2, [r3]	@ _22, MEM[(struct RCC_TypeDef *)1073876992B].CR
 120:../8-LCD-TEMP-STP_Motor_IR/Me.h ****    // Wait untill PLL settles down
 121:../8-LCD-TEMP-STP_Motor_IR/Me.h ****    while (!(RCC->CR & (1 << 25)));
 643              		.loc 2 121 4 is_stmt 1 view .LVU158
 644              	.L28:
 645              		.loc 2 121 34 discriminator 1 view .LVU159
 646              		.loc 2 121 10 discriminator 1 view .LVU160
 647              	@ ../8-LCD-TEMP-STP_Motor_IR/Me.h:121:    while (!(RCC->CR & (1 << 25)));
 648              		.loc 2 121 16 is_stmt 0 discriminator 1 view .LVU161
 649 0228 1A68     		ldr	r2, [r3]	@ _23, MEM[(struct RCC_TypeDef *)1073876992B].CR
 650              	@ ../8-LCD-TEMP-STP_Motor_IR/Me.h:121:    while (!(RCC->CR & (1 << 25)));
 651              		.loc 2 121 10 discriminator 1 view .LVU162
 652 022a 9201     		lsls	r2, r2, #6	@, _23,
 653 022c FCD5     		bpl	.L28		@,
 122:../8-LCD-TEMP-STP_Motor_IR/Me.h ****    // Finally, choose PLL as the system clock
 123:../8-LCD-TEMP-STP_Motor_IR/Me.h ****    RCC->CFGR |= (0b10 << 0);
 654              		.loc 2 123 4 is_stmt 1 view .LVU163
 655              	@ ../8-LCD-TEMP-STP_Motor_IR/Me.h:123:    RCC->CFGR |= (0b10 << 0);
 656              		.loc 2 123 14 is_stmt 0 view .LVU164
 657 022e 5A68     		ldr	r2, [r3, #4]	@ _25, MEM[(struct RCC_TypeDef *)1073876992B].CFGR
 658 0230 42F00202 		orr	r2, r2, #2	@ _26, _25,
 659 0234 5A60     		str	r2, [r3, #4]	@ _26, MEM[(struct RCC_TypeDef *)1073876992B].CFGR
 660              	@ ../8-LCD-TEMP-STP_Motor_IR/Me.h:124: } 
 124:../8-LCD-TEMP-STP_Motor_IR/Me.h **** } 
 661              		.loc 2 124 1 view .LVU165
 662 0236 7047     		bx	lr	@
ARM GAS  /tmp/cc4r6sqw.s 			page 21


 663              	.L34:
 664              		.align	2
 665              	.L33:
 666 0238 00200240 		.word	1073881088
 667              		.cfi_endproc
 668              	.LFE36:
 669              		.size	set_system_clock_to_72Mhz, .-set_system_clock_to_72Mhz
 670              		.align	1
 671              		.global	Delay
 672              		.syntax unified
 673              		.thumb
 674              		.thumb_func
 675              		.type	Delay, %function
 676              	Delay:
 677              	.LVL10:
 678              	.LFB37:
 125:../8-LCD-TEMP-STP_Motor_IR/Me.h **** 
 126:../8-LCD-TEMP-STP_Motor_IR/Me.h **** void Delay ( __IO u32 T ) { // T=1 ;  868µs -> T=1 ~ 526µs
 679              		.loc 2 126 27 is_stmt 1 view -0
 680              		.cfi_startproc
 681              		@ args = 0, pretend = 0, frame = 8
 682              		@ frame_needed = 0, uses_anonymous_args = 0
 683              		@ link register save eliminated.
 127:../8-LCD-TEMP-STP_Motor_IR/Me.h ****   for ( T ; T > 0 ; T-- ){
 684              		.loc 2 127 3 view .LVU167
 685              	@ ../8-LCD-TEMP-STP_Motor_IR/Me.h:126: void Delay ( __IO u32 T ) { // T=1 ;  868µs -> T=1 ~ 526µs
 126:../8-LCD-TEMP-STP_Motor_IR/Me.h ****   for ( T ; T > 0 ; T-- ){
 686              		.loc 2 126 27 is_stmt 0 view .LVU168
 687 023c 82B0     		sub	sp, sp, #8	@,,
 688              	.LCFI2:
 689              		.cfi_def_cfa_offset 8
 690              	@ ../8-LCD-TEMP-STP_Motor_IR/Me.h:126: void Delay ( __IO u32 T ) { // T=1 ;  868µs -> T=1 ~ 526µs
 126:../8-LCD-TEMP-STP_Motor_IR/Me.h ****   for ( T ; T > 0 ; T-- ){
 691              		.loc 2 126 27 view .LVU169
 692 023e 0190     		str	r0, [sp, #4]	@ T, T
 693              	@ ../8-LCD-TEMP-STP_Motor_IR/Me.h:127:   for ( T ; T > 0 ; T-- ){
 694              		.loc 2 127 3 view .LVU170
 695 0240 019B     		ldr	r3, [sp, #4]	@ vol.0_9, T
 696              	@ ../8-LCD-TEMP-STP_Motor_IR/Me.h:128:    TIM3->EGR |= ( 1 << 0 );
 128:../8-LCD-TEMP-STP_Motor_IR/Me.h ****    TIM3->EGR |= ( 1 << 0 );
 697              		.loc 2 128 14 view .LVU171
 698 0242 094A     		ldr	r2, .L40	@ tmp132,
 699              	.L36:
 127:../8-LCD-TEMP-STP_Motor_IR/Me.h ****   for ( T ; T > 0 ; T-- ){
 700              		.loc 2 127 13 is_stmt 1 discriminator 1 view .LVU172
 701              	@ ../8-LCD-TEMP-STP_Motor_IR/Me.h:127:   for ( T ; T > 0 ; T-- ){
 127:../8-LCD-TEMP-STP_Motor_IR/Me.h ****   for ( T ; T > 0 ; T-- ){
 702              		.loc 2 127 15 is_stmt 0 discriminator 1 view .LVU173
 703 0244 019B     		ldr	r3, [sp, #4]	@ T.2_6, T
 704              	@ ../8-LCD-TEMP-STP_Motor_IR/Me.h:127:   for ( T ; T > 0 ; T-- ){
 127:../8-LCD-TEMP-STP_Motor_IR/Me.h ****   for ( T ; T > 0 ; T-- ){
 705              		.loc 2 127 3 discriminator 1 view .LVU174
 706 0246 0BB9     		cbnz	r3, .L38	@ T.2_6,
 707              	@ ../8-LCD-TEMP-STP_Motor_IR/Me.h:131: }
 129:../8-LCD-TEMP-STP_Motor_IR/Me.h ****    while ( TIM3->CNT < 5 ) ; /* 5 * 10-- Configurar para IR */
 130:../8-LCD-TEMP-STP_Motor_IR/Me.h ****   }
 131:../8-LCD-TEMP-STP_Motor_IR/Me.h **** }
ARM GAS  /tmp/cc4r6sqw.s 			page 22


 708              		.loc 2 131 1 view .LVU175
 709 0248 02B0     		add	sp, sp, #8	@,,
 710              	.LCFI3:
 711              		.cfi_remember_state
 712              		.cfi_def_cfa_offset 0
 713              		@ sp needed	@
 714 024a 7047     		bx	lr	@
 715              	.L38:
 716              	.LCFI4:
 717              		.cfi_restore_state
 128:../8-LCD-TEMP-STP_Motor_IR/Me.h ****    TIM3->EGR |= ( 1 << 0 );
 718              		.loc 2 128 4 is_stmt 1 view .LVU176
 719              	@ ../8-LCD-TEMP-STP_Motor_IR/Me.h:128:    TIM3->EGR |= ( 1 << 0 );
 128:../8-LCD-TEMP-STP_Motor_IR/Me.h ****    TIM3->EGR |= ( 1 << 0 );
 720              		.loc 2 128 14 is_stmt 0 view .LVU177
 721 024c 938A     		ldrh	r3, [r2, #20]	@, MEM[(struct TIM_TypeDef *)1073742848B].EGR
 722 024e 9BB2     		uxth	r3, r3	@ _1, MEM[(struct TIM_TypeDef *)1073742848B].EGR
 723 0250 43F00103 		orr	r3, r3, #1	@ _2, _1,
 724 0254 9382     		strh	r3, [r2, #20]	@ movhi	@ _2, MEM[(struct TIM_TypeDef *)1073742848B].EGR
 129:../8-LCD-TEMP-STP_Motor_IR/Me.h ****    while ( TIM3->CNT < 5 ) ; /* 5 * 10-- Configurar para IR */
 725              		.loc 2 129 4 is_stmt 1 view .LVU178
 726              	.L37:
 129:../8-LCD-TEMP-STP_Motor_IR/Me.h ****    while ( TIM3->CNT < 5 ) ; /* 5 * 10-- Configurar para IR */
 727              		.loc 2 129 28 discriminator 1 view .LVU179
 129:../8-LCD-TEMP-STP_Motor_IR/Me.h ****    while ( TIM3->CNT < 5 ) ; /* 5 * 10-- Configurar para IR */
 728              		.loc 2 129 10 discriminator 1 view .LVU180
 729              	@ ../8-LCD-TEMP-STP_Motor_IR/Me.h:129:    while ( TIM3->CNT < 5 ) ; /* 5 * 10-- Configurar para IR 
 129:../8-LCD-TEMP-STP_Motor_IR/Me.h ****    while ( TIM3->CNT < 5 ) ; /* 5 * 10-- Configurar para IR */
 730              		.loc 2 129 16 is_stmt 0 discriminator 1 view .LVU181
 731 0256 938C     		ldrh	r3, [r2, #36]	@, MEM[(struct TIM_TypeDef *)1073742848B].CNT
 732 0258 9BB2     		uxth	r3, r3	@ _3, MEM[(struct TIM_TypeDef *)1073742848B].CNT
 733              	@ ../8-LCD-TEMP-STP_Motor_IR/Me.h:129:    while ( TIM3->CNT < 5 ) ; /* 5 * 10-- Configurar para IR 
 129:../8-LCD-TEMP-STP_Motor_IR/Me.h ****    while ( TIM3->CNT < 5 ) ; /* 5 * 10-- Configurar para IR */
 734              		.loc 2 129 10 discriminator 1 view .LVU182
 735 025a 042B     		cmp	r3, #4	@ _3,
 736 025c FBD9     		bls	.L37		@,
 127:../8-LCD-TEMP-STP_Motor_IR/Me.h ****    TIM3->EGR |= ( 1 << 0 );
 737              		.loc 2 127 21 is_stmt 1 discriminator 2 view .LVU183
 738              	@ ../8-LCD-TEMP-STP_Motor_IR/Me.h:127:   for ( T ; T > 0 ; T-- ){
 127:../8-LCD-TEMP-STP_Motor_IR/Me.h ****    TIM3->EGR |= ( 1 << 0 );
 739              		.loc 2 127 22 is_stmt 0 discriminator 2 view .LVU184
 740 025e 019B     		ldr	r3, [sp, #4]	@ T.1_4, T
 741 0260 013B     		subs	r3, r3, #1	@ _5, T.1_4,
 742 0262 0193     		str	r3, [sp, #4]	@ _5, T
 743 0264 EEE7     		b	.L36		@
 744              	.L41:
 745 0266 00BF     		.align	2
 746              	.L40:
 747 0268 00040040 		.word	1073742848
 748              		.cfi_endproc
 749              	.LFE37:
 750              		.size	Delay, .-Delay
 751              		.align	1
 752              		.global	enable_TIM3_delay
 753              		.syntax unified
 754              		.thumb
 755              		.thumb_func
ARM GAS  /tmp/cc4r6sqw.s 			page 23


 756              		.type	enable_TIM3_delay, %function
 757              	enable_TIM3_delay:
 758              	.LFB38:
 132:../8-LCD-TEMP-STP_Motor_IR/Me.h **** 
 133:../8-LCD-TEMP-STP_Motor_IR/Me.h **** void enable_TIM3_delay (void) {
 759              		.loc 2 133 31 is_stmt 1 view -0
 760              		.cfi_startproc
 761              		@ args = 0, pretend = 0, frame = 0
 762              		@ frame_needed = 0, uses_anonymous_args = 0
 763              		@ link register save eliminated.
 134:../8-LCD-TEMP-STP_Motor_IR/Me.h ****    RCC->APB1ENR |= 1<<1 ;
 764              		.loc 2 134 4 view .LVU186
 765              	@ ../8-LCD-TEMP-STP_Motor_IR/Me.h:134:    RCC->APB1ENR |= 1<<1 ;
 766              		.loc 2 134 17 is_stmt 0 view .LVU187
 767 026c 084A     		ldr	r2, .L43	@ tmp117,
 768 026e D369     		ldr	r3, [r2, #28]	@ _1, MEM[(struct RCC_TypeDef *)1073876992B].APB1ENR
 769 0270 43F00203 		orr	r3, r3, #2	@ _2, _1,
 770 0274 D361     		str	r3, [r2, #28]	@ _2, MEM[(struct RCC_TypeDef *)1073876992B].APB1ENR
 135:../8-LCD-TEMP-STP_Motor_IR/Me.h ****    TIM3->CR1 = 0x0000;
 771              		.loc 2 135 4 is_stmt 1 view .LVU188
 772              	@ ../8-LCD-TEMP-STP_Motor_IR/Me.h:135:    TIM3->CR1 = 0x0000;
 773              		.loc 2 135 14 is_stmt 0 view .LVU189
 774 0276 0023     		movs	r3, #0	@ tmp121,
 775 0278 A2F50332 		sub	r2, r2, #134144	@ tmp119, tmp119,
 776 027c 1380     		strh	r3, [r2]	@ movhi	@ tmp121, MEM[(struct TIM_TypeDef *)1073742848B].CR1
 136:../8-LCD-TEMP-STP_Motor_IR/Me.h ****    //TIM3->ARR = 21699;
 137:../8-LCD-TEMP-STP_Motor_IR/Me.h ****    TIM3->ARR = 250-1; // 10µs
 777              		.loc 2 137 4 is_stmt 1 view .LVU190
 778              	@ ../8-LCD-TEMP-STP_Motor_IR/Me.h:137:    TIM3->ARR = 250-1; // 10µs
 779              		.loc 2 137 14 is_stmt 0 view .LVU191
 780 027e F923     		movs	r3, #249	@ tmp124,
 781 0280 9385     		strh	r3, [r2, #44]	@ movhi	@ tmp124, MEM[(struct TIM_TypeDef *)1073742848B].ARR
 138:../8-LCD-TEMP-STP_Motor_IR/Me.h ****    // para obter o período de 868µs
 139:../8-LCD-TEMP-STP_Motor_IR/Me.h **** /*https://www.vishay.com/docs/80071/dataform.pdf PAG 2
 140:../8-LCD-TEMP-STP_Motor_IR/Me.h ****  * https://controllerstech.com/ir-remote-with-stm32/
 141:../8-LCD-TEMP-STP_Motor_IR/Me.h ****  * Per=(1+ARR)/Clock_system */
 142:../8-LCD-TEMP-STP_Motor_IR/Me.h ****    TIM3->CR1 |= 1<<0;
 782              		.loc 2 142 4 is_stmt 1 view .LVU192
 783              	@ ../8-LCD-TEMP-STP_Motor_IR/Me.h:142:    TIM3->CR1 |= 1<<0;
 784              		.loc 2 142 14 is_stmt 0 view .LVU193
 785 0282 1388     		ldrh	r3, [r2]	@, MEM[(struct TIM_TypeDef *)1073742848B].CR1
 786 0284 9BB2     		uxth	r3, r3	@ _3, MEM[(struct TIM_TypeDef *)1073742848B].CR1
 787 0286 43F00103 		orr	r3, r3, #1	@ _4, _3,
 788 028a 1380     		strh	r3, [r2]	@ movhi	@ _4, MEM[(struct TIM_TypeDef *)1073742848B].CR1
 789              	@ ../8-LCD-TEMP-STP_Motor_IR/Me.h:143: }
 143:../8-LCD-TEMP-STP_Motor_IR/Me.h **** }
 790              		.loc 2 143 1 view .LVU194
 791 028c 7047     		bx	lr	@
 792              	.L44:
 793 028e 00BF     		.align	2
 794              	.L43:
 795 0290 00100240 		.word	1073876992
 796              		.cfi_endproc
 797              	.LFE38:
 798              		.size	enable_TIM3_delay, .-enable_TIM3_delay
 799              		.align	1
 800              		.global	enable_interrupt
ARM GAS  /tmp/cc4r6sqw.s 			page 24


 801              		.syntax unified
 802              		.thumb
 803              		.thumb_func
 804              		.type	enable_interrupt, %function
 805              	enable_interrupt:
 806              	.LVL11:
 807              	.LFB39:
 144:../8-LCD-TEMP-STP_Motor_IR/Me.h **** 
 145:../8-LCD-TEMP-STP_Motor_IR/Me.h **** void enable_interrupt(IRQn_Type IRQn)
 146:../8-LCD-TEMP-STP_Motor_IR/Me.h **** {
 808              		.loc 2 146 1 is_stmt 1 view -0
 809              		.cfi_startproc
 810              		@ args = 0, pretend = 0, frame = 0
 811              		@ frame_needed = 0, uses_anonymous_args = 0
 812              		@ link register save eliminated.
 147:../8-LCD-TEMP-STP_Motor_IR/Me.h ****    NVIC->ISER[((uint32_t)(IRQn) >> 5)] = (1 << ((uint32_t)(IRQn) & 0x1F));
 813              		.loc 2 147 4 view .LVU196
 814              	@ ../8-LCD-TEMP-STP_Motor_IR/Me.h:147:    NVIC->ISER[((uint32_t)(IRQn) >> 5)] = (1 << ((uint32_t)(I
 815              		.loc 2 147 45 is_stmt 0 view .LVU197
 816 0294 0123     		movs	r3, #1	@ tmp124,
 817              	@ ../8-LCD-TEMP-STP_Motor_IR/Me.h:147:    NVIC->ISER[((uint32_t)(IRQn) >> 5)] = (1 << ((uint32_t)(I
 818              		.loc 2 147 33 view .LVU198
 819 0296 4209     		lsrs	r2, r0, #5	@ _6, IRQn,
 820              	@ ../8-LCD-TEMP-STP_Motor_IR/Me.h:147:    NVIC->ISER[((uint32_t)(IRQn) >> 5)] = (1 << ((uint32_t)(I
 821              		.loc 2 147 66 view .LVU199
 822 0298 00F01F00 		and	r0, r0, #31	@ tmp123, IRQn,
 823              	.LVL12:
 824              	@ ../8-LCD-TEMP-STP_Motor_IR/Me.h:147:    NVIC->ISER[((uint32_t)(IRQn) >> 5)] = (1 << ((uint32_t)(I
 825              		.loc 2 147 45 view .LVU200
 826 029c 03FA00F0 		lsl	r0, r3, r0	@ _7, tmp124, tmp123
 827              	@ ../8-LCD-TEMP-STP_Motor_IR/Me.h:147:    NVIC->ISER[((uint32_t)(IRQn) >> 5)] = (1 << ((uint32_t)(I
 828              		.loc 2 147 40 view .LVU201
 829 02a0 014B     		ldr	r3, .L46	@ tmp125,
 830 02a2 43F82200 		str	r0, [r3, r2, lsl #2]	@ _7, MEM[(struct NVIC_Type *)3758153984B].ISER[_6]
 831              	@ ../8-LCD-TEMP-STP_Motor_IR/Me.h:148: }  
 148:../8-LCD-TEMP-STP_Motor_IR/Me.h **** }  
 832              		.loc 2 148 1 view .LVU202
 833 02a6 7047     		bx	lr	@
 834              	.L47:
 835              		.align	2
 836              	.L46:
 837 02a8 00E100E0 		.word	-536813312
 838              		.cfi_endproc
 839              	.LFE39:
 840              		.size	enable_interrupt, .-enable_interrupt
 841              		.align	1
 842              		.global	disable_interrupt
 843              		.syntax unified
 844              		.thumb
 845              		.thumb_func
 846              		.type	disable_interrupt, %function
 847              	disable_interrupt:
 848              	.LVL13:
 849              	.LFB40:
 149:../8-LCD-TEMP-STP_Motor_IR/Me.h ****    
 150:../8-LCD-TEMP-STP_Motor_IR/Me.h **** /* 
 151:../8-LCD-TEMP-STP_Motor_IR/Me.h ****  * Disable given interrupt
ARM GAS  /tmp/cc4r6sqw.s 			page 25


 152:../8-LCD-TEMP-STP_Motor_IR/Me.h ****  */
 153:../8-LCD-TEMP-STP_Motor_IR/Me.h **** void disable_interrupt(IRQn_Type IRQn)
 154:../8-LCD-TEMP-STP_Motor_IR/Me.h **** {
 850              		.loc 2 154 1 is_stmt 1 view -0
 851              		.cfi_startproc
 852              		@ args = 0, pretend = 0, frame = 0
 853              		@ frame_needed = 0, uses_anonymous_args = 0
 854              		@ link register save eliminated.
 155:../8-LCD-TEMP-STP_Motor_IR/Me.h ****    NVIC->ICER[((uint32_t)(IRQn) >> 5)] = (1 << ((uint32_t)(IRQn) & 0x1F));
 855              		.loc 2 155 4 view .LVU204
 856              	@ ../8-LCD-TEMP-STP_Motor_IR/Me.h:155:    NVIC->ICER[((uint32_t)(IRQn) >> 5)] = (1 << ((uint32_t)(I
 857              		.loc 2 155 45 is_stmt 0 view .LVU205
 858 02ac 0122     		movs	r2, #1	@ tmp124,
 859              	@ ../8-LCD-TEMP-STP_Motor_IR/Me.h:155:    NVIC->ICER[((uint32_t)(IRQn) >> 5)] = (1 << ((uint32_t)(I
 860              		.loc 2 155 33 view .LVU206
 861 02ae 4309     		lsrs	r3, r0, #5	@ _6, IRQn,
 862              	@ ../8-LCD-TEMP-STP_Motor_IR/Me.h:155:    NVIC->ICER[((uint32_t)(IRQn) >> 5)] = (1 << ((uint32_t)(I
 863              		.loc 2 155 66 view .LVU207
 864 02b0 00F01F00 		and	r0, r0, #31	@ tmp123, IRQn,
 865              	.LVL14:
 866              	@ ../8-LCD-TEMP-STP_Motor_IR/Me.h:155:    NVIC->ICER[((uint32_t)(IRQn) >> 5)] = (1 << ((uint32_t)(I
 867              		.loc 2 155 45 view .LVU208
 868 02b4 02FA00F0 		lsl	r0, r2, r0	@ _7, tmp124, tmp123
 869              	@ ../8-LCD-TEMP-STP_Motor_IR/Me.h:155:    NVIC->ICER[((uint32_t)(IRQn) >> 5)] = (1 << ((uint32_t)(I
 870              		.loc 2 155 40 view .LVU209
 871 02b8 024A     		ldr	r2, .L49	@ tmp125,
 872 02ba 2033     		adds	r3, r3, #32	@ tmp126, _6,
 873 02bc 42F82300 		str	r0, [r2, r3, lsl #2]	@ _7, MEM[(struct NVIC_Type *)3758153984B].ICER[_6]
 874              	@ ../8-LCD-TEMP-STP_Motor_IR/Me.h:156: }
 156:../8-LCD-TEMP-STP_Motor_IR/Me.h **** }
 875              		.loc 2 156 1 view .LVU210
 876 02c0 7047     		bx	lr	@
 877              	.L50:
 878 02c2 00BF     		.align	2
 879              	.L49:
 880 02c4 00E100E0 		.word	-536813312
 881              		.cfi_endproc
 882              	.LFE40:
 883              		.size	disable_interrupt, .-disable_interrupt
 884              		.align	1
 885              		.global	intToStr
 886              		.syntax unified
 887              		.thumb
 888              		.thumb_func
 889              		.type	intToStr, %function
 890              	intToStr:
 891              	.LVL15:
 892              	.LFB42:
 157:../8-LCD-TEMP-STP_Motor_IR/Me.h **** 
 158:../8-LCD-TEMP-STP_Motor_IR/Me.h **** /* Exemplo: 
 159:../8-LCD-TEMP-STP_Motor_IR/Me.h ****  		    float num = 123.456789;
 160:../8-LCD-TEMP-STP_Motor_IR/Me.h **** 			 char str[20];
 161:../8-LCD-TEMP-STP_Motor_IR/Me.h **** 			 // num -> ponto flutuante
 162:../8-LCD-TEMP-STP_Motor_IR/Me.h **** 			 // str -> Var String 
 163:../8-LCD-TEMP-STP_Motor_IR/Me.h **** 			 // 4 -> Precisão do de casas decimais
 164:../8-LCD-TEMP-STP_Motor_IR/Me.h **** 			 floatToString(num, str, 4);
 165:../8-LCD-TEMP-STP_Motor_IR/Me.h ****  
ARM GAS  /tmp/cc4r6sqw.s 			page 26


 166:../8-LCD-TEMP-STP_Motor_IR/Me.h ****  * */
 167:../8-LCD-TEMP-STP_Motor_IR/Me.h **** void floatToString(float num, char *str, int precision) {
 168:../8-LCD-TEMP-STP_Motor_IR/Me.h ****     // Lida com números negativos
 169:../8-LCD-TEMP-STP_Motor_IR/Me.h ****     if (num < 0) {
 170:../8-LCD-TEMP-STP_Motor_IR/Me.h ****         num = -num;
 171:../8-LCD-TEMP-STP_Motor_IR/Me.h ****         *str++ = '-';
 172:../8-LCD-TEMP-STP_Motor_IR/Me.h ****     }
 173:../8-LCD-TEMP-STP_Motor_IR/Me.h **** 
 174:../8-LCD-TEMP-STP_Motor_IR/Me.h ****     // Extrai a parte inteira do número
 175:../8-LCD-TEMP-STP_Motor_IR/Me.h ****     int inteira = (int)num;
 176:../8-LCD-TEMP-STP_Motor_IR/Me.h ****     intToStr(inteira, str);
 177:../8-LCD-TEMP-STP_Motor_IR/Me.h ****     while (*str != '\0') {
 178:../8-LCD-TEMP-STP_Motor_IR/Me.h ****         str++;
 179:../8-LCD-TEMP-STP_Motor_IR/Me.h ****     }
 180:../8-LCD-TEMP-STP_Motor_IR/Me.h **** 
 181:../8-LCD-TEMP-STP_Motor_IR/Me.h ****     // Adiciona o ponto decimal
 182:../8-LCD-TEMP-STP_Motor_IR/Me.h ****     *str++ = '.';
 183:../8-LCD-TEMP-STP_Motor_IR/Me.h **** 
 184:../8-LCD-TEMP-STP_Motor_IR/Me.h ****     // Calcula e adiciona a parte fracionária
 185:../8-LCD-TEMP-STP_Motor_IR/Me.h ****     float fracionaria = num - inteira;
 186:../8-LCD-TEMP-STP_Motor_IR/Me.h ****     for (int i = 0; i < precision; i++) {
 187:../8-LCD-TEMP-STP_Motor_IR/Me.h ****         fracionaria *= 10;
 188:../8-LCD-TEMP-STP_Motor_IR/Me.h ****         int digito = (int)fracionaria;
 189:../8-LCD-TEMP-STP_Motor_IR/Me.h ****         *str++ = '0' + digito;
 190:../8-LCD-TEMP-STP_Motor_IR/Me.h ****         fracionaria -= digito;
 191:../8-LCD-TEMP-STP_Motor_IR/Me.h ****     }
 192:../8-LCD-TEMP-STP_Motor_IR/Me.h **** 
 193:../8-LCD-TEMP-STP_Motor_IR/Me.h ****     // Adiciona o terminador nulo
 194:../8-LCD-TEMP-STP_Motor_IR/Me.h ****     *str = '\0';
 195:../8-LCD-TEMP-STP_Motor_IR/Me.h **** }
 196:../8-LCD-TEMP-STP_Motor_IR/Me.h **** 
 197:../8-LCD-TEMP-STP_Motor_IR/Me.h **** void intToStr(int num, char *str) {
 893              		.loc 2 197 35 is_stmt 1 view -0
 894              		.cfi_startproc
 895              		@ args = 0, pretend = 0, frame = 0
 896              		@ frame_needed = 0, uses_anonymous_args = 0
 198:../8-LCD-TEMP-STP_Motor_IR/Me.h ****     // Converte um número inteiro para uma string
 199:../8-LCD-TEMP-STP_Motor_IR/Me.h ****     if (num == 0) {
 897              		.loc 2 199 5 view .LVU212
 898              	@ ../8-LCD-TEMP-STP_Motor_IR/Me.h:197: void intToStr(int num, char *str) {
 197:../8-LCD-TEMP-STP_Motor_IR/Me.h ****     // Converte um número inteiro para uma string
 899              		.loc 2 197 35 is_stmt 0 view .LVU213
 900 02c8 10B5     		push	{r4, lr}	@
 901              	.LCFI5:
 902              		.cfi_def_cfa_offset 8
 903              		.cfi_offset 4, -8
 904              		.cfi_offset 14, -4
 905              	@ ../8-LCD-TEMP-STP_Motor_IR/Me.h:199:     if (num == 0) {
 906              		.loc 2 199 8 view .LVU214
 907 02ca B8B9     		cbnz	r0, .L57	@ num,
 200:../8-LCD-TEMP-STP_Motor_IR/Me.h ****         *str++ = '0';
 908              		.loc 2 200 9 is_stmt 1 view .LVU215
 909              	.LVL16:
 910              	@ ../8-LCD-TEMP-STP_Motor_IR/Me.h:200:         *str++ = '0';
 911              		.loc 2 200 16 is_stmt 0 view .LVU216
 912 02cc 3023     		movs	r3, #48	@ tmp122,
 913              	@ ../8-LCD-TEMP-STP_Motor_IR/Me.h:201:         *str = '\0';
ARM GAS  /tmp/cc4r6sqw.s 			page 27


 201:../8-LCD-TEMP-STP_Motor_IR/Me.h ****         *str = '\0';
 914              		.loc 2 201 14 view .LVU217
 915 02ce 4870     		strb	r0, [r1, #1]	@ num, MEM[(char *)str_6(D) + 1B]
 916              	@ ../8-LCD-TEMP-STP_Motor_IR/Me.h:200:         *str++ = '0';
 200:../8-LCD-TEMP-STP_Motor_IR/Me.h ****         *str++ = '0';
 917              		.loc 2 200 16 view .LVU218
 918 02d0 0B70     		strb	r3, [r1]	@ tmp122, *str_6(D)
 919              		.loc 2 201 9 is_stmt 1 view .LVU219
 202:../8-LCD-TEMP-STP_Motor_IR/Me.h ****         return;
 920              		.loc 2 202 9 view .LVU220
 921              	.LVL17:
 922              	.L51:
 923              	@ ../8-LCD-TEMP-STP_Motor_IR/Me.h:220: }
 203:../8-LCD-TEMP-STP_Motor_IR/Me.h ****     }
 204:../8-LCD-TEMP-STP_Motor_IR/Me.h **** 
 205:../8-LCD-TEMP-STP_Motor_IR/Me.h ****     int len = 0;
 206:../8-LCD-TEMP-STP_Motor_IR/Me.h ****     int temp = num;
 207:../8-LCD-TEMP-STP_Motor_IR/Me.h ****     while (temp > 0) {
 208:../8-LCD-TEMP-STP_Motor_IR/Me.h ****         temp /= 10;
 209:../8-LCD-TEMP-STP_Motor_IR/Me.h ****         len++;
 210:../8-LCD-TEMP-STP_Motor_IR/Me.h ****     }
 211:../8-LCD-TEMP-STP_Motor_IR/Me.h **** 
 212:../8-LCD-TEMP-STP_Motor_IR/Me.h ****     str += len;
 213:../8-LCD-TEMP-STP_Motor_IR/Me.h ****     *str = '\0';
 214:../8-LCD-TEMP-STP_Motor_IR/Me.h **** 
 215:../8-LCD-TEMP-STP_Motor_IR/Me.h ****     while (num > 0) {
 216:../8-LCD-TEMP-STP_Motor_IR/Me.h ****         int digito = num % 10;
 217:../8-LCD-TEMP-STP_Motor_IR/Me.h ****         *(--str) = '0' + digito;
 218:../8-LCD-TEMP-STP_Motor_IR/Me.h ****         num /= 10;
 219:../8-LCD-TEMP-STP_Motor_IR/Me.h ****     }
 220:../8-LCD-TEMP-STP_Motor_IR/Me.h **** }
 924              		.loc 2 220 1 is_stmt 0 view .LVU221
 925 02d2 10BD     		pop	{r4, pc}	@
 926              	.LVL18:
 927              	.L54:
 928              	.LBB6:
 929              	.LBB7:
 208:../8-LCD-TEMP-STP_Motor_IR/Me.h ****         len++;
 930              		.loc 2 208 9 is_stmt 1 view .LVU222
 931              	@ ../8-LCD-TEMP-STP_Motor_IR/Me.h:208:         temp /= 10;
 208:../8-LCD-TEMP-STP_Motor_IR/Me.h ****         len++;
 932              		.loc 2 208 14 is_stmt 0 view .LVU223
 933 02d4 92FBF4F2 		sdiv	r2, r2, r4	@ temp, temp, tmp147
 934              	.LVL19:
 209:../8-LCD-TEMP-STP_Motor_IR/Me.h ****     }
 935              		.loc 2 209 9 is_stmt 1 view .LVU224
 936              	@ ../8-LCD-TEMP-STP_Motor_IR/Me.h:209:         len++;
 209:../8-LCD-TEMP-STP_Motor_IR/Me.h ****     }
 937              		.loc 2 209 12 is_stmt 0 view .LVU225
 938 02d8 0133     		adds	r3, r3, #1	@ len, len,
 939              	.LVL20:
 940              	.L52:
 207:../8-LCD-TEMP-STP_Motor_IR/Me.h ****         temp /= 10;
 941              		.loc 2 207 11 is_stmt 1 view .LVU226
 942 02da 002A     		cmp	r2, #0	@ temp,
 943 02dc FADC     		bgt	.L54		@,
 212:../8-LCD-TEMP-STP_Motor_IR/Me.h ****     *str = '\0';
ARM GAS  /tmp/cc4r6sqw.s 			page 28


 944              		.loc 2 212 5 view .LVU227
 945              	@ ../8-LCD-TEMP-STP_Motor_IR/Me.h:213:     *str = '\0';
 213:../8-LCD-TEMP-STP_Motor_IR/Me.h **** 
 946              		.loc 2 213 10 is_stmt 0 view .LVU228
 947 02de 0024     		movs	r4, #0	@ tmp129,
 948              	@ ../8-LCD-TEMP-STP_Motor_IR/Me.h:212:     str += len;
 212:../8-LCD-TEMP-STP_Motor_IR/Me.h ****     *str = '\0';
 949              		.loc 2 212 9 view .LVU229
 950 02e0 CA18     		adds	r2, r1, r3	@ str, str, len
 951              	.LVL21:
 213:../8-LCD-TEMP-STP_Motor_IR/Me.h **** 
 952              		.loc 2 213 5 is_stmt 1 view .LVU230
 953              	@ ../8-LCD-TEMP-STP_Motor_IR/Me.h:213:     *str = '\0';
 213:../8-LCD-TEMP-STP_Motor_IR/Me.h **** 
 954              		.loc 2 213 10 is_stmt 0 view .LVU231
 955 02e2 CC54     		strb	r4, [r1, r3]	@ tmp129, *str_16
 215:../8-LCD-TEMP-STP_Motor_IR/Me.h ****         int digito = num % 10;
 956              		.loc 2 215 5 is_stmt 1 view .LVU232
 957              	.LBB8:
 958              	@ ../8-LCD-TEMP-STP_Motor_IR/Me.h:216:         int digito = num % 10;
 216:../8-LCD-TEMP-STP_Motor_IR/Me.h ****         *(--str) = '0' + digito;
 959              		.loc 2 216 13 is_stmt 0 view .LVU233
 960 02e4 0A23     		movs	r3, #10	@ tmp146,
 961              	.LVL22:
 962              	.L55:
 216:../8-LCD-TEMP-STP_Motor_IR/Me.h ****         *(--str) = '0' + digito;
 963              		.loc 2 216 13 view .LVU234
 964              	.LBE8:
 215:../8-LCD-TEMP-STP_Motor_IR/Me.h ****         int digito = num % 10;
 965              		.loc 2 215 11 is_stmt 1 view .LVU235
 966 02e6 0028     		cmp	r0, #0	@ num,
 967 02e8 F3DD     		ble	.L51		@,
 968              	.LBB9:
 216:../8-LCD-TEMP-STP_Motor_IR/Me.h ****         *(--str) = '0' + digito;
 969              		.loc 2 216 9 view .LVU236
 970              	.LVL23:
 217:../8-LCD-TEMP-STP_Motor_IR/Me.h ****         num /= 10;
 971              		.loc 2 217 9 view .LVU237
 972              	@ ../8-LCD-TEMP-STP_Motor_IR/Me.h:216:         int digito = num % 10;
 216:../8-LCD-TEMP-STP_Motor_IR/Me.h ****         *(--str) = '0' + digito;
 973              		.loc 2 216 13 is_stmt 0 view .LVU238
 974 02ea 90FBF3F1 		sdiv	r1, r0, r3	@ tmp135, num, tmp146
 975 02ee 03FB1100 		mls	r0, r3, r1, r0	@ digito, tmp146, tmp135, num
 976              	.LVL24:
 977              	@ ../8-LCD-TEMP-STP_Motor_IR/Me.h:217:         *(--str) = '0' + digito;
 217:../8-LCD-TEMP-STP_Motor_IR/Me.h ****         num /= 10;
 978              		.loc 2 217 24 view .LVU239
 979 02f2 3030     		adds	r0, r0, #48	@ tmp141, digito,
 980              	@ ../8-LCD-TEMP-STP_Motor_IR/Me.h:217:         *(--str) = '0' + digito;
 217:../8-LCD-TEMP-STP_Motor_IR/Me.h ****         num /= 10;
 981              		.loc 2 217 18 view .LVU240
 982 02f4 02F8010D 		strb	r0, [r2, #-1]!	@ tmp141, MEM[base: str_21, offset: 0B]
 983              	.LVL25:
 218:../8-LCD-TEMP-STP_Motor_IR/Me.h ****     }
 984              		.loc 2 218 9 is_stmt 1 view .LVU241
 985              	@ ../8-LCD-TEMP-STP_Motor_IR/Me.h:218:         num /= 10;
 218:../8-LCD-TEMP-STP_Motor_IR/Me.h ****     }
ARM GAS  /tmp/cc4r6sqw.s 			page 29


 986              		.loc 2 218 13 is_stmt 0 view .LVU242
 987 02f8 0846     		mov	r0, r1	@ num, tmp135
 988              	.LVL26:
 218:../8-LCD-TEMP-STP_Motor_IR/Me.h ****     }
 989              		.loc 2 218 13 view .LVU243
 990 02fa F4E7     		b	.L55		@
 991              	.LVL27:
 992              	.L57:
 218:../8-LCD-TEMP-STP_Motor_IR/Me.h ****     }
 993              		.loc 2 218 13 view .LVU244
 994              	.LBE9:
 995              	.LBE7:
 996              	.LBE6:
 997 02fc 0246     		mov	r2, r0	@ temp, num
 998              	.LBB11:
 999              	.LBB10:
 1000              	@ ../8-LCD-TEMP-STP_Motor_IR/Me.h:205:     int len = 0;
 205:../8-LCD-TEMP-STP_Motor_IR/Me.h ****     int temp = num;
 1001              		.loc 2 205 9 view .LVU245
 1002 02fe 0023     		movs	r3, #0	@ len,
 1003              	@ ../8-LCD-TEMP-STP_Motor_IR/Me.h:208:         temp /= 10;
 208:../8-LCD-TEMP-STP_Motor_IR/Me.h ****         len++;
 1004              		.loc 2 208 14 view .LVU246
 1005 0300 0A24     		movs	r4, #10	@ tmp147,
 1006 0302 EAE7     		b	.L52		@
 1007              	.LBE10:
 1008              	.LBE11:
 1009              		.cfi_endproc
 1010              	.LFE42:
 1011              		.size	intToStr, .-intToStr
 1012              		.global	__aeabi_fcmplt
 1013              		.global	__aeabi_f2iz
 1014              		.global	__aeabi_i2f
 1015              		.global	__aeabi_fsub
 1016              		.global	__aeabi_fmul
 1017              		.align	1
 1018              		.global	floatToString
 1019              		.syntax unified
 1020              		.thumb
 1021              		.thumb_func
 1022              		.type	floatToString, %function
 1023              	floatToString:
 1024              	.LVL28:
 1025              	.LFB41:
 167:../8-LCD-TEMP-STP_Motor_IR/Me.h ****     // Lida com números negativos
 1026              		.loc 2 167 57 is_stmt 1 view -0
 1027              		.cfi_startproc
 1028              		@ args = 0, pretend = 0, frame = 0
 1029              		@ frame_needed = 0, uses_anonymous_args = 0
 169:../8-LCD-TEMP-STP_Motor_IR/Me.h ****         num = -num;
 1030              		.loc 2 169 5 view .LVU248
 1031              	@ ../8-LCD-TEMP-STP_Motor_IR/Me.h:167: void floatToString(float num, char *str, int precision) {
 167:../8-LCD-TEMP-STP_Motor_IR/Me.h ****     // Lida com números negativos
 1032              		.loc 2 167 57 is_stmt 0 view .LVU249
 1033 0304 2DE9F041 		push	{r4, r5, r6, r7, r8, lr}	@
 1034              	.LCFI6:
 1035              		.cfi_def_cfa_offset 24
ARM GAS  /tmp/cc4r6sqw.s 			page 30


 1036              		.cfi_offset 4, -24
 1037              		.cfi_offset 5, -20
 1038              		.cfi_offset 6, -16
 1039              		.cfi_offset 7, -12
 1040              		.cfi_offset 8, -8
 1041              		.cfi_offset 14, -4
 1042              	@ ../8-LCD-TEMP-STP_Motor_IR/Me.h:167: void floatToString(float num, char *str, int precision) {
 167:../8-LCD-TEMP-STP_Motor_IR/Me.h ****     // Lida com números negativos
 1043              		.loc 2 167 57 view .LVU250
 1044 0308 0C46     		mov	r4, r1	@ str, tmp158
 1045              	@ ../8-LCD-TEMP-STP_Motor_IR/Me.h:169:     if (num < 0) {
 169:../8-LCD-TEMP-STP_Motor_IR/Me.h ****         num = -num;
 1046              		.loc 2 169 8 view .LVU251
 1047 030a 0021     		movs	r1, #0	@,
 1048              	.LVL29:
 1049              	@ ../8-LCD-TEMP-STP_Motor_IR/Me.h:167: void floatToString(float num, char *str, int precision) {
 167:../8-LCD-TEMP-STP_Motor_IR/Me.h ****     // Lida com números negativos
 1050              		.loc 2 167 57 view .LVU252
 1051 030c 0546     		mov	r5, r0	@ num, tmp157
 1052 030e 1646     		mov	r6, r2	@ precision, tmp159
 1053              	@ ../8-LCD-TEMP-STP_Motor_IR/Me.h:169:     if (num < 0) {
 169:../8-LCD-TEMP-STP_Motor_IR/Me.h ****         num = -num;
 1054              		.loc 2 169 8 view .LVU253
 1055 0310 FFF7FEFF 		bl	__aeabi_fcmplt		@
 1056              	.LVL30:
 169:../8-LCD-TEMP-STP_Motor_IR/Me.h ****         num = -num;
 1057              		.loc 2 169 8 view .LVU254
 1058 0314 20B1     		cbz	r0, .L59	@ tmp160,
 170:../8-LCD-TEMP-STP_Motor_IR/Me.h ****         *str++ = '-';
 1059              		.loc 2 170 9 is_stmt 1 view .LVU255
 1060              	@ ../8-LCD-TEMP-STP_Motor_IR/Me.h:171:         *str++ = '-';
 171:../8-LCD-TEMP-STP_Motor_IR/Me.h ****     }
 1061              		.loc 2 171 16 is_stmt 0 view .LVU256
 1062 0316 2D23     		movs	r3, #45	@ tmp138,
 1063              	@ ../8-LCD-TEMP-STP_Motor_IR/Me.h:170:         num = -num;
 170:../8-LCD-TEMP-STP_Motor_IR/Me.h ****         *str++ = '-';
 1064              		.loc 2 170 13 view .LVU257
 1065 0318 05F10045 		add	r5, r5, #-2147483648	@ tmp137, num,
 1066              	.LVL31:
 171:../8-LCD-TEMP-STP_Motor_IR/Me.h ****     }
 1067              		.loc 2 171 9 is_stmt 1 view .LVU258
 1068              	@ ../8-LCD-TEMP-STP_Motor_IR/Me.h:171:         *str++ = '-';
 171:../8-LCD-TEMP-STP_Motor_IR/Me.h ****     }
 1069              		.loc 2 171 16 is_stmt 0 view .LVU259
 1070 031c 04F8013B 		strb	r3, [r4], #1	@ tmp138, *str_17(D)
 1071              	.LVL32:
 1072              	.L59:
 175:../8-LCD-TEMP-STP_Motor_IR/Me.h ****     intToStr(inteira, str);
 1073              		.loc 2 175 5 is_stmt 1 view .LVU260
 1074              	@ ../8-LCD-TEMP-STP_Motor_IR/Me.h:175:     int inteira = (int)num;
 175:../8-LCD-TEMP-STP_Motor_IR/Me.h ****     intToStr(inteira, str);
 1075              		.loc 2 175 9 is_stmt 0 view .LVU261
 1076 0320 2846     		mov	r0, r5	@, num
 1077 0322 FFF7FEFF 		bl	__aeabi_f2iz		@
 1078              	.LVL33:
 1079              	@ ../8-LCD-TEMP-STP_Motor_IR/Me.h:176:     intToStr(inteira, str);
 176:../8-LCD-TEMP-STP_Motor_IR/Me.h ****     while (*str != '\0') {
ARM GAS  /tmp/cc4r6sqw.s 			page 31


 1080              		.loc 2 176 5 view .LVU262
 1081 0326 2146     		mov	r1, r4	@, str
 1082              	@ ../8-LCD-TEMP-STP_Motor_IR/Me.h:175:     int inteira = (int)num;
 175:../8-LCD-TEMP-STP_Motor_IR/Me.h ****     intToStr(inteira, str);
 1083              		.loc 2 175 9 view .LVU263
 1084 0328 0746     		mov	r7, r0	@ inteira, tmp161
 1085              	.LVL34:
 176:../8-LCD-TEMP-STP_Motor_IR/Me.h ****     while (*str != '\0') {
 1086              		.loc 2 176 5 is_stmt 1 view .LVU264
 1087 032a FFF7FEFF 		bl	intToStr		@
 1088              	.LVL35:
 177:../8-LCD-TEMP-STP_Motor_IR/Me.h ****         str++;
 1089              		.loc 2 177 5 view .LVU265
 1090              	.L61:
 177:../8-LCD-TEMP-STP_Motor_IR/Me.h ****         str++;
 1091              		.loc 2 177 11 view .LVU266
 1092              	@ ../8-LCD-TEMP-STP_Motor_IR/Me.h:177:     while (*str != '\0') {
 177:../8-LCD-TEMP-STP_Motor_IR/Me.h ****         str++;
 1093              		.loc 2 177 12 is_stmt 0 view .LVU267
 1094 032e 2278     		ldrb	r2, [r4]	@ zero_extendqisi2	@ _1, MEM[base: str_10, offset: 0B]
 1095 0330 2346     		mov	r3, r4	@ str, str
 1096              	@ ../8-LCD-TEMP-STP_Motor_IR/Me.h:178:         str++;
 178:../8-LCD-TEMP-STP_Motor_IR/Me.h ****     }
 1097              		.loc 2 178 12 view .LVU268
 1098 0332 0134     		adds	r4, r4, #1	@ str, str,
 1099              	.LVL36:
 1100              	@ ../8-LCD-TEMP-STP_Motor_IR/Me.h:177:     while (*str != '\0') {
 177:../8-LCD-TEMP-STP_Motor_IR/Me.h ****         str++;
 1101              		.loc 2 177 11 view .LVU269
 1102 0334 002A     		cmp	r2, #0	@ _1
 1103 0336 FAD1     		bne	.L61	@
 182:../8-LCD-TEMP-STP_Motor_IR/Me.h **** 
 1104              		.loc 2 182 5 is_stmt 1 view .LVU270
 1105              	.LVL37:
 1106              	@ ../8-LCD-TEMP-STP_Motor_IR/Me.h:182:     *str++ = '.';
 182:../8-LCD-TEMP-STP_Motor_IR/Me.h **** 
 1107              		.loc 2 182 12 is_stmt 0 view .LVU271
 1108 0338 2E22     		movs	r2, #46	@ tmp141,
 1109              	@ ../8-LCD-TEMP-STP_Motor_IR/Me.h:185:     float fracionaria = num - inteira;
 185:../8-LCD-TEMP-STP_Motor_IR/Me.h ****     for (int i = 0; i < precision; i++) {
 1110              		.loc 2 185 29 view .LVU272
 1111 033a 3846     		mov	r0, r7	@, inteira
 1112              	@ ../8-LCD-TEMP-STP_Motor_IR/Me.h:182:     *str++ = '.';
 182:../8-LCD-TEMP-STP_Motor_IR/Me.h **** 
 1113              		.loc 2 182 12 view .LVU273
 1114 033c 1A70     		strb	r2, [r3]	@ tmp141, *str_20
 185:../8-LCD-TEMP-STP_Motor_IR/Me.h ****     for (int i = 0; i < precision; i++) {
 1115              		.loc 2 185 5 is_stmt 1 view .LVU274
 1116              	@ ../8-LCD-TEMP-STP_Motor_IR/Me.h:185:     float fracionaria = num - inteira;
 185:../8-LCD-TEMP-STP_Motor_IR/Me.h ****     for (int i = 0; i < precision; i++) {
 1117              		.loc 2 185 29 is_stmt 0 view .LVU275
 1118 033e FFF7FEFF 		bl	__aeabi_i2f		@
 1119              	.LVL38:
 1120 0342 0146     		mov	r1, r0	@ tmp162,
 1121              	@ ../8-LCD-TEMP-STP_Motor_IR/Me.h:185:     float fracionaria = num - inteira;
 185:../8-LCD-TEMP-STP_Motor_IR/Me.h ****     for (int i = 0; i < precision; i++) {
 1122              		.loc 2 185 11 view .LVU276
ARM GAS  /tmp/cc4r6sqw.s 			page 32


 1123 0344 2846     		mov	r0, r5	@, num
 1124 0346 FFF7FEFF 		bl	__aeabi_fsub		@
 1125              	.LVL39:
 186:../8-LCD-TEMP-STP_Motor_IR/Me.h ****         fracionaria *= 10;
 1126              		.loc 2 186 5 is_stmt 1 view .LVU277
 1127              	.LBB12:
 186:../8-LCD-TEMP-STP_Motor_IR/Me.h ****         fracionaria *= 10;
 1128              		.loc 2 186 10 view .LVU278
 186:../8-LCD-TEMP-STP_Motor_IR/Me.h ****         fracionaria *= 10;
 1129              		.loc 2 186 10 is_stmt 0 view .LVU279
 1130              	.LBE12:
 1131              	@ ../8-LCD-TEMP-STP_Motor_IR/Me.h:178:         str++;
 178:../8-LCD-TEMP-STP_Motor_IR/Me.h ****     }
 1132              		.loc 2 178 12 view .LVU280
 1133 034a 2546     		mov	r5, r4	@ str, str
 1134              	.LVL40:
 1135              	.LBB15:
 1136              	.LBB13:
 1137              	@ ../8-LCD-TEMP-STP_Motor_IR/Me.h:187:         fracionaria *= 10;
 187:../8-LCD-TEMP-STP_Motor_IR/Me.h ****         int digito = (int)fracionaria;
 1138              		.loc 2 187 21 view .LVU281
 1139 034c DFF83480 		ldr	r8, .L66	@ tmp156,
 1140              	.LVL41:
 1141              	.L62:
 187:../8-LCD-TEMP-STP_Motor_IR/Me.h ****         int digito = (int)fracionaria;
 1142              		.loc 2 187 21 view .LVU282
 1143              	.LBE13:
 186:../8-LCD-TEMP-STP_Motor_IR/Me.h ****         fracionaria *= 10;
 1144              		.loc 2 186 21 is_stmt 1 discriminator 1 view .LVU283
 1145              	@ ../8-LCD-TEMP-STP_Motor_IR/Me.h:186:     for (int i = 0; i < precision; i++) {
 186:../8-LCD-TEMP-STP_Motor_IR/Me.h ****         fracionaria *= 10;
 1146              		.loc 2 186 5 is_stmt 0 discriminator 1 view .LVU284
 1147 0350 2B1B     		subs	r3, r5, r4	@ i, str, str
 1148              	.LVL42:
 186:../8-LCD-TEMP-STP_Motor_IR/Me.h ****         fracionaria *= 10;
 1149              		.loc 2 186 5 discriminator 1 view .LVU285
 1150 0352 9E42     		cmp	r6, r3	@ precision, i
 1151 0354 05DC     		bgt	.L63		@,
 186:../8-LCD-TEMP-STP_Motor_IR/Me.h ****         fracionaria *= 10;
 1152              		.loc 2 186 5 discriminator 1 view .LVU286
 1153              	.LBE15:
 194:../8-LCD-TEMP-STP_Motor_IR/Me.h **** }
 1154              		.loc 2 194 5 is_stmt 1 view .LVU287
 1155              	@ ../8-LCD-TEMP-STP_Motor_IR/Me.h:194:     *str = '\0';
 194:../8-LCD-TEMP-STP_Motor_IR/Me.h **** }
 1156              		.loc 2 194 10 is_stmt 0 view .LVU288
 1157 0356 0023     		movs	r3, #0	@ tmp154,
 1158              	.LVL43:
 194:../8-LCD-TEMP-STP_Motor_IR/Me.h **** }
 1159              		.loc 2 194 10 view .LVU289
 1160 0358 26EAE676 		bic	r6, r6, r6, asr #31	@ tmp153, precision
 1161              	.LVL44:
 194:../8-LCD-TEMP-STP_Motor_IR/Me.h **** }
 1162              		.loc 2 194 10 view .LVU290
 1163 035c A355     		strb	r3, [r4, r6]	@ tmp154, *str_35
 1164              	@ ../8-LCD-TEMP-STP_Motor_IR/Me.h:195: }
 195:../8-LCD-TEMP-STP_Motor_IR/Me.h **** 
ARM GAS  /tmp/cc4r6sqw.s 			page 33


 1165              		.loc 2 195 1 view .LVU291
 1166 035e BDE8F081 		pop	{r4, r5, r6, r7, r8, pc}	@
 1167              	.LVL45:
 1168              	.L63:
 1169              	.LBB16:
 1170              	.LBB14:
 187:../8-LCD-TEMP-STP_Motor_IR/Me.h ****         int digito = (int)fracionaria;
 1171              		.loc 2 187 9 is_stmt 1 discriminator 3 view .LVU292
 1172              	@ ../8-LCD-TEMP-STP_Motor_IR/Me.h:187:         fracionaria *= 10;
 187:../8-LCD-TEMP-STP_Motor_IR/Me.h ****         int digito = (int)fracionaria;
 1173              		.loc 2 187 21 is_stmt 0 discriminator 3 view .LVU293
 1174 0362 4146     		mov	r1, r8	@, tmp156
 1175 0364 FFF7FEFF 		bl	__aeabi_fmul		@
 1176              	.LVL46:
 187:../8-LCD-TEMP-STP_Motor_IR/Me.h ****         int digito = (int)fracionaria;
 1177              		.loc 2 187 21 discriminator 3 view .LVU294
 1178 0368 0746     		mov	r7, r0	@ tmp145, tmp164
 1179              	.LVL47:
 188:../8-LCD-TEMP-STP_Motor_IR/Me.h ****         *str++ = '0' + digito;
 1180              		.loc 2 188 9 is_stmt 1 discriminator 3 view .LVU295
 1181              	@ ../8-LCD-TEMP-STP_Motor_IR/Me.h:188:         int digito = (int)fracionaria;
 188:../8-LCD-TEMP-STP_Motor_IR/Me.h ****         *str++ = '0' + digito;
 1182              		.loc 2 188 13 is_stmt 0 discriminator 3 view .LVU296
 1183 036a FFF7FEFF 		bl	__aeabi_f2iz		@
 1184              	.LVL48:
 189:../8-LCD-TEMP-STP_Motor_IR/Me.h ****         fracionaria -= digito;
 1185              		.loc 2 189 9 is_stmt 1 discriminator 3 view .LVU297
 1186              	@ ../8-LCD-TEMP-STP_Motor_IR/Me.h:189:         *str++ = '0' + digito;
 189:../8-LCD-TEMP-STP_Motor_IR/Me.h ****         fracionaria -= digito;
 1187              		.loc 2 189 22 is_stmt 0 discriminator 3 view .LVU298
 1188 036e 00F13003 		add	r3, r0, #48	@ tmp148, tmp165,
 1189              	@ ../8-LCD-TEMP-STP_Motor_IR/Me.h:189:         *str++ = '0' + digito;
 189:../8-LCD-TEMP-STP_Motor_IR/Me.h ****         fracionaria -= digito;
 1190              		.loc 2 189 16 discriminator 3 view .LVU299
 1191 0372 05F8013B 		strb	r3, [r5], #1	@ tmp148, MEM[base: str_31, offset: 4294967295B]
 1192              	.LVL49:
 190:../8-LCD-TEMP-STP_Motor_IR/Me.h ****     }
 1193              		.loc 2 190 9 is_stmt 1 discriminator 3 view .LVU300
 1194              	@ ../8-LCD-TEMP-STP_Motor_IR/Me.h:190:         fracionaria -= digito;
 190:../8-LCD-TEMP-STP_Motor_IR/Me.h ****     }
 1195              		.loc 2 190 21 is_stmt 0 discriminator 3 view .LVU301
 1196 0376 FFF7FEFF 		bl	__aeabi_i2f		@
 1197              	.LVL50:
 190:../8-LCD-TEMP-STP_Motor_IR/Me.h ****     }
 1198              		.loc 2 190 21 discriminator 3 view .LVU302
 1199 037a 0146     		mov	r1, r0	@ tmp166,
 1200 037c 3846     		mov	r0, r7	@, tmp145
 1201 037e FFF7FEFF 		bl	__aeabi_fsub		@
 1202              	.LVL51:
 1203              	.LBE14:
 186:../8-LCD-TEMP-STP_Motor_IR/Me.h ****         fracionaria *= 10;
 1204              		.loc 2 186 36 is_stmt 1 discriminator 3 view .LVU303
 186:../8-LCD-TEMP-STP_Motor_IR/Me.h ****         fracionaria *= 10;
 1205              		.loc 2 186 36 is_stmt 0 discriminator 3 view .LVU304
 1206 0382 E5E7     		b	.L62		@
 1207              	.L67:
 1208              		.align	2
ARM GAS  /tmp/cc4r6sqw.s 			page 34


 1209              	.L66:
 1210 0384 00002041 		.word	1092616192
 1211              	.LBE16:
 1212              		.cfi_endproc
 1213              	.LFE41:
 1214              		.size	floatToString, .-floatToString
 1215              		.align	1
 1216              		.global	controlarMotorPasso
 1217              		.syntax unified
 1218              		.thumb
 1219              		.thumb_func
 1220              		.type	controlarMotorPasso, %function
 1221              	controlarMotorPasso:
 1222              	.LVL52:
 1223              	.LFB43:
 221:../8-LCD-TEMP-STP_Motor_IR/Me.h **** 
 222:../8-LCD-TEMP-STP_Motor_IR/Me.h **** 
 223:../8-LCD-TEMP-STP_Motor_IR/Me.h **** // Defina os pinos GPIO que estão conectados às bobinas do motor de passo
 224:../8-LCD-TEMP-STP_Motor_IR/Me.h **** #define MOTOR_COIL_1_PIN   GPIO_PIN_12
 225:../8-LCD-TEMP-STP_Motor_IR/Me.h **** #define MOTOR_COIL_2_PIN   GPIO_PIN_13
 226:../8-LCD-TEMP-STP_Motor_IR/Me.h **** #define MOTOR_COIL_3_PIN   GPIO_PIN_14
 227:../8-LCD-TEMP-STP_Motor_IR/Me.h **** #define MOTOR_COIL_4_PIN   GPIO_PIN_15
 228:../8-LCD-TEMP-STP_Motor_IR/Me.h **** #define MOTOR_PORT          GPIOB
 229:../8-LCD-TEMP-STP_Motor_IR/Me.h **** 
 230:../8-LCD-TEMP-STP_Motor_IR/Me.h **** 
 231:../8-LCD-TEMP-STP_Motor_IR/Me.h **** // Função para controlar o motor de passo
 232:../8-LCD-TEMP-STP_Motor_IR/Me.h **** void controlarMotorPasso(int passo) {
 1224              		.loc 2 232 37 is_stmt 1 view -0
 1225              		.cfi_startproc
 1226              		@ args = 0, pretend = 0, frame = 0
 1227              		@ frame_needed = 0, uses_anonymous_args = 0
 1228              		@ link register save eliminated.
 233:../8-LCD-TEMP-STP_Motor_IR/Me.h ****     // Desativa todas as bobinas
 234:../8-LCD-TEMP-STP_Motor_IR/Me.h **** 	  // GPIOB->ODR &= ~(0xF << 12);
 235:../8-LCD-TEMP-STP_Motor_IR/Me.h **** 	  GPIOB->ODR = (0xF << 12);
 1229              		.loc 2 235 4 view .LVU306
 1230              	@ ../8-LCD-TEMP-STP_Motor_IR/Me.h:235: 	  GPIOB->ODR = (0xF << 12);
 1231              		.loc 2 235 15 is_stmt 0 view .LVU307
 1232 0388 4FF47042 		mov	r2, #61440	@ tmp130,
 1233 038c 164B     		ldr	r3, .L79	@ tmp129,
 1234 038e DA60     		str	r2, [r3, #12]	@ tmp130, MEM[(struct GPIO_TypeDef *)1073810432B].ODR
 236:../8-LCD-TEMP-STP_Motor_IR/Me.h **** 	  passo = passo % 7;
 1235              		.loc 2 236 4 is_stmt 1 view .LVU308
 1236              	.LVL53:
 237:../8-LCD-TEMP-STP_Motor_IR/Me.h **** 
 238:../8-LCD-TEMP-STP_Motor_IR/Me.h ****     switch (passo) {
 1237              		.loc 2 238 5 view .LVU309
 1238              	@ ../8-LCD-TEMP-STP_Motor_IR/Me.h:236: 	  passo = passo % 7;
 236:../8-LCD-TEMP-STP_Motor_IR/Me.h **** 	  passo = passo % 7;
 1239              		.loc 2 236 10 is_stmt 0 view .LVU310
 1240 0390 0722     		movs	r2, #7	@ tmp136,
 1241 0392 90FBF2F2 		sdiv	r2, r0, r2	@ tmp135, passo, tmp136
 1242 0396 C2EBC202 		rsb	r2, r2, r2, lsl #3	@ tmp139, tmp135, tmp135,
 1243 039a 801A     		subs	r0, r0, r2	@ passo, passo, tmp139
 1244              	.LVL54:
 1245              	@ ../8-LCD-TEMP-STP_Motor_IR/Me.h:238:     switch (passo) {
 1246              		.loc 2 238 5 view .LVU311
ARM GAS  /tmp/cc4r6sqw.s 			page 35


 1247 039c 0628     		cmp	r0, #6	@ passo,
 1248 039e 09D8     		bhi	.L68		@
 1249 03a0 DFE800F0 		tbb	[pc, r0]	@ passo
 1250              	.L71:
 1251 03a4 04       		.byte	(.L77-.L71)/2
 1252 03a5 09       		.byte	(.L76-.L71)/2
 1253 03a6 0D       		.byte	(.L75-.L71)/2
 1254 03a7 11       		.byte	(.L74-.L71)/2
 1255 03a8 15       		.byte	(.L73-.L71)/2
 1256 03a9 19       		.byte	(.L72-.L71)/2
 1257 03aa 1D       		.byte	(.L70-.L71)/2
 1258 03ab 00       		.p2align 1
 1259              	.L77:
 239:../8-LCD-TEMP-STP_Motor_IR/Me.h **** 
 240:../8-LCD-TEMP-STP_Motor_IR/Me.h ****         case 0:
 241:../8-LCD-TEMP-STP_Motor_IR/Me.h **** 			  GPIOB->ODR &= ~ (0x1<<12);
 1260              		.loc 2 241 6 is_stmt 1 view .LVU312
 1261              	@ ../8-LCD-TEMP-STP_Motor_IR/Me.h:241: 			  GPIOB->ODR &= ~ (0x1<<12);
 1262              		.loc 2 241 17 is_stmt 0 view .LVU313
 1263 03ac DA68     		ldr	r2, [r3, #12]	@ _1, MEM[(struct GPIO_TypeDef *)1073810432B].ODR
 1264 03ae 22F48052 		bic	r2, r2, #4096	@ _2, _1,
 1265              	.L78:
 1266              	@ ../8-LCD-TEMP-STP_Motor_IR/Me.h:265: 			  GPIOB->ODR &= ~ (0x9<<12);
 242:../8-LCD-TEMP-STP_Motor_IR/Me.h **** 			  // GPIOB->ODR |= (0x1<<12);
 243:../8-LCD-TEMP-STP_Motor_IR/Me.h ****             break;
 244:../8-LCD-TEMP-STP_Motor_IR/Me.h ****         case 1:
 245:../8-LCD-TEMP-STP_Motor_IR/Me.h **** 			  GPIOB->ODR &= ~ (0x3<<12);
 246:../8-LCD-TEMP-STP_Motor_IR/Me.h **** 			  // GPIOB->ODR |= (0x3<<12);
 247:../8-LCD-TEMP-STP_Motor_IR/Me.h ****             break;
 248:../8-LCD-TEMP-STP_Motor_IR/Me.h ****         case 2:
 249:../8-LCD-TEMP-STP_Motor_IR/Me.h **** 			  GPIOB->ODR &= ~ (0x2<<12);
 250:../8-LCD-TEMP-STP_Motor_IR/Me.h **** 			  // GPIOB->ODR |= (0x2<<12);
 251:../8-LCD-TEMP-STP_Motor_IR/Me.h ****             break;
 252:../8-LCD-TEMP-STP_Motor_IR/Me.h ****         case 3:
 253:../8-LCD-TEMP-STP_Motor_IR/Me.h **** 			  GPIOB->ODR &= ~ (0x6<<12);
 254:../8-LCD-TEMP-STP_Motor_IR/Me.h **** 			  // GPIOB->ODR |= (0x6<<12);
 255:../8-LCD-TEMP-STP_Motor_IR/Me.h ****             break;
 256:../8-LCD-TEMP-STP_Motor_IR/Me.h **** 		  case 4:
 257:../8-LCD-TEMP-STP_Motor_IR/Me.h **** 			  GPIOB->ODR &= ~ (0x4<<12);
 258:../8-LCD-TEMP-STP_Motor_IR/Me.h **** 			  // GPIOB->ODR |= (0x4<<12);
 259:../8-LCD-TEMP-STP_Motor_IR/Me.h ****             break;
 260:../8-LCD-TEMP-STP_Motor_IR/Me.h **** 		  case 5:
 261:../8-LCD-TEMP-STP_Motor_IR/Me.h **** 			  GPIOB->ODR &= ~ (0xB<<12);
 262:../8-LCD-TEMP-STP_Motor_IR/Me.h **** 			  // GPIOB->ODR |= (0xB<<12);
 263:../8-LCD-TEMP-STP_Motor_IR/Me.h ****             break;
 264:../8-LCD-TEMP-STP_Motor_IR/Me.h **** 		  case 6:
 265:../8-LCD-TEMP-STP_Motor_IR/Me.h **** 			  GPIOB->ODR &= ~ (0x9<<12);
 1267              		.loc 2 265 17 view .LVU314
 1268 03b2 DA60     		str	r2, [r3, #12]	@ _14,
 266:../8-LCD-TEMP-STP_Motor_IR/Me.h **** 			  // GPIOB->ODR |= (0x9<<12);
 267:../8-LCD-TEMP-STP_Motor_IR/Me.h ****             break;
 1269              		.loc 2 267 13 is_stmt 1 view .LVU315
 1270              	.L68:
 1271              	@ ../8-LCD-TEMP-STP_Motor_IR/Me.h:269: }
 268:../8-LCD-TEMP-STP_Motor_IR/Me.h ****     }
 269:../8-LCD-TEMP-STP_Motor_IR/Me.h **** }
 1272              		.loc 2 269 1 is_stmt 0 view .LVU316
ARM GAS  /tmp/cc4r6sqw.s 			page 36


 1273 03b4 7047     		bx	lr	@
 1274              	.L76:
 245:../8-LCD-TEMP-STP_Motor_IR/Me.h **** 			  // GPIOB->ODR |= (0x3<<12);
 1275              		.loc 2 245 6 is_stmt 1 view .LVU317
 1276              	@ ../8-LCD-TEMP-STP_Motor_IR/Me.h:245: 			  GPIOB->ODR &= ~ (0x3<<12);
 245:../8-LCD-TEMP-STP_Motor_IR/Me.h **** 			  // GPIOB->ODR |= (0x3<<12);
 1277              		.loc 2 245 17 is_stmt 0 view .LVU318
 1278 03b6 DA68     		ldr	r2, [r3, #12]	@ _3, MEM[(struct GPIO_TypeDef *)1073810432B].ODR
 1279 03b8 22F44052 		bic	r2, r2, #12288	@ _4, _3,
 1280 03bc F9E7     		b	.L78		@
 1281              	.L75:
 249:../8-LCD-TEMP-STP_Motor_IR/Me.h **** 			  // GPIOB->ODR |= (0x2<<12);
 1282              		.loc 2 249 6 is_stmt 1 view .LVU319
 1283              	@ ../8-LCD-TEMP-STP_Motor_IR/Me.h:249: 			  GPIOB->ODR &= ~ (0x2<<12);
 249:../8-LCD-TEMP-STP_Motor_IR/Me.h **** 			  // GPIOB->ODR |= (0x2<<12);
 1284              		.loc 2 249 17 is_stmt 0 view .LVU320
 1285 03be DA68     		ldr	r2, [r3, #12]	@ _5, MEM[(struct GPIO_TypeDef *)1073810432B].ODR
 1286 03c0 22F40052 		bic	r2, r2, #8192	@ _6, _5,
 1287 03c4 F5E7     		b	.L78		@
 1288              	.L74:
 253:../8-LCD-TEMP-STP_Motor_IR/Me.h **** 			  // GPIOB->ODR |= (0x6<<12);
 1289              		.loc 2 253 6 is_stmt 1 view .LVU321
 1290              	@ ../8-LCD-TEMP-STP_Motor_IR/Me.h:253: 			  GPIOB->ODR &= ~ (0x6<<12);
 253:../8-LCD-TEMP-STP_Motor_IR/Me.h **** 			  // GPIOB->ODR |= (0x6<<12);
 1291              		.loc 2 253 17 is_stmt 0 view .LVU322
 1292 03c6 DA68     		ldr	r2, [r3, #12]	@ _7, MEM[(struct GPIO_TypeDef *)1073810432B].ODR
 1293 03c8 22F4C042 		bic	r2, r2, #24576	@ _8, _7,
 1294 03cc F1E7     		b	.L78		@
 1295              	.L73:
 257:../8-LCD-TEMP-STP_Motor_IR/Me.h **** 			  // GPIOB->ODR |= (0x4<<12);
 1296              		.loc 2 257 6 is_stmt 1 view .LVU323
 1297              	@ ../8-LCD-TEMP-STP_Motor_IR/Me.h:257: 			  GPIOB->ODR &= ~ (0x4<<12);
 257:../8-LCD-TEMP-STP_Motor_IR/Me.h **** 			  // GPIOB->ODR |= (0x4<<12);
 1298              		.loc 2 257 17 is_stmt 0 view .LVU324
 1299 03ce DA68     		ldr	r2, [r3, #12]	@ _9, MEM[(struct GPIO_TypeDef *)1073810432B].ODR
 1300 03d0 22F48042 		bic	r2, r2, #16384	@ _10, _9,
 1301 03d4 EDE7     		b	.L78		@
 1302              	.L72:
 261:../8-LCD-TEMP-STP_Motor_IR/Me.h **** 			  // GPIOB->ODR |= (0xB<<12);
 1303              		.loc 2 261 6 is_stmt 1 view .LVU325
 1304              	@ ../8-LCD-TEMP-STP_Motor_IR/Me.h:261: 			  GPIOB->ODR &= ~ (0xB<<12);
 261:../8-LCD-TEMP-STP_Motor_IR/Me.h **** 			  // GPIOB->ODR |= (0xB<<12);
 1305              		.loc 2 261 17 is_stmt 0 view .LVU326
 1306 03d6 DA68     		ldr	r2, [r3, #12]	@ _11, MEM[(struct GPIO_TypeDef *)1073810432B].ODR
 1307 03d8 22F43042 		bic	r2, r2, #45056	@ _12, _11,
 1308 03dc E9E7     		b	.L78		@
 1309              	.L70:
 265:../8-LCD-TEMP-STP_Motor_IR/Me.h **** 			  // GPIOB->ODR |= (0x9<<12);
 1310              		.loc 2 265 6 is_stmt 1 view .LVU327
 1311              	@ ../8-LCD-TEMP-STP_Motor_IR/Me.h:265: 			  GPIOB->ODR &= ~ (0x9<<12);
 265:../8-LCD-TEMP-STP_Motor_IR/Me.h **** 			  // GPIOB->ODR |= (0x9<<12);
 1312              		.loc 2 265 17 is_stmt 0 view .LVU328
 1313 03de DA68     		ldr	r2, [r3, #12]	@ _13, MEM[(struct GPIO_TypeDef *)1073810432B].ODR
 1314 03e0 22F41042 		bic	r2, r2, #36864	@ _14, _13,
 1315 03e4 E5E7     		b	.L78		@
 1316              	.L80:
 1317 03e6 00BF     		.align	2
ARM GAS  /tmp/cc4r6sqw.s 			page 37


 1318              	.L79:
 1319 03e8 000C0140 		.word	1073810432
 1320              		.cfi_endproc
 1321              	.LFE43:
 1322              		.size	controlarMotorPasso, .-controlarMotorPasso
 1323              		.align	1
 1324              		.syntax unified
 1325              		.thumb
 1326              		.thumb_func
 1327              		.type	task4, %function
 1328              	task4:
 1329              	.LVL55:
 1330              	.LFB55:
 209:../8-LCD-TEMP-STP_Motor_IR/main.c **** 	/* 
 1331              		.loc 1 209 53 is_stmt 1 view -0
 1332              		.cfi_startproc
 1333              		@ args = 0, pretend = 0, frame = 8
 1334              		@ frame_needed = 0, uses_anonymous_args = 0
 222:../8-LCD-TEMP-STP_Motor_IR/main.c **** 	GPIOB->CRH	|= (0x3333<< 16); 
 1335              		.loc 1 222 2 view .LVU330
 1336              	@ ../8-LCD-TEMP-STP_Motor_IR/main.c:222: 	RCC->APB2ENR |= (1<<3); // En GPIOC
 222:../8-LCD-TEMP-STP_Motor_IR/main.c **** 	GPIOB->CRH	|= (0x3333<< 16); 
 1337              		.loc 1 222 15 is_stmt 0 view .LVU331
 1338 03ec 1B4A     		ldr	r2, .L93	@ tmp126,
 1339              	@ ../8-LCD-TEMP-STP_Motor_IR/main.c:209: static void task4(void *args __attribute ((unused))){
 209:../8-LCD-TEMP-STP_Motor_IR/main.c **** 	/* 
 1340              		.loc 1 209 53 view .LVU332
 1341 03ee 2DE9F341 		push	{r0, r1, r4, r5, r6, r7, r8, lr}	@
 1342              	.LCFI7:
 1343              		.cfi_def_cfa_offset 32
 1344              		.cfi_offset 4, -24
 1345              		.cfi_offset 5, -20
 1346              		.cfi_offset 6, -16
 1347              		.cfi_offset 7, -12
 1348              		.cfi_offset 8, -8
 1349              		.cfi_offset 14, -4
 1350              	@ ../8-LCD-TEMP-STP_Motor_IR/main.c:222: 	RCC->APB2ENR |= (1<<3); // En GPIOC
 222:../8-LCD-TEMP-STP_Motor_IR/main.c **** 	GPIOB->CRH	|= (0x3333<< 16); 
 1351              		.loc 1 222 15 view .LVU333
 1352 03f2 9369     		ldr	r3, [r2, #24]	@ _2, MEM[(struct RCC_TypeDef *)1073876992B].APB2ENR
 1353              	@ ../8-LCD-TEMP-STP_Motor_IR/main.c:229: 		if (xQueueReceive(STMotor_queue, &code_ir, pdMS_TO_TICKS
 229:../8-LCD-TEMP-STP_Motor_IR/main.c **** 
 1354              		.loc 1 229 7 view .LVU334
 1355 03f4 1A4D     		ldr	r5, .L93+4	@ tmp132,
 1356              	@ ../8-LCD-TEMP-STP_Motor_IR/main.c:222: 	RCC->APB2ENR |= (1<<3); // En GPIOC
 222:../8-LCD-TEMP-STP_Motor_IR/main.c **** 	GPIOB->CRH	|= (0x3333<< 16); 
 1357              		.loc 1 222 15 view .LVU335
 1358 03f6 43F00803 		orr	r3, r3, #8	@ _4, _2,
 1359 03fa 9361     		str	r3, [r2, #24]	@ _4, MEM[(struct RCC_TypeDef *)1073876992B].APB2ENR
 223:../8-LCD-TEMP-STP_Motor_IR/main.c **** 	u32 code_ir; 
 1360              		.loc 1 223 2 is_stmt 1 view .LVU336
 1361              	@ ../8-LCD-TEMP-STP_Motor_IR/main.c:223: 	GPIOB->CRH	|= (0x3333<< 16); 
 223:../8-LCD-TEMP-STP_Motor_IR/main.c **** 	u32 code_ir; 
 1362              		.loc 1 223 13 is_stmt 0 view .LVU337
 1363 03fc A2F58232 		sub	r2, r2, #66560	@ tmp128, tmp128,
 1364 0400 5368     		ldr	r3, [r2, #4]	@ _5, MEM[(struct GPIO_TypeDef *)1073810432B].CRH
 1365              	@ ../8-LCD-TEMP-STP_Motor_IR/main.c:231: 			if (code_ir == CR_B7){
ARM GAS  /tmp/cc4r6sqw.s 			page 38


 231:../8-LCD-TEMP-STP_Motor_IR/main.c **** 				for (u32 i=0 ; i<=STP *360 ; i++){
 1366              		.loc 1 231 7 view .LVU338
 1367 0402 184E     		ldr	r6, .L93+8	@ tmp133,
 1368              	@ ../8-LCD-TEMP-STP_Motor_IR/main.c:223: 	GPIOB->CRH	|= (0x3333<< 16); 
 223:../8-LCD-TEMP-STP_Motor_IR/main.c **** 	u32 code_ir; 
 1369              		.loc 1 223 13 view .LVU339
 1370 0404 43F04C53 		orr	r3, r3, #855638016	@ _6, _5,
 1371 0408 43F44C13 		orr	r3, r3, #3342336	@ _6, _6,
 1372              	@ ../8-LCD-TEMP-STP_Motor_IR/main.c:237: 			if (code_ir == CR_B9){
 237:../8-LCD-TEMP-STP_Motor_IR/main.c **** 				for (u32 i=STP  *360+90 ; i>0 ; i--){
 1373              		.loc 1 237 7 view .LVU340
 1374 040c 164F     		ldr	r7, .L93+12	@ tmp136,
 1375              	@ ../8-LCD-TEMP-STP_Motor_IR/main.c:223: 	GPIOB->CRH	|= (0x3333<< 16); 
 223:../8-LCD-TEMP-STP_Motor_IR/main.c **** 	u32 code_ir; 
 1376              		.loc 1 223 13 view .LVU341
 1377 040e 5360     		str	r3, [r2, #4]	@ _6, MEM[(struct GPIO_TypeDef *)1073810432B].CRH
 1378              	.LVL56:
 1379              	.L82:
 224:../8-LCD-TEMP-STP_Motor_IR/main.c **** 
 1380              		.loc 1 224 2 is_stmt 1 view .LVU342
 228:../8-LCD-TEMP-STP_Motor_IR/main.c **** 		if (xQueueReceive(STMotor_queue, &code_ir, pdMS_TO_TICKS(10))) {
 1381              		.loc 1 228 2 view .LVU343
 229:../8-LCD-TEMP-STP_Motor_IR/main.c **** 
 1382              		.loc 1 229 3 view .LVU344
 1383              	@ ../8-LCD-TEMP-STP_Motor_IR/main.c:229: 		if (xQueueReceive(STMotor_queue, &code_ir, pdMS_TO_TICKS
 229:../8-LCD-TEMP-STP_Motor_IR/main.c **** 
 1384              		.loc 1 229 7 is_stmt 0 view .LVU345
 1385 0410 4FF47A72 		mov	r2, #1000	@,
 1386 0414 6868     		ldr	r0, [r5, #4]	@, STMotor_queue
 1387 0416 01A9     		add	r1, sp, #4	@ tmp143,,
 1388 0418 FFF7FEFF 		bl	xQueueReceive		@
 1389              	.LVL57:
 1390              	@ ../8-LCD-TEMP-STP_Motor_IR/main.c:229: 		if (xQueueReceive(STMotor_queue, &code_ir, pdMS_TO_TICKS
 229:../8-LCD-TEMP-STP_Motor_IR/main.c **** 
 1391              		.loc 1 229 6 view .LVU346
 1392 041c 0028     		cmp	r0, #0	@ tmp141
 1393 041e F7D0     		beq	.L82	@
 231:../8-LCD-TEMP-STP_Motor_IR/main.c **** 				for (u32 i=0 ; i<=STP *360 ; i++){
 1394              		.loc 1 231 4 is_stmt 1 view .LVU347
 1395              	@ ../8-LCD-TEMP-STP_Motor_IR/main.c:231: 			if (code_ir == CR_B7){
 231:../8-LCD-TEMP-STP_Motor_IR/main.c **** 				for (u32 i=0 ; i<=STP *360 ; i++){
 1396              		.loc 1 231 7 is_stmt 0 view .LVU348
 1397 0420 019B     		ldr	r3, [sp, #4]	@ code_ir, code_ir
 1398 0422 B342     		cmp	r3, r6	@ code_ir, tmp133
 1399 0424 0BD1     		bne	.L83		@,
 1400              	.LBB17:
 1401              	@ ../8-LCD-TEMP-STP_Motor_IR/main.c:232: 				for (u32 i=0 ; i<=STP *360 ; i++){
 232:../8-LCD-TEMP-STP_Motor_IR/main.c **** 					controlarMotorPasso(i);
 1402              		.loc 1 232 14 view .LVU349
 1403 0426 0024     		movs	r4, #0	@ i,
 1404              	@ ../8-LCD-TEMP-STP_Motor_IR/main.c:232: 				for (u32 i=0 ; i<=STP *360 ; i++){
 232:../8-LCD-TEMP-STP_Motor_IR/main.c **** 					controlarMotorPasso(i);
 1405              		.loc 1 232 5 view .LVU350
 1406 0428 40F67108 		movw	r8, #2161	@ tmp135,
 1407              	.L84:
 1408              	.LVL58:
 233:../8-LCD-TEMP-STP_Motor_IR/main.c **** 					__delay(140);
ARM GAS  /tmp/cc4r6sqw.s 			page 39


 1409              		.loc 1 233 6 is_stmt 1 discriminator 3 view .LVU351
 1410 042c 2046     		mov	r0, r4	@, i
 1411 042e FFF7FEFF 		bl	controlarMotorPasso		@
 1412              	.LVL59:
 234:../8-LCD-TEMP-STP_Motor_IR/main.c **** 				}
 1413              		.loc 1 234 6 discriminator 3 view .LVU352
 1414              	@ ../8-LCD-TEMP-STP_Motor_IR/main.c:232: 				for (u32 i=0 ; i<=STP *360 ; i++){
 232:../8-LCD-TEMP-STP_Motor_IR/main.c **** 					controlarMotorPasso(i);
 1415              		.loc 1 232 35 is_stmt 0 discriminator 3 view .LVU353
 1416 0432 0134     		adds	r4, r4, #1	@ i, i,
 1417              	.LVL60:
 1418              	@ ../8-LCD-TEMP-STP_Motor_IR/main.c:234: 					__delay(140);
 234:../8-LCD-TEMP-STP_Motor_IR/main.c **** 				}
 1419              		.loc 1 234 6 discriminator 3 view .LVU354
 1420 0434 8C20     		movs	r0, #140	@,
 1421 0436 FFF7FEFF 		bl	vTaskDelay		@
 1422              	.LVL61:
 232:../8-LCD-TEMP-STP_Motor_IR/main.c **** 					controlarMotorPasso(i);
 1423              		.loc 1 232 34 is_stmt 1 discriminator 3 view .LVU355
 232:../8-LCD-TEMP-STP_Motor_IR/main.c **** 					controlarMotorPasso(i);
 1424              		.loc 1 232 20 discriminator 3 view .LVU356
 1425              	@ ../8-LCD-TEMP-STP_Motor_IR/main.c:232: 				for (u32 i=0 ; i<=STP *360 ; i++){
 232:../8-LCD-TEMP-STP_Motor_IR/main.c **** 					controlarMotorPasso(i);
 1426              		.loc 1 232 5 is_stmt 0 discriminator 3 view .LVU357
 1427 043a 4445     		cmp	r4, r8	@ i, tmp135
 1428 043c F6D1     		bne	.L84		@,
 1429              	.LVL62:
 1430              	.L83:
 232:../8-LCD-TEMP-STP_Motor_IR/main.c **** 					controlarMotorPasso(i);
 1431              		.loc 1 232 5 discriminator 3 view .LVU358
 1432              	.LBE17:
 237:../8-LCD-TEMP-STP_Motor_IR/main.c **** 				for (u32 i=STP  *360+90 ; i>0 ; i--){
 1433              		.loc 1 237 4 is_stmt 1 view .LVU359
 1434              	@ ../8-LCD-TEMP-STP_Motor_IR/main.c:237: 			if (code_ir == CR_B9){
 237:../8-LCD-TEMP-STP_Motor_IR/main.c **** 				for (u32 i=STP  *360+90 ; i>0 ; i--){
 1435              		.loc 1 237 7 is_stmt 0 view .LVU360
 1436 043e 019B     		ldr	r3, [sp, #4]	@ code_ir, code_ir
 1437 0440 BB42     		cmp	r3, r7	@ code_ir, tmp136
 1438 0442 E5D1     		bne	.L82		@,
 1439              	.LBB18:
 1440              	@ ../8-LCD-TEMP-STP_Motor_IR/main.c:238: 				for (u32 i=STP  *360+90 ; i>0 ; i--){
 238:../8-LCD-TEMP-STP_Motor_IR/main.c **** 					controlarMotorPasso(i);
 1441              		.loc 1 238 14 view .LVU361
 1442 0444 40F6CA04 		movw	r4, #2250	@ i,
 1443              	.L86:
 1444              	.LVL63:
 239:../8-LCD-TEMP-STP_Motor_IR/main.c **** 					__delay(130);
 1445              		.loc 1 239 6 is_stmt 1 discriminator 3 view .LVU362
 1446 0448 2046     		mov	r0, r4	@, i
 1447 044a FFF7FEFF 		bl	controlarMotorPasso		@
 1448              	.LVL64:
 240:../8-LCD-TEMP-STP_Motor_IR/main.c **** 				}
 1449              		.loc 1 240 6 discriminator 3 view .LVU363
 1450 044e 8220     		movs	r0, #130	@,
 1451 0450 FFF7FEFF 		bl	vTaskDelay		@
 1452              	.LVL65:
 238:../8-LCD-TEMP-STP_Motor_IR/main.c **** 					controlarMotorPasso(i);
ARM GAS  /tmp/cc4r6sqw.s 			page 40


 1453              		.loc 1 238 37 discriminator 3 view .LVU364
 238:../8-LCD-TEMP-STP_Motor_IR/main.c **** 					controlarMotorPasso(i);
 1454              		.loc 1 238 31 discriminator 3 view .LVU365
 1455              	@ ../8-LCD-TEMP-STP_Motor_IR/main.c:238: 				for (u32 i=STP  *360+90 ; i>0 ; i--){
 238:../8-LCD-TEMP-STP_Motor_IR/main.c **** 					controlarMotorPasso(i);
 1456              		.loc 1 238 5 is_stmt 0 discriminator 3 view .LVU366
 1457 0454 013C     		subs	r4, r4, #1	@ i, i,
 1458              	.LVL66:
 238:../8-LCD-TEMP-STP_Motor_IR/main.c **** 					controlarMotorPasso(i);
 1459              		.loc 1 238 5 discriminator 3 view .LVU367
 1460 0456 F7D1     		bne	.L86		@,
 1461 0458 DAE7     		b	.L82		@
 1462              	.L94:
 1463 045a 00BF     		.align	2
 1464              	.L93:
 1465 045c 00100240 		.word	1073876992
 1466 0460 00000000 		.word	.LANCHOR0
 1467 0464 30FE3FFC 		.word	-62915024
 1468 0468 30FE3FF8 		.word	-130023888
 1469              	.LBE18:
 1470              		.cfi_endproc
 1471              	.LFE55:
 1472              		.size	task4, .-task4
 1473              		.align	1
 1474              		.global	Stepp_end
 1475              		.syntax unified
 1476              		.thumb
 1477              		.thumb_func
 1478              		.type	Stepp_end, %function
 1479              	Stepp_end:
 1480              	.LFB44:
 270:../8-LCD-TEMP-STP_Motor_IR/Me.h **** void Stepp_end(){
 1481              		.loc 2 270 17 is_stmt 1 view -0
 1482              		.cfi_startproc
 1483              		@ args = 0, pretend = 0, frame = 0
 1484              		@ frame_needed = 0, uses_anonymous_args = 0
 1485              		@ link register save eliminated.
 271:../8-LCD-TEMP-STP_Motor_IR/Me.h **** 	  GPIOB->ODR &=~ (0xF << 12);
 1486              		.loc 2 271 4 view .LVU369
 1487              	@ ../8-LCD-TEMP-STP_Motor_IR/Me.h:271: 	  GPIOB->ODR &=~ (0xF << 12);
 1488              		.loc 2 271 15 is_stmt 0 view .LVU370
 1489 046c 024A     		ldr	r2, .L96	@ tmp115,
 1490 046e D368     		ldr	r3, [r2, #12]	@ _1, MEM[(struct GPIO_TypeDef *)1073810432B].ODR
 1491 0470 23F47043 		bic	r3, r3, #61440	@ _2, _1,
 1492 0474 D360     		str	r3, [r2, #12]	@ _2, MEM[(struct GPIO_TypeDef *)1073810432B].ODR
 1493              	@ ../8-LCD-TEMP-STP_Motor_IR/Me.h:272: }
 272:../8-LCD-TEMP-STP_Motor_IR/Me.h **** }
 1494              		.loc 2 272 1 view .LVU371
 1495 0476 7047     		bx	lr	@
 1496              	.L97:
 1497              		.align	2
 1498              	.L96:
 1499 0478 000C0140 		.word	1073810432
 1500              		.cfi_endproc
 1501              	.LFE44:
 1502              		.size	Stepp_end, .-Stepp_end
 1503              		.align	1
ARM GAS  /tmp/cc4r6sqw.s 			page 41


 1504              		.global	USART_init
 1505              		.syntax unified
 1506              		.thumb
 1507              		.thumb_func
 1508              		.type	USART_init, %function
 1509              	USART_init:
 1510              	.LFB45:
 1511              		.file 3 "../8-LCD-TEMP-STP_Motor_IR/Serial.h"
   1:../8-LCD-TEMP-STP_Motor_IR/Serial.h **** // #ifndef	SERIAL_K
   2:../8-LCD-TEMP-STP_Motor_IR/Serial.h **** // #define 	SERIAL_K
   3:../8-LCD-TEMP-STP_Motor_IR/Serial.h **** 
   4:../8-LCD-TEMP-STP_Motor_IR/Serial.h **** void USARTSend(char *pucBuffer);
   5:../8-LCD-TEMP-STP_Motor_IR/Serial.h **** void USART_init(void);
   6:../8-LCD-TEMP-STP_Motor_IR/Serial.h **** 
   7:../8-LCD-TEMP-STP_Motor_IR/Serial.h **** void USART_init(void) {
 1512              		.loc 3 7 23 is_stmt 1 view -0
 1513              		.cfi_startproc
 1514              		@ args = 0, pretend = 0, frame = 24
 1515              		@ frame_needed = 0, uses_anonymous_args = 0
   8:../8-LCD-TEMP-STP_Motor_IR/Serial.h ****    /* Enable USART1 and GPIOA clock */
   9:../8-LCD-TEMP-STP_Motor_IR/Serial.h ****    RCC_APB2PeriphClockCmd(RCC_APB2Periph_USART1 | RCC_APB2Periph_GPIOA, ENABLE);
 1516              		.loc 3 9 4 view .LVU373
 1517              	@ ../8-LCD-TEMP-STP_Motor_IR/Serial.h:7: void USART_init(void) {
   7:../8-LCD-TEMP-STP_Motor_IR/Serial.h ****    /* Enable USART1 and GPIOA clock */
 1518              		.loc 3 7 23 is_stmt 0 view .LVU374
 1519 047c 10B5     		push	{r4, lr}	@
 1520              	.LCFI8:
 1521              		.cfi_def_cfa_offset 8
 1522              		.cfi_offset 4, -8
 1523              		.cfi_offset 14, -4
 1524              	@ ../8-LCD-TEMP-STP_Motor_IR/Serial.h:9:    RCC_APB2PeriphClockCmd(RCC_APB2Periph_USART1 | RCC_APB2
 1525              		.loc 3 9 4 view .LVU375
 1526 047e 0121     		movs	r1, #1	@,
 1527              	@ ../8-LCD-TEMP-STP_Motor_IR/Serial.h:7: void USART_init(void) {
   7:../8-LCD-TEMP-STP_Motor_IR/Serial.h ****    /* Enable USART1 and GPIOA clock */
 1528              		.loc 3 7 23 view .LVU376
 1529 0480 86B0     		sub	sp, sp, #24	@,,
 1530              	.LCFI9:
 1531              		.cfi_def_cfa_offset 32
 1532              	@ ../8-LCD-TEMP-STP_Motor_IR/Serial.h:9:    RCC_APB2PeriphClockCmd(RCC_APB2Periph_USART1 | RCC_APB2
 1533              		.loc 3 9 4 view .LVU377
 1534 0482 44F20400 		movw	r0, #16388	@,
 1535 0486 FFF7FEFF 		bl	RCC_APB2PeriphClockCmd		@
 1536              	.LVL67:
  10:../8-LCD-TEMP-STP_Motor_IR/Serial.h **** 
  11:../8-LCD-TEMP-STP_Motor_IR/Serial.h ****    /* Configure the GPIOs */
  12:../8-LCD-TEMP-STP_Motor_IR/Serial.h ****    GPIO_InitTypeDef GPIO_InitStructure;
 1537              		.loc 3 12 4 is_stmt 1 view .LVU378
  13:../8-LCD-TEMP-STP_Motor_IR/Serial.h **** 
  14:../8-LCD-TEMP-STP_Motor_IR/Serial.h ****    /* Configure USART1 Tx (PA.09) as alternate function push-pull */
  15:../8-LCD-TEMP-STP_Motor_IR/Serial.h ****    GPIO_InitStructure.GPIO_Pin = GPIO_Pin_9;
 1538              		.loc 3 15 4 view .LVU379
  16:../8-LCD-TEMP-STP_Motor_IR/Serial.h ****    GPIO_InitStructure.GPIO_Mode = GPIO_Mode_AF_PP;
 1539              		.loc 3 16 4 view .LVU380
  17:../8-LCD-TEMP-STP_Motor_IR/Serial.h ****    GPIO_InitStructure.GPIO_Speed = GPIO_Speed_50MHz;
 1540              		.loc 3 17 4 view .LVU381
 1541              	@ ../8-LCD-TEMP-STP_Motor_IR/Serial.h:15:    GPIO_InitStructure.GPIO_Pin = GPIO_Pin_9;
ARM GAS  /tmp/cc4r6sqw.s 			page 42


  15:../8-LCD-TEMP-STP_Motor_IR/Serial.h ****    GPIO_InitStructure.GPIO_Mode = GPIO_Mode_AF_PP;
 1542              		.loc 3 15 32 is_stmt 0 view .LVU382
 1543 048a 4FF40073 		mov	r3, #512	@ tmp114,
 1544 048e ADF80430 		strh	r3, [sp, #4]	@ movhi	@ tmp114, GPIO_InitStructure.GPIO_Pin
 1545              	@ ../8-LCD-TEMP-STP_Motor_IR/Serial.h:17:    GPIO_InitStructure.GPIO_Speed = GPIO_Speed_50MHz;
 1546              		.loc 3 17 34 view .LVU383
 1547 0492 41F60303 		movw	r3, #6147	@ tmp116,
 1548              	@ ../8-LCD-TEMP-STP_Motor_IR/Serial.h:18:    GPIO_Init(GPIOA, &GPIO_InitStructure);
  18:../8-LCD-TEMP-STP_Motor_IR/Serial.h ****    GPIO_Init(GPIOA, &GPIO_InitStructure);
 1549              		.loc 3 18 4 view .LVU384
 1550 0496 144C     		ldr	r4, .L99	@ tmp118,
 1551 0498 01A9     		add	r1, sp, #4	@ tmp134,,
 1552 049a 2046     		mov	r0, r4	@, tmp118
 1553              	@ ../8-LCD-TEMP-STP_Motor_IR/Serial.h:17:    GPIO_InitStructure.GPIO_Speed = GPIO_Speed_50MHz;
  17:../8-LCD-TEMP-STP_Motor_IR/Serial.h ****    GPIO_InitStructure.GPIO_Speed = GPIO_Speed_50MHz;
 1554              		.loc 3 17 34 view .LVU385
 1555 049c ADF80630 		strh	r3, [sp, #6]	@ movhi	@ tmp116, MEM <unsigned short> [(void *)&GPIO_InitStructure + 2B]
 1556              		.loc 3 18 4 is_stmt 1 view .LVU386
 1557 04a0 FFF7FEFF 		bl	GPIO_Init		@
 1558              	.LVL68:
  19:../8-LCD-TEMP-STP_Motor_IR/Serial.h **** 
  20:../8-LCD-TEMP-STP_Motor_IR/Serial.h ****    /* Configure USART1 Rx (PA.10) as input floating */
  21:../8-LCD-TEMP-STP_Motor_IR/Serial.h ****    GPIO_InitStructure.GPIO_Pin = GPIO_Pin_10;
 1559              		.loc 3 21 4 view .LVU387
 1560              	@ ../8-LCD-TEMP-STP_Motor_IR/Serial.h:21:    GPIO_InitStructure.GPIO_Pin = GPIO_Pin_10;
 1561              		.loc 3 21 32 is_stmt 0 view .LVU388
 1562 04a4 4FF48063 		mov	r3, #1024	@ tmp120,
 1563 04a8 ADF80430 		strh	r3, [sp, #4]	@ movhi	@ tmp120, GPIO_InitStructure.GPIO_Pin
  22:../8-LCD-TEMP-STP_Motor_IR/Serial.h ****    GPIO_InitStructure.GPIO_Mode = GPIO_Mode_IN_FLOATING;
 1564              		.loc 3 22 4 is_stmt 1 view .LVU389
 1565              	@ ../8-LCD-TEMP-STP_Motor_IR/Serial.h:22:    GPIO_InitStructure.GPIO_Mode = GPIO_Mode_IN_FLOATING;
 1566              		.loc 3 22 33 is_stmt 0 view .LVU390
 1567 04ac 0423     		movs	r3, #4	@ tmp121,
 1568              	@ ../8-LCD-TEMP-STP_Motor_IR/Serial.h:23:    GPIO_Init(GPIOA, &GPIO_InitStructure);
  23:../8-LCD-TEMP-STP_Motor_IR/Serial.h ****    GPIO_Init(GPIOA, &GPIO_InitStructure);
 1569              		.loc 3 23 4 view .LVU391
 1570 04ae 2046     		mov	r0, r4	@, tmp118
 1571 04b0 0DEB0301 		add	r1, sp, r3	@ tmp135,,
 1572              	@ ../8-LCD-TEMP-STP_Motor_IR/Serial.h:22:    GPIO_InitStructure.GPIO_Mode = GPIO_Mode_IN_FLOATING;
  22:../8-LCD-TEMP-STP_Motor_IR/Serial.h ****    GPIO_InitStructure.GPIO_Mode = GPIO_Mode_IN_FLOATING;
 1573              		.loc 3 22 33 view .LVU392
 1574 04b4 8DF80730 		strb	r3, [sp, #7]	@ tmp121, GPIO_InitStructure.GPIO_Mode
 1575              		.loc 3 23 4 is_stmt 1 view .LVU393
 1576 04b8 FFF7FEFF 		bl	GPIO_Init		@
 1577              	.LVL69:
  24:../8-LCD-TEMP-STP_Motor_IR/Serial.h **** 
  25:../8-LCD-TEMP-STP_Motor_IR/Serial.h ****    /* Configure the USART1 */
  26:../8-LCD-TEMP-STP_Motor_IR/Serial.h ****    USART_InitTypeDef USART_InitStructure;
 1578              		.loc 3 26 4 view .LVU394
  27:../8-LCD-TEMP-STP_Motor_IR/Serial.h ****    USART_InitStructure.USART_BaudRate = 115200;
 1579              		.loc 3 27 4 view .LVU395
  28:../8-LCD-TEMP-STP_Motor_IR/Serial.h ****    USART_InitStructure.USART_WordLength = USART_WordLength_8b;
 1580              		.loc 3 28 4 view .LVU396
  29:../8-LCD-TEMP-STP_Motor_IR/Serial.h ****    USART_InitStructure.USART_StopBits = USART_StopBits_1;
 1581              		.loc 3 29 4 view .LVU397
  30:../8-LCD-TEMP-STP_Motor_IR/Serial.h ****    USART_InitStructure.USART_Parity = USART_Parity_No;
 1582              		.loc 3 30 4 view .LVU398
ARM GAS  /tmp/cc4r6sqw.s 			page 43


  31:../8-LCD-TEMP-STP_Motor_IR/Serial.h ****    USART_InitStructure.USART_HardwareFlowControl = USART_HardwareFlowControl_None;
 1583              		.loc 3 31 4 view .LVU399
  32:../8-LCD-TEMP-STP_Motor_IR/Serial.h ****    USART_InitStructure.USART_Mode = USART_Mode_Rx | USART_Mode_Tx;
 1584              		.loc 3 32 4 view .LVU400
 1585              	@ ../8-LCD-TEMP-STP_Motor_IR/Serial.h:28:    USART_InitStructure.USART_WordLength = USART_WordLengt
  28:../8-LCD-TEMP-STP_Motor_IR/Serial.h ****    USART_InitStructure.USART_StopBits = USART_StopBits_1;
 1586              		.loc 3 28 41 is_stmt 0 view .LVU401
 1587 04bc 0023     		movs	r3, #0	@ tmp126,
 1588 04be 4FF4E132 		mov	r2, #115200	@,
 1589 04c2 CDE90223 		strd	r2, r3, [sp, #8]	@, tmp126,,
 1590              	@ ../8-LCD-TEMP-STP_Motor_IR/Serial.h:30:    USART_InitStructure.USART_Parity = USART_Parity_No;
  30:../8-LCD-TEMP-STP_Motor_IR/Serial.h ****    USART_InitStructure.USART_HardwareFlowControl = USART_HardwareFlowControl_None;
 1591              		.loc 3 30 37 view .LVU402
 1592 04c6 4FF44022 		mov	r2, #786432	@ tmp127,
 1593              	@ ../8-LCD-TEMP-STP_Motor_IR/Serial.h:34:    USART_Init(USART1, &USART_InitStructure);
  33:../8-LCD-TEMP-STP_Motor_IR/Serial.h **** 
  34:../8-LCD-TEMP-STP_Motor_IR/Serial.h ****    USART_Init(USART1, &USART_InitStructure);
 1594              		.loc 3 34 4 view .LVU403
 1595 04ca 04F54054 		add	r4, r4, #12288	@ tmp131, tmp131,
 1596 04ce 2046     		mov	r0, r4	@, tmp131
 1597 04d0 02A9     		add	r1, sp, #8	@,,
 1598              	@ ../8-LCD-TEMP-STP_Motor_IR/Serial.h:30:    USART_InitStructure.USART_Parity = USART_Parity_No;
  30:../8-LCD-TEMP-STP_Motor_IR/Serial.h ****    USART_InitStructure.USART_HardwareFlowControl = USART_HardwareFlowControl_None;
 1599              		.loc 3 30 37 view .LVU404
 1600 04d2 0492     		str	r2, [sp, #16]	@ tmp127, MEM <unsigned int> [(short unsigned int *)&USART_InitStructure + 8B]
 1601              	@ ../8-LCD-TEMP-STP_Motor_IR/Serial.h:31:    USART_InitStructure.USART_HardwareFlowControl = USART_
  31:../8-LCD-TEMP-STP_Motor_IR/Serial.h ****    USART_InitStructure.USART_Mode = USART_Mode_Rx | USART_Mode_Tx;
 1602              		.loc 3 31 50 view .LVU405
 1603 04d4 ADF81430 		strh	r3, [sp, #20]	@ movhi	@ tmp126, USART_InitStructure.USART_HardwareFlowControl
 1604              		.loc 3 34 4 is_stmt 1 view .LVU406
 1605 04d8 FFF7FEFF 		bl	USART_Init		@
 1606              	.LVL70:
  35:../8-LCD-TEMP-STP_Motor_IR/Serial.h **** 
  36:../8-LCD-TEMP-STP_Motor_IR/Serial.h ****    /* Enable USART1 */
  37:../8-LCD-TEMP-STP_Motor_IR/Serial.h ****    USART_Cmd(USART1, ENABLE);
 1607              		.loc 3 37 4 view .LVU407
 1608 04dc 0121     		movs	r1, #1	@,
 1609 04de 2046     		mov	r0, r4	@, tmp131
 1610 04e0 FFF7FEFF 		bl	USART_Cmd		@
 1611              	.LVL71:
 1612              	@ ../8-LCD-TEMP-STP_Motor_IR/Serial.h:38: }
  38:../8-LCD-TEMP-STP_Motor_IR/Serial.h **** }
 1613              		.loc 3 38 1 is_stmt 0 view .LVU408
 1614 04e4 06B0     		add	sp, sp, #24	@,,
 1615              	.LCFI10:
 1616              		.cfi_def_cfa_offset 8
 1617              		@ sp needed	@
 1618 04e6 10BD     		pop	{r4, pc}	@
 1619              	.L100:
 1620              		.align	2
 1621              	.L99:
 1622 04e8 00080140 		.word	1073809408
 1623              		.cfi_endproc
 1624              	.LFE45:
 1625              		.size	USART_init, .-USART_init
 1626              		.align	1
 1627              		.global	USARTSend
ARM GAS  /tmp/cc4r6sqw.s 			page 44


 1628              		.syntax unified
 1629              		.thumb
 1630              		.thumb_func
 1631              		.type	USARTSend, %function
 1632              	USARTSend:
 1633              	.LVL72:
 1634              	.LFB46:
  39:../8-LCD-TEMP-STP_Motor_IR/Serial.h **** 
  40:../8-LCD-TEMP-STP_Motor_IR/Serial.h **** void USARTSend(char *pucBuffer) {
 1635              		.loc 3 40 33 is_stmt 1 view -0
 1636              		.cfi_startproc
 1637              		@ args = 0, pretend = 0, frame = 0
 1638              		@ frame_needed = 0, uses_anonymous_args = 0
  41:../8-LCD-TEMP-STP_Motor_IR/Serial.h ****     while (*pucBuffer)
 1639              		.loc 3 41 5 view .LVU410
 1640              	@ ../8-LCD-TEMP-STP_Motor_IR/Serial.h:40: void USARTSend(char *pucBuffer) {
  40:../8-LCD-TEMP-STP_Motor_IR/Serial.h ****     while (*pucBuffer)
 1641              		.loc 3 40 33 is_stmt 0 view .LVU411
 1642 04ec 38B5     		push	{r3, r4, r5, lr}	@
 1643              	.LCFI11:
 1644              		.cfi_def_cfa_offset 16
 1645              		.cfi_offset 3, -16
 1646              		.cfi_offset 4, -12
 1647              		.cfi_offset 5, -8
 1648              		.cfi_offset 14, -4
 1649              	@ ../8-LCD-TEMP-STP_Motor_IR/Serial.h:43:         USART_SendData(USART1, *pucBuffer++);
  42:../8-LCD-TEMP-STP_Motor_IR/Serial.h ****     {
  43:../8-LCD-TEMP-STP_Motor_IR/Serial.h ****         USART_SendData(USART1, *pucBuffer++);
 1650              		.loc 3 43 9 view .LVU412
 1651 04ee 084D     		ldr	r5, .L107	@ tmp126,
 1652 04f0 441E     		subs	r4, r0, #1	@ ivtmp.157, tmp128,
 1653              	.LVL73:
 1654              	.L102:
  41:../8-LCD-TEMP-STP_Motor_IR/Serial.h ****     {
 1655              		.loc 3 41 11 is_stmt 1 view .LVU413
 1656              	@ ../8-LCD-TEMP-STP_Motor_IR/Serial.h:41:     while (*pucBuffer)
  41:../8-LCD-TEMP-STP_Motor_IR/Serial.h ****     {
 1657              		.loc 3 41 12 is_stmt 0 view .LVU414
 1658 04f2 14F8011F 		ldrb	r1, [r4, #1]!	@ zero_extendqisi2	@ _3, MEM[base: _16, offset: 0B]
 1659              	.LVL74:
 1660              	@ ../8-LCD-TEMP-STP_Motor_IR/Serial.h:41:     while (*pucBuffer)
  41:../8-LCD-TEMP-STP_Motor_IR/Serial.h ****     {
 1661              		.loc 3 41 11 view .LVU415
 1662 04f6 01B9     		cbnz	r1, .L104	@ _3,
 1663              	@ ../8-LCD-TEMP-STP_Motor_IR/Serial.h:48: }
  44:../8-LCD-TEMP-STP_Motor_IR/Serial.h ****         while(USART_GetFlagStatus(USART1, USART_FLAG_TC) == RESET)
  45:../8-LCD-TEMP-STP_Motor_IR/Serial.h ****         {
  46:../8-LCD-TEMP-STP_Motor_IR/Serial.h ****         }
  47:../8-LCD-TEMP-STP_Motor_IR/Serial.h ****     }
  48:../8-LCD-TEMP-STP_Motor_IR/Serial.h **** }
 1664              		.loc 3 48 1 view .LVU416
 1665 04f8 38BD     		pop	{r3, r4, r5, pc}	@
 1666              	.LVL75:
 1667              	.L104:
  43:../8-LCD-TEMP-STP_Motor_IR/Serial.h ****         while(USART_GetFlagStatus(USART1, USART_FLAG_TC) == RESET)
 1668              		.loc 3 43 9 is_stmt 1 view .LVU417
  43:../8-LCD-TEMP-STP_Motor_IR/Serial.h ****         while(USART_GetFlagStatus(USART1, USART_FLAG_TC) == RESET)
ARM GAS  /tmp/cc4r6sqw.s 			page 45


 1669              		.loc 3 43 9 is_stmt 0 view .LVU418
 1670 04fa 2846     		mov	r0, r5	@, tmp126
 1671 04fc FFF7FEFF 		bl	USART_SendData		@
 1672              	.LVL76:
  44:../8-LCD-TEMP-STP_Motor_IR/Serial.h ****         while(USART_GetFlagStatus(USART1, USART_FLAG_TC) == RESET)
 1673              		.loc 3 44 9 is_stmt 1 view .LVU419
 1674              	.L103:
  46:../8-LCD-TEMP-STP_Motor_IR/Serial.h ****     }
 1675              		.loc 3 46 9 discriminator 1 view .LVU420
  44:../8-LCD-TEMP-STP_Motor_IR/Serial.h ****         while(USART_GetFlagStatus(USART1, USART_FLAG_TC) == RESET)
 1676              		.loc 3 44 14 discriminator 1 view .LVU421
 1677              	@ ../8-LCD-TEMP-STP_Motor_IR/Serial.h:44:         while(USART_GetFlagStatus(USART1, USART_FLAG_TC) 
  44:../8-LCD-TEMP-STP_Motor_IR/Serial.h ****         while(USART_GetFlagStatus(USART1, USART_FLAG_TC) == RESET)
 1678              		.loc 3 44 15 is_stmt 0 discriminator 1 view .LVU422
 1679 0500 4021     		movs	r1, #64	@,
 1680 0502 2846     		mov	r0, r5	@, tmp126
 1681 0504 FFF7FEFF 		bl	USART_GetFlagStatus		@
 1682              	.LVL77:
 1683              	@ ../8-LCD-TEMP-STP_Motor_IR/Serial.h:44:         while(USART_GetFlagStatus(USART1, USART_FLAG_TC) 
  44:../8-LCD-TEMP-STP_Motor_IR/Serial.h ****         while(USART_GetFlagStatus(USART1, USART_FLAG_TC) == RESET)
 1684              		.loc 3 44 14 discriminator 1 view .LVU423
 1685 0508 0028     		cmp	r0, #0	@ tmp129
 1686 050a F9D0     		beq	.L103	@
 1687 050c F1E7     		b	.L102		@
 1688              	.L108:
 1689 050e 00BF     		.align	2
 1690              	.L107:
 1691 0510 00380140 		.word	1073821696
 1692              		.cfi_endproc
 1693              	.LFE46:
 1694              		.size	USARTSend, .-USARTSend
 1695              		.align	1
 1696              		.global	ADC9_Configuration
 1697              		.syntax unified
 1698              		.thumb
 1699              		.thumb_func
 1700              		.type	ADC9_Configuration, %function
 1701              	ADC9_Configuration:
 1702              	.LFB47:
 1703              		.file 4 "../8-LCD-TEMP-STP_Motor_IR/adc.h"
   1:../8-LCD-TEMP-STP_Motor_IR/adc.h **** 
   2:../8-LCD-TEMP-STP_Motor_IR/adc.h **** void ADC9_Configuration()
   3:../8-LCD-TEMP-STP_Motor_IR/adc.h **** {
 1704              		.loc 4 3 1 is_stmt 1 view -0
 1705              		.cfi_startproc
 1706              		@ args = 0, pretend = 0, frame = 0
 1707              		@ frame_needed = 0, uses_anonymous_args = 0
 1708              		@ link register save eliminated.
   4:../8-LCD-TEMP-STP_Motor_IR/adc.h ****     // Habilitar o clock do ADC9
   5:../8-LCD-TEMP-STP_Motor_IR/adc.h ****     RCC->APB2ENR |= RCC_APB2ENR_ADC2EN;
 1709              		.loc 4 5 5 view .LVU425
 1710              	@ ../8-LCD-TEMP-STP_Motor_IR/adc.h:5:     RCC->APB2ENR |= RCC_APB2ENR_ADC2EN;
 1711              		.loc 4 5 18 is_stmt 0 view .LVU426
 1712 0514 174B     		ldr	r3, .L112	@ tmp135,
 1713 0516 9A69     		ldr	r2, [r3, #24]	@ _1, MEM[(struct RCC_TypeDef *)1073876992B].APB2ENR
 1714 0518 42F48062 		orr	r2, r2, #1024	@ _2, _1,
 1715 051c 9A61     		str	r2, [r3, #24]	@ _2, MEM[(struct RCC_TypeDef *)1073876992B].APB2ENR
ARM GAS  /tmp/cc4r6sqw.s 			page 46


   6:../8-LCD-TEMP-STP_Motor_IR/adc.h ****     RCC->APB2ENR |= (1<<3);
 1716              		.loc 4 6 5 is_stmt 1 view .LVU427
 1717              	@ ../8-LCD-TEMP-STP_Motor_IR/adc.h:6:     RCC->APB2ENR |= (1<<3);
 1718              		.loc 4 6 18 is_stmt 0 view .LVU428
 1719 051e 9A69     		ldr	r2, [r3, #24]	@ _3, MEM[(struct RCC_TypeDef *)1073876992B].APB2ENR
 1720 0520 42F00802 		orr	r2, r2, #8	@ _4, _3,
 1721 0524 9A61     		str	r2, [r3, #24]	@ _4, MEM[(struct RCC_TypeDef *)1073876992B].APB2ENR
   7:../8-LCD-TEMP-STP_Motor_IR/adc.h **** 
   8:../8-LCD-TEMP-STP_Motor_IR/adc.h ****     // Configurar o pino PB1 como entrada analógica
   9:../8-LCD-TEMP-STP_Motor_IR/adc.h ****     GPIOB->CRL &= ~(GPIO_CRL_MODE1 | GPIO_CRL_CNF1);
 1722              		.loc 4 9 5 is_stmt 1 view .LVU429
 1723              	@ ../8-LCD-TEMP-STP_Motor_IR/adc.h:9:     GPIOB->CRL &= ~(GPIO_CRL_MODE1 | GPIO_CRL_CNF1);
 1724              		.loc 4 9 16 is_stmt 0 view .LVU430
 1725 0526 144A     		ldr	r2, .L112+4	@ tmp139,
 1726 0528 1368     		ldr	r3, [r2]	@ _5, MEM[(struct GPIO_TypeDef *)1073810432B].CRL
 1727 052a 23F0F003 		bic	r3, r3, #240	@ _6, _5,
 1728 052e 1360     		str	r3, [r2]	@ _6, MEM[(struct GPIO_TypeDef *)1073810432B].CRL
  10:../8-LCD-TEMP-STP_Motor_IR/adc.h ****     // GPIOB->CRL |= GPIO_CRL_CNF1_0;
  11:../8-LCD-TEMP-STP_Motor_IR/adc.h **** 
  12:../8-LCD-TEMP-STP_Motor_IR/adc.h ****     // Configurar as seguintes opções para o ADC9:
  13:../8-LCD-TEMP-STP_Motor_IR/adc.h ****     // - Modo de operação: modo independente
  14:../8-LCD-TEMP-STP_Motor_IR/adc.h ****     // - Modo de conversão: Contínua
  15:../8-LCD-TEMP-STP_Motor_IR/adc.h ****     // - Resolução: 12 bits
  16:../8-LCD-TEMP-STP_Motor_IR/adc.h ****     // - Fator de divisão do clock: 4 (seleciona um clock ADC de 14 MHz)
  17:../8-LCD-TEMP-STP_Motor_IR/adc.h ****     ADC2->CR1 &= ~(ADC_CR1_DISCEN | ADC_CR1_SCAN);
 1729              		.loc 4 17 5 is_stmt 1 view .LVU431
 1730              	@ ../8-LCD-TEMP-STP_Motor_IR/adc.h:17:     ADC2->CR1 &= ~(ADC_CR1_DISCEN | ADC_CR1_SCAN);
 1731              		.loc 4 17 15 is_stmt 0 view .LVU432
 1732 0530 124B     		ldr	r3, .L112+8	@ tmp141,
 1733 0532 5A68     		ldr	r2, [r3, #4]	@ _7, MEM[(struct ADC_TypeDef *)1073817600B].CR1
 1734 0534 22F41062 		bic	r2, r2, #2304	@ _8, _7,
 1735 0538 5A60     		str	r2, [r3, #4]	@ _8, MEM[(struct ADC_TypeDef *)1073817600B].CR1
  18:../8-LCD-TEMP-STP_Motor_IR/adc.h ****     ADC2->CR1 |= ADC_CR1_EOCIE;
 1736              		.loc 4 18 5 is_stmt 1 view .LVU433
 1737              	@ ../8-LCD-TEMP-STP_Motor_IR/adc.h:18:     ADC2->CR1 |= ADC_CR1_EOCIE;
 1738              		.loc 4 18 15 is_stmt 0 view .LVU434
 1739 053a 5A68     		ldr	r2, [r3, #4]	@ _9, MEM[(struct ADC_TypeDef *)1073817600B].CR1
 1740 053c 42F02002 		orr	r2, r2, #32	@ _10, _9,
 1741 0540 5A60     		str	r2, [r3, #4]	@ _10, MEM[(struct ADC_TypeDef *)1073817600B].CR1
  19:../8-LCD-TEMP-STP_Motor_IR/adc.h ****     ADC2->CR2 &= ~(ADC_CR2_CONT | ADC_CR2_ALIGN | ADC_CR2_EXTSEL | ADC_CR2_EXTTRIG);
 1742              		.loc 4 19 5 is_stmt 1 view .LVU435
 1743              	@ ../8-LCD-TEMP-STP_Motor_IR/adc.h:19:     ADC2->CR2 &= ~(ADC_CR2_CONT | ADC_CR2_ALIGN | ADC_CR2_EX
 1744              		.loc 4 19 15 is_stmt 0 view .LVU436
 1745 0542 9968     		ldr	r1, [r3, #8]	@ _11, MEM[(struct ADC_TypeDef *)1073817600B].CR2
 1746 0544 0E4A     		ldr	r2, .L112+12	@ _12,
 1747 0546 0A40     		ands	r2, r2, r1	@, _12, _12, _11
 1748 0548 9A60     		str	r2, [r3, #8]	@ _12, MEM[(struct ADC_TypeDef *)1073817600B].CR2
  20:../8-LCD-TEMP-STP_Motor_IR/adc.h **** 
  21:../8-LCD-TEMP-STP_Motor_IR/adc.h ****     ADC2->CR2 |= ADC_CR2_ADON | ADC_CR2_CONT | ADC_CR2_RSTCAL;
 1749              		.loc 4 21 5 is_stmt 1 view .LVU437
 1750              	@ ../8-LCD-TEMP-STP_Motor_IR/adc.h:21:     ADC2->CR2 |= ADC_CR2_ADON | ADC_CR2_CONT | ADC_CR2_RSTCA
 1751              		.loc 4 21 15 is_stmt 0 view .LVU438
 1752 054a 9A68     		ldr	r2, [r3, #8]	@ _13, MEM[(struct ADC_TypeDef *)1073817600B].CR2
 1753 054c 42F00B02 		orr	r2, r2, #11	@ _14, _13,
 1754 0550 9A60     		str	r2, [r3, #8]	@ _14, MEM[(struct ADC_TypeDef *)1073817600B].CR2
  22:../8-LCD-TEMP-STP_Motor_IR/adc.h **** 
  23:../8-LCD-TEMP-STP_Motor_IR/adc.h ****     ADC2->SMPR2 |= ADC_SMPR2_SMP9_0 | ADC_SMPR2_SMP9_1;
ARM GAS  /tmp/cc4r6sqw.s 			page 47


 1755              		.loc 4 23 5 is_stmt 1 view .LVU439
 1756              	@ ../8-LCD-TEMP-STP_Motor_IR/adc.h:23:     ADC2->SMPR2 |= ADC_SMPR2_SMP9_0 | ADC_SMPR2_SMP9_1;
 1757              		.loc 4 23 17 is_stmt 0 view .LVU440
 1758 0552 1A69     		ldr	r2, [r3, #16]	@ _15, MEM[(struct ADC_TypeDef *)1073817600B].SMPR2
 1759 0554 42F0C052 		orr	r2, r2, #402653184	@ _16, _15,
 1760 0558 1A61     		str	r2, [r3, #16]	@ _16, MEM[(struct ADC_TypeDef *)1073817600B].SMPR2
  24:../8-LCD-TEMP-STP_Motor_IR/adc.h ****     ADC2->SQR3 |= 9;
 1761              		.loc 4 24 5 is_stmt 1 view .LVU441
 1762              	@ ../8-LCD-TEMP-STP_Motor_IR/adc.h:24:     ADC2->SQR3 |= 9;
 1763              		.loc 4 24 16 is_stmt 0 view .LVU442
 1764 055a 5A6B     		ldr	r2, [r3, #52]	@ _17, MEM[(struct ADC_TypeDef *)1073817600B].SQR3
 1765 055c 42F00902 		orr	r2, r2, #9	@ _18, _17,
 1766 0560 5A63     		str	r2, [r3, #52]	@ _18, MEM[(struct ADC_TypeDef *)1073817600B].SQR3
  25:../8-LCD-TEMP-STP_Motor_IR/adc.h **** 
  26:../8-LCD-TEMP-STP_Motor_IR/adc.h **** 	while(ADC2->CR2 & ADC_CR2_RSTCAL);
 1767              		.loc 4 26 2 is_stmt 1 view .LVU443
 1768              	.L110:
 1769              		.loc 4 26 35 discriminator 1 view .LVU444
 1770              		.loc 4 26 7 discriminator 1 view .LVU445
 1771              	@ ../8-LCD-TEMP-STP_Motor_IR/adc.h:26: 	while(ADC2->CR2 & ADC_CR2_RSTCAL);
 1772              		.loc 4 26 12 is_stmt 0 discriminator 1 view .LVU446
 1773 0562 9A68     		ldr	r2, [r3, #8]	@ _19, MEM[(struct ADC_TypeDef *)1073817600B].CR2
 1774              	@ ../8-LCD-TEMP-STP_Motor_IR/adc.h:26: 	while(ADC2->CR2 & ADC_CR2_RSTCAL);
 1775              		.loc 4 26 7 discriminator 1 view .LVU447
 1776 0564 1207     		lsls	r2, r2, #28	@, _19,
 1777 0566 FCD4     		bmi	.L110		@,
  27:../8-LCD-TEMP-STP_Motor_IR/adc.h **** 
  28:../8-LCD-TEMP-STP_Motor_IR/adc.h ****     // Habilitar o ADC9
  29:../8-LCD-TEMP-STP_Motor_IR/adc.h ****     ADC2->CR2 |= ADC_CR2_ADON;
 1778              		.loc 4 29 5 is_stmt 1 view .LVU448
 1779              	@ ../8-LCD-TEMP-STP_Motor_IR/adc.h:29:     ADC2->CR2 |= ADC_CR2_ADON;
 1780              		.loc 4 29 15 is_stmt 0 view .LVU449
 1781 0568 9A68     		ldr	r2, [r3, #8]	@ _21, MEM[(struct ADC_TypeDef *)1073817600B].CR2
 1782 056a 42F00102 		orr	r2, r2, #1	@ _22, _21,
 1783 056e 9A60     		str	r2, [r3, #8]	@ _22, MEM[(struct ADC_TypeDef *)1073817600B].CR2
 1784              	@ ../8-LCD-TEMP-STP_Motor_IR/adc.h:30: }
  30:../8-LCD-TEMP-STP_Motor_IR/adc.h **** }
 1785              		.loc 4 30 1 view .LVU450
 1786 0570 7047     		bx	lr	@
 1787              	.L113:
 1788 0572 00BF     		.align	2
 1789              	.L112:
 1790 0574 00100240 		.word	1073876992
 1791 0578 000C0140 		.word	1073810432
 1792 057c 00280140 		.word	1073817600
 1793 0580 FDF7E1FF 		.word	-1968131
 1794              		.cfi_endproc
 1795              	.LFE47:
 1796              		.size	ADC9_Configuration, .-ADC9_Configuration
 1797              		.align	1
 1798              		.global	task3
 1799              		.syntax unified
 1800              		.thumb
 1801              		.thumb_func
 1802              		.type	task3, %function
 1803              	task3:
 1804              	.LVL78:
ARM GAS  /tmp/cc4r6sqw.s 			page 48


 1805              	.LFB54:
 183:../8-LCD-TEMP-STP_Motor_IR/main.c **** 	/* [1---]
 1806              		.loc 1 183 47 is_stmt 1 view -0
 1807              		.cfi_startproc
 1808              		@ Volatile: function does not return.
 1809              		@ args = 0, pretend = 0, frame = 8
 1810              		@ frame_needed = 0, uses_anonymous_args = 0
 194:../8-LCD-TEMP-STP_Motor_IR/main.c **** 	u32 Valor_ADC_normalizado; 
 1811              		.loc 1 194 2 view .LVU452
 1812              	@ ../8-LCD-TEMP-STP_Motor_IR/main.c:183:  void task3(void *args __attribute ((unused))){
 183:../8-LCD-TEMP-STP_Motor_IR/main.c **** 	/* [1---]
 1813              		.loc 1 183 47 is_stmt 0 view .LVU453
 1814 0584 07B5     		push	{r0, r1, r2, lr}	@
 1815              	.LCFI12:
 1816              		.cfi_def_cfa_offset 16
 1817              		.cfi_offset 14, -4
 1818              	@ ../8-LCD-TEMP-STP_Motor_IR/main.c:194: 	ADC9_Configuration();
 194:../8-LCD-TEMP-STP_Motor_IR/main.c **** 	u32 Valor_ADC_normalizado; 
 1819              		.loc 1 194 2 view .LVU454
 1820 0586 FFF7FEFF 		bl	ADC9_Configuration		@
 1821              	.LVL79:
 1822              	@ ../8-LCD-TEMP-STP_Motor_IR/main.c:199: 		Valor_ADC_normalizado = ADC2->DR;
 199:../8-LCD-TEMP-STP_Motor_IR/main.c **** 
 1823              		.loc 1 199 31 view .LVU455
 1824 058a 0A4D     		ldr	r5, .L117	@ tmp118,
 1825              	@ ../8-LCD-TEMP-STP_Motor_IR/main.c:201: 		if(uxQueueMessagesWaiting(LCD_Show_queue) <= ELEMENTOS_F
 201:../8-LCD-TEMP-STP_Motor_IR/main.c **** 				xQueueSend(LCD_Show_queue, &Valor_ADC_normalizado, pdMS_TO_TICKS(10));
 1826              		.loc 1 201 6 view .LVU456
 1827 058c 0A4C     		ldr	r4, .L117+4	@ tmp119,
 1828              	.LVL80:
 1829              	.L116:
 195:../8-LCD-TEMP-STP_Motor_IR/main.c **** 
 1830              		.loc 1 195 2 is_stmt 1 view .LVU457
 197:../8-LCD-TEMP-STP_Motor_IR/main.c **** 
 1831              		.loc 1 197 2 view .LVU458
 199:../8-LCD-TEMP-STP_Motor_IR/main.c **** 
 1832              		.loc 1 199 3 view .LVU459
 1833              	@ ../8-LCD-TEMP-STP_Motor_IR/main.c:199: 		Valor_ADC_normalizado = ADC2->DR;
 199:../8-LCD-TEMP-STP_Motor_IR/main.c **** 
 1834              		.loc 1 199 31 is_stmt 0 view .LVU460
 1835 058e EB6C     		ldr	r3, [r5, #76]	@ _1, MEM[(struct ADC_TypeDef *)1073817600B].DR
 1836              	@ ../8-LCD-TEMP-STP_Motor_IR/main.c:201: 		if(uxQueueMessagesWaiting(LCD_Show_queue) <= ELEMENTOS_F
 201:../8-LCD-TEMP-STP_Motor_IR/main.c **** 				xQueueSend(LCD_Show_queue, &Valor_ADC_normalizado, pdMS_TO_TICKS(10));
 1837              		.loc 1 201 6 view .LVU461
 1838 0590 A068     		ldr	r0, [r4, #8]	@, LCD_Show_queue
 1839              	@ ../8-LCD-TEMP-STP_Motor_IR/main.c:199: 		Valor_ADC_normalizado = ADC2->DR;
 199:../8-LCD-TEMP-STP_Motor_IR/main.c **** 
 1840              		.loc 1 199 25 view .LVU462
 1841 0592 0193     		str	r3, [sp, #4]	@ _1, Valor_ADC_normalizado
 201:../8-LCD-TEMP-STP_Motor_IR/main.c **** 				xQueueSend(LCD_Show_queue, &Valor_ADC_normalizado, pdMS_TO_TICKS(10));
 1842              		.loc 1 201 3 is_stmt 1 view .LVU463
 1843              	@ ../8-LCD-TEMP-STP_Motor_IR/main.c:201: 		if(uxQueueMessagesWaiting(LCD_Show_queue) <= ELEMENTOS_F
 201:../8-LCD-TEMP-STP_Motor_IR/main.c **** 				xQueueSend(LCD_Show_queue, &Valor_ADC_normalizado, pdMS_TO_TICKS(10));
 1844              		.loc 1 201 6 is_stmt 0 view .LVU464
 1845 0594 FFF7FEFF 		bl	uxQueueMessagesWaiting		@
 1846              	.LVL81:
 1847              	@ ../8-LCD-TEMP-STP_Motor_IR/main.c:201: 		if(uxQueueMessagesWaiting(LCD_Show_queue) <= ELEMENTOS_F
ARM GAS  /tmp/cc4r6sqw.s 			page 49


 201:../8-LCD-TEMP-STP_Motor_IR/main.c **** 				xQueueSend(LCD_Show_queue, &Valor_ADC_normalizado, pdMS_TO_TICKS(10));
 1848              		.loc 1 201 5 view .LVU465
 1849 0598 0228     		cmp	r0, #2	@ tmp123,
 1850 059a 06D8     		bhi	.L115		@,
 202:../8-LCD-TEMP-STP_Motor_IR/main.c **** 		}
 1851              		.loc 1 202 5 is_stmt 1 view .LVU466
 1852 059c 0023     		movs	r3, #0	@,
 1853 059e 4FF47A72 		mov	r2, #1000	@,
 1854 05a2 A068     		ldr	r0, [r4, #8]	@, LCD_Show_queue
 1855 05a4 01A9     		add	r1, sp, #4	@ tmp125,,
 1856 05a6 FFF7FEFF 		bl	xQueueGenericSend		@
 1857              	.LVL82:
 1858              	.L115:
 204:../8-LCD-TEMP-STP_Motor_IR/main.c **** 		
 1859              		.loc 1 204 3 view .LVU467
 1860 05aa 4CF25030 		movw	r0, #50000	@,
 1861 05ae FFF7FEFF 		bl	vTaskDelay		@
 1862              	.LVL83:
 197:../8-LCD-TEMP-STP_Motor_IR/main.c **** 
 1863              		.loc 1 197 7 view .LVU468
 1864              	@ ../8-LCD-TEMP-STP_Motor_IR/main.c:199: 		Valor_ADC_normalizado = ADC2->DR;
 199:../8-LCD-TEMP-STP_Motor_IR/main.c **** 
 1865              		.loc 1 199 25 is_stmt 0 view .LVU469
 1866 05b2 ECE7     		b	.L116		@
 1867              	.L118:
 1868              		.align	2
 1869              	.L117:
 1870 05b4 00280140 		.word	1073817600
 1871 05b8 00000000 		.word	.LANCHOR0
 1872              		.cfi_endproc
 1873              	.LFE54:
 1874              		.size	task3, .-task3
 1875              		.align	1
 1876              		.global	ADC9_GetValue
 1877              		.syntax unified
 1878              		.thumb
 1879              		.thumb_func
 1880              		.type	ADC9_GetValue, %function
 1881              	ADC9_GetValue:
 1882              	.LFB48:
  31:../8-LCD-TEMP-STP_Motor_IR/adc.h **** 
  32:../8-LCD-TEMP-STP_Motor_IR/adc.h **** uint16_t ADC9_GetValue()
  33:../8-LCD-TEMP-STP_Motor_IR/adc.h **** {
 1883              		.loc 4 33 1 is_stmt 1 view -0
 1884              		.cfi_startproc
 1885              		@ args = 0, pretend = 0, frame = 0
 1886              		@ frame_needed = 0, uses_anonymous_args = 0
 1887              		@ link register save eliminated.
  34:../8-LCD-TEMP-STP_Motor_IR/adc.h ****     // Iniciar uma conversão no ADC9
  35:../8-LCD-TEMP-STP_Motor_IR/adc.h ****     ADC2->CR2 |= ADC_CR2_SWSTART;
 1888              		.loc 4 35 5 view .LVU471
 1889              	@ ../8-LCD-TEMP-STP_Motor_IR/adc.h:35:     ADC2->CR2 |= ADC_CR2_SWSTART;
 1890              		.loc 4 35 15 is_stmt 0 view .LVU472
 1891 05bc 054B     		ldr	r3, .L123	@ tmp119,
 1892 05be 9A68     		ldr	r2, [r3, #8]	@ _1, MEM[(struct ADC_TypeDef *)1073817600B].CR2
 1893 05c0 42F48002 		orr	r2, r2, #4194304	@ _2, _1,
 1894 05c4 9A60     		str	r2, [r3, #8]	@ _2, MEM[(struct ADC_TypeDef *)1073817600B].CR2
ARM GAS  /tmp/cc4r6sqw.s 			page 50


  36:../8-LCD-TEMP-STP_Motor_IR/adc.h **** 
  37:../8-LCD-TEMP-STP_Motor_IR/adc.h ****     // Aguardar o final da conversão
  38:../8-LCD-TEMP-STP_Motor_IR/adc.h ****     while (!(ADC2->SR & ADC_SR_EOC));
 1895              		.loc 4 38 5 is_stmt 1 view .LVU473
 1896              	.L120:
 1897              		.loc 4 38 37 discriminator 1 view .LVU474
 1898              		.loc 4 38 11 discriminator 1 view .LVU475
 1899              	@ ../8-LCD-TEMP-STP_Motor_IR/adc.h:38:     while (!(ADC2->SR & ADC_SR_EOC));
 1900              		.loc 4 38 18 is_stmt 0 discriminator 1 view .LVU476
 1901 05c6 1A68     		ldr	r2, [r3]	@ _3, MEM[(struct ADC_TypeDef *)1073817600B].SR
 1902              	@ ../8-LCD-TEMP-STP_Motor_IR/adc.h:38:     while (!(ADC2->SR & ADC_SR_EOC));
 1903              		.loc 4 38 11 discriminator 1 view .LVU477
 1904 05c8 9207     		lsls	r2, r2, #30	@, _3,
 1905 05ca FCD5     		bpl	.L120		@,
  39:../8-LCD-TEMP-STP_Motor_IR/adc.h **** 
  40:../8-LCD-TEMP-STP_Motor_IR/adc.h ****     // Obter o valor convertido
  41:../8-LCD-TEMP-STP_Motor_IR/adc.h ****     return ADC2->DR;
 1906              		.loc 4 41 5 is_stmt 1 view .LVU478
 1907              	@ ../8-LCD-TEMP-STP_Motor_IR/adc.h:41:     return ADC2->DR;
 1908              		.loc 4 41 16 is_stmt 0 view .LVU479
 1909 05cc D86C     		ldr	r0, [r3, #76]	@ _5, MEM[(struct ADC_TypeDef *)1073817600B].DR
 1910              	@ ../8-LCD-TEMP-STP_Motor_IR/adc.h:43: }
  42:../8-LCD-TEMP-STP_Motor_IR/adc.h **** 
  43:../8-LCD-TEMP-STP_Motor_IR/adc.h **** }
 1911              		.loc 4 43 1 view .LVU480
 1912 05ce 80B2     		uxth	r0, r0	@, _5
 1913 05d0 7047     		bx	lr	@
 1914              	.L124:
 1915 05d2 00BF     		.align	2
 1916              	.L123:
 1917 05d4 00280140 		.word	1073817600
 1918              		.cfi_endproc
 1919              	.LFE48:
 1920              		.size	ADC9_GetValue, .-ADC9_GetValue
 1921              		.align	1
 1922              		.global	IR_Init
 1923              		.syntax unified
 1924              		.thumb
 1925              		.thumb_func
 1926              		.type	IR_Init, %function
 1927              	IR_Init:
 1928              	.LFB49:
 1929              		.file 5 "../8-LCD-TEMP-STP_Motor_IR/infraRed.h"
   1:../8-LCD-TEMP-STP_Motor_IR/infraRed.h **** #include "stm32f10x.h"
   2:../8-LCD-TEMP-STP_Motor_IR/infraRed.h **** 
   3:../8-LCD-TEMP-STP_Motor_IR/infraRed.h **** // Define o pino de entrada do receptor IR
   4:../8-LCD-TEMP-STP_Motor_IR/infraRed.h **** #define IR_PIN GPIO_Pin_6
   5:../8-LCD-TEMP-STP_Motor_IR/infraRed.h **** #define IR_PORT GPIOB
   6:../8-LCD-TEMP-STP_Motor_IR/infraRed.h **** 
   7:../8-LCD-TEMP-STP_Motor_IR/infraRed.h **** // Função para configurar o GPIO para o pino de entrada IR
   8:../8-LCD-TEMP-STP_Motor_IR/infraRed.h **** void IR_Init(void) {
 1930              		.loc 5 8 20 is_stmt 1 view -0
 1931              		.cfi_startproc
 1932              		@ args = 0, pretend = 0, frame = 8
 1933              		@ frame_needed = 0, uses_anonymous_args = 0
   9:../8-LCD-TEMP-STP_Motor_IR/infraRed.h ****   GPIO_InitTypeDef GPIO_InitStructure;
 1934              		.loc 5 9 3 view .LVU482
ARM GAS  /tmp/cc4r6sqw.s 			page 51


  10:../8-LCD-TEMP-STP_Motor_IR/infraRed.h **** 
  11:../8-LCD-TEMP-STP_Motor_IR/infraRed.h ****   //RCC_APB2PeriphClockCmd(RCC_APB2Periph_GPIOA, ENABLE);
  12:../8-LCD-TEMP-STP_Motor_IR/infraRed.h ****   RCC_APB2PeriphClockCmd(RCC_APB2Periph_GPIOB, ENABLE);
 1935              		.loc 5 12 3 view .LVU483
 1936              	@ ../8-LCD-TEMP-STP_Motor_IR/infraRed.h:8: void IR_Init(void) {
   8:../8-LCD-TEMP-STP_Motor_IR/infraRed.h ****   GPIO_InitTypeDef GPIO_InitStructure;
 1937              		.loc 5 8 20 is_stmt 0 view .LVU484
 1938 05d8 07B5     		push	{r0, r1, r2, lr}	@
 1939              	.LCFI13:
 1940              		.cfi_def_cfa_offset 16
 1941              		.cfi_offset 14, -4
 1942              	@ ../8-LCD-TEMP-STP_Motor_IR/infraRed.h:12:   RCC_APB2PeriphClockCmd(RCC_APB2Periph_GPIOB, ENABLE);
 1943              		.loc 5 12 3 view .LVU485
 1944 05da 0121     		movs	r1, #1	@,
 1945 05dc 0820     		movs	r0, #8	@,
 1946 05de FFF7FEFF 		bl	RCC_APB2PeriphClockCmd		@
 1947              	.LVL84:
  13:../8-LCD-TEMP-STP_Motor_IR/infraRed.h **** 
  14:../8-LCD-TEMP-STP_Motor_IR/infraRed.h ****   GPIO_InitStructure.GPIO_Pin = IR_PIN;
 1948              		.loc 5 14 3 is_stmt 1 view .LVU486
 1949              	@ ../8-LCD-TEMP-STP_Motor_IR/infraRed.h:14:   GPIO_InitStructure.GPIO_Pin = IR_PIN;
 1950              		.loc 5 14 31 is_stmt 0 view .LVU487
 1951 05e2 4023     		movs	r3, #64	@ tmp114,
 1952 05e4 ADF80430 		strh	r3, [sp, #4]	@ movhi	@ tmp114, GPIO_InitStructure.GPIO_Pin
  15:../8-LCD-TEMP-STP_Motor_IR/infraRed.h ****   GPIO_InitStructure.GPIO_Mode = GPIO_Mode_IN_FLOATING;
 1953              		.loc 5 15 3 is_stmt 1 view .LVU488
 1954              	@ ../8-LCD-TEMP-STP_Motor_IR/infraRed.h:15:   GPIO_InitStructure.GPIO_Mode = GPIO_Mode_IN_FLOATING;
 1955              		.loc 5 15 32 is_stmt 0 view .LVU489
 1956 05e8 0423     		movs	r3, #4	@ tmp115,
 1957              	@ ../8-LCD-TEMP-STP_Motor_IR/infraRed.h:16:   GPIO_Init(IR_PORT, &GPIO_InitStructure);
  16:../8-LCD-TEMP-STP_Motor_IR/infraRed.h ****   GPIO_Init(IR_PORT, &GPIO_InitStructure);
 1958              		.loc 5 16 3 view .LVU490
 1959 05ea 0548     		ldr	r0, .L126	@,
 1960 05ec 0DEB0301 		add	r1, sp, r3	@,,
 1961              	@ ../8-LCD-TEMP-STP_Motor_IR/infraRed.h:15:   GPIO_InitStructure.GPIO_Mode = GPIO_Mode_IN_FLOATING;
  15:../8-LCD-TEMP-STP_Motor_IR/infraRed.h ****   GPIO_InitStructure.GPIO_Mode = GPIO_Mode_IN_FLOATING;
 1962              		.loc 5 15 32 view .LVU491
 1963 05f0 8DF80730 		strb	r3, [sp, #7]	@ tmp115, GPIO_InitStructure.GPIO_Mode
 1964              		.loc 5 16 3 is_stmt 1 view .LVU492
 1965 05f4 FFF7FEFF 		bl	GPIO_Init		@
 1966              	.LVL85:
 1967              	@ ../8-LCD-TEMP-STP_Motor_IR/infraRed.h:18: }
  17:../8-LCD-TEMP-STP_Motor_IR/infraRed.h **** 
  18:../8-LCD-TEMP-STP_Motor_IR/infraRed.h **** }
 1968              		.loc 5 18 1 is_stmt 0 view .LVU493
 1969 05f8 03B0     		add	sp, sp, #12	@,,
 1970              	.LCFI14:
 1971              		.cfi_def_cfa_offset 4
 1972              		@ sp needed	@
 1973 05fa 5DF804FB 		ldr	pc, [sp], #4	@
 1974              	.L127:
 1975 05fe 00BF     		.align	2
 1976              	.L126:
 1977 0600 000C0140 		.word	1073810432
 1978              		.cfi_endproc
 1979              	.LFE49:
 1980              		.size	IR_Init, .-IR_Init
ARM GAS  /tmp/cc4r6sqw.s 			page 52


 1981              		.align	1
 1982              		.global	IR_Read
 1983              		.syntax unified
 1984              		.thumb
 1985              		.thumb_func
 1986              		.type	IR_Read, %function
 1987              	IR_Read:
 1988              	.LFB50:
  19:../8-LCD-TEMP-STP_Motor_IR/infraRed.h **** 
  20:../8-LCD-TEMP-STP_Motor_IR/infraRed.h **** // Função para receber o código NEC IR
  21:../8-LCD-TEMP-STP_Motor_IR/infraRed.h **** uint32_t IR_Read(void) {
 1989              		.loc 5 21 24 is_stmt 1 view -0
 1990              		.cfi_startproc
 1991              		@ args = 0, pretend = 0, frame = 0
 1992              		@ frame_needed = 0, uses_anonymous_args = 0
  22:../8-LCD-TEMP-STP_Motor_IR/infraRed.h ****   uint32_t code = 0;
 1993              		.loc 5 22 3 view .LVU495
 1994              	.LVL86:
  23:../8-LCD-TEMP-STP_Motor_IR/infraRed.h ****   uint32_t bit = 0;
 1995              		.loc 5 23 3 view .LVU496
  24:../8-LCD-TEMP-STP_Motor_IR/infraRed.h ****   uint32_t data = 0;
 1996              		.loc 5 24 3 view .LVU497
  25:../8-LCD-TEMP-STP_Motor_IR/infraRed.h **** 
  26:../8-LCD-TEMP-STP_Motor_IR/infraRed.h ****   // Aguarda o sinal de início (pulso LOW)
  27:../8-LCD-TEMP-STP_Motor_IR/infraRed.h ****   u8 k=0;
 1997              		.loc 5 27 3 view .LVU498
  28:../8-LCD-TEMP-STP_Motor_IR/infraRed.h ****   while (GPIO_ReadInputDataBit(IR_PORT, IR_PIN) != 0) {}
 1998              		.loc 5 28 3 view .LVU499
 1999              	@ ../8-LCD-TEMP-STP_Motor_IR/infraRed.h:21: uint32_t IR_Read(void) {
  21:../8-LCD-TEMP-STP_Motor_IR/infraRed.h ****   uint32_t code = 0;
 2000              		.loc 5 21 24 is_stmt 0 view .LVU500
 2001 0604 70B5     		push	{r4, r5, r6, lr}	@
 2002              	.LCFI15:
 2003              		.cfi_def_cfa_offset 16
 2004              		.cfi_offset 4, -16
 2005              		.cfi_offset 5, -12
 2006              		.cfi_offset 6, -8
 2007              		.cfi_offset 14, -4
 2008              	@ ../8-LCD-TEMP-STP_Motor_IR/infraRed.h:28:   while (GPIO_ReadInputDataBit(IR_PORT, IR_PIN) != 0) {
 2009              		.loc 5 28 10 view .LVU501
 2010 0606 204C     		ldr	r4, .L145	@ tmp146,
 2011              	.L129:
 2012              		.loc 5 28 56 is_stmt 1 discriminator 1 view .LVU502
 2013              		.loc 5 28 9 discriminator 1 view .LVU503
 2014              	@ ../8-LCD-TEMP-STP_Motor_IR/infraRed.h:28:   while (GPIO_ReadInputDataBit(IR_PORT, IR_PIN) != 0) {
 2015              		.loc 5 28 10 is_stmt 0 discriminator 1 view .LVU504
 2016 0608 4021     		movs	r1, #64	@,
 2017 060a 2046     		mov	r0, r4	@, tmp146
 2018 060c FFF7FEFF 		bl	GPIO_ReadInputDataBit		@
 2019              	.LVL87:
 2020              	@ ../8-LCD-TEMP-STP_Motor_IR/infraRed.h:28:   while (GPIO_ReadInputDataBit(IR_PORT, IR_PIN) != 0) {
 2021              		.loc 5 28 9 discriminator 1 view .LVU505
 2022 0610 0028     		cmp	r0, #0	@ tmp147
 2023 0612 F9D1     		bne	.L129	@
 2024 0614 0424     		movs	r4, #4	@ ivtmp_17,
 2025              	@ ../8-LCD-TEMP-STP_Motor_IR/infraRed.h:31:   while (GPIO_ReadInputDataBit(IR_PORT, IR_PIN) == 0 &&
  29:../8-LCD-TEMP-STP_Motor_IR/infraRed.h ****   
ARM GAS  /tmp/cc4r6sqw.s 			page 53


  30:../8-LCD-TEMP-STP_Motor_IR/infraRed.h ****   // Aguarda o sinal de início (pulso HIGH)
  31:../8-LCD-TEMP-STP_Motor_IR/infraRed.h ****   while (GPIO_ReadInputDataBit(IR_PORT, IR_PIN) == 0 && k <3 ) {
 2026              		.loc 5 31 10 view .LVU506
 2027 0616 1C4D     		ldr	r5, .L145	@ tmp143,
 2028              	.LVL88:
 2029              	.L130:
 2030              		.loc 5 31 9 is_stmt 1 view .LVU507
 2031              	@ ../8-LCD-TEMP-STP_Motor_IR/infraRed.h:31:   while (GPIO_ReadInputDataBit(IR_PORT, IR_PIN) == 0 &&
 2032              		.loc 5 31 10 is_stmt 0 view .LVU508
 2033 0618 4021     		movs	r1, #64	@,
 2034 061a 2846     		mov	r0, r5	@, tmp143
 2035 061c FFF7FEFF 		bl	GPIO_ReadInputDataBit		@
 2036              	.LVL89:
 2037              	@ ../8-LCD-TEMP-STP_Motor_IR/infraRed.h:31:   while (GPIO_ReadInputDataBit(IR_PORT, IR_PIN) == 0 &&
 2038              		.loc 5 31 9 view .LVU509
 2039 0620 18B9     		cbnz	r0, .L138	@ tmp148,
 2040              	@ ../8-LCD-TEMP-STP_Motor_IR/infraRed.h:31:   while (GPIO_ReadInputDataBit(IR_PORT, IR_PIN) == 0 &&
 2041              		.loc 5 31 54 discriminator 1 view .LVU510
 2042 0622 013C     		subs	r4, r4, #1	@ tmp127, ivtmp_17,
 2043              	.LVL90:
 2044              		.loc 5 31 54 discriminator 1 view .LVU511
 2045 0624 14F0FF04 		ands	r4, r4, #255	@ ivtmp_17, tmp127,
 2046 0628 02D1     		bne	.L132		@,
 2047              	.L138:
 2048 062a 0325     		movs	r5, #3	@ ivtmp_4,
 2049              	@ ../8-LCD-TEMP-STP_Motor_IR/infraRed.h:37:   while (GPIO_ReadInputDataBit(IR_PORT, IR_PIN) != 0 &&
  32:../8-LCD-TEMP-STP_Motor_IR/infraRed.h ****   k++;
  33:../8-LCD-TEMP-STP_Motor_IR/infraRed.h ****   __delay(1);
  34:../8-LCD-TEMP-STP_Motor_IR/infraRed.h ****   } k=0;
  35:../8-LCD-TEMP-STP_Motor_IR/infraRed.h ****   
  36:../8-LCD-TEMP-STP_Motor_IR/infraRed.h ****   // Aguarda o sinal de 9 ms (pulso LOW)
  37:../8-LCD-TEMP-STP_Motor_IR/infraRed.h ****   while (GPIO_ReadInputDataBit(IR_PORT, IR_PIN) != 0 && k <2 ) {
 2050              		.loc 5 37 10 view .LVU512
 2051 062c 164E     		ldr	r6, .L145	@ tmp140,
 2052 062e 06E0     		b	.L133		@
 2053              	.L132:
  32:../8-LCD-TEMP-STP_Motor_IR/infraRed.h ****   k++;
 2054              		.loc 5 32 3 is_stmt 1 view .LVU513
 2055              	.LVL91:
  33:../8-LCD-TEMP-STP_Motor_IR/infraRed.h ****   } k=0;
 2056              		.loc 5 33 3 view .LVU514
 2057 0630 0120     		movs	r0, #1	@,
 2058 0632 FFF7FEFF 		bl	vTaskDelay		@
 2059              	.LVL92:
 2060 0636 EFE7     		b	.L130		@
 2061              	.LVL93:
 2062              	.L135:
  38:../8-LCD-TEMP-STP_Motor_IR/infraRed.h ****   k++;
 2063              		.loc 5 38 3 view .LVU515
  39:../8-LCD-TEMP-STP_Motor_IR/infraRed.h ****   __delay(1);
 2064              		.loc 5 39 3 view .LVU516
 2065 0638 0120     		movs	r0, #1	@,
 2066 063a FFF7FEFF 		bl	vTaskDelay		@
 2067              	.LVL94:
 2068              	.L133:
  37:../8-LCD-TEMP-STP_Motor_IR/infraRed.h ****   k++;
 2069              		.loc 5 37 9 view .LVU517
ARM GAS  /tmp/cc4r6sqw.s 			page 54


 2070              	@ ../8-LCD-TEMP-STP_Motor_IR/infraRed.h:37:   while (GPIO_ReadInputDataBit(IR_PORT, IR_PIN) != 0 &&
  37:../8-LCD-TEMP-STP_Motor_IR/infraRed.h ****   k++;
 2071              		.loc 5 37 10 is_stmt 0 view .LVU518
 2072 063e 4021     		movs	r1, #64	@,
 2073 0640 3046     		mov	r0, r6	@, tmp140
 2074 0642 FFF7FEFF 		bl	GPIO_ReadInputDataBit		@
 2075              	.LVL95:
 2076              	@ ../8-LCD-TEMP-STP_Motor_IR/infraRed.h:37:   while (GPIO_ReadInputDataBit(IR_PORT, IR_PIN) != 0 &&
  37:../8-LCD-TEMP-STP_Motor_IR/infraRed.h ****   k++;
 2077              		.loc 5 37 9 view .LVU519
 2078 0646 0446     		mov	r4, r0	@ tmp129, tmp149
 2079 0648 E0B1     		cbz	r0, .L139	@ tmp129,
 2080              	@ ../8-LCD-TEMP-STP_Motor_IR/infraRed.h:37:   while (GPIO_ReadInputDataBit(IR_PORT, IR_PIN) != 0 &&
  37:../8-LCD-TEMP-STP_Motor_IR/infraRed.h ****   k++;
 2081              		.loc 5 37 54 discriminator 1 view .LVU520
 2082 064a 6C1E     		subs	r4, r5, #1	@ tmp130, ivtmp_4,
 2083 064c 14F0FF05 		ands	r5, r4, #255	@ ivtmp_4, tmp130,
 2084              	.LVL96:
  37:../8-LCD-TEMP-STP_Motor_IR/infraRed.h ****   k++;
 2085              		.loc 5 37 54 discriminator 1 view .LVU521
 2086 0650 F2D1     		bne	.L135		@,
 2087 0652 2C46     		mov	r4, r5	@ bit, ivtmp_4
 2088              	.L134:
 2089              	@ ../8-LCD-TEMP-STP_Motor_IR/infraRed.h:51:     data = GPIO_ReadInputDataBit(IR_PORT, IR_PIN);
  40:../8-LCD-TEMP-STP_Motor_IR/infraRed.h ****   } k=0;
  41:../8-LCD-TEMP-STP_Motor_IR/infraRed.h ****   
  42:../8-LCD-TEMP-STP_Motor_IR/infraRed.h ****   // Recebe o código NEC IR
  43:../8-LCD-TEMP-STP_Motor_IR/infraRed.h ****   for (bit = 0; bit < 32; bit++) {
  44:../8-LCD-TEMP-STP_Motor_IR/infraRed.h ****     // Aguarda o próximo bit
  45:../8-LCD-TEMP-STP_Motor_IR/infraRed.h ****     // while (GPIO_ReadInputDataBit(IR_PORT, IR_PIN) == 0) {}
  46:../8-LCD-TEMP-STP_Motor_IR/infraRed.h ****     
  47:../8-LCD-TEMP-STP_Motor_IR/infraRed.h ****     // Aguarda o próximo espaço
  48:../8-LCD-TEMP-STP_Motor_IR/infraRed.h ****     // while (GPIO_ReadInputDataBit(IR_PORT, IR_PIN) != 0) {}
  49:../8-LCD-TEMP-STP_Motor_IR/infraRed.h **** 	 __delay(60);
  50:../8-LCD-TEMP-STP_Motor_IR/infraRed.h **** 
  51:../8-LCD-TEMP-STP_Motor_IR/infraRed.h ****     data = GPIO_ReadInputDataBit(IR_PORT, IR_PIN);
 2090              		.loc 5 51 12 view .LVU522
 2091 0654 0C4E     		ldr	r6, .L145	@ tmp138,
 2092              	.LVL97:
 2093              	.L137:
  49:../8-LCD-TEMP-STP_Motor_IR/infraRed.h **** 
 2094              		.loc 5 49 3 is_stmt 1 view .LVU523
 2095 0656 3C20     		movs	r0, #60	@,
 2096 0658 FFF7FEFF 		bl	vTaskDelay		@
 2097              	.LVL98:
 2098              		.loc 5 51 5 view .LVU524
 2099              	@ ../8-LCD-TEMP-STP_Motor_IR/infraRed.h:51:     data = GPIO_ReadInputDataBit(IR_PORT, IR_PIN);
 2100              		.loc 5 51 12 is_stmt 0 view .LVU525
 2101 065c 4021     		movs	r1, #64	@,
 2102 065e 3046     		mov	r0, r6	@, tmp138
 2103 0660 FFF7FEFF 		bl	GPIO_ReadInputDataBit		@
 2104              	.LVL99:
  52:../8-LCD-TEMP-STP_Motor_IR/infraRed.h ****     
  53:../8-LCD-TEMP-STP_Motor_IR/infraRed.h ****     // Se o espaço tiver uma duração maior que 1.2 ms o bit é 1, caso contrário é 0
  54:../8-LCD-TEMP-STP_Motor_IR/infraRed.h ****     if (data > 0) {
 2105              		.loc 5 54 5 is_stmt 1 view .LVU526
 2106              	@ ../8-LCD-TEMP-STP_Motor_IR/infraRed.h:54:     if (data > 0) {
ARM GAS  /tmp/cc4r6sqw.s 			page 55


 2107              		.loc 5 54 8 is_stmt 0 view .LVU527
 2108 0664 10B1     		cbz	r0, .L136	@ tmp150,
  55:../8-LCD-TEMP-STP_Motor_IR/infraRed.h ****       code |= (1 << bit);
 2109              		.loc 5 55 7 is_stmt 1 view .LVU528
 2110              	@ ../8-LCD-TEMP-STP_Motor_IR/infraRed.h:55:       code |= (1 << bit);
 2111              		.loc 5 55 18 is_stmt 0 view .LVU529
 2112 0666 0123     		movs	r3, #1	@ tmp134,
 2113 0668 A340     		lsls	r3, r3, r4	@ tmp133, tmp134, bit
 2114              	@ ../8-LCD-TEMP-STP_Motor_IR/infraRed.h:55:       code |= (1 << bit);
 2115              		.loc 5 55 12 view .LVU530
 2116 066a 1D43     		orrs	r5, r5, r3	@, <retval>, <retval>, tmp133
 2117              	.LVL100:
 2118              	.L136:
  56:../8-LCD-TEMP-STP_Motor_IR/infraRed.h ****     }
  57:../8-LCD-TEMP-STP_Motor_IR/infraRed.h **** 	// Aguarda o próximo espaço
  58:../8-LCD-TEMP-STP_Motor_IR/infraRed.h **** 	 __delay(160);
 2119              		.loc 5 58 3 is_stmt 1 discriminator 2 view .LVU531
 2120 066c A020     		movs	r0, #160	@,
 2121              	.LVL101:
 2122              	@ ../8-LCD-TEMP-STP_Motor_IR/infraRed.h:43:   for (bit = 0; bit < 32; bit++) {
  43:../8-LCD-TEMP-STP_Motor_IR/infraRed.h ****     // Aguarda o próximo bit
 2123              		.loc 5 43 30 is_stmt 0 discriminator 2 view .LVU532
 2124 066e 0134     		adds	r4, r4, #1	@ bit, bit,
 2125              	.LVL102:
 2126              	@ ../8-LCD-TEMP-STP_Motor_IR/infraRed.h:58: 	 __delay(160);
 2127              		.loc 5 58 3 discriminator 2 view .LVU533
 2128 0670 FFF7FEFF 		bl	vTaskDelay		@
 2129              	.LVL103:
  43:../8-LCD-TEMP-STP_Motor_IR/infraRed.h ****     // Aguarda o próximo bit
 2130              		.loc 5 43 27 is_stmt 1 discriminator 2 view .LVU534
  43:../8-LCD-TEMP-STP_Motor_IR/infraRed.h ****     // Aguarda o próximo bit
 2131              		.loc 5 43 17 discriminator 2 view .LVU535
 2132              	@ ../8-LCD-TEMP-STP_Motor_IR/infraRed.h:43:   for (bit = 0; bit < 32; bit++) {
  43:../8-LCD-TEMP-STP_Motor_IR/infraRed.h ****     // Aguarda o próximo bit
 2133              		.loc 5 43 3 is_stmt 0 discriminator 2 view .LVU536
 2134 0674 202C     		cmp	r4, #32	@ bit,
 2135 0676 EED1     		bne	.L137		@,
  59:../8-LCD-TEMP-STP_Motor_IR/infraRed.h ****   }
  60:../8-LCD-TEMP-STP_Motor_IR/infraRed.h **** 
  61:../8-LCD-TEMP-STP_Motor_IR/infraRed.h ****   __delay(500);
 2136              		.loc 5 61 3 is_stmt 1 view .LVU537
 2137 0678 4FF4FA70 		mov	r0, #500	@,
 2138 067c FFF7FEFF 		bl	vTaskDelay		@
 2139              	.LVL104:
  62:../8-LCD-TEMP-STP_Motor_IR/infraRed.h ****   return code;
 2140              		.loc 5 62 3 view .LVU538
 2141              	@ ../8-LCD-TEMP-STP_Motor_IR/infraRed.h:63: }
  63:../8-LCD-TEMP-STP_Motor_IR/infraRed.h **** }
 2142              		.loc 5 63 1 is_stmt 0 view .LVU539
 2143 0680 2846     		mov	r0, r5	@, <retval>
 2144 0682 70BD     		pop	{r4, r5, r6, pc}	@
 2145              	.LVL105:
 2146              	.L139:
 2147              		.loc 5 63 1 view .LVU540
 2148 0684 0546     		mov	r5, r0	@ <retval>, bit
 2149              	.LVL106:
 2150              		.loc 5 63 1 view .LVU541
ARM GAS  /tmp/cc4r6sqw.s 			page 56


 2151 0686 E5E7     		b	.L134		@
 2152              	.L146:
 2153              		.align	2
 2154              	.L145:
 2155 0688 000C0140 		.word	1073810432
 2156              		.cfi_endproc
 2157              	.LFE50:
 2158              		.size	IR_Read, .-IR_Read
 2159              		.section	.rodata.str1.1,"aMS",%progbits,1
 2160              	.LC0:
 2161 0000 0D0A436F 		.ascii	"\015\012Codigo: 0x\000"
 2161      6469676F 
 2161      3A203078 
 2161      00
 2162              		.text
 2163              		.align	1
 2164              		.syntax unified
 2165              		.thumb
 2166              		.thumb_func
 2167              		.type	task5, %function
 2168              	task5:
 2169              	.LVL107:
 2170              	.LFB56:
 250:../8-LCD-TEMP-STP_Motor_IR/main.c **** 
 2171              		.loc 1 250 53 is_stmt 1 view -0
 2172              		.cfi_startproc
 2173              		@ Volatile: function does not return.
 2174              		@ args = 0, pretend = 0, frame = 16
 2175              		@ frame_needed = 0, uses_anonymous_args = 0
 266:../8-LCD-TEMP-STP_Motor_IR/main.c **** 	IR_Init();
 2176              		.loc 1 266 2 view .LVU543
 2177              	@ ../8-LCD-TEMP-STP_Motor_IR/main.c:250: static void task5(void *args __attribute ((unused))){
 250:../8-LCD-TEMP-STP_Motor_IR/main.c **** 
 2178              		.loc 1 250 53 is_stmt 0 view .LVU544
 2179 068c 8FB5     		push	{r0, r1, r2, r3, r7, lr}	@
 2180              	.LCFI16:
 2181              		.cfi_def_cfa_offset 24
 2182              		.cfi_offset 7, -8
 2183              		.cfi_offset 14, -4
 2184              	@ ../8-LCD-TEMP-STP_Motor_IR/main.c:266: 	USART_init();
 266:../8-LCD-TEMP-STP_Motor_IR/main.c **** 	IR_Init();
 2185              		.loc 1 266 2 view .LVU545
 2186 068e FFF7FEFF 		bl	USART_init		@
 2187              	.LVL108:
 267:../8-LCD-TEMP-STP_Motor_IR/main.c **** 	char word_IR[8];
 2188              		.loc 1 267 2 is_stmt 1 view .LVU546
 2189 0692 FFF7FEFF 		bl	IR_Init		@
 2190              	.LVL109:
 2191              	@ ../8-LCD-TEMP-STP_Motor_IR/main.c:281: 			USARTSend("\r\nCodigo: 0x");
 281:../8-LCD-TEMP-STP_Motor_IR/main.c **** 			itoa (code_ir, word_IR, 16);
 2192              		.loc 1 281 4 is_stmt 0 view .LVU547
 2193 0696 204D     		ldr	r5, .L156	@ tmp139,
 2194              	@ ../8-LCD-TEMP-STP_Motor_IR/main.c:285: 			if (code_ir == CR_B7 || code_ir == CR_NUM_0){
 285:../8-LCD-TEMP-STP_Motor_IR/main.c **** 				// Testa se a fila está cheia
 2195              		.loc 1 285 7 view .LVU548
 2196 0698 204E     		ldr	r6, .L156+4	@ tmp140,
 2197              	@ ../8-LCD-TEMP-STP_Motor_IR/main.c:292: 			if (code_ir == CR_NUM_4 || code_ir == CR_NUM_1){
ARM GAS  /tmp/cc4r6sqw.s 			page 57


 292:../8-LCD-TEMP-STP_Motor_IR/main.c **** 				// Testa se a fila está cheia
 2198              		.loc 1 292 7 view .LVU549
 2199 069a 214F     		ldr	r7, .L156+8	@ tmp141,
 2200              	.L155:
 268:../8-LCD-TEMP-STP_Motor_IR/main.c **** 
 2201              		.loc 1 268 2 is_stmt 1 view .LVU550
 270:../8-LCD-TEMP-STP_Motor_IR/main.c **** 
 2202              		.loc 1 270 2 view .LVU551
 272:../8-LCD-TEMP-STP_Motor_IR/main.c **** 		code_ir = 0xFFFFFFFF;
 2203              		.loc 1 272 2 view .LVU552
 273:../8-LCD-TEMP-STP_Motor_IR/main.c **** 		code_ir = IR_Read();
 2204              		.loc 1 273 3 view .LVU553
 2205              	@ ../8-LCD-TEMP-STP_Motor_IR/main.c:273: 		code_ir = 0xFFFFFFFF;
 273:../8-LCD-TEMP-STP_Motor_IR/main.c **** 		code_ir = IR_Read();
 2206              		.loc 1 273 11 is_stmt 0 view .LVU554
 2207 069c 4FF0FF33 		mov	r3, #-1	@ tmp125,
 2208 06a0 0193     		str	r3, [sp, #4]	@ tmp125, code_ir
 274:../8-LCD-TEMP-STP_Motor_IR/main.c **** 		
 2209              		.loc 1 274 3 is_stmt 1 view .LVU555
 2210              	@ ../8-LCD-TEMP-STP_Motor_IR/main.c:274: 		code_ir = IR_Read();
 274:../8-LCD-TEMP-STP_Motor_IR/main.c **** 		
 2211              		.loc 1 274 13 is_stmt 0 view .LVU556
 2212 06a2 FFF7FEFF 		bl	IR_Read		@
 2213              	.LVL110:
 2214              	@ ../8-LCD-TEMP-STP_Motor_IR/main.c:274: 		code_ir = IR_Read();
 274:../8-LCD-TEMP-STP_Motor_IR/main.c **** 		
 2215              		.loc 1 274 11 view .LVU557
 2216 06a6 0190     		str	r0, [sp, #4]	@ _1, code_ir
 279:../8-LCD-TEMP-STP_Motor_IR/main.c **** 
 2217              		.loc 1 279 3 is_stmt 1 view .LVU558
 2218              	@ ../8-LCD-TEMP-STP_Motor_IR/main.c:279: 		if (code_ir != 0xffffffff){
 279:../8-LCD-TEMP-STP_Motor_IR/main.c **** 
 2219              		.loc 1 279 6 is_stmt 0 view .LVU559
 2220 06a8 0130     		adds	r0, r0, #1	@ _1, _1,
 2221 06aa 30D0     		beq	.L149		@,
 281:../8-LCD-TEMP-STP_Motor_IR/main.c **** 			itoa (code_ir, word_IR, 16);
 2222              		.loc 1 281 4 is_stmt 1 view .LVU560
 2223 06ac 2846     		mov	r0, r5	@, tmp139
 2224 06ae FFF7FEFF 		bl	USARTSend		@
 2225              	.LVL111:
 282:../8-LCD-TEMP-STP_Motor_IR/main.c **** 			USARTSend(word_IR);
 2226              		.loc 1 282 4 view .LVU561
 2227 06b2 1022     		movs	r2, #16	@,
 2228 06b4 02A9     		add	r1, sp, #8	@ tmp146,,
 2229 06b6 0198     		ldr	r0, [sp, #4]	@, code_ir
 2230 06b8 FFF7FEFF 		bl	itoa		@
 2231              	.LVL112:
 283:../8-LCD-TEMP-STP_Motor_IR/main.c **** 			
 2232              		.loc 1 283 4 view .LVU562
 2233 06bc 02A8     		add	r0, sp, #8	@ tmp147,,
 2234 06be FFF7FEFF 		bl	USARTSend		@
 2235              	.LVL113:
 285:../8-LCD-TEMP-STP_Motor_IR/main.c **** 				// Testa se a fila está cheia
 2236              		.loc 1 285 4 view .LVU563
 2237              	@ ../8-LCD-TEMP-STP_Motor_IR/main.c:285: 			if (code_ir == CR_B7 || code_ir == CR_NUM_0){
 285:../8-LCD-TEMP-STP_Motor_IR/main.c **** 				// Testa se a fila está cheia
 2238              		.loc 1 285 16 is_stmt 0 view .LVU564
ARM GAS  /tmp/cc4r6sqw.s 			page 58


 2239 06c2 019B     		ldr	r3, [sp, #4]	@ code_ir.22_4, code_ir
 2240              	@ ../8-LCD-TEMP-STP_Motor_IR/main.c:285: 			if (code_ir == CR_B7 || code_ir == CR_NUM_0){
 285:../8-LCD-TEMP-STP_Motor_IR/main.c **** 				// Testa se a fila está cheia
 2241              		.loc 1 285 7 view .LVU565
 2242 06c4 B342     		cmp	r3, r6	@ code_ir.22_4, tmp140
 2243 06c6 02D0     		beq	.L150		@,
 2244              	@ ../8-LCD-TEMP-STP_Motor_IR/main.c:285: 			if (code_ir == CR_B7 || code_ir == CR_NUM_0){
 285:../8-LCD-TEMP-STP_Motor_IR/main.c **** 				// Testa se a fila está cheia
 2245              		.loc 1 285 25 discriminator 1 view .LVU566
 2246 06c8 164A     		ldr	r2, .L156+12	@ tmp130,
 2247 06ca 9342     		cmp	r3, r2	@ code_ir.22_4, tmp130
 2248 06cc 0CD1     		bne	.L151		@,
 2249              	.L150:
 287:../8-LCD-TEMP-STP_Motor_IR/main.c **** 					xQueueSend(STMotor_queue, &code_ir, pdMS_TO_TICKS(10));
 2250              		.loc 1 287 5 is_stmt 1 view .LVU567
 2251              	@ ../8-LCD-TEMP-STP_Motor_IR/main.c:287: 				if( uxQueueMessagesWaiting( STMotor_queue ) <= ELEMENT
 287:../8-LCD-TEMP-STP_Motor_IR/main.c **** 					xQueueSend(STMotor_queue, &code_ir, pdMS_TO_TICKS(10));
 2252              		.loc 1 287 9 is_stmt 0 view .LVU568
 2253 06ce 164C     		ldr	r4, .L156+16	@ tmp131,
 2254 06d0 6068     		ldr	r0, [r4, #4]	@, STMotor_queue
 2255 06d2 FFF7FEFF 		bl	uxQueueMessagesWaiting		@
 2256              	.LVL114:
 2257              	@ ../8-LCD-TEMP-STP_Motor_IR/main.c:287: 				if( uxQueueMessagesWaiting( STMotor_queue ) <= ELEMENT
 287:../8-LCD-TEMP-STP_Motor_IR/main.c **** 					xQueueSend(STMotor_queue, &code_ir, pdMS_TO_TICKS(10));
 2258              		.loc 1 287 7 view .LVU569
 2259 06d6 0128     		cmp	r0, #1	@ tmp143,
 2260 06d8 06D8     		bhi	.L151		@,
 288:../8-LCD-TEMP-STP_Motor_IR/main.c **** 				}
 2261              		.loc 1 288 6 is_stmt 1 view .LVU570
 2262 06da 0023     		movs	r3, #0	@,
 2263 06dc 4FF47A72 		mov	r2, #1000	@,
 2264 06e0 6068     		ldr	r0, [r4, #4]	@, STMotor_queue
 2265 06e2 01A9     		add	r1, sp, #4	@,,
 2266 06e4 FFF7FEFF 		bl	xQueueGenericSend		@
 2267              	.LVL115:
 2268              	.L151:
 292:../8-LCD-TEMP-STP_Motor_IR/main.c **** 				// Testa se a fila está cheia
 2269              		.loc 1 292 4 view .LVU571
 2270              	@ ../8-LCD-TEMP-STP_Motor_IR/main.c:292: 			if (code_ir == CR_NUM_4 || code_ir == CR_NUM_1){
 292:../8-LCD-TEMP-STP_Motor_IR/main.c **** 				// Testa se a fila está cheia
 2271              		.loc 1 292 16 is_stmt 0 view .LVU572
 2272 06e8 019B     		ldr	r3, [sp, #4]	@ code_ir.26_8, code_ir
 2273              	@ ../8-LCD-TEMP-STP_Motor_IR/main.c:292: 			if (code_ir == CR_NUM_4 || code_ir == CR_NUM_1){
 292:../8-LCD-TEMP-STP_Motor_IR/main.c **** 				// Testa se a fila está cheia
 2274              		.loc 1 292 7 view .LVU573
 2275 06ea BB42     		cmp	r3, r7	@ code_ir.26_8, tmp141
 2276 06ec 02D0     		beq	.L153		@,
 2277              	@ ../8-LCD-TEMP-STP_Motor_IR/main.c:292: 			if (code_ir == CR_NUM_4 || code_ir == CR_NUM_1){
 292:../8-LCD-TEMP-STP_Motor_IR/main.c **** 				// Testa se a fila está cheia
 2278              		.loc 1 292 28 discriminator 1 view .LVU574
 2279 06ee 0F4A     		ldr	r2, .L156+20	@ tmp135,
 2280 06f0 9342     		cmp	r3, r2	@ code_ir.26_8, tmp135
 2281 06f2 0CD1     		bne	.L149		@,
 2282              	.L153:
 294:../8-LCD-TEMP-STP_Motor_IR/main.c **** 					xQueueSend(PWM_data_queue, &code_ir, pdMS_TO_TICKS(10));
 2283              		.loc 1 294 5 is_stmt 1 view .LVU575
 2284              	@ ../8-LCD-TEMP-STP_Motor_IR/main.c:294: 				if( uxQueueMessagesWaiting( PWM_data_queue ) <= ELEMEN
ARM GAS  /tmp/cc4r6sqw.s 			page 59


 294:../8-LCD-TEMP-STP_Motor_IR/main.c **** 					xQueueSend(PWM_data_queue, &code_ir, pdMS_TO_TICKS(10));
 2285              		.loc 1 294 9 is_stmt 0 view .LVU576
 2286 06f4 0C4C     		ldr	r4, .L156+16	@ tmp136,
 2287 06f6 2068     		ldr	r0, [r4]	@, PWM_data_queue
 2288 06f8 FFF7FEFF 		bl	uxQueueMessagesWaiting		@
 2289              	.LVL116:
 2290              	@ ../8-LCD-TEMP-STP_Motor_IR/main.c:294: 				if( uxQueueMessagesWaiting( PWM_data_queue ) <= ELEMEN
 294:../8-LCD-TEMP-STP_Motor_IR/main.c **** 					xQueueSend(PWM_data_queue, &code_ir, pdMS_TO_TICKS(10));
 2291              		.loc 1 294 7 view .LVU577
 2292 06fc 0128     		cmp	r0, #1	@ tmp144,
 2293 06fe 06D8     		bhi	.L149		@,
 295:../8-LCD-TEMP-STP_Motor_IR/main.c **** 			}
 2294              		.loc 1 295 6 is_stmt 1 view .LVU578
 2295 0700 0023     		movs	r3, #0	@,
 2296 0702 4FF47A72 		mov	r2, #1000	@,
 2297 0706 2068     		ldr	r0, [r4]	@, PWM_data_queue
 2298 0708 01A9     		add	r1, sp, #4	@,,
 2299 070a FFF7FEFF 		bl	xQueueGenericSend		@
 2300              	.LVL117:
 2301              	.L149:
 299:../8-LCD-TEMP-STP_Motor_IR/main.c **** 	}
 2302              		.loc 1 299 3 view .LVU579
 2303 070e FA20     		movs	r0, #250	@,
 2304 0710 FFF7FEFF 		bl	vTaskDelay		@
 2305              	.LVL118:
 272:../8-LCD-TEMP-STP_Motor_IR/main.c **** 		code_ir = 0xFFFFFFFF;
 2306              		.loc 1 272 7 view .LVU580
 2307              	@ ../8-LCD-TEMP-STP_Motor_IR/main.c:273: 		code_ir = 0xFFFFFFFF;
 273:../8-LCD-TEMP-STP_Motor_IR/main.c **** 		code_ir = IR_Read();
 2308              		.loc 1 273 11 is_stmt 0 view .LVU581
 2309 0714 C2E7     		b	.L155		@
 2310              	.L157:
 2311 0716 00BF     		.align	2
 2312              	.L156:
 2313 0718 00000000 		.word	.LC0
 2314 071c 30FE3FFC 		.word	-62915024
 2315 0720 F9FAE7FF 		.word	-1574151
 2316 0724 B9FEE7FF 		.word	-1573191
 2317 0728 00000000 		.word	.LANCHOR0
 2318 072c B9FBE7FF 		.word	-1573959
 2319              		.cfi_endproc
 2320              	.LFE56:
 2321              		.size	task5, .-task5
 2322              		.section	.rodata.str1.1
 2323              	.LC1:
 2324 000d 2D2D2D2D 		.ascii	"----------------\000"
 2324      2D2D2D2D 
 2324      2D2D2D2D 
 2324      2D2D2D2D 
 2324      00
 2325              	.LC2:
 2326 001e 3D3D3D3D 		.ascii	"================\000"
 2326      3D3D3D3D 
 2326      3D3D3D3D 
 2326      3D3D3D3D 
 2326      00
 2327              	.LC3:
ARM GAS  /tmp/cc4r6sqw.s 			page 60


 2328 002f 3D00     		.ascii	"=\000"
 2329              	.LC4:
 2330 0031 2D00     		.ascii	"-\000"
 2331              		.text
 2332              		.align	1
 2333              		.global	LCD16x2_init
 2334              		.syntax unified
 2335              		.thumb
 2336              		.thumb_func
 2337              		.type	LCD16x2_init, %function
 2338              	LCD16x2_init:
 2339              	.LFB51:
  66:../8-LCD-TEMP-STP_Motor_IR/main.c **** 
 2340              		.loc 1 66 20 is_stmt 1 view -0
 2341              		.cfi_startproc
 2342              		@ args = 0, pretend = 0, frame = 0
 2343              		@ frame_needed = 0, uses_anonymous_args = 0
  68:../8-LCD-TEMP-STP_Motor_IR/main.c **** 	GPIOA->CRL	 = 0x33333300; // Hab PA(2-7) out PP
 2344              		.loc 1 68 2 view .LVU583
 2345              	@ ../8-LCD-TEMP-STP_Motor_IR/main.c:68: 	RCC->APB2ENR |= (1<<2);
  68:../8-LCD-TEMP-STP_Motor_IR/main.c **** 	GPIOA->CRL	 = 0x33333300; // Hab PA(2-7) out PP
 2346              		.loc 1 68 15 is_stmt 0 view .LVU584
 2347 0730 294A     		ldr	r2, .L161	@ tmp132,
 2348              	@ ../8-LCD-TEMP-STP_Motor_IR/main.c:66: void LCD16x2_init(){
  66:../8-LCD-TEMP-STP_Motor_IR/main.c **** 
 2349              		.loc 1 66 20 view .LVU585
 2350 0732 F8B5     		push	{r3, r4, r5, r6, r7, lr}	@
 2351              	.LCFI17:
 2352              		.cfi_def_cfa_offset 24
 2353              		.cfi_offset 3, -24
 2354              		.cfi_offset 4, -20
 2355              		.cfi_offset 5, -16
 2356              		.cfi_offset 6, -12
 2357              		.cfi_offset 7, -8
 2358              		.cfi_offset 14, -4
 2359              	@ ../8-LCD-TEMP-STP_Motor_IR/main.c:68: 	RCC->APB2ENR |= (1<<2);
  68:../8-LCD-TEMP-STP_Motor_IR/main.c **** 	GPIOA->CRL	 = 0x33333300; // Hab PA(2-7) out PP
 2360              		.loc 1 68 15 view .LVU586
 2361 0734 9369     		ldr	r3, [r2, #24]	@ _1, MEM[(struct RCC_TypeDef *)1073876992B].APB2ENR
 2362              	@ ../8-LCD-TEMP-STP_Motor_IR/main.c:79: 	disp_text("================", 1, 0);
  79:../8-LCD-TEMP-STP_Motor_IR/main.c **** 
 2363              		.loc 1 79 2 view .LVU587
 2364 0736 0024     		movs	r4, #0	@ ivtmp.209,
 2365              	@ ../8-LCD-TEMP-STP_Motor_IR/main.c:68: 	RCC->APB2ENR |= (1<<2);
  68:../8-LCD-TEMP-STP_Motor_IR/main.c **** 	GPIOA->CRL	 = 0x33333300; // Hab PA(2-7) out PP
 2366              		.loc 1 68 15 view .LVU588
 2367 0738 43F00403 		orr	r3, r3, #4	@ _2, _1,
 2368 073c 9361     		str	r3, [r2, #24]	@ _2, MEM[(struct RCC_TypeDef *)1073876992B].APB2ENR
  69:../8-LCD-TEMP-STP_Motor_IR/main.c **** 
 2369              		.loc 1 69 2 is_stmt 1 view .LVU589
 2370              	@ ../8-LCD-TEMP-STP_Motor_IR/main.c:69: 	GPIOA->CRL	 = 0x33333300; // Hab PA(2-7) out PP
  69:../8-LCD-TEMP-STP_Motor_IR/main.c **** 
 2371              		.loc 1 69 14 is_stmt 0 view .LVU590
 2372 073e 274B     		ldr	r3, .L161+4	@ tmp134,
 2373 0740 274A     		ldr	r2, .L161+8	@ tmp135,
 2374              	.LBB19:
 2375              	@ ../8-LCD-TEMP-STP_Motor_IR/main.c:83: 		disp_text("=", 0 ,i);
ARM GAS  /tmp/cc4r6sqw.s 			page 61


  83:../8-LCD-TEMP-STP_Motor_IR/main.c **** 		disp_text("-", 1 , 16 - i);
 2376              		.loc 1 83 3 view .LVU591
 2377 0742 284F     		ldr	r7, .L161+12	@ tmp157,
 2378              	.LBE19:
 2379              	@ ../8-LCD-TEMP-STP_Motor_IR/main.c:69: 	GPIOA->CRL	 = 0x33333300; // Hab PA(2-7) out PP
  69:../8-LCD-TEMP-STP_Motor_IR/main.c **** 
 2380              		.loc 1 69 14 view .LVU592
 2381 0744 1A60     		str	r2, [r3]	@ tmp135, MEM[(struct GPIO_TypeDef *)1073809408B].CRL
  71:../8-LCD-TEMP-STP_Motor_IR/main.c **** 	set_bit(IO,EN);   set_bit(IO,D4);
 2382              		.loc 1 71 2 is_stmt 1 view .LVU593
 2383 0746 DA68     		ldr	r2, [r3, #12]	@ _3, MEM[(struct GPIO_TypeDef *)1073809408B].ODR
 2384              	.LBB20:
 2385              	@ ../8-LCD-TEMP-STP_Motor_IR/main.c:84: 		disp_text("-", 1 , 16 - i);
  84:../8-LCD-TEMP-STP_Motor_IR/main.c **** 	}
 2386              		.loc 1 84 3 is_stmt 0 view .LVU594
 2387 0748 274E     		ldr	r6, .L161+16	@ tmp158,
 2388              	.LBE20:
 2389              	@ ../8-LCD-TEMP-STP_Motor_IR/main.c:71: 	set_bit(IO,RS);   set_bit(IO,RS);
  71:../8-LCD-TEMP-STP_Motor_IR/main.c **** 	set_bit(IO,EN);   set_bit(IO,D4);
 2390              		.loc 1 71 2 view .LVU595
 2391 074a 42F08002 		orr	r2, r2, #128	@ _4, _3,
 2392 074e DA60     		str	r2, [r3, #12]	@ _4, MEM[(struct GPIO_TypeDef *)1073809408B].ODR
  71:../8-LCD-TEMP-STP_Motor_IR/main.c **** 	set_bit(IO,EN);   set_bit(IO,D4);
 2393              		.loc 1 71 20 is_stmt 1 view .LVU596
 2394 0750 DA68     		ldr	r2, [r3, #12]	@ _5, MEM[(struct GPIO_TypeDef *)1073809408B].ODR
 2395 0752 42F08002 		orr	r2, r2, #128	@ _6, _5,
 2396 0756 DA60     		str	r2, [r3, #12]	@ _6, MEM[(struct GPIO_TypeDef *)1073809408B].ODR
  72:../8-LCD-TEMP-STP_Motor_IR/main.c **** 	set_bit(IO,D5);   set_bit(IO,D6);
 2397              		.loc 1 72 2 view .LVU597
 2398 0758 DA68     		ldr	r2, [r3, #12]	@ _7, MEM[(struct GPIO_TypeDef *)1073809408B].ODR
 2399 075a 42F04002 		orr	r2, r2, #64	@ _8, _7,
 2400 075e DA60     		str	r2, [r3, #12]	@ _8, MEM[(struct GPIO_TypeDef *)1073809408B].ODR
  72:../8-LCD-TEMP-STP_Motor_IR/main.c **** 	set_bit(IO,D5);   set_bit(IO,D6);
 2401              		.loc 1 72 20 view .LVU598
 2402 0760 DA68     		ldr	r2, [r3, #12]	@ _9, MEM[(struct GPIO_TypeDef *)1073809408B].ODR
 2403 0762 42F02002 		orr	r2, r2, #32	@ _10, _9,
 2404 0766 DA60     		str	r2, [r3, #12]	@ _10, MEM[(struct GPIO_TypeDef *)1073809408B].ODR
  73:../8-LCD-TEMP-STP_Motor_IR/main.c **** 	set_bit(IO,D7);   disp_init();
 2405              		.loc 1 73 2 view .LVU599
 2406 0768 DA68     		ldr	r2, [r3, #12]	@ _11, MEM[(struct GPIO_TypeDef *)1073809408B].ODR
 2407 076a 42F01002 		orr	r2, r2, #16	@ _12, _11,
 2408 076e DA60     		str	r2, [r3, #12]	@ _12, MEM[(struct GPIO_TypeDef *)1073809408B].ODR
  73:../8-LCD-TEMP-STP_Motor_IR/main.c **** 	set_bit(IO,D7);   disp_init();
 2409              		.loc 1 73 20 view .LVU600
 2410 0770 DA68     		ldr	r2, [r3, #12]	@ _13, MEM[(struct GPIO_TypeDef *)1073809408B].ODR
 2411 0772 42F00802 		orr	r2, r2, #8	@ _14, _13,
 2412 0776 DA60     		str	r2, [r3, #12]	@ _14, MEM[(struct GPIO_TypeDef *)1073809408B].ODR
  74:../8-LCD-TEMP-STP_Motor_IR/main.c **** 	disp_cmd(0x0C);
 2413              		.loc 1 74 2 view .LVU601
 2414 0778 DA68     		ldr	r2, [r3, #12]	@ _15, MEM[(struct GPIO_TypeDef *)1073809408B].ODR
 2415 077a 42F00402 		orr	r2, r2, #4	@ _16, _15,
 2416 077e DA60     		str	r2, [r3, #12]	@ _16, MEM[(struct GPIO_TypeDef *)1073809408B].ODR
  74:../8-LCD-TEMP-STP_Motor_IR/main.c **** 	disp_cmd(0x0C);
 2417              		.loc 1 74 20 view .LVU602
 2418 0780 FFF7FEFF 		bl	disp_init		@
 2419              	.LVL119:
  75:../8-LCD-TEMP-STP_Motor_IR/main.c **** 
ARM GAS  /tmp/cc4r6sqw.s 			page 62


 2420              		.loc 1 75 2 view .LVU603
 2421 0784 0C20     		movs	r0, #12	@,
 2422 0786 FFF7FEFF 		bl	disp_cmd		@
 2423              	.LVL120:
  78:../8-LCD-TEMP-STP_Motor_IR/main.c **** 	disp_text("================", 1, 0);
 2424              		.loc 1 78 2 view .LVU604
 2425 078a 0022     		movs	r2, #0	@,
 2426 078c 1748     		ldr	r0, .L161+20	@,
 2427 078e 1146     		mov	r1, r2	@,
 2428 0790 FFF7FEFF 		bl	disp_text		@
 2429              	.LVL121:
  79:../8-LCD-TEMP-STP_Motor_IR/main.c **** 
 2430              		.loc 1 79 2 view .LVU605
 2431 0794 0022     		movs	r2, #0	@,
 2432 0796 0121     		movs	r1, #1	@,
 2433 0798 1548     		ldr	r0, .L161+24	@,
 2434 079a FFF7FEFF 		bl	disp_text		@
 2435              	.LVL122:
  81:../8-LCD-TEMP-STP_Motor_IR/main.c **** 		__delay_ms(VEL_ANIMACAO);
 2436              		.loc 1 81 2 view .LVU606
 2437              	.LBB21:
  81:../8-LCD-TEMP-STP_Motor_IR/main.c **** 		__delay_ms(VEL_ANIMACAO);
 2438              		.loc 1 81 7 view .LVU607
  81:../8-LCD-TEMP-STP_Motor_IR/main.c **** 		__delay_ms(VEL_ANIMACAO);
 2439              		.loc 1 81 16 view .LVU608
 2440              	.L159:
  81:../8-LCD-TEMP-STP_Motor_IR/main.c **** 		__delay_ms(VEL_ANIMACAO);
 2441              		.loc 1 81 16 is_stmt 0 view .LVU609
 2442 079e E5B2     		uxtb	r5, r4	@ _40, ivtmp.209
 2443              	.LVL123:
  82:../8-LCD-TEMP-STP_Motor_IR/main.c **** 		disp_text("=", 0 ,i);
 2444              		.loc 1 82 3 is_stmt 1 discriminator 3 view .LVU610
 2445 07a0 40F2DC50 		movw	r0, #1500	@,
 2446 07a4 FFF7FEFF 		bl	vTaskDelay		@
 2447              	.LVL124:
  83:../8-LCD-TEMP-STP_Motor_IR/main.c **** 		disp_text("-", 1 , 16 - i);
 2448              		.loc 1 83 3 discriminator 3 view .LVU611
 2449 07a8 2A46     		mov	r2, r5	@, _40
 2450 07aa 0021     		movs	r1, #0	@,
 2451 07ac 3846     		mov	r0, r7	@, tmp157
 2452 07ae FFF7FEFF 		bl	disp_text		@
 2453              	.LVL125:
  84:../8-LCD-TEMP-STP_Motor_IR/main.c **** 	}
 2454              		.loc 1 84 3 discriminator 3 view .LVU612
 2455 07b2 C5F11002 		rsb	r2, r5, #16	@ tmp153, _40,
 2456 07b6 0121     		movs	r1, #1	@,
 2457 07b8 3046     		mov	r0, r6	@, tmp158
 2458 07ba D2B2     		uxtb	r2, r2	@, tmp153
 2459              	@ ../8-LCD-TEMP-STP_Motor_IR/main.c:81: 	for (u8 i=0 ; i<16 ; i++){
  81:../8-LCD-TEMP-STP_Motor_IR/main.c **** 		__delay_ms(VEL_ANIMACAO);
 2460              		.loc 1 81 2 is_stmt 0 discriminator 3 view .LVU613
 2461 07bc 0134     		adds	r4, r4, #1	@ ivtmp.209, ivtmp.209,
 2462              	@ ../8-LCD-TEMP-STP_Motor_IR/main.c:84: 		disp_text("-", 1 , 16 - i);
  84:../8-LCD-TEMP-STP_Motor_IR/main.c **** 	}
 2463              		.loc 1 84 3 discriminator 3 view .LVU614
 2464 07be FFF7FEFF 		bl	disp_text		@
 2465              	.LVL126:
ARM GAS  /tmp/cc4r6sqw.s 			page 63


  81:../8-LCD-TEMP-STP_Motor_IR/main.c **** 		__delay_ms(VEL_ANIMACAO);
 2466              		.loc 1 81 23 is_stmt 1 discriminator 3 view .LVU615
  81:../8-LCD-TEMP-STP_Motor_IR/main.c **** 		__delay_ms(VEL_ANIMACAO);
 2467              		.loc 1 81 16 discriminator 3 view .LVU616
 2468              	@ ../8-LCD-TEMP-STP_Motor_IR/main.c:81: 	for (u8 i=0 ; i<16 ; i++){
  81:../8-LCD-TEMP-STP_Motor_IR/main.c **** 		__delay_ms(VEL_ANIMACAO);
 2469              		.loc 1 81 2 is_stmt 0 discriminator 3 view .LVU617
 2470 07c2 102C     		cmp	r4, #16	@ ivtmp.209,
 2471 07c4 EBD1     		bne	.L159		@,
 2472              	.LBE21:
  86:../8-LCD-TEMP-STP_Motor_IR/main.c **** 	disp_clear();
 2473              		.loc 1 86 2 is_stmt 1 view .LVU618
 2474 07c6 40F2DC50 		movw	r0, #1500	@,
 2475 07ca FFF7FEFF 		bl	vTaskDelay		@
 2476              	.LVL127:
  87:../8-LCD-TEMP-STP_Motor_IR/main.c **** }
 2477              		.loc 1 87 2 view .LVU619
 2478              	@ ../8-LCD-TEMP-STP_Motor_IR/main.c:88: }
  88:../8-LCD-TEMP-STP_Motor_IR/main.c **** 
 2479              		.loc 1 88 1 is_stmt 0 view .LVU620
 2480 07ce BDE8F840 		pop	{r3, r4, r5, r6, r7, lr}	@
 2481              	.LCFI18:
 2482              		.cfi_restore 14
 2483              		.cfi_restore 7
 2484              		.cfi_restore 6
 2485              		.cfi_restore 5
 2486              		.cfi_restore 4
 2487              		.cfi_restore 3
 2488              		.cfi_def_cfa_offset 0
 2489              	@ ../8-LCD-TEMP-STP_Motor_IR/main.c:87: 	disp_clear();
  87:../8-LCD-TEMP-STP_Motor_IR/main.c **** }
 2490              		.loc 1 87 2 view .LVU621
 2491 07d2 FFF7FEBF 		b	disp_clear		@
 2492              	.LVL128:
 2493              	.L162:
 2494 07d6 00BF     		.align	2
 2495              	.L161:
 2496 07d8 00100240 		.word	1073876992
 2497 07dc 00080140 		.word	1073809408
 2498 07e0 00333333 		.word	858993408
 2499 07e4 2F000000 		.word	.LC3
 2500 07e8 31000000 		.word	.LC4
 2501 07ec 0D000000 		.word	.LC1
 2502 07f0 1E000000 		.word	.LC2
 2503              		.cfi_endproc
 2504              	.LFE51:
 2505              		.size	LCD16x2_init, .-LCD16x2_init
 2506              		.section	.rodata.str1.1
 2507              	.LC5:
 2508 0033 54656D70 		.ascii	"Temperatura - C\000"
 2508      65726174 
 2508      75726120 
 2508      2D204300 
 2509              		.global	__aeabi_f2d
 2510              		.global	__aeabi_dmul
 2511              		.global	__aeabi_d2f
 2512              	.LC6:
ARM GAS  /tmp/cc4r6sqw.s 			page 64


 2513 0043 2D2D2D20 		.ascii	"--- IR Hex Code\000"
 2513      49522048 
 2513      65782043 
 2513      6F646500 
 2514              		.text
 2515              		.align	1
 2516              		.syntax unified
 2517              		.thumb
 2518              		.thumb_func
 2519              		.type	task1, %function
 2520              	task1:
 2521              	.LVL129:
 2522              	.LFB52:
  90:../8-LCD-TEMP-STP_Motor_IR/main.c **** 
 2523              		.loc 1 90 53 is_stmt 1 view -0
 2524              		.cfi_startproc
 2525              		@ args = 0, pretend = 0, frame = 32
 2526              		@ frame_needed = 0, uses_anonymous_args = 0
 100:../8-LCD-TEMP-STP_Motor_IR/main.c **** 	RCC->APB2ENR |= 1<<3;
 2527              		.loc 1 100 2 view .LVU623
 2528              	@ ../8-LCD-TEMP-STP_Motor_IR/main.c:90: static void task1(void *args __attribute((unused))) {
  90:../8-LCD-TEMP-STP_Motor_IR/main.c **** 
 2529              		.loc 1 90 53 is_stmt 0 view .LVU624
 2530 07f4 2DE9F04F 		push	{r4, r5, r6, r7, r8, r9, r10, fp, lr}	@
 2531              	.LCFI19:
 2532              		.cfi_def_cfa_offset 36
 2533              		.cfi_offset 4, -36
 2534              		.cfi_offset 5, -32
 2535              		.cfi_offset 6, -28
 2536              		.cfi_offset 7, -24
 2537              		.cfi_offset 8, -20
 2538              		.cfi_offset 9, -16
 2539              		.cfi_offset 10, -12
 2540              		.cfi_offset 11, -8
 2541              		.cfi_offset 14, -4
 2542              	@ ../8-LCD-TEMP-STP_Motor_IR/main.c:150: 				floatToString((float) BUFF * ADC_Const, Float_point, 2
 150:../8-LCD-TEMP-STP_Motor_IR/main.c **** 				disp_text(Float_point, 1, 6);
 2543              		.loc 1 150 32 view .LVU625
 2544 07f8 0FF23C19 		adr	r9, .L190	@,
 2545 07fc D9E90089 		ldrd	r8, [r9]	@ tmp180,
 2546              	@ ../8-LCD-TEMP-STP_Motor_IR/main.c:111: 	u8 RD = 0;
 111:../8-LCD-TEMP-STP_Motor_IR/main.c **** 	u32 code_ir;
 2547              		.loc 1 111 5 view .LVU626
 2548 0800 0025     		movs	r5, #0	@ RD,
 2549              	@ ../8-LCD-TEMP-STP_Motor_IR/main.c:107: 	u8 ent_atual=1;
 107:../8-LCD-TEMP-STP_Motor_IR/main.c **** 
 2550              		.loc 1 107 5 view .LVU627
 2551 0802 0124     		movs	r4, #1	@ ent_atual,
 2552              	@ ../8-LCD-TEMP-STP_Motor_IR/main.c:104: 	int msg_buf_rev, BUFF = 0;
 104:../8-LCD-TEMP-STP_Motor_IR/main.c **** 
 2553              		.loc 1 104 19 view .LVU628
 2554 0804 2E46     		mov	r6, r5	@ BUFF, RD
 2555              	@ ../8-LCD-TEMP-STP_Motor_IR/main.c:90: static void task1(void *args __attribute((unused))) {
  90:../8-LCD-TEMP-STP_Motor_IR/main.c **** 
 2556              		.loc 1 90 53 view .LVU629
 2557 0806 89B0     		sub	sp, sp, #36	@,,
 2558              	.LCFI20:
ARM GAS  /tmp/cc4r6sqw.s 			page 65


 2559              		.cfi_def_cfa_offset 72
 2560              	@ ../8-LCD-TEMP-STP_Motor_IR/main.c:100: 	LCD16x2_init();
 100:../8-LCD-TEMP-STP_Motor_IR/main.c **** 	RCC->APB2ENR |= 1<<3;
 2561              		.loc 1 100 2 view .LVU630
 2562 0808 FFF7FEFF 		bl	LCD16x2_init		@
 2563              	.LVL130:
 101:../8-LCD-TEMP-STP_Motor_IR/main.c **** 	GPIOB->CRH |= 0x4<<0; // Input Pull
 2564              		.loc 1 101 2 is_stmt 1 view .LVU631
 2565              	@ ../8-LCD-TEMP-STP_Motor_IR/main.c:101: 	RCC->APB2ENR |= 1<<3;
 101:../8-LCD-TEMP-STP_Motor_IR/main.c **** 	GPIOB->CRH |= 0x4<<0; // Input Pull
 2566              		.loc 1 101 15 is_stmt 0 view .LVU632
 2567 080c 4C4A     		ldr	r2, .L190+8	@ tmp139,
 2568              	@ ../8-LCD-TEMP-STP_Motor_IR/main.c:117: 		if (xQueueReceive(LCD_Show_queue, 
 117:../8-LCD-TEMP-STP_Motor_IR/main.c **** 					&msg_buf_rev, pdMS_TO_TICKS(10)))
 2569              		.loc 1 117 7 view .LVU633
 2570 080e 4D4F     		ldr	r7, .L190+12	@ tmp146,
 2571              	@ ../8-LCD-TEMP-STP_Motor_IR/main.c:101: 	RCC->APB2ENR |= 1<<3;
 101:../8-LCD-TEMP-STP_Motor_IR/main.c **** 	GPIOB->CRH |= 0x4<<0; // Input Pull
 2572              		.loc 1 101 15 view .LVU634
 2573 0810 9369     		ldr	r3, [r2, #24]	@ _2, MEM[(struct RCC_TypeDef *)1073876992B].APB2ENR
 2574 0812 43F00803 		orr	r3, r3, #8	@ _4, _2,
 2575 0816 9361     		str	r3, [r2, #24]	@ _4, MEM[(struct RCC_TypeDef *)1073876992B].APB2ENR
 102:../8-LCD-TEMP-STP_Motor_IR/main.c **** 	GPIOB->ODR |= 1<<8; // Pull-up
 2576              		.loc 1 102 2 is_stmt 1 view .LVU635
 2577              	@ ../8-LCD-TEMP-STP_Motor_IR/main.c:102: 	GPIOB->CRH |= 0x4<<0; // Input Pull
 102:../8-LCD-TEMP-STP_Motor_IR/main.c **** 	GPIOB->ODR |= 1<<8; // Pull-up
 2578              		.loc 1 102 13 is_stmt 0 view .LVU636
 2579 0818 4B4B     		ldr	r3, .L190+16	@ tmp141,
 2580 081a 5A68     		ldr	r2, [r3, #4]	@ _6, MEM[(struct GPIO_TypeDef *)1073810432B].CRH
 2581 081c 42F00402 		orr	r2, r2, #4	@ _8, _6,
 2582 0820 5A60     		str	r2, [r3, #4]	@ _8, MEM[(struct GPIO_TypeDef *)1073810432B].CRH
 103:../8-LCD-TEMP-STP_Motor_IR/main.c **** 	int msg_buf_rev, BUFF = 0;
 2583              		.loc 1 103 2 is_stmt 1 view .LVU637
 2584              	@ ../8-LCD-TEMP-STP_Motor_IR/main.c:103: 	GPIOB->ODR |= 1<<8; // Pull-up
 103:../8-LCD-TEMP-STP_Motor_IR/main.c **** 	int msg_buf_rev, BUFF = 0;
 2585              		.loc 1 103 13 is_stmt 0 view .LVU638
 2586 0822 DA68     		ldr	r2, [r3, #12]	@ _10, MEM[(struct GPIO_TypeDef *)1073810432B].ODR
 2587 0824 42F48072 		orr	r2, r2, #256	@ _12, _10,
 2588 0828 DA60     		str	r2, [r3, #12]	@ _12, MEM[(struct GPIO_TypeDef *)1073810432B].ODR
 104:../8-LCD-TEMP-STP_Motor_IR/main.c **** 
 2589              		.loc 1 104 2 is_stmt 1 view .LVU639
 2590              	.LVL131:
 106:../8-LCD-TEMP-STP_Motor_IR/main.c **** 	u8 ent_atual=1;
 2591              		.loc 1 106 2 view .LVU640
 107:../8-LCD-TEMP-STP_Motor_IR/main.c **** 
 2592              		.loc 1 107 2 view .LVU641
 111:../8-LCD-TEMP-STP_Motor_IR/main.c **** 	u32 code_ir;
 2593              		.loc 1 111 2 view .LVU642
 2594              	.L164:
 112:../8-LCD-TEMP-STP_Motor_IR/main.c **** 	char word_IR[8];
 2595              		.loc 1 112 2 view .LVU643
 113:../8-LCD-TEMP-STP_Motor_IR/main.c **** 
 2596              		.loc 1 113 2 view .LVU644
 115:../8-LCD-TEMP-STP_Motor_IR/main.c **** // ----------- FILAS
 2597              		.loc 1 115 2 view .LVU645
 117:../8-LCD-TEMP-STP_Motor_IR/main.c **** 					&msg_buf_rev, pdMS_TO_TICKS(10)))
 2598              		.loc 1 117 3 view .LVU646
ARM GAS  /tmp/cc4r6sqw.s 			page 66


 2599              	@ ../8-LCD-TEMP-STP_Motor_IR/main.c:117: 		if (xQueueReceive(LCD_Show_queue, 
 117:../8-LCD-TEMP-STP_Motor_IR/main.c **** 					&msg_buf_rev, pdMS_TO_TICKS(10)))
 2600              		.loc 1 117 7 is_stmt 0 view .LVU647
 2601 082a 4FF47A72 		mov	r2, #1000	@,
 2602 082e B868     		ldr	r0, [r7, #8]	@, LCD_Show_queue
 2603 0830 02A9     		add	r1, sp, #8	@,,
 2604 0832 FFF7FEFF 		bl	xQueueReceive		@
 2605              	.LVL132:
 2606              	@ ../8-LCD-TEMP-STP_Motor_IR/main.c:117: 		if (xQueueReceive(LCD_Show_queue, 
 117:../8-LCD-TEMP-STP_Motor_IR/main.c **** 					&msg_buf_rev, pdMS_TO_TICKS(10)))
 2607              		.loc 1 117 6 view .LVU648
 2608 0836 00B1     		cbz	r0, .L165	@ tmp181,
 119:../8-LCD-TEMP-STP_Motor_IR/main.c **** 
 2609              		.loc 1 119 4 is_stmt 1 view .LVU649
 2610              	@ ../8-LCD-TEMP-STP_Motor_IR/main.c:119: 			BUFF = msg_buf_rev;
 119:../8-LCD-TEMP-STP_Motor_IR/main.c **** 
 2611              		.loc 1 119 9 is_stmt 0 view .LVU650
 2612 0838 029E     		ldr	r6, [sp, #8]	@ BUFF, msg_buf_rev
 2613              	.LVL133:
 2614              	.L165:
 122:../8-LCD-TEMP-STP_Motor_IR/main.c **** 		if (xQueuePeek(STMotor_queue, &code_ir, pdMS_TO_TICKS(10)))
 2615              		.loc 1 122 3 is_stmt 1 view .LVU651
 2616              	@ ../8-LCD-TEMP-STP_Motor_IR/main.c:122: 		code_ir = 0xffffff;
 122:../8-LCD-TEMP-STP_Motor_IR/main.c **** 		if (xQueuePeek(STMotor_queue, &code_ir, pdMS_TO_TICKS(10)))
 2617              		.loc 1 122 11 is_stmt 0 view .LVU652
 2618 083a 6FF07F43 		mvn	r3, #-16777216	@ tmp147,
 2619              	@ ../8-LCD-TEMP-STP_Motor_IR/main.c:123: 		if (xQueuePeek(STMotor_queue, &code_ir, pdMS_TO_TICKS(10
 123:../8-LCD-TEMP-STP_Motor_IR/main.c **** 			itoa (code_ir, word_IR, 16);
 2620              		.loc 1 123 7 view .LVU653
 2621 083e 4FF47A72 		mov	r2, #1000	@,
 2622 0842 7868     		ldr	r0, [r7, #4]	@, STMotor_queue
 2623 0844 03A9     		add	r1, sp, #12	@,,
 2624              	@ ../8-LCD-TEMP-STP_Motor_IR/main.c:122: 		code_ir = 0xffffff;
 122:../8-LCD-TEMP-STP_Motor_IR/main.c **** 		if (xQueuePeek(STMotor_queue, &code_ir, pdMS_TO_TICKS(10)))
 2625              		.loc 1 122 11 view .LVU654
 2626 0846 0393     		str	r3, [sp, #12]	@ tmp147, code_ir
 123:../8-LCD-TEMP-STP_Motor_IR/main.c **** 			itoa (code_ir, word_IR, 16);
 2627              		.loc 1 123 3 is_stmt 1 view .LVU655
 2628              	@ ../8-LCD-TEMP-STP_Motor_IR/main.c:123: 		if (xQueuePeek(STMotor_queue, &code_ir, pdMS_TO_TICKS(10
 123:../8-LCD-TEMP-STP_Motor_IR/main.c **** 			itoa (code_ir, word_IR, 16);
 2629              		.loc 1 123 7 is_stmt 0 view .LVU656
 2630 0848 FFF7FEFF 		bl	xQueuePeek		@
 2631              	.LVL134:
 2632              	@ ../8-LCD-TEMP-STP_Motor_IR/main.c:123: 		if (xQueuePeek(STMotor_queue, &code_ir, pdMS_TO_TICKS(10
 123:../8-LCD-TEMP-STP_Motor_IR/main.c **** 			itoa (code_ir, word_IR, 16);
 2633              		.loc 1 123 6 view .LVU657
 2634 084c 20B1     		cbz	r0, .L166	@ tmp182,
 124:../8-LCD-TEMP-STP_Motor_IR/main.c **** 
 2635              		.loc 1 124 4 is_stmt 1 view .LVU658
 2636 084e 1022     		movs	r2, #16	@,
 2637 0850 0398     		ldr	r0, [sp, #12]	@, code_ir
 2638 0852 06A9     		add	r1, sp, #24	@,,
 2639 0854 FFF7FEFF 		bl	itoa		@
 2640              	.LVL135:
 2641              	.L166:
 128:../8-LCD-TEMP-STP_Motor_IR/main.c **** 			
 2642              		.loc 1 128 9 view .LVU659
ARM GAS  /tmp/cc4r6sqw.s 			page 67


 2643 0858 0C2D     		cmp	r5, #12	@ RD,
 2644 085a 02D9     		bls	.L167		@,
 130:../8-LCD-TEMP-STP_Motor_IR/main.c **** 		disp_clear();
 2645              		.loc 1 130 3 view .LVU660
 2646              	.LVL136:
 131:../8-LCD-TEMP-STP_Motor_IR/main.c **** 		} RD ++;
 2647              		.loc 1 131 3 view .LVU661
 2648 085c FFF7FEFF 		bl	disp_clear		@
 2649              	.LVL137:
 128:../8-LCD-TEMP-STP_Motor_IR/main.c **** 			
 2650              		.loc 1 128 9 view .LVU662
 2651              	@ ../8-LCD-TEMP-STP_Motor_IR/main.c:130: 		RD = 0;
 130:../8-LCD-TEMP-STP_Motor_IR/main.c **** 		disp_clear();
 2652              		.loc 1 130 6 is_stmt 0 view .LVU663
 2653 0860 0025     		movs	r5, #0	@ RD,
 2654              	.LVL138:
 2655              	.L167:
 132:../8-LCD-TEMP-STP_Motor_IR/main.c **** 
 2656              		.loc 1 132 5 is_stmt 1 view .LVU664
 2657              	@ ../8-LCD-TEMP-STP_Motor_IR/main.c:136: 		if ((GPIOB->IDR & (1<<8)) || code_ir == CR_B4){{
 136:../8-LCD-TEMP-STP_Motor_IR/main.c **** 			ent_atual ++;
 2658              		.loc 1 136 13 is_stmt 0 view .LVU665
 2659 0862 394B     		ldr	r3, .L190+16	@ tmp154,
 2660              	@ ../8-LCD-TEMP-STP_Motor_IR/main.c:132: 		} RD ++;
 132:../8-LCD-TEMP-STP_Motor_IR/main.c **** 
 2661              		.loc 1 132 8 view .LVU666
 2662 0864 0135     		adds	r5, r5, #1	@ tmp153, RD,
 2663              	@ ../8-LCD-TEMP-STP_Motor_IR/main.c:136: 		if ((GPIOB->IDR & (1<<8)) || code_ir == CR_B4){{
 136:../8-LCD-TEMP-STP_Motor_IR/main.c **** 			ent_atual ++;
 2664              		.loc 1 136 13 view .LVU667
 2665 0866 9B68     		ldr	r3, [r3, #8]	@ _19, MEM[(struct GPIO_TypeDef *)1073810432B].IDR
 2666              	@ ../8-LCD-TEMP-STP_Motor_IR/main.c:132: 		} RD ++;
 132:../8-LCD-TEMP-STP_Motor_IR/main.c **** 
 2667              		.loc 1 132 8 view .LVU668
 2668 0868 EDB2     		uxtb	r5, r5	@ RD, tmp153
 2669              	.LVL139:
 136:../8-LCD-TEMP-STP_Motor_IR/main.c **** 			ent_atual ++;
 2670              		.loc 1 136 3 is_stmt 1 view .LVU669
 2671              	@ ../8-LCD-TEMP-STP_Motor_IR/main.c:136: 		if ((GPIOB->IDR & (1<<8)) || code_ir == CR_B4){{
 136:../8-LCD-TEMP-STP_Motor_IR/main.c **** 			ent_atual ++;
 2672              		.loc 1 136 6 is_stmt 0 view .LVU670
 2673 086a DB05     		lsls	r3, r3, #23	@, _19,
 2674 086c 03D4     		bmi	.L169		@,
 2675              	@ ../8-LCD-TEMP-STP_Motor_IR/main.c:136: 		if ((GPIOB->IDR & (1<<8)) || code_ir == CR_B4){{
 136:../8-LCD-TEMP-STP_Motor_IR/main.c **** 			ent_atual ++;
 2676              		.loc 1 136 29 discriminator 1 view .LVU671
 2677 086e 374B     		ldr	r3, .L190+20	@ tmp156,
 2678 0870 039A     		ldr	r2, [sp, #12]	@ code_ir, code_ir
 2679 0872 9A42     		cmp	r2, r3	@ code_ir, tmp156
 2680 0874 49D1     		bne	.L170		@,
 2681              	.L169:
 137:../8-LCD-TEMP-STP_Motor_IR/main.c **** 		}
 2682              		.loc 1 137 4 is_stmt 1 view .LVU672
 2683              	@ ../8-LCD-TEMP-STP_Motor_IR/main.c:137: 			ent_atual ++;
 137:../8-LCD-TEMP-STP_Motor_IR/main.c **** 		}
 2684              		.loc 1 137 14 is_stmt 0 view .LVU673
 2685 0876 0134     		adds	r4, r4, #1	@ tmp158, ent_atual,
ARM GAS  /tmp/cc4r6sqw.s 			page 68


 2686              	.LVL140:
 137:../8-LCD-TEMP-STP_Motor_IR/main.c **** 		}
 2687              		.loc 1 137 14 view .LVU674
 2688 0878 E4B2     		uxtb	r4, r4	@ ent_atual, tmp158
 2689              	.LVL141:
 140:../8-LCD-TEMP-STP_Motor_IR/main.c **** 			ent_atual = 1;
 2690              		.loc 1 140 3 is_stmt 1 view .LVU675
 2691              	@ ../8-LCD-TEMP-STP_Motor_IR/main.c:140: 		if (ent_atual > MAX_MENU )
 140:../8-LCD-TEMP-STP_Motor_IR/main.c **** 			ent_atual = 1;
 2692              		.loc 1 140 6 is_stmt 0 view .LVU676
 2693 087a 032C     		cmp	r4, #3	@ ent_atual,
 2694 087c 1CD9     		bls	.L171		@,
 141:../8-LCD-TEMP-STP_Motor_IR/main.c **** 		disp_clear();
 2695              		.loc 1 141 4 is_stmt 1 view .LVU677
 2696              	.LVL142:
 142:../8-LCD-TEMP-STP_Motor_IR/main.c **** 		}
 2697              		.loc 1 142 3 view .LVU678
 2698 087e FFF7FEFF 		bl	disp_clear		@
 2699              	.LVL143:
 147:../8-LCD-TEMP-STP_Motor_IR/main.c **** 				disp_text("Temperatura - C", 0, 0); 
 2700              		.loc 1 147 3 view .LVU679
 2701              	.L172:
 148:../8-LCD-TEMP-STP_Motor_IR/main.c **** 
 2702              		.loc 1 148 5 view .LVU680
 2703 0882 0022     		movs	r2, #0	@,
 2704 0884 3248     		ldr	r0, .L190+24	@,
 2705 0886 1146     		mov	r1, r2	@,
 2706 0888 FFF7FEFF 		bl	disp_text		@
 2707              	.LVL144:
 150:../8-LCD-TEMP-STP_Motor_IR/main.c **** 				disp_text(Float_point, 1, 6);
 2708              		.loc 1 150 5 view .LVU681
 2709              	@ ../8-LCD-TEMP-STP_Motor_IR/main.c:150: 				floatToString((float) BUFF * ADC_Const, Float_point, 2
 150:../8-LCD-TEMP-STP_Motor_IR/main.c **** 				disp_text(Float_point, 1, 6);
 2710              		.loc 1 150 19 is_stmt 0 view .LVU682
 2711 088c 3046     		mov	r0, r6	@, BUFF
 2712 088e FFF7FEFF 		bl	__aeabi_i2f		@
 2713              	.LVL145:
 2714 0892 FFF7FEFF 		bl	__aeabi_f2d		@
 2715              	.LVL146:
 2716              	@ ../8-LCD-TEMP-STP_Motor_IR/main.c:150: 				floatToString((float) BUFF * ADC_Const, Float_point, 2
 150:../8-LCD-TEMP-STP_Motor_IR/main.c **** 				disp_text(Float_point, 1, 6);
 2717              		.loc 1 150 32 view .LVU683
 2718 0896 4B46     		mov	r3, r9	@,
 2719 0898 4246     		mov	r2, r8	@, tmp180
 2720 089a FFF7FEFF 		bl	__aeabi_dmul		@
 2721              	.LVL147:
 2722              	@ ../8-LCD-TEMP-STP_Motor_IR/main.c:150: 				floatToString((float) BUFF * ADC_Const, Float_point, 2
 150:../8-LCD-TEMP-STP_Motor_IR/main.c **** 				disp_text(Float_point, 1, 6);
 2723              		.loc 1 150 5 view .LVU684
 2724 089e FFF7FEFF 		bl	__aeabi_d2f		@
 2725              	.LVL148:
 2726 08a2 0222     		movs	r2, #2	@,
 2727 08a4 04A9     		add	r1, sp, #16	@ tmp184,,
 2728 08a6 FFF7FEFF 		bl	floatToString		@
 2729              	.LVL149:
 151:../8-LCD-TEMP-STP_Motor_IR/main.c **** 		} 
 2730              		.loc 1 151 5 is_stmt 1 view .LVU685
ARM GAS  /tmp/cc4r6sqw.s 			page 69


 2731 08aa 0622     		movs	r2, #6	@,
 2732 08ac 0121     		movs	r1, #1	@,
 2733 08ae 04A8     		add	r0, sp, #16	@ tmp185,,
 2734 08b0 FFF7FEFF 		bl	disp_text		@
 2735              	.LVL150:
 153:../8-LCD-TEMP-STP_Motor_IR/main.c **** 			disp_text("----------------", 0 ,0);
 2736              		.loc 1 153 3 view .LVU686
 164:../8-LCD-TEMP-STP_Motor_IR/main.c **** 			disp_text("--- IR Hex Code", 0, 0); 
 2737              		.loc 1 164 3 view .LVU687
 2738              	@ ../8-LCD-TEMP-STP_Motor_IR/main.c:151: 				disp_text(Float_point, 1, 6);
 151:../8-LCD-TEMP-STP_Motor_IR/main.c **** 		} 
 2739              		.loc 1 151 5 is_stmt 0 view .LVU688
 2740 08b4 0124     		movs	r4, #1	@ ent_atual,
 2741 08b6 B8E7     		b	.L164		@
 2742              	.LVL151:
 2743              	.L171:
 142:../8-LCD-TEMP-STP_Motor_IR/main.c **** 		}
 2744              		.loc 1 142 3 is_stmt 1 view .LVU689
 2745 08b8 FFF7FEFF 		bl	disp_clear		@
 2746              	.LVL152:
 147:../8-LCD-TEMP-STP_Motor_IR/main.c **** 				disp_text("Temperatura - C", 0, 0); 
 2747              		.loc 1 147 3 view .LVU690
 2748              	.L173:
 153:../8-LCD-TEMP-STP_Motor_IR/main.c **** 			disp_text("----------------", 0 ,0);
 2749              		.loc 1 153 3 view .LVU691
 2750              	@ ../8-LCD-TEMP-STP_Motor_IR/main.c:153: 		if (ent_atual == 2 ){
 153:../8-LCD-TEMP-STP_Motor_IR/main.c **** 			disp_text("----------------", 0 ,0);
 2751              		.loc 1 153 6 is_stmt 0 view .LVU692
 2752 08bc 022C     		cmp	r4, #2	@ ent_atual,
 2753 08be 27D1     		bne	.L189		@,
 154:../8-LCD-TEMP-STP_Motor_IR/main.c **** 			disp_text("================", 1, 0);
 2754              		.loc 1 154 4 is_stmt 1 view .LVU693
 2755 08c0 0022     		movs	r2, #0	@,
 2756 08c2 2448     		ldr	r0, .L190+28	@,
 2757 08c4 1146     		mov	r1, r2	@,
 2758 08c6 FFF7FEFF 		bl	disp_text		@
 2759              	.LVL153:
 155:../8-LCD-TEMP-STP_Motor_IR/main.c **** 
 2760              		.loc 1 155 4 view .LVU694
 2761 08ca 0022     		movs	r2, #0	@,
 2762 08cc 0121     		movs	r1, #1	@,
 2763 08ce 2248     		ldr	r0, .L190+32	@,
 2764 08d0 FFF7FEFF 		bl	disp_text		@
 2765              	.LVL154:
 157:../8-LCD-TEMP-STP_Motor_IR/main.c **** 				__delay_ms(10);
 2766              		.loc 1 157 4 view .LVU695
 2767              	.LBB22:
 157:../8-LCD-TEMP-STP_Motor_IR/main.c **** 				__delay_ms(10);
 2768              		.loc 1 157 9 view .LVU696
 157:../8-LCD-TEMP-STP_Motor_IR/main.c **** 				__delay_ms(10);
 2769              		.loc 1 157 18 view .LVU697
 2770              	.LBE22:
 2771              	@ ../8-LCD-TEMP-STP_Motor_IR/main.c:155: 			disp_text("================", 1, 0);
 155:../8-LCD-TEMP-STP_Motor_IR/main.c **** 
 2772              		.loc 1 155 4 is_stmt 0 view .LVU698
 2773 08d4 0023     		movs	r3, #0	@ ivtmp.218,
 2774              	.LBB23:
ARM GAS  /tmp/cc4r6sqw.s 			page 70


 2775              	@ ../8-LCD-TEMP-STP_Motor_IR/main.c:159: 				disp_text("=", 0 ,i);
 159:../8-LCD-TEMP-STP_Motor_IR/main.c **** 				disp_text("-", 1 , 15 - i);
 2776              		.loc 1 159 5 view .LVU699
 2777 08d6 DFF884B0 		ldr	fp, .L190+36	@ tmp178,
 2778              	.LVL155:
 2779              	.L178:
 159:../8-LCD-TEMP-STP_Motor_IR/main.c **** 				disp_text("-", 1 , 15 - i);
 2780              		.loc 1 159 5 view .LVU700
 2781 08da 5FFA83FA 		uxtb	r10, r3	@ _32, ivtmp.218
 2782              	@ ../8-LCD-TEMP-STP_Motor_IR/main.c:158: 				__delay_ms(10);
 158:../8-LCD-TEMP-STP_Motor_IR/main.c **** 				disp_text("=", 0 ,i);
 2783              		.loc 1 158 5 discriminator 3 view .LVU701
 2784 08de 4FF47A70 		mov	r0, #1000	@,
 2785 08e2 0193     		str	r3, [sp, #4]	@ ivtmp.218, %sfp
 2786              	.LVL156:
 158:../8-LCD-TEMP-STP_Motor_IR/main.c **** 				disp_text("=", 0 ,i);
 2787              		.loc 1 158 5 is_stmt 1 discriminator 3 view .LVU702
 2788 08e4 FFF7FEFF 		bl	vTaskDelay		@
 2789              	.LVL157:
 159:../8-LCD-TEMP-STP_Motor_IR/main.c **** 				disp_text("-", 1 , 15 - i);
 2790              		.loc 1 159 5 discriminator 3 view .LVU703
 2791 08e8 5246     		mov	r2, r10	@, _32
 2792 08ea 0021     		movs	r1, #0	@,
 2793 08ec 5846     		mov	r0, fp	@, tmp178
 2794 08ee FFF7FEFF 		bl	disp_text		@
 2795              	.LVL158:
 160:../8-LCD-TEMP-STP_Motor_IR/main.c **** 			}
 2796              		.loc 1 160 5 discriminator 3 view .LVU704
 2797 08f2 CAF10F02 		rsb	r2, r10, #15	@ tmp171, _32,
 2798 08f6 0121     		movs	r1, #1	@,
 2799 08f8 1948     		ldr	r0, .L190+40	@,
 2800 08fa D2B2     		uxtb	r2, r2	@, tmp171
 2801 08fc FFF7FEFF 		bl	disp_text		@
 2802              	.LVL159:
 157:../8-LCD-TEMP-STP_Motor_IR/main.c **** 				__delay_ms(10);
 2803              		.loc 1 157 25 discriminator 3 view .LVU705
 157:../8-LCD-TEMP-STP_Motor_IR/main.c **** 				__delay_ms(10);
 2804              		.loc 1 157 18 discriminator 3 view .LVU706
 2805              	@ ../8-LCD-TEMP-STP_Motor_IR/main.c:157: 			for (u8 i=0 ; i<16 ; i++){
 157:../8-LCD-TEMP-STP_Motor_IR/main.c **** 				__delay_ms(10);
 2806              		.loc 1 157 4 is_stmt 0 discriminator 3 view .LVU707
 2807 0900 019B     		ldr	r3, [sp, #4]	@ ivtmp.218, %sfp
 2808 0902 0133     		adds	r3, r3, #1	@ ivtmp.218, ivtmp.218,
 2809 0904 102B     		cmp	r3, #16	@ ivtmp.218,
 2810 0906 E8D1     		bne	.L178		@,
 2811 0908 8FE7     		b	.L164		@
 2812              	.LVL160:
 2813              	.L170:
 157:../8-LCD-TEMP-STP_Motor_IR/main.c **** 				__delay_ms(10);
 2814              		.loc 1 157 4 discriminator 3 view .LVU708
 2815              	.LBE23:
 147:../8-LCD-TEMP-STP_Motor_IR/main.c **** 				disp_text("Temperatura - C", 0, 0); 
 2816              		.loc 1 147 3 is_stmt 1 view .LVU709
 2817              	@ ../8-LCD-TEMP-STP_Motor_IR/main.c:147: 		if (ent_atual == 1 ){
 147:../8-LCD-TEMP-STP_Motor_IR/main.c **** 				disp_text("Temperatura - C", 0, 0); 
 2818              		.loc 1 147 6 is_stmt 0 view .LVU710
 2819 090a 012C     		cmp	r4, #1	@ ent_atual,
ARM GAS  /tmp/cc4r6sqw.s 			page 71


 2820 090c B9D0     		beq	.L172		@,
 2821 090e D5E7     		b	.L173		@
 2822              	.L189:
 164:../8-LCD-TEMP-STP_Motor_IR/main.c **** 			disp_text("--- IR Hex Code", 0, 0); 
 2823              		.loc 1 164 3 is_stmt 1 view .LVU711
 2824              	@ ../8-LCD-TEMP-STP_Motor_IR/main.c:164: 		if (ent_atual == 3 ){
 164:../8-LCD-TEMP-STP_Motor_IR/main.c **** 			disp_text("--- IR Hex Code", 0, 0); 
 2825              		.loc 1 164 6 is_stmt 0 view .LVU712
 2826 0910 032C     		cmp	r4, #3	@ ent_atual,
 2827 0912 8AD1     		bne	.L164		@,
 165:../8-LCD-TEMP-STP_Motor_IR/main.c **** 			disp_text( word_IR, 1, 4);
 2828              		.loc 1 165 4 is_stmt 1 view .LVU713
 2829 0914 0022     		movs	r2, #0	@,
 2830 0916 1348     		ldr	r0, .L190+44	@,
 2831 0918 1146     		mov	r1, r2	@,
 2832 091a FFF7FEFF 		bl	disp_text		@
 2833              	.LVL161:
 166:../8-LCD-TEMP-STP_Motor_IR/main.c **** 			__delay_ms(100);
 2834              		.loc 1 166 4 view .LVU714
 2835 091e 06A8     		add	r0, sp, #24	@,,
 2836 0920 0422     		movs	r2, #4	@,
 2837 0922 0121     		movs	r1, #1	@,
 2838 0924 FFF7FEFF 		bl	disp_text		@
 2839              	.LVL162:
 167:../8-LCD-TEMP-STP_Motor_IR/main.c **** 		}
 2840              		.loc 1 167 4 view .LVU715
 2841 0928 42F21070 		movw	r0, #10000	@,
 2842 092c FFF7FEFF 		bl	vTaskDelay		@
 2843              	.LVL163:
 2844 0930 7BE7     		b	.L164		@
 2845              	.L191:
 2846 0932 00BFAFF3 		.align	3
 2846      0080
 2847              	.L190:
 2848 0938 5CE84A04 		.word	72018012
 2849 093c AA7F803F 		.word	1065385898
 2850 0940 00100240 		.word	1073876992
 2851 0944 00000000 		.word	.LANCHOR0
 2852 0948 000C0140 		.word	1073810432
 2853 094c B9FBE7FF 		.word	-1573959
 2854 0950 33000000 		.word	.LC5
 2855 0954 0D000000 		.word	.LC1
 2856 0958 1E000000 		.word	.LC2
 2857 095c 2F000000 		.word	.LC3
 2858 0960 31000000 		.word	.LC4
 2859 0964 43000000 		.word	.LC6
 2860              		.cfi_endproc
 2861              	.LFE52:
 2862              		.size	task1, .-task1
 2863              		.section	.rodata.str1.1
 2864              	.LC7:
 2865 0053 4C43445F 		.ascii	"LCD_16x2\000"
 2865      31367832 
 2865      00
 2866              	.LC8:
 2867 005c 4C45445F 		.ascii	"LED_13\000"
 2867      313300
ARM GAS  /tmp/cc4r6sqw.s 			page 72


 2868              	.LC9:
 2869 0063 4C4D3335 		.ascii	"LM35_read\000"
 2869      5F726561 
 2869      6400
 2870              	.LC10:
 2871 006d 53746570 		.ascii	"StepperMotor\000"
 2871      7065724D 
 2871      6F746F72 
 2871      00
 2872              	.LC11:
 2873 007a 49525F52 		.ascii	"IR_Rev\000"
 2873      657600
 2874              	.LC12:
 2875 0081 50574D5F 		.ascii	"PWM_atuad\000"
 2875      61747561 
 2875      6400
 2876              		.section	.text.startup,"ax",%progbits
 2877              		.align	1
 2878              		.global	main
 2879              		.syntax unified
 2880              		.thumb
 2881              		.thumb_func
 2882              		.type	main, %function
 2883              	main:
 2884              	.LFB58:
 327:../8-LCD-TEMP-STP_Motor_IR/main.c ****    }
 328:../8-LCD-TEMP-STP_Motor_IR/main.c **** }
 329:../8-LCD-TEMP-STP_Motor_IR/main.c **** 
 330:../8-LCD-TEMP-STP_Motor_IR/main.c **** int main(void) {
 2885              		.loc 1 330 16 view -0
 2886              		.cfi_startproc
 2887              		@ Volatile: function does not return.
 2888              		@ args = 0, pretend = 0, frame = 0
 2889              		@ frame_needed = 0, uses_anonymous_args = 0
 331:../8-LCD-TEMP-STP_Motor_IR/main.c **** 
 332:../8-LCD-TEMP-STP_Motor_IR/main.c **** 	// O tamanho da fila é x - 1 !!
 333:../8-LCD-TEMP-STP_Motor_IR/main.c **** 	LCD_Show_queue = xQueueCreate(ELEMENTOS_FILA_LCD, sizeof(u32));
 2890              		.loc 1 333 2 view .LVU717
 2891              	@ ../8-LCD-TEMP-STP_Motor_IR/main.c:330: int main(void) {
 330:../8-LCD-TEMP-STP_Motor_IR/main.c **** 
 2892              		.loc 1 330 16 is_stmt 0 view .LVU718
 2893 0000 07B5     		push	{r0, r1, r2, lr}	@
 2894              	.LCFI21:
 2895              		.cfi_def_cfa_offset 16
 2896              		.cfi_offset 14, -4
 2897              	@ ../8-LCD-TEMP-STP_Motor_IR/main.c:333: 	LCD_Show_queue = xQueueCreate(ELEMENTOS_FILA_LCD, sizeof(
 2898              		.loc 1 333 19 view .LVU719
 2899 0002 0022     		movs	r2, #0	@,
 2900 0004 0421     		movs	r1, #4	@,
 2901 0006 0220     		movs	r0, #2	@,
 2902 0008 FFF7FEFF 		bl	xQueueGenericCreate		@
 2903              	.LVL164:
 2904              	@ ../8-LCD-TEMP-STP_Motor_IR/main.c:333: 	LCD_Show_queue = xQueueCreate(ELEMENTOS_FILA_LCD, sizeof(
 2905              		.loc 1 333 17 view .LVU720
 2906 000c 224C     		ldr	r4, .L194	@ tmp117,
 2907              	@ ../8-LCD-TEMP-STP_Motor_IR/main.c:334: 	STMotor_queue  = xQueueCreate(ELEMENTOS_FILA_SM, sizeof(u
 334:../8-LCD-TEMP-STP_Motor_IR/main.c **** 	STMotor_queue  = xQueueCreate(ELEMENTOS_FILA_SM, sizeof(u32)); 
ARM GAS  /tmp/cc4r6sqw.s 			page 73


 2908              		.loc 1 334 19 view .LVU721
 2909 000e 0022     		movs	r2, #0	@,
 2910              	@ ../8-LCD-TEMP-STP_Motor_IR/main.c:333: 	LCD_Show_queue = xQueueCreate(ELEMENTOS_FILA_LCD, sizeof(
 333:../8-LCD-TEMP-STP_Motor_IR/main.c **** 	STMotor_queue  = xQueueCreate(ELEMENTOS_FILA_SM, sizeof(u32)); 
 2911              		.loc 1 333 17 view .LVU722
 2912 0010 A060     		str	r0, [r4, #8]	@ tmp144, LCD_Show_queue
 2913              		.loc 1 334 2 is_stmt 1 view .LVU723
 2914              	@ ../8-LCD-TEMP-STP_Motor_IR/main.c:334: 	STMotor_queue  = xQueueCreate(ELEMENTOS_FILA_SM, sizeof(u
 2915              		.loc 1 334 19 is_stmt 0 view .LVU724
 2916 0012 0421     		movs	r1, #4	@,
 2917 0014 0120     		movs	r0, #1	@,
 2918 0016 FFF7FEFF 		bl	xQueueGenericCreate		@
 2919              	.LVL165:
 2920              	@ ../8-LCD-TEMP-STP_Motor_IR/main.c:335: 	PWM_data_queue = xQueueCreate(ELEMENTOS_FILA_PWM, sizeof(
 335:../8-LCD-TEMP-STP_Motor_IR/main.c **** 	PWM_data_queue = xQueueCreate(ELEMENTOS_FILA_PWM, sizeof(u32));
 2921              		.loc 1 335 19 view .LVU725
 2922 001a 0022     		movs	r2, #0	@,
 2923 001c 0421     		movs	r1, #4	@,
 2924              	@ ../8-LCD-TEMP-STP_Motor_IR/main.c:334: 	STMotor_queue  = xQueueCreate(ELEMENTOS_FILA_SM, sizeof(u
 334:../8-LCD-TEMP-STP_Motor_IR/main.c **** 	STMotor_queue  = xQueueCreate(ELEMENTOS_FILA_SM, sizeof(u32)); 
 2925              		.loc 1 334 17 view .LVU726
 2926 001e 6060     		str	r0, [r4, #4]	@ tmp145, STMotor_queue
 2927              		.loc 1 335 2 is_stmt 1 view .LVU727
 2928              	@ ../8-LCD-TEMP-STP_Motor_IR/main.c:335: 	PWM_data_queue = xQueueCreate(ELEMENTOS_FILA_PWM, sizeof(
 2929              		.loc 1 335 19 is_stmt 0 view .LVU728
 2930 0020 0120     		movs	r0, #1	@,
 2931 0022 FFF7FEFF 		bl	xQueueGenericCreate		@
 2932              	.LVL166:
 2933              	@ ../8-LCD-TEMP-STP_Motor_IR/main.c:339: 	xTaskCreate(task1,"LCD_16x2", 100 ,NULL, 4 ,NULL);
 336:../8-LCD-TEMP-STP_Motor_IR/main.c **** 	
 337:../8-LCD-TEMP-STP_Motor_IR/main.c **** 	set_system_clock_to_72Mhz();
 338:../8-LCD-TEMP-STP_Motor_IR/main.c **** 
 339:../8-LCD-TEMP-STP_Motor_IR/main.c **** 	xTaskCreate(task1,"LCD_16x2", 100 ,NULL, 4 ,NULL);
 2934              		.loc 1 339 2 view .LVU729
 2935 0026 0425     		movs	r5, #4	@ tmp123,
 2936              	@ ../8-LCD-TEMP-STP_Motor_IR/main.c:335: 	PWM_data_queue = xQueueCreate(ELEMENTOS_FILA_PWM, sizeof(
 335:../8-LCD-TEMP-STP_Motor_IR/main.c **** 	PWM_data_queue = xQueueCreate(ELEMENTOS_FILA_PWM, sizeof(u32));
 2937              		.loc 1 335 17 view .LVU730
 2938 0028 2060     		str	r0, [r4]	@ tmp146, PWM_data_queue
 337:../8-LCD-TEMP-STP_Motor_IR/main.c **** 
 2939              		.loc 1 337 2 is_stmt 1 view .LVU731
 2940              	@ ../8-LCD-TEMP-STP_Motor_IR/main.c:339: 	xTaskCreate(task1,"LCD_16x2", 100 ,NULL, 4 ,NULL);
 2941              		.loc 1 339 2 is_stmt 0 view .LVU732
 2942 002a 0024     		movs	r4, #0	@ tmp122,
 2943              	@ ../8-LCD-TEMP-STP_Motor_IR/main.c:337: 	set_system_clock_to_72Mhz();
 337:../8-LCD-TEMP-STP_Motor_IR/main.c **** 
 2944              		.loc 1 337 2 view .LVU733
 2945 002c FFF7FEFF 		bl	set_system_clock_to_72Mhz		@
 2946              	.LVL167:
 2947              		.loc 1 339 2 is_stmt 1 view .LVU734
 2948 0030 1A48     		ldr	r0, .L194+4	@,
 2949 0032 2346     		mov	r3, r4	@, tmp122
 2950 0034 6422     		movs	r2, #100	@,
 2951 0036 1A49     		ldr	r1, .L194+8	@,
 2952 0038 CDE90054 		strd	r5, r4, [sp]	@ tmp123, tmp122,
 2953 003c FFF7FEFF 		bl	xTaskCreate		@
 2954              	.LVL168:
ARM GAS  /tmp/cc4r6sqw.s 			page 74


 340:../8-LCD-TEMP-STP_Motor_IR/main.c **** 	xTaskCreate(task2, "LED_13", 100 , NULL, 4, NULL);
 2955              		.loc 1 340 2 view .LVU735
 2956 0040 2346     		mov	r3, r4	@, tmp122
 2957 0042 6422     		movs	r2, #100	@,
 2958 0044 1749     		ldr	r1, .L194+12	@,
 2959 0046 CDE90054 		strd	r5, r4, [sp]	@ tmp123, tmp122,
 2960 004a 1748     		ldr	r0, .L194+16	@,
 2961 004c FFF7FEFF 		bl	xTaskCreate		@
 2962              	.LVL169:
 341:../8-LCD-TEMP-STP_Motor_IR/main.c **** 	xTaskCreate(task3, "LM35_read", 100 , NULL, 4 , NULL);
 2963              		.loc 1 341 2 view .LVU736
 2964 0050 2346     		mov	r3, r4	@, tmp122
 2965 0052 6422     		movs	r2, #100	@,
 2966 0054 1549     		ldr	r1, .L194+20	@,
 2967 0056 CDE90054 		strd	r5, r4, [sp]	@ tmp123, tmp122,
 2968 005a 1548     		ldr	r0, .L194+24	@,
 2969 005c FFF7FEFF 		bl	xTaskCreate		@
 2970              	.LVL170:
 342:../8-LCD-TEMP-STP_Motor_IR/main.c **** 	xTaskCreate(task4, "StepperMotor", 100 , NULL, 4 , NULL);
 2971              		.loc 1 342 2 view .LVU737
 2972 0060 2346     		mov	r3, r4	@, tmp122
 2973 0062 6422     		movs	r2, #100	@,
 2974 0064 1349     		ldr	r1, .L194+28	@,
 2975 0066 CDE90054 		strd	r5, r4, [sp]	@ tmp123, tmp122,
 2976 006a 1348     		ldr	r0, .L194+32	@,
 2977 006c FFF7FEFF 		bl	xTaskCreate		@
 2978              	.LVL171:
 343:../8-LCD-TEMP-STP_Motor_IR/main.c **** 	xTaskCreate(task5, "IR_Rev", 100 , NULL, 4 , NULL);
 2979              		.loc 1 343 2 view .LVU738
 2980 0070 2346     		mov	r3, r4	@, tmp122
 2981 0072 6422     		movs	r2, #100	@,
 2982 0074 1149     		ldr	r1, .L194+36	@,
 2983 0076 CDE90054 		strd	r5, r4, [sp]	@ tmp123, tmp122,
 2984 007a 1148     		ldr	r0, .L194+40	@,
 2985 007c FFF7FEFF 		bl	xTaskCreate		@
 2986              	.LVL172:
 344:../8-LCD-TEMP-STP_Motor_IR/main.c **** 	xTaskCreate(task6, "PWM_atuad", 100 , NULL, 4 , NULL);
 2987              		.loc 1 344 2 view .LVU739
 2988 0080 2346     		mov	r3, r4	@, tmp122
 2989 0082 6422     		movs	r2, #100	@,
 2990 0084 0F49     		ldr	r1, .L194+44	@,
 2991 0086 CDE90054 		strd	r5, r4, [sp]	@ tmp123, tmp122,
 2992 008a 0F48     		ldr	r0, .L194+48	@,
 2993 008c FFF7FEFF 		bl	xTaskCreate		@
 2994              	.LVL173:
 345:../8-LCD-TEMP-STP_Motor_IR/main.c **** 
 346:../8-LCD-TEMP-STP_Motor_IR/main.c **** 	vTaskStartScheduler(); 
 2995              		.loc 1 346 2 view .LVU740
 2996 0090 FFF7FEFF 		bl	vTaskStartScheduler		@
 2997              	.LVL174:
 2998              	.L193:
 347:../8-LCD-TEMP-STP_Motor_IR/main.c **** 
 348:../8-LCD-TEMP-STP_Motor_IR/main.c **** 	while(1);
 2999              		.loc 1 348 2 discriminator 1 view .LVU741
 3000              		.loc 1 348 10 discriminator 1 view .LVU742
 3001              		.loc 1 348 7 discriminator 1 view .LVU743
 3002 0094 FEE7     		b	.L193		@
ARM GAS  /tmp/cc4r6sqw.s 			page 75


 3003              	.L195:
 3004 0096 00BF     		.align	2
 3005              	.L194:
 3006 0098 00000000 		.word	.LANCHOR0
 3007 009c 00000000 		.word	task1
 3008 00a0 53000000 		.word	.LC7
 3009 00a4 5C000000 		.word	.LC8
 3010 00a8 00000000 		.word	task2
 3011 00ac 63000000 		.word	.LC9
 3012 00b0 00000000 		.word	task3
 3013 00b4 6D000000 		.word	.LC10
 3014 00b8 00000000 		.word	task4
 3015 00bc 7A000000 		.word	.LC11
 3016 00c0 00000000 		.word	task5
 3017 00c4 81000000 		.word	.LC12
 3018 00c8 00000000 		.word	task6
 3019              		.cfi_endproc
 3020              	.LFE58:
 3021              		.size	main, .-main
 3022              		.bss
 3023              		.align	2
 3024              		.set	.LANCHOR0,. + 0
 3025              		.type	PWM_data_queue, %object
 3026              		.size	PWM_data_queue, 4
 3027              	PWM_data_queue:
 3028 0000 00000000 		.space	4
 3029              		.type	STMotor_queue, %object
 3030              		.size	STMotor_queue, 4
 3031              	STMotor_queue:
 3032 0004 00000000 		.space	4
 3033              		.type	LCD_Show_queue, %object
 3034              		.size	LCD_Show_queue, 4
 3035              	LCD_Show_queue:
 3036 0008 00000000 		.space	4
 3037              		.text
 3038              	.Letext0:
 3039              		.file 6 "/usr/arm-none-eabi/include/machine/_default_types.h"
 3040              		.file 7 "/usr/arm-none-eabi/include/sys/_stdint.h"
 3041              		.file 8 "../freertos/portable/GCC/ARM_CM3/portmacro.h"
 3042              		.file 9 "../freertos/include/queue.h"
 3043              		.file 10 "../stm32f10x_lib/CMSIS/CM3/DeviceSupport/ST/STM32F10x/stm32f10x.h"
 3044              		.file 11 "../stm32f10x_lib/CMSIS/CM3/CoreSupport/core_cm3.h"
 3045              		.file 12 "../stm32f10x_lib/STM32F10x_StdPeriph_Driver/inc/stm32f10x_gpio.h"
 3046              		.file 13 "../stm32f10x_lib/STM32F10x_StdPeriph_Driver/inc/stm32f10x_usart.h"
 3047              		.file 14 "../freertos/include/task.h"
 3048              		.file 15 "/usr/arm-none-eabi/include/stdlib.h"
 3049              		.file 16 "../8-LCD-TEMP-STP_Motor_IR/myLcd.h"
 3050              		.file 17 "../stm32f10x_lib/STM32F10x_StdPeriph_Driver/inc/stm32f10x_rcc.h"