ARM GAS  /tmp/ccaJFhKP.s 			page 1


   1              		.cpu cortex-m3
   2              		.arch armv7-m
   3              		.fpu softvfp
   4              		.eabi_attribute 20, 1	@ Tag_ABI_FP_denormal
   5              		.eabi_attribute 21, 1	@ Tag_ABI_FP_exceptions
   6              		.eabi_attribute 23, 3	@ Tag_ABI_FP_number_model
   7              		.eabi_attribute 24, 1	@ Tag_ABI_align8_needed
   8              		.eabi_attribute 25, 1	@ Tag_ABI_align8_preserved
   9              		.eabi_attribute 26, 1	@ Tag_ABI_enum_size
  10              		.eabi_attribute 30, 4	@ Tag_ABI_optimization_goals
  11              		.eabi_attribute 34, 1	@ Tag_CPU_unaligned_access
  12              		.eabi_attribute 18, 4	@ Tag_ABI_PCS_wchar_t
  13              		.file	"main.c"
  14              	@ GNU C17 (GNU Arm Embedded Toolchain 10.3-2021.10) version 10.3.1 20210824 (release) (arm-none-eab
  15              	@	compiled by GNU C version 4.8.4, GMP version 6.1.0, MPFR version 3.1.4, MPC version 1.0.3, isl ve
  16              	
  17              	@ GGC heuristics: --param ggc-min-expand=100 --param ggc-min-heapsize=131072
  18              	@ options passed:  -I . -I ../8-LCD-TEMP-STP_Motor_IR
  19              	@ -I ../stm32f10x_lib/CMSIS/CM3/CoreSupport
  20              	@ -I ../stm32f10x_lib/CMSIS/CM3/DeviceSupport/ST/STM32F10x
  21              	@ -I ../stm32f10x_lib/STM32F10x_StdPeriph_Driver/inc
  22              	@ -I ../stm32f10x_lib/STM32F10x_StdPeriph_Driver -I ../freertos/include
  23              	@ -I ../freertos/portable/GCC/ARM_CM3 -imultilib thumb/v7-m/nofp
  24              	@ -iprefix /usr/bin/../lib/gcc/arm-none-eabi/10.3.1/
  25              	@ -isysroot /usr/bin/../arm-none-eabi -D__USES_INITFINI__ -D STM32F10X_MD
  26              	@ -D USE_STDPERIPH_DRIVER -D HSE_VALUE=8000000 -D RUN_FROM_FLASH=1
  27              	@ ../8-LCD-TEMP-STP_Motor_IR/main.c -mcpu=cortex-m3 -mthumb
  28              	@ -mfloat-abi=soft -mlibarch=armv7-m -march=armv7-m
  29              	@ -auxbase-strip ../8-LCD-TEMP-STP_Motor_IR/main.o -g -gdwarf-2 -Os -Wall
  30              	@ -fomit-frame-pointer -fverbose-asm
  31              	@ options enabled:  -faggressive-loop-optimizations -fallocation-dce
  32              	@ -fauto-inc-dec -fbranch-count-reg -fcaller-saves -fcode-hoisting
  33              	@ -fcombine-stack-adjustments -fcompare-elim -fcprop-registers
  34              	@ -fcrossjumping -fcse-follow-jumps -fdefer-pop
  35              	@ -fdelete-null-pointer-checks -fdevirtualize -fdevirtualize-speculatively
  36              	@ -fdwarf2-cfi-asm -fearly-inlining -feliminate-unused-debug-symbols
  37              	@ -feliminate-unused-debug-types -fexpensive-optimizations
  38              	@ -fforward-propagate -ffp-int-builtin-inexact -ffunction-cse -fgcse
  39              	@ -fgcse-lm -fgnu-unique -fguess-branch-probability -fhoist-adjacent-loads
  40              	@ -fident -fif-conversion -fif-conversion2 -findirect-inlining -finline
  41              	@ -finline-atomics -finline-functions -finline-functions-called-once
  42              	@ -finline-small-functions -fipa-bit-cp -fipa-cp -fipa-icf
  43              	@ -fipa-icf-functions -fipa-icf-variables -fipa-profile -fipa-pure-const
  44              	@ -fipa-ra -fipa-reference -fipa-reference-addressable -fipa-sra
  45              	@ -fipa-stack-alignment -fipa-vrp -fira-hoist-pressure
  46              	@ -fira-share-save-slots -fira-share-spill-slots
  47              	@ -fisolate-erroneous-paths-dereference -fivopts -fkeep-static-consts
  48              	@ -fleading-underscore -flifetime-dse -flra-remat -fmath-errno
  49              	@ -fmerge-constants -fmerge-debug-strings -fmove-loop-invariants
  50              	@ -fomit-frame-pointer -foptimize-sibling-calls -fpartial-inlining
  51              	@ -fpeephole -fpeephole2 -fplt -fprefetch-loop-arrays -freg-struct-return
  52              	@ -freorder-blocks -freorder-functions -frerun-cse-after-loop
  53              	@ -fsched-critical-path-heuristic -fsched-dep-count-heuristic
  54              	@ -fsched-group-heuristic -fsched-interblock -fsched-last-insn-heuristic
  55              	@ -fsched-pressure -fsched-rank-heuristic -fsched-spec
  56              	@ -fsched-spec-insn-heuristic -fsched-stalled-insns-dep -fschedule-insns2
  57              	@ -fsection-anchors -fsemantic-interposition -fshow-column
ARM GAS  /tmp/ccaJFhKP.s 			page 2


  58              	@ -fshrink-wrap-separate -fsigned-zeros -fsplit-ivs-in-unroller
  59              	@ -fsplit-wide-types -fssa-backprop -fssa-phiopt -fstdarg-opt
  60              	@ -fstore-merging -fstrict-aliasing -fstrict-volatile-bitfields
  61              	@ -fsync-libcalls -fthread-jumps -ftoplevel-reorder -ftrapping-math
  62              	@ -ftree-bit-ccp -ftree-builtin-call-dce -ftree-ccp -ftree-ch
  63              	@ -ftree-coalesce-vars -ftree-copy-prop -ftree-cselim -ftree-dce
  64              	@ -ftree-dominator-opts -ftree-dse -ftree-forwprop -ftree-fre
  65              	@ -ftree-loop-distribute-patterns -ftree-loop-if-convert -ftree-loop-im
  66              	@ -ftree-loop-ivcanon -ftree-loop-optimize -ftree-parallelize-loops=
  67              	@ -ftree-phiprop -ftree-pre -ftree-pta -ftree-reassoc -ftree-scev-cprop
  68              	@ -ftree-sink -ftree-slsr -ftree-sra -ftree-switch-conversion
  69              	@ -ftree-tail-merge -ftree-ter -ftree-vrp -funit-at-a-time -fvar-tracking
  70              	@ -fvar-tracking-assignments -fverbose-asm -fzero-initialized-in-bss
  71              	@ -masm-syntax-unified -mbe32 -mfix-cortex-m3-ldrd -mlittle-endian
  72              	@ -mpic-data-is-text-relative -msched-prolog -mthumb -munaligned-access
  73              	@ -mvectorize-with-neon-quad
  74              	
  75              		.text
  76              	.Ltext0:
  77              		.cfi_sections	.debug_frame
  78              		.align	1
  79              		.syntax unified
  80              		.thumb
  81              		.thumb_func
  82              		.type	task2, %function
  83              	task2:
  84              	.LVL0:
  85              	.LFB52:
  86              		.file 1 "../8-LCD-TEMP-STP_Motor_IR/main.c"
   1:../8-LCD-TEMP-STP_Motor_IR/main.c **** /*
   2:../8-LCD-TEMP-STP_Motor_IR/main.c ****  * Projeto LCD
   3:../8-LCD-TEMP-STP_Motor_IR/main.c ****  *		Modificações necessárias: 
   4:../8-LCD-TEMP-STP_Motor_IR/main.c ****  *		  FreeRTOSConfig:
   5:../8-LCD-TEMP-STP_Motor_IR/main.c ****  *			 TICK_RATE_HZ definido em (100000)Hz -> 1µs
   6:../8-LCD-TEMP-STP_Motor_IR/main.c ****  *
   7:../8-LCD-TEMP-STP_Motor_IR/main.c ****  *	Clock do sistema: 
   8:../8-LCD-TEMP-STP_Motor_IR/main.c ****  *		72Mhz
   9:../8-LCD-TEMP-STP_Motor_IR/main.c ****  *	
  10:../8-LCD-TEMP-STP_Motor_IR/main.c ****  *	Lib construída para Arduíno UNO:
  11:../8-LCD-TEMP-STP_Motor_IR/main.c ****  *		myLcd.h
  12:../8-LCD-TEMP-STP_Motor_IR/main.c ****  *			#define delayMicroseconds(X)   vTaskDelay(X)
  13:../8-LCD-TEMP-STP_Motor_IR/main.c ****  *			#define delay(X)  vTaskDelay(X)
  14:../8-LCD-TEMP-STP_Motor_IR/main.c ****  * */
  15:../8-LCD-TEMP-STP_Motor_IR/main.c **** 
  16:../8-LCD-TEMP-STP_Motor_IR/main.c **** // FreeRTOS: 
  17:../8-LCD-TEMP-STP_Motor_IR/main.c **** 
  18:../8-LCD-TEMP-STP_Motor_IR/main.c **** #include "FreeRTOS.h"
  19:../8-LCD-TEMP-STP_Motor_IR/main.c **** #include "queue.h"
  20:../8-LCD-TEMP-STP_Motor_IR/main.c **** #include "task.h"
  21:../8-LCD-TEMP-STP_Motor_IR/main.c **** 
  22:../8-LCD-TEMP-STP_Motor_IR/main.c **** #include <stdlib.h> // funçao itoa
  23:../8-LCD-TEMP-STP_Motor_IR/main.c **** 
  24:../8-LCD-TEMP-STP_Motor_IR/main.c **** #define __delay_ms( TEMPO ) vTaskDelay(pdMS_TO_TICKS( TEMPO ))
  25:../8-LCD-TEMP-STP_Motor_IR/main.c **** #define __delay( TEMPO ) vTaskDelay( TEMPO )
  26:../8-LCD-TEMP-STP_Motor_IR/main.c **** 
  27:../8-LCD-TEMP-STP_Motor_IR/main.c **** #include "stm32f10x.h"
  28:../8-LCD-TEMP-STP_Motor_IR/main.c **** #include "stm32f10x_tim.h"
ARM GAS  /tmp/ccaJFhKP.s 			page 3


  29:../8-LCD-TEMP-STP_Motor_IR/main.c **** #include "Me.h"
  30:../8-LCD-TEMP-STP_Motor_IR/main.c **** 
  31:../8-LCD-TEMP-STP_Motor_IR/main.c **** #include "myLcd.h"
  32:../8-LCD-TEMP-STP_Motor_IR/main.c **** #include "Serial.h"
  33:../8-LCD-TEMP-STP_Motor_IR/main.c **** #include "adc.h"
  34:../8-LCD-TEMP-STP_Motor_IR/main.c **** #include "infraRed.h"
  35:../8-LCD-TEMP-STP_Motor_IR/main.c **** 
  36:../8-LCD-TEMP-STP_Motor_IR/main.c **** #define BIN 2
  37:../8-LCD-TEMP-STP_Motor_IR/main.c **** #define OCT 8
  38:../8-LCD-TEMP-STP_Motor_IR/main.c **** #define DEC 10
  39:../8-LCD-TEMP-STP_Motor_IR/main.c **** #define HEX 16
  40:../8-LCD-TEMP-STP_Motor_IR/main.c **** 
  41:../8-LCD-TEMP-STP_Motor_IR/main.c **** // Vadc * 3.3 * 10 / 4096 (12 bits) 
  42:../8-LCD-TEMP-STP_Motor_IR/main.c **** #define ADC_Const 0.008056
  43:../8-LCD-TEMP-STP_Motor_IR/main.c **** #define VEL_ANIMACAO 15
  44:../8-LCD-TEMP-STP_Motor_IR/main.c **** 
  45:../8-LCD-TEMP-STP_Motor_IR/main.c **** 
  46:../8-LCD-TEMP-STP_Motor_IR/main.c **** // Codigos IR - Botoes:
  47:../8-LCD-TEMP-STP_Motor_IR/main.c **** #define CR_NUM_1 0xffe7fbb9
  48:../8-LCD-TEMP-STP_Motor_IR/main.c **** #define CR_NUM_4 0xffe7faf9
  49:../8-LCD-TEMP-STP_Motor_IR/main.c **** #define CR_B4 0xffe7fbb9
  50:../8-LCD-TEMP-STP_Motor_IR/main.c **** #define CR_B7 0xffe7fab9
  51:../8-LCD-TEMP-STP_Motor_IR/main.c **** #define CR_B8 0xffe7fbf9
  52:../8-LCD-TEMP-STP_Motor_IR/main.c **** 
  53:../8-LCD-TEMP-STP_Motor_IR/main.c **** 
  54:../8-LCD-TEMP-STP_Motor_IR/main.c **** static QueueHandle_t LCD_Show_queue; 
  55:../8-LCD-TEMP-STP_Motor_IR/main.c **** static QueueHandle_t IR_Data_queue; 
  56:../8-LCD-TEMP-STP_Motor_IR/main.c **** static QueueHandle_t PWM_data_queue; 
  57:../8-LCD-TEMP-STP_Motor_IR/main.c **** 
  58:../8-LCD-TEMP-STP_Motor_IR/main.c **** void LCD16x2_init(){
  59:../8-LCD-TEMP-STP_Motor_IR/main.c **** 
  60:../8-LCD-TEMP-STP_Motor_IR/main.c **** 	RCC->APB2ENR |= (1<<2);
  61:../8-LCD-TEMP-STP_Motor_IR/main.c **** 	GPIOA->CRL	 = 0x33333300; // Hab PA(2-7) out PP
  62:../8-LCD-TEMP-STP_Motor_IR/main.c **** 
  63:../8-LCD-TEMP-STP_Motor_IR/main.c **** 	set_bit(IO,RS);   set_bit(IO,RS);
  64:../8-LCD-TEMP-STP_Motor_IR/main.c **** 	set_bit(IO,EN);   set_bit(IO,D4);
  65:../8-LCD-TEMP-STP_Motor_IR/main.c **** 	set_bit(IO,D5);   set_bit(IO,D6);
  66:../8-LCD-TEMP-STP_Motor_IR/main.c **** 	set_bit(IO,D7);   disp_init();
  67:../8-LCD-TEMP-STP_Motor_IR/main.c **** 	disp_cmd(0x0C);
  68:../8-LCD-TEMP-STP_Motor_IR/main.c **** 
  69:../8-LCD-TEMP-STP_Motor_IR/main.c **** // Animação no visor:
  70:../8-LCD-TEMP-STP_Motor_IR/main.c **** 	disp_text("----------------", 0 ,0);
  71:../8-LCD-TEMP-STP_Motor_IR/main.c **** 	disp_text("================", 1, 0);
  72:../8-LCD-TEMP-STP_Motor_IR/main.c **** 
  73:../8-LCD-TEMP-STP_Motor_IR/main.c **** 	for (u8 i=0 ; i<16 ; i++){
  74:../8-LCD-TEMP-STP_Motor_IR/main.c **** 		__delay_ms(VEL_ANIMACAO);
  75:../8-LCD-TEMP-STP_Motor_IR/main.c **** 		disp_text("=", 0 ,i);
  76:../8-LCD-TEMP-STP_Motor_IR/main.c **** 		disp_text("-", 1 , 16 - i);
  77:../8-LCD-TEMP-STP_Motor_IR/main.c **** 	}
  78:../8-LCD-TEMP-STP_Motor_IR/main.c **** 	__delay_ms(VEL_ANIMACAO); 
  79:../8-LCD-TEMP-STP_Motor_IR/main.c **** 	disp_clear();
  80:../8-LCD-TEMP-STP_Motor_IR/main.c **** }
  81:../8-LCD-TEMP-STP_Motor_IR/main.c **** 
  82:../8-LCD-TEMP-STP_Motor_IR/main.c **** static void task1(void *args __attribute((unused))) {
  83:../8-LCD-TEMP-STP_Motor_IR/main.c **** 
  84:../8-LCD-TEMP-STP_Motor_IR/main.c **** 	/* [2---]
  85:../8-LCD-TEMP-STP_Motor_IR/main.c **** 	 *
ARM GAS  /tmp/ccaJFhKP.s 			page 4


  86:../8-LCD-TEMP-STP_Motor_IR/main.c **** 	 * Tarefa dedicada em mostrar informações no LCD 16x2.
  87:../8-LCD-TEMP-STP_Motor_IR/main.c **** 	 * Informações de temperatura, ficando aberto para mais
  88:../8-LCD-TEMP-STP_Motor_IR/main.c **** 	 * funcionalidades
  89:../8-LCD-TEMP-STP_Motor_IR/main.c **** 	 * 
  90:../8-LCD-TEMP-STP_Motor_IR/main.c **** 	 * */
  91:../8-LCD-TEMP-STP_Motor_IR/main.c **** 
  92:../8-LCD-TEMP-STP_Motor_IR/main.c **** 	LCD16x2_init();
  93:../8-LCD-TEMP-STP_Motor_IR/main.c **** 	RCC->APB2ENR |= 1<<3;
  94:../8-LCD-TEMP-STP_Motor_IR/main.c **** 	GPIOB->CRH |= 0x4<<0; // Input Pull
  95:../8-LCD-TEMP-STP_Motor_IR/main.c **** 	GPIOB->ODR |= 1<<8; // Pull-up
  96:../8-LCD-TEMP-STP_Motor_IR/main.c **** 	int msg_buf_rev, BUFF = 0;
  97:../8-LCD-TEMP-STP_Motor_IR/main.c **** 
  98:../8-LCD-TEMP-STP_Motor_IR/main.c **** 	char Float_point[6];
  99:../8-LCD-TEMP-STP_Motor_IR/main.c **** 	u8 ent_atual=1;
 100:../8-LCD-TEMP-STP_Motor_IR/main.c **** 
 101:../8-LCD-TEMP-STP_Motor_IR/main.c **** #define MAX_MENU 3
 102:../8-LCD-TEMP-STP_Motor_IR/main.c **** 
 103:../8-LCD-TEMP-STP_Motor_IR/main.c **** 	u8 RD = 0;
 104:../8-LCD-TEMP-STP_Motor_IR/main.c **** 	u32 code_ir;
 105:../8-LCD-TEMP-STP_Motor_IR/main.c **** 	char word_IR[8];
 106:../8-LCD-TEMP-STP_Motor_IR/main.c **** 
 107:../8-LCD-TEMP-STP_Motor_IR/main.c **** 	while(1){
 108:../8-LCD-TEMP-STP_Motor_IR/main.c **** // ----------- FILAS
 109:../8-LCD-TEMP-STP_Motor_IR/main.c **** 		if (xQueueReceive(LCD_Show_queue, 
 110:../8-LCD-TEMP-STP_Motor_IR/main.c **** 					&msg_buf_rev, pdMS_TO_TICKS(1)))
 111:../8-LCD-TEMP-STP_Motor_IR/main.c **** 			BUFF = msg_buf_rev;
 112:../8-LCD-TEMP-STP_Motor_IR/main.c **** 
 113:../8-LCD-TEMP-STP_Motor_IR/main.c **** 
 114:../8-LCD-TEMP-STP_Motor_IR/main.c **** 		code_ir = 0xffffff;
 115:../8-LCD-TEMP-STP_Motor_IR/main.c **** 		if (xQueuePeek(IR_Data_queue, &code_ir, 0))
 116:../8-LCD-TEMP-STP_Motor_IR/main.c **** 			itoa (code_ir, word_IR, 16);
 117:../8-LCD-TEMP-STP_Motor_IR/main.c **** 
 118:../8-LCD-TEMP-STP_Motor_IR/main.c **** // ----------- FILAS
 119:../8-LCD-TEMP-STP_Motor_IR/main.c **** 
 120:../8-LCD-TEMP-STP_Motor_IR/main.c **** 		while (RD > 12){
 121:../8-LCD-TEMP-STP_Motor_IR/main.c **** 			
 122:../8-LCD-TEMP-STP_Motor_IR/main.c **** 		RD = 0;
 123:../8-LCD-TEMP-STP_Motor_IR/main.c **** 		disp_clear();
 124:../8-LCD-TEMP-STP_Motor_IR/main.c **** 		} RD ++;
 125:../8-LCD-TEMP-STP_Motor_IR/main.c **** 
 126:../8-LCD-TEMP-STP_Motor_IR/main.c **** 
 127:../8-LCD-TEMP-STP_Motor_IR/main.c **** 
 128:../8-LCD-TEMP-STP_Motor_IR/main.c **** 		if ((GPIOB->IDR & (1<<8)) || code_ir == CR_B4){{
 129:../8-LCD-TEMP-STP_Motor_IR/main.c **** 			ent_atual ++;
 130:../8-LCD-TEMP-STP_Motor_IR/main.c **** 		}
 131:../8-LCD-TEMP-STP_Motor_IR/main.c **** 
 132:../8-LCD-TEMP-STP_Motor_IR/main.c **** 		if (ent_atual > MAX_MENU )
 133:../8-LCD-TEMP-STP_Motor_IR/main.c **** 			ent_atual = 1;
 134:../8-LCD-TEMP-STP_Motor_IR/main.c **** 		disp_clear();
 135:../8-LCD-TEMP-STP_Motor_IR/main.c **** 		}
 136:../8-LCD-TEMP-STP_Motor_IR/main.c **** 
 137:../8-LCD-TEMP-STP_Motor_IR/main.c **** 
 138:../8-LCD-TEMP-STP_Motor_IR/main.c **** 
 139:../8-LCD-TEMP-STP_Motor_IR/main.c **** 		if (ent_atual == 1 ){
 140:../8-LCD-TEMP-STP_Motor_IR/main.c **** 				disp_text("Temperatura - C", 0, 0); 
 141:../8-LCD-TEMP-STP_Motor_IR/main.c **** 
 142:../8-LCD-TEMP-STP_Motor_IR/main.c **** 				floatToString((float) BUFF * ADC_Const, Float_point, 2);
ARM GAS  /tmp/ccaJFhKP.s 			page 5


 143:../8-LCD-TEMP-STP_Motor_IR/main.c **** 				disp_text(Float_point, 1, 6);
 144:../8-LCD-TEMP-STP_Motor_IR/main.c **** 		} 
 145:../8-LCD-TEMP-STP_Motor_IR/main.c **** 		if (ent_atual == 2 ){
 146:../8-LCD-TEMP-STP_Motor_IR/main.c **** 			disp_text("----------------", 0 ,0);
 147:../8-LCD-TEMP-STP_Motor_IR/main.c **** 			disp_text("================", 1, 0);
 148:../8-LCD-TEMP-STP_Motor_IR/main.c **** 
 149:../8-LCD-TEMP-STP_Motor_IR/main.c **** 			for (u8 i=0 ; i<16 ; i++){
 150:../8-LCD-TEMP-STP_Motor_IR/main.c **** 				__delay_ms(10);
 151:../8-LCD-TEMP-STP_Motor_IR/main.c **** 				disp_text("=", 0 ,i);
 152:../8-LCD-TEMP-STP_Motor_IR/main.c **** 				disp_text("-", 1 , 15 - i);
 153:../8-LCD-TEMP-STP_Motor_IR/main.c **** 			}
 154:../8-LCD-TEMP-STP_Motor_IR/main.c **** 		}
 155:../8-LCD-TEMP-STP_Motor_IR/main.c **** 
 156:../8-LCD-TEMP-STP_Motor_IR/main.c **** 		if (ent_atual == 3 ){
 157:../8-LCD-TEMP-STP_Motor_IR/main.c **** 			disp_text("--- IR Hex Code", 0, 0); 
 158:../8-LCD-TEMP-STP_Motor_IR/main.c **** 			disp_text( word_IR, 1, 4);
 159:../8-LCD-TEMP-STP_Motor_IR/main.c **** 			__delay_ms(100);
 160:../8-LCD-TEMP-STP_Motor_IR/main.c **** 		}
 161:../8-LCD-TEMP-STP_Motor_IR/main.c **** 	}
 162:../8-LCD-TEMP-STP_Motor_IR/main.c **** }
 163:../8-LCD-TEMP-STP_Motor_IR/main.c **** 
 164:../8-LCD-TEMP-STP_Motor_IR/main.c **** static void task2(void *args __attribute ((unused))){
  87              		.loc 1 164 53 view -0
  88              		.cfi_startproc
  89              		@ Volatile: function does not return.
  90              		@ args = 0, pretend = 0, frame = 0
  91              		@ frame_needed = 0, uses_anonymous_args = 0
 165:../8-LCD-TEMP-STP_Motor_IR/main.c **** 	RCC->APB2ENR |= (1<<4); // En GPIOC
  92              		.loc 1 165 2 view .LVU1
  93              	@ ../8-LCD-TEMP-STP_Motor_IR/main.c:165: 	RCC->APB2ENR |= (1<<4); // En GPIOC
  94              		.loc 1 165 15 is_stmt 0 view .LVU2
  95 0000 094A     		ldr	r2, .L3	@ tmp120,
  96              	@ ../8-LCD-TEMP-STP_Motor_IR/main.c:164: static void task2(void *args __attribute ((unused))){
 164:../8-LCD-TEMP-STP_Motor_IR/main.c **** 	RCC->APB2ENR |= (1<<4); // En GPIOC
  97              		.loc 1 164 53 view .LVU3
  98 0002 08B5     		push	{r3, lr}	@
  99              	.LCFI0:
 100              		.cfi_def_cfa_offset 8
 101              		.cfi_offset 3, -8
 102              		.cfi_offset 14, -4
 103              	@ ../8-LCD-TEMP-STP_Motor_IR/main.c:165: 	RCC->APB2ENR |= (1<<4); // En GPIOC
 104              		.loc 1 165 15 view .LVU4
 105 0004 9369     		ldr	r3, [r2, #24]	@ _1, MEM[(struct RCC_TypeDef *)1073876992B].APB2ENR
 106              	@ ../8-LCD-TEMP-STP_Motor_IR/main.c:166: 	GPIOC->CRH	|= (0b11<< 20); // PC13 out PP 
 166:../8-LCD-TEMP-STP_Motor_IR/main.c **** 	GPIOC->CRH	|= (0b11<< 20); // PC13 out PP 
 107              		.loc 1 166 13 view .LVU5
 108 0006 094C     		ldr	r4, .L3+4	@ tmp122,
 109              	@ ../8-LCD-TEMP-STP_Motor_IR/main.c:165: 	RCC->APB2ENR |= (1<<4); // En GPIOC
 165:../8-LCD-TEMP-STP_Motor_IR/main.c **** 	RCC->APB2ENR |= (1<<4); // En GPIOC
 110              		.loc 1 165 15 view .LVU6
 111 0008 43F01003 		orr	r3, r3, #16	@ _2, _1,
 112 000c 9361     		str	r3, [r2, #24]	@ _2, MEM[(struct RCC_TypeDef *)1073876992B].APB2ENR
 113              		.loc 1 166 2 is_stmt 1 view .LVU7
 114              	@ ../8-LCD-TEMP-STP_Motor_IR/main.c:166: 	GPIOC->CRH	|= (0b11<< 20); // PC13 out PP 
 115              		.loc 1 166 13 is_stmt 0 view .LVU8
 116 000e 6368     		ldr	r3, [r4, #4]	@ _3, MEM[(struct GPIO_TypeDef *)1073811456B].CRH
 117 0010 43F44013 		orr	r3, r3, #3145728	@ _4, _3,
ARM GAS  /tmp/ccaJFhKP.s 			page 6


 118 0014 6360     		str	r3, [r4, #4]	@ _4, MEM[(struct GPIO_TypeDef *)1073811456B].CRH
 119              	.LVL1:
 120              	.L2:
 167:../8-LCD-TEMP-STP_Motor_IR/main.c **** 
 168:../8-LCD-TEMP-STP_Motor_IR/main.c **** 	while(1){
 121              		.loc 1 168 2 is_stmt 1 discriminator 1 view .LVU9
 169:../8-LCD-TEMP-STP_Motor_IR/main.c **** 		GPIOC->ODR	^= (1<<13);
 122              		.loc 1 169 3 discriminator 1 view .LVU10
 123              	@ ../8-LCD-TEMP-STP_Motor_IR/main.c:169: 		GPIOC->ODR	^= (1<<13);
 124              		.loc 1 169 14 is_stmt 0 discriminator 1 view .LVU11
 125 0016 E368     		ldr	r3, [r4, #12]	@ _5, MEM[(struct GPIO_TypeDef *)1073811456B].ODR
 126              	@ ../8-LCD-TEMP-STP_Motor_IR/main.c:170: 		__delay_ms(50);
 170:../8-LCD-TEMP-STP_Motor_IR/main.c **** 		__delay_ms(50);
 127              		.loc 1 170 3 discriminator 1 view .LVU12
 128 0018 41F28830 		movw	r0, #5000	@,
 129              	@ ../8-LCD-TEMP-STP_Motor_IR/main.c:169: 		GPIOC->ODR	^= (1<<13);
 169:../8-LCD-TEMP-STP_Motor_IR/main.c **** 		GPIOC->ODR	^= (1<<13);
 130              		.loc 1 169 14 discriminator 1 view .LVU13
 131 001c 83F40053 		eor	r3, r3, #8192	@ _6, _5,
 132 0020 E360     		str	r3, [r4, #12]	@ _6, MEM[(struct GPIO_TypeDef *)1073811456B].ODR
 133              		.loc 1 170 3 is_stmt 1 discriminator 1 view .LVU14
 134 0022 FFF7FEFF 		bl	vTaskDelay		@
 135              	.LVL2:
 168:../8-LCD-TEMP-STP_Motor_IR/main.c **** 		GPIOC->ODR	^= (1<<13);
 136              		.loc 1 168 7 discriminator 1 view .LVU15
 137 0026 F6E7     		b	.L2		@
 138              	.L4:
 139              		.align	2
 140              	.L3:
 141 0028 00100240 		.word	1073876992
 142 002c 00100140 		.word	1073811456
 143              		.cfi_endproc
 144              	.LFE52:
 145              		.size	task2, .-task2
 146              		.align	1
 147              		.syntax unified
 148              		.thumb
 149              		.thumb_func
 150              		.type	task6, %function
 151              	task6:
 152              	.LVL3:
 153              	.LFB56:
 171:../8-LCD-TEMP-STP_Motor_IR/main.c **** 	}
 172:../8-LCD-TEMP-STP_Motor_IR/main.c **** }
 173:../8-LCD-TEMP-STP_Motor_IR/main.c **** 
 174:../8-LCD-TEMP-STP_Motor_IR/main.c **** 
 175:../8-LCD-TEMP-STP_Motor_IR/main.c ****  void task3(void *args __attribute ((unused))){
 176:../8-LCD-TEMP-STP_Motor_IR/main.c **** 	/* [1---]
 177:../8-LCD-TEMP-STP_Motor_IR/main.c **** 	 *
 178:../8-LCD-TEMP-STP_Motor_IR/main.c **** 	 * Tarefa dedicada a leitura do sensor de temperatura
 179:../8-LCD-TEMP-STP_Motor_IR/main.c **** 	 * usando ADC9 -> PB1
 180:../8-LCD-TEMP-STP_Motor_IR/main.c **** 	 *
 181:../8-LCD-TEMP-STP_Motor_IR/main.c **** 	 * O valor amostrado deve ser transmitido a cada 500ms
 182:../8-LCD-TEMP-STP_Motor_IR/main.c **** 	 * usando área de memória compartilhada. -> [2---]
 183:../8-LCD-TEMP-STP_Motor_IR/main.c **** 	 *
 184:../8-LCD-TEMP-STP_Motor_IR/main.c **** 	 * */
 185:../8-LCD-TEMP-STP_Motor_IR/main.c **** 
ARM GAS  /tmp/ccaJFhKP.s 			page 7


 186:../8-LCD-TEMP-STP_Motor_IR/main.c **** 	ADC9_Configuration();
 187:../8-LCD-TEMP-STP_Motor_IR/main.c **** 	u32 Valor_ADC_normalizado; 
 188:../8-LCD-TEMP-STP_Motor_IR/main.c **** 
 189:../8-LCD-TEMP-STP_Motor_IR/main.c **** 	while(1){
 190:../8-LCD-TEMP-STP_Motor_IR/main.c **** 
 191:../8-LCD-TEMP-STP_Motor_IR/main.c **** 		Valor_ADC_normalizado = ADC2->DR;
 192:../8-LCD-TEMP-STP_Motor_IR/main.c **** 
 193:../8-LCD-TEMP-STP_Motor_IR/main.c **** 		xQueueSend(LCD_Show_queue, &Valor_ADC_normalizado, 0);
 194:../8-LCD-TEMP-STP_Motor_IR/main.c **** 		__delay_ms(500);
 195:../8-LCD-TEMP-STP_Motor_IR/main.c **** 		
 196:../8-LCD-TEMP-STP_Motor_IR/main.c **** 	}
 197:../8-LCD-TEMP-STP_Motor_IR/main.c **** }
 198:../8-LCD-TEMP-STP_Motor_IR/main.c **** 
 199:../8-LCD-TEMP-STP_Motor_IR/main.c **** static void task4(void *args __attribute ((unused))){
 200:../8-LCD-TEMP-STP_Motor_IR/main.c **** 	/* 
 201:../8-LCD-TEMP-STP_Motor_IR/main.c **** 	 * Tarefa dedicada a controlar um motor de passos usando
 202:../8-LCD-TEMP-STP_Motor_IR/main.c **** 	 * os pinos PB 15, 14, 13 e 12 
 203:../8-LCD-TEMP-STP_Motor_IR/main.c **** 	 *
 204:../8-LCD-TEMP-STP_Motor_IR/main.c **** 	 * A sequência deve ser mantida por causa da manipulação
 205:../8-LCD-TEMP-STP_Motor_IR/main.c **** 	 * bit a bit, definida no arquivo de cabeçalho Me.h
 206:../8-LCD-TEMP-STP_Motor_IR/main.c **** 	 *
 207:../8-LCD-TEMP-STP_Motor_IR/main.c **** 	 * Essa função receberá comandos da tarefa 5 -
 208:../8-LCD-TEMP-STP_Motor_IR/main.c **** 	 * decodificadora de infravermelho. 
 209:../8-LCD-TEMP-STP_Motor_IR/main.c **** 	 *
 210:../8-LCD-TEMP-STP_Motor_IR/main.c **** 	 * */
 211:../8-LCD-TEMP-STP_Motor_IR/main.c **** 
 212:../8-LCD-TEMP-STP_Motor_IR/main.c **** 	RCC->APB2ENR |= (1<<3); // En GPIOC
 213:../8-LCD-TEMP-STP_Motor_IR/main.c **** 	GPIOB->CRH	|= (0x3333<< 16); 
 214:../8-LCD-TEMP-STP_Motor_IR/main.c **** 	u32 code_ir; 
 215:../8-LCD-TEMP-STP_Motor_IR/main.c **** 
 216:../8-LCD-TEMP-STP_Motor_IR/main.c **** #define STP 6
 217:../8-LCD-TEMP-STP_Motor_IR/main.c **** 
 218:../8-LCD-TEMP-STP_Motor_IR/main.c **** 	while(1){
 219:../8-LCD-TEMP-STP_Motor_IR/main.c **** 		if (xQueueReceive(IR_Data_queue, &code_ir, 0)) {
 220:../8-LCD-TEMP-STP_Motor_IR/main.c **** 
 221:../8-LCD-TEMP-STP_Motor_IR/main.c **** 			if (code_ir == CR_B7){
 222:../8-LCD-TEMP-STP_Motor_IR/main.c **** 				for (u32 i=0 ; i<=STP *360 ; i++){
 223:../8-LCD-TEMP-STP_Motor_IR/main.c **** 					controlarMotorPasso(i);
 224:../8-LCD-TEMP-STP_Motor_IR/main.c **** 					__delay(140);
 225:../8-LCD-TEMP-STP_Motor_IR/main.c **** 				}
 226:../8-LCD-TEMP-STP_Motor_IR/main.c **** 			}
 227:../8-LCD-TEMP-STP_Motor_IR/main.c **** 			if (code_ir == CR_B8){
 228:../8-LCD-TEMP-STP_Motor_IR/main.c **** 				for (u32 i=STP  *360+90 ; i>0 ; i--){
 229:../8-LCD-TEMP-STP_Motor_IR/main.c **** 					controlarMotorPasso(i);
 230:../8-LCD-TEMP-STP_Motor_IR/main.c **** 					__delay(130);
 231:../8-LCD-TEMP-STP_Motor_IR/main.c **** 				}
 232:../8-LCD-TEMP-STP_Motor_IR/main.c **** 				
 233:../8-LCD-TEMP-STP_Motor_IR/main.c **** 			}
 234:../8-LCD-TEMP-STP_Motor_IR/main.c **** 		}
 235:../8-LCD-TEMP-STP_Motor_IR/main.c **** 	}
 236:../8-LCD-TEMP-STP_Motor_IR/main.c **** 
 237:../8-LCD-TEMP-STP_Motor_IR/main.c **** }
 238:../8-LCD-TEMP-STP_Motor_IR/main.c **** 
 239:../8-LCD-TEMP-STP_Motor_IR/main.c **** static void task5(void *args __attribute ((unused))){
 240:../8-LCD-TEMP-STP_Motor_IR/main.c **** 
 241:../8-LCD-TEMP-STP_Motor_IR/main.c **** 	/*
 242:../8-LCD-TEMP-STP_Motor_IR/main.c **** 	 * Tarefa responsável por decodificar dados recebido por
ARM GAS  /tmp/ccaJFhKP.s 			page 8


 243:../8-LCD-TEMP-STP_Motor_IR/main.c **** 	 * um sensor IR, localizado em:
 244:../8-LCD-TEMP-STP_Motor_IR/main.c **** 	 *		 PB6 
 245:../8-LCD-TEMP-STP_Motor_IR/main.c **** 	 *
 246:../8-LCD-TEMP-STP_Motor_IR/main.c **** 	 * Essa função enviará também, comandos para o display de
 247:../8-LCD-TEMP-STP_Motor_IR/main.c **** 	 * forma secundária, usando o 
 248:../8-LCD-TEMP-STP_Motor_IR/main.c **** 	 *		xQueuePeek para inspecionar a fila sem remover os
 249:../8-LCD-TEMP-STP_Motor_IR/main.c **** 	 *		dados
 250:../8-LCD-TEMP-STP_Motor_IR/main.c **** 	 * */
 251:../8-LCD-TEMP-STP_Motor_IR/main.c **** 
 252:../8-LCD-TEMP-STP_Motor_IR/main.c **** 	USART_init();
 253:../8-LCD-TEMP-STP_Motor_IR/main.c **** 	IR_Init();
 254:../8-LCD-TEMP-STP_Motor_IR/main.c **** 	char word_IR[8];
 255:../8-LCD-TEMP-STP_Motor_IR/main.c **** 	// char word_IR[8];
 256:../8-LCD-TEMP-STP_Motor_IR/main.c **** 	u32 code_ir;
 257:../8-LCD-TEMP-STP_Motor_IR/main.c **** 
 258:../8-LCD-TEMP-STP_Motor_IR/main.c **** 	while(1){
 259:../8-LCD-TEMP-STP_Motor_IR/main.c **** 		code_ir = 0xFFFFFFFF;
 260:../8-LCD-TEMP-STP_Motor_IR/main.c **** 		code_ir = IR_Read();
 261:../8-LCD-TEMP-STP_Motor_IR/main.c **** 		
 262:../8-LCD-TEMP-STP_Motor_IR/main.c **** 		// Converte os dados numéricos para string
 263:../8-LCD-TEMP-STP_Motor_IR/main.c **** 		// itoa (code_ir, word_IR, 10); 
 264:../8-LCD-TEMP-STP_Motor_IR/main.c **** 
 265:../8-LCD-TEMP-STP_Motor_IR/main.c **** 		if (code_ir != 0xffffffff){
 266:../8-LCD-TEMP-STP_Motor_IR/main.c **** 
 267:../8-LCD-TEMP-STP_Motor_IR/main.c **** 			USARTSend("\r\nCodigo: 0x");
 268:../8-LCD-TEMP-STP_Motor_IR/main.c **** 			itoa (code_ir, word_IR, 16);
 269:../8-LCD-TEMP-STP_Motor_IR/main.c **** 			USARTSend(word_IR);
 270:../8-LCD-TEMP-STP_Motor_IR/main.c **** 			
 271:../8-LCD-TEMP-STP_Motor_IR/main.c **** 			if (code_ir == CR_B7 || code_ir == CR_B8)
 272:../8-LCD-TEMP-STP_Motor_IR/main.c **** 				xQueueOverwrite(IR_Data_queue, &code_ir);
 273:../8-LCD-TEMP-STP_Motor_IR/main.c **** 
 274:../8-LCD-TEMP-STP_Motor_IR/main.c **** 			if (code_ir == CR_NUM_4 || code_ir == CR_NUM_1)
 275:../8-LCD-TEMP-STP_Motor_IR/main.c **** 				xQueueOverwrite(PWM_data_queue, &code_ir);
 276:../8-LCD-TEMP-STP_Motor_IR/main.c **** 				//xQueueOverwrite(IR_Data_queue, &code_ir);
 277:../8-LCD-TEMP-STP_Motor_IR/main.c **** 		}
 278:../8-LCD-TEMP-STP_Motor_IR/main.c **** 	}
 279:../8-LCD-TEMP-STP_Motor_IR/main.c **** }
 280:../8-LCD-TEMP-STP_Motor_IR/main.c **** 
 281:../8-LCD-TEMP-STP_Motor_IR/main.c **** static void task6(void *args __attribute((unused))) {
 154              		.loc 1 281 53 view -0
 155              		.cfi_startproc
 156              		@ args = 0, pretend = 0, frame = 8
 157              		@ frame_needed = 0, uses_anonymous_args = 0
 282:../8-LCD-TEMP-STP_Motor_IR/main.c **** 	// configure_PWM_TIM2();
 283:../8-LCD-TEMP-STP_Motor_IR/main.c ****    GPIOB->CRH &= ~(0xf << 8 ); // ip analogico PA10
 158              		.loc 1 283 4 view .LVU17
 159              	@ ../8-LCD-TEMP-STP_Motor_IR/main.c:281: static void task6(void *args __attribute((unused))) {
 281:../8-LCD-TEMP-STP_Motor_IR/main.c **** 	// configure_PWM_TIM2();
 160              		.loc 1 281 53 is_stmt 0 view .LVU18
 161 0030 F7B5     		push	{r0, r1, r2, r4, r5, r6, r7, lr}	@
 162              	.LCFI1:
 163              		.cfi_def_cfa_offset 32
 164              		.cfi_offset 4, -20
 165              		.cfi_offset 5, -16
 166              		.cfi_offset 6, -12
 167              		.cfi_offset 7, -8
 168              		.cfi_offset 14, -4
ARM GAS  /tmp/ccaJFhKP.s 			page 9


 169              	@ ../8-LCD-TEMP-STP_Motor_IR/main.c:283:    GPIOB->CRH &= ~(0xf << 8 ); // ip analogico PA10
 170              		.loc 1 283 15 view .LVU19
 171 0032 124A     		ldr	r2, .L14	@ tmp120,
 172              	@ ../8-LCD-TEMP-STP_Motor_IR/main.c:287:    u16 cicle_duty = 0xfff /2; 
 284:../8-LCD-TEMP-STP_Motor_IR/main.c **** 
 285:../8-LCD-TEMP-STP_Motor_IR/main.c **** 	u32 code_ir = 0x0; 
 286:../8-LCD-TEMP-STP_Motor_IR/main.c **** 
 287:../8-LCD-TEMP-STP_Motor_IR/main.c ****    u16 cicle_duty = 0xfff /2; 
 173              		.loc 1 287 8 view .LVU20
 174 0034 40F2FF74 		movw	r4, #2047	@ cicle_duty,
 175              	@ ../8-LCD-TEMP-STP_Motor_IR/main.c:283:    GPIOB->CRH &= ~(0xf << 8 ); // ip analogico PA10
 283:../8-LCD-TEMP-STP_Motor_IR/main.c **** 
 176              		.loc 1 283 15 view .LVU21
 177 0038 5368     		ldr	r3, [r2, #4]	@ _1, MEM[(struct GPIO_TypeDef *)1073810432B].CRH
 178              	@ ../8-LCD-TEMP-STP_Motor_IR/main.c:291: 		if ( xQueueReceive(PWM_data_queue, &code_ir, 0)) {
 288:../8-LCD-TEMP-STP_Motor_IR/main.c **** 		// TIM2->CCR1 = vpwm; 
 289:../8-LCD-TEMP-STP_Motor_IR/main.c **** 
 290:../8-LCD-TEMP-STP_Motor_IR/main.c ****    while(1){
 291:../8-LCD-TEMP-STP_Motor_IR/main.c **** 		if ( xQueueReceive(PWM_data_queue, &code_ir, 0)) {
 179              		.loc 1 291 8 view .LVU22
 180 003a 114D     		ldr	r5, .L14+4	@ tmp124,
 181              	@ ../8-LCD-TEMP-STP_Motor_IR/main.c:283:    GPIOB->CRH &= ~(0xf << 8 ); // ip analogico PA10
 283:../8-LCD-TEMP-STP_Motor_IR/main.c **** 
 182              		.loc 1 283 15 view .LVU23
 183 003c 23F47063 		bic	r3, r3, #3840	@ _2, _1,
 184 0040 5360     		str	r3, [r2, #4]	@ _2, MEM[(struct GPIO_TypeDef *)1073810432B].CRH
 285:../8-LCD-TEMP-STP_Motor_IR/main.c **** 
 185              		.loc 1 285 2 is_stmt 1 view .LVU24
 186              	@ ../8-LCD-TEMP-STP_Motor_IR/main.c:285: 	u32 code_ir = 0x0; 
 285:../8-LCD-TEMP-STP_Motor_IR/main.c **** 
 187              		.loc 1 285 6 is_stmt 0 view .LVU25
 188 0042 0023     		movs	r3, #0	@ tmp122,
 189              	@ ../8-LCD-TEMP-STP_Motor_IR/main.c:293: 			if( code_ir == CR_NUM_4)
 292:../8-LCD-TEMP-STP_Motor_IR/main.c **** 
 293:../8-LCD-TEMP-STP_Motor_IR/main.c **** 			if( code_ir == CR_NUM_4)
 190              		.loc 1 293 6 view .LVU26
 191 0044 0F4E     		ldr	r6, .L14+8	@ tmp134,
 192              	@ ../8-LCD-TEMP-STP_Motor_IR/main.c:296: 			if( code_ir == CR_NUM_1)
 294:../8-LCD-TEMP-STP_Motor_IR/main.c **** 				 cicle_duty +=3;
 295:../8-LCD-TEMP-STP_Motor_IR/main.c **** 
 296:../8-LCD-TEMP-STP_Motor_IR/main.c **** 			if( code_ir == CR_NUM_1)
 193              		.loc 1 296 6 view .LVU27
 194 0046 104F     		ldr	r7, .L14+12	@ tmp135,
 195              	@ ../8-LCD-TEMP-STP_Motor_IR/main.c:285: 	u32 code_ir = 0x0; 
 285:../8-LCD-TEMP-STP_Motor_IR/main.c **** 
 196              		.loc 1 285 6 view .LVU28
 197 0048 0193     		str	r3, [sp, #4]	@ tmp122, code_ir
 287:../8-LCD-TEMP-STP_Motor_IR/main.c **** 		// TIM2->CCR1 = vpwm; 
 198              		.loc 1 287 4 is_stmt 1 view .LVU29
 199              	.LVL4:
 200              	.L9:
 290:../8-LCD-TEMP-STP_Motor_IR/main.c **** 		if ( xQueueReceive(PWM_data_queue, &code_ir, 0)) {
 201              		.loc 1 290 4 view .LVU30
 291:../8-LCD-TEMP-STP_Motor_IR/main.c **** 
 202              		.loc 1 291 3 view .LVU31
 203              	@ ../8-LCD-TEMP-STP_Motor_IR/main.c:291: 		if ( xQueueReceive(PWM_data_queue, &code_ir, 0)) {
 291:../8-LCD-TEMP-STP_Motor_IR/main.c **** 
ARM GAS  /tmp/ccaJFhKP.s 			page 10


 204              		.loc 1 291 8 is_stmt 0 view .LVU32
 205 004a 0022     		movs	r2, #0	@,
 206 004c 2868     		ldr	r0, [r5]	@, PWM_data_queue
 207 004e 01A9     		add	r1, sp, #4	@,,
 208 0050 FFF7FEFF 		bl	xQueueReceive		@
 209              	.LVL5:
 210              	@ ../8-LCD-TEMP-STP_Motor_IR/main.c:291: 		if ( xQueueReceive(PWM_data_queue, &code_ir, 0)) {
 291:../8-LCD-TEMP-STP_Motor_IR/main.c **** 
 211              		.loc 1 291 6 view .LVU33
 212 0054 48B1     		cbz	r0, .L6	@ tmp136,
 293:../8-LCD-TEMP-STP_Motor_IR/main.c **** 				 cicle_duty +=3;
 213              		.loc 1 293 4 is_stmt 1 view .LVU34
 214              	@ ../8-LCD-TEMP-STP_Motor_IR/main.c:293: 			if( code_ir == CR_NUM_4)
 293:../8-LCD-TEMP-STP_Motor_IR/main.c **** 				 cicle_duty +=3;
 215              		.loc 1 293 16 is_stmt 0 view .LVU35
 216 0056 019B     		ldr	r3, [sp, #4]	@ code_ir.14_5, code_ir
 217              	@ ../8-LCD-TEMP-STP_Motor_IR/main.c:293: 			if( code_ir == CR_NUM_4)
 293:../8-LCD-TEMP-STP_Motor_IR/main.c **** 				 cicle_duty +=3;
 218              		.loc 1 293 6 view .LVU36
 219 0058 B342     		cmp	r3, r6	@ code_ir.14_5, tmp134
 220 005a 0AD1     		bne	.L7		@,
 294:../8-LCD-TEMP-STP_Motor_IR/main.c **** 
 221              		.loc 1 294 6 is_stmt 1 view .LVU37
 222              	@ ../8-LCD-TEMP-STP_Motor_IR/main.c:294: 				 cicle_duty +=3;
 294:../8-LCD-TEMP-STP_Motor_IR/main.c **** 
 223              		.loc 1 294 17 is_stmt 0 view .LVU38
 224 005c 0334     		adds	r4, r4, #3	@ tmp126, cicle_duty,
 225              	.LVL6:
 226              	.L13:
 227              	@ ../8-LCD-TEMP-STP_Motor_IR/main.c:297: 				 cicle_duty -=3;
 297:../8-LCD-TEMP-STP_Motor_IR/main.c **** 				 cicle_duty -=3;
 228              		.loc 1 297 17 view .LVU39
 229 005e A4B2     		uxth	r4, r4	@ cicle_duty, tmp128
 230              	.LVL7:
 231              	.L8:
 298:../8-LCD-TEMP-STP_Motor_IR/main.c **** 
 299:../8-LCD-TEMP-STP_Motor_IR/main.c **** 			if(cicle_duty >= 0xfff)
 232              		.loc 1 299 4 is_stmt 1 view .LVU40
 233              	@ ../8-LCD-TEMP-STP_Motor_IR/main.c:300: 				cicle_duty = 0;
 300:../8-LCD-TEMP-STP_Motor_IR/main.c **** 				cicle_duty = 0;
 234              		.loc 1 300 16 is_stmt 0 view .LVU41
 235 0060 40F6FE73 		movw	r3, #4094	@ tmp131,
 236 0064 9C42     		cmp	r4, r3	@ cicle_duty, tmp131
 237 0066 88BF     		it	hi		@
 238 0068 0024     		movhi	r4, #0	@, cicle_duty,
 239              	.LVL8:
 240              	.L6:
 301:../8-LCD-TEMP-STP_Motor_IR/main.c **** 		}
 302:../8-LCD-TEMP-STP_Motor_IR/main.c **** 
 303:../8-LCD-TEMP-STP_Motor_IR/main.c ****       
 304:../8-LCD-TEMP-STP_Motor_IR/main.c ****       TIM2->CCR1 = cicle_duty; 
 241              		.loc 1 304 7 is_stmt 1 view .LVU42
 242              	@ ../8-LCD-TEMP-STP_Motor_IR/main.c:304:       TIM2->CCR1 = cicle_duty; 
 243              		.loc 1 304 18 is_stmt 0 view .LVU43
 244 006a 4FF08043 		mov	r3, #1073741824	@ tmp132,
 245 006e 9C86     		strh	r4, [r3, #52]	@ movhi	@ cicle_duty, MEM[(struct TIM_TypeDef *)1073741824B].CCR1
 290:../8-LCD-TEMP-STP_Motor_IR/main.c **** 		if ( xQueueReceive(PWM_data_queue, &code_ir, 0)) {
ARM GAS  /tmp/ccaJFhKP.s 			page 11


 246              		.loc 1 290 9 is_stmt 1 view .LVU44
 247              	@ ../8-LCD-TEMP-STP_Motor_IR/main.c:291: 		if ( xQueueReceive(PWM_data_queue, &code_ir, 0)) {
 291:../8-LCD-TEMP-STP_Motor_IR/main.c **** 
 248              		.loc 1 291 6 is_stmt 0 view .LVU45
 249 0070 EBE7     		b	.L9		@
 250              	.L7:
 296:../8-LCD-TEMP-STP_Motor_IR/main.c **** 				 cicle_duty -=3;
 251              		.loc 1 296 4 is_stmt 1 view .LVU46
 252              	@ ../8-LCD-TEMP-STP_Motor_IR/main.c:296: 			if( code_ir == CR_NUM_1)
 296:../8-LCD-TEMP-STP_Motor_IR/main.c **** 				 cicle_duty -=3;
 253              		.loc 1 296 6 is_stmt 0 view .LVU47
 254 0072 BB42     		cmp	r3, r7	@ code_ir.14_5, tmp135
 255 0074 F4D1     		bne	.L8		@,
 297:../8-LCD-TEMP-STP_Motor_IR/main.c **** 
 256              		.loc 1 297 6 is_stmt 1 view .LVU48
 257              	@ ../8-LCD-TEMP-STP_Motor_IR/main.c:297: 				 cicle_duty -=3;
 297:../8-LCD-TEMP-STP_Motor_IR/main.c **** 
 258              		.loc 1 297 17 is_stmt 0 view .LVU49
 259 0076 033C     		subs	r4, r4, #3	@ tmp128, cicle_duty,
 260              	.LVL9:
 297:../8-LCD-TEMP-STP_Motor_IR/main.c **** 
 261              		.loc 1 297 17 view .LVU50
 262 0078 F1E7     		b	.L13		@
 263              	.L15:
 264 007a 00BF     		.align	2
 265              	.L14:
 266 007c 000C0140 		.word	1073810432
 267 0080 00000000 		.word	.LANCHOR0
 268 0084 F9FAE7FF 		.word	-1574151
 269 0088 B9FBE7FF 		.word	-1573959
 270              		.cfi_endproc
 271              	.LFE56:
 272              		.size	task6, .-task6
 273              		.align	1
 274              		.global	configure_PWM_TIM2
 275              		.syntax unified
 276              		.thumb
 277              		.thumb_func
 278              		.type	configure_PWM_TIM2, %function
 279              	configure_PWM_TIM2:
 280              	.LFB34:
 281              		.file 2 "../8-LCD-TEMP-STP_Motor_IR/Me.h"
   1:../8-LCD-TEMP-STP_Motor_IR/Me.h **** #include <math.h>
   2:../8-LCD-TEMP-STP_Motor_IR/Me.h **** #define __IO volatile
   3:../8-LCD-TEMP-STP_Motor_IR/Me.h **** 
   4:../8-LCD-TEMP-STP_Motor_IR/Me.h **** void SystemInit (void);
   5:../8-LCD-TEMP-STP_Motor_IR/Me.h **** void nvic_IntDisble(u8 IRQn);
   6:../8-LCD-TEMP-STP_Motor_IR/Me.h **** void nvic_intEnable(u8 IRQn);
   7:../8-LCD-TEMP-STP_Motor_IR/Me.h **** void set_system_clock_to_25Mhz (void);
   8:../8-LCD-TEMP-STP_Motor_IR/Me.h **** void set_system_clock_to_72Mhz(void);
   9:../8-LCD-TEMP-STP_Motor_IR/Me.h **** void Delay ( __IO u32 T );
  10:../8-LCD-TEMP-STP_Motor_IR/Me.h **** void enable_TIM3_delay (void);
  11:../8-LCD-TEMP-STP_Motor_IR/Me.h **** void ADC1_configure();
  12:../8-LCD-TEMP-STP_Motor_IR/Me.h **** 
  13:../8-LCD-TEMP-STP_Motor_IR/Me.h **** void configure_PWM_TIM2(){
 282              		.loc 2 13 26 is_stmt 1 view -0
 283              		.cfi_startproc
ARM GAS  /tmp/ccaJFhKP.s 			page 12


 284              		@ args = 0, pretend = 0, frame = 0
 285              		@ frame_needed = 0, uses_anonymous_args = 0
 286              		@ link register save eliminated.
  14:../8-LCD-TEMP-STP_Motor_IR/Me.h **** /* Configurado com o exemplo do datasheet pag "387 / 1136" */
  15:../8-LCD-TEMP-STP_Motor_IR/Me.h **** 
  16:../8-LCD-TEMP-STP_Motor_IR/Me.h ****    RCC->APB2ENR |= 0b101 << 0 ; /*Habilita o AFIO GPIOA */
 287              		.loc 2 16 4 view .LVU52
 288              	@ ../8-LCD-TEMP-STP_Motor_IR/Me.h:16:    RCC->APB2ENR |= 0b101 << 0 ; /*Habilita o AFIO GPIOA */
 289              		.loc 2 16 17 is_stmt 0 view .LVU53
 290 008c 284B     		ldr	r3, .L17	@ tmp141,
 291 008e 9A69     		ldr	r2, [r3, #24]	@ _1, MEM[(struct RCC_TypeDef *)1073876992B].APB2ENR
 292 0090 42F00502 		orr	r2, r2, #5	@ _2, _1,
 293 0094 9A61     		str	r2, [r3, #24]	@ _2, MEM[(struct RCC_TypeDef *)1073876992B].APB2ENR
  17:../8-LCD-TEMP-STP_Motor_IR/Me.h ****    RCC->APB1ENR |= 1 << 0; /*Habilita o TIMER 2 - CH na GPIO_A */
 294              		.loc 2 17 4 is_stmt 1 view .LVU54
 295              	@ ../8-LCD-TEMP-STP_Motor_IR/Me.h:17:    RCC->APB1ENR |= 1 << 0; /*Habilita o TIMER 2 - CH na GPIO_
 296              		.loc 2 17 17 is_stmt 0 view .LVU55
 297 0096 DA69     		ldr	r2, [r3, #28]	@ _3, MEM[(struct RCC_TypeDef *)1073876992B].APB1ENR
 298 0098 42F00102 		orr	r2, r2, #1	@ _4, _3,
 299 009c DA61     		str	r2, [r3, #28]	@ _4, MEM[(struct RCC_TypeDef *)1073876992B].APB1ENR
  18:../8-LCD-TEMP-STP_Motor_IR/Me.h **** 
  19:../8-LCD-TEMP-STP_Motor_IR/Me.h ****    GPIOA->CRL |= (0x0B << 0) ; /* AF O_PP pino PA0 */
 300              		.loc 2 19 4 is_stmt 1 view .LVU56
 301              	@ ../8-LCD-TEMP-STP_Motor_IR/Me.h:19:    GPIOA->CRL |= (0x0B << 0) ; /* AF O_PP pino PA0 */
 302              		.loc 2 19 15 is_stmt 0 view .LVU57
 303 009e 254A     		ldr	r2, .L17+4	@ tmp145,
 304 00a0 1368     		ldr	r3, [r2]	@ _5, MEM[(struct GPIO_TypeDef *)1073809408B].CRL
 305 00a2 43F00B03 		orr	r3, r3, #11	@ _6, _5,
 306 00a6 1360     		str	r3, [r2]	@ _6, MEM[(struct GPIO_TypeDef *)1073809408B].CRL
  20:../8-LCD-TEMP-STP_Motor_IR/Me.h **** 	AFIO->MAPR &= ~( 0b11 << 6);
 307              		.loc 2 20 2 is_stmt 1 view .LVU58
 308              	@ ../8-LCD-TEMP-STP_Motor_IR/Me.h:20: 	AFIO->MAPR &= ~( 0b11 << 6);
 309              		.loc 2 20 13 is_stmt 0 view .LVU59
 310 00a8 234B     		ldr	r3, .L17+8	@ tmp147,
 311 00aa 5A68     		ldr	r2, [r3, #4]	@ _7, MEM[(struct AFIO_TypeDef *)1073807360B].MAPR
 312 00ac 22F0C002 		bic	r2, r2, #192	@ _8, _7,
 313 00b0 5A60     		str	r2, [r3, #4]	@ _8, MEM[(struct AFIO_TypeDef *)1073807360B].MAPR
  21:../8-LCD-TEMP-STP_Motor_IR/Me.h ****    AFIO->MAPR &= ~( 0b11 << 8); /* [bit 26:24] SWJ_CFG [nota_2]
 314              		.loc 2 21 4 is_stmt 1 view .LVU60
 315              	@ ../8-LCD-TEMP-STP_Motor_IR/Me.h:21:    AFIO->MAPR &= ~( 0b11 << 8); /* [bit 26:24] SWJ_CFG [nota_
 316              		.loc 2 21 15 is_stmt 0 view .LVU61
 317 00b2 5A68     		ldr	r2, [r3, #4]	@ _9, MEM[(struct AFIO_TypeDef *)1073807360B].MAPR
 318 00b4 22F44072 		bic	r2, r2, #768	@ _10, _9,
 319 00b8 5A60     		str	r2, [r3, #4]	@ _10, MEM[(struct AFIO_TypeDef *)1073807360B].MAPR
  22:../8-LCD-TEMP-STP_Motor_IR/Me.h ****                  [bit 8] TIM3_REMAP[1:0]: TIM2 remapping [nota_3]*/ 
  23:../8-LCD-TEMP-STP_Motor_IR/Me.h **** 
  24:../8-LCD-TEMP-STP_Motor_IR/Me.h **** 	TIM2->CCMR1 |= 0b110 << 4; /*Bits 6:4 OC1M: Output compare 1 mode
 320              		.loc 2 24 2 is_stmt 1 view .LVU62
 321              	@ ../8-LCD-TEMP-STP_Motor_IR/Me.h:24: 	TIM2->CCMR1 |= 0b110 << 4; /*Bits 6:4 OC1M: Output compare 1
 322              		.loc 2 24 14 is_stmt 0 view .LVU63
 323 00ba 4FF08043 		mov	r3, #1073741824	@ tmp151,
 324 00be 1A8B     		ldrh	r2, [r3, #24]	@, MEM[(struct TIM_TypeDef *)1073741824B].CCMR1
 325 00c0 92B2     		uxth	r2, r2	@ _11, MEM[(struct TIM_TypeDef *)1073741824B].CCMR1
 326 00c2 42F06002 		orr	r2, r2, #96	@ _12, _11,
 327 00c6 1A83     		strh	r2, [r3, #24]	@ movhi	@ _12, MEM[(struct TIM_TypeDef *)1073741824B].CCMR1
  25:../8-LCD-TEMP-STP_Motor_IR/Me.h ****                                   110: PWM mode 1 */
  26:../8-LCD-TEMP-STP_Motor_IR/Me.h ****    TIM2->CCMR1 |= 1UL << 3; /* Bit 3 OC1PE: Output compare 1 preload enable**/
ARM GAS  /tmp/ccaJFhKP.s 			page 13


 328              		.loc 2 26 4 is_stmt 1 view .LVU64
 329              	@ ../8-LCD-TEMP-STP_Motor_IR/Me.h:26:    TIM2->CCMR1 |= 1UL << 3; /* Bit 3 OC1PE: Output compare 1 
 330              		.loc 2 26 16 is_stmt 0 view .LVU65
 331 00c8 1A8B     		ldrh	r2, [r3, #24]	@, MEM[(struct TIM_TypeDef *)1073741824B].CCMR1
 332 00ca 92B2     		uxth	r2, r2	@ _13, MEM[(struct TIM_TypeDef *)1073741824B].CCMR1
 333 00cc 42F00802 		orr	r2, r2, #8	@ _14, _13,
 334 00d0 1A83     		strh	r2, [r3, #24]	@ movhi	@ _14, MEM[(struct TIM_TypeDef *)1073741824B].CCMR1
  27:../8-LCD-TEMP-STP_Motor_IR/Me.h **** 
  28:../8-LCD-TEMP-STP_Motor_IR/Me.h **** 
  29:../8-LCD-TEMP-STP_Motor_IR/Me.h ****    TIM2->PSC = 709; /* 249;  25/250 - 1 => 0.1KHz  */
 335              		.loc 2 29 4 is_stmt 1 view .LVU66
 336              	@ ../8-LCD-TEMP-STP_Motor_IR/Me.h:29:    TIM2->PSC = 709; /* 249;  25/250 - 1 => 0.1KHz  */
 337              		.loc 2 29 14 is_stmt 0 view .LVU67
 338 00d2 40F2C522 		movw	r2, #709	@ tmp165,
 339 00d6 1A85     		strh	r2, [r3, #40]	@ movhi	@ tmp165, MEM[(struct TIM_TypeDef *)1073741824B].PSC
  30:../8-LCD-TEMP-STP_Motor_IR/Me.h ****    TIM2->ARR = 999; /* PWM period = (999 + 1) * 100KHz = 0.01 */
 340              		.loc 2 30 4 is_stmt 1 view .LVU68
 341              	@ ../8-LCD-TEMP-STP_Motor_IR/Me.h:30:    TIM2->ARR = 999; /* PWM period = (999 + 1) * 100KHz = 0.01
 342              		.loc 2 30 14 is_stmt 0 view .LVU69
 343 00d8 40F2E732 		movw	r2, #999	@ tmp168,
 344 00dc 9A85     		strh	r2, [r3, #44]	@ movhi	@ tmp168, MEM[(struct TIM_TypeDef *)1073741824B].ARR
  31:../8-LCD-TEMP-STP_Motor_IR/Me.h ****    TIM2->CR1 &= ~(1<<4);
 345              		.loc 2 31 4 is_stmt 1 view .LVU70
 346              	@ ../8-LCD-TEMP-STP_Motor_IR/Me.h:31:    TIM2->CR1 &= ~(1<<4);
 347              		.loc 2 31 14 is_stmt 0 view .LVU71
 348 00de 1A88     		ldrh	r2, [r3]	@, MEM[(struct TIM_TypeDef *)1073741824B].CR1
 349 00e0 22F01002 		bic	r2, r2, #16	@ _16, MEM[(struct TIM_TypeDef *)1073741824B].CR1,
 350 00e4 1204     		lsls	r2, r2, #16	@ _16, _16,
 351 00e6 120C     		lsrs	r2, r2, #16	@ _16, _16,
 352 00e8 1A80     		strh	r2, [r3]	@ movhi	@ _16, MEM[(struct TIM_TypeDef *)1073741824B].CR1
  32:../8-LCD-TEMP-STP_Motor_IR/Me.h ****    TIM2->CR1 |= 1<<7;/*Bit 7 ARPE: Auto-reload preload enable */
 353              		.loc 2 32 4 is_stmt 1 view .LVU72
 354              	@ ../8-LCD-TEMP-STP_Motor_IR/Me.h:32:    TIM2->CR1 |= 1<<7;/*Bit 7 ARPE: Auto-reload preload enable
 355              		.loc 2 32 14 is_stmt 0 view .LVU73
 356 00ea 1A88     		ldrh	r2, [r3]	@, MEM[(struct TIM_TypeDef *)1073741824B].CR1
 357 00ec 92B2     		uxth	r2, r2	@ _17, MEM[(struct TIM_TypeDef *)1073741824B].CR1
 358 00ee 42F08002 		orr	r2, r2, #128	@ _18, _17,
 359 00f2 1A80     		strh	r2, [r3]	@ movhi	@ _18, MEM[(struct TIM_TypeDef *)1073741824B].CR1
  33:../8-LCD-TEMP-STP_Motor_IR/Me.h ****    TIM2->CCMR1 |= 1UL << 3; /* Bit 3 OC1PE: Output compare 1 preload enable - ---- CONSEGUIIIIIII *
 360              		.loc 2 33 4 is_stmt 1 view .LVU74
 361              	@ ../8-LCD-TEMP-STP_Motor_IR/Me.h:33:    TIM2->CCMR1 |= 1UL << 3; /* Bit 3 OC1PE: Output compare 1 
 362              		.loc 2 33 16 is_stmt 0 view .LVU75
 363 00f4 1A8B     		ldrh	r2, [r3, #24]	@, MEM[(struct TIM_TypeDef *)1073741824B].CCMR1
 364 00f6 92B2     		uxth	r2, r2	@ _19, MEM[(struct TIM_TypeDef *)1073741824B].CCMR1
 365 00f8 42F00802 		orr	r2, r2, #8	@ _20, _19,
 366 00fc 1A83     		strh	r2, [r3, #24]	@ movhi	@ _20, MEM[(struct TIM_TypeDef *)1073741824B].CCMR1
  34:../8-LCD-TEMP-STP_Motor_IR/Me.h ****    TIM2->EGR |=1<<0;
 367              		.loc 2 34 4 is_stmt 1 view .LVU76
 368              	@ ../8-LCD-TEMP-STP_Motor_IR/Me.h:34:    TIM2->EGR |=1<<0;
 369              		.loc 2 34 14 is_stmt 0 view .LVU77
 370 00fe 9A8A     		ldrh	r2, [r3, #20]	@, MEM[(struct TIM_TypeDef *)1073741824B].EGR
 371 0100 92B2     		uxth	r2, r2	@ _21, MEM[(struct TIM_TypeDef *)1073741824B].EGR
 372 0102 42F00102 		orr	r2, r2, #1	@ _22, _21,
 373 0106 9A82     		strh	r2, [r3, #20]	@ movhi	@ _22, MEM[(struct TIM_TypeDef *)1073741824B].EGR
  35:../8-LCD-TEMP-STP_Motor_IR/Me.h **** 
  36:../8-LCD-TEMP-STP_Motor_IR/Me.h ****    TIM2->CCER |= 1<<0; /*Bit 0 CC1E: Capture/Compare 1 output enable*/
 374              		.loc 2 36 4 is_stmt 1 view .LVU78
ARM GAS  /tmp/ccaJFhKP.s 			page 14


 375              	@ ../8-LCD-TEMP-STP_Motor_IR/Me.h:36:    TIM2->CCER |= 1<<0; /*Bit 0 CC1E: Capture/Compare 1 output
 376              		.loc 2 36 15 is_stmt 0 view .LVU79
 377 0108 1A8C     		ldrh	r2, [r3, #32]	@, MEM[(struct TIM_TypeDef *)1073741824B].CCER
 378 010a 92B2     		uxth	r2, r2	@ _23, MEM[(struct TIM_TypeDef *)1073741824B].CCER
 379 010c 42F00102 		orr	r2, r2, #1	@ _24, _23,
 380 0110 1A84     		strh	r2, [r3, #32]	@ movhi	@ _24, MEM[(struct TIM_TypeDef *)1073741824B].CCER
  37:../8-LCD-TEMP-STP_Motor_IR/Me.h ****    TIM2->CCER &= ~(1<<1); /*Bit 1 CC1P: Capture/Compare 1 output polarity
 381              		.loc 2 37 4 is_stmt 1 view .LVU80
 382              	@ ../8-LCD-TEMP-STP_Motor_IR/Me.h:37:    TIM2->CCER &= ~(1<<1); /*Bit 1 CC1P: Capture/Compare 1 out
 383              		.loc 2 37 15 is_stmt 0 view .LVU81
 384 0112 1A8C     		ldrh	r2, [r3, #32]	@, MEM[(struct TIM_TypeDef *)1073741824B].CCER
 385 0114 22F00202 		bic	r2, r2, #2	@ _26, MEM[(struct TIM_TypeDef *)1073741824B].CCER,
 386 0118 1204     		lsls	r2, r2, #16	@ _26, _26,
 387 011a 120C     		lsrs	r2, r2, #16	@ _26, _26,
 388 011c 1A84     		strh	r2, [r3, #32]	@ movhi	@ _26, MEM[(struct TIM_TypeDef *)1073741824B].CCER
  38:../8-LCD-TEMP-STP_Motor_IR/Me.h ****                             0: OC1 active high. */
  39:../8-LCD-TEMP-STP_Motor_IR/Me.h **** 
  40:../8-LCD-TEMP-STP_Motor_IR/Me.h ****    TIM2->CR1 |= 1<<0; //Habilita o clock
 389              		.loc 2 40 4 is_stmt 1 view .LVU82
 390              	@ ../8-LCD-TEMP-STP_Motor_IR/Me.h:40:    TIM2->CR1 |= 1<<0; //Habilita o clock
 391              		.loc 2 40 14 is_stmt 0 view .LVU83
 392 011e 1A88     		ldrh	r2, [r3]	@, MEM[(struct TIM_TypeDef *)1073741824B].CR1
 393 0120 92B2     		uxth	r2, r2	@ _27, MEM[(struct TIM_TypeDef *)1073741824B].CR1
 394 0122 42F00102 		orr	r2, r2, #1	@ _28, _27,
 395 0126 1A80     		strh	r2, [r3]	@ movhi	@ _28, MEM[(struct TIM_TypeDef *)1073741824B].CR1
  41:../8-LCD-TEMP-STP_Motor_IR/Me.h ****    TIM2->CCR1 = 00;
 396              		.loc 2 41 4 is_stmt 1 view .LVU84
 397              	@ ../8-LCD-TEMP-STP_Motor_IR/Me.h:41:    TIM2->CCR1 = 00;
 398              		.loc 2 41 15 is_stmt 0 view .LVU85
 399 0128 0022     		movs	r2, #0	@ tmp210,
 400 012a 9A86     		strh	r2, [r3, #52]	@ movhi	@ tmp210, MEM[(struct TIM_TypeDef *)1073741824B].CCR1
 401              	@ ../8-LCD-TEMP-STP_Motor_IR/Me.h:42: }
  42:../8-LCD-TEMP-STP_Motor_IR/Me.h **** }
 402              		.loc 2 42 1 view .LVU86
 403 012c 7047     		bx	lr	@
 404              	.L18:
 405 012e 00BF     		.align	2
 406              	.L17:
 407 0130 00100240 		.word	1073876992
 408 0134 00080140 		.word	1073809408
 409 0138 00000140 		.word	1073807360
 410              		.cfi_endproc
 411              	.LFE34:
 412              		.size	configure_PWM_TIM2, .-configure_PWM_TIM2
 413              		.align	1
 414              		.global	ADC1_configure
 415              		.syntax unified
 416              		.thumb
 417              		.thumb_func
 418              		.type	ADC1_configure, %function
 419              	ADC1_configure:
 420              	.LFB35:
  43:../8-LCD-TEMP-STP_Motor_IR/Me.h **** 
  44:../8-LCD-TEMP-STP_Motor_IR/Me.h **** void ADC1_configure(){
 421              		.loc 2 44 22 is_stmt 1 view -0
 422              		.cfi_startproc
 423              		@ args = 0, pretend = 0, frame = 0
ARM GAS  /tmp/ccaJFhKP.s 			page 15


 424              		@ frame_needed = 0, uses_anonymous_args = 0
 425              		@ link register save eliminated.
  45:../8-LCD-TEMP-STP_Motor_IR/Me.h **** 	RCC->APB2ENR |= 1UL<<2 ; // Hab. GPIOA
 426              		.loc 2 45 2 view .LVU88
 427              	@ ../8-LCD-TEMP-STP_Motor_IR/Me.h:45: 	RCC->APB2ENR |= 1UL<<2 ; // Hab. GPIOA
 428              		.loc 2 45 15 is_stmt 0 view .LVU89
 429 013c 1F4B     		ldr	r3, .L24	@ tmp141,
 430              	@ ../8-LCD-TEMP-STP_Motor_IR/Me.h:46: 	GPIOA->CRL &= ~(0x0F << 4); // Define A1 Input Analogic
  46:../8-LCD-TEMP-STP_Motor_IR/Me.h **** 	GPIOA->CRL &= ~(0x0F << 4); // Define A1 Input Analogic
 431              		.loc 2 46 13 view .LVU90
 432 013e 2049     		ldr	r1, .L24+4	@ tmp143,
 433              	@ ../8-LCD-TEMP-STP_Motor_IR/Me.h:45: 	RCC->APB2ENR |= 1UL<<2 ; // Hab. GPIOA
  45:../8-LCD-TEMP-STP_Motor_IR/Me.h **** 	RCC->APB2ENR |= 1UL<<2 ; // Hab. GPIOA
 434              		.loc 2 45 15 view .LVU91
 435 0140 9A69     		ldr	r2, [r3, #24]	@ _1, MEM[(struct RCC_TypeDef *)1073876992B].APB2ENR
 436 0142 42F00402 		orr	r2, r2, #4	@ _2, _1,
 437 0146 9A61     		str	r2, [r3, #24]	@ _2, MEM[(struct RCC_TypeDef *)1073876992B].APB2ENR
 438              		.loc 2 46 2 is_stmt 1 view .LVU92
 439              	@ ../8-LCD-TEMP-STP_Motor_IR/Me.h:46: 	GPIOA->CRL &= ~(0x0F << 4); // Define A1 Input Analogic
 440              		.loc 2 46 13 is_stmt 0 view .LVU93
 441 0148 0A68     		ldr	r2, [r1]	@ _3, MEM[(struct GPIO_TypeDef *)1073809408B].CRL
 442 014a 22F0F002 		bic	r2, r2, #240	@ _4, _3,
 443 014e 0A60     		str	r2, [r1]	@ _4, MEM[(struct GPIO_TypeDef *)1073809408B].CRL
  47:../8-LCD-TEMP-STP_Motor_IR/Me.h **** 	
  48:../8-LCD-TEMP-STP_Motor_IR/Me.h **** 	RCC->APB2ENR |= (1<<9); // Bit 9 ADC1EN: ADC 1 
 444              		.loc 2 48 2 is_stmt 1 view .LVU94
 445              	@ ../8-LCD-TEMP-STP_Motor_IR/Me.h:48: 	RCC->APB2ENR |= (1<<9); // Bit 9 ADC1EN: ADC 1 
 446              		.loc 2 48 15 is_stmt 0 view .LVU95
 447 0150 9A69     		ldr	r2, [r3, #24]	@ _5, MEM[(struct RCC_TypeDef *)1073876992B].APB2ENR
 448 0152 42F40072 		orr	r2, r2, #512	@ _6, _5,
 449 0156 9A61     		str	r2, [r3, #24]	@ _6, MEM[(struct RCC_TypeDef *)1073876992B].APB2ENR
  49:../8-LCD-TEMP-STP_Motor_IR/Me.h **** 									// interface clock enable
  50:../8-LCD-TEMP-STP_Motor_IR/Me.h **** 
  51:../8-LCD-TEMP-STP_Motor_IR/Me.h **** 	RCC->CFGR	|= (0b10 << 14); // Bits 15:14 ADCPRE:
 450              		.loc 2 51 2 is_stmt 1 view .LVU96
 451              	@ ../8-LCD-TEMP-STP_Motor_IR/Me.h:51: 	RCC->CFGR	|= (0b10 << 14); // Bits 15:14 ADCPRE:
 452              		.loc 2 51 12 is_stmt 0 view .LVU97
 453 0158 5A68     		ldr	r2, [r3, #4]	@ _7, MEM[(struct RCC_TypeDef *)1073876992B].CFGR
 454 015a 42F40042 		orr	r2, r2, #32768	@ _8, _7,
 455 015e 5A60     		str	r2, [r3, #4]	@ _8, MEM[(struct RCC_TypeDef *)1073876992B].CFGR
  52:../8-LCD-TEMP-STP_Motor_IR/Me.h **** 										  // ADC prescaler 10:
  53:../8-LCD-TEMP-STP_Motor_IR/Me.h **** 										  //    PCLK2 divided by 6
  54:../8-LCD-TEMP-STP_Motor_IR/Me.h **** 	// Enable End of Conversion (EOC) interrupt
  55:../8-LCD-TEMP-STP_Motor_IR/Me.h **** 	ADC1->CR1 |= (1 << 5);
 456              		.loc 2 55 2 is_stmt 1 view .LVU98
 457              	@ ../8-LCD-TEMP-STP_Motor_IR/Me.h:55: 	ADC1->CR1 |= (1 << 5);
 458              		.loc 2 55 12 is_stmt 0 view .LVU99
 459 0160 A3F56C43 		sub	r3, r3, #60416	@ tmp149, tmp149,
 460 0164 5A68     		ldr	r2, [r3, #4]	@ _9, MEM[(struct ADC_TypeDef *)1073816576B].CR1
 461 0166 42F02002 		orr	r2, r2, #32	@ _10, _9,
 462 016a 5A60     		str	r2, [r3, #4]	@ _10, MEM[(struct ADC_TypeDef *)1073816576B].CR1
  56:../8-LCD-TEMP-STP_Motor_IR/Me.h **** 
  57:../8-LCD-TEMP-STP_Motor_IR/Me.h **** 	// One conversion
  58:../8-LCD-TEMP-STP_Motor_IR/Me.h **** 	ADC1->SQR1 = 0x00000000;
 463              		.loc 2 58 2 is_stmt 1 view .LVU100
 464              	@ ../8-LCD-TEMP-STP_Motor_IR/Me.h:58: 	ADC1->SQR1 = 0x00000000;
 465              		.loc 2 58 13 is_stmt 0 view .LVU101
ARM GAS  /tmp/ccaJFhKP.s 			page 16


 466 016c 0022     		movs	r2, #0	@ tmp152,
 467 016e DA62     		str	r2, [r3, #44]	@ tmp152, MEM[(struct ADC_TypeDef *)1073816576B].SQR1
  59:../8-LCD-TEMP-STP_Motor_IR/Me.h **** 
  60:../8-LCD-TEMP-STP_Motor_IR/Me.h **** 	// Choose the analog channel to read
  61:../8-LCD-TEMP-STP_Motor_IR/Me.h **** 	// Since we want channel 10 to be the first
  62:../8-LCD-TEMP-STP_Motor_IR/Me.h **** 	//   conversion we write 10 to SQ1 bits (3:0)
  63:../8-LCD-TEMP-STP_Motor_IR/Me.h **** 	//   which is in SQR3 register. For multiple conversions
  64:../8-LCD-TEMP-STP_Motor_IR/Me.h **** 	//   keep writing the channel numbers to SQx bits.
  65:../8-LCD-TEMP-STP_Motor_IR/Me.h **** 	 ADC1->SQR3 = (10 << 0);
 468              		.loc 2 65 3 is_stmt 1 view .LVU102
 469              	@ ../8-LCD-TEMP-STP_Motor_IR/Me.h:65: 	 ADC1->SQR3 = (10 << 0);
 470              		.loc 2 65 14 is_stmt 0 view .LVU103
 471 0170 0A22     		movs	r2, #10	@ tmp154,
 472 0172 5A63     		str	r2, [r3, #52]	@ tmp154, MEM[(struct ADC_TypeDef *)1073816576B].SQR3
  66:../8-LCD-TEMP-STP_Motor_IR/Me.h **** 
  67:../8-LCD-TEMP-STP_Motor_IR/Me.h **** 	// Set up software trigger to start conversion
  68:../8-LCD-TEMP-STP_Motor_IR/Me.h **** 	ADC1->CR2 |= (7 << 17);  // Select SWSTART as trigger
 473              		.loc 2 68 2 is_stmt 1 view .LVU104
 474              	@ ../8-LCD-TEMP-STP_Motor_IR/Me.h:68: 	ADC1->CR2 |= (7 << 17);  // Select SWSTART as trigger
 475              		.loc 2 68 12 is_stmt 0 view .LVU105
 476 0174 9A68     		ldr	r2, [r3, #8]	@ _11, MEM[(struct ADC_TypeDef *)1073816576B].CR2
 477 0176 42F46022 		orr	r2, r2, #917504	@ _12, _11,
 478 017a 9A60     		str	r2, [r3, #8]	@ _12, MEM[(struct ADC_TypeDef *)1073816576B].CR2
  69:../8-LCD-TEMP-STP_Motor_IR/Me.h **** 	ADC1->CR2 |= (1 << 20);  // Enable external trigger
 479              		.loc 2 69 2 is_stmt 1 view .LVU106
 480              	@ ../8-LCD-TEMP-STP_Motor_IR/Me.h:69: 	ADC1->CR2 |= (1 << 20);  // Enable external trigger
 481              		.loc 2 69 12 is_stmt 0 view .LVU107
 482 017c 9A68     		ldr	r2, [r3, #8]	@ _13, MEM[(struct ADC_TypeDef *)1073816576B].CR2
 483 017e 42F48012 		orr	r2, r2, #1048576	@ _14, _13,
 484 0182 9A60     		str	r2, [r3, #8]	@ _14, MEM[(struct ADC_TypeDef *)1073816576B].CR2
  70:../8-LCD-TEMP-STP_Motor_IR/Me.h **** 
  71:../8-LCD-TEMP-STP_Motor_IR/Me.h **** 	// Enable continuous conversion
  72:../8-LCD-TEMP-STP_Motor_IR/Me.h **** 	ADC1->CR2 |= (1 << 1);
 485              		.loc 2 72 2 is_stmt 1 view .LVU108
 486              	@ ../8-LCD-TEMP-STP_Motor_IR/Me.h:72: 	ADC1->CR2 |= (1 << 1);
 487              		.loc 2 72 12 is_stmt 0 view .LVU109
 488 0184 9A68     		ldr	r2, [r3, #8]	@ _15, MEM[(struct ADC_TypeDef *)1073816576B].CR2
 489 0186 42F00202 		orr	r2, r2, #2	@ _16, _15,
 490 018a 9A60     		str	r2, [r3, #8]	@ _16, MEM[(struct ADC_TypeDef *)1073816576B].CR2
  73:../8-LCD-TEMP-STP_Motor_IR/Me.h **** 
  74:../8-LCD-TEMP-STP_Motor_IR/Me.h **** 	// enable_interrupt(ADC1_2_IRQn);
  75:../8-LCD-TEMP-STP_Motor_IR/Me.h **** 
  76:../8-LCD-TEMP-STP_Motor_IR/Me.h **** 	// Enable A/D conversion
  77:../8-LCD-TEMP-STP_Motor_IR/Me.h **** 	ADC1->CR2 |= (1 << 0);
 491              		.loc 2 77 2 is_stmt 1 view .LVU110
 492              	@ ../8-LCD-TEMP-STP_Motor_IR/Me.h:77: 	ADC1->CR2 |= (1 << 0);
 493              		.loc 2 77 12 is_stmt 0 view .LVU111
 494 018c 9A68     		ldr	r2, [r3, #8]	@ _17, MEM[(struct ADC_TypeDef *)1073816576B].CR2
 495 018e 42F00102 		orr	r2, r2, #1	@ _18, _17,
 496 0192 9A60     		str	r2, [r3, #8]	@ _18, MEM[(struct ADC_TypeDef *)1073816576B].CR2
  78:../8-LCD-TEMP-STP_Motor_IR/Me.h **** 
  79:../8-LCD-TEMP-STP_Motor_IR/Me.h **** 	// Calibration reset and start
  80:../8-LCD-TEMP-STP_Motor_IR/Me.h **** 	//    Optional for better accuracy.
  81:../8-LCD-TEMP-STP_Motor_IR/Me.h **** 	ADC1->CR2 |= (1 << 3);
 497              		.loc 2 81 2 is_stmt 1 view .LVU112
 498              	@ ../8-LCD-TEMP-STP_Motor_IR/Me.h:81: 	ADC1->CR2 |= (1 << 3);
 499              		.loc 2 81 12 is_stmt 0 view .LVU113
ARM GAS  /tmp/ccaJFhKP.s 			page 17


 500 0194 9A68     		ldr	r2, [r3, #8]	@ _19, MEM[(struct ADC_TypeDef *)1073816576B].CR2
 501 0196 42F00802 		orr	r2, r2, #8	@ _20, _19,
 502 019a 9A60     		str	r2, [r3, #8]	@ _20, MEM[(struct ADC_TypeDef *)1073816576B].CR2
  82:../8-LCD-TEMP-STP_Motor_IR/Me.h **** 	while((ADC1->CR2 & (1 << 3)));
 503              		.loc 2 82 2 is_stmt 1 view .LVU114
 504              	.L20:
 505              		.loc 2 82 31 discriminator 1 view .LVU115
 506              		.loc 2 82 7 discriminator 1 view .LVU116
 507              	@ ../8-LCD-TEMP-STP_Motor_IR/Me.h:82: 	while((ADC1->CR2 & (1 << 3)));
 508              		.loc 2 82 13 is_stmt 0 discriminator 1 view .LVU117
 509 019c 9A68     		ldr	r2, [r3, #8]	@ _21, MEM[(struct ADC_TypeDef *)1073816576B].CR2
 510              	@ ../8-LCD-TEMP-STP_Motor_IR/Me.h:82: 	while((ADC1->CR2 & (1 << 3)));
 511              		.loc 2 82 7 discriminator 1 view .LVU118
 512 019e 1107     		lsls	r1, r2, #28	@, _21,
 513 01a0 FCD4     		bmi	.L20		@,
  83:../8-LCD-TEMP-STP_Motor_IR/Me.h **** 	ADC1->CR2 |= (1 << 2);
 514              		.loc 2 83 2 is_stmt 1 view .LVU119
 515              	@ ../8-LCD-TEMP-STP_Motor_IR/Me.h:83: 	ADC1->CR2 |= (1 << 2);
 516              		.loc 2 83 12 is_stmt 0 view .LVU120
 517 01a2 9A68     		ldr	r2, [r3, #8]	@ _23, MEM[(struct ADC_TypeDef *)1073816576B].CR2
 518 01a4 42F00402 		orr	r2, r2, #4	@ _24, _23,
 519 01a8 9A60     		str	r2, [r3, #8]	@ _24, MEM[(struct ADC_TypeDef *)1073816576B].CR2
  84:../8-LCD-TEMP-STP_Motor_IR/Me.h **** 	while((ADC1->CR2 & (1 << 2)));
 520              		.loc 2 84 2 is_stmt 1 view .LVU121
 521              	@ ../8-LCD-TEMP-STP_Motor_IR/Me.h:84: 	while((ADC1->CR2 & (1 << 2)));
 522              		.loc 2 84 13 is_stmt 0 view .LVU122
 523 01aa 064B     		ldr	r3, .L24+8	@ tmp169,
 524              	.L21:
 525              		.loc 2 84 31 is_stmt 1 discriminator 1 view .LVU123
 526              		.loc 2 84 7 discriminator 1 view .LVU124
 527              	@ ../8-LCD-TEMP-STP_Motor_IR/Me.h:84: 	while((ADC1->CR2 & (1 << 2)));
 528              		.loc 2 84 13 is_stmt 0 discriminator 1 view .LVU125
 529 01ac 9A68     		ldr	r2, [r3, #8]	@ _25, MEM[(struct ADC_TypeDef *)1073816576B].CR2
 530              	@ ../8-LCD-TEMP-STP_Motor_IR/Me.h:84: 	while((ADC1->CR2 & (1 << 2)));
 531              		.loc 2 84 7 discriminator 1 view .LVU126
 532 01ae 5207     		lsls	r2, r2, #29	@, _25,
 533 01b0 FCD4     		bmi	.L21		@,
  85:../8-LCD-TEMP-STP_Motor_IR/Me.h **** 
  86:../8-LCD-TEMP-STP_Motor_IR/Me.h **** 	// Start conversion with software trigger
  87:../8-LCD-TEMP-STP_Motor_IR/Me.h **** 	ADC1->CR2 |= (1<<22);
 534              		.loc 2 87 2 is_stmt 1 view .LVU127
 535              	@ ../8-LCD-TEMP-STP_Motor_IR/Me.h:87: 	ADC1->CR2 |= (1<<22);
 536              		.loc 2 87 12 is_stmt 0 view .LVU128
 537 01b2 9A68     		ldr	r2, [r3, #8]	@ _27, MEM[(struct ADC_TypeDef *)1073816576B].CR2
 538 01b4 42F48002 		orr	r2, r2, #4194304	@ _28, _27,
 539 01b8 9A60     		str	r2, [r3, #8]	@ _28, MEM[(struct ADC_TypeDef *)1073816576B].CR2
 540              	@ ../8-LCD-TEMP-STP_Motor_IR/Me.h:90: }
  88:../8-LCD-TEMP-STP_Motor_IR/Me.h **** 	//
  89:../8-LCD-TEMP-STP_Motor_IR/Me.h **** 	// Leitura  ADC1->DR  -> Data Register
  90:../8-LCD-TEMP-STP_Motor_IR/Me.h **** }
 541              		.loc 2 90 1 view .LVU129
 542 01ba 7047     		bx	lr	@
 543              	.L25:
 544              		.align	2
 545              	.L24:
 546 01bc 00100240 		.word	1073876992
 547 01c0 00080140 		.word	1073809408
ARM GAS  /tmp/ccaJFhKP.s 			page 18


 548 01c4 00240140 		.word	1073816576
 549              		.cfi_endproc
 550              	.LFE35:
 551              		.size	ADC1_configure, .-ADC1_configure
 552              		.align	1
 553              		.global	set_system_clock_to_72Mhz
 554              		.syntax unified
 555              		.thumb
 556              		.thumb_func
 557              		.type	set_system_clock_to_72Mhz, %function
 558              	set_system_clock_to_72Mhz:
 559              	.LFB36:
  91:../8-LCD-TEMP-STP_Motor_IR/Me.h **** 
  92:../8-LCD-TEMP-STP_Motor_IR/Me.h **** void set_system_clock_to_72Mhz(void)
  93:../8-LCD-TEMP-STP_Motor_IR/Me.h **** {
 560              		.loc 2 93 1 is_stmt 1 view -0
 561              		.cfi_startproc
 562              		@ args = 0, pretend = 0, frame = 0
 563              		@ frame_needed = 0, uses_anonymous_args = 0
 564              		@ link register save eliminated.
  94:../8-LCD-TEMP-STP_Motor_IR/Me.h ****    // Necessary wait states for Flash for high speeds
  95:../8-LCD-TEMP-STP_Motor_IR/Me.h ****    FLASH->ACR = 0x12;
 565              		.loc 2 95 4 view .LVU131
 566              	@ ../8-LCD-TEMP-STP_Motor_IR/Me.h:95:    FLASH->ACR = 0x12;
 567              		.loc 2 95 15 is_stmt 0 view .LVU132
 568 01c8 1222     		movs	r2, #18	@ tmp140,
 569 01ca 1B4B     		ldr	r3, .L33	@ tmp139,
 570 01cc 1A60     		str	r2, [r3]	@ tmp140, MEM[(struct FLASH_TypeDef *)1073881088B].ACR
  96:../8-LCD-TEMP-STP_Motor_IR/Me.h ****    // Enable HSE
  97:../8-LCD-TEMP-STP_Motor_IR/Me.h ****    RCC->CR |= (1 << 16);
 571              		.loc 2 97 4 is_stmt 1 view .LVU133
 572              	@ ../8-LCD-TEMP-STP_Motor_IR/Me.h:97:    RCC->CR |= (1 << 16);
 573              		.loc 2 97 12 is_stmt 0 view .LVU134
 574 01ce A3F58053 		sub	r3, r3, #4096	@ tmp141, tmp141,
 575 01d2 1A68     		ldr	r2, [r3]	@ _1, MEM[(struct RCC_TypeDef *)1073876992B].CR
 576 01d4 42F48032 		orr	r2, r2, #65536	@ _2, _1,
 577 01d8 1A60     		str	r2, [r3]	@ _2, MEM[(struct RCC_TypeDef *)1073876992B].CR
  98:../8-LCD-TEMP-STP_Motor_IR/Me.h ****    // Wait untill HSE settles down
  99:../8-LCD-TEMP-STP_Motor_IR/Me.h ****    while (!(RCC->CR & (1 << 17)));
 578              		.loc 2 99 4 is_stmt 1 view .LVU135
 579              	.L27:
 580              		.loc 2 99 34 discriminator 1 view .LVU136
 581              		.loc 2 99 10 discriminator 1 view .LVU137
 582              	@ ../8-LCD-TEMP-STP_Motor_IR/Me.h:99:    while (!(RCC->CR & (1 << 17)));
 583              		.loc 2 99 16 is_stmt 0 discriminator 1 view .LVU138
 584 01da 1A68     		ldr	r2, [r3]	@ _3, MEM[(struct RCC_TypeDef *)1073876992B].CR
 585              	@ ../8-LCD-TEMP-STP_Motor_IR/Me.h:99:    while (!(RCC->CR & (1 << 17)));
 586              		.loc 2 99 10 discriminator 1 view .LVU139
 587 01dc 9103     		lsls	r1, r2, #14	@, _3,
 588 01de FCD5     		bpl	.L27		@,
 100:../8-LCD-TEMP-STP_Motor_IR/Me.h ****    // Set PREDIV2 division factor to 5
 101:../8-LCD-TEMP-STP_Motor_IR/Me.h ****    RCC->CFGR2 |= (0b0100 << 4);
 589              		.loc 2 101 4 is_stmt 1 view .LVU140
 590              	@ ../8-LCD-TEMP-STP_Motor_IR/Me.h:101:    RCC->CFGR2 |= (0b0100 << 4);
 591              		.loc 2 101 15 is_stmt 0 view .LVU141
 592 01e0 DA6A     		ldr	r2, [r3, #44]	@ _5, MEM[(struct RCC_TypeDef *)1073876992B].CFGR2
 593 01e2 42F04002 		orr	r2, r2, #64	@ _6, _5,
ARM GAS  /tmp/ccaJFhKP.s 			page 19


 594 01e6 DA62     		str	r2, [r3, #44]	@ _6, MEM[(struct RCC_TypeDef *)1073876992B].CFGR2
 102:../8-LCD-TEMP-STP_Motor_IR/Me.h ****    // Set PLL2 multiplication factor to 8
 103:../8-LCD-TEMP-STP_Motor_IR/Me.h ****    RCC->CFGR2 |= (0b0110 << 8);
 595              		.loc 2 103 4 is_stmt 1 view .LVU142
 596              	@ ../8-LCD-TEMP-STP_Motor_IR/Me.h:103:    RCC->CFGR2 |= (0b0110 << 8);
 597              		.loc 2 103 15 is_stmt 0 view .LVU143
 598 01e8 DA6A     		ldr	r2, [r3, #44]	@ _7, MEM[(struct RCC_TypeDef *)1073876992B].CFGR2
 599 01ea 42F4C062 		orr	r2, r2, #1536	@ _8, _7,
 600 01ee DA62     		str	r2, [r3, #44]	@ _8, MEM[(struct RCC_TypeDef *)1073876992B].CFGR2
 104:../8-LCD-TEMP-STP_Motor_IR/Me.h ****    // Enable PLL2
 105:../8-LCD-TEMP-STP_Motor_IR/Me.h ****    RCC->CR |= (1 << 26);
 601              		.loc 2 105 4 is_stmt 1 view .LVU144
 602              	@ ../8-LCD-TEMP-STP_Motor_IR/Me.h:105:    RCC->CR |= (1 << 26);
 603              		.loc 2 105 12 is_stmt 0 view .LVU145
 604 01f0 1A68     		ldr	r2, [r3]	@ _9, MEM[(struct RCC_TypeDef *)1073876992B].CR
 605 01f2 42F08062 		orr	r2, r2, #67108864	@ _10, _9,
 606 01f6 1A60     		str	r2, [r3]	@ _10, MEM[(struct RCC_TypeDef *)1073876992B].CR
 106:../8-LCD-TEMP-STP_Motor_IR/Me.h ****    // Wait untill PLL2 settles down
 107:../8-LCD-TEMP-STP_Motor_IR/Me.h **** 	// while (!(RCC->CR & (1 << 27)));
 108:../8-LCD-TEMP-STP_Motor_IR/Me.h ****    // Set PLL2 as PREDIV1 clock source
 109:../8-LCD-TEMP-STP_Motor_IR/Me.h ****    RCC->CFGR2 |= (1 << 16);
 607              		.loc 2 109 4 is_stmt 1 view .LVU146
 608              	@ ../8-LCD-TEMP-STP_Motor_IR/Me.h:109:    RCC->CFGR2 |= (1 << 16);
 609              		.loc 2 109 15 is_stmt 0 view .LVU147
 610 01f8 DA6A     		ldr	r2, [r3, #44]	@ _11, MEM[(struct RCC_TypeDef *)1073876992B].CFGR2
 611 01fa 42F48032 		orr	r2, r2, #65536	@ _12, _11,
 612 01fe DA62     		str	r2, [r3, #44]	@ _12, MEM[(struct RCC_TypeDef *)1073876992B].CFGR2
 110:../8-LCD-TEMP-STP_Motor_IR/Me.h ****    // Set PREDIV1 division factor to 5
 111:../8-LCD-TEMP-STP_Motor_IR/Me.h ****    RCC->CFGR2 |= (0b0100 << 0);
 613              		.loc 2 111 4 is_stmt 1 view .LVU148
 614              	@ ../8-LCD-TEMP-STP_Motor_IR/Me.h:111:    RCC->CFGR2 |= (0b0100 << 0);
 615              		.loc 2 111 15 is_stmt 0 view .LVU149
 616 0200 DA6A     		ldr	r2, [r3, #44]	@ _13, MEM[(struct RCC_TypeDef *)1073876992B].CFGR2
 617 0202 42F00402 		orr	r2, r2, #4	@ _14, _13,
 618 0206 DA62     		str	r2, [r3, #44]	@ _14, MEM[(struct RCC_TypeDef *)1073876992B].CFGR2
 112:../8-LCD-TEMP-STP_Motor_IR/Me.h ****    // Select Prediv1 as PLL source
 113:../8-LCD-TEMP-STP_Motor_IR/Me.h ****    RCC->CFGR |= (1 << 16);
 619              		.loc 2 113 4 is_stmt 1 view .LVU150
 620              	@ ../8-LCD-TEMP-STP_Motor_IR/Me.h:113:    RCC->CFGR |= (1 << 16);
 621              		.loc 2 113 14 is_stmt 0 view .LVU151
 622 0208 5A68     		ldr	r2, [r3, #4]	@ _15, MEM[(struct RCC_TypeDef *)1073876992B].CFGR
 623 020a 42F48032 		orr	r2, r2, #65536	@ _16, _15,
 624 020e 5A60     		str	r2, [r3, #4]	@ _16, MEM[(struct RCC_TypeDef *)1073876992B].CFGR
 114:../8-LCD-TEMP-STP_Motor_IR/Me.h ****    // Set PLL1 multiplication factor to 9
 115:../8-LCD-TEMP-STP_Motor_IR/Me.h ****    RCC->CFGR |= (0b0111 << 18);
 625              		.loc 2 115 4 is_stmt 1 view .LVU152
 626              	@ ../8-LCD-TEMP-STP_Motor_IR/Me.h:115:    RCC->CFGR |= (0b0111 << 18);
 627              		.loc 2 115 14 is_stmt 0 view .LVU153
 628 0210 5A68     		ldr	r2, [r3, #4]	@ _17, MEM[(struct RCC_TypeDef *)1073876992B].CFGR
 629 0212 42F4E012 		orr	r2, r2, #1835008	@ _18, _17,
 630 0216 5A60     		str	r2, [r3, #4]	@ _18, MEM[(struct RCC_TypeDef *)1073876992B].CFGR
 116:../8-LCD-TEMP-STP_Motor_IR/Me.h ****    // Set APB1 to 36MHz
 117:../8-LCD-TEMP-STP_Motor_IR/Me.h ****    RCC->CFGR |= 1 << 10;
 631              		.loc 2 117 4 is_stmt 1 view .LVU154
 632              	@ ../8-LCD-TEMP-STP_Motor_IR/Me.h:117:    RCC->CFGR |= 1 << 10;
 633              		.loc 2 117 14 is_stmt 0 view .LVU155
 634 0218 5A68     		ldr	r2, [r3, #4]	@ _19, MEM[(struct RCC_TypeDef *)1073876992B].CFGR
ARM GAS  /tmp/ccaJFhKP.s 			page 20


 635 021a 42F48062 		orr	r2, r2, #1024	@ _20, _19,
 636 021e 5A60     		str	r2, [r3, #4]	@ _20, MEM[(struct RCC_TypeDef *)1073876992B].CFGR
 118:../8-LCD-TEMP-STP_Motor_IR/Me.h ****    // Enable PLL
 119:../8-LCD-TEMP-STP_Motor_IR/Me.h ****    RCC->CR |= (1 << 24);
 637              		.loc 2 119 4 is_stmt 1 view .LVU156
 638              	@ ../8-LCD-TEMP-STP_Motor_IR/Me.h:119:    RCC->CR |= (1 << 24);
 639              		.loc 2 119 12 is_stmt 0 view .LVU157
 640 0220 1A68     		ldr	r2, [r3]	@ _21, MEM[(struct RCC_TypeDef *)1073876992B].CR
 641 0222 42F08072 		orr	r2, r2, #16777216	@ _22, _21,
 642 0226 1A60     		str	r2, [r3]	@ _22, MEM[(struct RCC_TypeDef *)1073876992B].CR
 120:../8-LCD-TEMP-STP_Motor_IR/Me.h ****    // Wait untill PLL settles down
 121:../8-LCD-TEMP-STP_Motor_IR/Me.h ****    while (!(RCC->CR & (1 << 25)));
 643              		.loc 2 121 4 is_stmt 1 view .LVU158
 644              	.L28:
 645              		.loc 2 121 34 discriminator 1 view .LVU159
 646              		.loc 2 121 10 discriminator 1 view .LVU160
 647              	@ ../8-LCD-TEMP-STP_Motor_IR/Me.h:121:    while (!(RCC->CR & (1 << 25)));
 648              		.loc 2 121 16 is_stmt 0 discriminator 1 view .LVU161
 649 0228 1A68     		ldr	r2, [r3]	@ _23, MEM[(struct RCC_TypeDef *)1073876992B].CR
 650              	@ ../8-LCD-TEMP-STP_Motor_IR/Me.h:121:    while (!(RCC->CR & (1 << 25)));
 651              		.loc 2 121 10 discriminator 1 view .LVU162
 652 022a 9201     		lsls	r2, r2, #6	@, _23,
 653 022c FCD5     		bpl	.L28		@,
 122:../8-LCD-TEMP-STP_Motor_IR/Me.h ****    // Finally, choose PLL as the system clock
 123:../8-LCD-TEMP-STP_Motor_IR/Me.h ****    RCC->CFGR |= (0b10 << 0);
 654              		.loc 2 123 4 is_stmt 1 view .LVU163
 655              	@ ../8-LCD-TEMP-STP_Motor_IR/Me.h:123:    RCC->CFGR |= (0b10 << 0);
 656              		.loc 2 123 14 is_stmt 0 view .LVU164
 657 022e 5A68     		ldr	r2, [r3, #4]	@ _25, MEM[(struct RCC_TypeDef *)1073876992B].CFGR
 658 0230 42F00202 		orr	r2, r2, #2	@ _26, _25,
 659 0234 5A60     		str	r2, [r3, #4]	@ _26, MEM[(struct RCC_TypeDef *)1073876992B].CFGR
 660              	@ ../8-LCD-TEMP-STP_Motor_IR/Me.h:124: } 
 124:../8-LCD-TEMP-STP_Motor_IR/Me.h **** } 
 661              		.loc 2 124 1 view .LVU165
 662 0236 7047     		bx	lr	@
 663              	.L34:
 664              		.align	2
 665              	.L33:
 666 0238 00200240 		.word	1073881088
 667              		.cfi_endproc
 668              	.LFE36:
 669              		.size	set_system_clock_to_72Mhz, .-set_system_clock_to_72Mhz
 670              		.align	1
 671              		.global	Delay
 672              		.syntax unified
 673              		.thumb
 674              		.thumb_func
 675              		.type	Delay, %function
 676              	Delay:
 677              	.LVL10:
 678              	.LFB37:
 125:../8-LCD-TEMP-STP_Motor_IR/Me.h **** 
 126:../8-LCD-TEMP-STP_Motor_IR/Me.h **** void Delay ( __IO u32 T ) { // T=1 ;  868µs -> T=1 ~ 526µs
 679              		.loc 2 126 27 is_stmt 1 view -0
 680              		.cfi_startproc
 681              		@ args = 0, pretend = 0, frame = 8
 682              		@ frame_needed = 0, uses_anonymous_args = 0
ARM GAS  /tmp/ccaJFhKP.s 			page 21


 683              		@ link register save eliminated.
 127:../8-LCD-TEMP-STP_Motor_IR/Me.h ****   for ( T ; T > 0 ; T-- ){
 684              		.loc 2 127 3 view .LVU167
 685              	@ ../8-LCD-TEMP-STP_Motor_IR/Me.h:126: void Delay ( __IO u32 T ) { // T=1 ;  868µs -> T=1 ~ 526µs
 126:../8-LCD-TEMP-STP_Motor_IR/Me.h ****   for ( T ; T > 0 ; T-- ){
 686              		.loc 2 126 27 is_stmt 0 view .LVU168
 687 023c 82B0     		sub	sp, sp, #8	@,,
 688              	.LCFI2:
 689              		.cfi_def_cfa_offset 8
 690              	@ ../8-LCD-TEMP-STP_Motor_IR/Me.h:126: void Delay ( __IO u32 T ) { // T=1 ;  868µs -> T=1 ~ 526µs
 126:../8-LCD-TEMP-STP_Motor_IR/Me.h ****   for ( T ; T > 0 ; T-- ){
 691              		.loc 2 126 27 view .LVU169
 692 023e 0190     		str	r0, [sp, #4]	@ T, T
 693              	@ ../8-LCD-TEMP-STP_Motor_IR/Me.h:127:   for ( T ; T > 0 ; T-- ){
 694              		.loc 2 127 3 view .LVU170
 695 0240 019B     		ldr	r3, [sp, #4]	@ vol.0_9, T
 696              	@ ../8-LCD-TEMP-STP_Motor_IR/Me.h:128:    TIM3->EGR |= ( 1 << 0 );
 128:../8-LCD-TEMP-STP_Motor_IR/Me.h ****    TIM3->EGR |= ( 1 << 0 );
 697              		.loc 2 128 14 view .LVU171
 698 0242 094A     		ldr	r2, .L40	@ tmp132,
 699              	.L36:
 127:../8-LCD-TEMP-STP_Motor_IR/Me.h ****   for ( T ; T > 0 ; T-- ){
 700              		.loc 2 127 13 is_stmt 1 discriminator 1 view .LVU172
 701              	@ ../8-LCD-TEMP-STP_Motor_IR/Me.h:127:   for ( T ; T > 0 ; T-- ){
 127:../8-LCD-TEMP-STP_Motor_IR/Me.h ****   for ( T ; T > 0 ; T-- ){
 702              		.loc 2 127 15 is_stmt 0 discriminator 1 view .LVU173
 703 0244 019B     		ldr	r3, [sp, #4]	@ T.2_6, T
 704              	@ ../8-LCD-TEMP-STP_Motor_IR/Me.h:127:   for ( T ; T > 0 ; T-- ){
 127:../8-LCD-TEMP-STP_Motor_IR/Me.h ****   for ( T ; T > 0 ; T-- ){
 705              		.loc 2 127 3 discriminator 1 view .LVU174
 706 0246 0BB9     		cbnz	r3, .L38	@ T.2_6,
 707              	@ ../8-LCD-TEMP-STP_Motor_IR/Me.h:131: }
 129:../8-LCD-TEMP-STP_Motor_IR/Me.h ****    while ( TIM3->CNT < 5 ) ; /* 5 * 10-- Configurar para IR */
 130:../8-LCD-TEMP-STP_Motor_IR/Me.h ****   }
 131:../8-LCD-TEMP-STP_Motor_IR/Me.h **** }
 708              		.loc 2 131 1 view .LVU175
 709 0248 02B0     		add	sp, sp, #8	@,,
 710              	.LCFI3:
 711              		.cfi_remember_state
 712              		.cfi_def_cfa_offset 0
 713              		@ sp needed	@
 714 024a 7047     		bx	lr	@
 715              	.L38:
 716              	.LCFI4:
 717              		.cfi_restore_state
 128:../8-LCD-TEMP-STP_Motor_IR/Me.h ****    TIM3->EGR |= ( 1 << 0 );
 718              		.loc 2 128 4 is_stmt 1 view .LVU176
 719              	@ ../8-LCD-TEMP-STP_Motor_IR/Me.h:128:    TIM3->EGR |= ( 1 << 0 );
 128:../8-LCD-TEMP-STP_Motor_IR/Me.h ****    TIM3->EGR |= ( 1 << 0 );
 720              		.loc 2 128 14 is_stmt 0 view .LVU177
 721 024c 938A     		ldrh	r3, [r2, #20]	@, MEM[(struct TIM_TypeDef *)1073742848B].EGR
 722 024e 9BB2     		uxth	r3, r3	@ _1, MEM[(struct TIM_TypeDef *)1073742848B].EGR
 723 0250 43F00103 		orr	r3, r3, #1	@ _2, _1,
 724 0254 9382     		strh	r3, [r2, #20]	@ movhi	@ _2, MEM[(struct TIM_TypeDef *)1073742848B].EGR
 129:../8-LCD-TEMP-STP_Motor_IR/Me.h ****    while ( TIM3->CNT < 5 ) ; /* 5 * 10-- Configurar para IR */
 725              		.loc 2 129 4 is_stmt 1 view .LVU178
 726              	.L37:
ARM GAS  /tmp/ccaJFhKP.s 			page 22


 129:../8-LCD-TEMP-STP_Motor_IR/Me.h ****    while ( TIM3->CNT < 5 ) ; /* 5 * 10-- Configurar para IR */
 727              		.loc 2 129 28 discriminator 1 view .LVU179
 129:../8-LCD-TEMP-STP_Motor_IR/Me.h ****    while ( TIM3->CNT < 5 ) ; /* 5 * 10-- Configurar para IR */
 728              		.loc 2 129 10 discriminator 1 view .LVU180
 729              	@ ../8-LCD-TEMP-STP_Motor_IR/Me.h:129:    while ( TIM3->CNT < 5 ) ; /* 5 * 10-- Configurar para IR 
 129:../8-LCD-TEMP-STP_Motor_IR/Me.h ****    while ( TIM3->CNT < 5 ) ; /* 5 * 10-- Configurar para IR */
 730              		.loc 2 129 16 is_stmt 0 discriminator 1 view .LVU181
 731 0256 938C     		ldrh	r3, [r2, #36]	@, MEM[(struct TIM_TypeDef *)1073742848B].CNT
 732 0258 9BB2     		uxth	r3, r3	@ _3, MEM[(struct TIM_TypeDef *)1073742848B].CNT
 733              	@ ../8-LCD-TEMP-STP_Motor_IR/Me.h:129:    while ( TIM3->CNT < 5 ) ; /* 5 * 10-- Configurar para IR 
 129:../8-LCD-TEMP-STP_Motor_IR/Me.h ****    while ( TIM3->CNT < 5 ) ; /* 5 * 10-- Configurar para IR */
 734              		.loc 2 129 10 discriminator 1 view .LVU182
 735 025a 042B     		cmp	r3, #4	@ _3,
 736 025c FBD9     		bls	.L37		@,
 127:../8-LCD-TEMP-STP_Motor_IR/Me.h ****    TIM3->EGR |= ( 1 << 0 );
 737              		.loc 2 127 21 is_stmt 1 discriminator 2 view .LVU183
 738              	@ ../8-LCD-TEMP-STP_Motor_IR/Me.h:127:   for ( T ; T > 0 ; T-- ){
 127:../8-LCD-TEMP-STP_Motor_IR/Me.h ****    TIM3->EGR |= ( 1 << 0 );
 739              		.loc 2 127 22 is_stmt 0 discriminator 2 view .LVU184
 740 025e 019B     		ldr	r3, [sp, #4]	@ T.1_4, T
 741 0260 013B     		subs	r3, r3, #1	@ _5, T.1_4,
 742 0262 0193     		str	r3, [sp, #4]	@ _5, T
 743 0264 EEE7     		b	.L36		@
 744              	.L41:
 745 0266 00BF     		.align	2
 746              	.L40:
 747 0268 00040040 		.word	1073742848
 748              		.cfi_endproc
 749              	.LFE37:
 750              		.size	Delay, .-Delay
 751              		.align	1
 752              		.global	enable_TIM3_delay
 753              		.syntax unified
 754              		.thumb
 755              		.thumb_func
 756              		.type	enable_TIM3_delay, %function
 757              	enable_TIM3_delay:
 758              	.LFB38:
 132:../8-LCD-TEMP-STP_Motor_IR/Me.h **** 
 133:../8-LCD-TEMP-STP_Motor_IR/Me.h **** void enable_TIM3_delay (void) {
 759              		.loc 2 133 31 is_stmt 1 view -0
 760              		.cfi_startproc
 761              		@ args = 0, pretend = 0, frame = 0
 762              		@ frame_needed = 0, uses_anonymous_args = 0
 763              		@ link register save eliminated.
 134:../8-LCD-TEMP-STP_Motor_IR/Me.h ****    RCC->APB1ENR |= 1<<1 ;
 764              		.loc 2 134 4 view .LVU186
 765              	@ ../8-LCD-TEMP-STP_Motor_IR/Me.h:134:    RCC->APB1ENR |= 1<<1 ;
 766              		.loc 2 134 17 is_stmt 0 view .LVU187
 767 026c 084A     		ldr	r2, .L43	@ tmp117,
 768 026e D369     		ldr	r3, [r2, #28]	@ _1, MEM[(struct RCC_TypeDef *)1073876992B].APB1ENR
 769 0270 43F00203 		orr	r3, r3, #2	@ _2, _1,
 770 0274 D361     		str	r3, [r2, #28]	@ _2, MEM[(struct RCC_TypeDef *)1073876992B].APB1ENR
 135:../8-LCD-TEMP-STP_Motor_IR/Me.h ****    TIM3->CR1 = 0x0000;
 771              		.loc 2 135 4 is_stmt 1 view .LVU188
 772              	@ ../8-LCD-TEMP-STP_Motor_IR/Me.h:135:    TIM3->CR1 = 0x0000;
 773              		.loc 2 135 14 is_stmt 0 view .LVU189
ARM GAS  /tmp/ccaJFhKP.s 			page 23


 774 0276 0023     		movs	r3, #0	@ tmp121,
 775 0278 A2F50332 		sub	r2, r2, #134144	@ tmp119, tmp119,
 776 027c 1380     		strh	r3, [r2]	@ movhi	@ tmp121, MEM[(struct TIM_TypeDef *)1073742848B].CR1
 136:../8-LCD-TEMP-STP_Motor_IR/Me.h ****    //TIM3->ARR = 21699;
 137:../8-LCD-TEMP-STP_Motor_IR/Me.h ****    TIM3->ARR = 250-1; // 10µs
 777              		.loc 2 137 4 is_stmt 1 view .LVU190
 778              	@ ../8-LCD-TEMP-STP_Motor_IR/Me.h:137:    TIM3->ARR = 250-1; // 10µs
 779              		.loc 2 137 14 is_stmt 0 view .LVU191
 780 027e F923     		movs	r3, #249	@ tmp124,
 781 0280 9385     		strh	r3, [r2, #44]	@ movhi	@ tmp124, MEM[(struct TIM_TypeDef *)1073742848B].ARR
 138:../8-LCD-TEMP-STP_Motor_IR/Me.h ****    // para obter o período de 868µs
 139:../8-LCD-TEMP-STP_Motor_IR/Me.h **** /*https://www.vishay.com/docs/80071/dataform.pdf PAG 2
 140:../8-LCD-TEMP-STP_Motor_IR/Me.h ****  * https://controllerstech.com/ir-remote-with-stm32/
 141:../8-LCD-TEMP-STP_Motor_IR/Me.h ****  * Per=(1+ARR)/Clock_system */
 142:../8-LCD-TEMP-STP_Motor_IR/Me.h ****    TIM3->CR1 |= 1<<0;
 782              		.loc 2 142 4 is_stmt 1 view .LVU192
 783              	@ ../8-LCD-TEMP-STP_Motor_IR/Me.h:142:    TIM3->CR1 |= 1<<0;
 784              		.loc 2 142 14 is_stmt 0 view .LVU193
 785 0282 1388     		ldrh	r3, [r2]	@, MEM[(struct TIM_TypeDef *)1073742848B].CR1
 786 0284 9BB2     		uxth	r3, r3	@ _3, MEM[(struct TIM_TypeDef *)1073742848B].CR1
 787 0286 43F00103 		orr	r3, r3, #1	@ _4, _3,
 788 028a 1380     		strh	r3, [r2]	@ movhi	@ _4, MEM[(struct TIM_TypeDef *)1073742848B].CR1
 789              	@ ../8-LCD-TEMP-STP_Motor_IR/Me.h:143: }
 143:../8-LCD-TEMP-STP_Motor_IR/Me.h **** }
 790              		.loc 2 143 1 view .LVU194
 791 028c 7047     		bx	lr	@
 792              	.L44:
 793 028e 00BF     		.align	2
 794              	.L43:
 795 0290 00100240 		.word	1073876992
 796              		.cfi_endproc
 797              	.LFE38:
 798              		.size	enable_TIM3_delay, .-enable_TIM3_delay
 799              		.align	1
 800              		.global	enable_interrupt
 801              		.syntax unified
 802              		.thumb
 803              		.thumb_func
 804              		.type	enable_interrupt, %function
 805              	enable_interrupt:
 806              	.LVL11:
 807              	.LFB39:
 144:../8-LCD-TEMP-STP_Motor_IR/Me.h **** 
 145:../8-LCD-TEMP-STP_Motor_IR/Me.h **** void enable_interrupt(IRQn_Type IRQn)
 146:../8-LCD-TEMP-STP_Motor_IR/Me.h **** {
 808              		.loc 2 146 1 is_stmt 1 view -0
 809              		.cfi_startproc
 810              		@ args = 0, pretend = 0, frame = 0
 811              		@ frame_needed = 0, uses_anonymous_args = 0
 812              		@ link register save eliminated.
 147:../8-LCD-TEMP-STP_Motor_IR/Me.h ****    NVIC->ISER[((uint32_t)(IRQn) >> 5)] = (1 << ((uint32_t)(IRQn) & 0x1F));
 813              		.loc 2 147 4 view .LVU196
 814              	@ ../8-LCD-TEMP-STP_Motor_IR/Me.h:147:    NVIC->ISER[((uint32_t)(IRQn) >> 5)] = (1 << ((uint32_t)(I
 815              		.loc 2 147 45 is_stmt 0 view .LVU197
 816 0294 0123     		movs	r3, #1	@ tmp124,
 817              	@ ../8-LCD-TEMP-STP_Motor_IR/Me.h:147:    NVIC->ISER[((uint32_t)(IRQn) >> 5)] = (1 << ((uint32_t)(I
 818              		.loc 2 147 33 view .LVU198
ARM GAS  /tmp/ccaJFhKP.s 			page 24


 819 0296 4209     		lsrs	r2, r0, #5	@ _6, IRQn,
 820              	@ ../8-LCD-TEMP-STP_Motor_IR/Me.h:147:    NVIC->ISER[((uint32_t)(IRQn) >> 5)] = (1 << ((uint32_t)(I
 821              		.loc 2 147 66 view .LVU199
 822 0298 00F01F00 		and	r0, r0, #31	@ tmp123, IRQn,
 823              	.LVL12:
 824              	@ ../8-LCD-TEMP-STP_Motor_IR/Me.h:147:    NVIC->ISER[((uint32_t)(IRQn) >> 5)] = (1 << ((uint32_t)(I
 825              		.loc 2 147 45 view .LVU200
 826 029c 03FA00F0 		lsl	r0, r3, r0	@ _7, tmp124, tmp123
 827              	@ ../8-LCD-TEMP-STP_Motor_IR/Me.h:147:    NVIC->ISER[((uint32_t)(IRQn) >> 5)] = (1 << ((uint32_t)(I
 828              		.loc 2 147 40 view .LVU201
 829 02a0 014B     		ldr	r3, .L46	@ tmp125,
 830 02a2 43F82200 		str	r0, [r3, r2, lsl #2]	@ _7, MEM[(struct NVIC_Type *)3758153984B].ISER[_6]
 831              	@ ../8-LCD-TEMP-STP_Motor_IR/Me.h:148: }  
 148:../8-LCD-TEMP-STP_Motor_IR/Me.h **** }  
 832              		.loc 2 148 1 view .LVU202
 833 02a6 7047     		bx	lr	@
 834              	.L47:
 835              		.align	2
 836              	.L46:
 837 02a8 00E100E0 		.word	-536813312
 838              		.cfi_endproc
 839              	.LFE39:
 840              		.size	enable_interrupt, .-enable_interrupt
 841              		.align	1
 842              		.global	disable_interrupt
 843              		.syntax unified
 844              		.thumb
 845              		.thumb_func
 846              		.type	disable_interrupt, %function
 847              	disable_interrupt:
 848              	.LVL13:
 849              	.LFB40:
 149:../8-LCD-TEMP-STP_Motor_IR/Me.h ****    
 150:../8-LCD-TEMP-STP_Motor_IR/Me.h **** /* 
 151:../8-LCD-TEMP-STP_Motor_IR/Me.h ****  * Disable given interrupt
 152:../8-LCD-TEMP-STP_Motor_IR/Me.h ****  */
 153:../8-LCD-TEMP-STP_Motor_IR/Me.h **** void disable_interrupt(IRQn_Type IRQn)
 154:../8-LCD-TEMP-STP_Motor_IR/Me.h **** {
 850              		.loc 2 154 1 is_stmt 1 view -0
 851              		.cfi_startproc
 852              		@ args = 0, pretend = 0, frame = 0
 853              		@ frame_needed = 0, uses_anonymous_args = 0
 854              		@ link register save eliminated.
 155:../8-LCD-TEMP-STP_Motor_IR/Me.h ****    NVIC->ICER[((uint32_t)(IRQn) >> 5)] = (1 << ((uint32_t)(IRQn) & 0x1F));
 855              		.loc 2 155 4 view .LVU204
 856              	@ ../8-LCD-TEMP-STP_Motor_IR/Me.h:155:    NVIC->ICER[((uint32_t)(IRQn) >> 5)] = (1 << ((uint32_t)(I
 857              		.loc 2 155 45 is_stmt 0 view .LVU205
 858 02ac 0122     		movs	r2, #1	@ tmp124,
 859              	@ ../8-LCD-TEMP-STP_Motor_IR/Me.h:155:    NVIC->ICER[((uint32_t)(IRQn) >> 5)] = (1 << ((uint32_t)(I
 860              		.loc 2 155 33 view .LVU206
 861 02ae 4309     		lsrs	r3, r0, #5	@ _6, IRQn,
 862              	@ ../8-LCD-TEMP-STP_Motor_IR/Me.h:155:    NVIC->ICER[((uint32_t)(IRQn) >> 5)] = (1 << ((uint32_t)(I
 863              		.loc 2 155 66 view .LVU207
 864 02b0 00F01F00 		and	r0, r0, #31	@ tmp123, IRQn,
 865              	.LVL14:
 866              	@ ../8-LCD-TEMP-STP_Motor_IR/Me.h:155:    NVIC->ICER[((uint32_t)(IRQn) >> 5)] = (1 << ((uint32_t)(I
 867              		.loc 2 155 45 view .LVU208
ARM GAS  /tmp/ccaJFhKP.s 			page 25


 868 02b4 02FA00F0 		lsl	r0, r2, r0	@ _7, tmp124, tmp123
 869              	@ ../8-LCD-TEMP-STP_Motor_IR/Me.h:155:    NVIC->ICER[((uint32_t)(IRQn) >> 5)] = (1 << ((uint32_t)(I
 870              		.loc 2 155 40 view .LVU209
 871 02b8 024A     		ldr	r2, .L49	@ tmp125,
 872 02ba 2033     		adds	r3, r3, #32	@ tmp126, _6,
 873 02bc 42F82300 		str	r0, [r2, r3, lsl #2]	@ _7, MEM[(struct NVIC_Type *)3758153984B].ICER[_6]
 874              	@ ../8-LCD-TEMP-STP_Motor_IR/Me.h:156: }
 156:../8-LCD-TEMP-STP_Motor_IR/Me.h **** }
 875              		.loc 2 156 1 view .LVU210
 876 02c0 7047     		bx	lr	@
 877              	.L50:
 878 02c2 00BF     		.align	2
 879              	.L49:
 880 02c4 00E100E0 		.word	-536813312
 881              		.cfi_endproc
 882              	.LFE40:
 883              		.size	disable_interrupt, .-disable_interrupt
 884              		.align	1
 885              		.global	intToStr
 886              		.syntax unified
 887              		.thumb
 888              		.thumb_func
 889              		.type	intToStr, %function
 890              	intToStr:
 891              	.LVL15:
 892              	.LFB42:
 157:../8-LCD-TEMP-STP_Motor_IR/Me.h **** 
 158:../8-LCD-TEMP-STP_Motor_IR/Me.h **** /* Exemplo: 
 159:../8-LCD-TEMP-STP_Motor_IR/Me.h ****  		    float num = 123.456789;
 160:../8-LCD-TEMP-STP_Motor_IR/Me.h **** 			 char str[20];
 161:../8-LCD-TEMP-STP_Motor_IR/Me.h **** 			 // num -> ponto flutuante
 162:../8-LCD-TEMP-STP_Motor_IR/Me.h **** 			 // str -> Var String 
 163:../8-LCD-TEMP-STP_Motor_IR/Me.h **** 			 // 4 -> Precisão do de casas decimais
 164:../8-LCD-TEMP-STP_Motor_IR/Me.h **** 			 floatToString(num, str, 4);
 165:../8-LCD-TEMP-STP_Motor_IR/Me.h ****  
 166:../8-LCD-TEMP-STP_Motor_IR/Me.h ****  * */
 167:../8-LCD-TEMP-STP_Motor_IR/Me.h **** void floatToString(float num, char *str, int precision) {
 168:../8-LCD-TEMP-STP_Motor_IR/Me.h ****     // Lida com números negativos
 169:../8-LCD-TEMP-STP_Motor_IR/Me.h ****     if (num < 0) {
 170:../8-LCD-TEMP-STP_Motor_IR/Me.h ****         num = -num;
 171:../8-LCD-TEMP-STP_Motor_IR/Me.h ****         *str++ = '-';
 172:../8-LCD-TEMP-STP_Motor_IR/Me.h ****     }
 173:../8-LCD-TEMP-STP_Motor_IR/Me.h **** 
 174:../8-LCD-TEMP-STP_Motor_IR/Me.h ****     // Extrai a parte inteira do número
 175:../8-LCD-TEMP-STP_Motor_IR/Me.h ****     int inteira = (int)num;
 176:../8-LCD-TEMP-STP_Motor_IR/Me.h ****     intToStr(inteira, str);
 177:../8-LCD-TEMP-STP_Motor_IR/Me.h ****     while (*str != '\0') {
 178:../8-LCD-TEMP-STP_Motor_IR/Me.h ****         str++;
 179:../8-LCD-TEMP-STP_Motor_IR/Me.h ****     }
 180:../8-LCD-TEMP-STP_Motor_IR/Me.h **** 
 181:../8-LCD-TEMP-STP_Motor_IR/Me.h ****     // Adiciona o ponto decimal
 182:../8-LCD-TEMP-STP_Motor_IR/Me.h ****     *str++ = '.';
 183:../8-LCD-TEMP-STP_Motor_IR/Me.h **** 
 184:../8-LCD-TEMP-STP_Motor_IR/Me.h ****     // Calcula e adiciona a parte fracionária
 185:../8-LCD-TEMP-STP_Motor_IR/Me.h ****     float fracionaria = num - inteira;
 186:../8-LCD-TEMP-STP_Motor_IR/Me.h ****     for (int i = 0; i < precision; i++) {
 187:../8-LCD-TEMP-STP_Motor_IR/Me.h ****         fracionaria *= 10;
ARM GAS  /tmp/ccaJFhKP.s 			page 26


 188:../8-LCD-TEMP-STP_Motor_IR/Me.h ****         int digito = (int)fracionaria;
 189:../8-LCD-TEMP-STP_Motor_IR/Me.h ****         *str++ = '0' + digito;
 190:../8-LCD-TEMP-STP_Motor_IR/Me.h ****         fracionaria -= digito;
 191:../8-LCD-TEMP-STP_Motor_IR/Me.h ****     }
 192:../8-LCD-TEMP-STP_Motor_IR/Me.h **** 
 193:../8-LCD-TEMP-STP_Motor_IR/Me.h ****     // Adiciona o terminador nulo
 194:../8-LCD-TEMP-STP_Motor_IR/Me.h ****     *str = '\0';
 195:../8-LCD-TEMP-STP_Motor_IR/Me.h **** }
 196:../8-LCD-TEMP-STP_Motor_IR/Me.h **** 
 197:../8-LCD-TEMP-STP_Motor_IR/Me.h **** void intToStr(int num, char *str) {
 893              		.loc 2 197 35 is_stmt 1 view -0
 894              		.cfi_startproc
 895              		@ args = 0, pretend = 0, frame = 0
 896              		@ frame_needed = 0, uses_anonymous_args = 0
 198:../8-LCD-TEMP-STP_Motor_IR/Me.h ****     // Converte um número inteiro para uma string
 199:../8-LCD-TEMP-STP_Motor_IR/Me.h ****     if (num == 0) {
 897              		.loc 2 199 5 view .LVU212
 898              	@ ../8-LCD-TEMP-STP_Motor_IR/Me.h:197: void intToStr(int num, char *str) {
 197:../8-LCD-TEMP-STP_Motor_IR/Me.h ****     // Converte um número inteiro para uma string
 899              		.loc 2 197 35 is_stmt 0 view .LVU213
 900 02c8 10B5     		push	{r4, lr}	@
 901              	.LCFI5:
 902              		.cfi_def_cfa_offset 8
 903              		.cfi_offset 4, -8
 904              		.cfi_offset 14, -4
 905              	@ ../8-LCD-TEMP-STP_Motor_IR/Me.h:199:     if (num == 0) {
 906              		.loc 2 199 8 view .LVU214
 907 02ca B8B9     		cbnz	r0, .L57	@ num,
 200:../8-LCD-TEMP-STP_Motor_IR/Me.h ****         *str++ = '0';
 908              		.loc 2 200 9 is_stmt 1 view .LVU215
 909              	.LVL16:
 910              	@ ../8-LCD-TEMP-STP_Motor_IR/Me.h:200:         *str++ = '0';
 911              		.loc 2 200 16 is_stmt 0 view .LVU216
 912 02cc 3023     		movs	r3, #48	@ tmp122,
 913              	@ ../8-LCD-TEMP-STP_Motor_IR/Me.h:201:         *str = '\0';
 201:../8-LCD-TEMP-STP_Motor_IR/Me.h ****         *str = '\0';
 914              		.loc 2 201 14 view .LVU217
 915 02ce 4870     		strb	r0, [r1, #1]	@ num, MEM[(char *)str_6(D) + 1B]
 916              	@ ../8-LCD-TEMP-STP_Motor_IR/Me.h:200:         *str++ = '0';
 200:../8-LCD-TEMP-STP_Motor_IR/Me.h ****         *str++ = '0';
 917              		.loc 2 200 16 view .LVU218
 918 02d0 0B70     		strb	r3, [r1]	@ tmp122, *str_6(D)
 919              		.loc 2 201 9 is_stmt 1 view .LVU219
 202:../8-LCD-TEMP-STP_Motor_IR/Me.h ****         return;
 920              		.loc 2 202 9 view .LVU220
 921              	.LVL17:
 922              	.L51:
 923              	@ ../8-LCD-TEMP-STP_Motor_IR/Me.h:220: }
 203:../8-LCD-TEMP-STP_Motor_IR/Me.h ****     }
 204:../8-LCD-TEMP-STP_Motor_IR/Me.h **** 
 205:../8-LCD-TEMP-STP_Motor_IR/Me.h ****     int len = 0;
 206:../8-LCD-TEMP-STP_Motor_IR/Me.h ****     int temp = num;
 207:../8-LCD-TEMP-STP_Motor_IR/Me.h ****     while (temp > 0) {
 208:../8-LCD-TEMP-STP_Motor_IR/Me.h ****         temp /= 10;
 209:../8-LCD-TEMP-STP_Motor_IR/Me.h ****         len++;
 210:../8-LCD-TEMP-STP_Motor_IR/Me.h ****     }
 211:../8-LCD-TEMP-STP_Motor_IR/Me.h **** 
ARM GAS  /tmp/ccaJFhKP.s 			page 27


 212:../8-LCD-TEMP-STP_Motor_IR/Me.h ****     str += len;
 213:../8-LCD-TEMP-STP_Motor_IR/Me.h ****     *str = '\0';
 214:../8-LCD-TEMP-STP_Motor_IR/Me.h **** 
 215:../8-LCD-TEMP-STP_Motor_IR/Me.h ****     while (num > 0) {
 216:../8-LCD-TEMP-STP_Motor_IR/Me.h ****         int digito = num % 10;
 217:../8-LCD-TEMP-STP_Motor_IR/Me.h ****         *(--str) = '0' + digito;
 218:../8-LCD-TEMP-STP_Motor_IR/Me.h ****         num /= 10;
 219:../8-LCD-TEMP-STP_Motor_IR/Me.h ****     }
 220:../8-LCD-TEMP-STP_Motor_IR/Me.h **** }
 924              		.loc 2 220 1 is_stmt 0 view .LVU221
 925 02d2 10BD     		pop	{r4, pc}	@
 926              	.LVL18:
 927              	.L54:
 928              	.LBB6:
 929              	.LBB7:
 208:../8-LCD-TEMP-STP_Motor_IR/Me.h ****         len++;
 930              		.loc 2 208 9 is_stmt 1 view .LVU222
 931              	@ ../8-LCD-TEMP-STP_Motor_IR/Me.h:208:         temp /= 10;
 208:../8-LCD-TEMP-STP_Motor_IR/Me.h ****         len++;
 932              		.loc 2 208 14 is_stmt 0 view .LVU223
 933 02d4 92FBF4F2 		sdiv	r2, r2, r4	@ temp, temp, tmp147
 934              	.LVL19:
 209:../8-LCD-TEMP-STP_Motor_IR/Me.h ****     }
 935              		.loc 2 209 9 is_stmt 1 view .LVU224
 936              	@ ../8-LCD-TEMP-STP_Motor_IR/Me.h:209:         len++;
 209:../8-LCD-TEMP-STP_Motor_IR/Me.h ****     }
 937              		.loc 2 209 12 is_stmt 0 view .LVU225
 938 02d8 0133     		adds	r3, r3, #1	@ len, len,
 939              	.LVL20:
 940              	.L52:
 207:../8-LCD-TEMP-STP_Motor_IR/Me.h ****         temp /= 10;
 941              		.loc 2 207 11 is_stmt 1 view .LVU226
 942 02da 002A     		cmp	r2, #0	@ temp,
 943 02dc FADC     		bgt	.L54		@,
 212:../8-LCD-TEMP-STP_Motor_IR/Me.h ****     *str = '\0';
 944              		.loc 2 212 5 view .LVU227
 945              	@ ../8-LCD-TEMP-STP_Motor_IR/Me.h:213:     *str = '\0';
 213:../8-LCD-TEMP-STP_Motor_IR/Me.h **** 
 946              		.loc 2 213 10 is_stmt 0 view .LVU228
 947 02de 0024     		movs	r4, #0	@ tmp129,
 948              	@ ../8-LCD-TEMP-STP_Motor_IR/Me.h:212:     str += len;
 212:../8-LCD-TEMP-STP_Motor_IR/Me.h ****     *str = '\0';
 949              		.loc 2 212 9 view .LVU229
 950 02e0 CA18     		adds	r2, r1, r3	@ str, str, len
 951              	.LVL21:
 213:../8-LCD-TEMP-STP_Motor_IR/Me.h **** 
 952              		.loc 2 213 5 is_stmt 1 view .LVU230
 953              	@ ../8-LCD-TEMP-STP_Motor_IR/Me.h:213:     *str = '\0';
 213:../8-LCD-TEMP-STP_Motor_IR/Me.h **** 
 954              		.loc 2 213 10 is_stmt 0 view .LVU231
 955 02e2 CC54     		strb	r4, [r1, r3]	@ tmp129, *str_16
 215:../8-LCD-TEMP-STP_Motor_IR/Me.h ****         int digito = num % 10;
 956              		.loc 2 215 5 is_stmt 1 view .LVU232
 957              	.LBB8:
 958              	@ ../8-LCD-TEMP-STP_Motor_IR/Me.h:216:         int digito = num % 10;
 216:../8-LCD-TEMP-STP_Motor_IR/Me.h ****         *(--str) = '0' + digito;
 959              		.loc 2 216 13 is_stmt 0 view .LVU233
ARM GAS  /tmp/ccaJFhKP.s 			page 28


 960 02e4 0A23     		movs	r3, #10	@ tmp146,
 961              	.LVL22:
 962              	.L55:
 216:../8-LCD-TEMP-STP_Motor_IR/Me.h ****         *(--str) = '0' + digito;
 963              		.loc 2 216 13 view .LVU234
 964              	.LBE8:
 215:../8-LCD-TEMP-STP_Motor_IR/Me.h ****         int digito = num % 10;
 965              		.loc 2 215 11 is_stmt 1 view .LVU235
 966 02e6 0028     		cmp	r0, #0	@ num,
 967 02e8 F3DD     		ble	.L51		@,
 968              	.LBB9:
 216:../8-LCD-TEMP-STP_Motor_IR/Me.h ****         *(--str) = '0' + digito;
 969              		.loc 2 216 9 view .LVU236
 970              	.LVL23:
 217:../8-LCD-TEMP-STP_Motor_IR/Me.h ****         num /= 10;
 971              		.loc 2 217 9 view .LVU237
 972              	@ ../8-LCD-TEMP-STP_Motor_IR/Me.h:216:         int digito = num % 10;
 216:../8-LCD-TEMP-STP_Motor_IR/Me.h ****         *(--str) = '0' + digito;
 973              		.loc 2 216 13 is_stmt 0 view .LVU238
 974 02ea 90FBF3F1 		sdiv	r1, r0, r3	@ tmp135, num, tmp146
 975 02ee 03FB1100 		mls	r0, r3, r1, r0	@ digito, tmp146, tmp135, num
 976              	.LVL24:
 977              	@ ../8-LCD-TEMP-STP_Motor_IR/Me.h:217:         *(--str) = '0' + digito;
 217:../8-LCD-TEMP-STP_Motor_IR/Me.h ****         num /= 10;
 978              		.loc 2 217 24 view .LVU239
 979 02f2 3030     		adds	r0, r0, #48	@ tmp141, digito,
 980              	@ ../8-LCD-TEMP-STP_Motor_IR/Me.h:217:         *(--str) = '0' + digito;
 217:../8-LCD-TEMP-STP_Motor_IR/Me.h ****         num /= 10;
 981              		.loc 2 217 18 view .LVU240
 982 02f4 02F8010D 		strb	r0, [r2, #-1]!	@ tmp141, MEM[base: str_21, offset: 0B]
 983              	.LVL25:
 218:../8-LCD-TEMP-STP_Motor_IR/Me.h ****     }
 984              		.loc 2 218 9 is_stmt 1 view .LVU241
 985              	@ ../8-LCD-TEMP-STP_Motor_IR/Me.h:218:         num /= 10;
 218:../8-LCD-TEMP-STP_Motor_IR/Me.h ****     }
 986              		.loc 2 218 13 is_stmt 0 view .LVU242
 987 02f8 0846     		mov	r0, r1	@ num, tmp135
 988              	.LVL26:
 218:../8-LCD-TEMP-STP_Motor_IR/Me.h ****     }
 989              		.loc 2 218 13 view .LVU243
 990 02fa F4E7     		b	.L55		@
 991              	.LVL27:
 992              	.L57:
 218:../8-LCD-TEMP-STP_Motor_IR/Me.h ****     }
 993              		.loc 2 218 13 view .LVU244
 994              	.LBE9:
 995              	.LBE7:
 996              	.LBE6:
 997 02fc 0246     		mov	r2, r0	@ temp, num
 998              	.LBB11:
 999              	.LBB10:
 1000              	@ ../8-LCD-TEMP-STP_Motor_IR/Me.h:205:     int len = 0;
 205:../8-LCD-TEMP-STP_Motor_IR/Me.h ****     int temp = num;
 1001              		.loc 2 205 9 view .LVU245
 1002 02fe 0023     		movs	r3, #0	@ len,
 1003              	@ ../8-LCD-TEMP-STP_Motor_IR/Me.h:208:         temp /= 10;
 208:../8-LCD-TEMP-STP_Motor_IR/Me.h ****         len++;
ARM GAS  /tmp/ccaJFhKP.s 			page 29


 1004              		.loc 2 208 14 view .LVU246
 1005 0300 0A24     		movs	r4, #10	@ tmp147,
 1006 0302 EAE7     		b	.L52		@
 1007              	.LBE10:
 1008              	.LBE11:
 1009              		.cfi_endproc
 1010              	.LFE42:
 1011              		.size	intToStr, .-intToStr
 1012              		.global	__aeabi_fcmplt
 1013              		.global	__aeabi_f2iz
 1014              		.global	__aeabi_i2f
 1015              		.global	__aeabi_fsub
 1016              		.global	__aeabi_fmul
 1017              		.align	1
 1018              		.global	floatToString
 1019              		.syntax unified
 1020              		.thumb
 1021              		.thumb_func
 1022              		.type	floatToString, %function
 1023              	floatToString:
 1024              	.LVL28:
 1025              	.LFB41:
 167:../8-LCD-TEMP-STP_Motor_IR/Me.h ****     // Lida com números negativos
 1026              		.loc 2 167 57 is_stmt 1 view -0
 1027              		.cfi_startproc
 1028              		@ args = 0, pretend = 0, frame = 0
 1029              		@ frame_needed = 0, uses_anonymous_args = 0
 169:../8-LCD-TEMP-STP_Motor_IR/Me.h ****         num = -num;
 1030              		.loc 2 169 5 view .LVU248
 1031              	@ ../8-LCD-TEMP-STP_Motor_IR/Me.h:167: void floatToString(float num, char *str, int precision) {
 167:../8-LCD-TEMP-STP_Motor_IR/Me.h ****     // Lida com números negativos
 1032              		.loc 2 167 57 is_stmt 0 view .LVU249
 1033 0304 2DE9F041 		push	{r4, r5, r6, r7, r8, lr}	@
 1034              	.LCFI6:
 1035              		.cfi_def_cfa_offset 24
 1036              		.cfi_offset 4, -24
 1037              		.cfi_offset 5, -20
 1038              		.cfi_offset 6, -16
 1039              		.cfi_offset 7, -12
 1040              		.cfi_offset 8, -8
 1041              		.cfi_offset 14, -4
 1042              	@ ../8-LCD-TEMP-STP_Motor_IR/Me.h:167: void floatToString(float num, char *str, int precision) {
 167:../8-LCD-TEMP-STP_Motor_IR/Me.h ****     // Lida com números negativos
 1043              		.loc 2 167 57 view .LVU250
 1044 0308 0C46     		mov	r4, r1	@ str, tmp158
 1045              	@ ../8-LCD-TEMP-STP_Motor_IR/Me.h:169:     if (num < 0) {
 169:../8-LCD-TEMP-STP_Motor_IR/Me.h ****         num = -num;
 1046              		.loc 2 169 8 view .LVU251
 1047 030a 0021     		movs	r1, #0	@,
 1048              	.LVL29:
 1049              	@ ../8-LCD-TEMP-STP_Motor_IR/Me.h:167: void floatToString(float num, char *str, int precision) {
 167:../8-LCD-TEMP-STP_Motor_IR/Me.h ****     // Lida com números negativos
 1050              		.loc 2 167 57 view .LVU252
 1051 030c 0546     		mov	r5, r0	@ num, tmp157
 1052 030e 1646     		mov	r6, r2	@ precision, tmp159
 1053              	@ ../8-LCD-TEMP-STP_Motor_IR/Me.h:169:     if (num < 0) {
 169:../8-LCD-TEMP-STP_Motor_IR/Me.h ****         num = -num;
ARM GAS  /tmp/ccaJFhKP.s 			page 30


 1054              		.loc 2 169 8 view .LVU253
 1055 0310 FFF7FEFF 		bl	__aeabi_fcmplt		@
 1056              	.LVL30:
 169:../8-LCD-TEMP-STP_Motor_IR/Me.h ****         num = -num;
 1057              		.loc 2 169 8 view .LVU254
 1058 0314 20B1     		cbz	r0, .L59	@ tmp160,
 170:../8-LCD-TEMP-STP_Motor_IR/Me.h ****         *str++ = '-';
 1059              		.loc 2 170 9 is_stmt 1 view .LVU255
 1060              	@ ../8-LCD-TEMP-STP_Motor_IR/Me.h:171:         *str++ = '-';
 171:../8-LCD-TEMP-STP_Motor_IR/Me.h ****     }
 1061              		.loc 2 171 16 is_stmt 0 view .LVU256
 1062 0316 2D23     		movs	r3, #45	@ tmp138,
 1063              	@ ../8-LCD-TEMP-STP_Motor_IR/Me.h:170:         num = -num;
 170:../8-LCD-TEMP-STP_Motor_IR/Me.h ****         *str++ = '-';
 1064              		.loc 2 170 13 view .LVU257
 1065 0318 05F10045 		add	r5, r5, #-2147483648	@ tmp137, num,
 1066              	.LVL31:
 171:../8-LCD-TEMP-STP_Motor_IR/Me.h ****     }
 1067              		.loc 2 171 9 is_stmt 1 view .LVU258
 1068              	@ ../8-LCD-TEMP-STP_Motor_IR/Me.h:171:         *str++ = '-';
 171:../8-LCD-TEMP-STP_Motor_IR/Me.h ****     }
 1069              		.loc 2 171 16 is_stmt 0 view .LVU259
 1070 031c 04F8013B 		strb	r3, [r4], #1	@ tmp138, *str_17(D)
 1071              	.LVL32:
 1072              	.L59:
 175:../8-LCD-TEMP-STP_Motor_IR/Me.h ****     intToStr(inteira, str);
 1073              		.loc 2 175 5 is_stmt 1 view .LVU260
 1074              	@ ../8-LCD-TEMP-STP_Motor_IR/Me.h:175:     int inteira = (int)num;
 175:../8-LCD-TEMP-STP_Motor_IR/Me.h ****     intToStr(inteira, str);
 1075              		.loc 2 175 9 is_stmt 0 view .LVU261
 1076 0320 2846     		mov	r0, r5	@, num
 1077 0322 FFF7FEFF 		bl	__aeabi_f2iz		@
 1078              	.LVL33:
 1079              	@ ../8-LCD-TEMP-STP_Motor_IR/Me.h:176:     intToStr(inteira, str);
 176:../8-LCD-TEMP-STP_Motor_IR/Me.h ****     while (*str != '\0') {
 1080              		.loc 2 176 5 view .LVU262
 1081 0326 2146     		mov	r1, r4	@, str
 1082              	@ ../8-LCD-TEMP-STP_Motor_IR/Me.h:175:     int inteira = (int)num;
 175:../8-LCD-TEMP-STP_Motor_IR/Me.h ****     intToStr(inteira, str);
 1083              		.loc 2 175 9 view .LVU263
 1084 0328 0746     		mov	r7, r0	@ inteira, tmp161
 1085              	.LVL34:
 176:../8-LCD-TEMP-STP_Motor_IR/Me.h ****     while (*str != '\0') {
 1086              		.loc 2 176 5 is_stmt 1 view .LVU264
 1087 032a FFF7FEFF 		bl	intToStr		@
 1088              	.LVL35:
 177:../8-LCD-TEMP-STP_Motor_IR/Me.h ****         str++;
 1089              		.loc 2 177 5 view .LVU265
 1090              	.L61:
 177:../8-LCD-TEMP-STP_Motor_IR/Me.h ****         str++;
 1091              		.loc 2 177 11 view .LVU266
 1092              	@ ../8-LCD-TEMP-STP_Motor_IR/Me.h:177:     while (*str != '\0') {
 177:../8-LCD-TEMP-STP_Motor_IR/Me.h ****         str++;
 1093              		.loc 2 177 12 is_stmt 0 view .LVU267
 1094 032e 2278     		ldrb	r2, [r4]	@ zero_extendqisi2	@ _1, MEM[base: str_10, offset: 0B]
 1095 0330 2346     		mov	r3, r4	@ str, str
 1096              	@ ../8-LCD-TEMP-STP_Motor_IR/Me.h:178:         str++;
ARM GAS  /tmp/ccaJFhKP.s 			page 31


 178:../8-LCD-TEMP-STP_Motor_IR/Me.h ****     }
 1097              		.loc 2 178 12 view .LVU268
 1098 0332 0134     		adds	r4, r4, #1	@ str, str,
 1099              	.LVL36:
 1100              	@ ../8-LCD-TEMP-STP_Motor_IR/Me.h:177:     while (*str != '\0') {
 177:../8-LCD-TEMP-STP_Motor_IR/Me.h ****         str++;
 1101              		.loc 2 177 11 view .LVU269
 1102 0334 002A     		cmp	r2, #0	@ _1
 1103 0336 FAD1     		bne	.L61	@
 182:../8-LCD-TEMP-STP_Motor_IR/Me.h **** 
 1104              		.loc 2 182 5 is_stmt 1 view .LVU270
 1105              	.LVL37:
 1106              	@ ../8-LCD-TEMP-STP_Motor_IR/Me.h:182:     *str++ = '.';
 182:../8-LCD-TEMP-STP_Motor_IR/Me.h **** 
 1107              		.loc 2 182 12 is_stmt 0 view .LVU271
 1108 0338 2E22     		movs	r2, #46	@ tmp141,
 1109              	@ ../8-LCD-TEMP-STP_Motor_IR/Me.h:185:     float fracionaria = num - inteira;
 185:../8-LCD-TEMP-STP_Motor_IR/Me.h ****     for (int i = 0; i < precision; i++) {
 1110              		.loc 2 185 29 view .LVU272
 1111 033a 3846     		mov	r0, r7	@, inteira
 1112              	@ ../8-LCD-TEMP-STP_Motor_IR/Me.h:182:     *str++ = '.';
 182:../8-LCD-TEMP-STP_Motor_IR/Me.h **** 
 1113              		.loc 2 182 12 view .LVU273
 1114 033c 1A70     		strb	r2, [r3]	@ tmp141, *str_20
 185:../8-LCD-TEMP-STP_Motor_IR/Me.h ****     for (int i = 0; i < precision; i++) {
 1115              		.loc 2 185 5 is_stmt 1 view .LVU274
 1116              	@ ../8-LCD-TEMP-STP_Motor_IR/Me.h:185:     float fracionaria = num - inteira;
 185:../8-LCD-TEMP-STP_Motor_IR/Me.h ****     for (int i = 0; i < precision; i++) {
 1117              		.loc 2 185 29 is_stmt 0 view .LVU275
 1118 033e FFF7FEFF 		bl	__aeabi_i2f		@
 1119              	.LVL38:
 1120 0342 0146     		mov	r1, r0	@ tmp162,
 1121              	@ ../8-LCD-TEMP-STP_Motor_IR/Me.h:185:     float fracionaria = num - inteira;
 185:../8-LCD-TEMP-STP_Motor_IR/Me.h ****     for (int i = 0; i < precision; i++) {
 1122              		.loc 2 185 11 view .LVU276
 1123 0344 2846     		mov	r0, r5	@, num
 1124 0346 FFF7FEFF 		bl	__aeabi_fsub		@
 1125              	.LVL39:
 186:../8-LCD-TEMP-STP_Motor_IR/Me.h ****         fracionaria *= 10;
 1126              		.loc 2 186 5 is_stmt 1 view .LVU277
 1127              	.LBB12:
 186:../8-LCD-TEMP-STP_Motor_IR/Me.h ****         fracionaria *= 10;
 1128              		.loc 2 186 10 view .LVU278
 186:../8-LCD-TEMP-STP_Motor_IR/Me.h ****         fracionaria *= 10;
 1129              		.loc 2 186 10 is_stmt 0 view .LVU279
 1130              	.LBE12:
 1131              	@ ../8-LCD-TEMP-STP_Motor_IR/Me.h:178:         str++;
 178:../8-LCD-TEMP-STP_Motor_IR/Me.h ****     }
 1132              		.loc 2 178 12 view .LVU280
 1133 034a 2546     		mov	r5, r4	@ str, str
 1134              	.LVL40:
 1135              	.LBB15:
 1136              	.LBB13:
 1137              	@ ../8-LCD-TEMP-STP_Motor_IR/Me.h:187:         fracionaria *= 10;
 187:../8-LCD-TEMP-STP_Motor_IR/Me.h ****         int digito = (int)fracionaria;
 1138              		.loc 2 187 21 view .LVU281
 1139 034c DFF83480 		ldr	r8, .L66	@ tmp156,
ARM GAS  /tmp/ccaJFhKP.s 			page 32


 1140              	.LVL41:
 1141              	.L62:
 187:../8-LCD-TEMP-STP_Motor_IR/Me.h ****         int digito = (int)fracionaria;
 1142              		.loc 2 187 21 view .LVU282
 1143              	.LBE13:
 186:../8-LCD-TEMP-STP_Motor_IR/Me.h ****         fracionaria *= 10;
 1144              		.loc 2 186 21 is_stmt 1 discriminator 1 view .LVU283
 1145              	@ ../8-LCD-TEMP-STP_Motor_IR/Me.h:186:     for (int i = 0; i < precision; i++) {
 186:../8-LCD-TEMP-STP_Motor_IR/Me.h ****         fracionaria *= 10;
 1146              		.loc 2 186 5 is_stmt 0 discriminator 1 view .LVU284
 1147 0350 2B1B     		subs	r3, r5, r4	@ i, str, str
 1148              	.LVL42:
 186:../8-LCD-TEMP-STP_Motor_IR/Me.h ****         fracionaria *= 10;
 1149              		.loc 2 186 5 discriminator 1 view .LVU285
 1150 0352 9E42     		cmp	r6, r3	@ precision, i
 1151 0354 05DC     		bgt	.L63		@,
 186:../8-LCD-TEMP-STP_Motor_IR/Me.h ****         fracionaria *= 10;
 1152              		.loc 2 186 5 discriminator 1 view .LVU286
 1153              	.LBE15:
 194:../8-LCD-TEMP-STP_Motor_IR/Me.h **** }
 1154              		.loc 2 194 5 is_stmt 1 view .LVU287
 1155              	@ ../8-LCD-TEMP-STP_Motor_IR/Me.h:194:     *str = '\0';
 194:../8-LCD-TEMP-STP_Motor_IR/Me.h **** }
 1156              		.loc 2 194 10 is_stmt 0 view .LVU288
 1157 0356 0023     		movs	r3, #0	@ tmp154,
 1158              	.LVL43:
 194:../8-LCD-TEMP-STP_Motor_IR/Me.h **** }
 1159              		.loc 2 194 10 view .LVU289
 1160 0358 26EAE676 		bic	r6, r6, r6, asr #31	@ tmp153, precision
 1161              	.LVL44:
 194:../8-LCD-TEMP-STP_Motor_IR/Me.h **** }
 1162              		.loc 2 194 10 view .LVU290
 1163 035c A355     		strb	r3, [r4, r6]	@ tmp154, *str_35
 1164              	@ ../8-LCD-TEMP-STP_Motor_IR/Me.h:195: }
 195:../8-LCD-TEMP-STP_Motor_IR/Me.h **** 
 1165              		.loc 2 195 1 view .LVU291
 1166 035e BDE8F081 		pop	{r4, r5, r6, r7, r8, pc}	@
 1167              	.LVL45:
 1168              	.L63:
 1169              	.LBB16:
 1170              	.LBB14:
 187:../8-LCD-TEMP-STP_Motor_IR/Me.h ****         int digito = (int)fracionaria;
 1171              		.loc 2 187 9 is_stmt 1 discriminator 3 view .LVU292
 1172              	@ ../8-LCD-TEMP-STP_Motor_IR/Me.h:187:         fracionaria *= 10;
 187:../8-LCD-TEMP-STP_Motor_IR/Me.h ****         int digito = (int)fracionaria;
 1173              		.loc 2 187 21 is_stmt 0 discriminator 3 view .LVU293
 1174 0362 4146     		mov	r1, r8	@, tmp156
 1175 0364 FFF7FEFF 		bl	__aeabi_fmul		@
 1176              	.LVL46:
 187:../8-LCD-TEMP-STP_Motor_IR/Me.h ****         int digito = (int)fracionaria;
 1177              		.loc 2 187 21 discriminator 3 view .LVU294
 1178 0368 0746     		mov	r7, r0	@ tmp145, tmp164
 1179              	.LVL47:
 188:../8-LCD-TEMP-STP_Motor_IR/Me.h ****         *str++ = '0' + digito;
 1180              		.loc 2 188 9 is_stmt 1 discriminator 3 view .LVU295
 1181              	@ ../8-LCD-TEMP-STP_Motor_IR/Me.h:188:         int digito = (int)fracionaria;
 188:../8-LCD-TEMP-STP_Motor_IR/Me.h ****         *str++ = '0' + digito;
ARM GAS  /tmp/ccaJFhKP.s 			page 33


 1182              		.loc 2 188 13 is_stmt 0 discriminator 3 view .LVU296
 1183 036a FFF7FEFF 		bl	__aeabi_f2iz		@
 1184              	.LVL48:
 189:../8-LCD-TEMP-STP_Motor_IR/Me.h ****         fracionaria -= digito;
 1185              		.loc 2 189 9 is_stmt 1 discriminator 3 view .LVU297
 1186              	@ ../8-LCD-TEMP-STP_Motor_IR/Me.h:189:         *str++ = '0' + digito;
 189:../8-LCD-TEMP-STP_Motor_IR/Me.h ****         fracionaria -= digito;
 1187              		.loc 2 189 22 is_stmt 0 discriminator 3 view .LVU298
 1188 036e 00F13003 		add	r3, r0, #48	@ tmp148, tmp165,
 1189              	@ ../8-LCD-TEMP-STP_Motor_IR/Me.h:189:         *str++ = '0' + digito;
 189:../8-LCD-TEMP-STP_Motor_IR/Me.h ****         fracionaria -= digito;
 1190              		.loc 2 189 16 discriminator 3 view .LVU299
 1191 0372 05F8013B 		strb	r3, [r5], #1	@ tmp148, MEM[base: str_31, offset: 4294967295B]
 1192              	.LVL49:
 190:../8-LCD-TEMP-STP_Motor_IR/Me.h ****     }
 1193              		.loc 2 190 9 is_stmt 1 discriminator 3 view .LVU300
 1194              	@ ../8-LCD-TEMP-STP_Motor_IR/Me.h:190:         fracionaria -= digito;
 190:../8-LCD-TEMP-STP_Motor_IR/Me.h ****     }
 1195              		.loc 2 190 21 is_stmt 0 discriminator 3 view .LVU301
 1196 0376 FFF7FEFF 		bl	__aeabi_i2f		@
 1197              	.LVL50:
 190:../8-LCD-TEMP-STP_Motor_IR/Me.h ****     }
 1198              		.loc 2 190 21 discriminator 3 view .LVU302
 1199 037a 0146     		mov	r1, r0	@ tmp166,
 1200 037c 3846     		mov	r0, r7	@, tmp145
 1201 037e FFF7FEFF 		bl	__aeabi_fsub		@
 1202              	.LVL51:
 1203              	.LBE14:
 186:../8-LCD-TEMP-STP_Motor_IR/Me.h ****         fracionaria *= 10;
 1204              		.loc 2 186 36 is_stmt 1 discriminator 3 view .LVU303
 186:../8-LCD-TEMP-STP_Motor_IR/Me.h ****         fracionaria *= 10;
 1205              		.loc 2 186 36 is_stmt 0 discriminator 3 view .LVU304
 1206 0382 E5E7     		b	.L62		@
 1207              	.L67:
 1208              		.align	2
 1209              	.L66:
 1210 0384 00002041 		.word	1092616192
 1211              	.LBE16:
 1212              		.cfi_endproc
 1213              	.LFE41:
 1214              		.size	floatToString, .-floatToString
 1215              		.align	1
 1216              		.global	controlarMotorPasso
 1217              		.syntax unified
 1218              		.thumb
 1219              		.thumb_func
 1220              		.type	controlarMotorPasso, %function
 1221              	controlarMotorPasso:
 1222              	.LVL52:
 1223              	.LFB43:
 221:../8-LCD-TEMP-STP_Motor_IR/Me.h **** 
 222:../8-LCD-TEMP-STP_Motor_IR/Me.h **** 
 223:../8-LCD-TEMP-STP_Motor_IR/Me.h **** // Defina os pinos GPIO que estão conectados às bobinas do motor de passo
 224:../8-LCD-TEMP-STP_Motor_IR/Me.h **** #define MOTOR_COIL_1_PIN   GPIO_PIN_12
 225:../8-LCD-TEMP-STP_Motor_IR/Me.h **** #define MOTOR_COIL_2_PIN   GPIO_PIN_13
 226:../8-LCD-TEMP-STP_Motor_IR/Me.h **** #define MOTOR_COIL_3_PIN   GPIO_PIN_14
 227:../8-LCD-TEMP-STP_Motor_IR/Me.h **** #define MOTOR_COIL_4_PIN   GPIO_PIN_15
ARM GAS  /tmp/ccaJFhKP.s 			page 34


 228:../8-LCD-TEMP-STP_Motor_IR/Me.h **** #define MOTOR_PORT          GPIOB
 229:../8-LCD-TEMP-STP_Motor_IR/Me.h **** 
 230:../8-LCD-TEMP-STP_Motor_IR/Me.h **** 
 231:../8-LCD-TEMP-STP_Motor_IR/Me.h **** // Função para controlar o motor de passo
 232:../8-LCD-TEMP-STP_Motor_IR/Me.h **** void controlarMotorPasso(int passo) {
 1224              		.loc 2 232 37 is_stmt 1 view -0
 1225              		.cfi_startproc
 1226              		@ args = 0, pretend = 0, frame = 0
 1227              		@ frame_needed = 0, uses_anonymous_args = 0
 1228              		@ link register save eliminated.
 233:../8-LCD-TEMP-STP_Motor_IR/Me.h ****     // Desativa todas as bobinas
 234:../8-LCD-TEMP-STP_Motor_IR/Me.h **** 	  GPIOB->ODR &= ~(0xF << 12);
 1229              		.loc 2 234 4 view .LVU306
 1230              	@ ../8-LCD-TEMP-STP_Motor_IR/Me.h:234: 	  GPIOB->ODR &= ~(0xF << 12);
 1231              		.loc 2 234 15 is_stmt 0 view .LVU307
 1232 0388 174B     		ldr	r3, .L79	@ tmp131,
 1233 038a DA68     		ldr	r2, [r3, #12]	@ _1, MEM[(struct GPIO_TypeDef *)1073810432B].ODR
 1234 038c 22F47042 		bic	r2, r2, #61440	@ _2, _1,
 1235 0390 DA60     		str	r2, [r3, #12]	@ _2, MEM[(struct GPIO_TypeDef *)1073810432B].ODR
 235:../8-LCD-TEMP-STP_Motor_IR/Me.h **** 	  passo = passo % 7;
 1236              		.loc 2 235 4 is_stmt 1 view .LVU308
 1237              	.LVL53:
 236:../8-LCD-TEMP-STP_Motor_IR/Me.h **** 
 237:../8-LCD-TEMP-STP_Motor_IR/Me.h ****     switch (passo) {
 1238              		.loc 2 237 5 view .LVU309
 1239              	@ ../8-LCD-TEMP-STP_Motor_IR/Me.h:235: 	  passo = passo % 7;
 235:../8-LCD-TEMP-STP_Motor_IR/Me.h **** 	  passo = passo % 7;
 1240              		.loc 2 235 10 is_stmt 0 view .LVU310
 1241 0392 0722     		movs	r2, #7	@ tmp138,
 1242 0394 90FBF2F2 		sdiv	r2, r0, r2	@ tmp137, passo, tmp138
 1243 0398 C2EBC202 		rsb	r2, r2, r2, lsl #3	@ tmp141, tmp137, tmp137,
 1244 039c 801A     		subs	r0, r0, r2	@ passo, passo, tmp141
 1245              	.LVL54:
 1246              	@ ../8-LCD-TEMP-STP_Motor_IR/Me.h:237:     switch (passo) {
 1247              		.loc 2 237 5 view .LVU311
 1248 039e 0628     		cmp	r0, #6	@ passo,
 1249 03a0 09D8     		bhi	.L68		@
 1250 03a2 DFE800F0 		tbb	[pc, r0]	@ passo
 1251              	.L71:
 1252 03a6 04       		.byte	(.L77-.L71)/2
 1253 03a7 09       		.byte	(.L76-.L71)/2
 1254 03a8 0D       		.byte	(.L75-.L71)/2
 1255 03a9 11       		.byte	(.L74-.L71)/2
 1256 03aa 15       		.byte	(.L73-.L71)/2
 1257 03ab 19       		.byte	(.L72-.L71)/2
 1258 03ac 1D       		.byte	(.L70-.L71)/2
 1259 03ad 00       		.p2align 1
 1260              	.L77:
 238:../8-LCD-TEMP-STP_Motor_IR/Me.h **** 
 239:../8-LCD-TEMP-STP_Motor_IR/Me.h ****         case 0:
 240:../8-LCD-TEMP-STP_Motor_IR/Me.h **** 			  GPIOB->ODR |= (0x1<<12);
 1261              		.loc 2 240 6 is_stmt 1 view .LVU312
 1262              	@ ../8-LCD-TEMP-STP_Motor_IR/Me.h:240: 			  GPIOB->ODR |= (0x1<<12);
 1263              		.loc 2 240 17 is_stmt 0 view .LVU313
 1264 03ae DA68     		ldr	r2, [r3, #12]	@ _3, MEM[(struct GPIO_TypeDef *)1073810432B].ODR
 1265 03b0 42F48052 		orr	r2, r2, #4096	@ _4, _3,
 1266              	.L78:
ARM GAS  /tmp/ccaJFhKP.s 			page 35


 1267              	@ ../8-LCD-TEMP-STP_Motor_IR/Me.h:258: 			  GPIOB->ODR |= (0x9<<12);
 241:../8-LCD-TEMP-STP_Motor_IR/Me.h ****             break;
 242:../8-LCD-TEMP-STP_Motor_IR/Me.h ****         case 1:
 243:../8-LCD-TEMP-STP_Motor_IR/Me.h **** 			  GPIOB->ODR |= (0x3<<12);
 244:../8-LCD-TEMP-STP_Motor_IR/Me.h ****             break;
 245:../8-LCD-TEMP-STP_Motor_IR/Me.h ****         case 2:
 246:../8-LCD-TEMP-STP_Motor_IR/Me.h **** 			  GPIOB->ODR |= (0x2<<12);
 247:../8-LCD-TEMP-STP_Motor_IR/Me.h ****             break;
 248:../8-LCD-TEMP-STP_Motor_IR/Me.h ****         case 3:
 249:../8-LCD-TEMP-STP_Motor_IR/Me.h **** 			  GPIOB->ODR |= (0x6<<12);
 250:../8-LCD-TEMP-STP_Motor_IR/Me.h ****             break;
 251:../8-LCD-TEMP-STP_Motor_IR/Me.h **** 		  case 4:
 252:../8-LCD-TEMP-STP_Motor_IR/Me.h **** 			  GPIOB->ODR |= (0x4<<12);
 253:../8-LCD-TEMP-STP_Motor_IR/Me.h ****             break;
 254:../8-LCD-TEMP-STP_Motor_IR/Me.h **** 		  case 5:
 255:../8-LCD-TEMP-STP_Motor_IR/Me.h **** 			  GPIOB->ODR |= (0xB<<12);
 256:../8-LCD-TEMP-STP_Motor_IR/Me.h ****             break;
 257:../8-LCD-TEMP-STP_Motor_IR/Me.h **** 		  case 6:
 258:../8-LCD-TEMP-STP_Motor_IR/Me.h **** 			  GPIOB->ODR |= (0x9<<12);
 1268              		.loc 2 258 17 view .LVU314
 1269 03b4 DA60     		str	r2, [r3, #12]	@ _16,
 259:../8-LCD-TEMP-STP_Motor_IR/Me.h ****             break;
 1270              		.loc 2 259 13 is_stmt 1 view .LVU315
 1271              	.L68:
 1272              	@ ../8-LCD-TEMP-STP_Motor_IR/Me.h:261: }
 260:../8-LCD-TEMP-STP_Motor_IR/Me.h ****     }
 261:../8-LCD-TEMP-STP_Motor_IR/Me.h **** }
 1273              		.loc 2 261 1 is_stmt 0 view .LVU316
 1274 03b6 7047     		bx	lr	@
 1275              	.L76:
 243:../8-LCD-TEMP-STP_Motor_IR/Me.h ****             break;
 1276              		.loc 2 243 6 is_stmt 1 view .LVU317
 1277              	@ ../8-LCD-TEMP-STP_Motor_IR/Me.h:243: 			  GPIOB->ODR |= (0x3<<12);
 243:../8-LCD-TEMP-STP_Motor_IR/Me.h ****             break;
 1278              		.loc 2 243 17 is_stmt 0 view .LVU318
 1279 03b8 DA68     		ldr	r2, [r3, #12]	@ _5, MEM[(struct GPIO_TypeDef *)1073810432B].ODR
 1280 03ba 42F44052 		orr	r2, r2, #12288	@ _6, _5,
 1281 03be F9E7     		b	.L78		@
 1282              	.L75:
 246:../8-LCD-TEMP-STP_Motor_IR/Me.h ****             break;
 1283              		.loc 2 246 6 is_stmt 1 view .LVU319
 1284              	@ ../8-LCD-TEMP-STP_Motor_IR/Me.h:246: 			  GPIOB->ODR |= (0x2<<12);
 246:../8-LCD-TEMP-STP_Motor_IR/Me.h ****             break;
 1285              		.loc 2 246 17 is_stmt 0 view .LVU320
 1286 03c0 DA68     		ldr	r2, [r3, #12]	@ _7, MEM[(struct GPIO_TypeDef *)1073810432B].ODR
 1287 03c2 42F40052 		orr	r2, r2, #8192	@ _8, _7,
 1288 03c6 F5E7     		b	.L78		@
 1289              	.L74:
 249:../8-LCD-TEMP-STP_Motor_IR/Me.h ****             break;
 1290              		.loc 2 249 6 is_stmt 1 view .LVU321
 1291              	@ ../8-LCD-TEMP-STP_Motor_IR/Me.h:249: 			  GPIOB->ODR |= (0x6<<12);
 249:../8-LCD-TEMP-STP_Motor_IR/Me.h ****             break;
 1292              		.loc 2 249 17 is_stmt 0 view .LVU322
 1293 03c8 DA68     		ldr	r2, [r3, #12]	@ _9, MEM[(struct GPIO_TypeDef *)1073810432B].ODR
 1294 03ca 42F4C042 		orr	r2, r2, #24576	@ _10, _9,
 1295 03ce F1E7     		b	.L78		@
 1296              	.L73:
ARM GAS  /tmp/ccaJFhKP.s 			page 36


 252:../8-LCD-TEMP-STP_Motor_IR/Me.h ****             break;
 1297              		.loc 2 252 6 is_stmt 1 view .LVU323
 1298              	@ ../8-LCD-TEMP-STP_Motor_IR/Me.h:252: 			  GPIOB->ODR |= (0x4<<12);
 252:../8-LCD-TEMP-STP_Motor_IR/Me.h ****             break;
 1299              		.loc 2 252 17 is_stmt 0 view .LVU324
 1300 03d0 DA68     		ldr	r2, [r3, #12]	@ _11, MEM[(struct GPIO_TypeDef *)1073810432B].ODR
 1301 03d2 42F48042 		orr	r2, r2, #16384	@ _12, _11,
 1302 03d6 EDE7     		b	.L78		@
 1303              	.L72:
 255:../8-LCD-TEMP-STP_Motor_IR/Me.h ****             break;
 1304              		.loc 2 255 6 is_stmt 1 view .LVU325
 1305              	@ ../8-LCD-TEMP-STP_Motor_IR/Me.h:255: 			  GPIOB->ODR |= (0xB<<12);
 255:../8-LCD-TEMP-STP_Motor_IR/Me.h ****             break;
 1306              		.loc 2 255 17 is_stmt 0 view .LVU326
 1307 03d8 DA68     		ldr	r2, [r3, #12]	@ _13, MEM[(struct GPIO_TypeDef *)1073810432B].ODR
 1308 03da 42F43042 		orr	r2, r2, #45056	@ _14, _13,
 1309 03de E9E7     		b	.L78		@
 1310              	.L70:
 258:../8-LCD-TEMP-STP_Motor_IR/Me.h ****             break;
 1311              		.loc 2 258 6 is_stmt 1 view .LVU327
 1312              	@ ../8-LCD-TEMP-STP_Motor_IR/Me.h:258: 			  GPIOB->ODR |= (0x9<<12);
 258:../8-LCD-TEMP-STP_Motor_IR/Me.h ****             break;
 1313              		.loc 2 258 17 is_stmt 0 view .LVU328
 1314 03e0 DA68     		ldr	r2, [r3, #12]	@ _15, MEM[(struct GPIO_TypeDef *)1073810432B].ODR
 1315 03e2 42F41042 		orr	r2, r2, #36864	@ _16, _15,
 1316 03e6 E5E7     		b	.L78		@
 1317              	.L80:
 1318              		.align	2
 1319              	.L79:
 1320 03e8 000C0140 		.word	1073810432
 1321              		.cfi_endproc
 1322              	.LFE43:
 1323              		.size	controlarMotorPasso, .-controlarMotorPasso
 1324              		.align	1
 1325              		.syntax unified
 1326              		.thumb
 1327              		.thumb_func
 1328              		.type	task4, %function
 1329              	task4:
 1330              	.LVL55:
 1331              	.LFB54:
 199:../8-LCD-TEMP-STP_Motor_IR/main.c **** 	/* 
 1332              		.loc 1 199 53 is_stmt 1 view -0
 1333              		.cfi_startproc
 1334              		@ args = 0, pretend = 0, frame = 8
 1335              		@ frame_needed = 0, uses_anonymous_args = 0
 212:../8-LCD-TEMP-STP_Motor_IR/main.c **** 	GPIOB->CRH	|= (0x3333<< 16); 
 1336              		.loc 1 212 2 view .LVU330
 1337              	@ ../8-LCD-TEMP-STP_Motor_IR/main.c:212: 	RCC->APB2ENR |= (1<<3); // En GPIOC
 212:../8-LCD-TEMP-STP_Motor_IR/main.c **** 	GPIOB->CRH	|= (0x3333<< 16); 
 1338              		.loc 1 212 15 is_stmt 0 view .LVU331
 1339 03ec 1A4A     		ldr	r2, .L93	@ tmp126,
 1340              	@ ../8-LCD-TEMP-STP_Motor_IR/main.c:199: static void task4(void *args __attribute ((unused))){
 199:../8-LCD-TEMP-STP_Motor_IR/main.c **** 	/* 
 1341              		.loc 1 199 53 view .LVU332
 1342 03ee 2DE9F341 		push	{r0, r1, r4, r5, r6, r7, r8, lr}	@
 1343              	.LCFI7:
ARM GAS  /tmp/ccaJFhKP.s 			page 37


 1344              		.cfi_def_cfa_offset 32
 1345              		.cfi_offset 4, -24
 1346              		.cfi_offset 5, -20
 1347              		.cfi_offset 6, -16
 1348              		.cfi_offset 7, -12
 1349              		.cfi_offset 8, -8
 1350              		.cfi_offset 14, -4
 1351              	@ ../8-LCD-TEMP-STP_Motor_IR/main.c:212: 	RCC->APB2ENR |= (1<<3); // En GPIOC
 212:../8-LCD-TEMP-STP_Motor_IR/main.c **** 	GPIOB->CRH	|= (0x3333<< 16); 
 1352              		.loc 1 212 15 view .LVU333
 1353 03f2 9369     		ldr	r3, [r2, #24]	@ _2, MEM[(struct RCC_TypeDef *)1073876992B].APB2ENR
 1354              	@ ../8-LCD-TEMP-STP_Motor_IR/main.c:219: 		if (xQueueReceive(IR_Data_queue, &code_ir, 0)) {
 219:../8-LCD-TEMP-STP_Motor_IR/main.c **** 
 1355              		.loc 1 219 7 view .LVU334
 1356 03f4 194D     		ldr	r5, .L93+4	@ tmp132,
 1357              	@ ../8-LCD-TEMP-STP_Motor_IR/main.c:212: 	RCC->APB2ENR |= (1<<3); // En GPIOC
 212:../8-LCD-TEMP-STP_Motor_IR/main.c **** 	GPIOB->CRH	|= (0x3333<< 16); 
 1358              		.loc 1 212 15 view .LVU335
 1359 03f6 43F00803 		orr	r3, r3, #8	@ _4, _2,
 1360 03fa 9361     		str	r3, [r2, #24]	@ _4, MEM[(struct RCC_TypeDef *)1073876992B].APB2ENR
 213:../8-LCD-TEMP-STP_Motor_IR/main.c **** 	u32 code_ir; 
 1361              		.loc 1 213 2 is_stmt 1 view .LVU336
 1362              	@ ../8-LCD-TEMP-STP_Motor_IR/main.c:213: 	GPIOB->CRH	|= (0x3333<< 16); 
 213:../8-LCD-TEMP-STP_Motor_IR/main.c **** 	u32 code_ir; 
 1363              		.loc 1 213 13 is_stmt 0 view .LVU337
 1364 03fc A2F58232 		sub	r2, r2, #66560	@ tmp128, tmp128,
 1365 0400 5368     		ldr	r3, [r2, #4]	@ _5, MEM[(struct GPIO_TypeDef *)1073810432B].CRH
 1366              	@ ../8-LCD-TEMP-STP_Motor_IR/main.c:221: 			if (code_ir == CR_B7){
 221:../8-LCD-TEMP-STP_Motor_IR/main.c **** 				for (u32 i=0 ; i<=STP *360 ; i++){
 1367              		.loc 1 221 7 view .LVU338
 1368 0402 174E     		ldr	r6, .L93+8	@ tmp133,
 1369              	@ ../8-LCD-TEMP-STP_Motor_IR/main.c:213: 	GPIOB->CRH	|= (0x3333<< 16); 
 213:../8-LCD-TEMP-STP_Motor_IR/main.c **** 	u32 code_ir; 
 1370              		.loc 1 213 13 view .LVU339
 1371 0404 43F04C53 		orr	r3, r3, #855638016	@ _6, _5,
 1372 0408 43F44C13 		orr	r3, r3, #3342336	@ _6, _6,
 1373              	@ ../8-LCD-TEMP-STP_Motor_IR/main.c:227: 			if (code_ir == CR_B8){
 227:../8-LCD-TEMP-STP_Motor_IR/main.c **** 				for (u32 i=STP  *360+90 ; i>0 ; i--){
 1374              		.loc 1 227 7 view .LVU340
 1375 040c 154F     		ldr	r7, .L93+12	@ tmp136,
 1376              	@ ../8-LCD-TEMP-STP_Motor_IR/main.c:213: 	GPIOB->CRH	|= (0x3333<< 16); 
 213:../8-LCD-TEMP-STP_Motor_IR/main.c **** 	u32 code_ir; 
 1377              		.loc 1 213 13 view .LVU341
 1378 040e 5360     		str	r3, [r2, #4]	@ _6, MEM[(struct GPIO_TypeDef *)1073810432B].CRH
 1379              	.LVL56:
 1380              	.L82:
 214:../8-LCD-TEMP-STP_Motor_IR/main.c **** 
 1381              		.loc 1 214 2 is_stmt 1 view .LVU342
 218:../8-LCD-TEMP-STP_Motor_IR/main.c **** 		if (xQueueReceive(IR_Data_queue, &code_ir, 0)) {
 1382              		.loc 1 218 2 view .LVU343
 219:../8-LCD-TEMP-STP_Motor_IR/main.c **** 
 1383              		.loc 1 219 3 view .LVU344
 1384              	@ ../8-LCD-TEMP-STP_Motor_IR/main.c:219: 		if (xQueueReceive(IR_Data_queue, &code_ir, 0)) {
 219:../8-LCD-TEMP-STP_Motor_IR/main.c **** 
 1385              		.loc 1 219 7 is_stmt 0 view .LVU345
 1386 0410 0022     		movs	r2, #0	@,
 1387 0412 6868     		ldr	r0, [r5, #4]	@, IR_Data_queue
ARM GAS  /tmp/ccaJFhKP.s 			page 38


 1388 0414 01A9     		add	r1, sp, #4	@ tmp143,,
 1389 0416 FFF7FEFF 		bl	xQueueReceive		@
 1390              	.LVL57:
 1391              	@ ../8-LCD-TEMP-STP_Motor_IR/main.c:219: 		if (xQueueReceive(IR_Data_queue, &code_ir, 0)) {
 219:../8-LCD-TEMP-STP_Motor_IR/main.c **** 
 1392              		.loc 1 219 6 view .LVU346
 1393 041a 0028     		cmp	r0, #0	@ tmp141
 1394 041c F8D0     		beq	.L82	@
 221:../8-LCD-TEMP-STP_Motor_IR/main.c **** 				for (u32 i=0 ; i<=STP *360 ; i++){
 1395              		.loc 1 221 4 is_stmt 1 view .LVU347
 1396              	@ ../8-LCD-TEMP-STP_Motor_IR/main.c:221: 			if (code_ir == CR_B7){
 221:../8-LCD-TEMP-STP_Motor_IR/main.c **** 				for (u32 i=0 ; i<=STP *360 ; i++){
 1397              		.loc 1 221 7 is_stmt 0 view .LVU348
 1398 041e 019B     		ldr	r3, [sp, #4]	@ code_ir, code_ir
 1399 0420 B342     		cmp	r3, r6	@ code_ir, tmp133
 1400 0422 0BD1     		bne	.L83		@,
 1401              	.LBB17:
 1402              	@ ../8-LCD-TEMP-STP_Motor_IR/main.c:222: 				for (u32 i=0 ; i<=STP *360 ; i++){
 222:../8-LCD-TEMP-STP_Motor_IR/main.c **** 					controlarMotorPasso(i);
 1403              		.loc 1 222 14 view .LVU349
 1404 0424 0024     		movs	r4, #0	@ i,
 1405              	@ ../8-LCD-TEMP-STP_Motor_IR/main.c:222: 				for (u32 i=0 ; i<=STP *360 ; i++){
 222:../8-LCD-TEMP-STP_Motor_IR/main.c **** 					controlarMotorPasso(i);
 1406              		.loc 1 222 5 view .LVU350
 1407 0426 40F67108 		movw	r8, #2161	@ tmp135,
 1408              	.L84:
 1409              	.LVL58:
 223:../8-LCD-TEMP-STP_Motor_IR/main.c **** 					__delay(140);
 1410              		.loc 1 223 6 is_stmt 1 discriminator 3 view .LVU351
 1411 042a 2046     		mov	r0, r4	@, i
 1412 042c FFF7FEFF 		bl	controlarMotorPasso		@
 1413              	.LVL59:
 224:../8-LCD-TEMP-STP_Motor_IR/main.c **** 				}
 1414              		.loc 1 224 6 discriminator 3 view .LVU352
 1415              	@ ../8-LCD-TEMP-STP_Motor_IR/main.c:222: 				for (u32 i=0 ; i<=STP *360 ; i++){
 222:../8-LCD-TEMP-STP_Motor_IR/main.c **** 					controlarMotorPasso(i);
 1416              		.loc 1 222 35 is_stmt 0 discriminator 3 view .LVU353
 1417 0430 0134     		adds	r4, r4, #1	@ i, i,
 1418              	.LVL60:
 1419              	@ ../8-LCD-TEMP-STP_Motor_IR/main.c:224: 					__delay(140);
 224:../8-LCD-TEMP-STP_Motor_IR/main.c **** 				}
 1420              		.loc 1 224 6 discriminator 3 view .LVU354
 1421 0432 8C20     		movs	r0, #140	@,
 1422 0434 FFF7FEFF 		bl	vTaskDelay		@
 1423              	.LVL61:
 222:../8-LCD-TEMP-STP_Motor_IR/main.c **** 					controlarMotorPasso(i);
 1424              		.loc 1 222 34 is_stmt 1 discriminator 3 view .LVU355
 222:../8-LCD-TEMP-STP_Motor_IR/main.c **** 					controlarMotorPasso(i);
 1425              		.loc 1 222 20 discriminator 3 view .LVU356
 1426              	@ ../8-LCD-TEMP-STP_Motor_IR/main.c:222: 				for (u32 i=0 ; i<=STP *360 ; i++){
 222:../8-LCD-TEMP-STP_Motor_IR/main.c **** 					controlarMotorPasso(i);
 1427              		.loc 1 222 5 is_stmt 0 discriminator 3 view .LVU357
 1428 0438 4445     		cmp	r4, r8	@ i, tmp135
 1429 043a F6D1     		bne	.L84		@,
 1430              	.LVL62:
 1431              	.L83:
 222:../8-LCD-TEMP-STP_Motor_IR/main.c **** 					controlarMotorPasso(i);
ARM GAS  /tmp/ccaJFhKP.s 			page 39


 1432              		.loc 1 222 5 discriminator 3 view .LVU358
 1433              	.LBE17:
 227:../8-LCD-TEMP-STP_Motor_IR/main.c **** 				for (u32 i=STP  *360+90 ; i>0 ; i--){
 1434              		.loc 1 227 4 is_stmt 1 view .LVU359
 1435              	@ ../8-LCD-TEMP-STP_Motor_IR/main.c:227: 			if (code_ir == CR_B8){
 227:../8-LCD-TEMP-STP_Motor_IR/main.c **** 				for (u32 i=STP  *360+90 ; i>0 ; i--){
 1436              		.loc 1 227 7 is_stmt 0 view .LVU360
 1437 043c 019B     		ldr	r3, [sp, #4]	@ code_ir, code_ir
 1438 043e BB42     		cmp	r3, r7	@ code_ir, tmp136
 1439 0440 E6D1     		bne	.L82		@,
 1440              	.LBB18:
 1441              	@ ../8-LCD-TEMP-STP_Motor_IR/main.c:228: 				for (u32 i=STP  *360+90 ; i>0 ; i--){
 228:../8-LCD-TEMP-STP_Motor_IR/main.c **** 					controlarMotorPasso(i);
 1442              		.loc 1 228 14 view .LVU361
 1443 0442 40F6CA04 		movw	r4, #2250	@ i,
 1444              	.L86:
 1445              	.LVL63:
 229:../8-LCD-TEMP-STP_Motor_IR/main.c **** 					__delay(130);
 1446              		.loc 1 229 6 is_stmt 1 discriminator 3 view .LVU362
 1447 0446 2046     		mov	r0, r4	@, i
 1448 0448 FFF7FEFF 		bl	controlarMotorPasso		@
 1449              	.LVL64:
 230:../8-LCD-TEMP-STP_Motor_IR/main.c **** 				}
 1450              		.loc 1 230 6 discriminator 3 view .LVU363
 1451 044c 8220     		movs	r0, #130	@,
 1452 044e FFF7FEFF 		bl	vTaskDelay		@
 1453              	.LVL65:
 228:../8-LCD-TEMP-STP_Motor_IR/main.c **** 					controlarMotorPasso(i);
 1454              		.loc 1 228 37 discriminator 3 view .LVU364
 228:../8-LCD-TEMP-STP_Motor_IR/main.c **** 					controlarMotorPasso(i);
 1455              		.loc 1 228 31 discriminator 3 view .LVU365
 1456              	@ ../8-LCD-TEMP-STP_Motor_IR/main.c:228: 				for (u32 i=STP  *360+90 ; i>0 ; i--){
 228:../8-LCD-TEMP-STP_Motor_IR/main.c **** 					controlarMotorPasso(i);
 1457              		.loc 1 228 5 is_stmt 0 discriminator 3 view .LVU366
 1458 0452 013C     		subs	r4, r4, #1	@ i, i,
 1459              	.LVL66:
 228:../8-LCD-TEMP-STP_Motor_IR/main.c **** 					controlarMotorPasso(i);
 1460              		.loc 1 228 5 discriminator 3 view .LVU367
 1461 0454 F7D1     		bne	.L86		@,
 1462 0456 DBE7     		b	.L82		@
 1463              	.L94:
 1464              		.align	2
 1465              	.L93:
 1466 0458 00100240 		.word	1073876992
 1467 045c 00000000 		.word	.LANCHOR0
 1468 0460 B9FAE7FF 		.word	-1574215
 1469 0464 F9FBE7FF 		.word	-1573895
 1470              	.LBE18:
 1471              		.cfi_endproc
 1472              	.LFE54:
 1473              		.size	task4, .-task4
 1474              		.align	1
 1475              		.global	USART_init
 1476              		.syntax unified
 1477              		.thumb
 1478              		.thumb_func
 1479              		.type	USART_init, %function
ARM GAS  /tmp/ccaJFhKP.s 			page 40


 1480              	USART_init:
 1481              	.LFB44:
 1482              		.file 3 "../8-LCD-TEMP-STP_Motor_IR/Serial.h"
   1:../8-LCD-TEMP-STP_Motor_IR/Serial.h **** // #ifndef	SERIAL_K
   2:../8-LCD-TEMP-STP_Motor_IR/Serial.h **** // #define 	SERIAL_K
   3:../8-LCD-TEMP-STP_Motor_IR/Serial.h **** 
   4:../8-LCD-TEMP-STP_Motor_IR/Serial.h **** void USARTSend(char *pucBuffer);
   5:../8-LCD-TEMP-STP_Motor_IR/Serial.h **** void USART_init(void);
   6:../8-LCD-TEMP-STP_Motor_IR/Serial.h **** 
   7:../8-LCD-TEMP-STP_Motor_IR/Serial.h **** void USART_init(void) {
 1483              		.loc 3 7 23 is_stmt 1 view -0
 1484              		.cfi_startproc
 1485              		@ args = 0, pretend = 0, frame = 24
 1486              		@ frame_needed = 0, uses_anonymous_args = 0
   8:../8-LCD-TEMP-STP_Motor_IR/Serial.h ****    /* Enable USART1 and GPIOA clock */
   9:../8-LCD-TEMP-STP_Motor_IR/Serial.h ****    RCC_APB2PeriphClockCmd(RCC_APB2Periph_USART1 | RCC_APB2Periph_GPIOA, ENABLE);
 1487              		.loc 3 9 4 view .LVU369
 1488              	@ ../8-LCD-TEMP-STP_Motor_IR/Serial.h:7: void USART_init(void) {
   7:../8-LCD-TEMP-STP_Motor_IR/Serial.h ****    /* Enable USART1 and GPIOA clock */
 1489              		.loc 3 7 23 is_stmt 0 view .LVU370
 1490 0468 10B5     		push	{r4, lr}	@
 1491              	.LCFI8:
 1492              		.cfi_def_cfa_offset 8
 1493              		.cfi_offset 4, -8
 1494              		.cfi_offset 14, -4
 1495              	@ ../8-LCD-TEMP-STP_Motor_IR/Serial.h:9:    RCC_APB2PeriphClockCmd(RCC_APB2Periph_USART1 | RCC_APB2
 1496              		.loc 3 9 4 view .LVU371
 1497 046a 0121     		movs	r1, #1	@,
 1498              	@ ../8-LCD-TEMP-STP_Motor_IR/Serial.h:7: void USART_init(void) {
   7:../8-LCD-TEMP-STP_Motor_IR/Serial.h ****    /* Enable USART1 and GPIOA clock */
 1499              		.loc 3 7 23 view .LVU372
 1500 046c 86B0     		sub	sp, sp, #24	@,,
 1501              	.LCFI9:
 1502              		.cfi_def_cfa_offset 32
 1503              	@ ../8-LCD-TEMP-STP_Motor_IR/Serial.h:9:    RCC_APB2PeriphClockCmd(RCC_APB2Periph_USART1 | RCC_APB2
 1504              		.loc 3 9 4 view .LVU373
 1505 046e 44F20400 		movw	r0, #16388	@,
 1506 0472 FFF7FEFF 		bl	RCC_APB2PeriphClockCmd		@
 1507              	.LVL67:
  10:../8-LCD-TEMP-STP_Motor_IR/Serial.h **** 
  11:../8-LCD-TEMP-STP_Motor_IR/Serial.h ****    /* Configure the GPIOs */
  12:../8-LCD-TEMP-STP_Motor_IR/Serial.h ****    GPIO_InitTypeDef GPIO_InitStructure;
 1508              		.loc 3 12 4 is_stmt 1 view .LVU374
  13:../8-LCD-TEMP-STP_Motor_IR/Serial.h **** 
  14:../8-LCD-TEMP-STP_Motor_IR/Serial.h ****    /* Configure USART1 Tx (PA.09) as alternate function push-pull */
  15:../8-LCD-TEMP-STP_Motor_IR/Serial.h ****    GPIO_InitStructure.GPIO_Pin = GPIO_Pin_9;
 1509              		.loc 3 15 4 view .LVU375
  16:../8-LCD-TEMP-STP_Motor_IR/Serial.h ****    GPIO_InitStructure.GPIO_Mode = GPIO_Mode_AF_PP;
 1510              		.loc 3 16 4 view .LVU376
  17:../8-LCD-TEMP-STP_Motor_IR/Serial.h ****    GPIO_InitStructure.GPIO_Speed = GPIO_Speed_50MHz;
 1511              		.loc 3 17 4 view .LVU377
 1512              	@ ../8-LCD-TEMP-STP_Motor_IR/Serial.h:15:    GPIO_InitStructure.GPIO_Pin = GPIO_Pin_9;
  15:../8-LCD-TEMP-STP_Motor_IR/Serial.h ****    GPIO_InitStructure.GPIO_Mode = GPIO_Mode_AF_PP;
 1513              		.loc 3 15 32 is_stmt 0 view .LVU378
 1514 0476 4FF40073 		mov	r3, #512	@ tmp114,
 1515 047a ADF80430 		strh	r3, [sp, #4]	@ movhi	@ tmp114, GPIO_InitStructure.GPIO_Pin
 1516              	@ ../8-LCD-TEMP-STP_Motor_IR/Serial.h:17:    GPIO_InitStructure.GPIO_Speed = GPIO_Speed_50MHz;
ARM GAS  /tmp/ccaJFhKP.s 			page 41


 1517              		.loc 3 17 34 view .LVU379
 1518 047e 41F60303 		movw	r3, #6147	@ tmp116,
 1519              	@ ../8-LCD-TEMP-STP_Motor_IR/Serial.h:18:    GPIO_Init(GPIOA, &GPIO_InitStructure);
  18:../8-LCD-TEMP-STP_Motor_IR/Serial.h ****    GPIO_Init(GPIOA, &GPIO_InitStructure);
 1520              		.loc 3 18 4 view .LVU380
 1521 0482 144C     		ldr	r4, .L96	@ tmp118,
 1522 0484 01A9     		add	r1, sp, #4	@ tmp134,,
 1523 0486 2046     		mov	r0, r4	@, tmp118
 1524              	@ ../8-LCD-TEMP-STP_Motor_IR/Serial.h:17:    GPIO_InitStructure.GPIO_Speed = GPIO_Speed_50MHz;
  17:../8-LCD-TEMP-STP_Motor_IR/Serial.h ****    GPIO_InitStructure.GPIO_Speed = GPIO_Speed_50MHz;
 1525              		.loc 3 17 34 view .LVU381
 1526 0488 ADF80630 		strh	r3, [sp, #6]	@ movhi	@ tmp116, MEM <unsigned short> [(void *)&GPIO_InitStructure + 2B]
 1527              		.loc 3 18 4 is_stmt 1 view .LVU382
 1528 048c FFF7FEFF 		bl	GPIO_Init		@
 1529              	.LVL68:
  19:../8-LCD-TEMP-STP_Motor_IR/Serial.h **** 
  20:../8-LCD-TEMP-STP_Motor_IR/Serial.h ****    /* Configure USART1 Rx (PA.10) as input floating */
  21:../8-LCD-TEMP-STP_Motor_IR/Serial.h ****    GPIO_InitStructure.GPIO_Pin = GPIO_Pin_10;
 1530              		.loc 3 21 4 view .LVU383
 1531              	@ ../8-LCD-TEMP-STP_Motor_IR/Serial.h:21:    GPIO_InitStructure.GPIO_Pin = GPIO_Pin_10;
 1532              		.loc 3 21 32 is_stmt 0 view .LVU384
 1533 0490 4FF48063 		mov	r3, #1024	@ tmp120,
 1534 0494 ADF80430 		strh	r3, [sp, #4]	@ movhi	@ tmp120, GPIO_InitStructure.GPIO_Pin
  22:../8-LCD-TEMP-STP_Motor_IR/Serial.h ****    GPIO_InitStructure.GPIO_Mode = GPIO_Mode_IN_FLOATING;
 1535              		.loc 3 22 4 is_stmt 1 view .LVU385
 1536              	@ ../8-LCD-TEMP-STP_Motor_IR/Serial.h:22:    GPIO_InitStructure.GPIO_Mode = GPIO_Mode_IN_FLOATING;
 1537              		.loc 3 22 33 is_stmt 0 view .LVU386
 1538 0498 0423     		movs	r3, #4	@ tmp121,
 1539              	@ ../8-LCD-TEMP-STP_Motor_IR/Serial.h:23:    GPIO_Init(GPIOA, &GPIO_InitStructure);
  23:../8-LCD-TEMP-STP_Motor_IR/Serial.h ****    GPIO_Init(GPIOA, &GPIO_InitStructure);
 1540              		.loc 3 23 4 view .LVU387
 1541 049a 2046     		mov	r0, r4	@, tmp118
 1542 049c 0DEB0301 		add	r1, sp, r3	@ tmp135,,
 1543              	@ ../8-LCD-TEMP-STP_Motor_IR/Serial.h:22:    GPIO_InitStructure.GPIO_Mode = GPIO_Mode_IN_FLOATING;
  22:../8-LCD-TEMP-STP_Motor_IR/Serial.h ****    GPIO_InitStructure.GPIO_Mode = GPIO_Mode_IN_FLOATING;
 1544              		.loc 3 22 33 view .LVU388
 1545 04a0 8DF80730 		strb	r3, [sp, #7]	@ tmp121, GPIO_InitStructure.GPIO_Mode
 1546              		.loc 3 23 4 is_stmt 1 view .LVU389
 1547 04a4 FFF7FEFF 		bl	GPIO_Init		@
 1548              	.LVL69:
  24:../8-LCD-TEMP-STP_Motor_IR/Serial.h **** 
  25:../8-LCD-TEMP-STP_Motor_IR/Serial.h ****    /* Configure the USART1 */
  26:../8-LCD-TEMP-STP_Motor_IR/Serial.h ****    USART_InitTypeDef USART_InitStructure;
 1549              		.loc 3 26 4 view .LVU390
  27:../8-LCD-TEMP-STP_Motor_IR/Serial.h ****    USART_InitStructure.USART_BaudRate = 115200;
 1550              		.loc 3 27 4 view .LVU391
  28:../8-LCD-TEMP-STP_Motor_IR/Serial.h ****    USART_InitStructure.USART_WordLength = USART_WordLength_8b;
 1551              		.loc 3 28 4 view .LVU392
  29:../8-LCD-TEMP-STP_Motor_IR/Serial.h ****    USART_InitStructure.USART_StopBits = USART_StopBits_1;
 1552              		.loc 3 29 4 view .LVU393
  30:../8-LCD-TEMP-STP_Motor_IR/Serial.h ****    USART_InitStructure.USART_Parity = USART_Parity_No;
 1553              		.loc 3 30 4 view .LVU394
  31:../8-LCD-TEMP-STP_Motor_IR/Serial.h ****    USART_InitStructure.USART_HardwareFlowControl = USART_HardwareFlowControl_None;
 1554              		.loc 3 31 4 view .LVU395
  32:../8-LCD-TEMP-STP_Motor_IR/Serial.h ****    USART_InitStructure.USART_Mode = USART_Mode_Rx | USART_Mode_Tx;
 1555              		.loc 3 32 4 view .LVU396
 1556              	@ ../8-LCD-TEMP-STP_Motor_IR/Serial.h:28:    USART_InitStructure.USART_WordLength = USART_WordLengt
ARM GAS  /tmp/ccaJFhKP.s 			page 42


  28:../8-LCD-TEMP-STP_Motor_IR/Serial.h ****    USART_InitStructure.USART_StopBits = USART_StopBits_1;
 1557              		.loc 3 28 41 is_stmt 0 view .LVU397
 1558 04a8 0023     		movs	r3, #0	@ tmp126,
 1559 04aa 4FF4E132 		mov	r2, #115200	@,
 1560 04ae CDE90223 		strd	r2, r3, [sp, #8]	@, tmp126,,
 1561              	@ ../8-LCD-TEMP-STP_Motor_IR/Serial.h:30:    USART_InitStructure.USART_Parity = USART_Parity_No;
  30:../8-LCD-TEMP-STP_Motor_IR/Serial.h ****    USART_InitStructure.USART_HardwareFlowControl = USART_HardwareFlowControl_None;
 1562              		.loc 3 30 37 view .LVU398
 1563 04b2 4FF44022 		mov	r2, #786432	@ tmp127,
 1564              	@ ../8-LCD-TEMP-STP_Motor_IR/Serial.h:34:    USART_Init(USART1, &USART_InitStructure);
  33:../8-LCD-TEMP-STP_Motor_IR/Serial.h **** 
  34:../8-LCD-TEMP-STP_Motor_IR/Serial.h ****    USART_Init(USART1, &USART_InitStructure);
 1565              		.loc 3 34 4 view .LVU399
 1566 04b6 04F54054 		add	r4, r4, #12288	@ tmp131, tmp131,
 1567 04ba 2046     		mov	r0, r4	@, tmp131
 1568 04bc 02A9     		add	r1, sp, #8	@,,
 1569              	@ ../8-LCD-TEMP-STP_Motor_IR/Serial.h:30:    USART_InitStructure.USART_Parity = USART_Parity_No;
  30:../8-LCD-TEMP-STP_Motor_IR/Serial.h ****    USART_InitStructure.USART_HardwareFlowControl = USART_HardwareFlowControl_None;
 1570              		.loc 3 30 37 view .LVU400
 1571 04be 0492     		str	r2, [sp, #16]	@ tmp127, MEM <unsigned int> [(short unsigned int *)&USART_InitStructure + 8B]
 1572              	@ ../8-LCD-TEMP-STP_Motor_IR/Serial.h:31:    USART_InitStructure.USART_HardwareFlowControl = USART_
  31:../8-LCD-TEMP-STP_Motor_IR/Serial.h ****    USART_InitStructure.USART_Mode = USART_Mode_Rx | USART_Mode_Tx;
 1573              		.loc 3 31 50 view .LVU401
 1574 04c0 ADF81430 		strh	r3, [sp, #20]	@ movhi	@ tmp126, USART_InitStructure.USART_HardwareFlowControl
 1575              		.loc 3 34 4 is_stmt 1 view .LVU402
 1576 04c4 FFF7FEFF 		bl	USART_Init		@
 1577              	.LVL70:
  35:../8-LCD-TEMP-STP_Motor_IR/Serial.h **** 
  36:../8-LCD-TEMP-STP_Motor_IR/Serial.h ****    /* Enable USART1 */
  37:../8-LCD-TEMP-STP_Motor_IR/Serial.h ****    USART_Cmd(USART1, ENABLE);
 1578              		.loc 3 37 4 view .LVU403
 1579 04c8 0121     		movs	r1, #1	@,
 1580 04ca 2046     		mov	r0, r4	@, tmp131
 1581 04cc FFF7FEFF 		bl	USART_Cmd		@
 1582              	.LVL71:
 1583              	@ ../8-LCD-TEMP-STP_Motor_IR/Serial.h:38: }
  38:../8-LCD-TEMP-STP_Motor_IR/Serial.h **** }
 1584              		.loc 3 38 1 is_stmt 0 view .LVU404
 1585 04d0 06B0     		add	sp, sp, #24	@,,
 1586              	.LCFI10:
 1587              		.cfi_def_cfa_offset 8
 1588              		@ sp needed	@
 1589 04d2 10BD     		pop	{r4, pc}	@
 1590              	.L97:
 1591              		.align	2
 1592              	.L96:
 1593 04d4 00080140 		.word	1073809408
 1594              		.cfi_endproc
 1595              	.LFE44:
 1596              		.size	USART_init, .-USART_init
 1597              		.align	1
 1598              		.global	USARTSend
 1599              		.syntax unified
 1600              		.thumb
 1601              		.thumb_func
 1602              		.type	USARTSend, %function
 1603              	USARTSend:
ARM GAS  /tmp/ccaJFhKP.s 			page 43


 1604              	.LVL72:
 1605              	.LFB45:
  39:../8-LCD-TEMP-STP_Motor_IR/Serial.h **** 
  40:../8-LCD-TEMP-STP_Motor_IR/Serial.h **** void USARTSend(char *pucBuffer) {
 1606              		.loc 3 40 33 is_stmt 1 view -0
 1607              		.cfi_startproc
 1608              		@ args = 0, pretend = 0, frame = 0
 1609              		@ frame_needed = 0, uses_anonymous_args = 0
  41:../8-LCD-TEMP-STP_Motor_IR/Serial.h ****     while (*pucBuffer)
 1610              		.loc 3 41 5 view .LVU406
 1611              	@ ../8-LCD-TEMP-STP_Motor_IR/Serial.h:40: void USARTSend(char *pucBuffer) {
  40:../8-LCD-TEMP-STP_Motor_IR/Serial.h ****     while (*pucBuffer)
 1612              		.loc 3 40 33 is_stmt 0 view .LVU407
 1613 04d8 38B5     		push	{r3, r4, r5, lr}	@
 1614              	.LCFI11:
 1615              		.cfi_def_cfa_offset 16
 1616              		.cfi_offset 3, -16
 1617              		.cfi_offset 4, -12
 1618              		.cfi_offset 5, -8
 1619              		.cfi_offset 14, -4
 1620              	@ ../8-LCD-TEMP-STP_Motor_IR/Serial.h:43:         USART_SendData(USART1, *pucBuffer++);
  42:../8-LCD-TEMP-STP_Motor_IR/Serial.h ****     {
  43:../8-LCD-TEMP-STP_Motor_IR/Serial.h ****         USART_SendData(USART1, *pucBuffer++);
 1621              		.loc 3 43 9 view .LVU408
 1622 04da 084D     		ldr	r5, .L104	@ tmp126,
 1623 04dc 441E     		subs	r4, r0, #1	@ ivtmp.148, tmp128,
 1624              	.LVL73:
 1625              	.L99:
  41:../8-LCD-TEMP-STP_Motor_IR/Serial.h ****     {
 1626              		.loc 3 41 11 is_stmt 1 view .LVU409
 1627              	@ ../8-LCD-TEMP-STP_Motor_IR/Serial.h:41:     while (*pucBuffer)
  41:../8-LCD-TEMP-STP_Motor_IR/Serial.h ****     {
 1628              		.loc 3 41 12 is_stmt 0 view .LVU410
 1629 04de 14F8011F 		ldrb	r1, [r4, #1]!	@ zero_extendqisi2	@ _3, MEM[base: _16, offset: 0B]
 1630              	.LVL74:
 1631              	@ ../8-LCD-TEMP-STP_Motor_IR/Serial.h:41:     while (*pucBuffer)
  41:../8-LCD-TEMP-STP_Motor_IR/Serial.h ****     {
 1632              		.loc 3 41 11 view .LVU411
 1633 04e2 01B9     		cbnz	r1, .L101	@ _3,
 1634              	@ ../8-LCD-TEMP-STP_Motor_IR/Serial.h:48: }
  44:../8-LCD-TEMP-STP_Motor_IR/Serial.h ****         while(USART_GetFlagStatus(USART1, USART_FLAG_TC) == RESET)
  45:../8-LCD-TEMP-STP_Motor_IR/Serial.h ****         {
  46:../8-LCD-TEMP-STP_Motor_IR/Serial.h ****         }
  47:../8-LCD-TEMP-STP_Motor_IR/Serial.h ****     }
  48:../8-LCD-TEMP-STP_Motor_IR/Serial.h **** }
 1635              		.loc 3 48 1 view .LVU412
 1636 04e4 38BD     		pop	{r3, r4, r5, pc}	@
 1637              	.LVL75:
 1638              	.L101:
  43:../8-LCD-TEMP-STP_Motor_IR/Serial.h ****         while(USART_GetFlagStatus(USART1, USART_FLAG_TC) == RESET)
 1639              		.loc 3 43 9 is_stmt 1 view .LVU413
  43:../8-LCD-TEMP-STP_Motor_IR/Serial.h ****         while(USART_GetFlagStatus(USART1, USART_FLAG_TC) == RESET)
 1640              		.loc 3 43 9 is_stmt 0 view .LVU414
 1641 04e6 2846     		mov	r0, r5	@, tmp126
 1642 04e8 FFF7FEFF 		bl	USART_SendData		@
 1643              	.LVL76:
  44:../8-LCD-TEMP-STP_Motor_IR/Serial.h ****         while(USART_GetFlagStatus(USART1, USART_FLAG_TC) == RESET)
ARM GAS  /tmp/ccaJFhKP.s 			page 44


 1644              		.loc 3 44 9 is_stmt 1 view .LVU415
 1645              	.L100:
  46:../8-LCD-TEMP-STP_Motor_IR/Serial.h ****     }
 1646              		.loc 3 46 9 discriminator 1 view .LVU416
  44:../8-LCD-TEMP-STP_Motor_IR/Serial.h ****         while(USART_GetFlagStatus(USART1, USART_FLAG_TC) == RESET)
 1647              		.loc 3 44 14 discriminator 1 view .LVU417
 1648              	@ ../8-LCD-TEMP-STP_Motor_IR/Serial.h:44:         while(USART_GetFlagStatus(USART1, USART_FLAG_TC) 
  44:../8-LCD-TEMP-STP_Motor_IR/Serial.h ****         while(USART_GetFlagStatus(USART1, USART_FLAG_TC) == RESET)
 1649              		.loc 3 44 15 is_stmt 0 discriminator 1 view .LVU418
 1650 04ec 4021     		movs	r1, #64	@,
 1651 04ee 2846     		mov	r0, r5	@, tmp126
 1652 04f0 FFF7FEFF 		bl	USART_GetFlagStatus		@
 1653              	.LVL77:
 1654              	@ ../8-LCD-TEMP-STP_Motor_IR/Serial.h:44:         while(USART_GetFlagStatus(USART1, USART_FLAG_TC) 
  44:../8-LCD-TEMP-STP_Motor_IR/Serial.h ****         while(USART_GetFlagStatus(USART1, USART_FLAG_TC) == RESET)
 1655              		.loc 3 44 14 discriminator 1 view .LVU419
 1656 04f4 0028     		cmp	r0, #0	@ tmp129
 1657 04f6 F9D0     		beq	.L100	@
 1658 04f8 F1E7     		b	.L99		@
 1659              	.L105:
 1660 04fa 00BF     		.align	2
 1661              	.L104:
 1662 04fc 00380140 		.word	1073821696
 1663              		.cfi_endproc
 1664              	.LFE45:
 1665              		.size	USARTSend, .-USARTSend
 1666              		.align	1
 1667              		.global	ADC9_Configuration
 1668              		.syntax unified
 1669              		.thumb
 1670              		.thumb_func
 1671              		.type	ADC9_Configuration, %function
 1672              	ADC9_Configuration:
 1673              	.LFB46:
 1674              		.file 4 "../8-LCD-TEMP-STP_Motor_IR/adc.h"
   1:../8-LCD-TEMP-STP_Motor_IR/adc.h **** 
   2:../8-LCD-TEMP-STP_Motor_IR/adc.h **** void ADC9_Configuration()
   3:../8-LCD-TEMP-STP_Motor_IR/adc.h **** {
 1675              		.loc 4 3 1 is_stmt 1 view -0
 1676              		.cfi_startproc
 1677              		@ args = 0, pretend = 0, frame = 0
 1678              		@ frame_needed = 0, uses_anonymous_args = 0
 1679              		@ link register save eliminated.
   4:../8-LCD-TEMP-STP_Motor_IR/adc.h ****     // Habilitar o clock do ADC9
   5:../8-LCD-TEMP-STP_Motor_IR/adc.h ****     RCC->APB2ENR |= RCC_APB2ENR_ADC2EN;
 1680              		.loc 4 5 5 view .LVU421
 1681              	@ ../8-LCD-TEMP-STP_Motor_IR/adc.h:5:     RCC->APB2ENR |= RCC_APB2ENR_ADC2EN;
 1682              		.loc 4 5 18 is_stmt 0 view .LVU422
 1683 0500 174B     		ldr	r3, .L109	@ tmp135,
 1684 0502 9A69     		ldr	r2, [r3, #24]	@ _1, MEM[(struct RCC_TypeDef *)1073876992B].APB2ENR
 1685 0504 42F48062 		orr	r2, r2, #1024	@ _2, _1,
 1686 0508 9A61     		str	r2, [r3, #24]	@ _2, MEM[(struct RCC_TypeDef *)1073876992B].APB2ENR
   6:../8-LCD-TEMP-STP_Motor_IR/adc.h ****     RCC->APB2ENR |= (1<<3);
 1687              		.loc 4 6 5 is_stmt 1 view .LVU423
 1688              	@ ../8-LCD-TEMP-STP_Motor_IR/adc.h:6:     RCC->APB2ENR |= (1<<3);
 1689              		.loc 4 6 18 is_stmt 0 view .LVU424
 1690 050a 9A69     		ldr	r2, [r3, #24]	@ _3, MEM[(struct RCC_TypeDef *)1073876992B].APB2ENR
ARM GAS  /tmp/ccaJFhKP.s 			page 45


 1691 050c 42F00802 		orr	r2, r2, #8	@ _4, _3,
 1692 0510 9A61     		str	r2, [r3, #24]	@ _4, MEM[(struct RCC_TypeDef *)1073876992B].APB2ENR
   7:../8-LCD-TEMP-STP_Motor_IR/adc.h **** 
   8:../8-LCD-TEMP-STP_Motor_IR/adc.h ****     // Configurar o pino PB1 como entrada analógica
   9:../8-LCD-TEMP-STP_Motor_IR/adc.h ****     GPIOB->CRL &= ~(GPIO_CRL_MODE1 | GPIO_CRL_CNF1);
 1693              		.loc 4 9 5 is_stmt 1 view .LVU425
 1694              	@ ../8-LCD-TEMP-STP_Motor_IR/adc.h:9:     GPIOB->CRL &= ~(GPIO_CRL_MODE1 | GPIO_CRL_CNF1);
 1695              		.loc 4 9 16 is_stmt 0 view .LVU426
 1696 0512 144A     		ldr	r2, .L109+4	@ tmp139,
 1697 0514 1368     		ldr	r3, [r2]	@ _5, MEM[(struct GPIO_TypeDef *)1073810432B].CRL
 1698 0516 23F0F003 		bic	r3, r3, #240	@ _6, _5,
 1699 051a 1360     		str	r3, [r2]	@ _6, MEM[(struct GPIO_TypeDef *)1073810432B].CRL
  10:../8-LCD-TEMP-STP_Motor_IR/adc.h ****     // GPIOB->CRL |= GPIO_CRL_CNF1_0;
  11:../8-LCD-TEMP-STP_Motor_IR/adc.h **** 
  12:../8-LCD-TEMP-STP_Motor_IR/adc.h ****     // Configurar as seguintes opções para o ADC9:
  13:../8-LCD-TEMP-STP_Motor_IR/adc.h ****     // - Modo de operação: modo independente
  14:../8-LCD-TEMP-STP_Motor_IR/adc.h ****     // - Modo de conversão: Contínua
  15:../8-LCD-TEMP-STP_Motor_IR/adc.h ****     // - Resolução: 12 bits
  16:../8-LCD-TEMP-STP_Motor_IR/adc.h ****     // - Fator de divisão do clock: 4 (seleciona um clock ADC de 14 MHz)
  17:../8-LCD-TEMP-STP_Motor_IR/adc.h ****     ADC2->CR1 &= ~(ADC_CR1_DISCEN | ADC_CR1_SCAN);
 1700              		.loc 4 17 5 is_stmt 1 view .LVU427
 1701              	@ ../8-LCD-TEMP-STP_Motor_IR/adc.h:17:     ADC2->CR1 &= ~(ADC_CR1_DISCEN | ADC_CR1_SCAN);
 1702              		.loc 4 17 15 is_stmt 0 view .LVU428
 1703 051c 124B     		ldr	r3, .L109+8	@ tmp141,
 1704 051e 5A68     		ldr	r2, [r3, #4]	@ _7, MEM[(struct ADC_TypeDef *)1073817600B].CR1
 1705 0520 22F41062 		bic	r2, r2, #2304	@ _8, _7,
 1706 0524 5A60     		str	r2, [r3, #4]	@ _8, MEM[(struct ADC_TypeDef *)1073817600B].CR1
  18:../8-LCD-TEMP-STP_Motor_IR/adc.h ****     ADC2->CR1 |= ADC_CR1_EOCIE;
 1707              		.loc 4 18 5 is_stmt 1 view .LVU429
 1708              	@ ../8-LCD-TEMP-STP_Motor_IR/adc.h:18:     ADC2->CR1 |= ADC_CR1_EOCIE;
 1709              		.loc 4 18 15 is_stmt 0 view .LVU430
 1710 0526 5A68     		ldr	r2, [r3, #4]	@ _9, MEM[(struct ADC_TypeDef *)1073817600B].CR1
 1711 0528 42F02002 		orr	r2, r2, #32	@ _10, _9,
 1712 052c 5A60     		str	r2, [r3, #4]	@ _10, MEM[(struct ADC_TypeDef *)1073817600B].CR1
  19:../8-LCD-TEMP-STP_Motor_IR/adc.h ****     ADC2->CR2 &= ~(ADC_CR2_CONT | ADC_CR2_ALIGN | ADC_CR2_EXTSEL | ADC_CR2_EXTTRIG);
 1713              		.loc 4 19 5 is_stmt 1 view .LVU431
 1714              	@ ../8-LCD-TEMP-STP_Motor_IR/adc.h:19:     ADC2->CR2 &= ~(ADC_CR2_CONT | ADC_CR2_ALIGN | ADC_CR2_EX
 1715              		.loc 4 19 15 is_stmt 0 view .LVU432
 1716 052e 9968     		ldr	r1, [r3, #8]	@ _11, MEM[(struct ADC_TypeDef *)1073817600B].CR2
 1717 0530 0E4A     		ldr	r2, .L109+12	@ _12,
 1718 0532 0A40     		ands	r2, r2, r1	@, _12, _12, _11
 1719 0534 9A60     		str	r2, [r3, #8]	@ _12, MEM[(struct ADC_TypeDef *)1073817600B].CR2
  20:../8-LCD-TEMP-STP_Motor_IR/adc.h **** 
  21:../8-LCD-TEMP-STP_Motor_IR/adc.h ****     ADC2->CR2 |= ADC_CR2_ADON | ADC_CR2_CONT | ADC_CR2_RSTCAL;
 1720              		.loc 4 21 5 is_stmt 1 view .LVU433
 1721              	@ ../8-LCD-TEMP-STP_Motor_IR/adc.h:21:     ADC2->CR2 |= ADC_CR2_ADON | ADC_CR2_CONT | ADC_CR2_RSTCA
 1722              		.loc 4 21 15 is_stmt 0 view .LVU434
 1723 0536 9A68     		ldr	r2, [r3, #8]	@ _13, MEM[(struct ADC_TypeDef *)1073817600B].CR2
 1724 0538 42F00B02 		orr	r2, r2, #11	@ _14, _13,
 1725 053c 9A60     		str	r2, [r3, #8]	@ _14, MEM[(struct ADC_TypeDef *)1073817600B].CR2
  22:../8-LCD-TEMP-STP_Motor_IR/adc.h **** 
  23:../8-LCD-TEMP-STP_Motor_IR/adc.h ****     ADC2->SMPR2 |= ADC_SMPR2_SMP9_0 | ADC_SMPR2_SMP9_1;
 1726              		.loc 4 23 5 is_stmt 1 view .LVU435
 1727              	@ ../8-LCD-TEMP-STP_Motor_IR/adc.h:23:     ADC2->SMPR2 |= ADC_SMPR2_SMP9_0 | ADC_SMPR2_SMP9_1;
 1728              		.loc 4 23 17 is_stmt 0 view .LVU436
 1729 053e 1A69     		ldr	r2, [r3, #16]	@ _15, MEM[(struct ADC_TypeDef *)1073817600B].SMPR2
 1730 0540 42F0C052 		orr	r2, r2, #402653184	@ _16, _15,
ARM GAS  /tmp/ccaJFhKP.s 			page 46


 1731 0544 1A61     		str	r2, [r3, #16]	@ _16, MEM[(struct ADC_TypeDef *)1073817600B].SMPR2
  24:../8-LCD-TEMP-STP_Motor_IR/adc.h ****     ADC2->SQR3 |= 9;
 1732              		.loc 4 24 5 is_stmt 1 view .LVU437
 1733              	@ ../8-LCD-TEMP-STP_Motor_IR/adc.h:24:     ADC2->SQR3 |= 9;
 1734              		.loc 4 24 16 is_stmt 0 view .LVU438
 1735 0546 5A6B     		ldr	r2, [r3, #52]	@ _17, MEM[(struct ADC_TypeDef *)1073817600B].SQR3
 1736 0548 42F00902 		orr	r2, r2, #9	@ _18, _17,
 1737 054c 5A63     		str	r2, [r3, #52]	@ _18, MEM[(struct ADC_TypeDef *)1073817600B].SQR3
  25:../8-LCD-TEMP-STP_Motor_IR/adc.h **** 
  26:../8-LCD-TEMP-STP_Motor_IR/adc.h **** 	while(ADC2->CR2 & ADC_CR2_RSTCAL);
 1738              		.loc 4 26 2 is_stmt 1 view .LVU439
 1739              	.L107:
 1740              		.loc 4 26 35 discriminator 1 view .LVU440
 1741              		.loc 4 26 7 discriminator 1 view .LVU441
 1742              	@ ../8-LCD-TEMP-STP_Motor_IR/adc.h:26: 	while(ADC2->CR2 & ADC_CR2_RSTCAL);
 1743              		.loc 4 26 12 is_stmt 0 discriminator 1 view .LVU442
 1744 054e 9A68     		ldr	r2, [r3, #8]	@ _19, MEM[(struct ADC_TypeDef *)1073817600B].CR2
 1745              	@ ../8-LCD-TEMP-STP_Motor_IR/adc.h:26: 	while(ADC2->CR2 & ADC_CR2_RSTCAL);
 1746              		.loc 4 26 7 discriminator 1 view .LVU443
 1747 0550 1207     		lsls	r2, r2, #28	@, _19,
 1748 0552 FCD4     		bmi	.L107		@,
  27:../8-LCD-TEMP-STP_Motor_IR/adc.h **** 
  28:../8-LCD-TEMP-STP_Motor_IR/adc.h ****     // Habilitar o ADC9
  29:../8-LCD-TEMP-STP_Motor_IR/adc.h ****     ADC2->CR2 |= ADC_CR2_ADON;
 1749              		.loc 4 29 5 is_stmt 1 view .LVU444
 1750              	@ ../8-LCD-TEMP-STP_Motor_IR/adc.h:29:     ADC2->CR2 |= ADC_CR2_ADON;
 1751              		.loc 4 29 15 is_stmt 0 view .LVU445
 1752 0554 9A68     		ldr	r2, [r3, #8]	@ _21, MEM[(struct ADC_TypeDef *)1073817600B].CR2
 1753 0556 42F00102 		orr	r2, r2, #1	@ _22, _21,
 1754 055a 9A60     		str	r2, [r3, #8]	@ _22, MEM[(struct ADC_TypeDef *)1073817600B].CR2
 1755              	@ ../8-LCD-TEMP-STP_Motor_IR/adc.h:30: }
  30:../8-LCD-TEMP-STP_Motor_IR/adc.h **** }
 1756              		.loc 4 30 1 view .LVU446
 1757 055c 7047     		bx	lr	@
 1758              	.L110:
 1759 055e 00BF     		.align	2
 1760              	.L109:
 1761 0560 00100240 		.word	1073876992
 1762 0564 000C0140 		.word	1073810432
 1763 0568 00280140 		.word	1073817600
 1764 056c FDF7E1FF 		.word	-1968131
 1765              		.cfi_endproc
 1766              	.LFE46:
 1767              		.size	ADC9_Configuration, .-ADC9_Configuration
 1768              		.align	1
 1769              		.global	task3
 1770              		.syntax unified
 1771              		.thumb
 1772              		.thumb_func
 1773              		.type	task3, %function
 1774              	task3:
 1775              	.LVL78:
 1776              	.LFB53:
 175:../8-LCD-TEMP-STP_Motor_IR/main.c **** 	/* [1---]
 1777              		.loc 1 175 47 is_stmt 1 view -0
 1778              		.cfi_startproc
 1779              		@ Volatile: function does not return.
ARM GAS  /tmp/ccaJFhKP.s 			page 47


 1780              		@ args = 0, pretend = 0, frame = 8
 1781              		@ frame_needed = 0, uses_anonymous_args = 0
 186:../8-LCD-TEMP-STP_Motor_IR/main.c **** 	u32 Valor_ADC_normalizado; 
 1782              		.loc 1 186 2 view .LVU448
 1783              	@ ../8-LCD-TEMP-STP_Motor_IR/main.c:175:  void task3(void *args __attribute ((unused))){
 175:../8-LCD-TEMP-STP_Motor_IR/main.c **** 	/* [1---]
 1784              		.loc 1 175 47 is_stmt 0 view .LVU449
 1785 0570 07B5     		push	{r0, r1, r2, lr}	@
 1786              	.LCFI12:
 1787              		.cfi_def_cfa_offset 16
 1788              		.cfi_offset 14, -4
 1789              	@ ../8-LCD-TEMP-STP_Motor_IR/main.c:186: 	ADC9_Configuration();
 186:../8-LCD-TEMP-STP_Motor_IR/main.c **** 	u32 Valor_ADC_normalizado; 
 1790              		.loc 1 186 2 view .LVU450
 1791 0572 FFF7FEFF 		bl	ADC9_Configuration		@
 1792              	.LVL79:
 1793              	@ ../8-LCD-TEMP-STP_Motor_IR/main.c:191: 		Valor_ADC_normalizado = ADC2->DR;
 191:../8-LCD-TEMP-STP_Motor_IR/main.c **** 
 1794              		.loc 1 191 31 view .LVU451
 1795 0576 074D     		ldr	r5, .L113	@ tmp116,
 1796              	@ ../8-LCD-TEMP-STP_Motor_IR/main.c:193: 		xQueueSend(LCD_Show_queue, &Valor_ADC_normalizado, 0);
 193:../8-LCD-TEMP-STP_Motor_IR/main.c **** 		__delay_ms(500);
 1797              		.loc 1 193 3 view .LVU452
 1798 0578 074C     		ldr	r4, .L113+4	@ tmp118,
 1799              	.LVL80:
 1800              	.L112:
 187:../8-LCD-TEMP-STP_Motor_IR/main.c **** 
 1801              		.loc 1 187 2 is_stmt 1 discriminator 1 view .LVU453
 189:../8-LCD-TEMP-STP_Motor_IR/main.c **** 
 1802              		.loc 1 189 2 discriminator 1 view .LVU454
 191:../8-LCD-TEMP-STP_Motor_IR/main.c **** 
 1803              		.loc 1 191 3 discriminator 1 view .LVU455
 1804              	@ ../8-LCD-TEMP-STP_Motor_IR/main.c:191: 		Valor_ADC_normalizado = ADC2->DR;
 191:../8-LCD-TEMP-STP_Motor_IR/main.c **** 
 1805              		.loc 1 191 31 is_stmt 0 discriminator 1 view .LVU456
 1806 057a EB6C     		ldr	r3, [r5, #76]	@ _1, MEM[(struct ADC_TypeDef *)1073817600B].DR
 1807              	@ ../8-LCD-TEMP-STP_Motor_IR/main.c:193: 		xQueueSend(LCD_Show_queue, &Valor_ADC_normalizado, 0);
 193:../8-LCD-TEMP-STP_Motor_IR/main.c **** 		__delay_ms(500);
 1808              		.loc 1 193 3 discriminator 1 view .LVU457
 1809 057c A068     		ldr	r0, [r4, #8]	@, LCD_Show_queue
 1810              	@ ../8-LCD-TEMP-STP_Motor_IR/main.c:191: 		Valor_ADC_normalizado = ADC2->DR;
 191:../8-LCD-TEMP-STP_Motor_IR/main.c **** 
 1811              		.loc 1 191 25 discriminator 1 view .LVU458
 1812 057e 0193     		str	r3, [sp, #4]	@ _1, Valor_ADC_normalizado
 193:../8-LCD-TEMP-STP_Motor_IR/main.c **** 		__delay_ms(500);
 1813              		.loc 1 193 3 is_stmt 1 discriminator 1 view .LVU459
 1814 0580 0023     		movs	r3, #0	@,
 1815 0582 01A9     		add	r1, sp, #4	@ tmp120,,
 1816 0584 1A46     		mov	r2, r3	@,
 1817 0586 FFF7FEFF 		bl	xQueueGenericSend		@
 1818              	.LVL81:
 194:../8-LCD-TEMP-STP_Motor_IR/main.c **** 		
 1819              		.loc 1 194 3 discriminator 1 view .LVU460
 1820 058a 4CF25030 		movw	r0, #50000	@,
 1821 058e FFF7FEFF 		bl	vTaskDelay		@
 1822              	.LVL82:
 189:../8-LCD-TEMP-STP_Motor_IR/main.c **** 
ARM GAS  /tmp/ccaJFhKP.s 			page 48


 1823              		.loc 1 189 7 discriminator 1 view .LVU461
 1824 0592 F2E7     		b	.L112		@
 1825              	.L114:
 1826              		.align	2
 1827              	.L113:
 1828 0594 00280140 		.word	1073817600
 1829 0598 00000000 		.word	.LANCHOR0
 1830              		.cfi_endproc
 1831              	.LFE53:
 1832              		.size	task3, .-task3
 1833              		.align	1
 1834              		.global	ADC9_GetValue
 1835              		.syntax unified
 1836              		.thumb
 1837              		.thumb_func
 1838              		.type	ADC9_GetValue, %function
 1839              	ADC9_GetValue:
 1840              	.LFB47:
  31:../8-LCD-TEMP-STP_Motor_IR/adc.h **** 
  32:../8-LCD-TEMP-STP_Motor_IR/adc.h **** uint16_t ADC9_GetValue()
  33:../8-LCD-TEMP-STP_Motor_IR/adc.h **** {
 1841              		.loc 4 33 1 view -0
 1842              		.cfi_startproc
 1843              		@ args = 0, pretend = 0, frame = 0
 1844              		@ frame_needed = 0, uses_anonymous_args = 0
 1845              		@ link register save eliminated.
  34:../8-LCD-TEMP-STP_Motor_IR/adc.h ****     // Iniciar uma conversão no ADC9
  35:../8-LCD-TEMP-STP_Motor_IR/adc.h ****     ADC2->CR2 |= ADC_CR2_SWSTART;
 1846              		.loc 4 35 5 view .LVU463
 1847              	@ ../8-LCD-TEMP-STP_Motor_IR/adc.h:35:     ADC2->CR2 |= ADC_CR2_SWSTART;
 1848              		.loc 4 35 15 is_stmt 0 view .LVU464
 1849 059c 054B     		ldr	r3, .L119	@ tmp119,
 1850 059e 9A68     		ldr	r2, [r3, #8]	@ _1, MEM[(struct ADC_TypeDef *)1073817600B].CR2
 1851 05a0 42F48002 		orr	r2, r2, #4194304	@ _2, _1,
 1852 05a4 9A60     		str	r2, [r3, #8]	@ _2, MEM[(struct ADC_TypeDef *)1073817600B].CR2
  36:../8-LCD-TEMP-STP_Motor_IR/adc.h **** 
  37:../8-LCD-TEMP-STP_Motor_IR/adc.h ****     // Aguardar o final da conversão
  38:../8-LCD-TEMP-STP_Motor_IR/adc.h ****     while (!(ADC2->SR & ADC_SR_EOC));
 1853              		.loc 4 38 5 is_stmt 1 view .LVU465
 1854              	.L116:
 1855              		.loc 4 38 37 discriminator 1 view .LVU466
 1856              		.loc 4 38 11 discriminator 1 view .LVU467
 1857              	@ ../8-LCD-TEMP-STP_Motor_IR/adc.h:38:     while (!(ADC2->SR & ADC_SR_EOC));
 1858              		.loc 4 38 18 is_stmt 0 discriminator 1 view .LVU468
 1859 05a6 1A68     		ldr	r2, [r3]	@ _3, MEM[(struct ADC_TypeDef *)1073817600B].SR
 1860              	@ ../8-LCD-TEMP-STP_Motor_IR/adc.h:38:     while (!(ADC2->SR & ADC_SR_EOC));
 1861              		.loc 4 38 11 discriminator 1 view .LVU469
 1862 05a8 9207     		lsls	r2, r2, #30	@, _3,
 1863 05aa FCD5     		bpl	.L116		@,
  39:../8-LCD-TEMP-STP_Motor_IR/adc.h **** 
  40:../8-LCD-TEMP-STP_Motor_IR/adc.h ****     // Obter o valor convertido
  41:../8-LCD-TEMP-STP_Motor_IR/adc.h ****     return ADC2->DR;
 1864              		.loc 4 41 5 is_stmt 1 view .LVU470
 1865              	@ ../8-LCD-TEMP-STP_Motor_IR/adc.h:41:     return ADC2->DR;
 1866              		.loc 4 41 16 is_stmt 0 view .LVU471
 1867 05ac D86C     		ldr	r0, [r3, #76]	@ _5, MEM[(struct ADC_TypeDef *)1073817600B].DR
 1868              	@ ../8-LCD-TEMP-STP_Motor_IR/adc.h:43: }
ARM GAS  /tmp/ccaJFhKP.s 			page 49


  42:../8-LCD-TEMP-STP_Motor_IR/adc.h **** 
  43:../8-LCD-TEMP-STP_Motor_IR/adc.h **** }
 1869              		.loc 4 43 1 view .LVU472
 1870 05ae 80B2     		uxth	r0, r0	@, _5
 1871 05b0 7047     		bx	lr	@
 1872              	.L120:
 1873 05b2 00BF     		.align	2
 1874              	.L119:
 1875 05b4 00280140 		.word	1073817600
 1876              		.cfi_endproc
 1877              	.LFE47:
 1878              		.size	ADC9_GetValue, .-ADC9_GetValue
 1879              		.align	1
 1880              		.global	IR_Init
 1881              		.syntax unified
 1882              		.thumb
 1883              		.thumb_func
 1884              		.type	IR_Init, %function
 1885              	IR_Init:
 1886              	.LFB48:
 1887              		.file 5 "../8-LCD-TEMP-STP_Motor_IR/infraRed.h"
   1:../8-LCD-TEMP-STP_Motor_IR/infraRed.h **** #include "stm32f10x.h"
   2:../8-LCD-TEMP-STP_Motor_IR/infraRed.h **** 
   3:../8-LCD-TEMP-STP_Motor_IR/infraRed.h **** // Define o pino de entrada do receptor IR
   4:../8-LCD-TEMP-STP_Motor_IR/infraRed.h **** #define IR_PIN GPIO_Pin_6
   5:../8-LCD-TEMP-STP_Motor_IR/infraRed.h **** #define IR_PORT GPIOB
   6:../8-LCD-TEMP-STP_Motor_IR/infraRed.h **** 
   7:../8-LCD-TEMP-STP_Motor_IR/infraRed.h **** // Função para configurar o GPIO para o pino de entrada IR
   8:../8-LCD-TEMP-STP_Motor_IR/infraRed.h **** void IR_Init(void) {
 1888              		.loc 5 8 20 is_stmt 1 view -0
 1889              		.cfi_startproc
 1890              		@ args = 0, pretend = 0, frame = 8
 1891              		@ frame_needed = 0, uses_anonymous_args = 0
   9:../8-LCD-TEMP-STP_Motor_IR/infraRed.h ****   GPIO_InitTypeDef GPIO_InitStructure;
 1892              		.loc 5 9 3 view .LVU474
  10:../8-LCD-TEMP-STP_Motor_IR/infraRed.h **** 
  11:../8-LCD-TEMP-STP_Motor_IR/infraRed.h ****   //RCC_APB2PeriphClockCmd(RCC_APB2Periph_GPIOA, ENABLE);
  12:../8-LCD-TEMP-STP_Motor_IR/infraRed.h ****   RCC_APB2PeriphClockCmd(RCC_APB2Periph_GPIOB, ENABLE);
 1893              		.loc 5 12 3 view .LVU475
 1894              	@ ../8-LCD-TEMP-STP_Motor_IR/infraRed.h:8: void IR_Init(void) {
   8:../8-LCD-TEMP-STP_Motor_IR/infraRed.h ****   GPIO_InitTypeDef GPIO_InitStructure;
 1895              		.loc 5 8 20 is_stmt 0 view .LVU476
 1896 05b8 07B5     		push	{r0, r1, r2, lr}	@
 1897              	.LCFI13:
 1898              		.cfi_def_cfa_offset 16
 1899              		.cfi_offset 14, -4
 1900              	@ ../8-LCD-TEMP-STP_Motor_IR/infraRed.h:12:   RCC_APB2PeriphClockCmd(RCC_APB2Periph_GPIOB, ENABLE);
 1901              		.loc 5 12 3 view .LVU477
 1902 05ba 0121     		movs	r1, #1	@,
 1903 05bc 0820     		movs	r0, #8	@,
 1904 05be FFF7FEFF 		bl	RCC_APB2PeriphClockCmd		@
 1905              	.LVL83:
  13:../8-LCD-TEMP-STP_Motor_IR/infraRed.h **** 
  14:../8-LCD-TEMP-STP_Motor_IR/infraRed.h ****   GPIO_InitStructure.GPIO_Pin = IR_PIN;
 1906              		.loc 5 14 3 is_stmt 1 view .LVU478
 1907              	@ ../8-LCD-TEMP-STP_Motor_IR/infraRed.h:14:   GPIO_InitStructure.GPIO_Pin = IR_PIN;
 1908              		.loc 5 14 31 is_stmt 0 view .LVU479
ARM GAS  /tmp/ccaJFhKP.s 			page 50


 1909 05c2 4023     		movs	r3, #64	@ tmp114,
 1910 05c4 ADF80430 		strh	r3, [sp, #4]	@ movhi	@ tmp114, GPIO_InitStructure.GPIO_Pin
  15:../8-LCD-TEMP-STP_Motor_IR/infraRed.h ****   GPIO_InitStructure.GPIO_Mode = GPIO_Mode_IN_FLOATING;
 1911              		.loc 5 15 3 is_stmt 1 view .LVU480
 1912              	@ ../8-LCD-TEMP-STP_Motor_IR/infraRed.h:15:   GPIO_InitStructure.GPIO_Mode = GPIO_Mode_IN_FLOATING;
 1913              		.loc 5 15 32 is_stmt 0 view .LVU481
 1914 05c8 0423     		movs	r3, #4	@ tmp115,
 1915              	@ ../8-LCD-TEMP-STP_Motor_IR/infraRed.h:16:   GPIO_Init(IR_PORT, &GPIO_InitStructure);
  16:../8-LCD-TEMP-STP_Motor_IR/infraRed.h ****   GPIO_Init(IR_PORT, &GPIO_InitStructure);
 1916              		.loc 5 16 3 view .LVU482
 1917 05ca 0548     		ldr	r0, .L122	@,
 1918 05cc 0DEB0301 		add	r1, sp, r3	@,,
 1919              	@ ../8-LCD-TEMP-STP_Motor_IR/infraRed.h:15:   GPIO_InitStructure.GPIO_Mode = GPIO_Mode_IN_FLOATING;
  15:../8-LCD-TEMP-STP_Motor_IR/infraRed.h ****   GPIO_InitStructure.GPIO_Mode = GPIO_Mode_IN_FLOATING;
 1920              		.loc 5 15 32 view .LVU483
 1921 05d0 8DF80730 		strb	r3, [sp, #7]	@ tmp115, GPIO_InitStructure.GPIO_Mode
 1922              		.loc 5 16 3 is_stmt 1 view .LVU484
 1923 05d4 FFF7FEFF 		bl	GPIO_Init		@
 1924              	.LVL84:
 1925              	@ ../8-LCD-TEMP-STP_Motor_IR/infraRed.h:18: }
  17:../8-LCD-TEMP-STP_Motor_IR/infraRed.h **** 
  18:../8-LCD-TEMP-STP_Motor_IR/infraRed.h **** }
 1926              		.loc 5 18 1 is_stmt 0 view .LVU485
 1927 05d8 03B0     		add	sp, sp, #12	@,,
 1928              	.LCFI14:
 1929              		.cfi_def_cfa_offset 4
 1930              		@ sp needed	@
 1931 05da 5DF804FB 		ldr	pc, [sp], #4	@
 1932              	.L123:
 1933 05de 00BF     		.align	2
 1934              	.L122:
 1935 05e0 000C0140 		.word	1073810432
 1936              		.cfi_endproc
 1937              	.LFE48:
 1938              		.size	IR_Init, .-IR_Init
 1939              		.align	1
 1940              		.global	IR_Read
 1941              		.syntax unified
 1942              		.thumb
 1943              		.thumb_func
 1944              		.type	IR_Read, %function
 1945              	IR_Read:
 1946              	.LFB49:
  19:../8-LCD-TEMP-STP_Motor_IR/infraRed.h **** 
  20:../8-LCD-TEMP-STP_Motor_IR/infraRed.h **** // Função para receber o código NEC IR
  21:../8-LCD-TEMP-STP_Motor_IR/infraRed.h **** uint32_t IR_Read(void) {
 1947              		.loc 5 21 24 is_stmt 1 view -0
 1948              		.cfi_startproc
 1949              		@ args = 0, pretend = 0, frame = 0
 1950              		@ frame_needed = 0, uses_anonymous_args = 0
  22:../8-LCD-TEMP-STP_Motor_IR/infraRed.h ****   uint32_t code = 0;
 1951              		.loc 5 22 3 view .LVU487
 1952              	.LVL85:
  23:../8-LCD-TEMP-STP_Motor_IR/infraRed.h ****   uint32_t bit = 0;
 1953              		.loc 5 23 3 view .LVU488
  24:../8-LCD-TEMP-STP_Motor_IR/infraRed.h ****   uint32_t data = 0;
 1954              		.loc 5 24 3 view .LVU489
ARM GAS  /tmp/ccaJFhKP.s 			page 51


  25:../8-LCD-TEMP-STP_Motor_IR/infraRed.h **** 
  26:../8-LCD-TEMP-STP_Motor_IR/infraRed.h ****   // Aguarda o sinal de início (pulso LOW)
  27:../8-LCD-TEMP-STP_Motor_IR/infraRed.h ****   while (GPIO_ReadInputDataBit(IR_PORT, IR_PIN) != 0) {}
 1955              		.loc 5 27 3 view .LVU490
 1956              	@ ../8-LCD-TEMP-STP_Motor_IR/infraRed.h:21: uint32_t IR_Read(void) {
  21:../8-LCD-TEMP-STP_Motor_IR/infraRed.h ****   uint32_t code = 0;
 1957              		.loc 5 21 24 is_stmt 0 view .LVU491
 1958 05e4 70B5     		push	{r4, r5, r6, lr}	@
 1959              	.LCFI15:
 1960              		.cfi_def_cfa_offset 16
 1961              		.cfi_offset 4, -16
 1962              		.cfi_offset 5, -12
 1963              		.cfi_offset 6, -8
 1964              		.cfi_offset 14, -4
 1965              	@ ../8-LCD-TEMP-STP_Motor_IR/infraRed.h:27:   while (GPIO_ReadInputDataBit(IR_PORT, IR_PIN) != 0) {
 1966              		.loc 5 27 10 view .LVU492
 1967 05e6 164C     		ldr	r4, .L138	@ tmp140,
 1968              	.L125:
 1969              		.loc 5 27 56 is_stmt 1 discriminator 1 view .LVU493
 1970              		.loc 5 27 9 discriminator 1 view .LVU494
 1971              	@ ../8-LCD-TEMP-STP_Motor_IR/infraRed.h:27:   while (GPIO_ReadInputDataBit(IR_PORT, IR_PIN) != 0) {
 1972              		.loc 5 27 10 is_stmt 0 discriminator 1 view .LVU495
 1973 05e8 4021     		movs	r1, #64	@,
 1974 05ea 2046     		mov	r0, r4	@, tmp140
 1975 05ec FFF7FEFF 		bl	GPIO_ReadInputDataBit		@
 1976              	.LVL86:
 1977              	@ ../8-LCD-TEMP-STP_Motor_IR/infraRed.h:27:   while (GPIO_ReadInputDataBit(IR_PORT, IR_PIN) != 0) {
 1978              		.loc 5 27 9 discriminator 1 view .LVU496
 1979 05f0 0028     		cmp	r0, #0	@ tmp141
 1980 05f2 F9D1     		bne	.L125	@
 1981              	@ ../8-LCD-TEMP-STP_Motor_IR/infraRed.h:30:   while (GPIO_ReadInputDataBit(IR_PORT, IR_PIN) == 0) {
  28:../8-LCD-TEMP-STP_Motor_IR/infraRed.h ****   
  29:../8-LCD-TEMP-STP_Motor_IR/infraRed.h ****   // Aguarda o sinal de início (pulso HIGH)
  30:../8-LCD-TEMP-STP_Motor_IR/infraRed.h ****   while (GPIO_ReadInputDataBit(IR_PORT, IR_PIN) == 0) {}
 1982              		.loc 5 30 10 view .LVU497
 1983 05f4 124C     		ldr	r4, .L138	@ tmp138,
 1984              	.L126:
 1985              		.loc 5 30 56 is_stmt 1 discriminator 1 view .LVU498
 1986              		.loc 5 30 9 discriminator 1 view .LVU499
 1987              	@ ../8-LCD-TEMP-STP_Motor_IR/infraRed.h:30:   while (GPIO_ReadInputDataBit(IR_PORT, IR_PIN) == 0) {
 1988              		.loc 5 30 10 is_stmt 0 discriminator 1 view .LVU500
 1989 05f6 4021     		movs	r1, #64	@,
 1990 05f8 2046     		mov	r0, r4	@, tmp138
 1991 05fa FFF7FEFF 		bl	GPIO_ReadInputDataBit		@
 1992              	.LVL87:
 1993              	@ ../8-LCD-TEMP-STP_Motor_IR/infraRed.h:30:   while (GPIO_ReadInputDataBit(IR_PORT, IR_PIN) == 0) {
 1994              		.loc 5 30 9 discriminator 1 view .LVU501
 1995 05fe 0028     		cmp	r0, #0	@ tmp142
 1996 0600 F9D0     		beq	.L126	@
 1997              	@ ../8-LCD-TEMP-STP_Motor_IR/infraRed.h:33:   while (GPIO_ReadInputDataBit(IR_PORT, IR_PIN) != 0) {
  31:../8-LCD-TEMP-STP_Motor_IR/infraRed.h ****   
  32:../8-LCD-TEMP-STP_Motor_IR/infraRed.h ****   // Aguarda o sinal de 9 ms (pulso LOW)
  33:../8-LCD-TEMP-STP_Motor_IR/infraRed.h ****   while (GPIO_ReadInputDataBit(IR_PORT, IR_PIN) != 0) {}
 1998              		.loc 5 33 10 view .LVU502
 1999 0602 0F4D     		ldr	r5, .L138	@ tmp136,
 2000              	.L127:
 2001              		.loc 5 33 56 is_stmt 1 discriminator 1 view .LVU503
ARM GAS  /tmp/ccaJFhKP.s 			page 52


 2002              		.loc 5 33 9 discriminator 1 view .LVU504
 2003              	@ ../8-LCD-TEMP-STP_Motor_IR/infraRed.h:33:   while (GPIO_ReadInputDataBit(IR_PORT, IR_PIN) != 0) {
 2004              		.loc 5 33 10 is_stmt 0 discriminator 1 view .LVU505
 2005 0604 4021     		movs	r1, #64	@,
 2006 0606 2846     		mov	r0, r5	@, tmp136
 2007 0608 FFF7FEFF 		bl	GPIO_ReadInputDataBit		@
 2008              	.LVL88:
 2009              	@ ../8-LCD-TEMP-STP_Motor_IR/infraRed.h:33:   while (GPIO_ReadInputDataBit(IR_PORT, IR_PIN) != 0) {
 2010              		.loc 5 33 9 discriminator 1 view .LVU506
 2011 060c 0446     		mov	r4, r0	@ tmp126, tmp143
 2012 060e 0028     		cmp	r0, #0	@ tmp126
 2013 0610 F8D1     		bne	.L127	@
 2014              	@ ../8-LCD-TEMP-STP_Motor_IR/infraRed.h:22:   uint32_t code = 0;
  22:../8-LCD-TEMP-STP_Motor_IR/infraRed.h ****   uint32_t bit = 0;
 2015              		.loc 5 22 12 view .LVU507
 2016 0612 0546     		mov	r5, r0	@ <retval>, bit
 2017              	@ ../8-LCD-TEMP-STP_Motor_IR/infraRed.h:44:     data = GPIO_ReadInputDataBit(IR_PORT, IR_PIN);
  34:../8-LCD-TEMP-STP_Motor_IR/infraRed.h **** 
  35:../8-LCD-TEMP-STP_Motor_IR/infraRed.h ****   // Recebe o código NEC IR
  36:../8-LCD-TEMP-STP_Motor_IR/infraRed.h ****   for (bit = 0; bit < 32; bit++) {
  37:../8-LCD-TEMP-STP_Motor_IR/infraRed.h ****     // Aguarda o próximo bit
  38:../8-LCD-TEMP-STP_Motor_IR/infraRed.h ****     // while (GPIO_ReadInputDataBit(IR_PORT, IR_PIN) == 0) {}
  39:../8-LCD-TEMP-STP_Motor_IR/infraRed.h ****     
  40:../8-LCD-TEMP-STP_Motor_IR/infraRed.h ****     // Aguarda o próximo espaço
  41:../8-LCD-TEMP-STP_Motor_IR/infraRed.h ****     // while (GPIO_ReadInputDataBit(IR_PORT, IR_PIN) != 0) {}
  42:../8-LCD-TEMP-STP_Motor_IR/infraRed.h **** 	 __delay(200);
  43:../8-LCD-TEMP-STP_Motor_IR/infraRed.h **** 
  44:../8-LCD-TEMP-STP_Motor_IR/infraRed.h ****     data = GPIO_ReadInputDataBit(IR_PORT, IR_PIN);
 2018              		.loc 5 44 12 view .LVU508
 2019 0614 0A4E     		ldr	r6, .L138	@ tmp134,
 2020              	.LVL89:
 2021              	.L129:
  42:../8-LCD-TEMP-STP_Motor_IR/infraRed.h **** 
 2022              		.loc 5 42 3 is_stmt 1 view .LVU509
 2023 0616 C820     		movs	r0, #200	@,
 2024 0618 FFF7FEFF 		bl	vTaskDelay		@
 2025              	.LVL90:
 2026              		.loc 5 44 5 view .LVU510
 2027              	@ ../8-LCD-TEMP-STP_Motor_IR/infraRed.h:44:     data = GPIO_ReadInputDataBit(IR_PORT, IR_PIN);
 2028              		.loc 5 44 12 is_stmt 0 view .LVU511
 2029 061c 4021     		movs	r1, #64	@,
 2030 061e 3046     		mov	r0, r6	@, tmp134
 2031 0620 FFF7FEFF 		bl	GPIO_ReadInputDataBit		@
 2032              	.LVL91:
  45:../8-LCD-TEMP-STP_Motor_IR/infraRed.h ****     
  46:../8-LCD-TEMP-STP_Motor_IR/infraRed.h ****     // Se o espaço tiver uma duração maior que 1.2 ms o bit é 1, caso contrário é 0
  47:../8-LCD-TEMP-STP_Motor_IR/infraRed.h ****     if (data > 0) {
 2033              		.loc 5 47 5 is_stmt 1 view .LVU512
 2034              	@ ../8-LCD-TEMP-STP_Motor_IR/infraRed.h:47:     if (data > 0) {
 2035              		.loc 5 47 8 is_stmt 0 view .LVU513
 2036 0624 10B1     		cbz	r0, .L128	@ tmp144,
  48:../8-LCD-TEMP-STP_Motor_IR/infraRed.h ****       code |= (1 << bit);
 2037              		.loc 5 48 7 is_stmt 1 view .LVU514
 2038              	@ ../8-LCD-TEMP-STP_Motor_IR/infraRed.h:48:       code |= (1 << bit);
 2039              		.loc 5 48 18 is_stmt 0 view .LVU515
 2040 0626 0123     		movs	r3, #1	@ tmp130,
 2041 0628 A340     		lsls	r3, r3, r4	@ tmp129, tmp130, bit
ARM GAS  /tmp/ccaJFhKP.s 			page 53


 2042              	@ ../8-LCD-TEMP-STP_Motor_IR/infraRed.h:48:       code |= (1 << bit);
 2043              		.loc 5 48 12 view .LVU516
 2044 062a 1D43     		orrs	r5, r5, r3	@, <retval>, <retval>, tmp129
 2045              	.LVL92:
 2046              	.L128:
  49:../8-LCD-TEMP-STP_Motor_IR/infraRed.h ****     }
  50:../8-LCD-TEMP-STP_Motor_IR/infraRed.h **** 	// Aguarda o próximo espaço
  51:../8-LCD-TEMP-STP_Motor_IR/infraRed.h **** 	 __delay(300);
 2047              		.loc 5 51 3 is_stmt 1 discriminator 2 view .LVU517
 2048 062c 4FF49670 		mov	r0, #300	@,
 2049              	.LVL93:
 2050              	@ ../8-LCD-TEMP-STP_Motor_IR/infraRed.h:36:   for (bit = 0; bit < 32; bit++) {
  36:../8-LCD-TEMP-STP_Motor_IR/infraRed.h ****     // Aguarda o próximo bit
 2051              		.loc 5 36 30 is_stmt 0 discriminator 2 view .LVU518
 2052 0630 0134     		adds	r4, r4, #1	@ bit, bit,
 2053              	.LVL94:
 2054              	@ ../8-LCD-TEMP-STP_Motor_IR/infraRed.h:51: 	 __delay(300);
 2055              		.loc 5 51 3 discriminator 2 view .LVU519
 2056 0632 FFF7FEFF 		bl	vTaskDelay		@
 2057              	.LVL95:
  36:../8-LCD-TEMP-STP_Motor_IR/infraRed.h ****     // Aguarda o próximo bit
 2058              		.loc 5 36 27 is_stmt 1 discriminator 2 view .LVU520
  36:../8-LCD-TEMP-STP_Motor_IR/infraRed.h ****     // Aguarda o próximo bit
 2059              		.loc 5 36 17 discriminator 2 view .LVU521
 2060              	@ ../8-LCD-TEMP-STP_Motor_IR/infraRed.h:36:   for (bit = 0; bit < 32; bit++) {
  36:../8-LCD-TEMP-STP_Motor_IR/infraRed.h ****     // Aguarda o próximo bit
 2061              		.loc 5 36 3 is_stmt 0 discriminator 2 view .LVU522
 2062 0636 202C     		cmp	r4, #32	@ bit,
 2063 0638 EDD1     		bne	.L129		@,
  52:../8-LCD-TEMP-STP_Motor_IR/infraRed.h ****   }
  53:../8-LCD-TEMP-STP_Motor_IR/infraRed.h **** 
  54:../8-LCD-TEMP-STP_Motor_IR/infraRed.h ****   return code;
 2064              		.loc 5 54 3 is_stmt 1 view .LVU523
 2065              	@ ../8-LCD-TEMP-STP_Motor_IR/infraRed.h:55: }
  55:../8-LCD-TEMP-STP_Motor_IR/infraRed.h **** }
 2066              		.loc 5 55 1 is_stmt 0 view .LVU524
 2067 063a 2846     		mov	r0, r5	@, <retval>
 2068 063c 70BD     		pop	{r4, r5, r6, pc}	@
 2069              	.LVL96:
 2070              	.L139:
 2071              		.loc 5 55 1 view .LVU525
 2072 063e 00BF     		.align	2
 2073              	.L138:
 2074 0640 000C0140 		.word	1073810432
 2075              		.cfi_endproc
 2076              	.LFE49:
 2077              		.size	IR_Read, .-IR_Read
 2078              		.section	.rodata.str1.1,"aMS",%progbits,1
 2079              	.LC0:
 2080 0000 0D0A436F 		.ascii	"\015\012Codigo: 0x\000"
 2080      6469676F 
 2080      3A203078 
 2080      00
 2081              		.text
 2082              		.align	1
 2083              		.syntax unified
 2084              		.thumb
ARM GAS  /tmp/ccaJFhKP.s 			page 54


 2085              		.thumb_func
 2086              		.type	task5, %function
 2087              	task5:
 2088              	.LVL97:
 2089              	.LFB55:
 239:../8-LCD-TEMP-STP_Motor_IR/main.c **** 
 2090              		.loc 1 239 53 is_stmt 1 view -0
 2091              		.cfi_startproc
 2092              		@ Volatile: function does not return.
 2093              		@ args = 0, pretend = 0, frame = 16
 2094              		@ frame_needed = 0, uses_anonymous_args = 0
 252:../8-LCD-TEMP-STP_Motor_IR/main.c **** 	IR_Init();
 2095              		.loc 1 252 2 view .LVU527
 2096              	@ ../8-LCD-TEMP-STP_Motor_IR/main.c:239: static void task5(void *args __attribute ((unused))){
 239:../8-LCD-TEMP-STP_Motor_IR/main.c **** 
 2097              		.loc 1 239 53 is_stmt 0 view .LVU528
 2098 0644 8FB5     		push	{r0, r1, r2, r3, r7, lr}	@
 2099              	.LCFI16:
 2100              		.cfi_def_cfa_offset 24
 2101              		.cfi_offset 7, -8
 2102              		.cfi_offset 14, -4
 2103              	@ ../8-LCD-TEMP-STP_Motor_IR/main.c:252: 	USART_init();
 252:../8-LCD-TEMP-STP_Motor_IR/main.c **** 	IR_Init();
 2104              		.loc 1 252 2 view .LVU529
 2105 0646 FFF7FEFF 		bl	USART_init		@
 2106              	.LVL98:
 253:../8-LCD-TEMP-STP_Motor_IR/main.c **** 	char word_IR[8];
 2107              		.loc 1 253 2 is_stmt 1 view .LVU530
 2108 064a FFF7FEFF 		bl	IR_Init		@
 2109              	.LVL99:
 2110              	@ ../8-LCD-TEMP-STP_Motor_IR/main.c:267: 			USARTSend("\r\nCodigo: 0x");
 267:../8-LCD-TEMP-STP_Motor_IR/main.c **** 			itoa (code_ir, word_IR, 16);
 2111              		.loc 1 267 4 is_stmt 0 view .LVU531
 2112 064e 184E     		ldr	r6, .L149	@ tmp133,
 2113              	@ ../8-LCD-TEMP-STP_Motor_IR/main.c:271: 			if (code_ir == CR_B7 || code_ir == CR_B8)
 271:../8-LCD-TEMP-STP_Motor_IR/main.c **** 				xQueueOverwrite(IR_Data_queue, &code_ir);
 2114              		.loc 1 271 7 view .LVU532
 2115 0650 184D     		ldr	r5, .L149+4	@ tmp125,
 2116              	@ ../8-LCD-TEMP-STP_Motor_IR/main.c:272: 				xQueueOverwrite(IR_Data_queue, &code_ir);
 272:../8-LCD-TEMP-STP_Motor_IR/main.c **** 
 2117              		.loc 1 272 5 view .LVU533
 2118 0652 194C     		ldr	r4, .L149+8	@ tmp134,
 2119              	.L141:
 2120              	@ ../8-LCD-TEMP-STP_Motor_IR/main.c:259: 		code_ir = 0xFFFFFFFF;
 259:../8-LCD-TEMP-STP_Motor_IR/main.c **** 		code_ir = IR_Read();
 2121              		.loc 1 259 11 view .LVU534
 2122 0654 4FF0FF37 		mov	r7, #-1	@ tmp121,
 2123              	.L142:
 254:../8-LCD-TEMP-STP_Motor_IR/main.c **** 	// char word_IR[8];
 2124              		.loc 1 254 2 is_stmt 1 view .LVU535
 256:../8-LCD-TEMP-STP_Motor_IR/main.c **** 
 2125              		.loc 1 256 2 view .LVU536
 258:../8-LCD-TEMP-STP_Motor_IR/main.c **** 		code_ir = 0xFFFFFFFF;
 2126              		.loc 1 258 2 view .LVU537
 259:../8-LCD-TEMP-STP_Motor_IR/main.c **** 		code_ir = IR_Read();
 2127              		.loc 1 259 3 view .LVU538
 2128              	@ ../8-LCD-TEMP-STP_Motor_IR/main.c:259: 		code_ir = 0xFFFFFFFF;
ARM GAS  /tmp/ccaJFhKP.s 			page 55


 259:../8-LCD-TEMP-STP_Motor_IR/main.c **** 		code_ir = IR_Read();
 2129              		.loc 1 259 11 is_stmt 0 view .LVU539
 2130 0658 0197     		str	r7, [sp, #4]	@ tmp121, code_ir
 260:../8-LCD-TEMP-STP_Motor_IR/main.c **** 		
 2131              		.loc 1 260 3 is_stmt 1 view .LVU540
 2132              	@ ../8-LCD-TEMP-STP_Motor_IR/main.c:260: 		code_ir = IR_Read();
 260:../8-LCD-TEMP-STP_Motor_IR/main.c **** 		
 2133              		.loc 1 260 13 is_stmt 0 view .LVU541
 2134 065a FFF7FEFF 		bl	IR_Read		@
 2135              	.LVL100:
 2136              	@ ../8-LCD-TEMP-STP_Motor_IR/main.c:260: 		code_ir = IR_Read();
 260:../8-LCD-TEMP-STP_Motor_IR/main.c **** 		
 2137              		.loc 1 260 11 view .LVU542
 2138 065e 0190     		str	r0, [sp, #4]	@ _1, code_ir
 265:../8-LCD-TEMP-STP_Motor_IR/main.c **** 
 2139              		.loc 1 265 3 is_stmt 1 view .LVU543
 2140              	@ ../8-LCD-TEMP-STP_Motor_IR/main.c:265: 		if (code_ir != 0xffffffff){
 265:../8-LCD-TEMP-STP_Motor_IR/main.c **** 
 2141              		.loc 1 265 6 is_stmt 0 view .LVU544
 2142 0660 0130     		adds	r0, r0, #1	@ _1, _1,
 2143 0662 F9D0     		beq	.L142		@,
 267:../8-LCD-TEMP-STP_Motor_IR/main.c **** 			itoa (code_ir, word_IR, 16);
 2144              		.loc 1 267 4 is_stmt 1 view .LVU545
 2145 0664 3046     		mov	r0, r6	@, tmp133
 2146 0666 FFF7FEFF 		bl	USARTSend		@
 2147              	.LVL101:
 268:../8-LCD-TEMP-STP_Motor_IR/main.c **** 			USARTSend(word_IR);
 2148              		.loc 1 268 4 view .LVU546
 2149 066a 1022     		movs	r2, #16	@,
 2150 066c 02A9     		add	r1, sp, #8	@ tmp137,,
 2151 066e 0198     		ldr	r0, [sp, #4]	@, code_ir
 2152 0670 FFF7FEFF 		bl	itoa		@
 2153              	.LVL102:
 269:../8-LCD-TEMP-STP_Motor_IR/main.c **** 			
 2154              		.loc 1 269 4 view .LVU547
 2155 0674 02A8     		add	r0, sp, #8	@ tmp138,,
 2156 0676 FFF7FEFF 		bl	USARTSend		@
 2157              	.LVL103:
 271:../8-LCD-TEMP-STP_Motor_IR/main.c **** 				xQueueOverwrite(IR_Data_queue, &code_ir);
 2158              		.loc 1 271 4 view .LVU548
 2159              	@ ../8-LCD-TEMP-STP_Motor_IR/main.c:271: 			if (code_ir == CR_B7 || code_ir == CR_B8)
 271:../8-LCD-TEMP-STP_Motor_IR/main.c **** 				xQueueOverwrite(IR_Data_queue, &code_ir);
 2160              		.loc 1 271 16 is_stmt 0 view .LVU549
 2161 067a 019B     		ldr	r3, [sp, #4]	@ code_ir.19_5, code_ir
 2162              	@ ../8-LCD-TEMP-STP_Motor_IR/main.c:271: 			if (code_ir == CR_B7 || code_ir == CR_B8)
 271:../8-LCD-TEMP-STP_Motor_IR/main.c **** 				xQueueOverwrite(IR_Data_queue, &code_ir);
 2163              		.loc 1 271 7 view .LVU550
 2164 067c AB42     		cmp	r3, r5	@ code_ir.19_5, tmp125
 2165 067e 02D0     		beq	.L143		@,
 2166              	@ ../8-LCD-TEMP-STP_Motor_IR/main.c:271: 			if (code_ir == CR_B7 || code_ir == CR_B8)
 271:../8-LCD-TEMP-STP_Motor_IR/main.c **** 				xQueueOverwrite(IR_Data_queue, &code_ir);
 2167              		.loc 1 271 25 discriminator 1 view .LVU551
 2168 0680 0E4A     		ldr	r2, .L149+12	@ tmp126,
 2169 0682 9342     		cmp	r3, r2	@ code_ir.19_5, tmp126
 2170 0684 05D1     		bne	.L144		@,
 2171              	.L143:
 272:../8-LCD-TEMP-STP_Motor_IR/main.c **** 
ARM GAS  /tmp/ccaJFhKP.s 			page 56


 2172              		.loc 1 272 5 is_stmt 1 view .LVU552
 2173 0686 0223     		movs	r3, #2	@,
 2174 0688 0022     		movs	r2, #0	@,
 2175 068a 6068     		ldr	r0, [r4, #4]	@, IR_Data_queue
 2176 068c 01A9     		add	r1, sp, #4	@,,
 2177 068e FFF7FEFF 		bl	xQueueGenericSend		@
 2178              	.LVL104:
 2179              	.L144:
 274:../8-LCD-TEMP-STP_Motor_IR/main.c **** 				xQueueOverwrite(PWM_data_queue, &code_ir);
 2180              		.loc 1 274 4 view .LVU553
 2181              	@ ../8-LCD-TEMP-STP_Motor_IR/main.c:274: 			if (code_ir == CR_NUM_4 || code_ir == CR_NUM_1)
 274:../8-LCD-TEMP-STP_Motor_IR/main.c **** 				xQueueOverwrite(PWM_data_queue, &code_ir);
 2182              		.loc 1 274 16 is_stmt 0 view .LVU554
 2183 0692 019B     		ldr	r3, [sp, #4]	@ code_ir.22_8, code_ir
 2184              	@ ../8-LCD-TEMP-STP_Motor_IR/main.c:274: 			if (code_ir == CR_NUM_4 || code_ir == CR_NUM_1)
 274:../8-LCD-TEMP-STP_Motor_IR/main.c **** 				xQueueOverwrite(PWM_data_queue, &code_ir);
 2185              		.loc 1 274 7 view .LVU555
 2186 0694 0A4A     		ldr	r2, .L149+16	@ tmp129,
 2187 0696 9342     		cmp	r3, r2	@ code_ir.22_8, tmp129
 2188 0698 02D0     		beq	.L145		@,
 2189              	@ ../8-LCD-TEMP-STP_Motor_IR/main.c:274: 			if (code_ir == CR_NUM_4 || code_ir == CR_NUM_1)
 274:../8-LCD-TEMP-STP_Motor_IR/main.c **** 				xQueueOverwrite(PWM_data_queue, &code_ir);
 2190              		.loc 1 274 28 discriminator 1 view .LVU556
 2191 069a C032     		adds	r2, r2, #192	@ tmp130, tmp130,
 2192 069c 9342     		cmp	r3, r2	@ code_ir.22_8, tmp130
 2193 069e D9D1     		bne	.L141		@,
 2194              	.L145:
 275:../8-LCD-TEMP-STP_Motor_IR/main.c **** 				//xQueueOverwrite(IR_Data_queue, &code_ir);
 2195              		.loc 1 275 5 is_stmt 1 view .LVU557
 2196 06a0 0223     		movs	r3, #2	@,
 2197 06a2 0022     		movs	r2, #0	@,
 2198 06a4 2068     		ldr	r0, [r4]	@, PWM_data_queue
 2199 06a6 01A9     		add	r1, sp, #4	@,,
 2200 06a8 FFF7FEFF 		bl	xQueueGenericSend		@
 2201              	.LVL105:
 2202 06ac D2E7     		b	.L141		@
 2203              	.L150:
 2204 06ae 00BF     		.align	2
 2205              	.L149:
 2206 06b0 00000000 		.word	.LC0
 2207 06b4 B9FAE7FF 		.word	-1574215
 2208 06b8 00000000 		.word	.LANCHOR0
 2209 06bc F9FBE7FF 		.word	-1573895
 2210 06c0 F9FAE7FF 		.word	-1574151
 2211              		.cfi_endproc
 2212              	.LFE55:
 2213              		.size	task5, .-task5
 2214              		.section	.rodata.str1.1
 2215              	.LC1:
 2216 000d 2D2D2D2D 		.ascii	"----------------\000"
 2216      2D2D2D2D 
 2216      2D2D2D2D 
 2216      2D2D2D2D 
 2216      00
 2217              	.LC2:
 2218 001e 3D3D3D3D 		.ascii	"================\000"
 2218      3D3D3D3D 
ARM GAS  /tmp/ccaJFhKP.s 			page 57


 2218      3D3D3D3D 
 2218      3D3D3D3D 
 2218      00
 2219              	.LC3:
 2220 002f 3D00     		.ascii	"=\000"
 2221              	.LC4:
 2222 0031 2D00     		.ascii	"-\000"
 2223              		.text
 2224              		.align	1
 2225              		.global	LCD16x2_init
 2226              		.syntax unified
 2227              		.thumb
 2228              		.thumb_func
 2229              		.type	LCD16x2_init, %function
 2230              	LCD16x2_init:
 2231              	.LFB50:
  58:../8-LCD-TEMP-STP_Motor_IR/main.c **** 
 2232              		.loc 1 58 20 view -0
 2233              		.cfi_startproc
 2234              		@ args = 0, pretend = 0, frame = 0
 2235              		@ frame_needed = 0, uses_anonymous_args = 0
  60:../8-LCD-TEMP-STP_Motor_IR/main.c **** 	GPIOA->CRL	 = 0x33333300; // Hab PA(2-7) out PP
 2236              		.loc 1 60 2 view .LVU559
 2237              	@ ../8-LCD-TEMP-STP_Motor_IR/main.c:60: 	RCC->APB2ENR |= (1<<2);
  60:../8-LCD-TEMP-STP_Motor_IR/main.c **** 	GPIOA->CRL	 = 0x33333300; // Hab PA(2-7) out PP
 2238              		.loc 1 60 15 is_stmt 0 view .LVU560
 2239 06c4 294A     		ldr	r2, .L154	@ tmp132,
 2240              	@ ../8-LCD-TEMP-STP_Motor_IR/main.c:58: void LCD16x2_init(){
  58:../8-LCD-TEMP-STP_Motor_IR/main.c **** 
 2241              		.loc 1 58 20 view .LVU561
 2242 06c6 F8B5     		push	{r3, r4, r5, r6, r7, lr}	@
 2243              	.LCFI17:
 2244              		.cfi_def_cfa_offset 24
 2245              		.cfi_offset 3, -24
 2246              		.cfi_offset 4, -20
 2247              		.cfi_offset 5, -16
 2248              		.cfi_offset 6, -12
 2249              		.cfi_offset 7, -8
 2250              		.cfi_offset 14, -4
 2251              	@ ../8-LCD-TEMP-STP_Motor_IR/main.c:60: 	RCC->APB2ENR |= (1<<2);
  60:../8-LCD-TEMP-STP_Motor_IR/main.c **** 	GPIOA->CRL	 = 0x33333300; // Hab PA(2-7) out PP
 2252              		.loc 1 60 15 view .LVU562
 2253 06c8 9369     		ldr	r3, [r2, #24]	@ _1, MEM[(struct RCC_TypeDef *)1073876992B].APB2ENR
 2254              	@ ../8-LCD-TEMP-STP_Motor_IR/main.c:71: 	disp_text("================", 1, 0);
  71:../8-LCD-TEMP-STP_Motor_IR/main.c **** 
 2255              		.loc 1 71 2 view .LVU563
 2256 06ca 0024     		movs	r4, #0	@ ivtmp.176,
 2257              	@ ../8-LCD-TEMP-STP_Motor_IR/main.c:60: 	RCC->APB2ENR |= (1<<2);
  60:../8-LCD-TEMP-STP_Motor_IR/main.c **** 	GPIOA->CRL	 = 0x33333300; // Hab PA(2-7) out PP
 2258              		.loc 1 60 15 view .LVU564
 2259 06cc 43F00403 		orr	r3, r3, #4	@ _2, _1,
 2260 06d0 9361     		str	r3, [r2, #24]	@ _2, MEM[(struct RCC_TypeDef *)1073876992B].APB2ENR
  61:../8-LCD-TEMP-STP_Motor_IR/main.c **** 
 2261              		.loc 1 61 2 is_stmt 1 view .LVU565
 2262              	@ ../8-LCD-TEMP-STP_Motor_IR/main.c:61: 	GPIOA->CRL	 = 0x33333300; // Hab PA(2-7) out PP
  61:../8-LCD-TEMP-STP_Motor_IR/main.c **** 
 2263              		.loc 1 61 14 is_stmt 0 view .LVU566
ARM GAS  /tmp/ccaJFhKP.s 			page 58


 2264 06d2 274B     		ldr	r3, .L154+4	@ tmp134,
 2265 06d4 274A     		ldr	r2, .L154+8	@ tmp135,
 2266              	.LBB19:
 2267              	@ ../8-LCD-TEMP-STP_Motor_IR/main.c:75: 		disp_text("=", 0 ,i);
  75:../8-LCD-TEMP-STP_Motor_IR/main.c **** 		disp_text("-", 1 , 16 - i);
 2268              		.loc 1 75 3 view .LVU567
 2269 06d6 284F     		ldr	r7, .L154+12	@ tmp157,
 2270              	.LBE19:
 2271              	@ ../8-LCD-TEMP-STP_Motor_IR/main.c:61: 	GPIOA->CRL	 = 0x33333300; // Hab PA(2-7) out PP
  61:../8-LCD-TEMP-STP_Motor_IR/main.c **** 
 2272              		.loc 1 61 14 view .LVU568
 2273 06d8 1A60     		str	r2, [r3]	@ tmp135, MEM[(struct GPIO_TypeDef *)1073809408B].CRL
  63:../8-LCD-TEMP-STP_Motor_IR/main.c **** 	set_bit(IO,EN);   set_bit(IO,D4);
 2274              		.loc 1 63 2 is_stmt 1 view .LVU569
 2275 06da DA68     		ldr	r2, [r3, #12]	@ _3, MEM[(struct GPIO_TypeDef *)1073809408B].ODR
 2276              	.LBB20:
 2277              	@ ../8-LCD-TEMP-STP_Motor_IR/main.c:76: 		disp_text("-", 1 , 16 - i);
  76:../8-LCD-TEMP-STP_Motor_IR/main.c **** 	}
 2278              		.loc 1 76 3 is_stmt 0 view .LVU570
 2279 06dc 274E     		ldr	r6, .L154+16	@ tmp158,
 2280              	.LBE20:
 2281              	@ ../8-LCD-TEMP-STP_Motor_IR/main.c:63: 	set_bit(IO,RS);   set_bit(IO,RS);
  63:../8-LCD-TEMP-STP_Motor_IR/main.c **** 	set_bit(IO,EN);   set_bit(IO,D4);
 2282              		.loc 1 63 2 view .LVU571
 2283 06de 42F08002 		orr	r2, r2, #128	@ _4, _3,
 2284 06e2 DA60     		str	r2, [r3, #12]	@ _4, MEM[(struct GPIO_TypeDef *)1073809408B].ODR
  63:../8-LCD-TEMP-STP_Motor_IR/main.c **** 	set_bit(IO,EN);   set_bit(IO,D4);
 2285              		.loc 1 63 20 is_stmt 1 view .LVU572
 2286 06e4 DA68     		ldr	r2, [r3, #12]	@ _5, MEM[(struct GPIO_TypeDef *)1073809408B].ODR
 2287 06e6 42F08002 		orr	r2, r2, #128	@ _6, _5,
 2288 06ea DA60     		str	r2, [r3, #12]	@ _6, MEM[(struct GPIO_TypeDef *)1073809408B].ODR
  64:../8-LCD-TEMP-STP_Motor_IR/main.c **** 	set_bit(IO,D5);   set_bit(IO,D6);
 2289              		.loc 1 64 2 view .LVU573
 2290 06ec DA68     		ldr	r2, [r3, #12]	@ _7, MEM[(struct GPIO_TypeDef *)1073809408B].ODR
 2291 06ee 42F04002 		orr	r2, r2, #64	@ _8, _7,
 2292 06f2 DA60     		str	r2, [r3, #12]	@ _8, MEM[(struct GPIO_TypeDef *)1073809408B].ODR
  64:../8-LCD-TEMP-STP_Motor_IR/main.c **** 	set_bit(IO,D5);   set_bit(IO,D6);
 2293              		.loc 1 64 20 view .LVU574
 2294 06f4 DA68     		ldr	r2, [r3, #12]	@ _9, MEM[(struct GPIO_TypeDef *)1073809408B].ODR
 2295 06f6 42F02002 		orr	r2, r2, #32	@ _10, _9,
 2296 06fa DA60     		str	r2, [r3, #12]	@ _10, MEM[(struct GPIO_TypeDef *)1073809408B].ODR
  65:../8-LCD-TEMP-STP_Motor_IR/main.c **** 	set_bit(IO,D7);   disp_init();
 2297              		.loc 1 65 2 view .LVU575
 2298 06fc DA68     		ldr	r2, [r3, #12]	@ _11, MEM[(struct GPIO_TypeDef *)1073809408B].ODR
 2299 06fe 42F01002 		orr	r2, r2, #16	@ _12, _11,
 2300 0702 DA60     		str	r2, [r3, #12]	@ _12, MEM[(struct GPIO_TypeDef *)1073809408B].ODR
  65:../8-LCD-TEMP-STP_Motor_IR/main.c **** 	set_bit(IO,D7);   disp_init();
 2301              		.loc 1 65 20 view .LVU576
 2302 0704 DA68     		ldr	r2, [r3, #12]	@ _13, MEM[(struct GPIO_TypeDef *)1073809408B].ODR
 2303 0706 42F00802 		orr	r2, r2, #8	@ _14, _13,
 2304 070a DA60     		str	r2, [r3, #12]	@ _14, MEM[(struct GPIO_TypeDef *)1073809408B].ODR
  66:../8-LCD-TEMP-STP_Motor_IR/main.c **** 	disp_cmd(0x0C);
 2305              		.loc 1 66 2 view .LVU577
 2306 070c DA68     		ldr	r2, [r3, #12]	@ _15, MEM[(struct GPIO_TypeDef *)1073809408B].ODR
 2307 070e 42F00402 		orr	r2, r2, #4	@ _16, _15,
 2308 0712 DA60     		str	r2, [r3, #12]	@ _16, MEM[(struct GPIO_TypeDef *)1073809408B].ODR
  66:../8-LCD-TEMP-STP_Motor_IR/main.c **** 	disp_cmd(0x0C);
ARM GAS  /tmp/ccaJFhKP.s 			page 59


 2309              		.loc 1 66 20 view .LVU578
 2310 0714 FFF7FEFF 		bl	disp_init		@
 2311              	.LVL106:
  67:../8-LCD-TEMP-STP_Motor_IR/main.c **** 
 2312              		.loc 1 67 2 view .LVU579
 2313 0718 0C20     		movs	r0, #12	@,
 2314 071a FFF7FEFF 		bl	disp_cmd		@
 2315              	.LVL107:
  70:../8-LCD-TEMP-STP_Motor_IR/main.c **** 	disp_text("================", 1, 0);
 2316              		.loc 1 70 2 view .LVU580
 2317 071e 0022     		movs	r2, #0	@,
 2318 0720 1748     		ldr	r0, .L154+20	@,
 2319 0722 1146     		mov	r1, r2	@,
 2320 0724 FFF7FEFF 		bl	disp_text		@
 2321              	.LVL108:
  71:../8-LCD-TEMP-STP_Motor_IR/main.c **** 
 2322              		.loc 1 71 2 view .LVU581
 2323 0728 0022     		movs	r2, #0	@,
 2324 072a 0121     		movs	r1, #1	@,
 2325 072c 1548     		ldr	r0, .L154+24	@,
 2326 072e FFF7FEFF 		bl	disp_text		@
 2327              	.LVL109:
  73:../8-LCD-TEMP-STP_Motor_IR/main.c **** 		__delay_ms(VEL_ANIMACAO);
 2328              		.loc 1 73 2 view .LVU582
 2329              	.LBB21:
  73:../8-LCD-TEMP-STP_Motor_IR/main.c **** 		__delay_ms(VEL_ANIMACAO);
 2330              		.loc 1 73 7 view .LVU583
  73:../8-LCD-TEMP-STP_Motor_IR/main.c **** 		__delay_ms(VEL_ANIMACAO);
 2331              		.loc 1 73 16 view .LVU584
 2332              	.L152:
  73:../8-LCD-TEMP-STP_Motor_IR/main.c **** 		__delay_ms(VEL_ANIMACAO);
 2333              		.loc 1 73 16 is_stmt 0 view .LVU585
 2334 0732 E5B2     		uxtb	r5, r4	@ _40, ivtmp.176
 2335              	.LVL110:
  74:../8-LCD-TEMP-STP_Motor_IR/main.c **** 		disp_text("=", 0 ,i);
 2336              		.loc 1 74 3 is_stmt 1 discriminator 3 view .LVU586
 2337 0734 40F2DC50 		movw	r0, #1500	@,
 2338 0738 FFF7FEFF 		bl	vTaskDelay		@
 2339              	.LVL111:
  75:../8-LCD-TEMP-STP_Motor_IR/main.c **** 		disp_text("-", 1 , 16 - i);
 2340              		.loc 1 75 3 discriminator 3 view .LVU587
 2341 073c 2A46     		mov	r2, r5	@, _40
 2342 073e 0021     		movs	r1, #0	@,
 2343 0740 3846     		mov	r0, r7	@, tmp157
 2344 0742 FFF7FEFF 		bl	disp_text		@
 2345              	.LVL112:
  76:../8-LCD-TEMP-STP_Motor_IR/main.c **** 	}
 2346              		.loc 1 76 3 discriminator 3 view .LVU588
 2347 0746 C5F11002 		rsb	r2, r5, #16	@ tmp153, _40,
 2348 074a 0121     		movs	r1, #1	@,
 2349 074c 3046     		mov	r0, r6	@, tmp158
 2350 074e D2B2     		uxtb	r2, r2	@, tmp153
 2351              	@ ../8-LCD-TEMP-STP_Motor_IR/main.c:73: 	for (u8 i=0 ; i<16 ; i++){
  73:../8-LCD-TEMP-STP_Motor_IR/main.c **** 		__delay_ms(VEL_ANIMACAO);
 2352              		.loc 1 73 2 is_stmt 0 discriminator 3 view .LVU589
 2353 0750 0134     		adds	r4, r4, #1	@ ivtmp.176, ivtmp.176,
 2354              	@ ../8-LCD-TEMP-STP_Motor_IR/main.c:76: 		disp_text("-", 1 , 16 - i);
ARM GAS  /tmp/ccaJFhKP.s 			page 60


  76:../8-LCD-TEMP-STP_Motor_IR/main.c **** 	}
 2355              		.loc 1 76 3 discriminator 3 view .LVU590
 2356 0752 FFF7FEFF 		bl	disp_text		@
 2357              	.LVL113:
  73:../8-LCD-TEMP-STP_Motor_IR/main.c **** 		__delay_ms(VEL_ANIMACAO);
 2358              		.loc 1 73 23 is_stmt 1 discriminator 3 view .LVU591
  73:../8-LCD-TEMP-STP_Motor_IR/main.c **** 		__delay_ms(VEL_ANIMACAO);
 2359              		.loc 1 73 16 discriminator 3 view .LVU592
 2360              	@ ../8-LCD-TEMP-STP_Motor_IR/main.c:73: 	for (u8 i=0 ; i<16 ; i++){
  73:../8-LCD-TEMP-STP_Motor_IR/main.c **** 		__delay_ms(VEL_ANIMACAO);
 2361              		.loc 1 73 2 is_stmt 0 discriminator 3 view .LVU593
 2362 0756 102C     		cmp	r4, #16	@ ivtmp.176,
 2363 0758 EBD1     		bne	.L152		@,
 2364              	.LBE21:
  78:../8-LCD-TEMP-STP_Motor_IR/main.c **** 	disp_clear();
 2365              		.loc 1 78 2 is_stmt 1 view .LVU594
 2366 075a 40F2DC50 		movw	r0, #1500	@,
 2367 075e FFF7FEFF 		bl	vTaskDelay		@
 2368              	.LVL114:
  79:../8-LCD-TEMP-STP_Motor_IR/main.c **** }
 2369              		.loc 1 79 2 view .LVU595
 2370              	@ ../8-LCD-TEMP-STP_Motor_IR/main.c:80: }
  80:../8-LCD-TEMP-STP_Motor_IR/main.c **** 
 2371              		.loc 1 80 1 is_stmt 0 view .LVU596
 2372 0762 BDE8F840 		pop	{r3, r4, r5, r6, r7, lr}	@
 2373              	.LCFI18:
 2374              		.cfi_restore 14
 2375              		.cfi_restore 7
 2376              		.cfi_restore 6
 2377              		.cfi_restore 5
 2378              		.cfi_restore 4
 2379              		.cfi_restore 3
 2380              		.cfi_def_cfa_offset 0
 2381              	@ ../8-LCD-TEMP-STP_Motor_IR/main.c:79: 	disp_clear();
  79:../8-LCD-TEMP-STP_Motor_IR/main.c **** }
 2382              		.loc 1 79 2 view .LVU597
 2383 0766 FFF7FEBF 		b	disp_clear		@
 2384              	.LVL115:
 2385              	.L155:
 2386 076a 00BF     		.align	2
 2387              	.L154:
 2388 076c 00100240 		.word	1073876992
 2389 0770 00080140 		.word	1073809408
 2390 0774 00333333 		.word	858993408
 2391 0778 2F000000 		.word	.LC3
 2392 077c 31000000 		.word	.LC4
 2393 0780 0D000000 		.word	.LC1
 2394 0784 1E000000 		.word	.LC2
 2395              		.cfi_endproc
 2396              	.LFE50:
 2397              		.size	LCD16x2_init, .-LCD16x2_init
 2398              		.section	.rodata.str1.1
 2399              	.LC5:
 2400 0033 54656D70 		.ascii	"Temperatura - C\000"
 2400      65726174 
 2400      75726120 
 2400      2D204300 
ARM GAS  /tmp/ccaJFhKP.s 			page 61


 2401              		.global	__aeabi_f2d
 2402              		.global	__aeabi_dmul
 2403              		.global	__aeabi_d2f
 2404              	.LC6:
 2405 0043 2D2D2D20 		.ascii	"--- IR Hex Code\000"
 2405      49522048 
 2405      65782043 
 2405      6F646500 
 2406              		.text
 2407              		.align	1
 2408              		.syntax unified
 2409              		.thumb
 2410              		.thumb_func
 2411              		.type	task1, %function
 2412              	task1:
 2413              	.LVL116:
 2414              	.LFB51:
  82:../8-LCD-TEMP-STP_Motor_IR/main.c **** 
 2415              		.loc 1 82 53 is_stmt 1 view -0
 2416              		.cfi_startproc
 2417              		@ args = 0, pretend = 0, frame = 32
 2418              		@ frame_needed = 0, uses_anonymous_args = 0
  92:../8-LCD-TEMP-STP_Motor_IR/main.c **** 	RCC->APB2ENR |= 1<<3;
 2419              		.loc 1 92 2 view .LVU599
 2420              	@ ../8-LCD-TEMP-STP_Motor_IR/main.c:82: static void task1(void *args __attribute((unused))) {
  82:../8-LCD-TEMP-STP_Motor_IR/main.c **** 
 2421              		.loc 1 82 53 is_stmt 0 view .LVU600
 2422 0788 2DE9F04F 		push	{r4, r5, r6, r7, r8, r9, r10, fp, lr}	@
 2423              	.LCFI19:
 2424              		.cfi_def_cfa_offset 36
 2425              		.cfi_offset 4, -36
 2426              		.cfi_offset 5, -32
 2427              		.cfi_offset 6, -28
 2428              		.cfi_offset 7, -24
 2429              		.cfi_offset 8, -20
 2430              		.cfi_offset 9, -16
 2431              		.cfi_offset 10, -12
 2432              		.cfi_offset 11, -8
 2433              		.cfi_offset 14, -4
 2434              	@ ../8-LCD-TEMP-STP_Motor_IR/main.c:142: 				floatToString((float) BUFF * ADC_Const, Float_point, 2
 142:../8-LCD-TEMP-STP_Motor_IR/main.c **** 				disp_text(Float_point, 1, 6);
 2435              		.loc 1 142 32 view .LVU601
 2436 078c 0FF23819 		adr	r9, .L183	@,
 2437 0790 D9E90089 		ldrd	r8, [r9]	@ tmp180,
 2438              	@ ../8-LCD-TEMP-STP_Motor_IR/main.c:103: 	u8 RD = 0;
 103:../8-LCD-TEMP-STP_Motor_IR/main.c **** 	u32 code_ir;
 2439              		.loc 1 103 5 view .LVU602
 2440 0794 0025     		movs	r5, #0	@ RD,
 2441              	@ ../8-LCD-TEMP-STP_Motor_IR/main.c:99: 	u8 ent_atual=1;
  99:../8-LCD-TEMP-STP_Motor_IR/main.c **** 
 2442              		.loc 1 99 5 view .LVU603
 2443 0796 0124     		movs	r4, #1	@ ent_atual,
 2444              	@ ../8-LCD-TEMP-STP_Motor_IR/main.c:96: 	int msg_buf_rev, BUFF = 0;
  96:../8-LCD-TEMP-STP_Motor_IR/main.c **** 
 2445              		.loc 1 96 19 view .LVU604
 2446 0798 2E46     		mov	r6, r5	@ BUFF, RD
 2447              	@ ../8-LCD-TEMP-STP_Motor_IR/main.c:82: static void task1(void *args __attribute((unused))) {
ARM GAS  /tmp/ccaJFhKP.s 			page 62


  82:../8-LCD-TEMP-STP_Motor_IR/main.c **** 
 2448              		.loc 1 82 53 view .LVU605
 2449 079a 89B0     		sub	sp, sp, #36	@,,
 2450              	.LCFI20:
 2451              		.cfi_def_cfa_offset 72
 2452              	@ ../8-LCD-TEMP-STP_Motor_IR/main.c:92: 	LCD16x2_init();
  92:../8-LCD-TEMP-STP_Motor_IR/main.c **** 	RCC->APB2ENR |= 1<<3;
 2453              		.loc 1 92 2 view .LVU606
 2454 079c FFF7FEFF 		bl	LCD16x2_init		@
 2455              	.LVL117:
  93:../8-LCD-TEMP-STP_Motor_IR/main.c **** 	GPIOB->CRH |= 0x4<<0; // Input Pull
 2456              		.loc 1 93 2 is_stmt 1 view .LVU607
 2457              	@ ../8-LCD-TEMP-STP_Motor_IR/main.c:93: 	RCC->APB2ENR |= 1<<3;
  93:../8-LCD-TEMP-STP_Motor_IR/main.c **** 	GPIOB->CRH |= 0x4<<0; // Input Pull
 2458              		.loc 1 93 15 is_stmt 0 view .LVU608
 2459 07a0 4B4A     		ldr	r2, .L183+8	@ tmp139,
 2460              	@ ../8-LCD-TEMP-STP_Motor_IR/main.c:109: 		if (xQueueReceive(LCD_Show_queue, 
 109:../8-LCD-TEMP-STP_Motor_IR/main.c **** 					&msg_buf_rev, pdMS_TO_TICKS(1)))
 2461              		.loc 1 109 7 view .LVU609
 2462 07a2 4C4F     		ldr	r7, .L183+12	@ tmp146,
 2463              	@ ../8-LCD-TEMP-STP_Motor_IR/main.c:93: 	RCC->APB2ENR |= 1<<3;
  93:../8-LCD-TEMP-STP_Motor_IR/main.c **** 	GPIOB->CRH |= 0x4<<0; // Input Pull
 2464              		.loc 1 93 15 view .LVU610
 2465 07a4 9369     		ldr	r3, [r2, #24]	@ _2, MEM[(struct RCC_TypeDef *)1073876992B].APB2ENR
 2466 07a6 43F00803 		orr	r3, r3, #8	@ _4, _2,
 2467 07aa 9361     		str	r3, [r2, #24]	@ _4, MEM[(struct RCC_TypeDef *)1073876992B].APB2ENR
  94:../8-LCD-TEMP-STP_Motor_IR/main.c **** 	GPIOB->ODR |= 1<<8; // Pull-up
 2468              		.loc 1 94 2 is_stmt 1 view .LVU611
 2469              	@ ../8-LCD-TEMP-STP_Motor_IR/main.c:94: 	GPIOB->CRH |= 0x4<<0; // Input Pull
  94:../8-LCD-TEMP-STP_Motor_IR/main.c **** 	GPIOB->ODR |= 1<<8; // Pull-up
 2470              		.loc 1 94 13 is_stmt 0 view .LVU612
 2471 07ac 4A4B     		ldr	r3, .L183+16	@ tmp141,
 2472 07ae 5A68     		ldr	r2, [r3, #4]	@ _6, MEM[(struct GPIO_TypeDef *)1073810432B].CRH
 2473 07b0 42F00402 		orr	r2, r2, #4	@ _8, _6,
 2474 07b4 5A60     		str	r2, [r3, #4]	@ _8, MEM[(struct GPIO_TypeDef *)1073810432B].CRH
  95:../8-LCD-TEMP-STP_Motor_IR/main.c **** 	int msg_buf_rev, BUFF = 0;
 2475              		.loc 1 95 2 is_stmt 1 view .LVU613
 2476              	@ ../8-LCD-TEMP-STP_Motor_IR/main.c:95: 	GPIOB->ODR |= 1<<8; // Pull-up
  95:../8-LCD-TEMP-STP_Motor_IR/main.c **** 	int msg_buf_rev, BUFF = 0;
 2477              		.loc 1 95 13 is_stmt 0 view .LVU614
 2478 07b6 DA68     		ldr	r2, [r3, #12]	@ _10, MEM[(struct GPIO_TypeDef *)1073810432B].ODR
 2479 07b8 42F48072 		orr	r2, r2, #256	@ _12, _10,
 2480 07bc DA60     		str	r2, [r3, #12]	@ _12, MEM[(struct GPIO_TypeDef *)1073810432B].ODR
  96:../8-LCD-TEMP-STP_Motor_IR/main.c **** 
 2481              		.loc 1 96 2 is_stmt 1 view .LVU615
 2482              	.LVL118:
  98:../8-LCD-TEMP-STP_Motor_IR/main.c **** 	u8 ent_atual=1;
 2483              		.loc 1 98 2 view .LVU616
  99:../8-LCD-TEMP-STP_Motor_IR/main.c **** 
 2484              		.loc 1 99 2 view .LVU617
 103:../8-LCD-TEMP-STP_Motor_IR/main.c **** 	u32 code_ir;
 2485              		.loc 1 103 2 view .LVU618
 2486              	.L157:
 104:../8-LCD-TEMP-STP_Motor_IR/main.c **** 	char word_IR[8];
 2487              		.loc 1 104 2 view .LVU619
 105:../8-LCD-TEMP-STP_Motor_IR/main.c **** 
 2488              		.loc 1 105 2 view .LVU620
ARM GAS  /tmp/ccaJFhKP.s 			page 63


 107:../8-LCD-TEMP-STP_Motor_IR/main.c **** // ----------- FILAS
 2489              		.loc 1 107 2 view .LVU621
 109:../8-LCD-TEMP-STP_Motor_IR/main.c **** 					&msg_buf_rev, pdMS_TO_TICKS(1)))
 2490              		.loc 1 109 3 view .LVU622
 2491              	@ ../8-LCD-TEMP-STP_Motor_IR/main.c:109: 		if (xQueueReceive(LCD_Show_queue, 
 109:../8-LCD-TEMP-STP_Motor_IR/main.c **** 					&msg_buf_rev, pdMS_TO_TICKS(1)))
 2492              		.loc 1 109 7 is_stmt 0 view .LVU623
 2493 07be 6422     		movs	r2, #100	@,
 2494 07c0 B868     		ldr	r0, [r7, #8]	@, LCD_Show_queue
 2495 07c2 02A9     		add	r1, sp, #8	@,,
 2496 07c4 FFF7FEFF 		bl	xQueueReceive		@
 2497              	.LVL119:
 2498              	@ ../8-LCD-TEMP-STP_Motor_IR/main.c:109: 		if (xQueueReceive(LCD_Show_queue, 
 109:../8-LCD-TEMP-STP_Motor_IR/main.c **** 					&msg_buf_rev, pdMS_TO_TICKS(1)))
 2499              		.loc 1 109 6 view .LVU624
 2500 07c8 00B1     		cbz	r0, .L158	@ tmp181,
 111:../8-LCD-TEMP-STP_Motor_IR/main.c **** 
 2501              		.loc 1 111 4 is_stmt 1 view .LVU625
 2502              	@ ../8-LCD-TEMP-STP_Motor_IR/main.c:111: 			BUFF = msg_buf_rev;
 111:../8-LCD-TEMP-STP_Motor_IR/main.c **** 
 2503              		.loc 1 111 9 is_stmt 0 view .LVU626
 2504 07ca 029E     		ldr	r6, [sp, #8]	@ BUFF, msg_buf_rev
 2505              	.LVL120:
 2506              	.L158:
 114:../8-LCD-TEMP-STP_Motor_IR/main.c **** 		if (xQueuePeek(IR_Data_queue, &code_ir, 0))
 2507              		.loc 1 114 3 is_stmt 1 view .LVU627
 2508              	@ ../8-LCD-TEMP-STP_Motor_IR/main.c:114: 		code_ir = 0xffffff;
 114:../8-LCD-TEMP-STP_Motor_IR/main.c **** 		if (xQueuePeek(IR_Data_queue, &code_ir, 0))
 2509              		.loc 1 114 11 is_stmt 0 view .LVU628
 2510 07cc 6FF07F43 		mvn	r3, #-16777216	@ tmp147,
 2511              	@ ../8-LCD-TEMP-STP_Motor_IR/main.c:115: 		if (xQueuePeek(IR_Data_queue, &code_ir, 0))
 115:../8-LCD-TEMP-STP_Motor_IR/main.c **** 			itoa (code_ir, word_IR, 16);
 2512              		.loc 1 115 7 view .LVU629
 2513 07d0 0022     		movs	r2, #0	@,
 2514 07d2 7868     		ldr	r0, [r7, #4]	@, IR_Data_queue
 2515 07d4 03A9     		add	r1, sp, #12	@,,
 2516              	@ ../8-LCD-TEMP-STP_Motor_IR/main.c:114: 		code_ir = 0xffffff;
 114:../8-LCD-TEMP-STP_Motor_IR/main.c **** 		if (xQueuePeek(IR_Data_queue, &code_ir, 0))
 2517              		.loc 1 114 11 view .LVU630
 2518 07d6 0393     		str	r3, [sp, #12]	@ tmp147, code_ir
 115:../8-LCD-TEMP-STP_Motor_IR/main.c **** 			itoa (code_ir, word_IR, 16);
 2519              		.loc 1 115 3 is_stmt 1 view .LVU631
 2520              	@ ../8-LCD-TEMP-STP_Motor_IR/main.c:115: 		if (xQueuePeek(IR_Data_queue, &code_ir, 0))
 115:../8-LCD-TEMP-STP_Motor_IR/main.c **** 			itoa (code_ir, word_IR, 16);
 2521              		.loc 1 115 7 is_stmt 0 view .LVU632
 2522 07d8 FFF7FEFF 		bl	xQueuePeek		@
 2523              	.LVL121:
 2524              	@ ../8-LCD-TEMP-STP_Motor_IR/main.c:115: 		if (xQueuePeek(IR_Data_queue, &code_ir, 0))
 115:../8-LCD-TEMP-STP_Motor_IR/main.c **** 			itoa (code_ir, word_IR, 16);
 2525              		.loc 1 115 6 view .LVU633
 2526 07dc 20B1     		cbz	r0, .L159	@ tmp182,
 116:../8-LCD-TEMP-STP_Motor_IR/main.c **** 
 2527              		.loc 1 116 4 is_stmt 1 view .LVU634
 2528 07de 1022     		movs	r2, #16	@,
 2529 07e0 0398     		ldr	r0, [sp, #12]	@, code_ir
 2530 07e2 06A9     		add	r1, sp, #24	@,,
 2531 07e4 FFF7FEFF 		bl	itoa		@
ARM GAS  /tmp/ccaJFhKP.s 			page 64


 2532              	.LVL122:
 2533              	.L159:
 120:../8-LCD-TEMP-STP_Motor_IR/main.c **** 			
 2534              		.loc 1 120 9 view .LVU635
 2535 07e8 0C2D     		cmp	r5, #12	@ RD,
 2536 07ea 02D9     		bls	.L160		@,
 122:../8-LCD-TEMP-STP_Motor_IR/main.c **** 		disp_clear();
 2537              		.loc 1 122 3 view .LVU636
 2538              	.LVL123:
 123:../8-LCD-TEMP-STP_Motor_IR/main.c **** 		} RD ++;
 2539              		.loc 1 123 3 view .LVU637
 2540 07ec FFF7FEFF 		bl	disp_clear		@
 2541              	.LVL124:
 120:../8-LCD-TEMP-STP_Motor_IR/main.c **** 			
 2542              		.loc 1 120 9 view .LVU638
 2543              	@ ../8-LCD-TEMP-STP_Motor_IR/main.c:122: 		RD = 0;
 122:../8-LCD-TEMP-STP_Motor_IR/main.c **** 		disp_clear();
 2544              		.loc 1 122 6 is_stmt 0 view .LVU639
 2545 07f0 0025     		movs	r5, #0	@ RD,
 2546              	.LVL125:
 2547              	.L160:
 124:../8-LCD-TEMP-STP_Motor_IR/main.c **** 
 2548              		.loc 1 124 5 is_stmt 1 view .LVU640
 2549              	@ ../8-LCD-TEMP-STP_Motor_IR/main.c:128: 		if ((GPIOB->IDR & (1<<8)) || code_ir == CR_B4){{
 128:../8-LCD-TEMP-STP_Motor_IR/main.c **** 			ent_atual ++;
 2550              		.loc 1 128 13 is_stmt 0 view .LVU641
 2551 07f2 394B     		ldr	r3, .L183+16	@ tmp154,
 2552              	@ ../8-LCD-TEMP-STP_Motor_IR/main.c:124: 		} RD ++;
 124:../8-LCD-TEMP-STP_Motor_IR/main.c **** 
 2553              		.loc 1 124 8 view .LVU642
 2554 07f4 0135     		adds	r5, r5, #1	@ tmp153, RD,
 2555              	@ ../8-LCD-TEMP-STP_Motor_IR/main.c:128: 		if ((GPIOB->IDR & (1<<8)) || code_ir == CR_B4){{
 128:../8-LCD-TEMP-STP_Motor_IR/main.c **** 			ent_atual ++;
 2556              		.loc 1 128 13 view .LVU643
 2557 07f6 9B68     		ldr	r3, [r3, #8]	@ _19, MEM[(struct GPIO_TypeDef *)1073810432B].IDR
 2558              	@ ../8-LCD-TEMP-STP_Motor_IR/main.c:124: 		} RD ++;
 124:../8-LCD-TEMP-STP_Motor_IR/main.c **** 
 2559              		.loc 1 124 8 view .LVU644
 2560 07f8 EDB2     		uxtb	r5, r5	@ RD, tmp153
 2561              	.LVL126:
 128:../8-LCD-TEMP-STP_Motor_IR/main.c **** 			ent_atual ++;
 2562              		.loc 1 128 3 is_stmt 1 view .LVU645
 2563              	@ ../8-LCD-TEMP-STP_Motor_IR/main.c:128: 		if ((GPIOB->IDR & (1<<8)) || code_ir == CR_B4){{
 128:../8-LCD-TEMP-STP_Motor_IR/main.c **** 			ent_atual ++;
 2564              		.loc 1 128 6 is_stmt 0 view .LVU646
 2565 07fa DB05     		lsls	r3, r3, #23	@, _19,
 2566 07fc 03D4     		bmi	.L162		@,
 2567              	@ ../8-LCD-TEMP-STP_Motor_IR/main.c:128: 		if ((GPIOB->IDR & (1<<8)) || code_ir == CR_B4){{
 128:../8-LCD-TEMP-STP_Motor_IR/main.c **** 			ent_atual ++;
 2568              		.loc 1 128 29 discriminator 1 view .LVU647
 2569 07fe 374B     		ldr	r3, .L183+20	@ tmp156,
 2570 0800 039A     		ldr	r2, [sp, #12]	@ code_ir, code_ir
 2571 0802 9A42     		cmp	r2, r3	@ code_ir, tmp156
 2572 0804 49D1     		bne	.L163		@,
 2573              	.L162:
 129:../8-LCD-TEMP-STP_Motor_IR/main.c **** 		}
 2574              		.loc 1 129 4 is_stmt 1 view .LVU648
ARM GAS  /tmp/ccaJFhKP.s 			page 65


 2575              	@ ../8-LCD-TEMP-STP_Motor_IR/main.c:129: 			ent_atual ++;
 129:../8-LCD-TEMP-STP_Motor_IR/main.c **** 		}
 2576              		.loc 1 129 14 is_stmt 0 view .LVU649
 2577 0806 0134     		adds	r4, r4, #1	@ tmp158, ent_atual,
 2578              	.LVL127:
 129:../8-LCD-TEMP-STP_Motor_IR/main.c **** 		}
 2579              		.loc 1 129 14 view .LVU650
 2580 0808 E4B2     		uxtb	r4, r4	@ ent_atual, tmp158
 2581              	.LVL128:
 132:../8-LCD-TEMP-STP_Motor_IR/main.c **** 			ent_atual = 1;
 2582              		.loc 1 132 3 is_stmt 1 view .LVU651
 2583              	@ ../8-LCD-TEMP-STP_Motor_IR/main.c:132: 		if (ent_atual > MAX_MENU )
 132:../8-LCD-TEMP-STP_Motor_IR/main.c **** 			ent_atual = 1;
 2584              		.loc 1 132 6 is_stmt 0 view .LVU652
 2585 080a 032C     		cmp	r4, #3	@ ent_atual,
 2586 080c 1CD9     		bls	.L164		@,
 133:../8-LCD-TEMP-STP_Motor_IR/main.c **** 		disp_clear();
 2587              		.loc 1 133 4 is_stmt 1 view .LVU653
 2588              	.LVL129:
 134:../8-LCD-TEMP-STP_Motor_IR/main.c **** 		}
 2589              		.loc 1 134 3 view .LVU654
 2590 080e FFF7FEFF 		bl	disp_clear		@
 2591              	.LVL130:
 139:../8-LCD-TEMP-STP_Motor_IR/main.c **** 				disp_text("Temperatura - C", 0, 0); 
 2592              		.loc 1 139 3 view .LVU655
 2593              	.L165:
 140:../8-LCD-TEMP-STP_Motor_IR/main.c **** 
 2594              		.loc 1 140 5 view .LVU656
 2595 0812 0022     		movs	r2, #0	@,
 2596 0814 3248     		ldr	r0, .L183+24	@,
 2597 0816 1146     		mov	r1, r2	@,
 2598 0818 FFF7FEFF 		bl	disp_text		@
 2599              	.LVL131:
 142:../8-LCD-TEMP-STP_Motor_IR/main.c **** 				disp_text(Float_point, 1, 6);
 2600              		.loc 1 142 5 view .LVU657
 2601              	@ ../8-LCD-TEMP-STP_Motor_IR/main.c:142: 				floatToString((float) BUFF * ADC_Const, Float_point, 2
 142:../8-LCD-TEMP-STP_Motor_IR/main.c **** 				disp_text(Float_point, 1, 6);
 2602              		.loc 1 142 19 is_stmt 0 view .LVU658
 2603 081c 3046     		mov	r0, r6	@, BUFF
 2604 081e FFF7FEFF 		bl	__aeabi_i2f		@
 2605              	.LVL132:
 2606 0822 FFF7FEFF 		bl	__aeabi_f2d		@
 2607              	.LVL133:
 2608              	@ ../8-LCD-TEMP-STP_Motor_IR/main.c:142: 				floatToString((float) BUFF * ADC_Const, Float_point, 2
 142:../8-LCD-TEMP-STP_Motor_IR/main.c **** 				disp_text(Float_point, 1, 6);
 2609              		.loc 1 142 32 view .LVU659
 2610 0826 4B46     		mov	r3, r9	@,
 2611 0828 4246     		mov	r2, r8	@, tmp180
 2612 082a FFF7FEFF 		bl	__aeabi_dmul		@
 2613              	.LVL134:
 2614              	@ ../8-LCD-TEMP-STP_Motor_IR/main.c:142: 				floatToString((float) BUFF * ADC_Const, Float_point, 2
 142:../8-LCD-TEMP-STP_Motor_IR/main.c **** 				disp_text(Float_point, 1, 6);
 2615              		.loc 1 142 5 view .LVU660
 2616 082e FFF7FEFF 		bl	__aeabi_d2f		@
 2617              	.LVL135:
 2618 0832 0222     		movs	r2, #2	@,
 2619 0834 04A9     		add	r1, sp, #16	@ tmp184,,
ARM GAS  /tmp/ccaJFhKP.s 			page 66


 2620 0836 FFF7FEFF 		bl	floatToString		@
 2621              	.LVL136:
 143:../8-LCD-TEMP-STP_Motor_IR/main.c **** 		} 
 2622              		.loc 1 143 5 is_stmt 1 view .LVU661
 2623 083a 0622     		movs	r2, #6	@,
 2624 083c 0121     		movs	r1, #1	@,
 2625 083e 04A8     		add	r0, sp, #16	@ tmp185,,
 2626 0840 FFF7FEFF 		bl	disp_text		@
 2627              	.LVL137:
 145:../8-LCD-TEMP-STP_Motor_IR/main.c **** 			disp_text("----------------", 0 ,0);
 2628              		.loc 1 145 3 view .LVU662
 156:../8-LCD-TEMP-STP_Motor_IR/main.c **** 			disp_text("--- IR Hex Code", 0, 0); 
 2629              		.loc 1 156 3 view .LVU663
 2630              	@ ../8-LCD-TEMP-STP_Motor_IR/main.c:143: 				disp_text(Float_point, 1, 6);
 143:../8-LCD-TEMP-STP_Motor_IR/main.c **** 		} 
 2631              		.loc 1 143 5 is_stmt 0 view .LVU664
 2632 0844 0124     		movs	r4, #1	@ ent_atual,
 2633 0846 BAE7     		b	.L157		@
 2634              	.LVL138:
 2635              	.L164:
 134:../8-LCD-TEMP-STP_Motor_IR/main.c **** 		}
 2636              		.loc 1 134 3 is_stmt 1 view .LVU665
 2637 0848 FFF7FEFF 		bl	disp_clear		@
 2638              	.LVL139:
 139:../8-LCD-TEMP-STP_Motor_IR/main.c **** 				disp_text("Temperatura - C", 0, 0); 
 2639              		.loc 1 139 3 view .LVU666
 2640              	.L166:
 145:../8-LCD-TEMP-STP_Motor_IR/main.c **** 			disp_text("----------------", 0 ,0);
 2641              		.loc 1 145 3 view .LVU667
 2642              	@ ../8-LCD-TEMP-STP_Motor_IR/main.c:145: 		if (ent_atual == 2 ){
 145:../8-LCD-TEMP-STP_Motor_IR/main.c **** 			disp_text("----------------", 0 ,0);
 2643              		.loc 1 145 6 is_stmt 0 view .LVU668
 2644 084c 022C     		cmp	r4, #2	@ ent_atual,
 2645 084e 27D1     		bne	.L182		@,
 146:../8-LCD-TEMP-STP_Motor_IR/main.c **** 			disp_text("================", 1, 0);
 2646              		.loc 1 146 4 is_stmt 1 view .LVU669
 2647 0850 0022     		movs	r2, #0	@,
 2648 0852 2448     		ldr	r0, .L183+28	@,
 2649 0854 1146     		mov	r1, r2	@,
 2650 0856 FFF7FEFF 		bl	disp_text		@
 2651              	.LVL140:
 147:../8-LCD-TEMP-STP_Motor_IR/main.c **** 
 2652              		.loc 1 147 4 view .LVU670
 2653 085a 0022     		movs	r2, #0	@,
 2654 085c 0121     		movs	r1, #1	@,
 2655 085e 2248     		ldr	r0, .L183+32	@,
 2656 0860 FFF7FEFF 		bl	disp_text		@
 2657              	.LVL141:
 149:../8-LCD-TEMP-STP_Motor_IR/main.c **** 				__delay_ms(10);
 2658              		.loc 1 149 4 view .LVU671
 2659              	.LBB22:
 149:../8-LCD-TEMP-STP_Motor_IR/main.c **** 				__delay_ms(10);
 2660              		.loc 1 149 9 view .LVU672
 149:../8-LCD-TEMP-STP_Motor_IR/main.c **** 				__delay_ms(10);
 2661              		.loc 1 149 18 view .LVU673
 2662              	.LBE22:
 2663              	@ ../8-LCD-TEMP-STP_Motor_IR/main.c:147: 			disp_text("================", 1, 0);
ARM GAS  /tmp/ccaJFhKP.s 			page 67


 147:../8-LCD-TEMP-STP_Motor_IR/main.c **** 
 2664              		.loc 1 147 4 is_stmt 0 view .LVU674
 2665 0864 0023     		movs	r3, #0	@ ivtmp.185,
 2666              	.LBB23:
 2667              	@ ../8-LCD-TEMP-STP_Motor_IR/main.c:151: 				disp_text("=", 0 ,i);
 151:../8-LCD-TEMP-STP_Motor_IR/main.c **** 				disp_text("-", 1 , 15 - i);
 2668              		.loc 1 151 5 view .LVU675
 2669 0866 DFF884B0 		ldr	fp, .L183+36	@ tmp178,
 2670              	.LVL142:
 2671              	.L171:
 151:../8-LCD-TEMP-STP_Motor_IR/main.c **** 				disp_text("-", 1 , 15 - i);
 2672              		.loc 1 151 5 view .LVU676
 2673 086a 5FFA83FA 		uxtb	r10, r3	@ _32, ivtmp.185
 2674              	@ ../8-LCD-TEMP-STP_Motor_IR/main.c:150: 				__delay_ms(10);
 150:../8-LCD-TEMP-STP_Motor_IR/main.c **** 				disp_text("=", 0 ,i);
 2675              		.loc 1 150 5 discriminator 3 view .LVU677
 2676 086e 4FF47A70 		mov	r0, #1000	@,
 2677 0872 0193     		str	r3, [sp, #4]	@ ivtmp.185, %sfp
 2678              	.LVL143:
 150:../8-LCD-TEMP-STP_Motor_IR/main.c **** 				disp_text("=", 0 ,i);
 2679              		.loc 1 150 5 is_stmt 1 discriminator 3 view .LVU678
 2680 0874 FFF7FEFF 		bl	vTaskDelay		@
 2681              	.LVL144:
 151:../8-LCD-TEMP-STP_Motor_IR/main.c **** 				disp_text("-", 1 , 15 - i);
 2682              		.loc 1 151 5 discriminator 3 view .LVU679
 2683 0878 5246     		mov	r2, r10	@, _32
 2684 087a 0021     		movs	r1, #0	@,
 2685 087c 5846     		mov	r0, fp	@, tmp178
 2686 087e FFF7FEFF 		bl	disp_text		@
 2687              	.LVL145:
 152:../8-LCD-TEMP-STP_Motor_IR/main.c **** 			}
 2688              		.loc 1 152 5 discriminator 3 view .LVU680
 2689 0882 CAF10F02 		rsb	r2, r10, #15	@ tmp171, _32,
 2690 0886 0121     		movs	r1, #1	@,
 2691 0888 1948     		ldr	r0, .L183+40	@,
 2692 088a D2B2     		uxtb	r2, r2	@, tmp171
 2693 088c FFF7FEFF 		bl	disp_text		@
 2694              	.LVL146:
 149:../8-LCD-TEMP-STP_Motor_IR/main.c **** 				__delay_ms(10);
 2695              		.loc 1 149 25 discriminator 3 view .LVU681
 149:../8-LCD-TEMP-STP_Motor_IR/main.c **** 				__delay_ms(10);
 2696              		.loc 1 149 18 discriminator 3 view .LVU682
 2697              	@ ../8-LCD-TEMP-STP_Motor_IR/main.c:149: 			for (u8 i=0 ; i<16 ; i++){
 149:../8-LCD-TEMP-STP_Motor_IR/main.c **** 				__delay_ms(10);
 2698              		.loc 1 149 4 is_stmt 0 discriminator 3 view .LVU683
 2699 0890 019B     		ldr	r3, [sp, #4]	@ ivtmp.185, %sfp
 2700 0892 0133     		adds	r3, r3, #1	@ ivtmp.185, ivtmp.185,
 2701 0894 102B     		cmp	r3, #16	@ ivtmp.185,
 2702 0896 E8D1     		bne	.L171		@,
 2703 0898 91E7     		b	.L157		@
 2704              	.LVL147:
 2705              	.L163:
 149:../8-LCD-TEMP-STP_Motor_IR/main.c **** 				__delay_ms(10);
 2706              		.loc 1 149 4 discriminator 3 view .LVU684
 2707              	.LBE23:
 139:../8-LCD-TEMP-STP_Motor_IR/main.c **** 				disp_text("Temperatura - C", 0, 0); 
 2708              		.loc 1 139 3 is_stmt 1 view .LVU685
ARM GAS  /tmp/ccaJFhKP.s 			page 68


 2709              	@ ../8-LCD-TEMP-STP_Motor_IR/main.c:139: 		if (ent_atual == 1 ){
 139:../8-LCD-TEMP-STP_Motor_IR/main.c **** 				disp_text("Temperatura - C", 0, 0); 
 2710              		.loc 1 139 6 is_stmt 0 view .LVU686
 2711 089a 012C     		cmp	r4, #1	@ ent_atual,
 2712 089c B9D0     		beq	.L165		@,
 2713 089e D5E7     		b	.L166		@
 2714              	.L182:
 156:../8-LCD-TEMP-STP_Motor_IR/main.c **** 			disp_text("--- IR Hex Code", 0, 0); 
 2715              		.loc 1 156 3 is_stmt 1 view .LVU687
 2716              	@ ../8-LCD-TEMP-STP_Motor_IR/main.c:156: 		if (ent_atual == 3 ){
 156:../8-LCD-TEMP-STP_Motor_IR/main.c **** 			disp_text("--- IR Hex Code", 0, 0); 
 2717              		.loc 1 156 6 is_stmt 0 view .LVU688
 2718 08a0 032C     		cmp	r4, #3	@ ent_atual,
 2719 08a2 8CD1     		bne	.L157		@,
 157:../8-LCD-TEMP-STP_Motor_IR/main.c **** 			disp_text( word_IR, 1, 4);
 2720              		.loc 1 157 4 is_stmt 1 view .LVU689
 2721 08a4 0022     		movs	r2, #0	@,
 2722 08a6 1348     		ldr	r0, .L183+44	@,
 2723 08a8 1146     		mov	r1, r2	@,
 2724 08aa FFF7FEFF 		bl	disp_text		@
 2725              	.LVL148:
 158:../8-LCD-TEMP-STP_Motor_IR/main.c **** 			__delay_ms(100);
 2726              		.loc 1 158 4 view .LVU690
 2727 08ae 06A8     		add	r0, sp, #24	@,,
 2728 08b0 0422     		movs	r2, #4	@,
 2729 08b2 0121     		movs	r1, #1	@,
 2730 08b4 FFF7FEFF 		bl	disp_text		@
 2731              	.LVL149:
 159:../8-LCD-TEMP-STP_Motor_IR/main.c **** 		}
 2732              		.loc 1 159 4 view .LVU691
 2733 08b8 42F21070 		movw	r0, #10000	@,
 2734 08bc FFF7FEFF 		bl	vTaskDelay		@
 2735              	.LVL150:
 2736 08c0 7DE7     		b	.L157		@
 2737              	.L184:
 2738 08c2 00BFAFF3 		.align	3
 2738      0080
 2739              	.L183:
 2740 08c8 5CE84A04 		.word	72018012
 2741 08cc AA7F803F 		.word	1065385898
 2742 08d0 00100240 		.word	1073876992
 2743 08d4 00000000 		.word	.LANCHOR0
 2744 08d8 000C0140 		.word	1073810432
 2745 08dc B9FBE7FF 		.word	-1573959
 2746 08e0 33000000 		.word	.LC5
 2747 08e4 0D000000 		.word	.LC1
 2748 08e8 1E000000 		.word	.LC2
 2749 08ec 2F000000 		.word	.LC3
 2750 08f0 31000000 		.word	.LC4
 2751 08f4 43000000 		.word	.LC6
 2752              		.cfi_endproc
 2753              	.LFE51:
 2754              		.size	task1, .-task1
 2755              		.section	.rodata.str1.1
 2756              	.LC7:
 2757 0053 4C43445F 		.ascii	"LCD_16x2\000"
 2757      31367832 
ARM GAS  /tmp/ccaJFhKP.s 			page 69


 2757      00
 2758              	.LC8:
 2759 005c 4C45445F 		.ascii	"LED_13\000"
 2759      313300
 2760              	.LC9:
 2761 0063 4C4D3335 		.ascii	"LM35_read\000"
 2761      5F726561 
 2761      6400
 2762              	.LC10:
 2763 006d 53746570 		.ascii	"StepperMotor\000"
 2763      7065724D 
 2763      6F746F72 
 2763      00
 2764              	.LC11:
 2765 007a 49525F52 		.ascii	"IR_Rev\000"
 2765      657600
 2766              	.LC12:
 2767 0081 50574D5F 		.ascii	"PWM_atuad\000"
 2767      61747561 
 2767      6400
 2768              		.section	.text.startup,"ax",%progbits
 2769              		.align	1
 2770              		.global	main
 2771              		.syntax unified
 2772              		.thumb
 2773              		.thumb_func
 2774              		.type	main, %function
 2775              	main:
 2776              	.LFB57:
 305:../8-LCD-TEMP-STP_Motor_IR/main.c ****    }
 306:../8-LCD-TEMP-STP_Motor_IR/main.c **** }
 307:../8-LCD-TEMP-STP_Motor_IR/main.c **** 
 308:../8-LCD-TEMP-STP_Motor_IR/main.c **** int main(void) {
 2777              		.loc 1 308 16 view -0
 2778              		.cfi_startproc
 2779              		@ Volatile: function does not return.
 2780              		@ args = 0, pretend = 0, frame = 0
 2781              		@ frame_needed = 0, uses_anonymous_args = 0
 309:../8-LCD-TEMP-STP_Motor_IR/main.c **** 
 310:../8-LCD-TEMP-STP_Motor_IR/main.c **** 	LCD_Show_queue = xQueueCreate(2, sizeof(u32));
 2782              		.loc 1 310 2 view .LVU693
 2783              	@ ../8-LCD-TEMP-STP_Motor_IR/main.c:308: int main(void) {
 308:../8-LCD-TEMP-STP_Motor_IR/main.c **** 
 2784              		.loc 1 308 16 is_stmt 0 view .LVU694
 2785 0000 07B5     		push	{r0, r1, r2, lr}	@
 2786              	.LCFI21:
 2787              		.cfi_def_cfa_offset 16
 2788              		.cfi_offset 14, -4
 2789              	@ ../8-LCD-TEMP-STP_Motor_IR/main.c:310: 	LCD_Show_queue = xQueueCreate(2, sizeof(u32));
 2790              		.loc 1 310 19 view .LVU695
 2791 0002 0022     		movs	r2, #0	@,
 2792 0004 0421     		movs	r1, #4	@,
 2793 0006 0220     		movs	r0, #2	@,
 2794 0008 FFF7FEFF 		bl	xQueueGenericCreate		@
 2795              	.LVL151:
 2796              	@ ../8-LCD-TEMP-STP_Motor_IR/main.c:310: 	LCD_Show_queue = xQueueCreate(2, sizeof(u32));
 2797              		.loc 1 310 17 view .LVU696
ARM GAS  /tmp/ccaJFhKP.s 			page 70


 2798 000c 224C     		ldr	r4, .L187	@ tmp117,
 2799              	@ ../8-LCD-TEMP-STP_Motor_IR/main.c:311: 	IR_Data_queue  = xQueueCreate(1, sizeof(u32));
 311:../8-LCD-TEMP-STP_Motor_IR/main.c **** 	IR_Data_queue  = xQueueCreate(1, sizeof(u32));
 2800              		.loc 1 311 19 view .LVU697
 2801 000e 0022     		movs	r2, #0	@,
 2802              	@ ../8-LCD-TEMP-STP_Motor_IR/main.c:310: 	LCD_Show_queue = xQueueCreate(2, sizeof(u32));
 310:../8-LCD-TEMP-STP_Motor_IR/main.c **** 	IR_Data_queue  = xQueueCreate(1, sizeof(u32));
 2803              		.loc 1 310 17 view .LVU698
 2804 0010 A060     		str	r0, [r4, #8]	@ tmp144, LCD_Show_queue
 2805              		.loc 1 311 2 is_stmt 1 view .LVU699
 2806              	@ ../8-LCD-TEMP-STP_Motor_IR/main.c:311: 	IR_Data_queue  = xQueueCreate(1, sizeof(u32));
 2807              		.loc 1 311 19 is_stmt 0 view .LVU700
 2808 0012 0421     		movs	r1, #4	@,
 2809 0014 0120     		movs	r0, #1	@,
 2810 0016 FFF7FEFF 		bl	xQueueGenericCreate		@
 2811              	.LVL152:
 2812              	@ ../8-LCD-TEMP-STP_Motor_IR/main.c:312: 	PWM_data_queue  = xQueueCreate(1, sizeof(u32));
 312:../8-LCD-TEMP-STP_Motor_IR/main.c **** 	PWM_data_queue  = xQueueCreate(1, sizeof(u32));
 2813              		.loc 1 312 20 view .LVU701
 2814 001a 0022     		movs	r2, #0	@,
 2815 001c 0421     		movs	r1, #4	@,
 2816              	@ ../8-LCD-TEMP-STP_Motor_IR/main.c:311: 	IR_Data_queue  = xQueueCreate(1, sizeof(u32));
 311:../8-LCD-TEMP-STP_Motor_IR/main.c **** 	IR_Data_queue  = xQueueCreate(1, sizeof(u32));
 2817              		.loc 1 311 17 view .LVU702
 2818 001e 6060     		str	r0, [r4, #4]	@ tmp145, IR_Data_queue
 2819              		.loc 1 312 2 is_stmt 1 view .LVU703
 2820              	@ ../8-LCD-TEMP-STP_Motor_IR/main.c:312: 	PWM_data_queue  = xQueueCreate(1, sizeof(u32));
 2821              		.loc 1 312 20 is_stmt 0 view .LVU704
 2822 0020 0120     		movs	r0, #1	@,
 2823 0022 FFF7FEFF 		bl	xQueueGenericCreate		@
 2824              	.LVL153:
 2825              	@ ../8-LCD-TEMP-STP_Motor_IR/main.c:316: 	xTaskCreate(task1,"LCD_16x2", 100 ,NULL, 4 ,NULL);
 313:../8-LCD-TEMP-STP_Motor_IR/main.c **** 	
 314:../8-LCD-TEMP-STP_Motor_IR/main.c **** 	set_system_clock_to_72Mhz();
 315:../8-LCD-TEMP-STP_Motor_IR/main.c **** 
 316:../8-LCD-TEMP-STP_Motor_IR/main.c **** 	xTaskCreate(task1,"LCD_16x2", 100 ,NULL, 4 ,NULL);
 2826              		.loc 1 316 2 view .LVU705
 2827 0026 0425     		movs	r5, #4	@ tmp123,
 2828              	@ ../8-LCD-TEMP-STP_Motor_IR/main.c:312: 	PWM_data_queue  = xQueueCreate(1, sizeof(u32));
 312:../8-LCD-TEMP-STP_Motor_IR/main.c **** 	PWM_data_queue  = xQueueCreate(1, sizeof(u32));
 2829              		.loc 1 312 18 view .LVU706
 2830 0028 2060     		str	r0, [r4]	@ tmp146, PWM_data_queue
 314:../8-LCD-TEMP-STP_Motor_IR/main.c **** 
 2831              		.loc 1 314 2 is_stmt 1 view .LVU707
 2832              	@ ../8-LCD-TEMP-STP_Motor_IR/main.c:316: 	xTaskCreate(task1,"LCD_16x2", 100 ,NULL, 4 ,NULL);
 2833              		.loc 1 316 2 is_stmt 0 view .LVU708
 2834 002a 0024     		movs	r4, #0	@ tmp122,
 2835              	@ ../8-LCD-TEMP-STP_Motor_IR/main.c:314: 	set_system_clock_to_72Mhz();
 314:../8-LCD-TEMP-STP_Motor_IR/main.c **** 
 2836              		.loc 1 314 2 view .LVU709
 2837 002c FFF7FEFF 		bl	set_system_clock_to_72Mhz		@
 2838              	.LVL154:
 2839              		.loc 1 316 2 is_stmt 1 view .LVU710
 2840 0030 1A48     		ldr	r0, .L187+4	@,
 2841 0032 2346     		mov	r3, r4	@, tmp122
 2842 0034 6422     		movs	r2, #100	@,
 2843 0036 1A49     		ldr	r1, .L187+8	@,
ARM GAS  /tmp/ccaJFhKP.s 			page 71


 2844 0038 CDE90054 		strd	r5, r4, [sp]	@ tmp123, tmp122,
 2845 003c FFF7FEFF 		bl	xTaskCreate		@
 2846              	.LVL155:
 317:../8-LCD-TEMP-STP_Motor_IR/main.c **** 	xTaskCreate(task2, "LED_13", 100 , NULL, 4, NULL);
 2847              		.loc 1 317 2 view .LVU711
 2848 0040 2346     		mov	r3, r4	@, tmp122
 2849 0042 6422     		movs	r2, #100	@,
 2850 0044 1749     		ldr	r1, .L187+12	@,
 2851 0046 CDE90054 		strd	r5, r4, [sp]	@ tmp123, tmp122,
 2852 004a 1748     		ldr	r0, .L187+16	@,
 2853 004c FFF7FEFF 		bl	xTaskCreate		@
 2854              	.LVL156:
 318:../8-LCD-TEMP-STP_Motor_IR/main.c **** 	xTaskCreate(task3, "LM35_read", 100 , NULL, 4 , NULL);
 2855              		.loc 1 318 2 view .LVU712
 2856 0050 2346     		mov	r3, r4	@, tmp122
 2857 0052 6422     		movs	r2, #100	@,
 2858 0054 1549     		ldr	r1, .L187+20	@,
 2859 0056 CDE90054 		strd	r5, r4, [sp]	@ tmp123, tmp122,
 2860 005a 1548     		ldr	r0, .L187+24	@,
 2861 005c FFF7FEFF 		bl	xTaskCreate		@
 2862              	.LVL157:
 319:../8-LCD-TEMP-STP_Motor_IR/main.c **** 	xTaskCreate(task4, "StepperMotor", 100 , NULL, 4 , NULL);
 2863              		.loc 1 319 2 view .LVU713
 2864 0060 2346     		mov	r3, r4	@, tmp122
 2865 0062 6422     		movs	r2, #100	@,
 2866 0064 1349     		ldr	r1, .L187+28	@,
 2867 0066 CDE90054 		strd	r5, r4, [sp]	@ tmp123, tmp122,
 2868 006a 1348     		ldr	r0, .L187+32	@,
 2869 006c FFF7FEFF 		bl	xTaskCreate		@
 2870              	.LVL158:
 320:../8-LCD-TEMP-STP_Motor_IR/main.c **** 	xTaskCreate(task5, "IR_Rev", 100 , NULL, 4 , NULL);
 2871              		.loc 1 320 2 view .LVU714
 2872 0070 2346     		mov	r3, r4	@, tmp122
 2873 0072 6422     		movs	r2, #100	@,
 2874 0074 1149     		ldr	r1, .L187+36	@,
 2875 0076 CDE90054 		strd	r5, r4, [sp]	@ tmp123, tmp122,
 2876 007a 1148     		ldr	r0, .L187+40	@,
 2877 007c FFF7FEFF 		bl	xTaskCreate		@
 2878              	.LVL159:
 321:../8-LCD-TEMP-STP_Motor_IR/main.c **** 	xTaskCreate(task6, "PWM_atuad", 100 , NULL, 4 , NULL);
 2879              		.loc 1 321 2 view .LVU715
 2880 0080 2346     		mov	r3, r4	@, tmp122
 2881 0082 6422     		movs	r2, #100	@,
 2882 0084 0F49     		ldr	r1, .L187+44	@,
 2883 0086 CDE90054 		strd	r5, r4, [sp]	@ tmp123, tmp122,
 2884 008a 0F48     		ldr	r0, .L187+48	@,
 2885 008c FFF7FEFF 		bl	xTaskCreate		@
 2886              	.LVL160:
 322:../8-LCD-TEMP-STP_Motor_IR/main.c **** 
 323:../8-LCD-TEMP-STP_Motor_IR/main.c **** 	vTaskStartScheduler(); 
 2887              		.loc 1 323 2 view .LVU716
 2888 0090 FFF7FEFF 		bl	vTaskStartScheduler		@
 2889              	.LVL161:
 2890              	.L186:
 324:../8-LCD-TEMP-STP_Motor_IR/main.c **** 
 325:../8-LCD-TEMP-STP_Motor_IR/main.c **** 	while(1);
 2891              		.loc 1 325 2 discriminator 1 view .LVU717
ARM GAS  /tmp/ccaJFhKP.s 			page 72


 2892              		.loc 1 325 10 discriminator 1 view .LVU718
 2893              		.loc 1 325 7 discriminator 1 view .LVU719
 2894 0094 FEE7     		b	.L186		@
 2895              	.L188:
 2896 0096 00BF     		.align	2
 2897              	.L187:
 2898 0098 00000000 		.word	.LANCHOR0
 2899 009c 00000000 		.word	task1
 2900 00a0 53000000 		.word	.LC7
 2901 00a4 5C000000 		.word	.LC8
 2902 00a8 00000000 		.word	task2
 2903 00ac 63000000 		.word	.LC9
 2904 00b0 00000000 		.word	task3
 2905 00b4 6D000000 		.word	.LC10
 2906 00b8 00000000 		.word	task4
 2907 00bc 7A000000 		.word	.LC11
 2908 00c0 00000000 		.word	task5
 2909 00c4 81000000 		.word	.LC12
 2910 00c8 00000000 		.word	task6
 2911              		.cfi_endproc
 2912              	.LFE57:
 2913              		.size	main, .-main
 2914              		.bss
 2915              		.align	2
 2916              		.set	.LANCHOR0,. + 0
 2917              		.type	PWM_data_queue, %object
 2918              		.size	PWM_data_queue, 4
 2919              	PWM_data_queue:
 2920 0000 00000000 		.space	4
 2921              		.type	IR_Data_queue, %object
 2922              		.size	IR_Data_queue, 4
 2923              	IR_Data_queue:
 2924 0004 00000000 		.space	4
 2925              		.type	LCD_Show_queue, %object
 2926              		.size	LCD_Show_queue, 4
 2927              	LCD_Show_queue:
 2928 0008 00000000 		.space	4
 2929              		.text
 2930              	.Letext0:
 2931              		.file 6 "/usr/arm-none-eabi/include/machine/_default_types.h"
 2932              		.file 7 "/usr/arm-none-eabi/include/sys/_stdint.h"
 2933              		.file 8 "../freertos/portable/GCC/ARM_CM3/portmacro.h"
 2934              		.file 9 "../freertos/include/queue.h"
 2935              		.file 10 "../stm32f10x_lib/CMSIS/CM3/DeviceSupport/ST/STM32F10x/stm32f10x.h"
 2936              		.file 11 "../stm32f10x_lib/CMSIS/CM3/CoreSupport/core_cm3.h"
 2937              		.file 12 "../stm32f10x_lib/STM32F10x_StdPeriph_Driver/inc/stm32f10x_gpio.h"
 2938              		.file 13 "../stm32f10x_lib/STM32F10x_StdPeriph_Driver/inc/stm32f10x_usart.h"
 2939              		.file 14 "../freertos/include/task.h"
 2940              		.file 15 "/usr/arm-none-eabi/include/stdlib.h"
 2941              		.file 16 "../8-LCD-TEMP-STP_Motor_IR/myLcd.h"
 2942              		.file 17 "../stm32f10x_lib/STM32F10x_StdPeriph_Driver/inc/stm32f10x_rcc.h"
 2943              		.section	.debug_info,"",%progbits
 2944              	.Ldebug_info0:
 2945 0000 631C0000 		.4byte	0x1c63
 2946 0004 0200     		.2byte	0x2
 2947 0006 00000000 		.4byte	.Ldebug_abbrev0
 2948 000a 04       		.byte	0x4
ARM GAS  /tmp/ccaJFhKP.s 			page 73


 2949 000b 01       		.uleb128 0x1
 2950 000c 9E090000 		.4byte	.LASF255
 2951 0010 0C       		.byte	0xc
 2952 0011 770B0000 		.4byte	.LASF256
 2953 0015 C90B0000 		.4byte	.LASF257
 2954 0019 A0000000 		.4byte	.Ldebug_ranges0+0xa0
 2955 001d 00000000 		.4byte	0
 2956 0021 00000000 		.4byte	0
 2957 0025 00000000 		.4byte	.Ldebug_line0
 2958 0029 02       		.uleb128 0x2
 2959 002a 04       		.byte	0x4
 2960 002b 05       		.byte	0x5
 2961 002c 696E7400 		.ascii	"int\000"
 2962 0030 03       		.uleb128 0x3
 2963 0031 04       		.byte	0x4
 2964 0032 07       		.byte	0x7
 2965 0033 5D060000 		.4byte	.LASF0
 2966 0037 03       		.uleb128 0x3
 2967 0038 08       		.byte	0x8
 2968 0039 05       		.byte	0x5
 2969 003a C8050000 		.4byte	.LASF1
 2970 003e 03       		.uleb128 0x3
 2971 003f 08       		.byte	0x8
 2972 0040 04       		.byte	0x4
 2973 0041 07070000 		.4byte	.LASF2
 2974 0045 03       		.uleb128 0x3
 2975 0046 01       		.byte	0x1
 2976 0047 06       		.byte	0x6
 2977 0048 F1010000 		.4byte	.LASF3
 2978 004c 04       		.uleb128 0x4
 2979 004d 0B010000 		.4byte	.LASF6
 2980 0051 06       		.byte	0x6
 2981 0052 2B       		.byte	0x2b
 2982 0053 18       		.byte	0x18
 2983 0054 58000000 		.4byte	0x58
 2984 0058 03       		.uleb128 0x3
 2985 0059 01       		.byte	0x1
 2986 005a 08       		.byte	0x8
 2987 005b 3C020000 		.4byte	.LASF4
 2988 005f 03       		.uleb128 0x3
 2989 0060 02       		.byte	0x2
 2990 0061 05       		.byte	0x5
 2991 0062 14090000 		.4byte	.LASF5
 2992 0066 04       		.uleb128 0x4
 2993 0067 66030000 		.4byte	.LASF7
 2994 006b 06       		.byte	0x6
 2995 006c 39       		.byte	0x39
 2996 006d 19       		.byte	0x19
 2997 006e 72000000 		.4byte	0x72
 2998 0072 03       		.uleb128 0x3
 2999 0073 02       		.byte	0x2
 3000 0074 07       		.byte	0x7
 3001 0075 1F0B0000 		.4byte	.LASF8
 3002 0079 03       		.uleb128 0x3
 3003 007a 04       		.byte	0x4
 3004 007b 05       		.byte	0x5
 3005 007c 3D010000 		.4byte	.LASF9
ARM GAS  /tmp/ccaJFhKP.s 			page 74


 3006 0080 04       		.uleb128 0x4
 3007 0081 BD050000 		.4byte	.LASF10
 3008 0085 06       		.byte	0x6
 3009 0086 4F       		.byte	0x4f
 3010 0087 19       		.byte	0x19
 3011 0088 8C000000 		.4byte	0x8c
 3012 008c 03       		.uleb128 0x3
 3013 008d 04       		.byte	0x4
 3014 008e 07       		.byte	0x7
 3015 008f E5040000 		.4byte	.LASF11
 3016 0093 03       		.uleb128 0x3
 3017 0094 08       		.byte	0x8
 3018 0095 07       		.byte	0x7
 3019 0096 5C070000 		.4byte	.LASF12
 3020 009a 04       		.uleb128 0x4
 3021 009b FD010000 		.4byte	.LASF13
 3022 009f 07       		.byte	0x7
 3023 00a0 18       		.byte	0x18
 3024 00a1 13       		.byte	0x13
 3025 00a2 4C000000 		.4byte	0x4c
 3026 00a6 05       		.uleb128 0x5
 3027 00a7 9A000000 		.4byte	0x9a
 3028 00ab 04       		.uleb128 0x4
 3029 00ac 73070000 		.4byte	.LASF14
 3030 00b0 07       		.byte	0x7
 3031 00b1 24       		.byte	0x24
 3032 00b2 14       		.byte	0x14
 3033 00b3 66000000 		.4byte	0x66
 3034 00b7 05       		.uleb128 0x5
 3035 00b8 AB000000 		.4byte	0xab
 3036 00bc 04       		.uleb128 0x4
 3037 00bd A90A0000 		.4byte	.LASF15
 3038 00c1 07       		.byte	0x7
 3039 00c2 30       		.byte	0x30
 3040 00c3 14       		.byte	0x14
 3041 00c4 80000000 		.4byte	0x80
 3042 00c8 05       		.uleb128 0x5
 3043 00c9 BC000000 		.4byte	0xbc
 3044 00cd 06       		.uleb128 0x6
 3045 00ce 04       		.byte	0x4
 3046 00cf 04       		.uleb128 0x4
 3047 00d0 A1000000 		.4byte	.LASF16
 3048 00d4 08       		.byte	0x8
 3049 00d5 38       		.byte	0x38
 3050 00d6 0E       		.byte	0xe
 3051 00d7 79000000 		.4byte	0x79
 3052 00db 04       		.uleb128 0x4
 3053 00dc 25080000 		.4byte	.LASF17
 3054 00e0 08       		.byte	0x8
 3055 00e1 3F       		.byte	0x3f
 3056 00e2 13       		.byte	0x13
 3057 00e3 BC000000 		.4byte	0xbc
 3058 00e7 03       		.uleb128 0x3
 3059 00e8 01       		.byte	0x1
 3060 00e9 08       		.byte	0x8
 3061 00ea 39030000 		.4byte	.LASF18
 3062 00ee 04       		.uleb128 0x4
ARM GAS  /tmp/ccaJFhKP.s 			page 75


 3063 00ef E3010000 		.4byte	.LASF19
 3064 00f3 09       		.byte	0x9
 3065 00f4 30       		.byte	0x30
 3066 00f5 22       		.byte	0x22
 3067 00f6 FA000000 		.4byte	0xfa
 3068 00fa 07       		.uleb128 0x7
 3069 00fb 04       		.byte	0x4
 3070 00fc 00010000 		.4byte	0x100
 3071 0100 08       		.uleb128 0x8
 3072 0101 46010000 		.4byte	.LASF258
 3073 0105 01       		.byte	0x1
 3074 0106 07       		.uleb128 0x7
 3075 0107 04       		.byte	0x4
 3076 0108 E7000000 		.4byte	0xe7
 3077 010c 09       		.uleb128 0x9
 3078 010d E7000000 		.4byte	0xe7
 3079 0111 1C010000 		.4byte	0x11c
 3080 0115 0A       		.uleb128 0xa
 3081 0116 30000000 		.4byte	0x30
 3082 011a 07       		.byte	0x7
 3083 011b 00       		.byte	0
 3084 011c 0B       		.uleb128 0xb
 3085 011d 89010000 		.4byte	.LASF219
 3086 0121 05       		.byte	0x5
 3087 0122 01       		.byte	0x1
 3088 0123 45000000 		.4byte	0x45
 3089 0127 0A       		.byte	0xa
 3090 0128 A7       		.byte	0xa7
 3091 0129 0E       		.byte	0xe
 3092 012a 61020000 		.4byte	0x261
 3093 012e 0C       		.uleb128 0xc
 3094 012f C7040000 		.4byte	.LASF20
 3095 0133 72       		.sleb128 -14
 3096 0134 0C       		.uleb128 0xc
 3097 0135 FF040000 		.4byte	.LASF21
 3098 0139 74       		.sleb128 -12
 3099 013a 0C       		.uleb128 0xc
 3100 013b A2050000 		.4byte	.LASF22
 3101 013f 75       		.sleb128 -11
 3102 0140 0C       		.uleb128 0xc
 3103 0141 0F030000 		.4byte	.LASF23
 3104 0145 76       		.sleb128 -10
 3105 0146 0C       		.uleb128 0xc
 3106 0147 16060000 		.4byte	.LASF24
 3107 014b 7B       		.sleb128 -5
 3108 014c 0C       		.uleb128 0xc
 3109 014d B5080000 		.4byte	.LASF25
 3110 0151 7C       		.sleb128 -4
 3111 0152 0C       		.uleb128 0xc
 3112 0153 580B0000 		.4byte	.LASF26
 3113 0157 7E       		.sleb128 -2
 3114 0158 0C       		.uleb128 0xc
 3115 0159 C5010000 		.4byte	.LASF27
 3116 015d 7F       		.sleb128 -1
 3117 015e 0D       		.uleb128 0xd
 3118 015f DB040000 		.4byte	.LASF28
 3119 0163 00       		.byte	0
ARM GAS  /tmp/ccaJFhKP.s 			page 76


 3120 0164 0D       		.uleb128 0xd
 3121 0165 6D080000 		.4byte	.LASF29
 3122 0169 01       		.byte	0x1
 3123 016a 0D       		.uleb128 0xd
 3124 016b 64010000 		.4byte	.LASF30
 3125 016f 02       		.byte	0x2
 3126 0170 0D       		.uleb128 0xd
 3127 0171 1B0C0000 		.4byte	.LASF31
 3128 0175 03       		.byte	0x3
 3129 0176 0D       		.uleb128 0xd
 3130 0177 B2000000 		.4byte	.LASF32
 3131 017b 04       		.byte	0x4
 3132 017c 0D       		.uleb128 0xd
 3133 017d 1E090000 		.4byte	.LASF33
 3134 0181 05       		.byte	0x5
 3135 0182 0D       		.uleb128 0xd
 3136 0183 7B080000 		.4byte	.LASF34
 3137 0187 06       		.byte	0x6
 3138 0188 0D       		.uleb128 0xd
 3139 0189 6D040000 		.4byte	.LASF35
 3140 018d 07       		.byte	0x7
 3141 018e 0D       		.uleb128 0xd
 3142 018f 1D000000 		.4byte	.LASF36
 3143 0193 08       		.byte	0x8
 3144 0194 0D       		.uleb128 0xd
 3145 0195 4D0B0000 		.4byte	.LASF37
 3146 0199 09       		.byte	0x9
 3147 019a 0D       		.uleb128 0xd
 3148 019b 140B0000 		.4byte	.LASF38
 3149 019f 0A       		.byte	0xa
 3150 01a0 0D       		.uleb128 0xd
 3151 01a1 D7020000 		.4byte	.LASF39
 3152 01a5 0B       		.byte	0xb
 3153 01a6 0D       		.uleb128 0xd
 3154 01a7 6F0A0000 		.4byte	.LASF40
 3155 01ab 0C       		.byte	0xc
 3156 01ac 0D       		.uleb128 0xd
 3157 01ad F0080000 		.4byte	.LASF41
 3158 01b1 0D       		.byte	0xd
 3159 01b2 0D       		.uleb128 0xd
 3160 01b3 15050000 		.4byte	.LASF42
 3161 01b7 0E       		.byte	0xe
 3162 01b8 0D       		.uleb128 0xd
 3163 01b9 87000000 		.4byte	.LASF43
 3164 01bd 0F       		.byte	0xf
 3165 01be 0D       		.uleb128 0xd
 3166 01bf A50B0000 		.4byte	.LASF44
 3167 01c3 10       		.byte	0x10
 3168 01c4 0D       		.uleb128 0xd
 3169 01c5 9D060000 		.4byte	.LASF45
 3170 01c9 11       		.byte	0x11
 3171 01ca 0D       		.uleb128 0xd
 3172 01cb 76090000 		.4byte	.LASF46
 3173 01cf 12       		.byte	0x12
 3174 01d0 0D       		.uleb128 0xd
 3175 01d1 25030000 		.4byte	.LASF47
 3176 01d5 13       		.byte	0x13
ARM GAS  /tmp/ccaJFhKP.s 			page 77


 3177 01d6 0D       		.uleb128 0xd
 3178 01d7 DB080000 		.4byte	.LASF48
 3179 01db 14       		.byte	0x14
 3180 01dc 0D       		.uleb128 0xd
 3181 01dd BF0A0000 		.4byte	.LASF49
 3182 01e1 15       		.byte	0x15
 3183 01e2 0D       		.uleb128 0xd
 3184 01e3 35050000 		.4byte	.LASF50
 3185 01e7 16       		.byte	0x16
 3186 01e8 0D       		.uleb128 0xd
 3187 01e9 F60A0000 		.4byte	.LASF51
 3188 01ed 17       		.byte	0x17
 3189 01ee 0D       		.uleb128 0xd
 3190 01ef EA020000 		.4byte	.LASF52
 3191 01f3 18       		.byte	0x18
 3192 01f4 0D       		.uleb128 0xd
 3193 01f5 B20A0000 		.4byte	.LASF53
 3194 01f9 19       		.byte	0x19
 3195 01fa 0D       		.uleb128 0xd
 3196 01fb 13070000 		.4byte	.LASF54
 3197 01ff 1A       		.byte	0x1a
 3198 0200 0D       		.uleb128 0xd
 3199 0201 60040000 		.4byte	.LASF55
 3200 0205 1B       		.byte	0x1b
 3201 0206 0D       		.uleb128 0xd
 3202 0207 E3000000 		.4byte	.LASF56
 3203 020b 1C       		.byte	0x1c
 3204 020c 0D       		.uleb128 0xd
 3205 020d 7C070000 		.4byte	.LASF57
 3206 0211 1D       		.byte	0x1d
 3207 0212 0D       		.uleb128 0xd
 3208 0213 D3030000 		.4byte	.LASF58
 3209 0217 1E       		.byte	0x1e
 3210 0218 0D       		.uleb128 0xd
 3211 0219 08040000 		.4byte	.LASF59
 3212 021d 1F       		.byte	0x1f
 3213 021e 0D       		.uleb128 0xd
 3214 021f B6020000 		.4byte	.LASF60
 3215 0223 20       		.byte	0x20
 3216 0224 0D       		.uleb128 0xd
 3217 0225 7D060000 		.4byte	.LASF61
 3218 0229 21       		.byte	0x21
 3219 022a 0D       		.uleb128 0xd
 3220 022b 88050000 		.4byte	.LASF62
 3221 022f 22       		.byte	0x22
 3222 0230 0D       		.uleb128 0xd
 3223 0231 05060000 		.4byte	.LASF63
 3224 0235 23       		.byte	0x23
 3225 0236 0D       		.uleb128 0xd
 3226 0237 15010000 		.4byte	.LASF64
 3227 023b 24       		.byte	0x24
 3228 023c 0D       		.uleb128 0xd
 3229 023d 96070000 		.4byte	.LASF65
 3230 0241 25       		.byte	0x25
 3231 0242 0D       		.uleb128 0xd
 3232 0243 DD030000 		.4byte	.LASF66
 3233 0247 26       		.byte	0x26
ARM GAS  /tmp/ccaJFhKP.s 			page 78


 3234 0248 0D       		.uleb128 0xd
 3235 0249 D7010000 		.4byte	.LASF67
 3236 024d 27       		.byte	0x27
 3237 024e 0D       		.uleb128 0xd
 3238 024f 4D070000 		.4byte	.LASF68
 3239 0253 28       		.byte	0x28
 3240 0254 0D       		.uleb128 0xd
 3241 0255 2B060000 		.4byte	.LASF69
 3242 0259 29       		.byte	0x29
 3243 025a 0D       		.uleb128 0xd
 3244 025b C4030000 		.4byte	.LASF70
 3245 025f 2A       		.byte	0x2a
 3246 0260 00       		.byte	0
 3247 0261 0E       		.uleb128 0xe
 3248 0262 43050000 		.4byte	.LASF71
 3249 0266 0A       		.byte	0xa
 3250 0267 D801     		.2byte	0x1d8
 3251 0269 03       		.byte	0x3
 3252 026a 1C010000 		.4byte	0x11c
 3253 026e 0F       		.uleb128 0xf
 3254 026f 040E     		.2byte	0xe04
 3255 0271 0B       		.byte	0xb
 3256 0272 84       		.byte	0x84
 3257 0273 09       		.byte	0x9
 3258 0274 46030000 		.4byte	0x346
 3259 0278 10       		.uleb128 0x10
 3260 0279 720B0000 		.4byte	.LASF72
 3261 027d 0B       		.byte	0xb
 3262 027e 86       		.byte	0x86
 3263 027f 11       		.byte	0x11
 3264 0280 56030000 		.4byte	0x356
 3265 0284 02       		.byte	0x2
 3266 0285 23       		.byte	0x23
 3267 0286 00       		.uleb128 0
 3268 0287 10       		.uleb128 0x10
 3269 0288 28020000 		.4byte	.LASF73
 3270 028c 0B       		.byte	0xb
 3271 028d 87       		.byte	0x87
 3272 028e 11       		.byte	0x11
 3273 028f 5B030000 		.4byte	0x35b
 3274 0293 02       		.byte	0x2
 3275 0294 23       		.byte	0x23
 3276 0295 20       		.uleb128 0x20
 3277 0296 10       		.uleb128 0x10
 3278 0297 30080000 		.4byte	.LASF74
 3279 029b 0B       		.byte	0xb
 3280 029c 88       		.byte	0x88
 3281 029d 11       		.byte	0x11
 3282 029e 56030000 		.4byte	0x356
 3283 02a2 03       		.byte	0x3
 3284 02a3 23       		.byte	0x23
 3285 02a4 8001     		.uleb128 0x80
 3286 02a6 10       		.uleb128 0x10
 3287 02a7 14000000 		.4byte	.LASF75
 3288 02ab 0B       		.byte	0xb
 3289 02ac 89       		.byte	0x89
 3290 02ad 11       		.byte	0x11
ARM GAS  /tmp/ccaJFhKP.s 			page 79


 3291 02ae 5B030000 		.4byte	0x35b
 3292 02b2 03       		.byte	0x3
 3293 02b3 23       		.byte	0x23
 3294 02b4 A001     		.uleb128 0xa0
 3295 02b6 10       		.uleb128 0x10
 3296 02b7 480B0000 		.4byte	.LASF76
 3297 02bb 0B       		.byte	0xb
 3298 02bc 8A       		.byte	0x8a
 3299 02bd 11       		.byte	0x11
 3300 02be 56030000 		.4byte	0x356
 3301 02c2 03       		.byte	0x3
 3302 02c3 23       		.byte	0x23
 3303 02c4 8002     		.uleb128 0x100
 3304 02c6 10       		.uleb128 0x10
 3305 02c7 F8020000 		.4byte	.LASF77
 3306 02cb 0B       		.byte	0xb
 3307 02cc 8B       		.byte	0x8b
 3308 02cd 11       		.byte	0x11
 3309 02ce 5B030000 		.4byte	0x35b
 3310 02d2 03       		.byte	0x3
 3311 02d3 23       		.byte	0x23
 3312 02d4 A002     		.uleb128 0x120
 3313 02d6 10       		.uleb128 0x10
 3314 02d7 F2000000 		.4byte	.LASF78
 3315 02db 0B       		.byte	0xb
 3316 02dc 8C       		.byte	0x8c
 3317 02dd 11       		.byte	0x11
 3318 02de 56030000 		.4byte	0x356
 3319 02e2 03       		.byte	0x3
 3320 02e3 23       		.byte	0x23
 3321 02e4 8003     		.uleb128 0x180
 3322 02e6 10       		.uleb128 0x10
 3323 02e7 4A020000 		.4byte	.LASF79
 3324 02eb 0B       		.byte	0xb
 3325 02ec 8D       		.byte	0x8d
 3326 02ed 11       		.byte	0x11
 3327 02ee 5B030000 		.4byte	0x35b
 3328 02f2 03       		.byte	0x3
 3329 02f3 23       		.byte	0x23
 3330 02f4 A003     		.uleb128 0x1a0
 3331 02f6 10       		.uleb128 0x10
 3332 02f7 A0020000 		.4byte	.LASF80
 3333 02fb 0B       		.byte	0xb
 3334 02fc 8E       		.byte	0x8e
 3335 02fd 11       		.byte	0x11
 3336 02fe 56030000 		.4byte	0x356
 3337 0302 03       		.byte	0x3
 3338 0303 23       		.byte	0x23
 3339 0304 8004     		.uleb128 0x200
 3340 0306 10       		.uleb128 0x10
 3341 0307 54020000 		.4byte	.LASF81
 3342 030b 0B       		.byte	0xb
 3343 030c 8F       		.byte	0x8f
 3344 030d 11       		.byte	0x11
 3345 030e 6B030000 		.4byte	0x36b
 3346 0312 03       		.byte	0x3
 3347 0313 23       		.byte	0x23
ARM GAS  /tmp/ccaJFhKP.s 			page 80


 3348 0314 A004     		.uleb128 0x220
 3349 0316 11       		.uleb128 0x11
 3350 0317 495000   		.ascii	"IP\000"
 3351 031a 0B       		.byte	0xb
 3352 031b 90       		.byte	0x90
 3353 031c 11       		.byte	0x11
 3354 031d 8B030000 		.4byte	0x38b
 3355 0321 03       		.byte	0x3
 3356 0322 23       		.byte	0x23
 3357 0323 8006     		.uleb128 0x300
 3358 0325 10       		.uleb128 0x10
 3359 0326 5E020000 		.4byte	.LASF82
 3360 032a 0B       		.byte	0xb
 3361 032b 91       		.byte	0x91
 3362 032c 11       		.byte	0x11
 3363 032d 90030000 		.4byte	0x390
 3364 0331 03       		.byte	0x3
 3365 0332 23       		.byte	0x23
 3366 0333 F007     		.uleb128 0x3f0
 3367 0335 10       		.uleb128 0x10
 3368 0336 03040000 		.4byte	.LASF83
 3369 033a 0B       		.byte	0xb
 3370 033b 92       		.byte	0x92
 3371 033c 11       		.byte	0x11
 3372 033d C8000000 		.4byte	0xc8
 3373 0341 03       		.byte	0x3
 3374 0342 23       		.byte	0x23
 3375 0343 801C     		.uleb128 0xe00
 3376 0345 00       		.byte	0
 3377 0346 09       		.uleb128 0x9
 3378 0347 C8000000 		.4byte	0xc8
 3379 034b 56030000 		.4byte	0x356
 3380 034f 0A       		.uleb128 0xa
 3381 0350 30000000 		.4byte	0x30
 3382 0354 07       		.byte	0x7
 3383 0355 00       		.byte	0
 3384 0356 05       		.uleb128 0x5
 3385 0357 46030000 		.4byte	0x346
 3386 035b 09       		.uleb128 0x9
 3387 035c BC000000 		.4byte	0xbc
 3388 0360 6B030000 		.4byte	0x36b
 3389 0364 0A       		.uleb128 0xa
 3390 0365 30000000 		.4byte	0x30
 3391 0369 17       		.byte	0x17
 3392 036a 00       		.byte	0
 3393 036b 09       		.uleb128 0x9
 3394 036c BC000000 		.4byte	0xbc
 3395 0370 7B030000 		.4byte	0x37b
 3396 0374 0A       		.uleb128 0xa
 3397 0375 30000000 		.4byte	0x30
 3398 0379 37       		.byte	0x37
 3399 037a 00       		.byte	0
 3400 037b 09       		.uleb128 0x9
 3401 037c A6000000 		.4byte	0xa6
 3402 0380 8B030000 		.4byte	0x38b
 3403 0384 0A       		.uleb128 0xa
 3404 0385 30000000 		.4byte	0x30
ARM GAS  /tmp/ccaJFhKP.s 			page 81


 3405 0389 EF       		.byte	0xef
 3406 038a 00       		.byte	0
 3407 038b 05       		.uleb128 0x5
 3408 038c 7B030000 		.4byte	0x37b
 3409 0390 09       		.uleb128 0x9
 3410 0391 BC000000 		.4byte	0xbc
 3411 0395 A1030000 		.4byte	0x3a1
 3412 0399 12       		.uleb128 0x12
 3413 039a 30000000 		.4byte	0x30
 3414 039e 8302     		.2byte	0x283
 3415 03a0 00       		.byte	0
 3416 03a1 04       		.uleb128 0x4
 3417 03a2 43070000 		.4byte	.LASF84
 3418 03a6 0B       		.byte	0xb
 3419 03a7 93       		.byte	0x93
 3420 03a8 04       		.byte	0x4
 3421 03a9 6E020000 		.4byte	0x26e
 3422 03ad 13       		.uleb128 0x13
 3423 03ae 75333200 		.ascii	"u32\000"
 3424 03b2 0A       		.byte	0xa
 3425 03b3 F701     		.2byte	0x1f7
 3426 03b5 13       		.byte	0x13
 3427 03b6 BC000000 		.4byte	0xbc
 3428 03ba 05       		.uleb128 0x5
 3429 03bb AD030000 		.4byte	0x3ad
 3430 03bf 13       		.uleb128 0x13
 3431 03c0 75313600 		.ascii	"u16\000"
 3432 03c4 0A       		.byte	0xa
 3433 03c5 F801     		.2byte	0x1f8
 3434 03c7 12       		.byte	0x12
 3435 03c8 AB000000 		.4byte	0xab
 3436 03cc 13       		.uleb128 0x13
 3437 03cd 753800   		.ascii	"u8\000"
 3438 03d0 0A       		.byte	0xa
 3439 03d1 F901     		.2byte	0x1f9
 3440 03d3 12       		.byte	0x12
 3441 03d4 9A000000 		.4byte	0x9a
 3442 03d8 14       		.uleb128 0x14
 3443 03d9 07       		.byte	0x7
 3444 03da 01       		.byte	0x1
 3445 03db 58000000 		.4byte	0x58
 3446 03df 0A       		.byte	0xa
 3447 03e0 0702     		.2byte	0x207
 3448 03e2 0E       		.byte	0xe
 3449 03e3 F4030000 		.4byte	0x3f4
 3450 03e7 0D       		.uleb128 0xd
 3451 03e8 4B080000 		.4byte	.LASF85
 3452 03ec 00       		.byte	0
 3453 03ed 15       		.uleb128 0x15
 3454 03ee 53455400 		.ascii	"SET\000"
 3455 03f2 01       		.byte	0x1
 3456 03f3 00       		.byte	0
 3457 03f4 14       		.uleb128 0x14
 3458 03f5 07       		.byte	0x7
 3459 03f6 01       		.byte	0x1
 3460 03f7 58000000 		.4byte	0x58
 3461 03fb 0A       		.byte	0xa
ARM GAS  /tmp/ccaJFhKP.s 			page 82


 3462 03fc 0902     		.2byte	0x209
 3463 03fe 0E       		.byte	0xe
 3464 03ff 10040000 		.4byte	0x410
 3465 0403 0D       		.uleb128 0xd
 3466 0404 FF060000 		.4byte	.LASF86
 3467 0408 00       		.byte	0
 3468 0409 0D       		.uleb128 0xd
 3469 040a 82090000 		.4byte	.LASF87
 3470 040e 01       		.byte	0x1
 3471 040f 00       		.byte	0
 3472 0410 16       		.uleb128 0x16
 3473 0411 50       		.byte	0x50
 3474 0412 0A       		.byte	0xa
 3475 0413 1E02     		.2byte	0x21e
 3476 0415 09       		.byte	0x9
 3477 0416 59050000 		.4byte	0x559
 3478 041a 17       		.uleb128 0x17
 3479 041b 535200   		.ascii	"SR\000"
 3480 041e 0A       		.byte	0xa
 3481 041f 2002     		.2byte	0x220
 3482 0421 11       		.byte	0x11
 3483 0422 C8000000 		.4byte	0xc8
 3484 0426 02       		.byte	0x2
 3485 0427 23       		.byte	0x23
 3486 0428 00       		.uleb128 0
 3487 0429 17       		.uleb128 0x17
 3488 042a 43523100 		.ascii	"CR1\000"
 3489 042e 0A       		.byte	0xa
 3490 042f 2102     		.2byte	0x221
 3491 0431 11       		.byte	0x11
 3492 0432 C8000000 		.4byte	0xc8
 3493 0436 02       		.byte	0x2
 3494 0437 23       		.byte	0x23
 3495 0438 04       		.uleb128 0x4
 3496 0439 17       		.uleb128 0x17
 3497 043a 43523200 		.ascii	"CR2\000"
 3498 043e 0A       		.byte	0xa
 3499 043f 2202     		.2byte	0x222
 3500 0441 11       		.byte	0x11
 3501 0442 C8000000 		.4byte	0xc8
 3502 0446 02       		.byte	0x2
 3503 0447 23       		.byte	0x23
 3504 0448 08       		.uleb128 0x8
 3505 0449 18       		.uleb128 0x18
 3506 044a 4D050000 		.4byte	.LASF88
 3507 044e 0A       		.byte	0xa
 3508 044f 2302     		.2byte	0x223
 3509 0451 11       		.byte	0x11
 3510 0452 C8000000 		.4byte	0xc8
 3511 0456 02       		.byte	0x2
 3512 0457 23       		.byte	0x23
 3513 0458 0C       		.uleb128 0xc
 3514 0459 18       		.uleb128 0x18
 3515 045a 53050000 		.4byte	.LASF89
 3516 045e 0A       		.byte	0xa
 3517 045f 2402     		.2byte	0x224
 3518 0461 11       		.byte	0x11
ARM GAS  /tmp/ccaJFhKP.s 			page 83


 3519 0462 C8000000 		.4byte	0xc8
 3520 0466 02       		.byte	0x2
 3521 0467 23       		.byte	0x23
 3522 0468 10       		.uleb128 0x10
 3523 0469 18       		.uleb128 0x18
 3524 046a 54090000 		.4byte	.LASF90
 3525 046e 0A       		.byte	0xa
 3526 046f 2502     		.2byte	0x225
 3527 0471 11       		.byte	0x11
 3528 0472 C8000000 		.4byte	0xc8
 3529 0476 02       		.byte	0x2
 3530 0477 23       		.byte	0x23
 3531 0478 14       		.uleb128 0x14
 3532 0479 18       		.uleb128 0x18
 3533 047a 5A090000 		.4byte	.LASF91
 3534 047e 0A       		.byte	0xa
 3535 047f 2602     		.2byte	0x226
 3536 0481 11       		.byte	0x11
 3537 0482 C8000000 		.4byte	0xc8
 3538 0486 02       		.byte	0x2
 3539 0487 23       		.byte	0x23
 3540 0488 18       		.uleb128 0x18
 3541 0489 18       		.uleb128 0x18
 3542 048a 60090000 		.4byte	.LASF92
 3543 048e 0A       		.byte	0xa
 3544 048f 2702     		.2byte	0x227
 3545 0491 11       		.byte	0x11
 3546 0492 C8000000 		.4byte	0xc8
 3547 0496 02       		.byte	0x2
 3548 0497 23       		.byte	0x23
 3549 0498 1C       		.uleb128 0x1c
 3550 0499 18       		.uleb128 0x18
 3551 049a 66090000 		.4byte	.LASF93
 3552 049e 0A       		.byte	0xa
 3553 049f 2802     		.2byte	0x228
 3554 04a1 11       		.byte	0x11
 3555 04a2 C8000000 		.4byte	0xc8
 3556 04a6 02       		.byte	0x2
 3557 04a7 23       		.byte	0x23
 3558 04a8 20       		.uleb128 0x20
 3559 04a9 17       		.uleb128 0x17
 3560 04aa 48545200 		.ascii	"HTR\000"
 3561 04ae 0A       		.byte	0xa
 3562 04af 2902     		.2byte	0x229
 3563 04b1 11       		.byte	0x11
 3564 04b2 C8000000 		.4byte	0xc8
 3565 04b6 02       		.byte	0x2
 3566 04b7 23       		.byte	0x23
 3567 04b8 24       		.uleb128 0x24
 3568 04b9 17       		.uleb128 0x17
 3569 04ba 4C545200 		.ascii	"LTR\000"
 3570 04be 0A       		.byte	0xa
 3571 04bf 2A02     		.2byte	0x22a
 3572 04c1 11       		.byte	0x11
 3573 04c2 C8000000 		.4byte	0xc8
 3574 04c6 02       		.byte	0x2
 3575 04c7 23       		.byte	0x23
ARM GAS  /tmp/ccaJFhKP.s 			page 84


 3576 04c8 28       		.uleb128 0x28
 3577 04c9 18       		.uleb128 0x18
 3578 04ca 61000000 		.4byte	.LASF94
 3579 04ce 0A       		.byte	0xa
 3580 04cf 2B02     		.2byte	0x22b
 3581 04d1 11       		.byte	0x11
 3582 04d2 C8000000 		.4byte	0xc8
 3583 04d6 02       		.byte	0x2
 3584 04d7 23       		.byte	0x23
 3585 04d8 2C       		.uleb128 0x2c
 3586 04d9 18       		.uleb128 0x18
 3587 04da 66000000 		.4byte	.LASF95
 3588 04de 0A       		.byte	0xa
 3589 04df 2C02     		.2byte	0x22c
 3590 04e1 11       		.byte	0x11
 3591 04e2 C8000000 		.4byte	0xc8
 3592 04e6 02       		.byte	0x2
 3593 04e7 23       		.byte	0x23
 3594 04e8 30       		.uleb128 0x30
 3595 04e9 18       		.uleb128 0x18
 3596 04ea 6B000000 		.4byte	.LASF96
 3597 04ee 0A       		.byte	0xa
 3598 04ef 2D02     		.2byte	0x22d
 3599 04f1 11       		.byte	0x11
 3600 04f2 C8000000 		.4byte	0xc8
 3601 04f6 02       		.byte	0x2
 3602 04f7 23       		.byte	0x23
 3603 04f8 34       		.uleb128 0x34
 3604 04f9 18       		.uleb128 0x18
 3605 04fa 5D0A0000 		.4byte	.LASF97
 3606 04fe 0A       		.byte	0xa
 3607 04ff 2E02     		.2byte	0x22e
 3608 0501 11       		.byte	0x11
 3609 0502 C8000000 		.4byte	0xc8
 3610 0506 02       		.byte	0x2
 3611 0507 23       		.byte	0x23
 3612 0508 38       		.uleb128 0x38
 3613 0509 18       		.uleb128 0x18
 3614 050a 230A0000 		.4byte	.LASF98
 3615 050e 0A       		.byte	0xa
 3616 050f 2F02     		.2byte	0x22f
 3617 0511 11       		.byte	0x11
 3618 0512 C8000000 		.4byte	0xc8
 3619 0516 02       		.byte	0x2
 3620 0517 23       		.byte	0x23
 3621 0518 3C       		.uleb128 0x3c
 3622 0519 18       		.uleb128 0x18
 3623 051a 280A0000 		.4byte	.LASF99
 3624 051e 0A       		.byte	0xa
 3625 051f 3002     		.2byte	0x230
 3626 0521 11       		.byte	0x11
 3627 0522 C8000000 		.4byte	0xc8
 3628 0526 02       		.byte	0x2
 3629 0527 23       		.byte	0x23
 3630 0528 40       		.uleb128 0x40
 3631 0529 18       		.uleb128 0x18
 3632 052a 2D0A0000 		.4byte	.LASF100
ARM GAS  /tmp/ccaJFhKP.s 			page 85


 3633 052e 0A       		.byte	0xa
 3634 052f 3102     		.2byte	0x231
 3635 0531 11       		.byte	0x11
 3636 0532 C8000000 		.4byte	0xc8
 3637 0536 02       		.byte	0x2
 3638 0537 23       		.byte	0x23
 3639 0538 44       		.uleb128 0x44
 3640 0539 18       		.uleb128 0x18
 3641 053a 320A0000 		.4byte	.LASF101
 3642 053e 0A       		.byte	0xa
 3643 053f 3202     		.2byte	0x232
 3644 0541 11       		.byte	0x11
 3645 0542 C8000000 		.4byte	0xc8
 3646 0546 02       		.byte	0x2
 3647 0547 23       		.byte	0x23
 3648 0548 48       		.uleb128 0x48
 3649 0549 17       		.uleb128 0x17
 3650 054a 445200   		.ascii	"DR\000"
 3651 054d 0A       		.byte	0xa
 3652 054e 3302     		.2byte	0x233
 3653 0550 11       		.byte	0x11
 3654 0551 C8000000 		.4byte	0xc8
 3655 0555 02       		.byte	0x2
 3656 0556 23       		.byte	0x23
 3657 0557 4C       		.uleb128 0x4c
 3658 0558 00       		.byte	0
 3659 0559 0E       		.uleb128 0xe
 3660 055a 15040000 		.4byte	.LASF102
 3661 055e 0A       		.byte	0xa
 3662 055f 3402     		.2byte	0x234
 3663 0561 03       		.byte	0x3
 3664 0562 10040000 		.4byte	0x410
 3665 0566 16       		.uleb128 0x16
 3666 0567 24       		.byte	0x24
 3667 0568 0A       		.byte	0xa
 3668 0569 8503     		.2byte	0x385
 3669 056b 09       		.byte	0x9
 3670 056c FE050000 		.4byte	0x5fe
 3671 0570 17       		.uleb128 0x17
 3672 0571 41435200 		.ascii	"ACR\000"
 3673 0575 0A       		.byte	0xa
 3674 0576 8703     		.2byte	0x387
 3675 0578 11       		.byte	0x11
 3676 0579 C8000000 		.4byte	0xc8
 3677 057d 02       		.byte	0x2
 3678 057e 23       		.byte	0x23
 3679 057f 00       		.uleb128 0
 3680 0580 18       		.uleb128 0x18
 3681 0581 03090000 		.4byte	.LASF103
 3682 0585 0A       		.byte	0xa
 3683 0586 8803     		.2byte	0x388
 3684 0588 11       		.byte	0x11
 3685 0589 C8000000 		.4byte	0xc8
 3686 058d 02       		.byte	0x2
 3687 058e 23       		.byte	0x23
 3688 058f 04       		.uleb128 0x4
 3689 0590 18       		.uleb128 0x18
ARM GAS  /tmp/ccaJFhKP.s 			page 86


 3690 0591 A9040000 		.4byte	.LASF104
 3691 0595 0A       		.byte	0xa
 3692 0596 8903     		.2byte	0x389
 3693 0598 11       		.byte	0x11
 3694 0599 C8000000 		.4byte	0xc8
 3695 059d 02       		.byte	0x2
 3696 059e 23       		.byte	0x23
 3697 059f 08       		.uleb128 0x8
 3698 05a0 17       		.uleb128 0x17
 3699 05a1 535200   		.ascii	"SR\000"
 3700 05a4 0A       		.byte	0xa
 3701 05a5 8A03     		.2byte	0x38a
 3702 05a7 11       		.byte	0x11
 3703 05a8 C8000000 		.4byte	0xc8
 3704 05ac 02       		.byte	0x2
 3705 05ad 23       		.byte	0x23
 3706 05ae 0C       		.uleb128 0xc
 3707 05af 17       		.uleb128 0x17
 3708 05b0 435200   		.ascii	"CR\000"
 3709 05b3 0A       		.byte	0xa
 3710 05b4 8B03     		.2byte	0x38b
 3711 05b6 11       		.byte	0x11
 3712 05b7 C8000000 		.4byte	0xc8
 3713 05bb 02       		.byte	0x2
 3714 05bc 23       		.byte	0x23
 3715 05bd 10       		.uleb128 0x10
 3716 05be 17       		.uleb128 0x17
 3717 05bf 415200   		.ascii	"AR\000"
 3718 05c2 0A       		.byte	0xa
 3719 05c3 8C03     		.2byte	0x38c
 3720 05c5 11       		.byte	0x11
 3721 05c6 C8000000 		.4byte	0xc8
 3722 05ca 02       		.byte	0x2
 3723 05cb 23       		.byte	0x23
 3724 05cc 14       		.uleb128 0x14
 3725 05cd 18       		.uleb128 0x18
 3726 05ce 21040000 		.4byte	.LASF105
 3727 05d2 0A       		.byte	0xa
 3728 05d3 8D03     		.2byte	0x38d
 3729 05d5 11       		.byte	0x11
 3730 05d6 C8000000 		.4byte	0xc8
 3731 05da 02       		.byte	0x2
 3732 05db 23       		.byte	0x23
 3733 05dc 18       		.uleb128 0x18
 3734 05dd 17       		.uleb128 0x17
 3735 05de 4F425200 		.ascii	"OBR\000"
 3736 05e2 0A       		.byte	0xa
 3737 05e3 8E03     		.2byte	0x38e
 3738 05e5 11       		.byte	0x11
 3739 05e6 C8000000 		.4byte	0xc8
 3740 05ea 02       		.byte	0x2
 3741 05eb 23       		.byte	0x23
 3742 05ec 1C       		.uleb128 0x1c
 3743 05ed 18       		.uleb128 0x18
 3744 05ee D2010000 		.4byte	.LASF106
 3745 05f2 0A       		.byte	0xa
 3746 05f3 8F03     		.2byte	0x38f
ARM GAS  /tmp/ccaJFhKP.s 			page 87


 3747 05f5 11       		.byte	0x11
 3748 05f6 C8000000 		.4byte	0xc8
 3749 05fa 02       		.byte	0x2
 3750 05fb 23       		.byte	0x23
 3751 05fc 20       		.uleb128 0x20
 3752 05fd 00       		.byte	0
 3753 05fe 0E       		.uleb128 0xe
 3754 05ff 820A0000 		.4byte	.LASF107
 3755 0603 0A       		.byte	0xa
 3756 0604 9803     		.2byte	0x398
 3757 0606 03       		.byte	0x3
 3758 0607 66050000 		.4byte	0x566
 3759 060b 16       		.uleb128 0x16
 3760 060c 1C       		.byte	0x1c
 3761 060d 0A       		.byte	0xa
 3762 060e E903     		.2byte	0x3e9
 3763 0610 09       		.byte	0x9
 3764 0611 86060000 		.4byte	0x686
 3765 0615 17       		.uleb128 0x17
 3766 0616 43524C00 		.ascii	"CRL\000"
 3767 061a 0A       		.byte	0xa
 3768 061b EB03     		.2byte	0x3eb
 3769 061d 11       		.byte	0x11
 3770 061e C8000000 		.4byte	0xc8
 3771 0622 02       		.byte	0x2
 3772 0623 23       		.byte	0x23
 3773 0624 00       		.uleb128 0
 3774 0625 17       		.uleb128 0x17
 3775 0626 43524800 		.ascii	"CRH\000"
 3776 062a 0A       		.byte	0xa
 3777 062b EC03     		.2byte	0x3ec
 3778 062d 11       		.byte	0x11
 3779 062e C8000000 		.4byte	0xc8
 3780 0632 02       		.byte	0x2
 3781 0633 23       		.byte	0x23
 3782 0634 04       		.uleb128 0x4
 3783 0635 17       		.uleb128 0x17
 3784 0636 49445200 		.ascii	"IDR\000"
 3785 063a 0A       		.byte	0xa
 3786 063b ED03     		.2byte	0x3ed
 3787 063d 11       		.byte	0x11
 3788 063e C8000000 		.4byte	0xc8
 3789 0642 02       		.byte	0x2
 3790 0643 23       		.byte	0x23
 3791 0644 08       		.uleb128 0x8
 3792 0645 17       		.uleb128 0x17
 3793 0646 4F445200 		.ascii	"ODR\000"
 3794 064a 0A       		.byte	0xa
 3795 064b EE03     		.2byte	0x3ee
 3796 064d 11       		.byte	0x11
 3797 064e C8000000 		.4byte	0xc8
 3798 0652 02       		.byte	0x2
 3799 0653 23       		.byte	0x23
 3800 0654 0C       		.uleb128 0xc
 3801 0655 18       		.uleb128 0x18
 3802 0656 1E0A0000 		.4byte	.LASF108
 3803 065a 0A       		.byte	0xa
ARM GAS  /tmp/ccaJFhKP.s 			page 88


 3804 065b EF03     		.2byte	0x3ef
 3805 065d 11       		.byte	0x11
 3806 065e C8000000 		.4byte	0xc8
 3807 0662 02       		.byte	0x2
 3808 0663 23       		.byte	0x23
 3809 0664 10       		.uleb128 0x10
 3810 0665 17       		.uleb128 0x17
 3811 0666 42525200 		.ascii	"BRR\000"
 3812 066a 0A       		.byte	0xa
 3813 066b F003     		.2byte	0x3f0
 3814 066d 11       		.byte	0x11
 3815 066e C8000000 		.4byte	0xc8
 3816 0672 02       		.byte	0x2
 3817 0673 23       		.byte	0x23
 3818 0674 14       		.uleb128 0x14
 3819 0675 18       		.uleb128 0x18
 3820 0676 83050000 		.4byte	.LASF109
 3821 067a 0A       		.byte	0xa
 3822 067b F103     		.2byte	0x3f1
 3823 067d 11       		.byte	0x11
 3824 067e C8000000 		.4byte	0xc8
 3825 0682 02       		.byte	0x2
 3826 0683 23       		.byte	0x23
 3827 0684 18       		.uleb128 0x18
 3828 0685 00       		.byte	0
 3829 0686 0E       		.uleb128 0xe
 3830 0687 620A0000 		.4byte	.LASF110
 3831 068b 0A       		.byte	0xa
 3832 068c F203     		.2byte	0x3f2
 3833 068e 03       		.byte	0x3
 3834 068f 0B060000 		.4byte	0x60b
 3835 0693 16       		.uleb128 0x16
 3836 0694 20       		.byte	0x20
 3837 0695 0A       		.byte	0xa
 3838 0696 F803     		.2byte	0x3f8
 3839 0698 09       		.byte	0x9
 3840 0699 EE060000 		.4byte	0x6ee
 3841 069d 18       		.uleb128 0x18
 3842 069e B0050000 		.4byte	.LASF111
 3843 06a2 0A       		.byte	0xa
 3844 06a3 FA03     		.2byte	0x3fa
 3845 06a5 11       		.byte	0x11
 3846 06a6 C8000000 		.4byte	0xc8
 3847 06aa 02       		.byte	0x2
 3848 06ab 23       		.byte	0x23
 3849 06ac 00       		.uleb128 0
 3850 06ad 18       		.uleb128 0x18
 3851 06ae E4070000 		.4byte	.LASF112
 3852 06b2 0A       		.byte	0xa
 3853 06b3 FB03     		.2byte	0x3fb
 3854 06b5 11       		.byte	0x11
 3855 06b6 C8000000 		.4byte	0xc8
 3856 06ba 02       		.byte	0x2
 3857 06bb 23       		.byte	0x23
 3858 06bc 04       		.uleb128 0x4
 3859 06bd 18       		.uleb128 0x18
 3860 06be 45000000 		.4byte	.LASF113
ARM GAS  /tmp/ccaJFhKP.s 			page 89


 3861 06c2 0A       		.byte	0xa
 3862 06c3 FC03     		.2byte	0x3fc
 3863 06c5 11       		.byte	0x11
 3864 06c6 FE060000 		.4byte	0x6fe
 3865 06ca 02       		.byte	0x2
 3866 06cb 23       		.byte	0x23
 3867 06cc 08       		.uleb128 0x8
 3868 06cd 18       		.uleb128 0x18
 3869 06ce 28020000 		.4byte	.LASF73
 3870 06d2 0A       		.byte	0xa
 3871 06d3 FD03     		.2byte	0x3fd
 3872 06d5 0C       		.byte	0xc
 3873 06d6 BC000000 		.4byte	0xbc
 3874 06da 02       		.byte	0x2
 3875 06db 23       		.byte	0x23
 3876 06dc 18       		.uleb128 0x18
 3877 06dd 18       		.uleb128 0x18
 3878 06de A1030000 		.4byte	.LASF114
 3879 06e2 0A       		.byte	0xa
 3880 06e3 FE03     		.2byte	0x3fe
 3881 06e5 11       		.byte	0x11
 3882 06e6 C8000000 		.4byte	0xc8
 3883 06ea 02       		.byte	0x2
 3884 06eb 23       		.byte	0x23
 3885 06ec 1C       		.uleb128 0x1c
 3886 06ed 00       		.byte	0
 3887 06ee 09       		.uleb128 0x9
 3888 06ef C8000000 		.4byte	0xc8
 3889 06f3 FE060000 		.4byte	0x6fe
 3890 06f7 0A       		.uleb128 0xa
 3891 06f8 30000000 		.4byte	0x30
 3892 06fc 03       		.byte	0x3
 3893 06fd 00       		.byte	0
 3894 06fe 05       		.uleb128 0x5
 3895 06ff EE060000 		.4byte	0x6ee
 3896 0703 0E       		.uleb128 0xe
 3897 0704 47090000 		.4byte	.LASF115
 3898 0708 0A       		.byte	0xa
 3899 0709 FF03     		.2byte	0x3ff
 3900 070b 03       		.byte	0x3
 3901 070c 93060000 		.4byte	0x693
 3902 0710 16       		.uleb128 0x16
 3903 0711 30       		.byte	0x30
 3904 0712 0A       		.byte	0xa
 3905 0713 3404     		.2byte	0x434
 3906 0715 09       		.byte	0x9
 3907 0716 DA070000 		.4byte	0x7da
 3908 071a 17       		.uleb128 0x17
 3909 071b 435200   		.ascii	"CR\000"
 3910 071e 0A       		.byte	0xa
 3911 071f 3604     		.2byte	0x436
 3912 0721 11       		.byte	0x11
 3913 0722 C8000000 		.4byte	0xc8
 3914 0726 02       		.byte	0x2
 3915 0727 23       		.byte	0x23
 3916 0728 00       		.uleb128 0
 3917 0729 18       		.uleb128 0x18
ARM GAS  /tmp/ccaJFhKP.s 			page 90


 3918 072a 50040000 		.4byte	.LASF116
 3919 072e 0A       		.byte	0xa
 3920 072f 3704     		.2byte	0x437
 3921 0731 11       		.byte	0x11
 3922 0732 C8000000 		.4byte	0xc8
 3923 0736 02       		.byte	0x2
 3924 0737 23       		.byte	0x23
 3925 0738 04       		.uleb128 0x4
 3926 0739 17       		.uleb128 0x17
 3927 073a 43495200 		.ascii	"CIR\000"
 3928 073e 0A       		.byte	0xa
 3929 073f 3804     		.2byte	0x438
 3930 0741 11       		.byte	0x11
 3931 0742 C8000000 		.4byte	0xc8
 3932 0746 02       		.byte	0x2
 3933 0747 23       		.byte	0x23
 3934 0748 08       		.uleb128 0x8
 3935 0749 18       		.uleb128 0x18
 3936 074a 22060000 		.4byte	.LASF117
 3937 074e 0A       		.byte	0xa
 3938 074f 3904     		.2byte	0x439
 3939 0751 11       		.byte	0x11
 3940 0752 C8000000 		.4byte	0xc8
 3941 0756 02       		.byte	0x2
 3942 0757 23       		.byte	0x23
 3943 0758 0C       		.uleb128 0xc
 3944 0759 18       		.uleb128 0x18
 3945 075a 25070000 		.4byte	.LASF118
 3946 075e 0A       		.byte	0xa
 3947 075f 3A04     		.2byte	0x43a
 3948 0761 11       		.byte	0x11
 3949 0762 C8000000 		.4byte	0xc8
 3950 0766 02       		.byte	0x2
 3951 0767 23       		.byte	0x23
 3952 0768 10       		.uleb128 0x10
 3953 0769 18       		.uleb128 0x18
 3954 076a 97090000 		.4byte	.LASF119
 3955 076e 0A       		.byte	0xa
 3956 076f 3B04     		.2byte	0x43b
 3957 0771 11       		.byte	0x11
 3958 0772 C8000000 		.4byte	0xc8
 3959 0776 02       		.byte	0x2
 3960 0777 23       		.byte	0x23
 3961 0778 14       		.uleb128 0x14
 3962 0779 18       		.uleb128 0x18
 3963 077a 99010000 		.4byte	.LASF120
 3964 077e 0A       		.byte	0xa
 3965 077f 3C04     		.2byte	0x43c
 3966 0781 11       		.byte	0x11
 3967 0782 C8000000 		.4byte	0xc8
 3968 0786 02       		.byte	0x2
 3969 0787 23       		.byte	0x23
 3970 0788 18       		.uleb128 0x18
 3971 0789 18       		.uleb128 0x18
 3972 078a F7040000 		.4byte	.LASF121
 3973 078e 0A       		.byte	0xa
 3974 078f 3D04     		.2byte	0x43d
ARM GAS  /tmp/ccaJFhKP.s 			page 91


 3975 0791 11       		.byte	0x11
 3976 0792 C8000000 		.4byte	0xc8
 3977 0796 02       		.byte	0x2
 3978 0797 23       		.byte	0x23
 3979 0798 1C       		.uleb128 0x1c
 3980 0799 18       		.uleb128 0x18
 3981 079a FE030000 		.4byte	.LASF122
 3982 079e 0A       		.byte	0xa
 3983 079f 3E04     		.2byte	0x43e
 3984 07a1 11       		.byte	0x11
 3985 07a2 C8000000 		.4byte	0xc8
 3986 07a6 02       		.byte	0x2
 3987 07a7 23       		.byte	0x23
 3988 07a8 20       		.uleb128 0x20
 3989 07a9 17       		.uleb128 0x17
 3990 07aa 43535200 		.ascii	"CSR\000"
 3991 07ae 0A       		.byte	0xa
 3992 07af 3F04     		.2byte	0x43f
 3993 07b1 11       		.byte	0x11
 3994 07b2 C8000000 		.4byte	0xc8
 3995 07b6 02       		.byte	0x2
 3996 07b7 23       		.byte	0x23
 3997 07b8 24       		.uleb128 0x24
 3998 07b9 18       		.uleb128 0x18
 3999 07ba 9A050000 		.4byte	.LASF123
 4000 07be 0A       		.byte	0xa
 4001 07bf 4004     		.2byte	0x440
 4002 07c1 11       		.byte	0x11
 4003 07c2 C8000000 		.4byte	0xc8
 4004 07c6 02       		.byte	0x2
 4005 07c7 23       		.byte	0x23
 4006 07c8 28       		.uleb128 0x28
 4007 07c9 18       		.uleb128 0x18
 4008 07ca 77060000 		.4byte	.LASF124
 4009 07ce 0A       		.byte	0xa
 4010 07cf 4104     		.2byte	0x441
 4011 07d1 11       		.byte	0x11
 4012 07d2 C8000000 		.4byte	0xc8
 4013 07d6 02       		.byte	0x2
 4014 07d7 23       		.byte	0x23
 4015 07d8 2C       		.uleb128 0x2c
 4016 07d9 00       		.byte	0
 4017 07da 0E       		.uleb128 0xe
 4018 07db 08090000 		.4byte	.LASF125
 4019 07df 0A       		.byte	0xa
 4020 07e0 4204     		.2byte	0x442
 4021 07e2 03       		.byte	0x3
 4022 07e3 10070000 		.4byte	0x710
 4023 07e7 16       		.uleb128 0x16
 4024 07e8 50       		.byte	0x50
 4025 07e9 0A       		.byte	0xa
 4026 07ea 9A04     		.2byte	0x49a
 4027 07ec 09       		.byte	0x9
 4028 07ed 710A0000 		.4byte	0xa71
 4029 07f1 17       		.uleb128 0x17
 4030 07f2 43523100 		.ascii	"CR1\000"
 4031 07f6 0A       		.byte	0xa
ARM GAS  /tmp/ccaJFhKP.s 			page 92


 4032 07f7 9C04     		.2byte	0x49c
 4033 07f9 11       		.byte	0x11
 4034 07fa B7000000 		.4byte	0xb7
 4035 07fe 02       		.byte	0x2
 4036 07ff 23       		.byte	0x23
 4037 0800 00       		.uleb128 0
 4038 0801 18       		.uleb128 0x18
 4039 0802 28020000 		.4byte	.LASF73
 4040 0806 0A       		.byte	0xa
 4041 0807 9D04     		.2byte	0x49d
 4042 0809 0D       		.byte	0xd
 4043 080a AB000000 		.4byte	0xab
 4044 080e 02       		.byte	0x2
 4045 080f 23       		.byte	0x23
 4046 0810 02       		.uleb128 0x2
 4047 0811 17       		.uleb128 0x17
 4048 0812 43523200 		.ascii	"CR2\000"
 4049 0816 0A       		.byte	0xa
 4050 0817 9E04     		.2byte	0x49e
 4051 0819 11       		.byte	0x11
 4052 081a B7000000 		.4byte	0xb7
 4053 081e 02       		.byte	0x2
 4054 081f 23       		.byte	0x23
 4055 0820 04       		.uleb128 0x4
 4056 0821 18       		.uleb128 0x18
 4057 0822 32020000 		.4byte	.LASF126
 4058 0826 0A       		.byte	0xa
 4059 0827 9F04     		.2byte	0x49f
 4060 0829 0D       		.byte	0xd
 4061 082a AB000000 		.4byte	0xab
 4062 082e 02       		.byte	0x2
 4063 082f 23       		.byte	0x23
 4064 0830 06       		.uleb128 0x6
 4065 0831 18       		.uleb128 0x18
 4066 0832 35080000 		.4byte	.LASF127
 4067 0836 0A       		.byte	0xa
 4068 0837 A004     		.2byte	0x4a0
 4069 0839 11       		.byte	0x11
 4070 083a B7000000 		.4byte	0xb7
 4071 083e 02       		.byte	0x2
 4072 083f 23       		.byte	0x23
 4073 0840 08       		.uleb128 0x8
 4074 0841 18       		.uleb128 0x18
 4075 0842 F8020000 		.4byte	.LASF77
 4076 0846 0A       		.byte	0xa
 4077 0847 A104     		.2byte	0x4a1
 4078 0849 0D       		.byte	0xd
 4079 084a AB000000 		.4byte	0xab
 4080 084e 02       		.byte	0x2
 4081 084f 23       		.byte	0x23
 4082 0850 0A       		.uleb128 0xa
 4083 0851 18       		.uleb128 0x18
 4084 0852 28050000 		.4byte	.LASF128
 4085 0856 0A       		.byte	0xa
 4086 0857 A204     		.2byte	0x4a2
 4087 0859 11       		.byte	0x11
 4088 085a B7000000 		.4byte	0xb7
ARM GAS  /tmp/ccaJFhKP.s 			page 93


 4089 085e 02       		.byte	0x2
 4090 085f 23       		.byte	0x23
 4091 0860 0C       		.uleb128 0xc
 4092 0861 18       		.uleb128 0x18
 4093 0862 4A020000 		.4byte	.LASF79
 4094 0866 0A       		.byte	0xa
 4095 0867 A304     		.2byte	0x4a3
 4096 0869 0D       		.byte	0xd
 4097 086a AB000000 		.4byte	0xab
 4098 086e 02       		.byte	0x2
 4099 086f 23       		.byte	0x23
 4100 0870 0E       		.uleb128 0xe
 4101 0871 17       		.uleb128 0x17
 4102 0872 535200   		.ascii	"SR\000"
 4103 0875 0A       		.byte	0xa
 4104 0876 A404     		.2byte	0x4a4
 4105 0878 11       		.byte	0x11
 4106 0879 B7000000 		.4byte	0xb7
 4107 087d 02       		.byte	0x2
 4108 087e 23       		.byte	0x23
 4109 087f 10       		.uleb128 0x10
 4110 0880 18       		.uleb128 0x18
 4111 0881 54020000 		.4byte	.LASF81
 4112 0885 0A       		.byte	0xa
 4113 0886 A504     		.2byte	0x4a5
 4114 0888 0D       		.byte	0xd
 4115 0889 AB000000 		.4byte	0xab
 4116 088d 02       		.byte	0x2
 4117 088e 23       		.byte	0x23
 4118 088f 12       		.uleb128 0x12
 4119 0890 17       		.uleb128 0x17
 4120 0891 45475200 		.ascii	"EGR\000"
 4121 0895 0A       		.byte	0xa
 4122 0896 A604     		.2byte	0x4a6
 4123 0898 11       		.byte	0x11
 4124 0899 B7000000 		.4byte	0xb7
 4125 089d 02       		.byte	0x2
 4126 089e 23       		.byte	0x23
 4127 089f 14       		.uleb128 0x14
 4128 08a0 18       		.uleb128 0x18
 4129 08a1 5E020000 		.4byte	.LASF82
 4130 08a5 0A       		.byte	0xa
 4131 08a6 A704     		.2byte	0x4a7
 4132 08a8 0D       		.byte	0xd
 4133 08a9 AB000000 		.4byte	0xab
 4134 08ad 02       		.byte	0x2
 4135 08ae 23       		.byte	0x23
 4136 08af 16       		.uleb128 0x16
 4137 08b0 18       		.uleb128 0x18
 4138 08b1 1F030000 		.4byte	.LASF129
 4139 08b5 0A       		.byte	0xa
 4140 08b6 A804     		.2byte	0x4a8
 4141 08b8 11       		.byte	0x11
 4142 08b9 B7000000 		.4byte	0xb7
 4143 08bd 02       		.byte	0x2
 4144 08be 23       		.byte	0x23
 4145 08bf 18       		.uleb128 0x18
ARM GAS  /tmp/ccaJFhKP.s 			page 94


 4146 08c0 18       		.uleb128 0x18
 4147 08c1 68020000 		.4byte	.LASF130
 4148 08c5 0A       		.byte	0xa
 4149 08c6 A904     		.2byte	0x4a9
 4150 08c8 0D       		.byte	0xd
 4151 08c9 AB000000 		.4byte	0xab
 4152 08cd 02       		.byte	0x2
 4153 08ce 23       		.byte	0x23
 4154 08cf 1A       		.uleb128 0x1a
 4155 08d0 18       		.uleb128 0x18
 4156 08d1 97060000 		.4byte	.LASF131
 4157 08d5 0A       		.byte	0xa
 4158 08d6 AA04     		.2byte	0x4aa
 4159 08d8 11       		.byte	0x11
 4160 08d9 B7000000 		.4byte	0xb7
 4161 08dd 02       		.byte	0x2
 4162 08de 23       		.byte	0x23
 4163 08df 1C       		.uleb128 0x1c
 4164 08e0 18       		.uleb128 0x18
 4165 08e1 72020000 		.4byte	.LASF132
 4166 08e5 0A       		.byte	0xa
 4167 08e6 AB04     		.2byte	0x4ab
 4168 08e8 0D       		.byte	0xd
 4169 08e9 AB000000 		.4byte	0xab
 4170 08ed 02       		.byte	0x2
 4171 08ee 23       		.byte	0x23
 4172 08ef 1E       		.uleb128 0x1e
 4173 08f0 18       		.uleb128 0x18
 4174 08f1 86070000 		.4byte	.LASF133
 4175 08f5 0A       		.byte	0xa
 4176 08f6 AC04     		.2byte	0x4ac
 4177 08f8 11       		.byte	0x11
 4178 08f9 B7000000 		.4byte	0xb7
 4179 08fd 02       		.byte	0x2
 4180 08fe 23       		.byte	0x23
 4181 08ff 20       		.uleb128 0x20
 4182 0900 18       		.uleb128 0x18
 4183 0901 7C020000 		.4byte	.LASF134
 4184 0905 0A       		.byte	0xa
 4185 0906 AD04     		.2byte	0x4ad
 4186 0908 0D       		.byte	0xd
 4187 0909 AB000000 		.4byte	0xab
 4188 090d 02       		.byte	0x2
 4189 090e 23       		.byte	0x23
 4190 090f 22       		.uleb128 0x22
 4191 0910 17       		.uleb128 0x17
 4192 0911 434E5400 		.ascii	"CNT\000"
 4193 0915 0A       		.byte	0xa
 4194 0916 AE04     		.2byte	0x4ae
 4195 0918 11       		.byte	0x11
 4196 0919 B7000000 		.4byte	0xb7
 4197 091d 02       		.byte	0x2
 4198 091e 23       		.byte	0x23
 4199 091f 24       		.uleb128 0x24
 4200 0920 18       		.uleb128 0x18
 4201 0921 86020000 		.4byte	.LASF135
 4202 0925 0A       		.byte	0xa
ARM GAS  /tmp/ccaJFhKP.s 			page 95


 4203 0926 AF04     		.2byte	0x4af
 4204 0928 0D       		.byte	0xd
 4205 0929 AB000000 		.4byte	0xab
 4206 092d 02       		.byte	0x2
 4207 092e 23       		.byte	0x23
 4208 092f 26       		.uleb128 0x26
 4209 0930 17       		.uleb128 0x17
 4210 0931 50534300 		.ascii	"PSC\000"
 4211 0935 0A       		.byte	0xa
 4212 0936 B004     		.2byte	0x4b0
 4213 0938 11       		.byte	0x11
 4214 0939 B7000000 		.4byte	0xb7
 4215 093d 02       		.byte	0x2
 4216 093e 23       		.byte	0x23
 4217 093f 28       		.uleb128 0x28
 4218 0940 18       		.uleb128 0x18
 4219 0941 320B0000 		.4byte	.LASF136
 4220 0945 0A       		.byte	0xa
 4221 0946 B104     		.2byte	0x4b1
 4222 0948 0D       		.byte	0xd
 4223 0949 AB000000 		.4byte	0xab
 4224 094d 02       		.byte	0x2
 4225 094e 23       		.byte	0x23
 4226 094f 2A       		.uleb128 0x2a
 4227 0950 17       		.uleb128 0x17
 4228 0951 41525200 		.ascii	"ARR\000"
 4229 0955 0A       		.byte	0xa
 4230 0956 B204     		.2byte	0x4b2
 4231 0958 11       		.byte	0x11
 4232 0959 B7000000 		.4byte	0xb7
 4233 095d 02       		.byte	0x2
 4234 095e 23       		.byte	0x23
 4235 095f 2C       		.uleb128 0x2c
 4236 0960 18       		.uleb128 0x18
 4237 0961 3D0B0000 		.4byte	.LASF137
 4238 0965 0A       		.byte	0xa
 4239 0966 B304     		.2byte	0x4b3
 4240 0968 0D       		.byte	0xd
 4241 0969 AB000000 		.4byte	0xab
 4242 096d 02       		.byte	0x2
 4243 096e 23       		.byte	0x23
 4244 096f 2E       		.uleb128 0x2e
 4245 0970 17       		.uleb128 0x17
 4246 0971 52435200 		.ascii	"RCR\000"
 4247 0975 0A       		.byte	0xa
 4248 0976 B404     		.2byte	0x4b4
 4249 0978 11       		.byte	0x11
 4250 0979 B7000000 		.4byte	0xb7
 4251 097d 02       		.byte	0x2
 4252 097e 23       		.byte	0x23
 4253 097f 30       		.uleb128 0x30
 4254 0980 18       		.uleb128 0x18
 4255 0981 8B070000 		.4byte	.LASF138
 4256 0985 0A       		.byte	0xa
 4257 0986 B504     		.2byte	0x4b5
 4258 0988 0D       		.byte	0xd
 4259 0989 AB000000 		.4byte	0xab
ARM GAS  /tmp/ccaJFhKP.s 			page 96


 4260 098d 02       		.byte	0x2
 4261 098e 23       		.byte	0x23
 4262 098f 32       		.uleb128 0x32
 4263 0990 18       		.uleb128 0x18
 4264 0991 F7000000 		.4byte	.LASF139
 4265 0995 0A       		.byte	0xa
 4266 0996 B604     		.2byte	0x4b6
 4267 0998 11       		.byte	0x11
 4268 0999 B7000000 		.4byte	0xb7
 4269 099d 02       		.byte	0x2
 4270 099e 23       		.byte	0x23
 4271 099f 34       		.uleb128 0x34
 4272 09a0 18       		.uleb128 0x18
 4273 09a1 8E010000 		.4byte	.LASF140
 4274 09a5 0A       		.byte	0xa
 4275 09a6 B704     		.2byte	0x4b7
 4276 09a8 0D       		.byte	0xd
 4277 09a9 AB000000 		.4byte	0xab
 4278 09ad 02       		.byte	0x2
 4279 09ae 23       		.byte	0x23
 4280 09af 36       		.uleb128 0x36
 4281 09b0 18       		.uleb128 0x18
 4282 09b1 FC000000 		.4byte	.LASF141
 4283 09b5 0A       		.byte	0xa
 4284 09b6 B804     		.2byte	0x4b8
 4285 09b8 11       		.byte	0x11
 4286 09b9 B7000000 		.4byte	0xb7
 4287 09bd 02       		.byte	0x2
 4288 09be 23       		.byte	0x23
 4289 09bf 38       		.uleb128 0x38
 4290 09c0 18       		.uleb128 0x18
 4291 09c1 A2070000 		.4byte	.LASF142
 4292 09c5 0A       		.byte	0xa
 4293 09c6 B904     		.2byte	0x4b9
 4294 09c8 0D       		.byte	0xd
 4295 09c9 AB000000 		.4byte	0xab
 4296 09cd 02       		.byte	0x2
 4297 09ce 23       		.byte	0x23
 4298 09cf 3A       		.uleb128 0x3a
 4299 09d0 18       		.uleb128 0x18
 4300 09d1 01010000 		.4byte	.LASF143
 4301 09d5 0A       		.byte	0xa
 4302 09d6 BA04     		.2byte	0x4ba
 4303 09d8 11       		.byte	0x11
 4304 09d9 B7000000 		.4byte	0xb7
 4305 09dd 02       		.byte	0x2
 4306 09de 23       		.byte	0x23
 4307 09df 3C       		.uleb128 0x3c
 4308 09e0 18       		.uleb128 0x18
 4309 09e1 AD070000 		.4byte	.LASF144
 4310 09e5 0A       		.byte	0xa
 4311 09e6 BB04     		.2byte	0x4bb
 4312 09e8 0D       		.byte	0xd
 4313 09e9 AB000000 		.4byte	0xab
 4314 09ed 02       		.byte	0x2
 4315 09ee 23       		.byte	0x23
 4316 09ef 3E       		.uleb128 0x3e
ARM GAS  /tmp/ccaJFhKP.s 			page 97


 4317 09f0 18       		.uleb128 0x18
 4318 09f1 06010000 		.4byte	.LASF145
 4319 09f5 0A       		.byte	0xa
 4320 09f6 BC04     		.2byte	0x4bc
 4321 09f8 11       		.byte	0x11
 4322 09f9 B7000000 		.4byte	0xb7
 4323 09fd 02       		.byte	0x2
 4324 09fe 23       		.byte	0x23
 4325 09ff 40       		.uleb128 0x40
 4326 0a00 18       		.uleb128 0x18
 4327 0a01 B8070000 		.4byte	.LASF146
 4328 0a05 0A       		.byte	0xa
 4329 0a06 BD04     		.2byte	0x4bd
 4330 0a08 0D       		.byte	0xd
 4331 0a09 AB000000 		.4byte	0xab
 4332 0a0d 02       		.byte	0x2
 4333 0a0e 23       		.byte	0x23
 4334 0a0f 42       		.uleb128 0x42
 4335 0a10 18       		.uleb128 0x18
 4336 0a11 980A0000 		.4byte	.LASF147
 4337 0a15 0A       		.byte	0xa
 4338 0a16 BE04     		.2byte	0x4be
 4339 0a18 11       		.byte	0x11
 4340 0a19 B7000000 		.4byte	0xb7
 4341 0a1d 02       		.byte	0x2
 4342 0a1e 23       		.byte	0x23
 4343 0a1f 44       		.uleb128 0x44
 4344 0a20 18       		.uleb128 0x18
 4345 0a21 C3070000 		.4byte	.LASF148
 4346 0a25 0A       		.byte	0xa
 4347 0a26 BF04     		.2byte	0x4bf
 4348 0a28 0D       		.byte	0xd
 4349 0a29 AB000000 		.4byte	0xab
 4350 0a2d 02       		.byte	0x2
 4351 0a2e 23       		.byte	0x23
 4352 0a2f 46       		.uleb128 0x46
 4353 0a30 17       		.uleb128 0x17
 4354 0a31 44435200 		.ascii	"DCR\000"
 4355 0a35 0A       		.byte	0xa
 4356 0a36 C004     		.2byte	0x4c0
 4357 0a38 11       		.byte	0x11
 4358 0a39 B7000000 		.4byte	0xb7
 4359 0a3d 02       		.byte	0x2
 4360 0a3e 23       		.byte	0x23
 4361 0a3f 48       		.uleb128 0x48
 4362 0a40 18       		.uleb128 0x18
 4363 0a41 CE070000 		.4byte	.LASF149
 4364 0a45 0A       		.byte	0xa
 4365 0a46 C104     		.2byte	0x4c1
 4366 0a48 0D       		.byte	0xd
 4367 0a49 AB000000 		.4byte	0xab
 4368 0a4d 02       		.byte	0x2
 4369 0a4e 23       		.byte	0x23
 4370 0a4f 4A       		.uleb128 0x4a
 4371 0a50 18       		.uleb128 0x18
 4372 0a51 ED000000 		.4byte	.LASF150
 4373 0a55 0A       		.byte	0xa
ARM GAS  /tmp/ccaJFhKP.s 			page 98


 4374 0a56 C204     		.2byte	0x4c2
 4375 0a58 11       		.byte	0x11
 4376 0a59 B7000000 		.4byte	0xb7
 4377 0a5d 02       		.byte	0x2
 4378 0a5e 23       		.byte	0x23
 4379 0a5f 4C       		.uleb128 0x4c
 4380 0a60 18       		.uleb128 0x18
 4381 0a61 D9070000 		.4byte	.LASF151
 4382 0a65 0A       		.byte	0xa
 4383 0a66 C304     		.2byte	0x4c3
 4384 0a68 0D       		.byte	0xd
 4385 0a69 AB000000 		.4byte	0xab
 4386 0a6d 02       		.byte	0x2
 4387 0a6e 23       		.byte	0x23
 4388 0a6f 4E       		.uleb128 0x4e
 4389 0a70 00       		.byte	0
 4390 0a71 0E       		.uleb128 0xe
 4391 0a72 1C020000 		.4byte	.LASF152
 4392 0a76 0A       		.byte	0xa
 4393 0a77 C404     		.2byte	0x4c4
 4394 0a79 03       		.byte	0x3
 4395 0a7a E7070000 		.4byte	0x7e7
 4396 0a7e 16       		.uleb128 0x16
 4397 0a7f 1C       		.byte	0x1c
 4398 0a80 0A       		.byte	0xa
 4399 0a81 CA04     		.2byte	0x4ca
 4400 0a83 09       		.byte	0x9
 4401 0a84 670B0000 		.4byte	0xb67
 4402 0a88 17       		.uleb128 0x17
 4403 0a89 535200   		.ascii	"SR\000"
 4404 0a8c 0A       		.byte	0xa
 4405 0a8d CC04     		.2byte	0x4cc
 4406 0a8f 11       		.byte	0x11
 4407 0a90 B7000000 		.4byte	0xb7
 4408 0a94 02       		.byte	0x2
 4409 0a95 23       		.byte	0x23
 4410 0a96 00       		.uleb128 0
 4411 0a97 18       		.uleb128 0x18
 4412 0a98 28020000 		.4byte	.LASF73
 4413 0a9c 0A       		.byte	0xa
 4414 0a9d CD04     		.2byte	0x4cd
 4415 0a9f 0D       		.byte	0xd
 4416 0aa0 AB000000 		.4byte	0xab
 4417 0aa4 02       		.byte	0x2
 4418 0aa5 23       		.byte	0x23
 4419 0aa6 02       		.uleb128 0x2
 4420 0aa7 17       		.uleb128 0x17
 4421 0aa8 445200   		.ascii	"DR\000"
 4422 0aab 0A       		.byte	0xa
 4423 0aac CE04     		.2byte	0x4ce
 4424 0aae 11       		.byte	0x11
 4425 0aaf B7000000 		.4byte	0xb7
 4426 0ab3 02       		.byte	0x2
 4427 0ab4 23       		.byte	0x23
 4428 0ab5 04       		.uleb128 0x4
 4429 0ab6 18       		.uleb128 0x18
 4430 0ab7 32020000 		.4byte	.LASF126
ARM GAS  /tmp/ccaJFhKP.s 			page 99


 4431 0abb 0A       		.byte	0xa
 4432 0abc CF04     		.2byte	0x4cf
 4433 0abe 0D       		.byte	0xd
 4434 0abf AB000000 		.4byte	0xab
 4435 0ac3 02       		.byte	0x2
 4436 0ac4 23       		.byte	0x23
 4437 0ac5 06       		.uleb128 0x6
 4438 0ac6 17       		.uleb128 0x17
 4439 0ac7 42525200 		.ascii	"BRR\000"
 4440 0acb 0A       		.byte	0xa
 4441 0acc D004     		.2byte	0x4d0
 4442 0ace 11       		.byte	0x11
 4443 0acf B7000000 		.4byte	0xb7
 4444 0ad3 02       		.byte	0x2
 4445 0ad4 23       		.byte	0x23
 4446 0ad5 08       		.uleb128 0x8
 4447 0ad6 18       		.uleb128 0x18
 4448 0ad7 F8020000 		.4byte	.LASF77
 4449 0adb 0A       		.byte	0xa
 4450 0adc D104     		.2byte	0x4d1
 4451 0ade 0D       		.byte	0xd
 4452 0adf AB000000 		.4byte	0xab
 4453 0ae3 02       		.byte	0x2
 4454 0ae4 23       		.byte	0x23
 4455 0ae5 0A       		.uleb128 0xa
 4456 0ae6 17       		.uleb128 0x17
 4457 0ae7 43523100 		.ascii	"CR1\000"
 4458 0aeb 0A       		.byte	0xa
 4459 0aec D204     		.2byte	0x4d2
 4460 0aee 11       		.byte	0x11
 4461 0aef B7000000 		.4byte	0xb7
 4462 0af3 02       		.byte	0x2
 4463 0af4 23       		.byte	0x23
 4464 0af5 0C       		.uleb128 0xc
 4465 0af6 18       		.uleb128 0x18
 4466 0af7 4A020000 		.4byte	.LASF79
 4467 0afb 0A       		.byte	0xa
 4468 0afc D304     		.2byte	0x4d3
 4469 0afe 0D       		.byte	0xd
 4470 0aff AB000000 		.4byte	0xab
 4471 0b03 02       		.byte	0x2
 4472 0b04 23       		.byte	0x23
 4473 0b05 0E       		.uleb128 0xe
 4474 0b06 17       		.uleb128 0x17
 4475 0b07 43523200 		.ascii	"CR2\000"
 4476 0b0b 0A       		.byte	0xa
 4477 0b0c D404     		.2byte	0x4d4
 4478 0b0e 11       		.byte	0x11
 4479 0b0f B7000000 		.4byte	0xb7
 4480 0b13 02       		.byte	0x2
 4481 0b14 23       		.byte	0x23
 4482 0b15 10       		.uleb128 0x10
 4483 0b16 18       		.uleb128 0x18
 4484 0b17 54020000 		.4byte	.LASF81
 4485 0b1b 0A       		.byte	0xa
 4486 0b1c D504     		.2byte	0x4d5
 4487 0b1e 0D       		.byte	0xd
ARM GAS  /tmp/ccaJFhKP.s 			page 100


 4488 0b1f AB000000 		.4byte	0xab
 4489 0b23 02       		.byte	0x2
 4490 0b24 23       		.byte	0x23
 4491 0b25 12       		.uleb128 0x12
 4492 0b26 17       		.uleb128 0x17
 4493 0b27 43523300 		.ascii	"CR3\000"
 4494 0b2b 0A       		.byte	0xa
 4495 0b2c D604     		.2byte	0x4d6
 4496 0b2e 11       		.byte	0x11
 4497 0b2f B7000000 		.4byte	0xb7
 4498 0b33 02       		.byte	0x2
 4499 0b34 23       		.byte	0x23
 4500 0b35 14       		.uleb128 0x14
 4501 0b36 18       		.uleb128 0x18
 4502 0b37 5E020000 		.4byte	.LASF82
 4503 0b3b 0A       		.byte	0xa
 4504 0b3c D704     		.2byte	0x4d7
 4505 0b3e 0D       		.byte	0xd
 4506 0b3f AB000000 		.4byte	0xab
 4507 0b43 02       		.byte	0x2
 4508 0b44 23       		.byte	0x23
 4509 0b45 16       		.uleb128 0x16
 4510 0b46 18       		.uleb128 0x18
 4511 0b47 82000000 		.4byte	.LASF153
 4512 0b4b 0A       		.byte	0xa
 4513 0b4c D804     		.2byte	0x4d8
 4514 0b4e 11       		.byte	0x11
 4515 0b4f B7000000 		.4byte	0xb7
 4516 0b53 02       		.byte	0x2
 4517 0b54 23       		.byte	0x23
 4518 0b55 18       		.uleb128 0x18
 4519 0b56 18       		.uleb128 0x18
 4520 0b57 68020000 		.4byte	.LASF130
 4521 0b5b 0A       		.byte	0xa
 4522 0b5c D904     		.2byte	0x4d9
 4523 0b5e 0D       		.byte	0xd
 4524 0b5f AB000000 		.4byte	0xab
 4525 0b63 02       		.byte	0x2
 4526 0b64 23       		.byte	0x23
 4527 0b65 1A       		.uleb128 0x1a
 4528 0b66 00       		.byte	0
 4529 0b67 0E       		.uleb128 0xe
 4530 0b68 A7030000 		.4byte	.LASF154
 4531 0b6c 0A       		.byte	0xa
 4532 0b6d DA04     		.2byte	0x4da
 4533 0b6f 03       		.byte	0x3
 4534 0b70 7E0A0000 		.4byte	0xa7e
 4535 0b74 19       		.uleb128 0x19
 4536 0b75 07       		.byte	0x7
 4537 0b76 01       		.byte	0x1
 4538 0b77 58000000 		.4byte	0x58
 4539 0b7b 0C       		.byte	0xc
 4540 0b7c 3B       		.byte	0x3b
 4541 0b7d 01       		.byte	0x1
 4542 0b7e 950B0000 		.4byte	0xb95
 4543 0b82 0D       		.uleb128 0xd
 4544 0b83 030B0000 		.4byte	.LASF155
ARM GAS  /tmp/ccaJFhKP.s 			page 101


 4545 0b87 01       		.byte	0x1
 4546 0b88 0D       		.uleb128 0xd
 4547 0b89 93080000 		.4byte	.LASF156
 4548 0b8d 02       		.byte	0x2
 4549 0b8e 0D       		.uleb128 0xd
 4550 0b8f 90030000 		.4byte	.LASF157
 4551 0b93 03       		.byte	0x3
 4552 0b94 00       		.byte	0
 4553 0b95 04       		.uleb128 0x4
 4554 0b96 A3080000 		.4byte	.LASF158
 4555 0b9a 0C       		.byte	0xc
 4556 0b9b 3F       		.byte	0x3f
 4557 0b9c 02       		.byte	0x2
 4558 0b9d 740B0000 		.4byte	0xb74
 4559 0ba1 19       		.uleb128 0x19
 4560 0ba2 07       		.byte	0x7
 4561 0ba3 01       		.byte	0x1
 4562 0ba4 58000000 		.4byte	0x58
 4563 0ba8 0C       		.byte	0xc
 4564 0ba9 48       		.byte	0x48
 4565 0baa 01       		.byte	0x1
 4566 0bab E00B0000 		.4byte	0xbe0
 4567 0baf 0D       		.uleb128 0xd
 4568 0bb0 56010000 		.4byte	.LASF159
 4569 0bb4 00       		.byte	0
 4570 0bb5 0D       		.uleb128 0xd
 4571 0bb6 27090000 		.4byte	.LASF160
 4572 0bba 04       		.byte	0x4
 4573 0bbb 0D       		.uleb128 0xd
 4574 0bbc 310C0000 		.4byte	.LASF161
 4575 0bc0 28       		.byte	0x28
 4576 0bc1 0D       		.uleb128 0xd
 4577 0bc2 28000000 		.4byte	.LASF162
 4578 0bc6 48       		.byte	0x48
 4579 0bc7 0D       		.uleb128 0xd
 4580 0bc8 55030000 		.4byte	.LASF163
 4581 0bcc 14       		.byte	0x14
 4582 0bcd 0D       		.uleb128 0xd
 4583 0bce 78040000 		.4byte	.LASF164
 4584 0bd2 10       		.byte	0x10
 4585 0bd3 0D       		.uleb128 0xd
 4586 0bd4 B5010000 		.4byte	.LASF165
 4587 0bd8 1C       		.byte	0x1c
 4588 0bd9 0D       		.uleb128 0xd
 4589 0bda 90020000 		.4byte	.LASF166
 4590 0bde 18       		.byte	0x18
 4591 0bdf 00       		.byte	0
 4592 0be0 04       		.uleb128 0x4
 4593 0be1 3A080000 		.4byte	.LASF167
 4594 0be5 0C       		.byte	0xc
 4595 0be6 50       		.byte	0x50
 4596 0be7 02       		.byte	0x2
 4597 0be8 A10B0000 		.4byte	0xba1
 4598 0bec 1A       		.uleb128 0x1a
 4599 0bed 04       		.byte	0x4
 4600 0bee 0C       		.byte	0xc
 4601 0bef 5B       		.byte	0x5b
ARM GAS  /tmp/ccaJFhKP.s 			page 102


 4602 0bf0 09       		.byte	0x9
 4603 0bf1 230C0000 		.4byte	0xc23
 4604 0bf5 10       		.uleb128 0x10
 4605 0bf6 C7080000 		.4byte	.LASF168
 4606 0bfa 0C       		.byte	0xc
 4607 0bfb 5D       		.byte	0x5d
 4608 0bfc 0C       		.byte	0xc
 4609 0bfd AB000000 		.4byte	0xab
 4610 0c01 02       		.byte	0x2
 4611 0c02 23       		.byte	0x23
 4612 0c03 00       		.uleb128 0
 4613 0c04 10       		.uleb128 0x10
 4614 0c05 1F010000 		.4byte	.LASF169
 4615 0c09 0C       		.byte	0xc
 4616 0c0a 60       		.byte	0x60
 4617 0c0b 15       		.byte	0x15
 4618 0c0c 950B0000 		.4byte	0xb95
 4619 0c10 02       		.byte	0x2
 4620 0c11 23       		.byte	0x23
 4621 0c12 02       		.uleb128 0x2
 4622 0c13 10       		.uleb128 0x10
 4623 0c14 11080000 		.4byte	.LASF170
 4624 0c18 0C       		.byte	0xc
 4625 0c19 63       		.byte	0x63
 4626 0c1a 14       		.byte	0x14
 4627 0c1b E00B0000 		.4byte	0xbe0
 4628 0c1f 02       		.byte	0x2
 4629 0c20 23       		.byte	0x23
 4630 0c21 03       		.uleb128 0x3
 4631 0c22 00       		.byte	0
 4632 0c23 04       		.uleb128 0x4
 4633 0c24 05020000 		.4byte	.LASF171
 4634 0c28 0C       		.byte	0xc
 4635 0c29 65       		.byte	0x65
 4636 0c2a 02       		.byte	0x2
 4637 0c2b EC0B0000 		.4byte	0xbec
 4638 0c2f 1A       		.uleb128 0x1a
 4639 0c30 10       		.byte	0x10
 4640 0c31 0D       		.byte	0xd
 4641 0c32 32       		.byte	0x32
 4642 0c33 09       		.byte	0x9
 4643 0c34 930C0000 		.4byte	0xc93
 4644 0c38 10       		.uleb128 0x10
 4645 0c39 41040000 		.4byte	.LASF172
 4646 0c3d 0D       		.byte	0xd
 4647 0c3e 34       		.byte	0x34
 4648 0c3f 0C       		.byte	0xc
 4649 0c40 BC000000 		.4byte	0xbc
 4650 0c44 02       		.byte	0x2
 4651 0c45 23       		.byte	0x23
 4652 0c46 00       		.uleb128 0
 4653 0c47 10       		.uleb128 0x10
 4654 0c48 A5020000 		.4byte	.LASF173
 4655 0c4c 0D       		.byte	0xd
 4656 0c4d 39       		.byte	0x39
 4657 0c4e 0C       		.byte	0xc
 4658 0c4f AB000000 		.4byte	0xab
ARM GAS  /tmp/ccaJFhKP.s 			page 103


 4659 0c53 02       		.byte	0x2
 4660 0c54 23       		.byte	0x23
 4661 0c55 04       		.uleb128 0x4
 4662 0c56 10       		.uleb128 0x10
 4663 0c57 74050000 		.4byte	.LASF174
 4664 0c5b 0D       		.byte	0xd
 4665 0c5c 3C       		.byte	0x3c
 4666 0c5d 0C       		.byte	0xc
 4667 0c5e AB000000 		.4byte	0xab
 4668 0c62 02       		.byte	0x2
 4669 0c63 23       		.byte	0x23
 4670 0c64 06       		.uleb128 0x6
 4671 0c65 10       		.uleb128 0x10
 4672 0c66 02030000 		.4byte	.LASF175
 4673 0c6a 0D       		.byte	0xd
 4674 0c6b 3F       		.byte	0x3f
 4675 0c6c 0C       		.byte	0xc
 4676 0c6d AB000000 		.4byte	0xab
 4677 0c71 02       		.byte	0x2
 4678 0c72 23       		.byte	0x23
 4679 0c73 08       		.uleb128 0x8
 4680 0c74 10       		.uleb128 0x10
 4681 0c75 55040000 		.4byte	.LASF176
 4682 0c79 0D       		.byte	0xd
 4683 0c7a 46       		.byte	0x46
 4684 0c7b 0C       		.byte	0xc
 4685 0c7c AB000000 		.4byte	0xab
 4686 0c80 02       		.byte	0x2
 4687 0c81 23       		.byte	0x23
 4688 0c82 0A       		.uleb128 0xa
 4689 0c83 10       		.uleb128 0x10
 4690 0c84 CD0A0000 		.4byte	.LASF177
 4691 0c88 0D       		.byte	0xd
 4692 0c89 49       		.byte	0x49
 4693 0c8a 0C       		.byte	0xc
 4694 0c8b AB000000 		.4byte	0xab
 4695 0c8f 02       		.byte	0x2
 4696 0c90 23       		.byte	0x23
 4697 0c91 0C       		.uleb128 0xc
 4698 0c92 00       		.byte	0
 4699 0c93 04       		.uleb128 0x4
 4700 0c94 5B080000 		.4byte	.LASF178
 4701 0c98 0D       		.byte	0xd
 4702 0c99 4C       		.byte	0x4c
 4703 0c9a 03       		.byte	0x3
 4704 0c9b 2F0C0000 		.4byte	0xc2f
 4705 0c9f 03       		.uleb128 0x3
 4706 0ca0 04       		.byte	0x4
 4707 0ca1 04       		.byte	0x4
 4708 0ca2 4D060000 		.4byte	.LASF179
 4709 0ca6 03       		.uleb128 0x3
 4710 0ca7 08       		.byte	0x8
 4711 0ca8 04       		.byte	0x4
 4712 0ca9 0F060000 		.4byte	.LASF180
 4713 0cad 1B       		.uleb128 0x1b
 4714 0cae B5030000 		.4byte	.LASF181
 4715 0cb2 01       		.byte	0x1
ARM GAS  /tmp/ccaJFhKP.s 			page 104


 4716 0cb3 36       		.byte	0x36
 4717 0cb4 16       		.byte	0x16
 4718 0cb5 EE000000 		.4byte	0xee
 4719 0cb9 05       		.byte	0x5
 4720 0cba 03       		.byte	0x3
 4721 0cbb 08000000 		.4byte	LCD_Show_queue
 4722 0cbf 1B       		.uleb128 0x1b
 4723 0cc0 9B040000 		.4byte	.LASF182
 4724 0cc4 01       		.byte	0x1
 4725 0cc5 37       		.byte	0x37
 4726 0cc6 16       		.byte	0x16
 4727 0cc7 EE000000 		.4byte	0xee
 4728 0ccb 05       		.byte	0x5
 4729 0ccc 03       		.byte	0x3
 4730 0ccd 04000000 		.4byte	IR_Data_queue
 4731 0cd1 1B       		.uleb128 0x1b
 4732 0cd2 D4000000 		.4byte	.LASF183
 4733 0cd6 01       		.byte	0x1
 4734 0cd7 38       		.byte	0x38
 4735 0cd8 16       		.byte	0x16
 4736 0cd9 EE000000 		.4byte	0xee
 4737 0cdd 05       		.byte	0x5
 4738 0cde 03       		.byte	0x3
 4739 0cdf 00000000 		.4byte	PWM_data_queue
 4740 0ce3 1C       		.uleb128 0x1c
 4741 0ce4 01       		.byte	0x1
 4742 0ce5 84010000 		.4byte	.LASF198
 4743 0ce9 01       		.byte	0x1
 4744 0cea 3401     		.2byte	0x134
 4745 0cec 05       		.byte	0x5
 4746 0ced 01       		.byte	0x1
 4747 0cee 29000000 		.4byte	0x29
 4748 0cf2 00000000 		.4byte	.LFB57
 4749 0cf6 CC000000 		.4byte	.LFE57
 4750 0cfa 00000000 		.4byte	.LLST49
 4751 0cfe 01       		.byte	0x1
 4752 0cff C90E0000 		.4byte	0xec9
 4753 0d03 1D       		.uleb128 0x1d
 4754 0d04 0C000000 		.4byte	.LVL151
 4755 0d08 F61A0000 		.4byte	0x1af6
 4756 0d0c 200D0000 		.4byte	0xd20
 4757 0d10 1E       		.uleb128 0x1e
 4758 0d11 01       		.byte	0x1
 4759 0d12 50       		.byte	0x50
 4760 0d13 01       		.byte	0x1
 4761 0d14 32       		.byte	0x32
 4762 0d15 1E       		.uleb128 0x1e
 4763 0d16 01       		.byte	0x1
 4764 0d17 51       		.byte	0x51
 4765 0d18 01       		.byte	0x1
 4766 0d19 34       		.byte	0x34
 4767 0d1a 1E       		.uleb128 0x1e
 4768 0d1b 01       		.byte	0x1
 4769 0d1c 52       		.byte	0x52
 4770 0d1d 01       		.byte	0x1
 4771 0d1e 30       		.byte	0x30
 4772 0d1f 00       		.byte	0
ARM GAS  /tmp/ccaJFhKP.s 			page 105


 4773 0d20 1D       		.uleb128 0x1d
 4774 0d21 1A000000 		.4byte	.LVL152
 4775 0d25 F61A0000 		.4byte	0x1af6
 4776 0d29 3D0D0000 		.4byte	0xd3d
 4777 0d2d 1E       		.uleb128 0x1e
 4778 0d2e 01       		.byte	0x1
 4779 0d2f 50       		.byte	0x50
 4780 0d30 01       		.byte	0x1
 4781 0d31 31       		.byte	0x31
 4782 0d32 1E       		.uleb128 0x1e
 4783 0d33 01       		.byte	0x1
 4784 0d34 51       		.byte	0x51
 4785 0d35 01       		.byte	0x1
 4786 0d36 34       		.byte	0x34
 4787 0d37 1E       		.uleb128 0x1e
 4788 0d38 01       		.byte	0x1
 4789 0d39 52       		.byte	0x52
 4790 0d3a 01       		.byte	0x1
 4791 0d3b 30       		.byte	0x30
 4792 0d3c 00       		.byte	0
 4793 0d3d 1D       		.uleb128 0x1d
 4794 0d3e 26000000 		.4byte	.LVL153
 4795 0d42 F61A0000 		.4byte	0x1af6
 4796 0d46 5A0D0000 		.4byte	0xd5a
 4797 0d4a 1E       		.uleb128 0x1e
 4798 0d4b 01       		.byte	0x1
 4799 0d4c 50       		.byte	0x50
 4800 0d4d 01       		.byte	0x1
 4801 0d4e 31       		.byte	0x31
 4802 0d4f 1E       		.uleb128 0x1e
 4803 0d50 01       		.byte	0x1
 4804 0d51 51       		.byte	0x51
 4805 0d52 01       		.byte	0x1
 4806 0d53 34       		.byte	0x34
 4807 0d54 1E       		.uleb128 0x1e
 4808 0d55 01       		.byte	0x1
 4809 0d56 52       		.byte	0x52
 4810 0d57 01       		.byte	0x1
 4811 0d58 30       		.byte	0x30
 4812 0d59 00       		.byte	0
 4813 0d5a 1F       		.uleb128 0x1f
 4814 0d5b 30000000 		.4byte	.LVL154
 4815 0d5f 1D1A0000 		.4byte	0x1a1d
 4816 0d63 1D       		.uleb128 0x1d
 4817 0d64 40000000 		.4byte	.LVL155
 4818 0d68 051B0000 		.4byte	0x1b05
 4819 0d6c 9D0D0000 		.4byte	0xd9d
 4820 0d70 1E       		.uleb128 0x1e
 4821 0d71 01       		.byte	0x1
 4822 0d72 50       		.byte	0x50
 4823 0d73 05       		.byte	0x5
 4824 0d74 03       		.byte	0x3
 4825 0d75 00000000 		.4byte	task1
 4826 0d79 1E       		.uleb128 0x1e
 4827 0d7a 01       		.byte	0x1
 4828 0d7b 51       		.byte	0x51
 4829 0d7c 05       		.byte	0x5
ARM GAS  /tmp/ccaJFhKP.s 			page 106


 4830 0d7d 03       		.byte	0x3
 4831 0d7e 53000000 		.4byte	.LC7
 4832 0d82 1E       		.uleb128 0x1e
 4833 0d83 01       		.byte	0x1
 4834 0d84 52       		.byte	0x52
 4835 0d85 02       		.byte	0x2
 4836 0d86 08       		.byte	0x8
 4837 0d87 64       		.byte	0x64
 4838 0d88 1E       		.uleb128 0x1e
 4839 0d89 01       		.byte	0x1
 4840 0d8a 53       		.byte	0x53
 4841 0d8b 02       		.byte	0x2
 4842 0d8c 74       		.byte	0x74
 4843 0d8d 00       		.sleb128 0
 4844 0d8e 1E       		.uleb128 0x1e
 4845 0d8f 02       		.byte	0x2
 4846 0d90 7D       		.byte	0x7d
 4847 0d91 00       		.sleb128 0
 4848 0d92 02       		.byte	0x2
 4849 0d93 75       		.byte	0x75
 4850 0d94 00       		.sleb128 0
 4851 0d95 1E       		.uleb128 0x1e
 4852 0d96 02       		.byte	0x2
 4853 0d97 7D       		.byte	0x7d
 4854 0d98 04       		.sleb128 4
 4855 0d99 02       		.byte	0x2
 4856 0d9a 74       		.byte	0x74
 4857 0d9b 00       		.sleb128 0
 4858 0d9c 00       		.byte	0
 4859 0d9d 1D       		.uleb128 0x1d
 4860 0d9e 50000000 		.4byte	.LVL156
 4861 0da2 051B0000 		.4byte	0x1b05
 4862 0da6 D70D0000 		.4byte	0xdd7
 4863 0daa 1E       		.uleb128 0x1e
 4864 0dab 01       		.byte	0x1
 4865 0dac 50       		.byte	0x50
 4866 0dad 05       		.byte	0x5
 4867 0dae 03       		.byte	0x3
 4868 0daf 00000000 		.4byte	task2
 4869 0db3 1E       		.uleb128 0x1e
 4870 0db4 01       		.byte	0x1
 4871 0db5 51       		.byte	0x51
 4872 0db6 05       		.byte	0x5
 4873 0db7 03       		.byte	0x3
 4874 0db8 5C000000 		.4byte	.LC8
 4875 0dbc 1E       		.uleb128 0x1e
 4876 0dbd 01       		.byte	0x1
 4877 0dbe 52       		.byte	0x52
 4878 0dbf 02       		.byte	0x2
 4879 0dc0 08       		.byte	0x8
 4880 0dc1 64       		.byte	0x64
 4881 0dc2 1E       		.uleb128 0x1e
 4882 0dc3 01       		.byte	0x1
 4883 0dc4 53       		.byte	0x53
 4884 0dc5 02       		.byte	0x2
 4885 0dc6 74       		.byte	0x74
 4886 0dc7 00       		.sleb128 0
ARM GAS  /tmp/ccaJFhKP.s 			page 107


 4887 0dc8 1E       		.uleb128 0x1e
 4888 0dc9 02       		.byte	0x2
 4889 0dca 7D       		.byte	0x7d
 4890 0dcb 00       		.sleb128 0
 4891 0dcc 02       		.byte	0x2
 4892 0dcd 75       		.byte	0x75
 4893 0dce 00       		.sleb128 0
 4894 0dcf 1E       		.uleb128 0x1e
 4895 0dd0 02       		.byte	0x2
 4896 0dd1 7D       		.byte	0x7d
 4897 0dd2 04       		.sleb128 4
 4898 0dd3 02       		.byte	0x2
 4899 0dd4 74       		.byte	0x74
 4900 0dd5 00       		.sleb128 0
 4901 0dd6 00       		.byte	0
 4902 0dd7 1D       		.uleb128 0x1d
 4903 0dd8 60000000 		.4byte	.LVL157
 4904 0ddc 051B0000 		.4byte	0x1b05
 4905 0de0 110E0000 		.4byte	0xe11
 4906 0de4 1E       		.uleb128 0x1e
 4907 0de5 01       		.byte	0x1
 4908 0de6 50       		.byte	0x50
 4909 0de7 05       		.byte	0x5
 4910 0de8 03       		.byte	0x3
 4911 0de9 00000000 		.4byte	task3
 4912 0ded 1E       		.uleb128 0x1e
 4913 0dee 01       		.byte	0x1
 4914 0def 51       		.byte	0x51
 4915 0df0 05       		.byte	0x5
 4916 0df1 03       		.byte	0x3
 4917 0df2 63000000 		.4byte	.LC9
 4918 0df6 1E       		.uleb128 0x1e
 4919 0df7 01       		.byte	0x1
 4920 0df8 52       		.byte	0x52
 4921 0df9 02       		.byte	0x2
 4922 0dfa 08       		.byte	0x8
 4923 0dfb 64       		.byte	0x64
 4924 0dfc 1E       		.uleb128 0x1e
 4925 0dfd 01       		.byte	0x1
 4926 0dfe 53       		.byte	0x53
 4927 0dff 02       		.byte	0x2
 4928 0e00 74       		.byte	0x74
 4929 0e01 00       		.sleb128 0
 4930 0e02 1E       		.uleb128 0x1e
 4931 0e03 02       		.byte	0x2
 4932 0e04 7D       		.byte	0x7d
 4933 0e05 00       		.sleb128 0
 4934 0e06 02       		.byte	0x2
 4935 0e07 75       		.byte	0x75
 4936 0e08 00       		.sleb128 0
 4937 0e09 1E       		.uleb128 0x1e
 4938 0e0a 02       		.byte	0x2
 4939 0e0b 7D       		.byte	0x7d
 4940 0e0c 04       		.sleb128 4
 4941 0e0d 02       		.byte	0x2
 4942 0e0e 74       		.byte	0x74
 4943 0e0f 00       		.sleb128 0
ARM GAS  /tmp/ccaJFhKP.s 			page 108


 4944 0e10 00       		.byte	0
 4945 0e11 1D       		.uleb128 0x1d
 4946 0e12 70000000 		.4byte	.LVL158
 4947 0e16 051B0000 		.4byte	0x1b05
 4948 0e1a 4B0E0000 		.4byte	0xe4b
 4949 0e1e 1E       		.uleb128 0x1e
 4950 0e1f 01       		.byte	0x1
 4951 0e20 50       		.byte	0x50
 4952 0e21 05       		.byte	0x5
 4953 0e22 03       		.byte	0x3
 4954 0e23 00000000 		.4byte	task4
 4955 0e27 1E       		.uleb128 0x1e
 4956 0e28 01       		.byte	0x1
 4957 0e29 51       		.byte	0x51
 4958 0e2a 05       		.byte	0x5
 4959 0e2b 03       		.byte	0x3
 4960 0e2c 6D000000 		.4byte	.LC10
 4961 0e30 1E       		.uleb128 0x1e
 4962 0e31 01       		.byte	0x1
 4963 0e32 52       		.byte	0x52
 4964 0e33 02       		.byte	0x2
 4965 0e34 08       		.byte	0x8
 4966 0e35 64       		.byte	0x64
 4967 0e36 1E       		.uleb128 0x1e
 4968 0e37 01       		.byte	0x1
 4969 0e38 53       		.byte	0x53
 4970 0e39 02       		.byte	0x2
 4971 0e3a 74       		.byte	0x74
 4972 0e3b 00       		.sleb128 0
 4973 0e3c 1E       		.uleb128 0x1e
 4974 0e3d 02       		.byte	0x2
 4975 0e3e 7D       		.byte	0x7d
 4976 0e3f 00       		.sleb128 0
 4977 0e40 02       		.byte	0x2
 4978 0e41 75       		.byte	0x75
 4979 0e42 00       		.sleb128 0
 4980 0e43 1E       		.uleb128 0x1e
 4981 0e44 02       		.byte	0x2
 4982 0e45 7D       		.byte	0x7d
 4983 0e46 04       		.sleb128 4
 4984 0e47 02       		.byte	0x2
 4985 0e48 74       		.byte	0x74
 4986 0e49 00       		.sleb128 0
 4987 0e4a 00       		.byte	0
 4988 0e4b 1D       		.uleb128 0x1d
 4989 0e4c 80000000 		.4byte	.LVL159
 4990 0e50 051B0000 		.4byte	0x1b05
 4991 0e54 850E0000 		.4byte	0xe85
 4992 0e58 1E       		.uleb128 0x1e
 4993 0e59 01       		.byte	0x1
 4994 0e5a 50       		.byte	0x50
 4995 0e5b 05       		.byte	0x5
 4996 0e5c 03       		.byte	0x3
 4997 0e5d 00000000 		.4byte	task5
 4998 0e61 1E       		.uleb128 0x1e
 4999 0e62 01       		.byte	0x1
 5000 0e63 51       		.byte	0x51
ARM GAS  /tmp/ccaJFhKP.s 			page 109


 5001 0e64 05       		.byte	0x5
 5002 0e65 03       		.byte	0x3
 5003 0e66 7A000000 		.4byte	.LC11
 5004 0e6a 1E       		.uleb128 0x1e
 5005 0e6b 01       		.byte	0x1
 5006 0e6c 52       		.byte	0x52
 5007 0e6d 02       		.byte	0x2
 5008 0e6e 08       		.byte	0x8
 5009 0e6f 64       		.byte	0x64
 5010 0e70 1E       		.uleb128 0x1e
 5011 0e71 01       		.byte	0x1
 5012 0e72 53       		.byte	0x53
 5013 0e73 02       		.byte	0x2
 5014 0e74 74       		.byte	0x74
 5015 0e75 00       		.sleb128 0
 5016 0e76 1E       		.uleb128 0x1e
 5017 0e77 02       		.byte	0x2
 5018 0e78 7D       		.byte	0x7d
 5019 0e79 00       		.sleb128 0
 5020 0e7a 02       		.byte	0x2
 5021 0e7b 75       		.byte	0x75
 5022 0e7c 00       		.sleb128 0
 5023 0e7d 1E       		.uleb128 0x1e
 5024 0e7e 02       		.byte	0x2
 5025 0e7f 7D       		.byte	0x7d
 5026 0e80 04       		.sleb128 4
 5027 0e81 02       		.byte	0x2
 5028 0e82 74       		.byte	0x74
 5029 0e83 00       		.sleb128 0
 5030 0e84 00       		.byte	0
 5031 0e85 1D       		.uleb128 0x1d
 5032 0e86 90000000 		.4byte	.LVL160
 5033 0e8a 051B0000 		.4byte	0x1b05
 5034 0e8e BF0E0000 		.4byte	0xebf
 5035 0e92 1E       		.uleb128 0x1e
 5036 0e93 01       		.byte	0x1
 5037 0e94 50       		.byte	0x50
 5038 0e95 05       		.byte	0x5
 5039 0e96 03       		.byte	0x3
 5040 0e97 00000000 		.4byte	task6
 5041 0e9b 1E       		.uleb128 0x1e
 5042 0e9c 01       		.byte	0x1
 5043 0e9d 51       		.byte	0x51
 5044 0e9e 05       		.byte	0x5
 5045 0e9f 03       		.byte	0x3
 5046 0ea0 81000000 		.4byte	.LC12
 5047 0ea4 1E       		.uleb128 0x1e
 5048 0ea5 01       		.byte	0x1
 5049 0ea6 52       		.byte	0x52
 5050 0ea7 02       		.byte	0x2
 5051 0ea8 08       		.byte	0x8
 5052 0ea9 64       		.byte	0x64
 5053 0eaa 1E       		.uleb128 0x1e
 5054 0eab 01       		.byte	0x1
 5055 0eac 53       		.byte	0x53
 5056 0ead 02       		.byte	0x2
 5057 0eae 74       		.byte	0x74
ARM GAS  /tmp/ccaJFhKP.s 			page 110


 5058 0eaf 00       		.sleb128 0
 5059 0eb0 1E       		.uleb128 0x1e
 5060 0eb1 02       		.byte	0x2
 5061 0eb2 7D       		.byte	0x7d
 5062 0eb3 00       		.sleb128 0
 5063 0eb4 02       		.byte	0x2
 5064 0eb5 75       		.byte	0x75
 5065 0eb6 00       		.sleb128 0
 5066 0eb7 1E       		.uleb128 0x1e
 5067 0eb8 02       		.byte	0x2
 5068 0eb9 7D       		.byte	0x7d
 5069 0eba 04       		.sleb128 4
 5070 0ebb 02       		.byte	0x2
 5071 0ebc 74       		.byte	0x74
 5072 0ebd 00       		.sleb128 0
 5073 0ebe 00       		.byte	0
 5074 0ebf 1F       		.uleb128 0x1f
 5075 0ec0 94000000 		.4byte	.LVL161
 5076 0ec4 141B0000 		.4byte	0x1b14
 5077 0ec8 00       		.byte	0
 5078 0ec9 20       		.uleb128 0x20
 5079 0eca F9060000 		.4byte	.LASF185
 5080 0ece 01       		.byte	0x1
 5081 0ecf 1901     		.2byte	0x119
 5082 0ed1 0D       		.byte	0xd
 5083 0ed2 01       		.byte	0x1
 5084 0ed3 30000000 		.4byte	.LFB56
 5085 0ed7 8C000000 		.4byte	.LFE56
 5086 0edb 20000000 		.4byte	.LLST2
 5087 0edf 01       		.byte	0x1
 5088 0ee0 340F0000 		.4byte	0xf34
 5089 0ee4 21       		.uleb128 0x21
 5090 0ee5 95050000 		.4byte	.LASF187
 5091 0ee9 01       		.byte	0x1
 5092 0eea 1901     		.2byte	0x119
 5093 0eec 19       		.byte	0x19
 5094 0eed CD000000 		.4byte	0xcd
 5095 0ef1 44000000 		.4byte	.LLST3
 5096 0ef5 40000000 		.4byte	.LVUS3
 5097 0ef9 22       		.uleb128 0x22
 5098 0efa B5050000 		.4byte	.LASF184
 5099 0efe 01       		.byte	0x1
 5100 0eff 1D01     		.2byte	0x11d
 5101 0f01 06       		.byte	0x6
 5102 0f02 AD030000 		.4byte	0x3ad
 5103 0f06 02       		.byte	0x2
 5104 0f07 91       		.byte	0x91
 5105 0f08 64       		.sleb128 -28
 5106 0f09 23       		.uleb128 0x23
 5107 0f0a E9070000 		.4byte	.LASF190
 5108 0f0e 01       		.byte	0x1
 5109 0f0f 1F01     		.2byte	0x11f
 5110 0f11 08       		.byte	0x8
 5111 0f12 BF030000 		.4byte	0x3bf
 5112 0f16 69000000 		.4byte	.LLST4
 5113 0f1a 65000000 		.4byte	.LVUS4
 5114 0f1e 24       		.uleb128 0x24
ARM GAS  /tmp/ccaJFhKP.s 			page 111


 5115 0f1f 54000000 		.4byte	.LVL5
 5116 0f23 231B0000 		.4byte	0x1b23
 5117 0f27 1E       		.uleb128 0x1e
 5118 0f28 01       		.byte	0x1
 5119 0f29 51       		.byte	0x51
 5120 0f2a 02       		.byte	0x2
 5121 0f2b 91       		.byte	0x91
 5122 0f2c 64       		.sleb128 -28
 5123 0f2d 1E       		.uleb128 0x1e
 5124 0f2e 01       		.byte	0x1
 5125 0f2f 52       		.byte	0x52
 5126 0f30 01       		.byte	0x1
 5127 0f31 30       		.byte	0x30
 5128 0f32 00       		.byte	0
 5129 0f33 00       		.byte	0
 5130 0f34 25       		.uleb128 0x25
 5131 0f35 F3060000 		.4byte	.LASF186
 5132 0f39 01       		.byte	0x1
 5133 0f3a EF       		.byte	0xef
 5134 0f3b 0D       		.byte	0xd
 5135 0f3c 01       		.byte	0x1
 5136 0f3d 44060000 		.4byte	.LFB55
 5137 0f41 C4060000 		.4byte	.LFE55
 5138 0f45 87000000 		.4byte	.LLST39
 5139 0f49 01       		.byte	0x1
 5140 0f4a 16100000 		.4byte	0x1016
 5141 0f4e 26       		.uleb128 0x26
 5142 0f4f 95050000 		.4byte	.LASF187
 5143 0f53 01       		.byte	0x1
 5144 0f54 EF       		.byte	0xef
 5145 0f55 19       		.byte	0x19
 5146 0f56 CD000000 		.4byte	0xcd
 5147 0f5a AB000000 		.4byte	.LLST40
 5148 0f5e A7000000 		.4byte	.LVUS40
 5149 0f62 1B       		.uleb128 0x1b
 5150 0f63 BD000000 		.4byte	.LASF188
 5151 0f67 01       		.byte	0x1
 5152 0f68 FE       		.byte	0xfe
 5153 0f69 07       		.byte	0x7
 5154 0f6a 0C010000 		.4byte	0x10c
 5155 0f6e 02       		.byte	0x2
 5156 0f6f 91       		.byte	0x91
 5157 0f70 70       		.sleb128 -16
 5158 0f71 22       		.uleb128 0x22
 5159 0f72 B5050000 		.4byte	.LASF184
 5160 0f76 01       		.byte	0x1
 5161 0f77 0001     		.2byte	0x100
 5162 0f79 06       		.byte	0x6
 5163 0f7a AD030000 		.4byte	0x3ad
 5164 0f7e 02       		.byte	0x2
 5165 0f7f 91       		.byte	0x91
 5166 0f80 6C       		.sleb128 -20
 5167 0f81 1F       		.uleb128 0x1f
 5168 0f82 4A060000 		.4byte	.LVL98
 5169 0f86 21170000 		.4byte	0x1721
 5170 0f8a 1F       		.uleb128 0x1f
 5171 0f8b 4E060000 		.4byte	.LVL99
ARM GAS  /tmp/ccaJFhKP.s 			page 112


 5172 0f8f 3D160000 		.4byte	0x163d
 5173 0f93 1F       		.uleb128 0x1f
 5174 0f94 5E060000 		.4byte	.LVL100
 5175 0f98 54150000 		.4byte	0x1554
 5176 0f9c 1D       		.uleb128 0x1d
 5177 0f9d 6A060000 		.4byte	.LVL101
 5178 0fa1 C7160000 		.4byte	0x16c7
 5179 0fa5 B00F0000 		.4byte	0xfb0
 5180 0fa9 1E       		.uleb128 0x1e
 5181 0faa 01       		.byte	0x1
 5182 0fab 50       		.byte	0x50
 5183 0fac 02       		.byte	0x2
 5184 0fad 76       		.byte	0x76
 5185 0fae 00       		.sleb128 0
 5186 0faf 00       		.byte	0
 5187 0fb0 1D       		.uleb128 0x1d
 5188 0fb1 74060000 		.4byte	.LVL102
 5189 0fb5 321B0000 		.4byte	0x1b32
 5190 0fb9 C90F0000 		.4byte	0xfc9
 5191 0fbd 1E       		.uleb128 0x1e
 5192 0fbe 01       		.byte	0x1
 5193 0fbf 51       		.byte	0x51
 5194 0fc0 02       		.byte	0x2
 5195 0fc1 91       		.byte	0x91
 5196 0fc2 70       		.sleb128 -16
 5197 0fc3 1E       		.uleb128 0x1e
 5198 0fc4 01       		.byte	0x1
 5199 0fc5 52       		.byte	0x52
 5200 0fc6 01       		.byte	0x1
 5201 0fc7 40       		.byte	0x40
 5202 0fc8 00       		.byte	0
 5203 0fc9 1D       		.uleb128 0x1d
 5204 0fca 7A060000 		.4byte	.LVL103
 5205 0fce C7160000 		.4byte	0x16c7
 5206 0fd2 DD0F0000 		.4byte	0xfdd
 5207 0fd6 1E       		.uleb128 0x1e
 5208 0fd7 01       		.byte	0x1
 5209 0fd8 50       		.byte	0x50
 5210 0fd9 02       		.byte	0x2
 5211 0fda 91       		.byte	0x91
 5212 0fdb 70       		.sleb128 -16
 5213 0fdc 00       		.byte	0
 5214 0fdd 1D       		.uleb128 0x1d
 5215 0fde 92060000 		.4byte	.LVL104
 5216 0fe2 401B0000 		.4byte	0x1b40
 5217 0fe6 FB0F0000 		.4byte	0xffb
 5218 0fea 1E       		.uleb128 0x1e
 5219 0feb 01       		.byte	0x1
 5220 0fec 51       		.byte	0x51
 5221 0fed 02       		.byte	0x2
 5222 0fee 91       		.byte	0x91
 5223 0fef 6C       		.sleb128 -20
 5224 0ff0 1E       		.uleb128 0x1e
 5225 0ff1 01       		.byte	0x1
 5226 0ff2 52       		.byte	0x52
 5227 0ff3 01       		.byte	0x1
 5228 0ff4 30       		.byte	0x30
ARM GAS  /tmp/ccaJFhKP.s 			page 113


 5229 0ff5 1E       		.uleb128 0x1e
 5230 0ff6 01       		.byte	0x1
 5231 0ff7 53       		.byte	0x53
 5232 0ff8 01       		.byte	0x1
 5233 0ff9 32       		.byte	0x32
 5234 0ffa 00       		.byte	0
 5235 0ffb 24       		.uleb128 0x24
 5236 0ffc AC060000 		.4byte	.LVL105
 5237 1000 401B0000 		.4byte	0x1b40
 5238 1004 1E       		.uleb128 0x1e
 5239 1005 01       		.byte	0x1
 5240 1006 51       		.byte	0x51
 5241 1007 02       		.byte	0x2
 5242 1008 91       		.byte	0x91
 5243 1009 6C       		.sleb128 -20
 5244 100a 1E       		.uleb128 0x1e
 5245 100b 01       		.byte	0x1
 5246 100c 52       		.byte	0x52
 5247 100d 01       		.byte	0x1
 5248 100e 30       		.byte	0x30
 5249 100f 1E       		.uleb128 0x1e
 5250 1010 01       		.byte	0x1
 5251 1011 53       		.byte	0x53
 5252 1012 01       		.byte	0x1
 5253 1013 32       		.byte	0x32
 5254 1014 00       		.byte	0
 5255 1015 00       		.byte	0
 5256 1016 25       		.uleb128 0x25
 5257 1017 ED060000 		.4byte	.LASF189
 5258 101b 01       		.byte	0x1
 5259 101c C7       		.byte	0xc7
 5260 101d 0D       		.byte	0xd
 5261 101e 01       		.byte	0x1
 5262 101f EC030000 		.4byte	.LFB54
 5263 1023 68040000 		.4byte	.LFE54
 5264 1027 CC000000 		.4byte	.LLST25
 5265 102b 01       		.byte	0x1
 5266 102c F1100000 		.4byte	0x10f1
 5267 1030 26       		.uleb128 0x26
 5268 1031 95050000 		.4byte	.LASF187
 5269 1035 01       		.byte	0x1
 5270 1036 C7       		.byte	0xc7
 5271 1037 19       		.byte	0x19
 5272 1038 CD000000 		.4byte	0xcd
 5273 103c F0000000 		.4byte	.LLST26
 5274 1040 EC000000 		.4byte	.LVUS26
 5275 1044 1B       		.uleb128 0x1b
 5276 1045 B5050000 		.4byte	.LASF184
 5277 1049 01       		.byte	0x1
 5278 104a D6       		.byte	0xd6
 5279 104b 06       		.byte	0x6
 5280 104c AD030000 		.4byte	0x3ad
 5281 1050 02       		.byte	0x2
 5282 1051 91       		.byte	0x91
 5283 1052 64       		.sleb128 -28
 5284 1053 27       		.uleb128 0x27
 5285 1054 24040000 		.4byte	.LBB17
ARM GAS  /tmp/ccaJFhKP.s 			page 114


 5286 1058 3C040000 		.4byte	.LBE17
 5287 105c 97100000 		.4byte	0x1097
 5288 1060 28       		.uleb128 0x28
 5289 1061 6900     		.ascii	"i\000"
 5290 1063 01       		.byte	0x1
 5291 1064 DE       		.byte	0xde
 5292 1065 0E       		.byte	0xe
 5293 1066 AD030000 		.4byte	0x3ad
 5294 106a 17010000 		.4byte	.LLST27
 5295 106e 11010000 		.4byte	.LVUS27
 5296 1072 1D       		.uleb128 0x1d
 5297 1073 30040000 		.4byte	.LVL59
 5298 1077 D8170000 		.4byte	0x17d8
 5299 107b 86100000 		.4byte	0x1086
 5300 107f 1E       		.uleb128 0x1e
 5301 1080 01       		.byte	0x1
 5302 1081 50       		.byte	0x50
 5303 1082 02       		.byte	0x2
 5304 1083 74       		.byte	0x74
 5305 1084 00       		.sleb128 0
 5306 1085 00       		.byte	0
 5307 1086 24       		.uleb128 0x24
 5308 1087 38040000 		.4byte	.LVL61
 5309 108b 4F1B0000 		.4byte	0x1b4f
 5310 108f 1E       		.uleb128 0x1e
 5311 1090 01       		.byte	0x1
 5312 1091 50       		.byte	0x50
 5313 1092 02       		.byte	0x2
 5314 1093 08       		.byte	0x8
 5315 1094 8C       		.byte	0x8c
 5316 1095 00       		.byte	0
 5317 1096 00       		.byte	0
 5318 1097 27       		.uleb128 0x27
 5319 1098 42040000 		.4byte	.LBB18
 5320 109c 68040000 		.4byte	.LBE18
 5321 10a0 DB100000 		.4byte	0x10db
 5322 10a4 28       		.uleb128 0x28
 5323 10a5 6900     		.ascii	"i\000"
 5324 10a7 01       		.byte	0x1
 5325 10a8 E4       		.byte	0xe4
 5326 10a9 0E       		.byte	0xe
 5327 10aa AD030000 		.4byte	0x3ad
 5328 10ae 48010000 		.4byte	.LLST28
 5329 10b2 42010000 		.4byte	.LVUS28
 5330 10b6 1D       		.uleb128 0x1d
 5331 10b7 4C040000 		.4byte	.LVL64
 5332 10bb D8170000 		.4byte	0x17d8
 5333 10bf CA100000 		.4byte	0x10ca
 5334 10c3 1E       		.uleb128 0x1e
 5335 10c4 01       		.byte	0x1
 5336 10c5 50       		.byte	0x50
 5337 10c6 02       		.byte	0x2
 5338 10c7 74       		.byte	0x74
 5339 10c8 00       		.sleb128 0
 5340 10c9 00       		.byte	0
 5341 10ca 24       		.uleb128 0x24
 5342 10cb 52040000 		.4byte	.LVL65
ARM GAS  /tmp/ccaJFhKP.s 			page 115


 5343 10cf 4F1B0000 		.4byte	0x1b4f
 5344 10d3 1E       		.uleb128 0x1e
 5345 10d4 01       		.byte	0x1
 5346 10d5 50       		.byte	0x50
 5347 10d6 02       		.byte	0x2
 5348 10d7 08       		.byte	0x8
 5349 10d8 82       		.byte	0x82
 5350 10d9 00       		.byte	0
 5351 10da 00       		.byte	0
 5352 10db 24       		.uleb128 0x24
 5353 10dc 1A040000 		.4byte	.LVL57
 5354 10e0 231B0000 		.4byte	0x1b23
 5355 10e4 1E       		.uleb128 0x1e
 5356 10e5 01       		.byte	0x1
 5357 10e6 51       		.byte	0x51
 5358 10e7 02       		.byte	0x2
 5359 10e8 91       		.byte	0x91
 5360 10e9 64       		.sleb128 -28
 5361 10ea 1E       		.uleb128 0x1e
 5362 10eb 01       		.byte	0x1
 5363 10ec 52       		.byte	0x52
 5364 10ed 01       		.byte	0x1
 5365 10ee 30       		.byte	0x30
 5366 10ef 00       		.byte	0
 5367 10f0 00       		.byte	0
 5368 10f1 29       		.uleb128 0x29
 5369 10f2 01       		.byte	0x1
 5370 10f3 E7060000 		.4byte	.LASF202
 5371 10f7 01       		.byte	0x1
 5372 10f8 AF       		.byte	0xaf
 5373 10f9 07       		.byte	0x7
 5374 10fa 01       		.byte	0x1
 5375 10fb 70050000 		.4byte	.LFB53
 5376 10ff 9C050000 		.4byte	.LFE53
 5377 1103 73010000 		.4byte	.LLST32
 5378 1107 01       		.byte	0x1
 5379 1108 68110000 		.4byte	0x1168
 5380 110c 26       		.uleb128 0x26
 5381 110d 95050000 		.4byte	.LASF187
 5382 1111 01       		.byte	0x1
 5383 1112 AF       		.byte	0xaf
 5384 1113 13       		.byte	0x13
 5385 1114 CD000000 		.4byte	0xcd
 5386 1118 97010000 		.4byte	.LLST33
 5387 111c 93010000 		.4byte	.LVUS33
 5388 1120 1B       		.uleb128 0x1b
 5389 1121 B9060000 		.4byte	.LASF191
 5390 1125 01       		.byte	0x1
 5391 1126 BB       		.byte	0xbb
 5392 1127 06       		.byte	0x6
 5393 1128 AD030000 		.4byte	0x3ad
 5394 112c 02       		.byte	0x2
 5395 112d 91       		.byte	0x91
 5396 112e 74       		.sleb128 -12
 5397 112f 1F       		.uleb128 0x1f
 5398 1130 76050000 		.4byte	.LVL79
 5399 1134 B2160000 		.4byte	0x16b2
ARM GAS  /tmp/ccaJFhKP.s 			page 116


 5400 1138 1D       		.uleb128 0x1d
 5401 1139 8A050000 		.4byte	.LVL81
 5402 113d 401B0000 		.4byte	0x1b40
 5403 1141 56110000 		.4byte	0x1156
 5404 1145 1E       		.uleb128 0x1e
 5405 1146 01       		.byte	0x1
 5406 1147 51       		.byte	0x51
 5407 1148 02       		.byte	0x2
 5408 1149 91       		.byte	0x91
 5409 114a 74       		.sleb128 -12
 5410 114b 1E       		.uleb128 0x1e
 5411 114c 01       		.byte	0x1
 5412 114d 52       		.byte	0x52
 5413 114e 01       		.byte	0x1
 5414 114f 30       		.byte	0x30
 5415 1150 1E       		.uleb128 0x1e
 5416 1151 01       		.byte	0x1
 5417 1152 53       		.byte	0x53
 5418 1153 01       		.byte	0x1
 5419 1154 30       		.byte	0x30
 5420 1155 00       		.byte	0
 5421 1156 24       		.uleb128 0x24
 5422 1157 92050000 		.4byte	.LVL82
 5423 115b 4F1B0000 		.4byte	0x1b4f
 5424 115f 1E       		.uleb128 0x1e
 5425 1160 01       		.byte	0x1
 5426 1161 50       		.byte	0x50
 5427 1162 03       		.byte	0x3
 5428 1163 0A       		.byte	0xa
 5429 1164 50C3     		.2byte	0xc350
 5430 1166 00       		.byte	0
 5431 1167 00       		.byte	0
 5432 1168 25       		.uleb128 0x25
 5433 1169 E1060000 		.4byte	.LASF192
 5434 116d 01       		.byte	0x1
 5435 116e A4       		.byte	0xa4
 5436 116f 0D       		.byte	0xd
 5437 1170 01       		.byte	0x1
 5438 1171 00000000 		.4byte	.LFB52
 5439 1175 30000000 		.4byte	.LFE52
 5440 1179 B8010000 		.4byte	.LLST0
 5441 117d 01       		.byte	0x1
 5442 117e A8110000 		.4byte	0x11a8
 5443 1182 26       		.uleb128 0x26
 5444 1183 95050000 		.4byte	.LASF187
 5445 1187 01       		.byte	0x1
 5446 1188 A4       		.byte	0xa4
 5447 1189 19       		.byte	0x19
 5448 118a CD000000 		.4byte	0xcd
 5449 118e DC010000 		.4byte	.LLST1
 5450 1192 D8010000 		.4byte	.LVUS1
 5451 1196 24       		.uleb128 0x24
 5452 1197 26000000 		.4byte	.LVL2
 5453 119b 4F1B0000 		.4byte	0x1b4f
 5454 119f 1E       		.uleb128 0x1e
 5455 11a0 01       		.byte	0x1
 5456 11a1 50       		.byte	0x50
ARM GAS  /tmp/ccaJFhKP.s 			page 117


 5457 11a2 03       		.byte	0x3
 5458 11a3 0A       		.byte	0xa
 5459 11a4 8813     		.2byte	0x1388
 5460 11a6 00       		.byte	0
 5461 11a7 00       		.byte	0
 5462 11a8 25       		.uleb128 0x25
 5463 11a9 DB060000 		.4byte	.LASF193
 5464 11ad 01       		.byte	0x1
 5465 11ae 52       		.byte	0x52
 5466 11af 0D       		.byte	0xd
 5467 11b0 01       		.byte	0x1
 5468 11b1 88070000 		.4byte	.LFB51
 5469 11b5 F8080000 		.4byte	.LFE51
 5470 11b9 FD010000 		.4byte	.LLST43
 5471 11bd 01       		.byte	0x1
 5472 11be 3C140000 		.4byte	0x143c
 5473 11c2 26       		.uleb128 0x26
 5474 11c3 95050000 		.4byte	.LASF187
 5475 11c7 01       		.byte	0x1
 5476 11c8 52       		.byte	0x52
 5477 11c9 19       		.byte	0x19
 5478 11ca CD000000 		.4byte	0xcd
 5479 11ce 2E020000 		.4byte	.LLST44
 5480 11d2 2A020000 		.4byte	.LVUS44
 5481 11d6 1B       		.uleb128 0x1b
 5482 11d7 9D0A0000 		.4byte	.LASF194
 5483 11db 01       		.byte	0x1
 5484 11dc 60       		.byte	0x60
 5485 11dd 06       		.byte	0x6
 5486 11de 29000000 		.4byte	0x29
 5487 11e2 02       		.byte	0x2
 5488 11e3 91       		.byte	0x91
 5489 11e4 40       		.sleb128 -64
 5490 11e5 2A       		.uleb128 0x2a
 5491 11e6 2C0C0000 		.4byte	.LASF195
 5492 11ea 01       		.byte	0x1
 5493 11eb 60       		.byte	0x60
 5494 11ec 13       		.byte	0x13
 5495 11ed 29000000 		.4byte	0x29
 5496 11f1 53020000 		.4byte	.LLST45
 5497 11f5 4F020000 		.4byte	.LVUS45
 5498 11f9 1B       		.uleb128 0x1b
 5499 11fa 370A0000 		.4byte	.LASF196
 5500 11fe 01       		.byte	0x1
 5501 11ff 62       		.byte	0x62
 5502 1200 07       		.byte	0x7
 5503 1201 3C140000 		.4byte	0x143c
 5504 1205 02       		.byte	0x2
 5505 1206 91       		.byte	0x91
 5506 1207 48       		.sleb128 -56
 5507 1208 2A       		.uleb128 0x2a
 5508 1209 6C090000 		.4byte	.LASF197
 5509 120d 01       		.byte	0x1
 5510 120e 63       		.byte	0x63
 5511 120f 05       		.byte	0x5
 5512 1210 CC030000 		.4byte	0x3cc
 5513 1214 7C020000 		.4byte	.LLST46
ARM GAS  /tmp/ccaJFhKP.s 			page 118


 5514 1218 72020000 		.4byte	.LVUS46
 5515 121c 28       		.uleb128 0x28
 5516 121d 524400   		.ascii	"RD\000"
 5517 1220 01       		.byte	0x1
 5518 1221 67       		.byte	0x67
 5519 1222 05       		.byte	0x5
 5520 1223 CC030000 		.4byte	0x3cc
 5521 1227 C3020000 		.4byte	.LLST47
 5522 122b BD020000 		.4byte	.LVUS47
 5523 122f 1B       		.uleb128 0x1b
 5524 1230 B5050000 		.4byte	.LASF184
 5525 1234 01       		.byte	0x1
 5526 1235 68       		.byte	0x68
 5527 1236 06       		.byte	0x6
 5528 1237 AD030000 		.4byte	0x3ad
 5529 123b 02       		.byte	0x2
 5530 123c 91       		.byte	0x91
 5531 123d 44       		.sleb128 -60
 5532 123e 1B       		.uleb128 0x1b
 5533 123f BD000000 		.4byte	.LASF188
 5534 1243 01       		.byte	0x1
 5535 1244 69       		.byte	0x69
 5536 1245 07       		.byte	0x7
 5537 1246 0C010000 		.4byte	0x10c
 5538 124a 02       		.byte	0x2
 5539 124b 91       		.byte	0x91
 5540 124c 50       		.sleb128 -48
 5541 124d 2B       		.uleb128 0x2b
 5542 124e 88000000 		.4byte	.Ldebug_ranges0+0x88
 5543 1252 BD120000 		.4byte	0x12bd
 5544 1256 28       		.uleb128 0x28
 5545 1257 6900     		.ascii	"i\000"
 5546 1259 01       		.byte	0x1
 5547 125a 95       		.byte	0x95
 5548 125b 0C       		.byte	0xc
 5549 125c CC030000 		.4byte	0x3cc
 5550 1260 F3020000 		.4byte	.LLST48
 5551 1264 ED020000 		.4byte	.LVUS48
 5552 1268 1D       		.uleb128 0x1d
 5553 1269 78080000 		.4byte	.LVL144
 5554 126d 4F1B0000 		.4byte	0x1b4f
 5555 1271 7D120000 		.4byte	0x127d
 5556 1275 1E       		.uleb128 0x1e
 5557 1276 01       		.byte	0x1
 5558 1277 50       		.byte	0x50
 5559 1278 03       		.byte	0x3
 5560 1279 0A       		.byte	0xa
 5561 127a E803     		.2byte	0x3e8
 5562 127c 00       		.byte	0
 5563 127d 1D       		.uleb128 0x1d
 5564 127e 82080000 		.4byte	.LVL145
 5565 1282 5E1B0000 		.4byte	0x1b5e
 5566 1286 9C120000 		.4byte	0x129c
 5567 128a 1E       		.uleb128 0x1e
 5568 128b 01       		.byte	0x1
 5569 128c 50       		.byte	0x50
 5570 128d 02       		.byte	0x2
ARM GAS  /tmp/ccaJFhKP.s 			page 119


 5571 128e 7B       		.byte	0x7b
 5572 128f 00       		.sleb128 0
 5573 1290 1E       		.uleb128 0x1e
 5574 1291 01       		.byte	0x1
 5575 1292 51       		.byte	0x51
 5576 1293 01       		.byte	0x1
 5577 1294 30       		.byte	0x30
 5578 1295 1E       		.uleb128 0x1e
 5579 1296 01       		.byte	0x1
 5580 1297 52       		.byte	0x52
 5581 1298 02       		.byte	0x2
 5582 1299 7A       		.byte	0x7a
 5583 129a 00       		.sleb128 0
 5584 129b 00       		.byte	0
 5585 129c 24       		.uleb128 0x24
 5586 129d 90080000 		.4byte	.LVL146
 5587 12a1 5E1B0000 		.4byte	0x1b5e
 5588 12a5 1E       		.uleb128 0x1e
 5589 12a6 01       		.byte	0x1
 5590 12a7 50       		.byte	0x50
 5591 12a8 05       		.byte	0x5
 5592 12a9 03       		.byte	0x3
 5593 12aa 31000000 		.4byte	.LC4
 5594 12ae 1E       		.uleb128 0x1e
 5595 12af 01       		.byte	0x1
 5596 12b0 51       		.byte	0x51
 5597 12b1 01       		.byte	0x1
 5598 12b2 31       		.byte	0x31
 5599 12b3 1E       		.uleb128 0x1e
 5600 12b4 01       		.byte	0x1
 5601 12b5 52       		.byte	0x52
 5602 12b6 04       		.byte	0x4
 5603 12b7 3F       		.byte	0x3f
 5604 12b8 7A       		.byte	0x7a
 5605 12b9 00       		.sleb128 0
 5606 12ba 1C       		.byte	0x1c
 5607 12bb 00       		.byte	0
 5608 12bc 00       		.byte	0
 5609 12bd 1F       		.uleb128 0x1f
 5610 12be A0070000 		.4byte	.LVL117
 5611 12c2 4C140000 		.4byte	0x144c
 5612 12c6 1D       		.uleb128 0x1d
 5613 12c7 C8070000 		.4byte	.LVL119
 5614 12cb 231B0000 		.4byte	0x1b23
 5615 12cf E0120000 		.4byte	0x12e0
 5616 12d3 1E       		.uleb128 0x1e
 5617 12d4 01       		.byte	0x1
 5618 12d5 51       		.byte	0x51
 5619 12d6 02       		.byte	0x2
 5620 12d7 91       		.byte	0x91
 5621 12d8 40       		.sleb128 -64
 5622 12d9 1E       		.uleb128 0x1e
 5623 12da 01       		.byte	0x1
 5624 12db 52       		.byte	0x52
 5625 12dc 02       		.byte	0x2
 5626 12dd 08       		.byte	0x8
 5627 12de 64       		.byte	0x64
ARM GAS  /tmp/ccaJFhKP.s 			page 120


 5628 12df 00       		.byte	0
 5629 12e0 1D       		.uleb128 0x1d
 5630 12e1 DC070000 		.4byte	.LVL121
 5631 12e5 6C1B0000 		.4byte	0x1b6c
 5632 12e9 F9120000 		.4byte	0x12f9
 5633 12ed 1E       		.uleb128 0x1e
 5634 12ee 01       		.byte	0x1
 5635 12ef 51       		.byte	0x51
 5636 12f0 02       		.byte	0x2
 5637 12f1 91       		.byte	0x91
 5638 12f2 44       		.sleb128 -60
 5639 12f3 1E       		.uleb128 0x1e
 5640 12f4 01       		.byte	0x1
 5641 12f5 52       		.byte	0x52
 5642 12f6 01       		.byte	0x1
 5643 12f7 30       		.byte	0x30
 5644 12f8 00       		.byte	0
 5645 12f9 1D       		.uleb128 0x1d
 5646 12fa E8070000 		.4byte	.LVL122
 5647 12fe 321B0000 		.4byte	0x1b32
 5648 1302 12130000 		.4byte	0x1312
 5649 1306 1E       		.uleb128 0x1e
 5650 1307 01       		.byte	0x1
 5651 1308 51       		.byte	0x51
 5652 1309 02       		.byte	0x2
 5653 130a 91       		.byte	0x91
 5654 130b 50       		.sleb128 -48
 5655 130c 1E       		.uleb128 0x1e
 5656 130d 01       		.byte	0x1
 5657 130e 52       		.byte	0x52
 5658 130f 01       		.byte	0x1
 5659 1310 40       		.byte	0x40
 5660 1311 00       		.byte	0
 5661 1312 1F       		.uleb128 0x1f
 5662 1313 F0070000 		.4byte	.LVL124
 5663 1317 7B1B0000 		.4byte	0x1b7b
 5664 131b 1F       		.uleb128 0x1f
 5665 131c 12080000 		.4byte	.LVL130
 5666 1320 7B1B0000 		.4byte	0x1b7b
 5667 1324 1D       		.uleb128 0x1d
 5668 1325 1C080000 		.4byte	.LVL131
 5669 1329 5E1B0000 		.4byte	0x1b5e
 5670 132d 45130000 		.4byte	0x1345
 5671 1331 1E       		.uleb128 0x1e
 5672 1332 01       		.byte	0x1
 5673 1333 50       		.byte	0x50
 5674 1334 05       		.byte	0x5
 5675 1335 03       		.byte	0x3
 5676 1336 33000000 		.4byte	.LC5
 5677 133a 1E       		.uleb128 0x1e
 5678 133b 01       		.byte	0x1
 5679 133c 51       		.byte	0x51
 5680 133d 01       		.byte	0x1
 5681 133e 30       		.byte	0x30
 5682 133f 1E       		.uleb128 0x1e
 5683 1340 01       		.byte	0x1
 5684 1341 52       		.byte	0x52
ARM GAS  /tmp/ccaJFhKP.s 			page 121


 5685 1342 01       		.byte	0x1
 5686 1343 30       		.byte	0x30
 5687 1344 00       		.byte	0
 5688 1345 1F       		.uleb128 0x1f
 5689 1346 22080000 		.4byte	.LVL132
 5690 134a 891B0000 		.4byte	0x1b89
 5691 134e 1F       		.uleb128 0x1f
 5692 134f 26080000 		.4byte	.LVL133
 5693 1353 941B0000 		.4byte	0x1b94
 5694 1357 1F       		.uleb128 0x1f
 5695 1358 2E080000 		.4byte	.LVL134
 5696 135c 9F1B0000 		.4byte	0x1b9f
 5697 1360 1F       		.uleb128 0x1f
 5698 1361 32080000 		.4byte	.LVL135
 5699 1365 AA1B0000 		.4byte	0x1baa
 5700 1369 1D       		.uleb128 0x1d
 5701 136a 3A080000 		.4byte	.LVL136
 5702 136e 55180000 		.4byte	0x1855
 5703 1372 82130000 		.4byte	0x1382
 5704 1376 1E       		.uleb128 0x1e
 5705 1377 01       		.byte	0x1
 5706 1378 51       		.byte	0x51
 5707 1379 02       		.byte	0x2
 5708 137a 91       		.byte	0x91
 5709 137b 48       		.sleb128 -56
 5710 137c 1E       		.uleb128 0x1e
 5711 137d 01       		.byte	0x1
 5712 137e 52       		.byte	0x52
 5713 137f 01       		.byte	0x1
 5714 1380 32       		.byte	0x32
 5715 1381 00       		.byte	0
 5716 1382 1D       		.uleb128 0x1d
 5717 1383 44080000 		.4byte	.LVL137
 5718 1387 5E1B0000 		.4byte	0x1b5e
 5719 138b A0130000 		.4byte	0x13a0
 5720 138f 1E       		.uleb128 0x1e
 5721 1390 01       		.byte	0x1
 5722 1391 50       		.byte	0x50
 5723 1392 02       		.byte	0x2
 5724 1393 91       		.byte	0x91
 5725 1394 48       		.sleb128 -56
 5726 1395 1E       		.uleb128 0x1e
 5727 1396 01       		.byte	0x1
 5728 1397 51       		.byte	0x51
 5729 1398 01       		.byte	0x1
 5730 1399 31       		.byte	0x31
 5731 139a 1E       		.uleb128 0x1e
 5732 139b 01       		.byte	0x1
 5733 139c 52       		.byte	0x52
 5734 139d 01       		.byte	0x1
 5735 139e 36       		.byte	0x36
 5736 139f 00       		.byte	0
 5737 13a0 1F       		.uleb128 0x1f
 5738 13a1 4C080000 		.4byte	.LVL139
 5739 13a5 7B1B0000 		.4byte	0x1b7b
 5740 13a9 1D       		.uleb128 0x1d
 5741 13aa 5A080000 		.4byte	.LVL140
ARM GAS  /tmp/ccaJFhKP.s 			page 122


 5742 13ae 5E1B0000 		.4byte	0x1b5e
 5743 13b2 CA130000 		.4byte	0x13ca
 5744 13b6 1E       		.uleb128 0x1e
 5745 13b7 01       		.byte	0x1
 5746 13b8 50       		.byte	0x50
 5747 13b9 05       		.byte	0x5
 5748 13ba 03       		.byte	0x3
 5749 13bb 0D000000 		.4byte	.LC1
 5750 13bf 1E       		.uleb128 0x1e
 5751 13c0 01       		.byte	0x1
 5752 13c1 51       		.byte	0x51
 5753 13c2 01       		.byte	0x1
 5754 13c3 30       		.byte	0x30
 5755 13c4 1E       		.uleb128 0x1e
 5756 13c5 01       		.byte	0x1
 5757 13c6 52       		.byte	0x52
 5758 13c7 01       		.byte	0x1
 5759 13c8 30       		.byte	0x30
 5760 13c9 00       		.byte	0
 5761 13ca 1D       		.uleb128 0x1d
 5762 13cb 64080000 		.4byte	.LVL141
 5763 13cf 5E1B0000 		.4byte	0x1b5e
 5764 13d3 EB130000 		.4byte	0x13eb
 5765 13d7 1E       		.uleb128 0x1e
 5766 13d8 01       		.byte	0x1
 5767 13d9 50       		.byte	0x50
 5768 13da 05       		.byte	0x5
 5769 13db 03       		.byte	0x3
 5770 13dc 1E000000 		.4byte	.LC2
 5771 13e0 1E       		.uleb128 0x1e
 5772 13e1 01       		.byte	0x1
 5773 13e2 51       		.byte	0x51
 5774 13e3 01       		.byte	0x1
 5775 13e4 31       		.byte	0x31
 5776 13e5 1E       		.uleb128 0x1e
 5777 13e6 01       		.byte	0x1
 5778 13e7 52       		.byte	0x52
 5779 13e8 01       		.byte	0x1
 5780 13e9 30       		.byte	0x30
 5781 13ea 00       		.byte	0
 5782 13eb 1D       		.uleb128 0x1d
 5783 13ec AE080000 		.4byte	.LVL148
 5784 13f0 5E1B0000 		.4byte	0x1b5e
 5785 13f4 0C140000 		.4byte	0x140c
 5786 13f8 1E       		.uleb128 0x1e
 5787 13f9 01       		.byte	0x1
 5788 13fa 50       		.byte	0x50
 5789 13fb 05       		.byte	0x5
 5790 13fc 03       		.byte	0x3
 5791 13fd 43000000 		.4byte	.LC6
 5792 1401 1E       		.uleb128 0x1e
 5793 1402 01       		.byte	0x1
 5794 1403 51       		.byte	0x51
 5795 1404 01       		.byte	0x1
 5796 1405 30       		.byte	0x30
 5797 1406 1E       		.uleb128 0x1e
 5798 1407 01       		.byte	0x1
ARM GAS  /tmp/ccaJFhKP.s 			page 123


 5799 1408 52       		.byte	0x52
 5800 1409 01       		.byte	0x1
 5801 140a 30       		.byte	0x30
 5802 140b 00       		.byte	0
 5803 140c 1D       		.uleb128 0x1d
 5804 140d B8080000 		.4byte	.LVL149
 5805 1411 5E1B0000 		.4byte	0x1b5e
 5806 1415 2A140000 		.4byte	0x142a
 5807 1419 1E       		.uleb128 0x1e
 5808 141a 01       		.byte	0x1
 5809 141b 50       		.byte	0x50
 5810 141c 02       		.byte	0x2
 5811 141d 91       		.byte	0x91
 5812 141e 50       		.sleb128 -48
 5813 141f 1E       		.uleb128 0x1e
 5814 1420 01       		.byte	0x1
 5815 1421 51       		.byte	0x51
 5816 1422 01       		.byte	0x1
 5817 1423 31       		.byte	0x31
 5818 1424 1E       		.uleb128 0x1e
 5819 1425 01       		.byte	0x1
 5820 1426 52       		.byte	0x52
 5821 1427 01       		.byte	0x1
 5822 1428 34       		.byte	0x34
 5823 1429 00       		.byte	0
 5824 142a 24       		.uleb128 0x24
 5825 142b C0080000 		.4byte	.LVL150
 5826 142f 4F1B0000 		.4byte	0x1b4f
 5827 1433 1E       		.uleb128 0x1e
 5828 1434 01       		.byte	0x1
 5829 1435 50       		.byte	0x50
 5830 1436 03       		.byte	0x3
 5831 1437 0A       		.byte	0xa
 5832 1438 1027     		.2byte	0x2710
 5833 143a 00       		.byte	0
 5834 143b 00       		.byte	0
 5835 143c 09       		.uleb128 0x9
 5836 143d E7000000 		.4byte	0xe7
 5837 1441 4C140000 		.4byte	0x144c
 5838 1445 0A       		.uleb128 0xa
 5839 1446 30000000 		.4byte	0x30
 5840 144a 05       		.byte	0x5
 5841 144b 00       		.byte	0
 5842 144c 2C       		.uleb128 0x2c
 5843 144d 01       		.byte	0x1
 5844 144e 67050000 		.4byte	.LASF259
 5845 1452 01       		.byte	0x1
 5846 1453 3A       		.byte	0x3a
 5847 1454 06       		.byte	0x6
 5848 1455 C4060000 		.4byte	.LFB50
 5849 1459 88070000 		.4byte	.LFE50
 5850 145d 24030000 		.4byte	.LLST41
 5851 1461 01       		.byte	0x1
 5852 1462 54150000 		.4byte	0x1554
 5853 1466 2B       		.uleb128 0x2b
 5854 1467 68000000 		.4byte	.Ldebug_ranges0+0x68
 5855 146b D3140000 		.4byte	0x14d3
ARM GAS  /tmp/ccaJFhKP.s 			page 124


 5856 146f 28       		.uleb128 0x28
 5857 1470 6900     		.ascii	"i\000"
 5858 1472 01       		.byte	0x1
 5859 1473 49       		.byte	0x49
 5860 1474 0A       		.byte	0xa
 5861 1475 CC030000 		.4byte	0x3cc
 5862 1479 54030000 		.4byte	.LLST42
 5863 147d 50030000 		.4byte	.LVUS42
 5864 1481 1D       		.uleb128 0x1d
 5865 1482 3C070000 		.4byte	.LVL111
 5866 1486 4F1B0000 		.4byte	0x1b4f
 5867 148a 96140000 		.4byte	0x1496
 5868 148e 1E       		.uleb128 0x1e
 5869 148f 01       		.byte	0x1
 5870 1490 50       		.byte	0x50
 5871 1491 03       		.byte	0x3
 5872 1492 0A       		.byte	0xa
 5873 1493 DC05     		.2byte	0x5dc
 5874 1495 00       		.byte	0
 5875 1496 1D       		.uleb128 0x1d
 5876 1497 46070000 		.4byte	.LVL112
 5877 149b 5E1B0000 		.4byte	0x1b5e
 5878 149f B5140000 		.4byte	0x14b5
 5879 14a3 1E       		.uleb128 0x1e
 5880 14a4 01       		.byte	0x1
 5881 14a5 50       		.byte	0x50
 5882 14a6 02       		.byte	0x2
 5883 14a7 77       		.byte	0x77
 5884 14a8 00       		.sleb128 0
 5885 14a9 1E       		.uleb128 0x1e
 5886 14aa 01       		.byte	0x1
 5887 14ab 51       		.byte	0x51
 5888 14ac 01       		.byte	0x1
 5889 14ad 30       		.byte	0x30
 5890 14ae 1E       		.uleb128 0x1e
 5891 14af 01       		.byte	0x1
 5892 14b0 52       		.byte	0x52
 5893 14b1 02       		.byte	0x2
 5894 14b2 75       		.byte	0x75
 5895 14b3 00       		.sleb128 0
 5896 14b4 00       		.byte	0
 5897 14b5 24       		.uleb128 0x24
 5898 14b6 56070000 		.4byte	.LVL113
 5899 14ba 5E1B0000 		.4byte	0x1b5e
 5900 14be 1E       		.uleb128 0x1e
 5901 14bf 01       		.byte	0x1
 5902 14c0 50       		.byte	0x50
 5903 14c1 02       		.byte	0x2
 5904 14c2 76       		.byte	0x76
 5905 14c3 00       		.sleb128 0
 5906 14c4 1E       		.uleb128 0x1e
 5907 14c5 01       		.byte	0x1
 5908 14c6 51       		.byte	0x51
 5909 14c7 01       		.byte	0x1
 5910 14c8 31       		.byte	0x31
 5911 14c9 1E       		.uleb128 0x1e
 5912 14ca 01       		.byte	0x1
ARM GAS  /tmp/ccaJFhKP.s 			page 125


 5913 14cb 52       		.byte	0x52
 5914 14cc 04       		.byte	0x4
 5915 14cd 40       		.byte	0x40
 5916 14ce 75       		.byte	0x75
 5917 14cf 00       		.sleb128 0
 5918 14d0 1C       		.byte	0x1c
 5919 14d1 00       		.byte	0
 5920 14d2 00       		.byte	0
 5921 14d3 1F       		.uleb128 0x1f
 5922 14d4 18070000 		.4byte	.LVL106
 5923 14d8 B51B0000 		.4byte	0x1bb5
 5924 14dc 1D       		.uleb128 0x1d
 5925 14dd 1E070000 		.4byte	.LVL107
 5926 14e1 C31B0000 		.4byte	0x1bc3
 5927 14e5 EF140000 		.4byte	0x14ef
 5928 14e9 1E       		.uleb128 0x1e
 5929 14ea 01       		.byte	0x1
 5930 14eb 50       		.byte	0x50
 5931 14ec 01       		.byte	0x1
 5932 14ed 3C       		.byte	0x3c
 5933 14ee 00       		.byte	0
 5934 14ef 1D       		.uleb128 0x1d
 5935 14f0 28070000 		.4byte	.LVL108
 5936 14f4 5E1B0000 		.4byte	0x1b5e
 5937 14f8 12150000 		.4byte	0x1512
 5938 14fc 1E       		.uleb128 0x1e
 5939 14fd 01       		.byte	0x1
 5940 14fe 50       		.byte	0x50
 5941 14ff 05       		.byte	0x5
 5942 1500 03       		.byte	0x3
 5943 1501 0D000000 		.4byte	.LC1
 5944 1505 1E       		.uleb128 0x1e
 5945 1506 01       		.byte	0x1
 5946 1507 51       		.byte	0x51
 5947 1508 02       		.byte	0x2
 5948 1509 74       		.byte	0x74
 5949 150a 00       		.sleb128 0
 5950 150b 1E       		.uleb128 0x1e
 5951 150c 01       		.byte	0x1
 5952 150d 52       		.byte	0x52
 5953 150e 02       		.byte	0x2
 5954 150f 74       		.byte	0x74
 5955 1510 00       		.sleb128 0
 5956 1511 00       		.byte	0
 5957 1512 1D       		.uleb128 0x1d
 5958 1513 32070000 		.4byte	.LVL109
 5959 1517 5E1B0000 		.4byte	0x1b5e
 5960 151b 34150000 		.4byte	0x1534
 5961 151f 1E       		.uleb128 0x1e
 5962 1520 01       		.byte	0x1
 5963 1521 50       		.byte	0x50
 5964 1522 05       		.byte	0x5
 5965 1523 03       		.byte	0x3
 5966 1524 1E000000 		.4byte	.LC2
 5967 1528 1E       		.uleb128 0x1e
 5968 1529 01       		.byte	0x1
 5969 152a 51       		.byte	0x51
ARM GAS  /tmp/ccaJFhKP.s 			page 126


 5970 152b 01       		.byte	0x1
 5971 152c 31       		.byte	0x31
 5972 152d 1E       		.uleb128 0x1e
 5973 152e 01       		.byte	0x1
 5974 152f 52       		.byte	0x52
 5975 1530 02       		.byte	0x2
 5976 1531 74       		.byte	0x74
 5977 1532 00       		.sleb128 0
 5978 1533 00       		.byte	0
 5979 1534 1D       		.uleb128 0x1d
 5980 1535 62070000 		.4byte	.LVL114
 5981 1539 4F1B0000 		.4byte	0x1b4f
 5982 153d 49150000 		.4byte	0x1549
 5983 1541 1E       		.uleb128 0x1e
 5984 1542 01       		.byte	0x1
 5985 1543 50       		.byte	0x50
 5986 1544 03       		.byte	0x3
 5987 1545 0A       		.byte	0xa
 5988 1546 DC05     		.2byte	0x5dc
 5989 1548 00       		.byte	0
 5990 1549 2D       		.uleb128 0x2d
 5991 154a 6A070000 		.4byte	.LVL115
 5992 154e 01       		.byte	0x1
 5993 154f 7B1B0000 		.4byte	0x1b7b
 5994 1553 00       		.byte	0
 5995 1554 2E       		.uleb128 0x2e
 5996 1555 01       		.byte	0x1
 5997 1556 900A0000 		.4byte	.LASF199
 5998 155a 05       		.byte	0x5
 5999 155b 15       		.byte	0x15
 6000 155c 0A       		.byte	0xa
 6001 155d 01       		.byte	0x1
 6002 155e BC000000 		.4byte	0xbc
 6003 1562 E4050000 		.4byte	.LFB49
 6004 1566 44060000 		.4byte	.LFE49
 6005 156a 73030000 		.4byte	.LLST35
 6006 156e 01       		.byte	0x1
 6007 156f 3D160000 		.4byte	0x163d
 6008 1573 2A       		.uleb128 0x2a
 6009 1574 76080000 		.4byte	.LASF200
 6010 1578 05       		.byte	0x5
 6011 1579 16       		.byte	0x16
 6012 157a 0C       		.byte	0xc
 6013 157b BC000000 		.4byte	0xbc
 6014 157f 99030000 		.4byte	.LLST36
 6015 1583 93030000 		.4byte	.LVUS36
 6016 1587 28       		.uleb128 0x28
 6017 1588 62697400 		.ascii	"bit\000"
 6018 158c 05       		.byte	0x5
 6019 158d 17       		.byte	0x17
 6020 158e 0C       		.byte	0xc
 6021 158f BC000000 		.4byte	0xbc
 6022 1593 CB030000 		.4byte	.LLST37
 6023 1597 C3030000 		.4byte	.LVUS37
 6024 159b 2A       		.uleb128 0x2a
 6025 159c B80B0000 		.4byte	.LASF201
 6026 15a0 05       		.byte	0x5
ARM GAS  /tmp/ccaJFhKP.s 			page 127


 6027 15a1 18       		.byte	0x18
 6028 15a2 0C       		.byte	0xc
 6029 15a3 BC000000 		.4byte	0xbc
 6030 15a7 06040000 		.4byte	.LLST38
 6031 15ab 02040000 		.4byte	.LVUS38
 6032 15af 1D       		.uleb128 0x1d
 6033 15b0 F0050000 		.4byte	.LVL86
 6034 15b4 D11B0000 		.4byte	0x1bd1
 6035 15b8 C9150000 		.4byte	0x15c9
 6036 15bc 1E       		.uleb128 0x1e
 6037 15bd 01       		.byte	0x1
 6038 15be 50       		.byte	0x50
 6039 15bf 02       		.byte	0x2
 6040 15c0 74       		.byte	0x74
 6041 15c1 00       		.sleb128 0
 6042 15c2 1E       		.uleb128 0x1e
 6043 15c3 01       		.byte	0x1
 6044 15c4 51       		.byte	0x51
 6045 15c5 02       		.byte	0x2
 6046 15c6 08       		.byte	0x8
 6047 15c7 40       		.byte	0x40
 6048 15c8 00       		.byte	0
 6049 15c9 1D       		.uleb128 0x1d
 6050 15ca FE050000 		.4byte	.LVL87
 6051 15ce D11B0000 		.4byte	0x1bd1
 6052 15d2 E3150000 		.4byte	0x15e3
 6053 15d6 1E       		.uleb128 0x1e
 6054 15d7 01       		.byte	0x1
 6055 15d8 50       		.byte	0x50
 6056 15d9 02       		.byte	0x2
 6057 15da 74       		.byte	0x74
 6058 15db 00       		.sleb128 0
 6059 15dc 1E       		.uleb128 0x1e
 6060 15dd 01       		.byte	0x1
 6061 15de 51       		.byte	0x51
 6062 15df 02       		.byte	0x2
 6063 15e0 08       		.byte	0x8
 6064 15e1 40       		.byte	0x40
 6065 15e2 00       		.byte	0
 6066 15e3 1D       		.uleb128 0x1d
 6067 15e4 0C060000 		.4byte	.LVL88
 6068 15e8 D11B0000 		.4byte	0x1bd1
 6069 15ec FD150000 		.4byte	0x15fd
 6070 15f0 1E       		.uleb128 0x1e
 6071 15f1 01       		.byte	0x1
 6072 15f2 50       		.byte	0x50
 6073 15f3 02       		.byte	0x2
 6074 15f4 75       		.byte	0x75
 6075 15f5 00       		.sleb128 0
 6076 15f6 1E       		.uleb128 0x1e
 6077 15f7 01       		.byte	0x1
 6078 15f8 51       		.byte	0x51
 6079 15f9 02       		.byte	0x2
 6080 15fa 08       		.byte	0x8
 6081 15fb 40       		.byte	0x40
 6082 15fc 00       		.byte	0
 6083 15fd 1D       		.uleb128 0x1d
ARM GAS  /tmp/ccaJFhKP.s 			page 128


 6084 15fe 1C060000 		.4byte	.LVL90
 6085 1602 4F1B0000 		.4byte	0x1b4f
 6086 1606 11160000 		.4byte	0x1611
 6087 160a 1E       		.uleb128 0x1e
 6088 160b 01       		.byte	0x1
 6089 160c 50       		.byte	0x50
 6090 160d 02       		.byte	0x2
 6091 160e 08       		.byte	0x8
 6092 160f C8       		.byte	0xc8
 6093 1610 00       		.byte	0
 6094 1611 1D       		.uleb128 0x1d
 6095 1612 24060000 		.4byte	.LVL91
 6096 1616 D11B0000 		.4byte	0x1bd1
 6097 161a 2B160000 		.4byte	0x162b
 6098 161e 1E       		.uleb128 0x1e
 6099 161f 01       		.byte	0x1
 6100 1620 50       		.byte	0x50
 6101 1621 02       		.byte	0x2
 6102 1622 76       		.byte	0x76
 6103 1623 00       		.sleb128 0
 6104 1624 1E       		.uleb128 0x1e
 6105 1625 01       		.byte	0x1
 6106 1626 51       		.byte	0x51
 6107 1627 02       		.byte	0x2
 6108 1628 08       		.byte	0x8
 6109 1629 40       		.byte	0x40
 6110 162a 00       		.byte	0
 6111 162b 24       		.uleb128 0x24
 6112 162c 36060000 		.4byte	.LVL95
 6113 1630 4F1B0000 		.4byte	0x1b4f
 6114 1634 1E       		.uleb128 0x1e
 6115 1635 01       		.byte	0x1
 6116 1636 50       		.byte	0x50
 6117 1637 03       		.byte	0x3
 6118 1638 0A       		.byte	0xa
 6119 1639 2C01     		.2byte	0x12c
 6120 163b 00       		.byte	0
 6121 163c 00       		.byte	0
 6122 163d 29       		.uleb128 0x29
 6123 163e 01       		.byte	0x1
 6124 163f 2D050000 		.4byte	.LASF203
 6125 1643 05       		.byte	0x5
 6126 1644 08       		.byte	0x8
 6127 1645 06       		.byte	0x6
 6128 1646 01       		.byte	0x1
 6129 1647 B8050000 		.4byte	.LFB48
 6130 164b E4050000 		.4byte	.LFE48
 6131 164f 2A040000 		.4byte	.LLST34
 6132 1653 01       		.byte	0x1
 6133 1654 99160000 		.4byte	0x1699
 6134 1658 1B       		.uleb128 0x1b
 6135 1659 FE070000 		.4byte	.LASF204
 6136 165d 05       		.byte	0x5
 6137 165e 09       		.byte	0x9
 6138 165f 14       		.byte	0x14
 6139 1660 230C0000 		.4byte	0xc23
 6140 1664 02       		.byte	0x2
ARM GAS  /tmp/ccaJFhKP.s 			page 129


 6141 1665 91       		.byte	0x91
 6142 1666 74       		.sleb128 -12
 6143 1667 1D       		.uleb128 0x1d
 6144 1668 C2050000 		.4byte	.LVL83
 6145 166c E01B0000 		.4byte	0x1be0
 6146 1670 7F160000 		.4byte	0x167f
 6147 1674 1E       		.uleb128 0x1e
 6148 1675 01       		.byte	0x1
 6149 1676 50       		.byte	0x50
 6150 1677 01       		.byte	0x1
 6151 1678 38       		.byte	0x38
 6152 1679 1E       		.uleb128 0x1e
 6153 167a 01       		.byte	0x1
 6154 167b 51       		.byte	0x51
 6155 167c 01       		.byte	0x1
 6156 167d 31       		.byte	0x31
 6157 167e 00       		.byte	0
 6158 167f 24       		.uleb128 0x24
 6159 1680 D8050000 		.4byte	.LVL84
 6160 1684 EF1B0000 		.4byte	0x1bef
 6161 1688 1E       		.uleb128 0x1e
 6162 1689 01       		.byte	0x1
 6163 168a 50       		.byte	0x50
 6164 168b 05       		.byte	0x5
 6165 168c 0C       		.byte	0xc
 6166 168d 000C0140 		.4byte	0x40010c00
 6167 1691 1E       		.uleb128 0x1e
 6168 1692 01       		.byte	0x1
 6169 1693 51       		.byte	0x51
 6170 1694 02       		.byte	0x2
 6171 1695 91       		.byte	0x91
 6172 1696 74       		.sleb128 -12
 6173 1697 00       		.byte	0
 6174 1698 00       		.byte	0
 6175 1699 2F       		.uleb128 0x2f
 6176 169a 01       		.byte	0x1
 6177 169b 89090000 		.4byte	.LASF221
 6178 169f 04       		.byte	0x4
 6179 16a0 20       		.byte	0x20
 6180 16a1 0A       		.byte	0xa
 6181 16a2 AB000000 		.4byte	0xab
 6182 16a6 9C050000 		.4byte	.LFB47
 6183 16aa B8050000 		.4byte	.LFE47
 6184 16ae 02       		.byte	0x2
 6185 16af 7D       		.byte	0x7d
 6186 16b0 00       		.sleb128 0
 6187 16b1 01       		.byte	0x1
 6188 16b2 30       		.uleb128 0x30
 6189 16b3 01       		.byte	0x1
 6190 16b4 2A010000 		.4byte	.LASF225
 6191 16b8 04       		.byte	0x4
 6192 16b9 02       		.byte	0x2
 6193 16ba 06       		.byte	0x6
 6194 16bb 00050000 		.4byte	.LFB46
 6195 16bf 70050000 		.4byte	.LFE46
 6196 16c3 02       		.byte	0x2
 6197 16c4 7D       		.byte	0x7d
ARM GAS  /tmp/ccaJFhKP.s 			page 130


 6198 16c5 00       		.sleb128 0
 6199 16c6 01       		.byte	0x1
 6200 16c7 29       		.uleb128 0x29
 6201 16c8 01       		.byte	0x1
 6202 16c9 53060000 		.4byte	.LASF205
 6203 16cd 03       		.byte	0x3
 6204 16ce 28       		.byte	0x28
 6205 16cf 06       		.byte	0x6
 6206 16d0 01       		.byte	0x1
 6207 16d1 D8040000 		.4byte	.LFB45
 6208 16d5 00050000 		.4byte	.LFE45
 6209 16d9 56040000 		.4byte	.LLST30
 6210 16dd 01       		.byte	0x1
 6211 16de 21170000 		.4byte	0x1721
 6212 16e2 26       		.uleb128 0x26
 6213 16e3 F4070000 		.4byte	.LASF206
 6214 16e7 03       		.byte	0x3
 6215 16e8 28       		.byte	0x28
 6216 16e9 16       		.byte	0x16
 6217 16ea 06010000 		.4byte	0x106
 6218 16ee 7E040000 		.4byte	.LLST31
 6219 16f2 76040000 		.4byte	.LVUS31
 6220 16f6 1D       		.uleb128 0x1d
 6221 16f7 EC040000 		.4byte	.LVL76
 6222 16fb FE1B0000 		.4byte	0x1bfe
 6223 16ff 0A170000 		.4byte	0x170a
 6224 1703 1E       		.uleb128 0x1e
 6225 1704 01       		.byte	0x1
 6226 1705 50       		.byte	0x50
 6227 1706 02       		.byte	0x2
 6228 1707 75       		.byte	0x75
 6229 1708 00       		.sleb128 0
 6230 1709 00       		.byte	0
 6231 170a 24       		.uleb128 0x24
 6232 170b F4040000 		.4byte	.LVL77
 6233 170f 0D1C0000 		.4byte	0x1c0d
 6234 1713 1E       		.uleb128 0x1e
 6235 1714 01       		.byte	0x1
 6236 1715 50       		.byte	0x50
 6237 1716 02       		.byte	0x2
 6238 1717 75       		.byte	0x75
 6239 1718 00       		.sleb128 0
 6240 1719 1E       		.uleb128 0x1e
 6241 171a 01       		.byte	0x1
 6242 171b 51       		.byte	0x51
 6243 171c 02       		.byte	0x2
 6244 171d 08       		.byte	0x8
 6245 171e 40       		.byte	0x40
 6246 171f 00       		.byte	0
 6247 1720 00       		.byte	0
 6248 1721 29       		.uleb128 0x29
 6249 1722 01       		.byte	0x1
 6250 1723 D6050000 		.4byte	.LASF207
 6251 1727 03       		.byte	0x3
 6252 1728 07       		.byte	0x7
 6253 1729 06       		.byte	0x6
 6254 172a 01       		.byte	0x1
ARM GAS  /tmp/ccaJFhKP.s 			page 131


 6255 172b 68040000 		.4byte	.LFB44
 6256 172f D8040000 		.4byte	.LFE44
 6257 1733 B6040000 		.4byte	.LLST29
 6258 1737 01       		.byte	0x1
 6259 1738 D8170000 		.4byte	0x17d8
 6260 173c 1B       		.uleb128 0x1b
 6261 173d FE070000 		.4byte	.LASF204
 6262 1741 03       		.byte	0x3
 6263 1742 0C       		.byte	0xc
 6264 1743 15       		.byte	0x15
 6265 1744 230C0000 		.4byte	0xc23
 6266 1748 02       		.byte	0x2
 6267 1749 91       		.byte	0x91
 6268 174a 64       		.sleb128 -28
 6269 174b 1B       		.uleb128 0x1b
 6270 174c A1010000 		.4byte	.LASF208
 6271 1750 03       		.byte	0x3
 6272 1751 1A       		.byte	0x1a
 6273 1752 16       		.byte	0x16
 6274 1753 930C0000 		.4byte	0xc93
 6275 1757 02       		.byte	0x2
 6276 1758 91       		.byte	0x91
 6277 1759 68       		.sleb128 -24
 6278 175a 1D       		.uleb128 0x1d
 6279 175b 76040000 		.4byte	.LVL67
 6280 175f E01B0000 		.4byte	0x1be0
 6281 1763 74170000 		.4byte	0x1774
 6282 1767 1E       		.uleb128 0x1e
 6283 1768 01       		.byte	0x1
 6284 1769 50       		.byte	0x50
 6285 176a 03       		.byte	0x3
 6286 176b 0A       		.byte	0xa
 6287 176c 0440     		.2byte	0x4004
 6288 176e 1E       		.uleb128 0x1e
 6289 176f 01       		.byte	0x1
 6290 1770 51       		.byte	0x51
 6291 1771 01       		.byte	0x1
 6292 1772 31       		.byte	0x31
 6293 1773 00       		.byte	0
 6294 1774 1D       		.uleb128 0x1d
 6295 1775 90040000 		.4byte	.LVL68
 6296 1779 EF1B0000 		.4byte	0x1bef
 6297 177d 8E170000 		.4byte	0x178e
 6298 1781 1E       		.uleb128 0x1e
 6299 1782 01       		.byte	0x1
 6300 1783 50       		.byte	0x50
 6301 1784 02       		.byte	0x2
 6302 1785 74       		.byte	0x74
 6303 1786 00       		.sleb128 0
 6304 1787 1E       		.uleb128 0x1e
 6305 1788 01       		.byte	0x1
 6306 1789 51       		.byte	0x51
 6307 178a 02       		.byte	0x2
 6308 178b 91       		.byte	0x91
 6309 178c 64       		.sleb128 -28
 6310 178d 00       		.byte	0
 6311 178e 1D       		.uleb128 0x1d
ARM GAS  /tmp/ccaJFhKP.s 			page 132


 6312 178f A8040000 		.4byte	.LVL69
 6313 1793 EF1B0000 		.4byte	0x1bef
 6314 1797 A8170000 		.4byte	0x17a8
 6315 179b 1E       		.uleb128 0x1e
 6316 179c 01       		.byte	0x1
 6317 179d 50       		.byte	0x50
 6318 179e 02       		.byte	0x2
 6319 179f 74       		.byte	0x74
 6320 17a0 00       		.sleb128 0
 6321 17a1 1E       		.uleb128 0x1e
 6322 17a2 01       		.byte	0x1
 6323 17a3 51       		.byte	0x51
 6324 17a4 02       		.byte	0x2
 6325 17a5 91       		.byte	0x91
 6326 17a6 64       		.sleb128 -28
 6327 17a7 00       		.byte	0
 6328 17a8 1D       		.uleb128 0x1d
 6329 17a9 C8040000 		.4byte	.LVL70
 6330 17ad 1C1C0000 		.4byte	0x1c1c
 6331 17b1 C2170000 		.4byte	0x17c2
 6332 17b5 1E       		.uleb128 0x1e
 6333 17b6 01       		.byte	0x1
 6334 17b7 50       		.byte	0x50
 6335 17b8 02       		.byte	0x2
 6336 17b9 74       		.byte	0x74
 6337 17ba 00       		.sleb128 0
 6338 17bb 1E       		.uleb128 0x1e
 6339 17bc 01       		.byte	0x1
 6340 17bd 51       		.byte	0x51
 6341 17be 02       		.byte	0x2
 6342 17bf 91       		.byte	0x91
 6343 17c0 68       		.sleb128 -24
 6344 17c1 00       		.byte	0
 6345 17c2 24       		.uleb128 0x24
 6346 17c3 D0040000 		.4byte	.LVL71
 6347 17c7 2B1C0000 		.4byte	0x1c2b
 6348 17cb 1E       		.uleb128 0x1e
 6349 17cc 01       		.byte	0x1
 6350 17cd 50       		.byte	0x50
 6351 17ce 02       		.byte	0x2
 6352 17cf 74       		.byte	0x74
 6353 17d0 00       		.sleb128 0
 6354 17d1 1E       		.uleb128 0x1e
 6355 17d2 01       		.byte	0x1
 6356 17d3 51       		.byte	0x51
 6357 17d4 01       		.byte	0x1
 6358 17d5 31       		.byte	0x31
 6359 17d6 00       		.byte	0
 6360 17d7 00       		.byte	0
 6361 17d8 31       		.uleb128 0x31
 6362 17d9 01       		.byte	0x1
 6363 17da 00000000 		.4byte	.LASF209
 6364 17de 02       		.byte	0x2
 6365 17df E8       		.byte	0xe8
 6366 17e0 06       		.byte	0x6
 6367 17e1 01       		.byte	0x1
 6368 17e2 88030000 		.4byte	.LFB43
ARM GAS  /tmp/ccaJFhKP.s 			page 133


 6369 17e6 EC030000 		.4byte	.LFE43
 6370 17ea 02       		.byte	0x2
 6371 17eb 7D       		.byte	0x7d
 6372 17ec 00       		.sleb128 0
 6373 17ed 01       		.byte	0x1
 6374 17ee 07180000 		.4byte	0x1807
 6375 17f2 26       		.uleb128 0x26
 6376 17f3 16020000 		.4byte	.LASF210
 6377 17f7 02       		.byte	0x2
 6378 17f8 E8       		.byte	0xe8
 6379 17f9 1E       		.byte	0x1e
 6380 17fa 29000000 		.4byte	0x29
 6381 17fe F4040000 		.4byte	.LLST24
 6382 1802 EE040000 		.4byte	.LVUS24
 6383 1806 00       		.byte	0
 6384 1807 32       		.uleb128 0x32
 6385 1808 01       		.byte	0x1
 6386 1809 B0060000 		.4byte	.LASF216
 6387 180d 02       		.byte	0x2
 6388 180e C5       		.byte	0xc5
 6389 180f 06       		.byte	0x6
 6390 1810 01       		.byte	0x1
 6391 1811 01       		.byte	0x1
 6392 1812 55180000 		.4byte	0x1855
 6393 1816 33       		.uleb128 0x33
 6394 1817 6E756D00 		.ascii	"num\000"
 6395 181b 02       		.byte	0x2
 6396 181c C5       		.byte	0xc5
 6397 181d 13       		.byte	0x13
 6398 181e 29000000 		.4byte	0x29
 6399 1822 33       		.uleb128 0x33
 6400 1823 73747200 		.ascii	"str\000"
 6401 1827 02       		.byte	0x2
 6402 1828 C5       		.byte	0xc5
 6403 1829 1E       		.byte	0x1e
 6404 182a 06010000 		.4byte	0x106
 6405 182e 34       		.uleb128 0x34
 6406 182f 6C656E00 		.ascii	"len\000"
 6407 1833 02       		.byte	0x2
 6408 1834 CD       		.byte	0xcd
 6409 1835 09       		.byte	0x9
 6410 1836 29000000 		.4byte	0x29
 6411 183a 35       		.uleb128 0x35
 6412 183b F9030000 		.4byte	.LASF211
 6413 183f 02       		.byte	0x2
 6414 1840 CE       		.byte	0xce
 6415 1841 09       		.byte	0x9
 6416 1842 29000000 		.4byte	0x29
 6417 1846 36       		.uleb128 0x36
 6418 1847 35       		.uleb128 0x35
 6419 1848 9A000000 		.4byte	.LASF212
 6420 184c 02       		.byte	0x2
 6421 184d D8       		.byte	0xd8
 6422 184e 0D       		.byte	0xd
 6423 184f 29000000 		.4byte	0x29
 6424 1853 00       		.byte	0
 6425 1854 00       		.byte	0
ARM GAS  /tmp/ccaJFhKP.s 			page 134


 6426 1855 29       		.uleb128 0x29
 6427 1856 01       		.byte	0x1
 6428 1857 640B0000 		.4byte	.LASF213
 6429 185b 02       		.byte	0x2
 6430 185c A7       		.byte	0xa7
 6431 185d 06       		.byte	0x6
 6432 185e 01       		.byte	0x1
 6433 185f 04030000 		.4byte	.LFB41
 6434 1863 88030000 		.4byte	.LFE41
 6435 1867 2E050000 		.4byte	.LLST16
 6436 186b 01       		.byte	0x1
 6437 186c 81190000 		.4byte	0x1981
 6438 1870 37       		.uleb128 0x37
 6439 1871 6E756D00 		.ascii	"num\000"
 6440 1875 02       		.byte	0x2
 6441 1876 A7       		.byte	0xa7
 6442 1877 1A       		.byte	0x1a
 6443 1878 9F0C0000 		.4byte	0xc9f
 6444 187c 52050000 		.4byte	.LLST17
 6445 1880 4E050000 		.4byte	.LVUS17
 6446 1884 37       		.uleb128 0x37
 6447 1885 73747200 		.ascii	"str\000"
 6448 1889 02       		.byte	0x2
 6449 188a A7       		.byte	0xa7
 6450 188b 25       		.byte	0x25
 6451 188c 06010000 		.4byte	0x106
 6452 1890 82050000 		.4byte	.LLST18
 6453 1894 70050000 		.4byte	.LVUS18
 6454 1898 26       		.uleb128 0x26
 6455 1899 3D090000 		.4byte	.LASF214
 6456 189d 02       		.byte	0x2
 6457 189e A7       		.byte	0xa7
 6458 189f 2E       		.byte	0x2e
 6459 18a0 29000000 		.4byte	0x29
 6460 18a4 F9050000 		.4byte	.LLST19
 6461 18a8 F1050000 		.4byte	.LVUS19
 6462 18ac 2A       		.uleb128 0x2a
 6463 18ad 240C0000 		.4byte	.LASF215
 6464 18b1 02       		.byte	0x2
 6465 18b2 AF       		.byte	0xaf
 6466 18b3 09       		.byte	0x9
 6467 18b4 29000000 		.4byte	0x29
 6468 18b8 34060000 		.4byte	.LLST20
 6469 18bc 30060000 		.4byte	.LVUS20
 6470 18c0 38       		.uleb128 0x38
 6471 18c1 01       		.byte	0x1
 6472 18c2 B0060000 		.4byte	.LASF216
 6473 18c6 02       		.byte	0x2
 6474 18c7 B0       		.byte	0xb0
 6475 18c8 05       		.byte	0x5
 6476 18c9 29000000 		.4byte	0x29
 6477 18cd 01       		.byte	0x1
 6478 18ce D4180000 		.4byte	0x18d4
 6479 18d2 39       		.uleb128 0x39
 6480 18d3 00       		.byte	0
 6481 18d4 2A       		.uleb128 0x2a
 6482 18d5 4C000000 		.4byte	.LASF217
ARM GAS  /tmp/ccaJFhKP.s 			page 135


 6483 18d9 02       		.byte	0x2
 6484 18da B9       		.byte	0xb9
 6485 18db 0B       		.byte	0xb
 6486 18dc 9F0C0000 		.4byte	0xc9f
 6487 18e0 58060000 		.4byte	.LLST21
 6488 18e4 52060000 		.4byte	.LVUS21
 6489 18e8 2B       		.uleb128 0x2b
 6490 18e9 30000000 		.4byte	.Ldebug_ranges0+0x30
 6491 18ed 42190000 		.4byte	0x1942
 6492 18f1 28       		.uleb128 0x28
 6493 18f2 6900     		.ascii	"i\000"
 6494 18f4 02       		.byte	0x2
 6495 18f5 BA       		.byte	0xba
 6496 18f6 0E       		.byte	0xe
 6497 18f7 29000000 		.4byte	0x29
 6498 18fb 8F060000 		.4byte	.LLST22
 6499 18ff 81060000 		.4byte	.LVUS22
 6500 1903 3A       		.uleb128 0x3a
 6501 1904 50000000 		.4byte	.Ldebug_ranges0+0x50
 6502 1908 2A       		.uleb128 0x2a
 6503 1909 9A000000 		.4byte	.LASF212
 6504 190d 02       		.byte	0x2
 6505 190e BC       		.byte	0xbc
 6506 190f 0D       		.byte	0xd
 6507 1910 29000000 		.4byte	0x29
 6508 1914 FC060000 		.4byte	.LLST23
 6509 1918 FA060000 		.4byte	.LVUS23
 6510 191c 1F       		.uleb128 0x1f
 6511 191d 68030000 		.4byte	.LVL46
 6512 1921 3A1C0000 		.4byte	0x1c3a
 6513 1925 1F       		.uleb128 0x1f
 6514 1926 6E030000 		.4byte	.LVL48
 6515 192a 451C0000 		.4byte	0x1c45
 6516 192e 1F       		.uleb128 0x1f
 6517 192f 7A030000 		.4byte	.LVL50
 6518 1933 891B0000 		.4byte	0x1b89
 6519 1937 1F       		.uleb128 0x1f
 6520 1938 82030000 		.4byte	.LVL51
 6521 193c 501C0000 		.4byte	0x1c50
 6522 1940 00       		.byte	0
 6523 1941 00       		.byte	0
 6524 1942 1F       		.uleb128 0x1f
 6525 1943 14030000 		.4byte	.LVL30
 6526 1947 5B1C0000 		.4byte	0x1c5b
 6527 194b 1F       		.uleb128 0x1f
 6528 194c 26030000 		.4byte	.LVL33
 6529 1950 451C0000 		.4byte	0x1c45
 6530 1954 1D       		.uleb128 0x1d
 6531 1955 2E030000 		.4byte	.LVL35
 6532 1959 07180000 		.4byte	0x1807
 6533 195d 6E190000 		.4byte	0x196e
 6534 1961 1E       		.uleb128 0x1e
 6535 1962 01       		.byte	0x1
 6536 1963 50       		.byte	0x50
 6537 1964 02       		.byte	0x2
 6538 1965 77       		.byte	0x77
 6539 1966 00       		.sleb128 0
ARM GAS  /tmp/ccaJFhKP.s 			page 136


 6540 1967 1E       		.uleb128 0x1e
 6541 1968 01       		.byte	0x1
 6542 1969 51       		.byte	0x51
 6543 196a 02       		.byte	0x2
 6544 196b 74       		.byte	0x74
 6545 196c 00       		.sleb128 0
 6546 196d 00       		.byte	0
 6547 196e 1F       		.uleb128 0x1f
 6548 196f 42030000 		.4byte	.LVL38
 6549 1973 891B0000 		.4byte	0x1b89
 6550 1977 1F       		.uleb128 0x1f
 6551 1978 4A030000 		.4byte	.LVL39
 6552 197c 501C0000 		.4byte	0x1c50
 6553 1980 00       		.byte	0
 6554 1981 31       		.uleb128 0x31
 6555 1982 01       		.byte	0x1
 6556 1983 71030000 		.4byte	.LASF218
 6557 1987 02       		.byte	0x2
 6558 1988 99       		.byte	0x99
 6559 1989 06       		.byte	0x6
 6560 198a 01       		.byte	0x1
 6561 198b AC020000 		.4byte	.LFB40
 6562 198f C8020000 		.4byte	.LFE40
 6563 1993 02       		.byte	0x2
 6564 1994 7D       		.byte	0x7d
 6565 1995 00       		.sleb128 0
 6566 1996 01       		.byte	0x1
 6567 1997 B0190000 		.4byte	0x19b0
 6568 199b 26       		.uleb128 0x26
 6569 199c 89010000 		.4byte	.LASF219
 6570 19a0 02       		.byte	0x2
 6571 19a1 99       		.byte	0x99
 6572 19a2 22       		.byte	0x22
 6573 19a3 61020000 		.4byte	0x261
 6574 19a7 13070000 		.4byte	.LLST7
 6575 19ab 0F070000 		.4byte	.LVUS7
 6576 19af 00       		.byte	0
 6577 19b0 31       		.uleb128 0x31
 6578 19b1 01       		.byte	0x1
 6579 19b2 F4050000 		.4byte	.LASF220
 6580 19b6 02       		.byte	0x2
 6581 19b7 91       		.byte	0x91
 6582 19b8 06       		.byte	0x6
 6583 19b9 01       		.byte	0x1
 6584 19ba 94020000 		.4byte	.LFB39
 6585 19be AC020000 		.4byte	.LFE39
 6586 19c2 02       		.byte	0x2
 6587 19c3 7D       		.byte	0x7d
 6588 19c4 00       		.sleb128 0
 6589 19c5 01       		.byte	0x1
 6590 19c6 DF190000 		.4byte	0x19df
 6591 19ca 26       		.uleb128 0x26
 6592 19cb 89010000 		.4byte	.LASF219
 6593 19cf 02       		.byte	0x2
 6594 19d0 91       		.byte	0x91
 6595 19d1 21       		.byte	0x21
 6596 19d2 61020000 		.4byte	0x261
ARM GAS  /tmp/ccaJFhKP.s 			page 137


 6597 19d6 38070000 		.4byte	.LLST6
 6598 19da 34070000 		.4byte	.LVUS6
 6599 19de 00       		.byte	0
 6600 19df 3B       		.uleb128 0x3b
 6601 19e0 01       		.byte	0x1
 6602 19e1 70000000 		.4byte	.LASF222
 6603 19e5 02       		.byte	0x2
 6604 19e6 85       		.byte	0x85
 6605 19e7 06       		.byte	0x6
 6606 19e8 01       		.byte	0x1
 6607 19e9 6C020000 		.4byte	.LFB38
 6608 19ed 94020000 		.4byte	.LFE38
 6609 19f1 02       		.byte	0x2
 6610 19f2 7D       		.byte	0x7d
 6611 19f3 00       		.sleb128 0
 6612 19f4 01       		.byte	0x1
 6613 19f5 29       		.uleb128 0x29
 6614 19f6 01       		.byte	0x1
 6615 19f7 AC000000 		.4byte	.LASF223
 6616 19fb 02       		.byte	0x2
 6617 19fc 7E       		.byte	0x7e
 6618 19fd 06       		.byte	0x6
 6619 19fe 01       		.byte	0x1
 6620 19ff 3C020000 		.4byte	.LFB37
 6621 1a03 6C020000 		.4byte	.LFE37
 6622 1a07 59070000 		.4byte	.LLST5
 6623 1a0b 01       		.byte	0x1
 6624 1a0c 1D1A0000 		.4byte	0x1a1d
 6625 1a10 3C       		.uleb128 0x3c
 6626 1a11 5400     		.ascii	"T\000"
 6627 1a13 02       		.byte	0x2
 6628 1a14 7E       		.byte	0x7e
 6629 1a15 17       		.byte	0x17
 6630 1a16 BA030000 		.4byte	0x3ba
 6631 1a1a 01       		.byte	0x1
 6632 1a1b 50       		.byte	0x50
 6633 1a1c 00       		.byte	0
 6634 1a1d 3B       		.uleb128 0x3b
 6635 1a1e 01       		.byte	0x1
 6636 1a1f 430A0000 		.4byte	.LASF224
 6637 1a23 02       		.byte	0x2
 6638 1a24 5C       		.byte	0x5c
 6639 1a25 06       		.byte	0x6
 6640 1a26 01       		.byte	0x1
 6641 1a27 C8010000 		.4byte	.LFB36
 6642 1a2b 3C020000 		.4byte	.LFE36
 6643 1a2f 02       		.byte	0x2
 6644 1a30 7D       		.byte	0x7d
 6645 1a31 00       		.sleb128 0
 6646 1a32 01       		.byte	0x1
 6647 1a33 30       		.uleb128 0x30
 6648 1a34 01       		.byte	0x1
 6649 1a35 C5000000 		.4byte	.LASF226
 6650 1a39 02       		.byte	0x2
 6651 1a3a 2C       		.byte	0x2c
 6652 1a3b 06       		.byte	0x6
 6653 1a3c 3C010000 		.4byte	.LFB35
ARM GAS  /tmp/ccaJFhKP.s 			page 138


 6654 1a40 C8010000 		.4byte	.LFE35
 6655 1a44 02       		.byte	0x2
 6656 1a45 7D       		.byte	0x7d
 6657 1a46 00       		.sleb128 0
 6658 1a47 01       		.byte	0x1
 6659 1a48 30       		.uleb128 0x30
 6660 1a49 01       		.byte	0x1
 6661 1a4a E1050000 		.4byte	.LASF227
 6662 1a4e 02       		.byte	0x2
 6663 1a4f 0D       		.byte	0xd
 6664 1a50 06       		.byte	0x6
 6665 1a51 8C000000 		.4byte	.LFB34
 6666 1a55 3C010000 		.4byte	.LFE34
 6667 1a59 02       		.byte	0x2
 6668 1a5a 7D       		.byte	0x7d
 6669 1a5b 00       		.sleb128 0
 6670 1a5c 01       		.byte	0x1
 6671 1a5d 3D       		.uleb128 0x3d
 6672 1a5e 07180000 		.4byte	0x1807
 6673 1a62 C8020000 		.4byte	.LFB42
 6674 1a66 04030000 		.4byte	.LFE42
 6675 1a6a 91070000 		.4byte	.LLST8
 6676 1a6e 01       		.byte	0x1
 6677 1a6f F61A0000 		.4byte	0x1af6
 6678 1a73 3E       		.uleb128 0x3e
 6679 1a74 16180000 		.4byte	0x1816
 6680 1a78 BB070000 		.4byte	.LLST9
 6681 1a7c B1070000 		.4byte	.LVUS9
 6682 1a80 3E       		.uleb128 0x3e
 6683 1a81 22180000 		.4byte	0x1822
 6684 1a85 0A080000 		.4byte	.LLST10
 6685 1a89 00080000 		.4byte	.LVUS10
 6686 1a8d 3F       		.uleb128 0x3f
 6687 1a8e 2E180000 		.4byte	0x182e
 6688 1a92 3F       		.uleb128 0x3f
 6689 1a93 3A180000 		.4byte	0x183a
 6690 1a97 40       		.uleb128 0x40
 6691 1a98 07180000 		.4byte	0x1807
 6692 1a9c 00000000 		.4byte	.Ldebug_ranges0+0
 6693 1aa0 02       		.byte	0x2
 6694 1aa1 C5       		.byte	0xc5
 6695 1aa2 06       		.byte	0x6
 6696 1aa3 3E       		.uleb128 0x3e
 6697 1aa4 22180000 		.4byte	0x1822
 6698 1aa8 54080000 		.4byte	.LLST11
 6699 1aac 4E080000 		.4byte	.LVUS11
 6700 1ab0 3E       		.uleb128 0x3e
 6701 1ab1 16180000 		.4byte	0x1816
 6702 1ab5 83080000 		.4byte	.LLST12
 6703 1ab9 7F080000 		.4byte	.LVUS12
 6704 1abd 3A       		.uleb128 0x3a
 6705 1abe 00000000 		.4byte	.Ldebug_ranges0+0
 6706 1ac2 41       		.uleb128 0x41
 6707 1ac3 2E180000 		.4byte	0x182e
 6708 1ac7 A3080000 		.4byte	.LLST13
 6709 1acb A1080000 		.4byte	.LVUS13
 6710 1acf 41       		.uleb128 0x41
ARM GAS  /tmp/ccaJFhKP.s 			page 139


 6711 1ad0 3A180000 		.4byte	0x183a
 6712 1ad4 B8080000 		.4byte	.LLST14
 6713 1ad8 B6080000 		.4byte	.LVUS14
 6714 1adc 42       		.uleb128 0x42
 6715 1add 46180000 		.4byte	0x1846
 6716 1ae1 18000000 		.4byte	.Ldebug_ranges0+0x18
 6717 1ae5 41       		.uleb128 0x41
 6718 1ae6 47180000 		.4byte	0x1847
 6719 1aea CD080000 		.4byte	.LLST15
 6720 1aee CB080000 		.4byte	.LVUS15
 6721 1af2 00       		.byte	0
 6722 1af3 00       		.byte	0
 6723 1af4 00       		.byte	0
 6724 1af5 00       		.byte	0
 6725 1af6 43       		.uleb128 0x43
 6726 1af7 01       		.byte	0x1
 6727 1af8 01       		.byte	0x1
 6728 1af9 C3020000 		.4byte	.LASF228
 6729 1afd C3020000 		.4byte	.LASF228
 6730 1b01 09       		.byte	0x9
 6731 1b02 D805     		.2byte	0x5d8
 6732 1b04 10       		.byte	0x10
 6733 1b05 43       		.uleb128 0x43
 6734 1b06 01       		.byte	0x1
 6735 1b07 01       		.byte	0x1
 6736 1b08 CF060000 		.4byte	.LASF229
 6737 1b0c CF060000 		.4byte	.LASF229
 6738 1b10 0E       		.byte	0xe
 6739 1b11 4A01     		.2byte	0x14a
 6740 1b13 0D       		.byte	0xd
 6741 1b14 43       		.uleb128 0x43
 6742 1b15 01       		.byte	0x1
 6743 1b16 01       		.byte	0x1
 6744 1b17 70010000 		.4byte	.LASF230
 6745 1b1b 70010000 		.4byte	.LASF230
 6746 1b1f 0E       		.byte	0xe
 6747 1b20 9704     		.2byte	0x497
 6748 1b22 06       		.byte	0x6
 6749 1b23 43       		.uleb128 0x43
 6750 1b24 01       		.byte	0x1
 6751 1b25 01       		.byte	0x1
 6752 1b26 59050000 		.4byte	.LASF231
 6753 1b2a 59050000 		.4byte	.LASF231
 6754 1b2e 09       		.byte	0x9
 6755 1b2f 6403     		.2byte	0x364
 6756 1b31 0C       		.byte	0xc
 6757 1b32 44       		.uleb128 0x44
 6758 1b33 01       		.byte	0x1
 6759 1b34 01       		.byte	0x1
 6760 1b35 F4030000 		.4byte	.LASF232
 6761 1b39 F4030000 		.4byte	.LASF232
 6762 1b3d 0F       		.byte	0xf
 6763 1b3e E3       		.byte	0xe3
 6764 1b3f 08       		.byte	0x8
 6765 1b40 43       		.uleb128 0x43
 6766 1b41 01       		.byte	0x1
 6767 1b42 01       		.byte	0x1
ARM GAS  /tmp/ccaJFhKP.s 			page 140


 6768 1b43 89040000 		.4byte	.LASF233
 6769 1b47 89040000 		.4byte	.LASF233
 6770 1b4b 09       		.byte	0x9
 6771 1b4c 8A02     		.2byte	0x28a
 6772 1b4e 0C       		.byte	0xc
 6773 1b4f 43       		.uleb128 0x43
 6774 1b50 01       		.byte	0x1
 6775 1b51 01       		.byte	0x1
 6776 1b52 2E070000 		.4byte	.LASF234
 6777 1b56 2E070000 		.4byte	.LASF234
 6778 1b5a 0E       		.byte	0xe
 6779 1b5b F602     		.2byte	0x2f6
 6780 1b5d 06       		.byte	0x6
 6781 1b5e 44       		.uleb128 0x44
 6782 1b5f 01       		.byte	0x1
 6783 1b60 01       		.byte	0x1
 6784 1b61 110C0000 		.4byte	.LASF235
 6785 1b65 110C0000 		.4byte	.LASF235
 6786 1b69 10       		.byte	0x10
 6787 1b6a 2C       		.byte	0x2c
 6788 1b6b 06       		.byte	0x6
 6789 1b6c 43       		.uleb128 0x43
 6790 1b6d 01       		.byte	0x1
 6791 1b6e 01       		.byte	0x1
 6792 1b6f 2A040000 		.4byte	.LASF236
 6793 1b73 2A040000 		.4byte	.LASF236
 6794 1b77 09       		.byte	0x9
 6795 1b78 E802     		.2byte	0x2e8
 6796 1b7a 0C       		.byte	0xc
 6797 1b7b 44       		.uleb128 0x44
 6798 1b7c 01       		.byte	0x1
 6799 1b7d 01       		.byte	0x1
 6800 1b7e D0080000 		.4byte	.LASF237
 6801 1b82 D0080000 		.4byte	.LASF237
 6802 1b86 10       		.byte	0x10
 6803 1b87 30       		.byte	0x30
 6804 1b88 06       		.byte	0x6
 6805 1b89 45       		.uleb128 0x45
 6806 1b8a 01       		.byte	0x1
 6807 1b8b 01       		.byte	0x1
 6808 1b8c BD0B0000 		.4byte	.LASF238
 6809 1b90 BD0B0000 		.4byte	.LASF238
 6810 1b94 45       		.uleb128 0x45
 6811 1b95 01       		.byte	0x1
 6812 1b96 01       		.byte	0x1
 6813 1b97 35040000 		.4byte	.LASF239
 6814 1b9b 35040000 		.4byte	.LASF239
 6815 1b9f 45       		.uleb128 0x45
 6816 1ba0 01       		.byte	0x1
 6817 1ba1 01       		.byte	0x1
 6818 1ba2 6A060000 		.4byte	.LASF240
 6819 1ba6 6A060000 		.4byte	.LASF240
 6820 1baa 45       		.uleb128 0x45
 6821 1bab 01       		.byte	0x1
 6822 1bac 01       		.byte	0x1
 6823 1bad 990B0000 		.4byte	.LASF241
 6824 1bb1 990B0000 		.4byte	.LASF241
ARM GAS  /tmp/ccaJFhKP.s 			page 141


 6825 1bb5 44       		.uleb128 0x44
 6826 1bb6 01       		.byte	0x1
 6827 1bb7 01       		.byte	0x1
 6828 1bb8 51080000 		.4byte	.LASF242
 6829 1bbc 51080000 		.4byte	.LASF242
 6830 1bc0 10       		.byte	0x10
 6831 1bc1 2F       		.byte	0x2f
 6832 1bc2 06       		.byte	0x6
 6833 1bc3 44       		.uleb128 0x44
 6834 1bc4 01       		.byte	0x1
 6835 1bc5 01       		.byte	0x1
 6836 1bc6 58000000 		.4byte	.LASF243
 6837 1bca 58000000 		.4byte	.LASF243
 6838 1bce 10       		.byte	0x10
 6839 1bcf 2E       		.byte	0x2e
 6840 1bd0 06       		.byte	0x6
 6841 1bd1 43       		.uleb128 0x43
 6842 1bd2 01       		.byte	0x1
 6843 1bd3 01       		.byte	0x1
 6844 1bd4 B1040000 		.4byte	.LASF244
 6845 1bd8 B1040000 		.4byte	.LASF244
 6846 1bdc 0C       		.byte	0xc
 6847 1bdd 6101     		.2byte	0x161
 6848 1bdf 09       		.byte	0x9
 6849 1be0 43       		.uleb128 0x43
 6850 1be1 01       		.byte	0x1
 6851 1be2 01       		.byte	0x1
 6852 1be3 3E030000 		.4byte	.LASF245
 6853 1be7 3E030000 		.4byte	.LASF245
 6854 1beb 11       		.byte	0x11
 6855 1bec B502     		.2byte	0x2b5
 6856 1bee 06       		.byte	0x6
 6857 1bef 43       		.uleb128 0x43
 6858 1bf0 01       		.byte	0x1
 6859 1bf1 01       		.byte	0x1
 6860 1bf2 39070000 		.4byte	.LASF246
 6861 1bf6 39070000 		.4byte	.LASF246
 6862 1bfa 0C       		.byte	0xc
 6863 1bfb 5F01     		.2byte	0x15f
 6864 1bfd 06       		.byte	0x6
 6865 1bfe 43       		.uleb128 0x43
 6866 1bff 01       		.byte	0x1
 6867 1c00 01       		.byte	0x1
 6868 1c01 36000000 		.4byte	.LASF247
 6869 1c05 36000000 		.4byte	.LASF247
 6870 1c09 0D       		.byte	0xd
 6871 1c0a 7A01     		.2byte	0x17a
 6872 1c0c 06       		.byte	0x6
 6873 1c0d 43       		.uleb128 0x43
 6874 1c0e 01       		.byte	0x1
 6875 1c0f 01       		.byte	0x1
 6876 1c10 39060000 		.4byte	.LASF248
 6877 1c14 39060000 		.4byte	.LASF248
 6878 1c18 0D       		.byte	0xd
 6879 1c19 8601     		.2byte	0x186
 6880 1c1b 0C       		.byte	0xc
 6881 1c1c 43       		.uleb128 0x43
ARM GAS  /tmp/ccaJFhKP.s 			page 142


 6882 1c1d 01       		.byte	0x1
 6883 1c1e 01       		.byte	0x1
 6884 1c1f E9030000 		.4byte	.LASF249
 6885 1c23 E9030000 		.4byte	.LASF249
 6886 1c27 0D       		.byte	0xd
 6887 1c28 6E01     		.2byte	0x16e
 6888 1c2a 06       		.byte	0x6
 6889 1c2b 43       		.uleb128 0x43
 6890 1c2c 01       		.byte	0x1
 6891 1c2d 01       		.byte	0x1
 6892 1c2e 1B080000 		.4byte	.LASF250
 6893 1c32 1B080000 		.4byte	.LASF250
 6894 1c36 0D       		.byte	0xd
 6895 1c37 7201     		.2byte	0x172
 6896 1c39 06       		.byte	0x6
 6897 1c3a 45       		.uleb128 0x45
 6898 1c3b 01       		.byte	0x1
 6899 1c3c 01       		.byte	0x1
 6900 1c3d 8A060000 		.4byte	.LASF251
 6901 1c41 8A060000 		.4byte	.LASF251
 6902 1c45 45       		.uleb128 0x45
 6903 1c46 01       		.byte	0x1
 6904 1c47 01       		.byte	0x1
 6905 1c48 83030000 		.4byte	.LASF252
 6906 1c4c 83030000 		.4byte	.LASF252
 6907 1c50 45       		.uleb128 0x45
 6908 1c51 01       		.byte	0x1
 6909 1c52 01       		.byte	0x1
 6910 1c53 86080000 		.4byte	.LASF253
 6911 1c57 86080000 		.4byte	.LASF253
 6912 1c5b 45       		.uleb128 0x45
 6913 1c5c 01       		.byte	0x1
 6914 1c5d 01       		.byte	0x1
 6915 1c5e E70A0000 		.4byte	.LASF254
 6916 1c62 E70A0000 		.4byte	.LASF254
 6917 1c66 00       		.byte	0
 6918              		.section	.debug_abbrev,"",%progbits
 6919              	.Ldebug_abbrev0:
 6920 0000 01       		.uleb128 0x1
 6921 0001 11       		.uleb128 0x11
 6922 0002 01       		.byte	0x1
 6923 0003 25       		.uleb128 0x25
 6924 0004 0E       		.uleb128 0xe
 6925 0005 13       		.uleb128 0x13
 6926 0006 0B       		.uleb128 0xb
 6927 0007 03       		.uleb128 0x3
 6928 0008 0E       		.uleb128 0xe
 6929 0009 1B       		.uleb128 0x1b
 6930 000a 0E       		.uleb128 0xe
 6931 000b 55       		.uleb128 0x55
 6932 000c 06       		.uleb128 0x6
 6933 000d 11       		.uleb128 0x11
 6934 000e 01       		.uleb128 0x1
 6935 000f 52       		.uleb128 0x52
 6936 0010 01       		.uleb128 0x1
 6937 0011 10       		.uleb128 0x10
 6938 0012 06       		.uleb128 0x6
ARM GAS  /tmp/ccaJFhKP.s 			page 143


 6939 0013 00       		.byte	0
 6940 0014 00       		.byte	0
 6941 0015 02       		.uleb128 0x2
 6942 0016 24       		.uleb128 0x24
 6943 0017 00       		.byte	0
 6944 0018 0B       		.uleb128 0xb
 6945 0019 0B       		.uleb128 0xb
 6946 001a 3E       		.uleb128 0x3e
 6947 001b 0B       		.uleb128 0xb
 6948 001c 03       		.uleb128 0x3
 6949 001d 08       		.uleb128 0x8
 6950 001e 00       		.byte	0
 6951 001f 00       		.byte	0
 6952 0020 03       		.uleb128 0x3
 6953 0021 24       		.uleb128 0x24
 6954 0022 00       		.byte	0
 6955 0023 0B       		.uleb128 0xb
 6956 0024 0B       		.uleb128 0xb
 6957 0025 3E       		.uleb128 0x3e
 6958 0026 0B       		.uleb128 0xb
 6959 0027 03       		.uleb128 0x3
 6960 0028 0E       		.uleb128 0xe
 6961 0029 00       		.byte	0
 6962 002a 00       		.byte	0
 6963 002b 04       		.uleb128 0x4
 6964 002c 16       		.uleb128 0x16
 6965 002d 00       		.byte	0
 6966 002e 03       		.uleb128 0x3
 6967 002f 0E       		.uleb128 0xe
 6968 0030 3A       		.uleb128 0x3a
 6969 0031 0B       		.uleb128 0xb
 6970 0032 3B       		.uleb128 0x3b
 6971 0033 0B       		.uleb128 0xb
 6972 0034 39       		.uleb128 0x39
 6973 0035 0B       		.uleb128 0xb
 6974 0036 49       		.uleb128 0x49
 6975 0037 13       		.uleb128 0x13
 6976 0038 00       		.byte	0
 6977 0039 00       		.byte	0
 6978 003a 05       		.uleb128 0x5
 6979 003b 35       		.uleb128 0x35
 6980 003c 00       		.byte	0
 6981 003d 49       		.uleb128 0x49
 6982 003e 13       		.uleb128 0x13
 6983 003f 00       		.byte	0
 6984 0040 00       		.byte	0
 6985 0041 06       		.uleb128 0x6
 6986 0042 0F       		.uleb128 0xf
 6987 0043 00       		.byte	0
 6988 0044 0B       		.uleb128 0xb
 6989 0045 0B       		.uleb128 0xb
 6990 0046 00       		.byte	0
 6991 0047 00       		.byte	0
 6992 0048 07       		.uleb128 0x7
 6993 0049 0F       		.uleb128 0xf
 6994 004a 00       		.byte	0
 6995 004b 0B       		.uleb128 0xb
ARM GAS  /tmp/ccaJFhKP.s 			page 144


 6996 004c 0B       		.uleb128 0xb
 6997 004d 49       		.uleb128 0x49
 6998 004e 13       		.uleb128 0x13
 6999 004f 00       		.byte	0
 7000 0050 00       		.byte	0
 7001 0051 08       		.uleb128 0x8
 7002 0052 13       		.uleb128 0x13
 7003 0053 00       		.byte	0
 7004 0054 03       		.uleb128 0x3
 7005 0055 0E       		.uleb128 0xe
 7006 0056 3C       		.uleb128 0x3c
 7007 0057 0C       		.uleb128 0xc
 7008 0058 00       		.byte	0
 7009 0059 00       		.byte	0
 7010 005a 09       		.uleb128 0x9
 7011 005b 01       		.uleb128 0x1
 7012 005c 01       		.byte	0x1
 7013 005d 49       		.uleb128 0x49
 7014 005e 13       		.uleb128 0x13
 7015 005f 01       		.uleb128 0x1
 7016 0060 13       		.uleb128 0x13
 7017 0061 00       		.byte	0
 7018 0062 00       		.byte	0
 7019 0063 0A       		.uleb128 0xa
 7020 0064 21       		.uleb128 0x21
 7021 0065 00       		.byte	0
 7022 0066 49       		.uleb128 0x49
 7023 0067 13       		.uleb128 0x13
 7024 0068 2F       		.uleb128 0x2f
 7025 0069 0B       		.uleb128 0xb
 7026 006a 00       		.byte	0
 7027 006b 00       		.byte	0
 7028 006c 0B       		.uleb128 0xb
 7029 006d 04       		.uleb128 0x4
 7030 006e 01       		.byte	0x1
 7031 006f 03       		.uleb128 0x3
 7032 0070 0E       		.uleb128 0xe
 7033 0071 3E       		.uleb128 0x3e
 7034 0072 0B       		.uleb128 0xb
 7035 0073 0B       		.uleb128 0xb
 7036 0074 0B       		.uleb128 0xb
 7037 0075 49       		.uleb128 0x49
 7038 0076 13       		.uleb128 0x13
 7039 0077 3A       		.uleb128 0x3a
 7040 0078 0B       		.uleb128 0xb
 7041 0079 3B       		.uleb128 0x3b
 7042 007a 0B       		.uleb128 0xb
 7043 007b 39       		.uleb128 0x39
 7044 007c 0B       		.uleb128 0xb
 7045 007d 01       		.uleb128 0x1
 7046 007e 13       		.uleb128 0x13
 7047 007f 00       		.byte	0
 7048 0080 00       		.byte	0
 7049 0081 0C       		.uleb128 0xc
 7050 0082 28       		.uleb128 0x28
 7051 0083 00       		.byte	0
 7052 0084 03       		.uleb128 0x3
ARM GAS  /tmp/ccaJFhKP.s 			page 145


 7053 0085 0E       		.uleb128 0xe
 7054 0086 1C       		.uleb128 0x1c
 7055 0087 0D       		.uleb128 0xd
 7056 0088 00       		.byte	0
 7057 0089 00       		.byte	0
 7058 008a 0D       		.uleb128 0xd
 7059 008b 28       		.uleb128 0x28
 7060 008c 00       		.byte	0
 7061 008d 03       		.uleb128 0x3
 7062 008e 0E       		.uleb128 0xe
 7063 008f 1C       		.uleb128 0x1c
 7064 0090 0B       		.uleb128 0xb
 7065 0091 00       		.byte	0
 7066 0092 00       		.byte	0
 7067 0093 0E       		.uleb128 0xe
 7068 0094 16       		.uleb128 0x16
 7069 0095 00       		.byte	0
 7070 0096 03       		.uleb128 0x3
 7071 0097 0E       		.uleb128 0xe
 7072 0098 3A       		.uleb128 0x3a
 7073 0099 0B       		.uleb128 0xb
 7074 009a 3B       		.uleb128 0x3b
 7075 009b 05       		.uleb128 0x5
 7076 009c 39       		.uleb128 0x39
 7077 009d 0B       		.uleb128 0xb
 7078 009e 49       		.uleb128 0x49
 7079 009f 13       		.uleb128 0x13
 7080 00a0 00       		.byte	0
 7081 00a1 00       		.byte	0
 7082 00a2 0F       		.uleb128 0xf
 7083 00a3 13       		.uleb128 0x13
 7084 00a4 01       		.byte	0x1
 7085 00a5 0B       		.uleb128 0xb
 7086 00a6 05       		.uleb128 0x5
 7087 00a7 3A       		.uleb128 0x3a
 7088 00a8 0B       		.uleb128 0xb
 7089 00a9 3B       		.uleb128 0x3b
 7090 00aa 0B       		.uleb128 0xb
 7091 00ab 39       		.uleb128 0x39
 7092 00ac 0B       		.uleb128 0xb
 7093 00ad 01       		.uleb128 0x1
 7094 00ae 13       		.uleb128 0x13
 7095 00af 00       		.byte	0
 7096 00b0 00       		.byte	0
 7097 00b1 10       		.uleb128 0x10
 7098 00b2 0D       		.uleb128 0xd
 7099 00b3 00       		.byte	0
 7100 00b4 03       		.uleb128 0x3
 7101 00b5 0E       		.uleb128 0xe
 7102 00b6 3A       		.uleb128 0x3a
 7103 00b7 0B       		.uleb128 0xb
 7104 00b8 3B       		.uleb128 0x3b
 7105 00b9 0B       		.uleb128 0xb
 7106 00ba 39       		.uleb128 0x39
 7107 00bb 0B       		.uleb128 0xb
 7108 00bc 49       		.uleb128 0x49
 7109 00bd 13       		.uleb128 0x13
ARM GAS  /tmp/ccaJFhKP.s 			page 146


 7110 00be 38       		.uleb128 0x38
 7111 00bf 0A       		.uleb128 0xa
 7112 00c0 00       		.byte	0
 7113 00c1 00       		.byte	0
 7114 00c2 11       		.uleb128 0x11
 7115 00c3 0D       		.uleb128 0xd
 7116 00c4 00       		.byte	0
 7117 00c5 03       		.uleb128 0x3
 7118 00c6 08       		.uleb128 0x8
 7119 00c7 3A       		.uleb128 0x3a
 7120 00c8 0B       		.uleb128 0xb
 7121 00c9 3B       		.uleb128 0x3b
 7122 00ca 0B       		.uleb128 0xb
 7123 00cb 39       		.uleb128 0x39
 7124 00cc 0B       		.uleb128 0xb
 7125 00cd 49       		.uleb128 0x49
 7126 00ce 13       		.uleb128 0x13
 7127 00cf 38       		.uleb128 0x38
 7128 00d0 0A       		.uleb128 0xa
 7129 00d1 00       		.byte	0
 7130 00d2 00       		.byte	0
 7131 00d3 12       		.uleb128 0x12
 7132 00d4 21       		.uleb128 0x21
 7133 00d5 00       		.byte	0
 7134 00d6 49       		.uleb128 0x49
 7135 00d7 13       		.uleb128 0x13
 7136 00d8 2F       		.uleb128 0x2f
 7137 00d9 05       		.uleb128 0x5
 7138 00da 00       		.byte	0
 7139 00db 00       		.byte	0
 7140 00dc 13       		.uleb128 0x13
 7141 00dd 16       		.uleb128 0x16
 7142 00de 00       		.byte	0
 7143 00df 03       		.uleb128 0x3
 7144 00e0 08       		.uleb128 0x8
 7145 00e1 3A       		.uleb128 0x3a
 7146 00e2 0B       		.uleb128 0xb
 7147 00e3 3B       		.uleb128 0x3b
 7148 00e4 05       		.uleb128 0x5
 7149 00e5 39       		.uleb128 0x39
 7150 00e6 0B       		.uleb128 0xb
 7151 00e7 49       		.uleb128 0x49
 7152 00e8 13       		.uleb128 0x13
 7153 00e9 00       		.byte	0
 7154 00ea 00       		.byte	0
 7155 00eb 14       		.uleb128 0x14
 7156 00ec 04       		.uleb128 0x4
 7157 00ed 01       		.byte	0x1
 7158 00ee 3E       		.uleb128 0x3e
 7159 00ef 0B       		.uleb128 0xb
 7160 00f0 0B       		.uleb128 0xb
 7161 00f1 0B       		.uleb128 0xb
 7162 00f2 49       		.uleb128 0x49
 7163 00f3 13       		.uleb128 0x13
 7164 00f4 3A       		.uleb128 0x3a
 7165 00f5 0B       		.uleb128 0xb
 7166 00f6 3B       		.uleb128 0x3b
ARM GAS  /tmp/ccaJFhKP.s 			page 147


 7167 00f7 05       		.uleb128 0x5
 7168 00f8 39       		.uleb128 0x39
 7169 00f9 0B       		.uleb128 0xb
 7170 00fa 01       		.uleb128 0x1
 7171 00fb 13       		.uleb128 0x13
 7172 00fc 00       		.byte	0
 7173 00fd 00       		.byte	0
 7174 00fe 15       		.uleb128 0x15
 7175 00ff 28       		.uleb128 0x28
 7176 0100 00       		.byte	0
 7177 0101 03       		.uleb128 0x3
 7178 0102 08       		.uleb128 0x8
 7179 0103 1C       		.uleb128 0x1c
 7180 0104 0B       		.uleb128 0xb
 7181 0105 00       		.byte	0
 7182 0106 00       		.byte	0
 7183 0107 16       		.uleb128 0x16
 7184 0108 13       		.uleb128 0x13
 7185 0109 01       		.byte	0x1
 7186 010a 0B       		.uleb128 0xb
 7187 010b 0B       		.uleb128 0xb
 7188 010c 3A       		.uleb128 0x3a
 7189 010d 0B       		.uleb128 0xb
 7190 010e 3B       		.uleb128 0x3b
 7191 010f 05       		.uleb128 0x5
 7192 0110 39       		.uleb128 0x39
 7193 0111 0B       		.uleb128 0xb
 7194 0112 01       		.uleb128 0x1
 7195 0113 13       		.uleb128 0x13
 7196 0114 00       		.byte	0
 7197 0115 00       		.byte	0
 7198 0116 17       		.uleb128 0x17
 7199 0117 0D       		.uleb128 0xd
 7200 0118 00       		.byte	0
 7201 0119 03       		.uleb128 0x3
 7202 011a 08       		.uleb128 0x8
 7203 011b 3A       		.uleb128 0x3a
 7204 011c 0B       		.uleb128 0xb
 7205 011d 3B       		.uleb128 0x3b
 7206 011e 05       		.uleb128 0x5
 7207 011f 39       		.uleb128 0x39
 7208 0120 0B       		.uleb128 0xb
 7209 0121 49       		.uleb128 0x49
 7210 0122 13       		.uleb128 0x13
 7211 0123 38       		.uleb128 0x38
 7212 0124 0A       		.uleb128 0xa
 7213 0125 00       		.byte	0
 7214 0126 00       		.byte	0
 7215 0127 18       		.uleb128 0x18
 7216 0128 0D       		.uleb128 0xd
 7217 0129 00       		.byte	0
 7218 012a 03       		.uleb128 0x3
 7219 012b 0E       		.uleb128 0xe
 7220 012c 3A       		.uleb128 0x3a
 7221 012d 0B       		.uleb128 0xb
 7222 012e 3B       		.uleb128 0x3b
 7223 012f 05       		.uleb128 0x5
ARM GAS  /tmp/ccaJFhKP.s 			page 148


 7224 0130 39       		.uleb128 0x39
 7225 0131 0B       		.uleb128 0xb
 7226 0132 49       		.uleb128 0x49
 7227 0133 13       		.uleb128 0x13
 7228 0134 38       		.uleb128 0x38
 7229 0135 0A       		.uleb128 0xa
 7230 0136 00       		.byte	0
 7231 0137 00       		.byte	0
 7232 0138 19       		.uleb128 0x19
 7233 0139 04       		.uleb128 0x4
 7234 013a 01       		.byte	0x1
 7235 013b 3E       		.uleb128 0x3e
 7236 013c 0B       		.uleb128 0xb
 7237 013d 0B       		.uleb128 0xb
 7238 013e 0B       		.uleb128 0xb
 7239 013f 49       		.uleb128 0x49
 7240 0140 13       		.uleb128 0x13
 7241 0141 3A       		.uleb128 0x3a
 7242 0142 0B       		.uleb128 0xb
 7243 0143 3B       		.uleb128 0x3b
 7244 0144 0B       		.uleb128 0xb
 7245 0145 39       		.uleb128 0x39
 7246 0146 0B       		.uleb128 0xb
 7247 0147 01       		.uleb128 0x1
 7248 0148 13       		.uleb128 0x13
 7249 0149 00       		.byte	0
 7250 014a 00       		.byte	0
 7251 014b 1A       		.uleb128 0x1a
 7252 014c 13       		.uleb128 0x13
 7253 014d 01       		.byte	0x1
 7254 014e 0B       		.uleb128 0xb
 7255 014f 0B       		.uleb128 0xb
 7256 0150 3A       		.uleb128 0x3a
 7257 0151 0B       		.uleb128 0xb
 7258 0152 3B       		.uleb128 0x3b
 7259 0153 0B       		.uleb128 0xb
 7260 0154 39       		.uleb128 0x39
 7261 0155 0B       		.uleb128 0xb
 7262 0156 01       		.uleb128 0x1
 7263 0157 13       		.uleb128 0x13
 7264 0158 00       		.byte	0
 7265 0159 00       		.byte	0
 7266 015a 1B       		.uleb128 0x1b
 7267 015b 34       		.uleb128 0x34
 7268 015c 00       		.byte	0
 7269 015d 03       		.uleb128 0x3
 7270 015e 0E       		.uleb128 0xe
 7271 015f 3A       		.uleb128 0x3a
 7272 0160 0B       		.uleb128 0xb
 7273 0161 3B       		.uleb128 0x3b
 7274 0162 0B       		.uleb128 0xb
 7275 0163 39       		.uleb128 0x39
 7276 0164 0B       		.uleb128 0xb
 7277 0165 49       		.uleb128 0x49
 7278 0166 13       		.uleb128 0x13
 7279 0167 02       		.uleb128 0x2
 7280 0168 0A       		.uleb128 0xa
ARM GAS  /tmp/ccaJFhKP.s 			page 149


 7281 0169 00       		.byte	0
 7282 016a 00       		.byte	0
 7283 016b 1C       		.uleb128 0x1c
 7284 016c 2E       		.uleb128 0x2e
 7285 016d 01       		.byte	0x1
 7286 016e 3F       		.uleb128 0x3f
 7287 016f 0C       		.uleb128 0xc
 7288 0170 03       		.uleb128 0x3
 7289 0171 0E       		.uleb128 0xe
 7290 0172 3A       		.uleb128 0x3a
 7291 0173 0B       		.uleb128 0xb
 7292 0174 3B       		.uleb128 0x3b
 7293 0175 05       		.uleb128 0x5
 7294 0176 39       		.uleb128 0x39
 7295 0177 0B       		.uleb128 0xb
 7296 0178 27       		.uleb128 0x27
 7297 0179 0C       		.uleb128 0xc
 7298 017a 49       		.uleb128 0x49
 7299 017b 13       		.uleb128 0x13
 7300 017c 11       		.uleb128 0x11
 7301 017d 01       		.uleb128 0x1
 7302 017e 12       		.uleb128 0x12
 7303 017f 01       		.uleb128 0x1
 7304 0180 40       		.uleb128 0x40
 7305 0181 06       		.uleb128 0x6
 7306 0182 9742     		.uleb128 0x2117
 7307 0184 0C       		.uleb128 0xc
 7308 0185 01       		.uleb128 0x1
 7309 0186 13       		.uleb128 0x13
 7310 0187 00       		.byte	0
 7311 0188 00       		.byte	0
 7312 0189 1D       		.uleb128 0x1d
 7313 018a 898201   		.uleb128 0x4109
 7314 018d 01       		.byte	0x1
 7315 018e 11       		.uleb128 0x11
 7316 018f 01       		.uleb128 0x1
 7317 0190 31       		.uleb128 0x31
 7318 0191 13       		.uleb128 0x13
 7319 0192 01       		.uleb128 0x1
 7320 0193 13       		.uleb128 0x13
 7321 0194 00       		.byte	0
 7322 0195 00       		.byte	0
 7323 0196 1E       		.uleb128 0x1e
 7324 0197 8A8201   		.uleb128 0x410a
 7325 019a 00       		.byte	0
 7326 019b 02       		.uleb128 0x2
 7327 019c 0A       		.uleb128 0xa
 7328 019d 9142     		.uleb128 0x2111
 7329 019f 0A       		.uleb128 0xa
 7330 01a0 00       		.byte	0
 7331 01a1 00       		.byte	0
 7332 01a2 1F       		.uleb128 0x1f
 7333 01a3 898201   		.uleb128 0x4109
 7334 01a6 00       		.byte	0
 7335 01a7 11       		.uleb128 0x11
 7336 01a8 01       		.uleb128 0x1
 7337 01a9 31       		.uleb128 0x31
ARM GAS  /tmp/ccaJFhKP.s 			page 150


 7338 01aa 13       		.uleb128 0x13
 7339 01ab 00       		.byte	0
 7340 01ac 00       		.byte	0
 7341 01ad 20       		.uleb128 0x20
 7342 01ae 2E       		.uleb128 0x2e
 7343 01af 01       		.byte	0x1
 7344 01b0 03       		.uleb128 0x3
 7345 01b1 0E       		.uleb128 0xe
 7346 01b2 3A       		.uleb128 0x3a
 7347 01b3 0B       		.uleb128 0xb
 7348 01b4 3B       		.uleb128 0x3b
 7349 01b5 05       		.uleb128 0x5
 7350 01b6 39       		.uleb128 0x39
 7351 01b7 0B       		.uleb128 0xb
 7352 01b8 27       		.uleb128 0x27
 7353 01b9 0C       		.uleb128 0xc
 7354 01ba 11       		.uleb128 0x11
 7355 01bb 01       		.uleb128 0x1
 7356 01bc 12       		.uleb128 0x12
 7357 01bd 01       		.uleb128 0x1
 7358 01be 40       		.uleb128 0x40
 7359 01bf 06       		.uleb128 0x6
 7360 01c0 9742     		.uleb128 0x2117
 7361 01c2 0C       		.uleb128 0xc
 7362 01c3 01       		.uleb128 0x1
 7363 01c4 13       		.uleb128 0x13
 7364 01c5 00       		.byte	0
 7365 01c6 00       		.byte	0
 7366 01c7 21       		.uleb128 0x21
 7367 01c8 05       		.uleb128 0x5
 7368 01c9 00       		.byte	0
 7369 01ca 03       		.uleb128 0x3
 7370 01cb 0E       		.uleb128 0xe
 7371 01cc 3A       		.uleb128 0x3a
 7372 01cd 0B       		.uleb128 0xb
 7373 01ce 3B       		.uleb128 0x3b
 7374 01cf 05       		.uleb128 0x5
 7375 01d0 39       		.uleb128 0x39
 7376 01d1 0B       		.uleb128 0xb
 7377 01d2 49       		.uleb128 0x49
 7378 01d3 13       		.uleb128 0x13
 7379 01d4 02       		.uleb128 0x2
 7380 01d5 06       		.uleb128 0x6
 7381 01d6 B742     		.uleb128 0x2137
 7382 01d8 06       		.uleb128 0x6
 7383 01d9 00       		.byte	0
 7384 01da 00       		.byte	0
 7385 01db 22       		.uleb128 0x22
 7386 01dc 34       		.uleb128 0x34
 7387 01dd 00       		.byte	0
 7388 01de 03       		.uleb128 0x3
 7389 01df 0E       		.uleb128 0xe
 7390 01e0 3A       		.uleb128 0x3a
 7391 01e1 0B       		.uleb128 0xb
 7392 01e2 3B       		.uleb128 0x3b
 7393 01e3 05       		.uleb128 0x5
 7394 01e4 39       		.uleb128 0x39
ARM GAS  /tmp/ccaJFhKP.s 			page 151


 7395 01e5 0B       		.uleb128 0xb
 7396 01e6 49       		.uleb128 0x49
 7397 01e7 13       		.uleb128 0x13
 7398 01e8 02       		.uleb128 0x2
 7399 01e9 0A       		.uleb128 0xa
 7400 01ea 00       		.byte	0
 7401 01eb 00       		.byte	0
 7402 01ec 23       		.uleb128 0x23
 7403 01ed 34       		.uleb128 0x34
 7404 01ee 00       		.byte	0
 7405 01ef 03       		.uleb128 0x3
 7406 01f0 0E       		.uleb128 0xe
 7407 01f1 3A       		.uleb128 0x3a
 7408 01f2 0B       		.uleb128 0xb
 7409 01f3 3B       		.uleb128 0x3b
 7410 01f4 05       		.uleb128 0x5
 7411 01f5 39       		.uleb128 0x39
 7412 01f6 0B       		.uleb128 0xb
 7413 01f7 49       		.uleb128 0x49
 7414 01f8 13       		.uleb128 0x13
 7415 01f9 02       		.uleb128 0x2
 7416 01fa 06       		.uleb128 0x6
 7417 01fb B742     		.uleb128 0x2137
 7418 01fd 06       		.uleb128 0x6
 7419 01fe 00       		.byte	0
 7420 01ff 00       		.byte	0
 7421 0200 24       		.uleb128 0x24
 7422 0201 898201   		.uleb128 0x4109
 7423 0204 01       		.byte	0x1
 7424 0205 11       		.uleb128 0x11
 7425 0206 01       		.uleb128 0x1
 7426 0207 31       		.uleb128 0x31
 7427 0208 13       		.uleb128 0x13
 7428 0209 00       		.byte	0
 7429 020a 00       		.byte	0
 7430 020b 25       		.uleb128 0x25
 7431 020c 2E       		.uleb128 0x2e
 7432 020d 01       		.byte	0x1
 7433 020e 03       		.uleb128 0x3
 7434 020f 0E       		.uleb128 0xe
 7435 0210 3A       		.uleb128 0x3a
 7436 0211 0B       		.uleb128 0xb
 7437 0212 3B       		.uleb128 0x3b
 7438 0213 0B       		.uleb128 0xb
 7439 0214 39       		.uleb128 0x39
 7440 0215 0B       		.uleb128 0xb
 7441 0216 27       		.uleb128 0x27
 7442 0217 0C       		.uleb128 0xc
 7443 0218 11       		.uleb128 0x11
 7444 0219 01       		.uleb128 0x1
 7445 021a 12       		.uleb128 0x12
 7446 021b 01       		.uleb128 0x1
 7447 021c 40       		.uleb128 0x40
 7448 021d 06       		.uleb128 0x6
 7449 021e 9742     		.uleb128 0x2117
 7450 0220 0C       		.uleb128 0xc
 7451 0221 01       		.uleb128 0x1
ARM GAS  /tmp/ccaJFhKP.s 			page 152


 7452 0222 13       		.uleb128 0x13
 7453 0223 00       		.byte	0
 7454 0224 00       		.byte	0
 7455 0225 26       		.uleb128 0x26
 7456 0226 05       		.uleb128 0x5
 7457 0227 00       		.byte	0
 7458 0228 03       		.uleb128 0x3
 7459 0229 0E       		.uleb128 0xe
 7460 022a 3A       		.uleb128 0x3a
 7461 022b 0B       		.uleb128 0xb
 7462 022c 3B       		.uleb128 0x3b
 7463 022d 0B       		.uleb128 0xb
 7464 022e 39       		.uleb128 0x39
 7465 022f 0B       		.uleb128 0xb
 7466 0230 49       		.uleb128 0x49
 7467 0231 13       		.uleb128 0x13
 7468 0232 02       		.uleb128 0x2
 7469 0233 06       		.uleb128 0x6
 7470 0234 B742     		.uleb128 0x2137
 7471 0236 06       		.uleb128 0x6
 7472 0237 00       		.byte	0
 7473 0238 00       		.byte	0
 7474 0239 27       		.uleb128 0x27
 7475 023a 0B       		.uleb128 0xb
 7476 023b 01       		.byte	0x1
 7477 023c 11       		.uleb128 0x11
 7478 023d 01       		.uleb128 0x1
 7479 023e 12       		.uleb128 0x12
 7480 023f 01       		.uleb128 0x1
 7481 0240 01       		.uleb128 0x1
 7482 0241 13       		.uleb128 0x13
 7483 0242 00       		.byte	0
 7484 0243 00       		.byte	0
 7485 0244 28       		.uleb128 0x28
 7486 0245 34       		.uleb128 0x34
 7487 0246 00       		.byte	0
 7488 0247 03       		.uleb128 0x3
 7489 0248 08       		.uleb128 0x8
 7490 0249 3A       		.uleb128 0x3a
 7491 024a 0B       		.uleb128 0xb
 7492 024b 3B       		.uleb128 0x3b
 7493 024c 0B       		.uleb128 0xb
 7494 024d 39       		.uleb128 0x39
 7495 024e 0B       		.uleb128 0xb
 7496 024f 49       		.uleb128 0x49
 7497 0250 13       		.uleb128 0x13
 7498 0251 02       		.uleb128 0x2
 7499 0252 06       		.uleb128 0x6
 7500 0253 B742     		.uleb128 0x2137
 7501 0255 06       		.uleb128 0x6
 7502 0256 00       		.byte	0
 7503 0257 00       		.byte	0
 7504 0258 29       		.uleb128 0x29
 7505 0259 2E       		.uleb128 0x2e
 7506 025a 01       		.byte	0x1
 7507 025b 3F       		.uleb128 0x3f
 7508 025c 0C       		.uleb128 0xc
ARM GAS  /tmp/ccaJFhKP.s 			page 153


 7509 025d 03       		.uleb128 0x3
 7510 025e 0E       		.uleb128 0xe
 7511 025f 3A       		.uleb128 0x3a
 7512 0260 0B       		.uleb128 0xb
 7513 0261 3B       		.uleb128 0x3b
 7514 0262 0B       		.uleb128 0xb
 7515 0263 39       		.uleb128 0x39
 7516 0264 0B       		.uleb128 0xb
 7517 0265 27       		.uleb128 0x27
 7518 0266 0C       		.uleb128 0xc
 7519 0267 11       		.uleb128 0x11
 7520 0268 01       		.uleb128 0x1
 7521 0269 12       		.uleb128 0x12
 7522 026a 01       		.uleb128 0x1
 7523 026b 40       		.uleb128 0x40
 7524 026c 06       		.uleb128 0x6
 7525 026d 9742     		.uleb128 0x2117
 7526 026f 0C       		.uleb128 0xc
 7527 0270 01       		.uleb128 0x1
 7528 0271 13       		.uleb128 0x13
 7529 0272 00       		.byte	0
 7530 0273 00       		.byte	0
 7531 0274 2A       		.uleb128 0x2a
 7532 0275 34       		.uleb128 0x34
 7533 0276 00       		.byte	0
 7534 0277 03       		.uleb128 0x3
 7535 0278 0E       		.uleb128 0xe
 7536 0279 3A       		.uleb128 0x3a
 7537 027a 0B       		.uleb128 0xb
 7538 027b 3B       		.uleb128 0x3b
 7539 027c 0B       		.uleb128 0xb
 7540 027d 39       		.uleb128 0x39
 7541 027e 0B       		.uleb128 0xb
 7542 027f 49       		.uleb128 0x49
 7543 0280 13       		.uleb128 0x13
 7544 0281 02       		.uleb128 0x2
 7545 0282 06       		.uleb128 0x6
 7546 0283 B742     		.uleb128 0x2137
 7547 0285 06       		.uleb128 0x6
 7548 0286 00       		.byte	0
 7549 0287 00       		.byte	0
 7550 0288 2B       		.uleb128 0x2b
 7551 0289 0B       		.uleb128 0xb
 7552 028a 01       		.byte	0x1
 7553 028b 55       		.uleb128 0x55
 7554 028c 06       		.uleb128 0x6
 7555 028d 01       		.uleb128 0x1
 7556 028e 13       		.uleb128 0x13
 7557 028f 00       		.byte	0
 7558 0290 00       		.byte	0
 7559 0291 2C       		.uleb128 0x2c
 7560 0292 2E       		.uleb128 0x2e
 7561 0293 01       		.byte	0x1
 7562 0294 3F       		.uleb128 0x3f
 7563 0295 0C       		.uleb128 0xc
 7564 0296 03       		.uleb128 0x3
 7565 0297 0E       		.uleb128 0xe
ARM GAS  /tmp/ccaJFhKP.s 			page 154


 7566 0298 3A       		.uleb128 0x3a
 7567 0299 0B       		.uleb128 0xb
 7568 029a 3B       		.uleb128 0x3b
 7569 029b 0B       		.uleb128 0xb
 7570 029c 39       		.uleb128 0x39
 7571 029d 0B       		.uleb128 0xb
 7572 029e 11       		.uleb128 0x11
 7573 029f 01       		.uleb128 0x1
 7574 02a0 12       		.uleb128 0x12
 7575 02a1 01       		.uleb128 0x1
 7576 02a2 40       		.uleb128 0x40
 7577 02a3 06       		.uleb128 0x6
 7578 02a4 9742     		.uleb128 0x2117
 7579 02a6 0C       		.uleb128 0xc
 7580 02a7 01       		.uleb128 0x1
 7581 02a8 13       		.uleb128 0x13
 7582 02a9 00       		.byte	0
 7583 02aa 00       		.byte	0
 7584 02ab 2D       		.uleb128 0x2d
 7585 02ac 898201   		.uleb128 0x4109
 7586 02af 00       		.byte	0
 7587 02b0 11       		.uleb128 0x11
 7588 02b1 01       		.uleb128 0x1
 7589 02b2 9542     		.uleb128 0x2115
 7590 02b4 0C       		.uleb128 0xc
 7591 02b5 31       		.uleb128 0x31
 7592 02b6 13       		.uleb128 0x13
 7593 02b7 00       		.byte	0
 7594 02b8 00       		.byte	0
 7595 02b9 2E       		.uleb128 0x2e
 7596 02ba 2E       		.uleb128 0x2e
 7597 02bb 01       		.byte	0x1
 7598 02bc 3F       		.uleb128 0x3f
 7599 02bd 0C       		.uleb128 0xc
 7600 02be 03       		.uleb128 0x3
 7601 02bf 0E       		.uleb128 0xe
 7602 02c0 3A       		.uleb128 0x3a
 7603 02c1 0B       		.uleb128 0xb
 7604 02c2 3B       		.uleb128 0x3b
 7605 02c3 0B       		.uleb128 0xb
 7606 02c4 39       		.uleb128 0x39
 7607 02c5 0B       		.uleb128 0xb
 7608 02c6 27       		.uleb128 0x27
 7609 02c7 0C       		.uleb128 0xc
 7610 02c8 49       		.uleb128 0x49
 7611 02c9 13       		.uleb128 0x13
 7612 02ca 11       		.uleb128 0x11
 7613 02cb 01       		.uleb128 0x1
 7614 02cc 12       		.uleb128 0x12
 7615 02cd 01       		.uleb128 0x1
 7616 02ce 40       		.uleb128 0x40
 7617 02cf 06       		.uleb128 0x6
 7618 02d0 9742     		.uleb128 0x2117
 7619 02d2 0C       		.uleb128 0xc
 7620 02d3 01       		.uleb128 0x1
 7621 02d4 13       		.uleb128 0x13
 7622 02d5 00       		.byte	0
ARM GAS  /tmp/ccaJFhKP.s 			page 155


 7623 02d6 00       		.byte	0
 7624 02d7 2F       		.uleb128 0x2f
 7625 02d8 2E       		.uleb128 0x2e
 7626 02d9 00       		.byte	0
 7627 02da 3F       		.uleb128 0x3f
 7628 02db 0C       		.uleb128 0xc
 7629 02dc 03       		.uleb128 0x3
 7630 02dd 0E       		.uleb128 0xe
 7631 02de 3A       		.uleb128 0x3a
 7632 02df 0B       		.uleb128 0xb
 7633 02e0 3B       		.uleb128 0x3b
 7634 02e1 0B       		.uleb128 0xb
 7635 02e2 39       		.uleb128 0x39
 7636 02e3 0B       		.uleb128 0xb
 7637 02e4 49       		.uleb128 0x49
 7638 02e5 13       		.uleb128 0x13
 7639 02e6 11       		.uleb128 0x11
 7640 02e7 01       		.uleb128 0x1
 7641 02e8 12       		.uleb128 0x12
 7642 02e9 01       		.uleb128 0x1
 7643 02ea 40       		.uleb128 0x40
 7644 02eb 0A       		.uleb128 0xa
 7645 02ec 9742     		.uleb128 0x2117
 7646 02ee 0C       		.uleb128 0xc
 7647 02ef 00       		.byte	0
 7648 02f0 00       		.byte	0
 7649 02f1 30       		.uleb128 0x30
 7650 02f2 2E       		.uleb128 0x2e
 7651 02f3 00       		.byte	0
 7652 02f4 3F       		.uleb128 0x3f
 7653 02f5 0C       		.uleb128 0xc
 7654 02f6 03       		.uleb128 0x3
 7655 02f7 0E       		.uleb128 0xe
 7656 02f8 3A       		.uleb128 0x3a
 7657 02f9 0B       		.uleb128 0xb
 7658 02fa 3B       		.uleb128 0x3b
 7659 02fb 0B       		.uleb128 0xb
 7660 02fc 39       		.uleb128 0x39
 7661 02fd 0B       		.uleb128 0xb
 7662 02fe 11       		.uleb128 0x11
 7663 02ff 01       		.uleb128 0x1
 7664 0300 12       		.uleb128 0x12
 7665 0301 01       		.uleb128 0x1
 7666 0302 40       		.uleb128 0x40
 7667 0303 0A       		.uleb128 0xa
 7668 0304 9742     		.uleb128 0x2117
 7669 0306 0C       		.uleb128 0xc
 7670 0307 00       		.byte	0
 7671 0308 00       		.byte	0
 7672 0309 31       		.uleb128 0x31
 7673 030a 2E       		.uleb128 0x2e
 7674 030b 01       		.byte	0x1
 7675 030c 3F       		.uleb128 0x3f
 7676 030d 0C       		.uleb128 0xc
 7677 030e 03       		.uleb128 0x3
 7678 030f 0E       		.uleb128 0xe
 7679 0310 3A       		.uleb128 0x3a
ARM GAS  /tmp/ccaJFhKP.s 			page 156


 7680 0311 0B       		.uleb128 0xb
 7681 0312 3B       		.uleb128 0x3b
 7682 0313 0B       		.uleb128 0xb
 7683 0314 39       		.uleb128 0x39
 7684 0315 0B       		.uleb128 0xb
 7685 0316 27       		.uleb128 0x27
 7686 0317 0C       		.uleb128 0xc
 7687 0318 11       		.uleb128 0x11
 7688 0319 01       		.uleb128 0x1
 7689 031a 12       		.uleb128 0x12
 7690 031b 01       		.uleb128 0x1
 7691 031c 40       		.uleb128 0x40
 7692 031d 0A       		.uleb128 0xa
 7693 031e 9742     		.uleb128 0x2117
 7694 0320 0C       		.uleb128 0xc
 7695 0321 01       		.uleb128 0x1
 7696 0322 13       		.uleb128 0x13
 7697 0323 00       		.byte	0
 7698 0324 00       		.byte	0
 7699 0325 32       		.uleb128 0x32
 7700 0326 2E       		.uleb128 0x2e
 7701 0327 01       		.byte	0x1
 7702 0328 3F       		.uleb128 0x3f
 7703 0329 0C       		.uleb128 0xc
 7704 032a 03       		.uleb128 0x3
 7705 032b 0E       		.uleb128 0xe
 7706 032c 3A       		.uleb128 0x3a
 7707 032d 0B       		.uleb128 0xb
 7708 032e 3B       		.uleb128 0x3b
 7709 032f 0B       		.uleb128 0xb
 7710 0330 39       		.uleb128 0x39
 7711 0331 0B       		.uleb128 0xb
 7712 0332 27       		.uleb128 0x27
 7713 0333 0C       		.uleb128 0xc
 7714 0334 20       		.uleb128 0x20
 7715 0335 0B       		.uleb128 0xb
 7716 0336 01       		.uleb128 0x1
 7717 0337 13       		.uleb128 0x13
 7718 0338 00       		.byte	0
 7719 0339 00       		.byte	0
 7720 033a 33       		.uleb128 0x33
 7721 033b 05       		.uleb128 0x5
 7722 033c 00       		.byte	0
 7723 033d 03       		.uleb128 0x3
 7724 033e 08       		.uleb128 0x8
 7725 033f 3A       		.uleb128 0x3a
 7726 0340 0B       		.uleb128 0xb
 7727 0341 3B       		.uleb128 0x3b
 7728 0342 0B       		.uleb128 0xb
 7729 0343 39       		.uleb128 0x39
 7730 0344 0B       		.uleb128 0xb
 7731 0345 49       		.uleb128 0x49
 7732 0346 13       		.uleb128 0x13
 7733 0347 00       		.byte	0
 7734 0348 00       		.byte	0
 7735 0349 34       		.uleb128 0x34
 7736 034a 34       		.uleb128 0x34
ARM GAS  /tmp/ccaJFhKP.s 			page 157


 7737 034b 00       		.byte	0
 7738 034c 03       		.uleb128 0x3
 7739 034d 08       		.uleb128 0x8
 7740 034e 3A       		.uleb128 0x3a
 7741 034f 0B       		.uleb128 0xb
 7742 0350 3B       		.uleb128 0x3b
 7743 0351 0B       		.uleb128 0xb
 7744 0352 39       		.uleb128 0x39
 7745 0353 0B       		.uleb128 0xb
 7746 0354 49       		.uleb128 0x49
 7747 0355 13       		.uleb128 0x13
 7748 0356 00       		.byte	0
 7749 0357 00       		.byte	0
 7750 0358 35       		.uleb128 0x35
 7751 0359 34       		.uleb128 0x34
 7752 035a 00       		.byte	0
 7753 035b 03       		.uleb128 0x3
 7754 035c 0E       		.uleb128 0xe
 7755 035d 3A       		.uleb128 0x3a
 7756 035e 0B       		.uleb128 0xb
 7757 035f 3B       		.uleb128 0x3b
 7758 0360 0B       		.uleb128 0xb
 7759 0361 39       		.uleb128 0x39
 7760 0362 0B       		.uleb128 0xb
 7761 0363 49       		.uleb128 0x49
 7762 0364 13       		.uleb128 0x13
 7763 0365 00       		.byte	0
 7764 0366 00       		.byte	0
 7765 0367 36       		.uleb128 0x36
 7766 0368 0B       		.uleb128 0xb
 7767 0369 01       		.byte	0x1
 7768 036a 00       		.byte	0
 7769 036b 00       		.byte	0
 7770 036c 37       		.uleb128 0x37
 7771 036d 05       		.uleb128 0x5
 7772 036e 00       		.byte	0
 7773 036f 03       		.uleb128 0x3
 7774 0370 08       		.uleb128 0x8
 7775 0371 3A       		.uleb128 0x3a
 7776 0372 0B       		.uleb128 0xb
 7777 0373 3B       		.uleb128 0x3b
 7778 0374 0B       		.uleb128 0xb
 7779 0375 39       		.uleb128 0x39
 7780 0376 0B       		.uleb128 0xb
 7781 0377 49       		.uleb128 0x49
 7782 0378 13       		.uleb128 0x13
 7783 0379 02       		.uleb128 0x2
 7784 037a 06       		.uleb128 0x6
 7785 037b B742     		.uleb128 0x2137
 7786 037d 06       		.uleb128 0x6
 7787 037e 00       		.byte	0
 7788 037f 00       		.byte	0
 7789 0380 38       		.uleb128 0x38
 7790 0381 2E       		.uleb128 0x2e
 7791 0382 01       		.byte	0x1
 7792 0383 3F       		.uleb128 0x3f
 7793 0384 0C       		.uleb128 0xc
ARM GAS  /tmp/ccaJFhKP.s 			page 158


 7794 0385 03       		.uleb128 0x3
 7795 0386 0E       		.uleb128 0xe
 7796 0387 3A       		.uleb128 0x3a
 7797 0388 0B       		.uleb128 0xb
 7798 0389 3B       		.uleb128 0x3b
 7799 038a 0B       		.uleb128 0xb
 7800 038b 39       		.uleb128 0x39
 7801 038c 0B       		.uleb128 0xb
 7802 038d 49       		.uleb128 0x49
 7803 038e 13       		.uleb128 0x13
 7804 038f 3C       		.uleb128 0x3c
 7805 0390 0C       		.uleb128 0xc
 7806 0391 01       		.uleb128 0x1
 7807 0392 13       		.uleb128 0x13
 7808 0393 00       		.byte	0
 7809 0394 00       		.byte	0
 7810 0395 39       		.uleb128 0x39
 7811 0396 18       		.uleb128 0x18
 7812 0397 00       		.byte	0
 7813 0398 00       		.byte	0
 7814 0399 00       		.byte	0
 7815 039a 3A       		.uleb128 0x3a
 7816 039b 0B       		.uleb128 0xb
 7817 039c 01       		.byte	0x1
 7818 039d 55       		.uleb128 0x55
 7819 039e 06       		.uleb128 0x6
 7820 039f 00       		.byte	0
 7821 03a0 00       		.byte	0
 7822 03a1 3B       		.uleb128 0x3b
 7823 03a2 2E       		.uleb128 0x2e
 7824 03a3 00       		.byte	0
 7825 03a4 3F       		.uleb128 0x3f
 7826 03a5 0C       		.uleb128 0xc
 7827 03a6 03       		.uleb128 0x3
 7828 03a7 0E       		.uleb128 0xe
 7829 03a8 3A       		.uleb128 0x3a
 7830 03a9 0B       		.uleb128 0xb
 7831 03aa 3B       		.uleb128 0x3b
 7832 03ab 0B       		.uleb128 0xb
 7833 03ac 39       		.uleb128 0x39
 7834 03ad 0B       		.uleb128 0xb
 7835 03ae 27       		.uleb128 0x27
 7836 03af 0C       		.uleb128 0xc
 7837 03b0 11       		.uleb128 0x11
 7838 03b1 01       		.uleb128 0x1
 7839 03b2 12       		.uleb128 0x12
 7840 03b3 01       		.uleb128 0x1
 7841 03b4 40       		.uleb128 0x40
 7842 03b5 0A       		.uleb128 0xa
 7843 03b6 9742     		.uleb128 0x2117
 7844 03b8 0C       		.uleb128 0xc
 7845 03b9 00       		.byte	0
 7846 03ba 00       		.byte	0
 7847 03bb 3C       		.uleb128 0x3c
 7848 03bc 05       		.uleb128 0x5
 7849 03bd 00       		.byte	0
 7850 03be 03       		.uleb128 0x3
ARM GAS  /tmp/ccaJFhKP.s 			page 159


 7851 03bf 08       		.uleb128 0x8
 7852 03c0 3A       		.uleb128 0x3a
 7853 03c1 0B       		.uleb128 0xb
 7854 03c2 3B       		.uleb128 0x3b
 7855 03c3 0B       		.uleb128 0xb
 7856 03c4 39       		.uleb128 0x39
 7857 03c5 0B       		.uleb128 0xb
 7858 03c6 49       		.uleb128 0x49
 7859 03c7 13       		.uleb128 0x13
 7860 03c8 02       		.uleb128 0x2
 7861 03c9 0A       		.uleb128 0xa
 7862 03ca 00       		.byte	0
 7863 03cb 00       		.byte	0
 7864 03cc 3D       		.uleb128 0x3d
 7865 03cd 2E       		.uleb128 0x2e
 7866 03ce 01       		.byte	0x1
 7867 03cf 31       		.uleb128 0x31
 7868 03d0 13       		.uleb128 0x13
 7869 03d1 11       		.uleb128 0x11
 7870 03d2 01       		.uleb128 0x1
 7871 03d3 12       		.uleb128 0x12
 7872 03d4 01       		.uleb128 0x1
 7873 03d5 40       		.uleb128 0x40
 7874 03d6 06       		.uleb128 0x6
 7875 03d7 9742     		.uleb128 0x2117
 7876 03d9 0C       		.uleb128 0xc
 7877 03da 01       		.uleb128 0x1
 7878 03db 13       		.uleb128 0x13
 7879 03dc 00       		.byte	0
 7880 03dd 00       		.byte	0
 7881 03de 3E       		.uleb128 0x3e
 7882 03df 05       		.uleb128 0x5
 7883 03e0 00       		.byte	0
 7884 03e1 31       		.uleb128 0x31
 7885 03e2 13       		.uleb128 0x13
 7886 03e3 02       		.uleb128 0x2
 7887 03e4 06       		.uleb128 0x6
 7888 03e5 B742     		.uleb128 0x2137
 7889 03e7 06       		.uleb128 0x6
 7890 03e8 00       		.byte	0
 7891 03e9 00       		.byte	0
 7892 03ea 3F       		.uleb128 0x3f
 7893 03eb 34       		.uleb128 0x34
 7894 03ec 00       		.byte	0
 7895 03ed 31       		.uleb128 0x31
 7896 03ee 13       		.uleb128 0x13
 7897 03ef 00       		.byte	0
 7898 03f0 00       		.byte	0
 7899 03f1 40       		.uleb128 0x40
 7900 03f2 1D       		.uleb128 0x1d
 7901 03f3 01       		.byte	0x1
 7902 03f4 31       		.uleb128 0x31
 7903 03f5 13       		.uleb128 0x13
 7904 03f6 55       		.uleb128 0x55
 7905 03f7 06       		.uleb128 0x6
 7906 03f8 58       		.uleb128 0x58
 7907 03f9 0B       		.uleb128 0xb
ARM GAS  /tmp/ccaJFhKP.s 			page 160


 7908 03fa 59       		.uleb128 0x59
 7909 03fb 0B       		.uleb128 0xb
 7910 03fc 57       		.uleb128 0x57
 7911 03fd 0B       		.uleb128 0xb
 7912 03fe 00       		.byte	0
 7913 03ff 00       		.byte	0
 7914 0400 41       		.uleb128 0x41
 7915 0401 34       		.uleb128 0x34
 7916 0402 00       		.byte	0
 7917 0403 31       		.uleb128 0x31
 7918 0404 13       		.uleb128 0x13
 7919 0405 02       		.uleb128 0x2
 7920 0406 06       		.uleb128 0x6
 7921 0407 B742     		.uleb128 0x2137
 7922 0409 06       		.uleb128 0x6
 7923 040a 00       		.byte	0
 7924 040b 00       		.byte	0
 7925 040c 42       		.uleb128 0x42
 7926 040d 0B       		.uleb128 0xb
 7927 040e 01       		.byte	0x1
 7928 040f 31       		.uleb128 0x31
 7929 0410 13       		.uleb128 0x13
 7930 0411 55       		.uleb128 0x55
 7931 0412 06       		.uleb128 0x6
 7932 0413 00       		.byte	0
 7933 0414 00       		.byte	0
 7934 0415 43       		.uleb128 0x43
 7935 0416 2E       		.uleb128 0x2e
 7936 0417 00       		.byte	0
 7937 0418 3F       		.uleb128 0x3f
 7938 0419 0C       		.uleb128 0xc
 7939 041a 3C       		.uleb128 0x3c
 7940 041b 0C       		.uleb128 0xc
 7941 041c 8740     		.uleb128 0x2007
 7942 041e 0E       		.uleb128 0xe
 7943 041f 03       		.uleb128 0x3
 7944 0420 0E       		.uleb128 0xe
 7945 0421 3A       		.uleb128 0x3a
 7946 0422 0B       		.uleb128 0xb
 7947 0423 3B       		.uleb128 0x3b
 7948 0424 05       		.uleb128 0x5
 7949 0425 39       		.uleb128 0x39
 7950 0426 0B       		.uleb128 0xb
 7951 0427 00       		.byte	0
 7952 0428 00       		.byte	0
 7953 0429 44       		.uleb128 0x44
 7954 042a 2E       		.uleb128 0x2e
 7955 042b 00       		.byte	0
 7956 042c 3F       		.uleb128 0x3f
 7957 042d 0C       		.uleb128 0xc
 7958 042e 3C       		.uleb128 0x3c
 7959 042f 0C       		.uleb128 0xc
 7960 0430 8740     		.uleb128 0x2007
 7961 0432 0E       		.uleb128 0xe
 7962 0433 03       		.uleb128 0x3
 7963 0434 0E       		.uleb128 0xe
 7964 0435 3A       		.uleb128 0x3a
ARM GAS  /tmp/ccaJFhKP.s 			page 161


 7965 0436 0B       		.uleb128 0xb
 7966 0437 3B       		.uleb128 0x3b
 7967 0438 0B       		.uleb128 0xb
 7968 0439 39       		.uleb128 0x39
 7969 043a 0B       		.uleb128 0xb
 7970 043b 00       		.byte	0
 7971 043c 00       		.byte	0
 7972 043d 45       		.uleb128 0x45
 7973 043e 2E       		.uleb128 0x2e
 7974 043f 00       		.byte	0
 7975 0440 3F       		.uleb128 0x3f
 7976 0441 0C       		.uleb128 0xc
 7977 0442 3C       		.uleb128 0x3c
 7978 0443 0C       		.uleb128 0xc
 7979 0444 8740     		.uleb128 0x2007
 7980 0446 0E       		.uleb128 0xe
 7981 0447 03       		.uleb128 0x3
 7982 0448 0E       		.uleb128 0xe
 7983 0449 00       		.byte	0
 7984 044a 00       		.byte	0
 7985 044b 00       		.byte	0
 7986              		.section	.debug_loc,"",%progbits
 7987              	.Ldebug_loc0:
 7988              	.LLST49:
 7989 0000 00000000 		.4byte	.LFB57
 7990 0004 02000000 		.4byte	.LCFI21
 7991 0008 0200     		.2byte	0x2
 7992 000a 7D       		.byte	0x7d
 7993 000b 00       		.sleb128 0
 7994 000c 02000000 		.4byte	.LCFI21
 7995 0010 CC000000 		.4byte	.LFE57
 7996 0014 0200     		.2byte	0x2
 7997 0016 7D       		.byte	0x7d
 7998 0017 10       		.sleb128 16
 7999 0018 00000000 		.4byte	0
 8000 001c 00000000 		.4byte	0
 8001              	.LLST2:
 8002 0020 30000000 		.4byte	.LFB56
 8003 0024 32000000 		.4byte	.LCFI1
 8004 0028 0200     		.2byte	0x2
 8005 002a 7D       		.byte	0x7d
 8006 002b 00       		.sleb128 0
 8007 002c 32000000 		.4byte	.LCFI1
 8008 0030 8C000000 		.4byte	.LFE56
 8009 0034 0200     		.2byte	0x2
 8010 0036 7D       		.byte	0x7d
 8011 0037 20       		.sleb128 32
 8012 0038 00000000 		.4byte	0
 8013 003c 00000000 		.4byte	0
 8014              	.LVUS3:
 8015 0040 00       		.uleb128 0
 8016 0041 01       		.uleb128 .LVU30
 8017 0042 01       		.uleb128 .LVU30
 8018 0043 00       		.uleb128 0
 8019              	.LLST3:
 8020 0044 30000000 		.4byte	.LVL3
 8021 0048 4A000000 		.4byte	.LVL4
ARM GAS  /tmp/ccaJFhKP.s 			page 162


 8022 004c 0100     		.2byte	0x1
 8023 004e 50       		.byte	0x50
 8024 004f 4A000000 		.4byte	.LVL4
 8025 0053 8C000000 		.4byte	.LFE56
 8026 0057 0400     		.2byte	0x4
 8027 0059 F3       		.byte	0xf3
 8028 005a 01       		.uleb128 0x1
 8029 005b 50       		.byte	0x50
 8030 005c 9F       		.byte	0x9f
 8031 005d 00000000 		.4byte	0
 8032 0061 00000000 		.4byte	0
 8033              	.LVUS4:
 8034 0065 01       		.uleb128 .LVU30
 8035 0066 00       		.uleb128 .LVU39
 8036 0067 00       		.uleb128 .LVU40
 8037 0068 00       		.uleb128 .LVU50
 8038              	.LLST4:
 8039 0069 4A000000 		.4byte	.LVL4
 8040 006d 5E000000 		.4byte	.LVL6
 8041 0071 0100     		.2byte	0x1
 8042 0073 54       		.byte	0x54
 8043 0074 60000000 		.4byte	.LVL7
 8044 0078 78000000 		.4byte	.LVL9
 8045 007c 0100     		.2byte	0x1
 8046 007e 54       		.byte	0x54
 8047 007f 00000000 		.4byte	0
 8048 0083 00000000 		.4byte	0
 8049              	.LLST39:
 8050 0087 44060000 		.4byte	.LFB55
 8051 008b 46060000 		.4byte	.LCFI16
 8052 008f 0200     		.2byte	0x2
 8053 0091 7D       		.byte	0x7d
 8054 0092 00       		.sleb128 0
 8055 0093 46060000 		.4byte	.LCFI16
 8056 0097 C4060000 		.4byte	.LFE55
 8057 009b 0200     		.2byte	0x2
 8058 009d 7D       		.byte	0x7d
 8059 009e 18       		.sleb128 24
 8060 009f 00000000 		.4byte	0
 8061 00a3 00000000 		.4byte	0
 8062              	.LVUS40:
 8063 00a7 00       		.uleb128 0
 8064 00a8 00       		.uleb128 .LVU530
 8065 00a9 00       		.uleb128 .LVU530
 8066 00aa 00       		.uleb128 0
 8067              	.LLST40:
 8068 00ab 44060000 		.4byte	.LVL97
 8069 00af 49060000 		.4byte	.LVL98-1
 8070 00b3 0100     		.2byte	0x1
 8071 00b5 50       		.byte	0x50
 8072 00b6 49060000 		.4byte	.LVL98-1
 8073 00ba C4060000 		.4byte	.LFE55
 8074 00be 0400     		.2byte	0x4
 8075 00c0 F3       		.byte	0xf3
 8076 00c1 01       		.uleb128 0x1
 8077 00c2 50       		.byte	0x50
 8078 00c3 9F       		.byte	0x9f
ARM GAS  /tmp/ccaJFhKP.s 			page 163


 8079 00c4 00000000 		.4byte	0
 8080 00c8 00000000 		.4byte	0
 8081              	.LLST25:
 8082 00cc EC030000 		.4byte	.LFB54
 8083 00d0 F2030000 		.4byte	.LCFI7
 8084 00d4 0200     		.2byte	0x2
 8085 00d6 7D       		.byte	0x7d
 8086 00d7 00       		.sleb128 0
 8087 00d8 F2030000 		.4byte	.LCFI7
 8088 00dc 68040000 		.4byte	.LFE54
 8089 00e0 0200     		.2byte	0x2
 8090 00e2 7D       		.byte	0x7d
 8091 00e3 20       		.sleb128 32
 8092 00e4 00000000 		.4byte	0
 8093 00e8 00000000 		.4byte	0
 8094              	.LVUS26:
 8095 00ec 00       		.uleb128 0
 8096 00ed 00       		.uleb128 .LVU342
 8097 00ee 00       		.uleb128 .LVU342
 8098 00ef 00       		.uleb128 0
 8099              	.LLST26:
 8100 00f0 EC030000 		.4byte	.LVL55
 8101 00f4 10040000 		.4byte	.LVL56
 8102 00f8 0100     		.2byte	0x1
 8103 00fa 50       		.byte	0x50
 8104 00fb 10040000 		.4byte	.LVL56
 8105 00ff 68040000 		.4byte	.LFE54
 8106 0103 0400     		.2byte	0x4
 8107 0105 F3       		.byte	0xf3
 8108 0106 01       		.uleb128 0x1
 8109 0107 50       		.byte	0x50
 8110 0108 9F       		.byte	0x9f
 8111 0109 00000000 		.4byte	0
 8112 010d 00000000 		.4byte	0
 8113              	.LVUS27:
 8114 0111 00       		.uleb128 .LVU351
 8115 0112 00       		.uleb128 .LVU354
 8116 0113 00       		.uleb128 .LVU354
 8117 0114 01       		.uleb128 .LVU356
 8118 0115 01       		.uleb128 .LVU356
 8119 0116 00       		.uleb128 .LVU358
 8120              	.LLST27:
 8121 0117 2A040000 		.4byte	.LVL58
 8122 011b 32040000 		.4byte	.LVL60
 8123 011f 0100     		.2byte	0x1
 8124 0121 54       		.byte	0x54
 8125 0122 32040000 		.4byte	.LVL60
 8126 0126 38040000 		.4byte	.LVL61
 8127 012a 0300     		.2byte	0x3
 8128 012c 74       		.byte	0x74
 8129 012d 7F       		.sleb128 -1
 8130 012e 9F       		.byte	0x9f
 8131 012f 38040000 		.4byte	.LVL61
 8132 0133 3C040000 		.4byte	.LVL62
 8133 0137 0100     		.2byte	0x1
 8134 0139 54       		.byte	0x54
 8135 013a 00000000 		.4byte	0
ARM GAS  /tmp/ccaJFhKP.s 			page 164


 8136 013e 00000000 		.4byte	0
 8137              	.LVUS28:
 8138 0142 00       		.uleb128 .LVU362
 8139 0143 01       		.uleb128 .LVU365
 8140 0144 01       		.uleb128 .LVU365
 8141 0145 00       		.uleb128 .LVU367
 8142 0146 00       		.uleb128 .LVU367
 8143 0147 00       		.uleb128 0
 8144              	.LLST28:
 8145 0148 46040000 		.4byte	.LVL63
 8146 014c 52040000 		.4byte	.LVL65
 8147 0150 0100     		.2byte	0x1
 8148 0152 54       		.byte	0x54
 8149 0153 52040000 		.4byte	.LVL65
 8150 0157 54040000 		.4byte	.LVL66
 8151 015b 0300     		.2byte	0x3
 8152 015d 74       		.byte	0x74
 8153 015e 7F       		.sleb128 -1
 8154 015f 9F       		.byte	0x9f
 8155 0160 54040000 		.4byte	.LVL66
 8156 0164 68040000 		.4byte	.LFE54
 8157 0168 0100     		.2byte	0x1
 8158 016a 54       		.byte	0x54
 8159 016b 00000000 		.4byte	0
 8160 016f 00000000 		.4byte	0
 8161              	.LLST32:
 8162 0173 70050000 		.4byte	.LFB53
 8163 0177 72050000 		.4byte	.LCFI12
 8164 017b 0200     		.2byte	0x2
 8165 017d 7D       		.byte	0x7d
 8166 017e 00       		.sleb128 0
 8167 017f 72050000 		.4byte	.LCFI12
 8168 0183 9C050000 		.4byte	.LFE53
 8169 0187 0200     		.2byte	0x2
 8170 0189 7D       		.byte	0x7d
 8171 018a 10       		.sleb128 16
 8172 018b 00000000 		.4byte	0
 8173 018f 00000000 		.4byte	0
 8174              	.LVUS33:
 8175 0193 00       		.uleb128 0
 8176 0194 00       		.uleb128 .LVU453
 8177 0195 00       		.uleb128 .LVU453
 8178 0196 00       		.uleb128 0
 8179              	.LLST33:
 8180 0197 70050000 		.4byte	.LVL78
 8181 019b 7A050000 		.4byte	.LVL80
 8182 019f 0100     		.2byte	0x1
 8183 01a1 50       		.byte	0x50
 8184 01a2 7A050000 		.4byte	.LVL80
 8185 01a6 9C050000 		.4byte	.LFE53
 8186 01aa 0400     		.2byte	0x4
 8187 01ac F3       		.byte	0xf3
 8188 01ad 01       		.uleb128 0x1
 8189 01ae 50       		.byte	0x50
 8190 01af 9F       		.byte	0x9f
 8191 01b0 00000000 		.4byte	0
 8192 01b4 00000000 		.4byte	0
ARM GAS  /tmp/ccaJFhKP.s 			page 165


 8193              	.LLST0:
 8194 01b8 00000000 		.4byte	.LFB52
 8195 01bc 04000000 		.4byte	.LCFI0
 8196 01c0 0200     		.2byte	0x2
 8197 01c2 7D       		.byte	0x7d
 8198 01c3 00       		.sleb128 0
 8199 01c4 04000000 		.4byte	.LCFI0
 8200 01c8 30000000 		.4byte	.LFE52
 8201 01cc 0200     		.2byte	0x2
 8202 01ce 7D       		.byte	0x7d
 8203 01cf 08       		.sleb128 8
 8204 01d0 00000000 		.4byte	0
 8205 01d4 00000000 		.4byte	0
 8206              	.LVUS1:
 8207 01d8 00       		.uleb128 0
 8208 01d9 00       		.uleb128 .LVU9
 8209 01da 00       		.uleb128 .LVU9
 8210 01db 00       		.uleb128 0
 8211              	.LLST1:
 8212 01dc 00000000 		.4byte	.LVL0
 8213 01e0 16000000 		.4byte	.LVL1
 8214 01e4 0100     		.2byte	0x1
 8215 01e6 50       		.byte	0x50
 8216 01e7 16000000 		.4byte	.LVL1
 8217 01eb 30000000 		.4byte	.LFE52
 8218 01ef 0400     		.2byte	0x4
 8219 01f1 F3       		.byte	0xf3
 8220 01f2 01       		.uleb128 0x1
 8221 01f3 50       		.byte	0x50
 8222 01f4 9F       		.byte	0x9f
 8223 01f5 00000000 		.4byte	0
 8224 01f9 00000000 		.4byte	0
 8225              	.LLST43:
 8226 01fd 88070000 		.4byte	.LFB51
 8227 0201 8C070000 		.4byte	.LCFI19
 8228 0205 0200     		.2byte	0x2
 8229 0207 7D       		.byte	0x7d
 8230 0208 00       		.sleb128 0
 8231 0209 8C070000 		.4byte	.LCFI19
 8232 020d 9C070000 		.4byte	.LCFI20
 8233 0211 0200     		.2byte	0x2
 8234 0213 7D       		.byte	0x7d
 8235 0214 24       		.sleb128 36
 8236 0215 9C070000 		.4byte	.LCFI20
 8237 0219 F8080000 		.4byte	.LFE51
 8238 021d 0300     		.2byte	0x3
 8239 021f 7D       		.byte	0x7d
 8240 0220 C800     		.sleb128 72
 8241 0222 00000000 		.4byte	0
 8242 0226 00000000 		.4byte	0
 8243              	.LVUS44:
 8244 022a 00       		.uleb128 0
 8245 022b 00       		.uleb128 .LVU607
 8246 022c 00       		.uleb128 .LVU607
 8247 022d 00       		.uleb128 0
 8248              	.LLST44:
 8249 022e 88070000 		.4byte	.LVL116
ARM GAS  /tmp/ccaJFhKP.s 			page 166


 8250 0232 9F070000 		.4byte	.LVL117-1
 8251 0236 0100     		.2byte	0x1
 8252 0238 50       		.byte	0x50
 8253 0239 9F070000 		.4byte	.LVL117-1
 8254 023d F8080000 		.4byte	.LFE51
 8255 0241 0400     		.2byte	0x4
 8256 0243 F3       		.byte	0xf3
 8257 0244 01       		.uleb128 0x1
 8258 0245 50       		.byte	0x50
 8259 0246 9F       		.byte	0x9f
 8260 0247 00000000 		.4byte	0
 8261 024b 00000000 		.4byte	0
 8262              	.LVUS45:
 8263 024f 01       		.uleb128 .LVU616
 8264 0250 04       		.uleb128 .LVU619
 8265 0251 04       		.uleb128 .LVU619
 8266 0252 00       		.uleb128 0
 8267              	.LLST45:
 8268 0253 BE070000 		.4byte	.LVL118
 8269 0257 BE070000 		.4byte	.LVL118
 8270 025b 0200     		.2byte	0x2
 8271 025d 30       		.byte	0x30
 8272 025e 9F       		.byte	0x9f
 8273 025f BE070000 		.4byte	.LVL118
 8274 0263 F8080000 		.4byte	.LFE51
 8275 0267 0100     		.2byte	0x1
 8276 0269 56       		.byte	0x56
 8277 026a 00000000 		.4byte	0
 8278 026e 00000000 		.4byte	0
 8279              	.LVUS46:
 8280 0272 03       		.uleb128 .LVU618
 8281 0273 04       		.uleb128 .LVU619
 8282 0274 04       		.uleb128 .LVU619
 8283 0275 00       		.uleb128 .LVU650
 8284 0276 00       		.uleb128 .LVU651
 8285 0277 01       		.uleb128 .LVU654
 8286 0278 01       		.uleb128 .LVU654
 8287 0279 01       		.uleb128 .LVU656
 8288 027a 00       		.uleb128 .LVU665
 8289 027b 00       		.uleb128 0
 8290              	.LLST46:
 8291 027c BE070000 		.4byte	.LVL118
 8292 0280 BE070000 		.4byte	.LVL118
 8293 0284 0200     		.2byte	0x2
 8294 0286 31       		.byte	0x31
 8295 0287 9F       		.byte	0x9f
 8296 0288 BE070000 		.4byte	.LVL118
 8297 028c 08080000 		.4byte	.LVL127
 8298 0290 0100     		.2byte	0x1
 8299 0292 54       		.byte	0x54
 8300 0293 0A080000 		.4byte	.LVL128
 8301 0297 0E080000 		.4byte	.LVL129
 8302 029b 0100     		.2byte	0x1
 8303 029d 54       		.byte	0x54
 8304 029e 0E080000 		.4byte	.LVL129
 8305 02a2 12080000 		.4byte	.LVL130
 8306 02a6 0200     		.2byte	0x2
ARM GAS  /tmp/ccaJFhKP.s 			page 167


 8307 02a8 31       		.byte	0x31
 8308 02a9 9F       		.byte	0x9f
 8309 02aa 48080000 		.4byte	.LVL138
 8310 02ae F8080000 		.4byte	.LFE51
 8311 02b2 0100     		.2byte	0x1
 8312 02b4 54       		.byte	0x54
 8313 02b5 00000000 		.4byte	0
 8314 02b9 00000000 		.4byte	0
 8315              	.LVUS47:
 8316 02bd 04       		.uleb128 .LVU619
 8317 02be 01       		.uleb128 .LVU637
 8318 02bf 01       		.uleb128 .LVU637
 8319 02c0 00       		.uleb128 .LVU640
 8320 02c1 00       		.uleb128 .LVU645
 8321 02c2 00       		.uleb128 0
 8322              	.LLST47:
 8323 02c3 BE070000 		.4byte	.LVL118
 8324 02c7 EC070000 		.4byte	.LVL123
 8325 02cb 0100     		.2byte	0x1
 8326 02cd 55       		.byte	0x55
 8327 02ce EC070000 		.4byte	.LVL123
 8328 02d2 F2070000 		.4byte	.LVL125
 8329 02d6 0200     		.2byte	0x2
 8330 02d8 30       		.byte	0x30
 8331 02d9 9F       		.byte	0x9f
 8332 02da FA070000 		.4byte	.LVL126
 8333 02de F8080000 		.4byte	.LFE51
 8334 02e2 0100     		.2byte	0x1
 8335 02e4 55       		.byte	0x55
 8336 02e5 00000000 		.4byte	0
 8337 02e9 00000000 		.4byte	0
 8338              	.LVUS48:
 8339 02ed 02       		.uleb128 .LVU673
 8340 02ee 00       		.uleb128 .LVU676
 8341 02ef 00       		.uleb128 .LVU678
 8342 02f0 01       		.uleb128 .LVU682
 8343 02f1 01       		.uleb128 .LVU682
 8344 02f2 00       		.uleb128 .LVU684
 8345              	.LLST48:
 8346 02f3 64080000 		.4byte	.LVL141
 8347 02f7 6A080000 		.4byte	.LVL142
 8348 02fb 0200     		.2byte	0x2
 8349 02fd 30       		.byte	0x30
 8350 02fe 9F       		.byte	0x9f
 8351 02ff 74080000 		.4byte	.LVL143
 8352 0303 90080000 		.4byte	.LVL146
 8353 0307 0100     		.2byte	0x1
 8354 0309 5A       		.byte	0x5a
 8355 030a 90080000 		.4byte	.LVL146
 8356 030e 9A080000 		.4byte	.LVL147
 8357 0312 0800     		.2byte	0x8
 8358 0314 91       		.byte	0x91
 8359 0315 BC7F     		.sleb128 -68
 8360 0317 94       		.byte	0x94
 8361 0318 01       		.byte	0x1
 8362 0319 23       		.byte	0x23
 8363 031a 01       		.uleb128 0x1
ARM GAS  /tmp/ccaJFhKP.s 			page 168


 8364 031b 9F       		.byte	0x9f
 8365 031c 00000000 		.4byte	0
 8366 0320 00000000 		.4byte	0
 8367              	.LLST41:
 8368 0324 C4060000 		.4byte	.LFB50
 8369 0328 C8060000 		.4byte	.LCFI17
 8370 032c 0200     		.2byte	0x2
 8371 032e 7D       		.byte	0x7d
 8372 032f 00       		.sleb128 0
 8373 0330 C8060000 		.4byte	.LCFI17
 8374 0334 66070000 		.4byte	.LCFI18
 8375 0338 0200     		.2byte	0x2
 8376 033a 7D       		.byte	0x7d
 8377 033b 18       		.sleb128 24
 8378 033c 66070000 		.4byte	.LCFI18
 8379 0340 88070000 		.4byte	.LFE50
 8380 0344 0200     		.2byte	0x2
 8381 0346 7D       		.byte	0x7d
 8382 0347 00       		.sleb128 0
 8383 0348 00000000 		.4byte	0
 8384 034c 00000000 		.4byte	0
 8385              	.LVUS42:
 8386 0350 02       		.uleb128 .LVU584
 8387 0351 03       		.uleb128 .LVU585
 8388 0352 00       		.uleb128 .LVU586
 8389 0353 01       		.uleb128 .LVU592
 8390              	.LLST42:
 8391 0354 32070000 		.4byte	.LVL109
 8392 0358 32070000 		.4byte	.LVL109
 8393 035c 0200     		.2byte	0x2
 8394 035e 30       		.byte	0x30
 8395 035f 9F       		.byte	0x9f
 8396 0360 34070000 		.4byte	.LVL110
 8397 0364 56070000 		.4byte	.LVL113
 8398 0368 0100     		.2byte	0x1
 8399 036a 55       		.byte	0x55
 8400 036b 00000000 		.4byte	0
 8401 036f 00000000 		.4byte	0
 8402              	.LLST35:
 8403 0373 E4050000 		.4byte	.LFB49
 8404 0377 E6050000 		.4byte	.LCFI15
 8405 037b 0200     		.2byte	0x2
 8406 037d 7D       		.byte	0x7d
 8407 037e 00       		.sleb128 0
 8408 037f E6050000 		.4byte	.LCFI15
 8409 0383 44060000 		.4byte	.LFE49
 8410 0387 0200     		.2byte	0x2
 8411 0389 7D       		.byte	0x7d
 8412 038a 10       		.sleb128 16
 8413 038b 00000000 		.4byte	0
 8414 038f 00000000 		.4byte	0
 8415              	.LVUS36:
 8416 0393 02       		.uleb128 .LVU488
 8417 0394 00       		.uleb128 .LVU509
 8418 0395 00       		.uleb128 .LVU509
 8419 0396 00       		.uleb128 .LVU525
 8420 0397 00       		.uleb128 .LVU525
ARM GAS  /tmp/ccaJFhKP.s 			page 169


 8421 0398 00       		.uleb128 0
 8422              	.LLST36:
 8423 0399 E4050000 		.4byte	.LVL85
 8424 039d 16060000 		.4byte	.LVL89
 8425 03a1 0200     		.2byte	0x2
 8426 03a3 30       		.byte	0x30
 8427 03a4 9F       		.byte	0x9f
 8428 03a5 16060000 		.4byte	.LVL89
 8429 03a9 3E060000 		.4byte	.LVL96
 8430 03ad 0100     		.2byte	0x1
 8431 03af 55       		.byte	0x55
 8432 03b0 3E060000 		.4byte	.LVL96
 8433 03b4 44060000 		.4byte	.LFE49
 8434 03b8 0100     		.2byte	0x1
 8435 03ba 50       		.byte	0x50
 8436 03bb 00000000 		.4byte	0
 8437 03bf 00000000 		.4byte	0
 8438              	.LVUS37:
 8439 03c3 03       		.uleb128 .LVU489
 8440 03c4 00       		.uleb128 .LVU509
 8441 03c5 00       		.uleb128 .LVU509
 8442 03c6 00       		.uleb128 .LVU519
 8443 03c7 00       		.uleb128 .LVU519
 8444 03c8 01       		.uleb128 .LVU521
 8445 03c9 01       		.uleb128 .LVU521
 8446 03ca 00       		.uleb128 .LVU525
 8447              	.LLST37:
 8448 03cb E4050000 		.4byte	.LVL85
 8449 03cf 16060000 		.4byte	.LVL89
 8450 03d3 0200     		.2byte	0x2
 8451 03d5 30       		.byte	0x30
 8452 03d6 9F       		.byte	0x9f
 8453 03d7 16060000 		.4byte	.LVL89
 8454 03db 32060000 		.4byte	.LVL94
 8455 03df 0100     		.2byte	0x1
 8456 03e1 54       		.byte	0x54
 8457 03e2 32060000 		.4byte	.LVL94
 8458 03e6 36060000 		.4byte	.LVL95
 8459 03ea 0300     		.2byte	0x3
 8460 03ec 74       		.byte	0x74
 8461 03ed 7F       		.sleb128 -1
 8462 03ee 9F       		.byte	0x9f
 8463 03ef 36060000 		.4byte	.LVL95
 8464 03f3 3E060000 		.4byte	.LVL96
 8465 03f7 0100     		.2byte	0x1
 8466 03f9 54       		.byte	0x54
 8467 03fa 00000000 		.4byte	0
 8468 03fe 00000000 		.4byte	0
 8469              	.LVUS38:
 8470 0402 04       		.uleb128 .LVU490
 8471 0403 00       		.uleb128 .LVU509
 8472 0404 00       		.uleb128 .LVU512
 8473 0405 00       		.uleb128 .LVU518
 8474              	.LLST38:
 8475 0406 E4050000 		.4byte	.LVL85
 8476 040a 16060000 		.4byte	.LVL89
 8477 040e 0200     		.2byte	0x2
ARM GAS  /tmp/ccaJFhKP.s 			page 170


 8478 0410 30       		.byte	0x30
 8479 0411 9F       		.byte	0x9f
 8480 0412 24060000 		.4byte	.LVL91
 8481 0416 30060000 		.4byte	.LVL93
 8482 041a 0600     		.2byte	0x6
 8483 041c 70       		.byte	0x70
 8484 041d 00       		.sleb128 0
 8485 041e 08       		.byte	0x8
 8486 041f FF       		.byte	0xff
 8487 0420 1A       		.byte	0x1a
 8488 0421 9F       		.byte	0x9f
 8489 0422 00000000 		.4byte	0
 8490 0426 00000000 		.4byte	0
 8491              	.LLST34:
 8492 042a B8050000 		.4byte	.LFB48
 8493 042e BA050000 		.4byte	.LCFI13
 8494 0432 0200     		.2byte	0x2
 8495 0434 7D       		.byte	0x7d
 8496 0435 00       		.sleb128 0
 8497 0436 BA050000 		.4byte	.LCFI13
 8498 043a DA050000 		.4byte	.LCFI14
 8499 043e 0200     		.2byte	0x2
 8500 0440 7D       		.byte	0x7d
 8501 0441 10       		.sleb128 16
 8502 0442 DA050000 		.4byte	.LCFI14
 8503 0446 E4050000 		.4byte	.LFE48
 8504 044a 0200     		.2byte	0x2
 8505 044c 7D       		.byte	0x7d
 8506 044d 04       		.sleb128 4
 8507 044e 00000000 		.4byte	0
 8508 0452 00000000 		.4byte	0
 8509              	.LLST30:
 8510 0456 D8040000 		.4byte	.LFB45
 8511 045a DA040000 		.4byte	.LCFI11
 8512 045e 0200     		.2byte	0x2
 8513 0460 7D       		.byte	0x7d
 8514 0461 00       		.sleb128 0
 8515 0462 DA040000 		.4byte	.LCFI11
 8516 0466 00050000 		.4byte	.LFE45
 8517 046a 0200     		.2byte	0x2
 8518 046c 7D       		.byte	0x7d
 8519 046d 10       		.sleb128 16
 8520 046e 00000000 		.4byte	0
 8521 0472 00000000 		.4byte	0
 8522              	.LVUS31:
 8523 0476 00       		.uleb128 0
 8524 0477 00       		.uleb128 .LVU409
 8525 0478 00       		.uleb128 .LVU409
 8526 0479 00       		.uleb128 .LVU411
 8527 047a 00       		.uleb128 .LVU411
 8528 047b 01       		.uleb128 .LVU414
 8529 047c 01       		.uleb128 .LVU414
 8530 047d 00       		.uleb128 0
 8531              	.LLST31:
 8532 047e D8040000 		.4byte	.LVL72
 8533 0482 DE040000 		.4byte	.LVL73
 8534 0486 0100     		.2byte	0x1
ARM GAS  /tmp/ccaJFhKP.s 			page 171


 8535 0488 50       		.byte	0x50
 8536 0489 DE040000 		.4byte	.LVL73
 8537 048d E2040000 		.4byte	.LVL74
 8538 0491 0300     		.2byte	0x3
 8539 0493 74       		.byte	0x74
 8540 0494 01       		.sleb128 1
 8541 0495 9F       		.byte	0x9f
 8542 0496 E2040000 		.4byte	.LVL74
 8543 049a E6040000 		.4byte	.LVL75
 8544 049e 0100     		.2byte	0x1
 8545 04a0 54       		.byte	0x54
 8546 04a1 E6040000 		.4byte	.LVL75
 8547 04a5 00050000 		.4byte	.LFE45
 8548 04a9 0300     		.2byte	0x3
 8549 04ab 74       		.byte	0x74
 8550 04ac 01       		.sleb128 1
 8551 04ad 9F       		.byte	0x9f
 8552 04ae 00000000 		.4byte	0
 8553 04b2 00000000 		.4byte	0
 8554              	.LLST29:
 8555 04b6 68040000 		.4byte	.LFB44
 8556 04ba 6A040000 		.4byte	.LCFI8
 8557 04be 0200     		.2byte	0x2
 8558 04c0 7D       		.byte	0x7d
 8559 04c1 00       		.sleb128 0
 8560 04c2 6A040000 		.4byte	.LCFI8
 8561 04c6 6E040000 		.4byte	.LCFI9
 8562 04ca 0200     		.2byte	0x2
 8563 04cc 7D       		.byte	0x7d
 8564 04cd 08       		.sleb128 8
 8565 04ce 6E040000 		.4byte	.LCFI9
 8566 04d2 D2040000 		.4byte	.LCFI10
 8567 04d6 0200     		.2byte	0x2
 8568 04d8 7D       		.byte	0x7d
 8569 04d9 20       		.sleb128 32
 8570 04da D2040000 		.4byte	.LCFI10
 8571 04de D8040000 		.4byte	.LFE44
 8572 04e2 0200     		.2byte	0x2
 8573 04e4 7D       		.byte	0x7d
 8574 04e5 08       		.sleb128 8
 8575 04e6 00000000 		.4byte	0
 8576 04ea 00000000 		.4byte	0
 8577              	.LVUS24:
 8578 04ee 00       		.uleb128 0
 8579 04ef 01       		.uleb128 .LVU309
 8580 04f0 01       		.uleb128 .LVU309
 8581 04f1 00       		.uleb128 .LVU311
 8582 04f2 00       		.uleb128 .LVU311
 8583 04f3 00       		.uleb128 0
 8584              	.LLST24:
 8585 04f4 88030000 		.4byte	.LVL52
 8586 04f8 92030000 		.4byte	.LVL53
 8587 04fc 0100     		.2byte	0x1
 8588 04fe 50       		.byte	0x50
 8589 04ff 92030000 		.4byte	.LVL53
 8590 0503 9E030000 		.4byte	.LVL54
 8591 0507 0900     		.2byte	0x9
ARM GAS  /tmp/ccaJFhKP.s 			page 172


 8592 0509 70       		.byte	0x70
 8593 050a 00       		.sleb128 0
 8594 050b 37       		.byte	0x37
 8595 050c 14       		.byte	0x14
 8596 050d 14       		.byte	0x14
 8597 050e 1B       		.byte	0x1b
 8598 050f 1E       		.byte	0x1e
 8599 0510 1C       		.byte	0x1c
 8600 0511 9F       		.byte	0x9f
 8601 0512 9E030000 		.4byte	.LVL54
 8602 0516 EC030000 		.4byte	.LFE43
 8603 051a 0A00     		.2byte	0xa
 8604 051c F3       		.byte	0xf3
 8605 051d 01       		.uleb128 0x1
 8606 051e 50       		.byte	0x50
 8607 051f 37       		.byte	0x37
 8608 0520 14       		.byte	0x14
 8609 0521 14       		.byte	0x14
 8610 0522 1B       		.byte	0x1b
 8611 0523 1E       		.byte	0x1e
 8612 0524 1C       		.byte	0x1c
 8613 0525 9F       		.byte	0x9f
 8614 0526 00000000 		.4byte	0
 8615 052a 00000000 		.4byte	0
 8616              	.LLST16:
 8617 052e 04030000 		.4byte	.LFB41
 8618 0532 08030000 		.4byte	.LCFI6
 8619 0536 0200     		.2byte	0x2
 8620 0538 7D       		.byte	0x7d
 8621 0539 00       		.sleb128 0
 8622 053a 08030000 		.4byte	.LCFI6
 8623 053e 88030000 		.4byte	.LFE41
 8624 0542 0200     		.2byte	0x2
 8625 0544 7D       		.byte	0x7d
 8626 0545 18       		.sleb128 24
 8627 0546 00000000 		.4byte	0
 8628 054a 00000000 		.4byte	0
 8629              	.LVUS17:
 8630 054e 00       		.uleb128 0
 8631 054f 00       		.uleb128 .LVU254
 8632 0550 00       		.uleb128 .LVU254
 8633 0551 00       		.uleb128 .LVU281
 8634              	.LLST17:
 8635 0552 04030000 		.4byte	.LVL28
 8636 0556 13030000 		.4byte	.LVL30-1
 8637 055a 0100     		.2byte	0x1
 8638 055c 50       		.byte	0x50
 8639 055d 13030000 		.4byte	.LVL30-1
 8640 0561 4C030000 		.4byte	.LVL40
 8641 0565 0100     		.2byte	0x1
 8642 0567 55       		.byte	0x55
 8643 0568 00000000 		.4byte	0
 8644 056c 00000000 		.4byte	0
 8645              	.LVUS18:
 8646 0570 00       		.uleb128 0
 8647 0571 00       		.uleb128 .LVU252
 8648 0572 00       		.uleb128 .LVU252
ARM GAS  /tmp/ccaJFhKP.s 			page 173


 8649 0573 01       		.uleb128 .LVU259
 8650 0574 01       		.uleb128 .LVU259
 8651 0575 00       		.uleb128 .LVU260
 8652 0576 00       		.uleb128 .LVU260
 8653 0577 00       		.uleb128 .LVU269
 8654 0578 00       		.uleb128 .LVU269
 8655 0579 01       		.uleb128 .LVU271
 8656 057a 01       		.uleb128 .LVU271
 8657 057b 00       		.uleb128 .LVU282
 8658 057c 00       		.uleb128 .LVU282
 8659 057d 01       		.uleb128 .LVU298
 8660 057e 01       		.uleb128 .LVU298
 8661 057f 00       		.uleb128 .LVU300
 8662 0580 00       		.uleb128 .LVU300
 8663 0581 00       		.uleb128 0
 8664              	.LLST18:
 8665 0582 04030000 		.4byte	.LVL28
 8666 0586 0C030000 		.4byte	.LVL29
 8667 058a 0100     		.2byte	0x1
 8668 058c 51       		.byte	0x51
 8669 058d 0C030000 		.4byte	.LVL29
 8670 0591 1C030000 		.4byte	.LVL31
 8671 0595 0100     		.2byte	0x1
 8672 0597 54       		.byte	0x54
 8673 0598 1C030000 		.4byte	.LVL31
 8674 059c 20030000 		.4byte	.LVL32
 8675 05a0 0300     		.2byte	0x3
 8676 05a2 74       		.byte	0x74
 8677 05a3 01       		.sleb128 1
 8678 05a4 9F       		.byte	0x9f
 8679 05a5 20030000 		.4byte	.LVL32
 8680 05a9 34030000 		.4byte	.LVL36
 8681 05ad 0100     		.2byte	0x1
 8682 05af 54       		.byte	0x54
 8683 05b0 34030000 		.4byte	.LVL36
 8684 05b4 38030000 		.4byte	.LVL37
 8685 05b8 0100     		.2byte	0x1
 8686 05ba 53       		.byte	0x53
 8687 05bb 38030000 		.4byte	.LVL37
 8688 05bf 50030000 		.4byte	.LVL41
 8689 05c3 0100     		.2byte	0x1
 8690 05c5 54       		.byte	0x54
 8691 05c6 50030000 		.4byte	.LVL41
 8692 05ca 6E030000 		.4byte	.LVL48
 8693 05ce 0100     		.2byte	0x1
 8694 05d0 55       		.byte	0x55
 8695 05d1 6E030000 		.4byte	.LVL48
 8696 05d5 76030000 		.4byte	.LVL49
 8697 05d9 0300     		.2byte	0x3
 8698 05db 75       		.byte	0x75
 8699 05dc 01       		.sleb128 1
 8700 05dd 9F       		.byte	0x9f
 8701 05de 76030000 		.4byte	.LVL49
 8702 05e2 88030000 		.4byte	.LFE41
 8703 05e6 0100     		.2byte	0x1
 8704 05e8 55       		.byte	0x55
 8705 05e9 00000000 		.4byte	0
ARM GAS  /tmp/ccaJFhKP.s 			page 174


 8706 05ed 00000000 		.4byte	0
 8707              	.LVUS19:
 8708 05f1 00       		.uleb128 0
 8709 05f2 00       		.uleb128 .LVU254
 8710 05f3 00       		.uleb128 .LVU254
 8711 05f4 00       		.uleb128 .LVU290
 8712 05f5 00       		.uleb128 .LVU290
 8713 05f6 00       		.uleb128 .LVU292
 8714 05f7 00       		.uleb128 .LVU292
 8715 05f8 00       		.uleb128 0
 8716              	.LLST19:
 8717 05f9 04030000 		.4byte	.LVL28
 8718 05fd 13030000 		.4byte	.LVL30-1
 8719 0601 0100     		.2byte	0x1
 8720 0603 52       		.byte	0x52
 8721 0604 13030000 		.4byte	.LVL30-1
 8722 0608 5C030000 		.4byte	.LVL44
 8723 060c 0100     		.2byte	0x1
 8724 060e 56       		.byte	0x56
 8725 060f 5C030000 		.4byte	.LVL44
 8726 0613 62030000 		.4byte	.LVL45
 8727 0617 0400     		.2byte	0x4
 8728 0619 F3       		.byte	0xf3
 8729 061a 01       		.uleb128 0x1
 8730 061b 52       		.byte	0x52
 8731 061c 9F       		.byte	0x9f
 8732 061d 62030000 		.4byte	.LVL45
 8733 0621 88030000 		.4byte	.LFE41
 8734 0625 0100     		.2byte	0x1
 8735 0627 56       		.byte	0x56
 8736 0628 00000000 		.4byte	0
 8737 062c 00000000 		.4byte	0
 8738              	.LVUS20:
 8739 0630 00       		.uleb128 .LVU264
 8740 0631 00       		.uleb128 .LVU265
 8741 0632 00       		.uleb128 .LVU265
 8742 0633 00       		.uleb128 .LVU282
 8743              	.LLST20:
 8744 0634 2A030000 		.4byte	.LVL34
 8745 0638 2D030000 		.4byte	.LVL35-1
 8746 063c 0100     		.2byte	0x1
 8747 063e 50       		.byte	0x50
 8748 063f 2D030000 		.4byte	.LVL35-1
 8749 0643 50030000 		.4byte	.LVL41
 8750 0647 0100     		.2byte	0x1
 8751 0649 57       		.byte	0x57
 8752 064a 00000000 		.4byte	0
 8753 064e 00000000 		.4byte	0
 8754              	.LVUS21:
 8755 0652 00       		.uleb128 .LVU277
 8756 0653 00       		.uleb128 .LVU282
 8757 0654 00       		.uleb128 .LVU295
 8758 0655 00       		.uleb128 .LVU297
 8759 0656 00       		.uleb128 .LVU297
 8760 0657 00       		.uleb128 0
 8761              	.LLST21:
 8762 0658 4A030000 		.4byte	.LVL39
ARM GAS  /tmp/ccaJFhKP.s 			page 175


 8763 065c 50030000 		.4byte	.LVL41
 8764 0660 0100     		.2byte	0x1
 8765 0662 50       		.byte	0x50
 8766 0663 6A030000 		.4byte	.LVL47
 8767 0667 6D030000 		.4byte	.LVL48-1
 8768 066b 0100     		.2byte	0x1
 8769 066d 50       		.byte	0x50
 8770 066e 6D030000 		.4byte	.LVL48-1
 8771 0672 88030000 		.4byte	.LFE41
 8772 0676 0100     		.2byte	0x1
 8773 0678 57       		.byte	0x57
 8774 0679 00000000 		.4byte	0
 8775 067d 00000000 		.4byte	0
 8776              	.LVUS22:
 8777 0681 02       		.uleb128 .LVU279
 8778 0682 00       		.uleb128 .LVU282
 8779 0683 00       		.uleb128 .LVU282
 8780 0684 00       		.uleb128 .LVU285
 8781 0685 00       		.uleb128 .LVU285
 8782 0686 00       		.uleb128 .LVU289
 8783 0687 00       		.uleb128 .LVU289
 8784 0688 00       		.uleb128 .LVU292
 8785 0689 00       		.uleb128 .LVU292
 8786 068a 00       		.uleb128 .LVU294
 8787 068b 00       		.uleb128 .LVU294
 8788 068c 00       		.uleb128 .LVU300
 8789 068d 00       		.uleb128 .LVU300
 8790 068e 01       		.uleb128 .LVU304
 8791              	.LLST22:
 8792 068f 4A030000 		.4byte	.LVL39
 8793 0693 50030000 		.4byte	.LVL41
 8794 0697 0200     		.2byte	0x2
 8795 0699 30       		.byte	0x30
 8796 069a 9F       		.byte	0x9f
 8797 069b 50030000 		.4byte	.LVL41
 8798 069f 52030000 		.4byte	.LVL42
 8799 06a3 0600     		.2byte	0x6
 8800 06a5 75       		.byte	0x75
 8801 06a6 00       		.sleb128 0
 8802 06a7 74       		.byte	0x74
 8803 06a8 00       		.sleb128 0
 8804 06a9 1C       		.byte	0x1c
 8805 06aa 9F       		.byte	0x9f
 8806 06ab 52030000 		.4byte	.LVL42
 8807 06af 58030000 		.4byte	.LVL43
 8808 06b3 0100     		.2byte	0x1
 8809 06b5 53       		.byte	0x53
 8810 06b6 58030000 		.4byte	.LVL43
 8811 06ba 62030000 		.4byte	.LVL45
 8812 06be 0600     		.2byte	0x6
 8813 06c0 75       		.byte	0x75
 8814 06c1 00       		.sleb128 0
 8815 06c2 74       		.byte	0x74
 8816 06c3 00       		.sleb128 0
 8817 06c4 1C       		.byte	0x1c
 8818 06c5 9F       		.byte	0x9f
 8819 06c6 62030000 		.4byte	.LVL45
ARM GAS  /tmp/ccaJFhKP.s 			page 176


 8820 06ca 67030000 		.4byte	.LVL46-1
 8821 06ce 0100     		.2byte	0x1
 8822 06d0 53       		.byte	0x53
 8823 06d1 67030000 		.4byte	.LVL46-1
 8824 06d5 76030000 		.4byte	.LVL49
 8825 06d9 0600     		.2byte	0x6
 8826 06db 75       		.byte	0x75
 8827 06dc 00       		.sleb128 0
 8828 06dd 74       		.byte	0x74
 8829 06de 00       		.sleb128 0
 8830 06df 1C       		.byte	0x1c
 8831 06e0 9F       		.byte	0x9f
 8832 06e1 76030000 		.4byte	.LVL49
 8833 06e5 82030000 		.4byte	.LVL51
 8834 06e9 0700     		.2byte	0x7
 8835 06eb 74       		.byte	0x74
 8836 06ec 00       		.sleb128 0
 8837 06ed 20       		.byte	0x20
 8838 06ee 75       		.byte	0x75
 8839 06ef 00       		.sleb128 0
 8840 06f0 22       		.byte	0x22
 8841 06f1 9F       		.byte	0x9f
 8842 06f2 00000000 		.4byte	0
 8843 06f6 00000000 		.4byte	0
 8844              	.LVUS23:
 8845 06fa 00       		.uleb128 .LVU297
 8846 06fb 00       		.uleb128 .LVU302
 8847              	.LLST23:
 8848 06fc 6E030000 		.4byte	.LVL48
 8849 0700 79030000 		.4byte	.LVL50-1
 8850 0704 0100     		.2byte	0x1
 8851 0706 50       		.byte	0x50
 8852 0707 00000000 		.4byte	0
 8853 070b 00000000 		.4byte	0
 8854              	.LVUS7:
 8855 070f 00       		.uleb128 0
 8856 0710 00       		.uleb128 .LVU208
 8857 0711 00       		.uleb128 .LVU208
 8858 0712 00       		.uleb128 0
 8859              	.LLST7:
 8860 0713 AC020000 		.4byte	.LVL13
 8861 0717 B4020000 		.4byte	.LVL14
 8862 071b 0100     		.2byte	0x1
 8863 071d 50       		.byte	0x50
 8864 071e B4020000 		.4byte	.LVL14
 8865 0722 C8020000 		.4byte	.LFE40
 8866 0726 0400     		.2byte	0x4
 8867 0728 F3       		.byte	0xf3
 8868 0729 01       		.uleb128 0x1
 8869 072a 50       		.byte	0x50
 8870 072b 9F       		.byte	0x9f
 8871 072c 00000000 		.4byte	0
 8872 0730 00000000 		.4byte	0
 8873              	.LVUS6:
 8874 0734 00       		.uleb128 0
 8875 0735 00       		.uleb128 .LVU200
 8876 0736 00       		.uleb128 .LVU200
ARM GAS  /tmp/ccaJFhKP.s 			page 177


 8877 0737 00       		.uleb128 0
 8878              	.LLST6:
 8879 0738 94020000 		.4byte	.LVL11
 8880 073c 9C020000 		.4byte	.LVL12
 8881 0740 0100     		.2byte	0x1
 8882 0742 50       		.byte	0x50
 8883 0743 9C020000 		.4byte	.LVL12
 8884 0747 AC020000 		.4byte	.LFE39
 8885 074b 0400     		.2byte	0x4
 8886 074d F3       		.byte	0xf3
 8887 074e 01       		.uleb128 0x1
 8888 074f 50       		.byte	0x50
 8889 0750 9F       		.byte	0x9f
 8890 0751 00000000 		.4byte	0
 8891 0755 00000000 		.4byte	0
 8892              	.LLST5:
 8893 0759 3C020000 		.4byte	.LFB37
 8894 075d 3E020000 		.4byte	.LCFI2
 8895 0761 0200     		.2byte	0x2
 8896 0763 7D       		.byte	0x7d
 8897 0764 00       		.sleb128 0
 8898 0765 3E020000 		.4byte	.LCFI2
 8899 0769 4A020000 		.4byte	.LCFI3
 8900 076d 0200     		.2byte	0x2
 8901 076f 7D       		.byte	0x7d
 8902 0770 08       		.sleb128 8
 8903 0771 4A020000 		.4byte	.LCFI3
 8904 0775 4C020000 		.4byte	.LCFI4
 8905 0779 0200     		.2byte	0x2
 8906 077b 7D       		.byte	0x7d
 8907 077c 00       		.sleb128 0
 8908 077d 4C020000 		.4byte	.LCFI4
 8909 0781 6C020000 		.4byte	.LFE37
 8910 0785 0200     		.2byte	0x2
 8911 0787 7D       		.byte	0x7d
 8912 0788 08       		.sleb128 8
 8913 0789 00000000 		.4byte	0
 8914 078d 00000000 		.4byte	0
 8915              	.LLST8:
 8916 0791 C8020000 		.4byte	.LFB42
 8917 0795 CA020000 		.4byte	.LCFI5
 8918 0799 0200     		.2byte	0x2
 8919 079b 7D       		.byte	0x7d
 8920 079c 00       		.sleb128 0
 8921 079d CA020000 		.4byte	.LCFI5
 8922 07a1 04030000 		.4byte	.LFE42
 8923 07a5 0200     		.2byte	0x2
 8924 07a7 7D       		.byte	0x7d
 8925 07a8 08       		.sleb128 8
 8926 07a9 00000000 		.4byte	0
 8927 07ad 00000000 		.4byte	0
 8928              	.LVUS9:
 8929 07b1 00       		.uleb128 0
 8930 07b2 02       		.uleb128 .LVU221
 8931 07b3 02       		.uleb128 .LVU221
 8932 07b4 00       		.uleb128 .LVU222
 8933 07b5 00       		.uleb128 .LVU222
ARM GAS  /tmp/ccaJFhKP.s 			page 178


 8934 07b6 00       		.uleb128 .LVU234
 8935 07b7 00       		.uleb128 .LVU234
 8936 07b8 00       		.uleb128 .LVU244
 8937 07b9 00       		.uleb128 .LVU244
 8938 07ba 00       		.uleb128 0
 8939              	.LLST9:
 8940 07bb C8020000 		.4byte	.LVL15
 8941 07bf D2020000 		.4byte	.LVL17
 8942 07c3 0100     		.2byte	0x1
 8943 07c5 50       		.byte	0x50
 8944 07c6 D2020000 		.4byte	.LVL17
 8945 07ca D4020000 		.4byte	.LVL18
 8946 07ce 0400     		.2byte	0x4
 8947 07d0 F3       		.byte	0xf3
 8948 07d1 01       		.uleb128 0x1
 8949 07d2 50       		.byte	0x50
 8950 07d3 9F       		.byte	0x9f
 8951 07d4 D4020000 		.4byte	.LVL18
 8952 07d8 E6020000 		.4byte	.LVL22
 8953 07dc 0100     		.2byte	0x1
 8954 07de 50       		.byte	0x50
 8955 07df E6020000 		.4byte	.LVL22
 8956 07e3 FC020000 		.4byte	.LVL27
 8957 07e7 0400     		.2byte	0x4
 8958 07e9 F3       		.byte	0xf3
 8959 07ea 01       		.uleb128 0x1
 8960 07eb 50       		.byte	0x50
 8961 07ec 9F       		.byte	0x9f
 8962 07ed FC020000 		.4byte	.LVL27
 8963 07f1 04030000 		.4byte	.LFE42
 8964 07f5 0100     		.2byte	0x1
 8965 07f7 50       		.byte	0x50
 8966 07f8 00000000 		.4byte	0
 8967 07fc 00000000 		.4byte	0
 8968              	.LVUS10:
 8969 0800 00       		.uleb128 0
 8970 0801 01       		.uleb128 .LVU216
 8971 0802 01       		.uleb128 .LVU216
 8972 0803 02       		.uleb128 .LVU221
 8973 0804 00       		.uleb128 .LVU222
 8974 0805 00       		.uleb128 .LVU234
 8975 0806 00       		.uleb128 .LVU234
 8976 0807 00       		.uleb128 .LVU244
 8977 0808 00       		.uleb128 .LVU244
 8978 0809 00       		.uleb128 0
 8979              	.LLST10:
 8980 080a C8020000 		.4byte	.LVL15
 8981 080e CC020000 		.4byte	.LVL16
 8982 0812 0100     		.2byte	0x1
 8983 0814 51       		.byte	0x51
 8984 0815 CC020000 		.4byte	.LVL16
 8985 0819 D2020000 		.4byte	.LVL17
 8986 081d 0300     		.2byte	0x3
 8987 081f 71       		.byte	0x71
 8988 0820 01       		.sleb128 1
 8989 0821 9F       		.byte	0x9f
 8990 0822 D4020000 		.4byte	.LVL18
ARM GAS  /tmp/ccaJFhKP.s 			page 179


 8991 0826 E6020000 		.4byte	.LVL22
 8992 082a 0100     		.2byte	0x1
 8993 082c 51       		.byte	0x51
 8994 082d E6020000 		.4byte	.LVL22
 8995 0831 FC020000 		.4byte	.LVL27
 8996 0835 0400     		.2byte	0x4
 8997 0837 F3       		.byte	0xf3
 8998 0838 01       		.uleb128 0x1
 8999 0839 51       		.byte	0x51
 9000 083a 9F       		.byte	0x9f
 9001 083b FC020000 		.4byte	.LVL27
 9002 083f 04030000 		.4byte	.LFE42
 9003 0843 0100     		.2byte	0x1
 9004 0845 51       		.byte	0x51
 9005 0846 00000000 		.4byte	0
 9006 084a 00000000 		.4byte	0
 9007              	.LVUS11:
 9008 084e 00       		.uleb128 .LVU230
 9009 084f 02       		.uleb128 .LVU238
 9010 0850 02       		.uleb128 .LVU238
 9011 0851 00       		.uleb128 .LVU241
 9012 0852 00       		.uleb128 .LVU241
 9013 0853 00       		.uleb128 .LVU244
 9014              	.LLST11:
 9015 0854 E2020000 		.4byte	.LVL21
 9016 0858 EA020000 		.4byte	.LVL23
 9017 085c 0100     		.2byte	0x1
 9018 085e 52       		.byte	0x52
 9019 085f EA020000 		.4byte	.LVL23
 9020 0863 F8020000 		.4byte	.LVL25
 9021 0867 0300     		.2byte	0x3
 9022 0869 72       		.byte	0x72
 9023 086a 7F       		.sleb128 -1
 9024 086b 9F       		.byte	0x9f
 9025 086c F8020000 		.4byte	.LVL25
 9026 0870 FC020000 		.4byte	.LVL27
 9027 0874 0100     		.2byte	0x1
 9028 0876 52       		.byte	0x52
 9029 0877 00000000 		.4byte	0
 9030 087b 00000000 		.4byte	0
 9031              	.LVUS12:
 9032 087f 00       		.uleb128 .LVU234
 9033 0880 00       		.uleb128 .LVU239
 9034 0881 00       		.uleb128 .LVU243
 9035 0882 00       		.uleb128 .LVU244
 9036              	.LLST12:
 9037 0883 E6020000 		.4byte	.LVL22
 9038 0887 F2020000 		.4byte	.LVL24
 9039 088b 0100     		.2byte	0x1
 9040 088d 50       		.byte	0x50
 9041 088e FA020000 		.4byte	.LVL26
 9042 0892 FC020000 		.4byte	.LVL27
 9043 0896 0100     		.2byte	0x1
 9044 0898 50       		.byte	0x50
 9045 0899 00000000 		.4byte	0
 9046 089d 00000000 		.4byte	0
 9047              	.LVUS13:
ARM GAS  /tmp/ccaJFhKP.s 			page 180


 9048 08a1 00       		.uleb128 .LVU222
 9049 08a2 00       		.uleb128 .LVU234
 9050              	.LLST13:
 9051 08a3 D4020000 		.4byte	.LVL18
 9052 08a7 E6020000 		.4byte	.LVL22
 9053 08ab 0100     		.2byte	0x1
 9054 08ad 53       		.byte	0x53
 9055 08ae 00000000 		.4byte	0
 9056 08b2 00000000 		.4byte	0
 9057              	.LVUS14:
 9058 08b6 00       		.uleb128 .LVU222
 9059 08b7 00       		.uleb128 .LVU230
 9060              	.LLST14:
 9061 08b8 D4020000 		.4byte	.LVL18
 9062 08bc E2020000 		.4byte	.LVL21
 9063 08c0 0100     		.2byte	0x1
 9064 08c2 52       		.byte	0x52
 9065 08c3 00000000 		.4byte	0
 9066 08c7 00000000 		.4byte	0
 9067              	.LVUS15:
 9068 08cb 01       		.uleb128 .LVU237
 9069 08cc 00       		.uleb128 .LVU239
 9070              	.LLST15:
 9071 08cd EA020000 		.4byte	.LVL23
 9072 08d1 F2020000 		.4byte	.LVL24
 9073 08d5 0900     		.2byte	0x9
 9074 08d7 70       		.byte	0x70
 9075 08d8 00       		.sleb128 0
 9076 08d9 3A       		.byte	0x3a
 9077 08da 14       		.byte	0x14
 9078 08db 14       		.byte	0x14
 9079 08dc 1B       		.byte	0x1b
 9080 08dd 1E       		.byte	0x1e
 9081 08de 1C       		.byte	0x1c
 9082 08df 9F       		.byte	0x9f
 9083 08e0 00000000 		.4byte	0
 9084 08e4 00000000 		.4byte	0
 9085              		.section	.debug_aranges,"",%progbits
 9086 0000 24000000 		.4byte	0x24
 9087 0004 0200     		.2byte	0x2
 9088 0006 00000000 		.4byte	.Ldebug_info0
 9089 000a 04       		.byte	0x4
 9090 000b 00       		.byte	0
 9091 000c 0000     		.2byte	0
 9092 000e 0000     		.2byte	0
 9093 0010 00000000 		.4byte	.Ltext0
 9094 0014 F8080000 		.4byte	.Letext0-.Ltext0
 9095 0018 00000000 		.4byte	.LFB57
 9096 001c CC000000 		.4byte	.LFE57-.LFB57
 9097 0020 00000000 		.4byte	0
 9098 0024 00000000 		.4byte	0
 9099              		.section	.debug_ranges,"",%progbits
 9100              	.Ldebug_ranges0:
 9101 0000 D4020000 		.4byte	.LBB6
 9102 0004 FC020000 		.4byte	.LBE6
 9103 0008 FE020000 		.4byte	.LBB11
 9104 000c 04030000 		.4byte	.LBE11
ARM GAS  /tmp/ccaJFhKP.s 			page 181


 9105 0010 00000000 		.4byte	0
 9106 0014 00000000 		.4byte	0
 9107 0018 E4020000 		.4byte	.LBB8
 9108 001c E6020000 		.4byte	.LBE8
 9109 0020 EA020000 		.4byte	.LBB9
 9110 0024 FC020000 		.4byte	.LBE9
 9111 0028 00000000 		.4byte	0
 9112 002c 00000000 		.4byte	0
 9113 0030 4A030000 		.4byte	.LBB12
 9114 0034 4A030000 		.4byte	.LBE12
 9115 0038 4C030000 		.4byte	.LBB15
 9116 003c 56030000 		.4byte	.LBE15
 9117 0040 62030000 		.4byte	.LBB16
 9118 0044 88030000 		.4byte	.LBE16
 9119 0048 00000000 		.4byte	0
 9120 004c 00000000 		.4byte	0
 9121 0050 4C030000 		.4byte	.LBB13
 9122 0054 50030000 		.4byte	.LBE13
 9123 0058 62030000 		.4byte	.LBB14
 9124 005c 82030000 		.4byte	.LBE14
 9125 0060 00000000 		.4byte	0
 9126 0064 00000000 		.4byte	0
 9127 0068 D6060000 		.4byte	.LBB19
 9128 006c D8060000 		.4byte	.LBE19
 9129 0070 DC060000 		.4byte	.LBB20
 9130 0074 DE060000 		.4byte	.LBE20
 9131 0078 32070000 		.4byte	.LBB21
 9132 007c 5A070000 		.4byte	.LBE21
 9133 0080 00000000 		.4byte	0
 9134 0084 00000000 		.4byte	0
 9135 0088 64080000 		.4byte	.LBB22
 9136 008c 64080000 		.4byte	.LBE22
 9137 0090 66080000 		.4byte	.LBB23
 9138 0094 9A080000 		.4byte	.LBE23
 9139 0098 00000000 		.4byte	0
 9140 009c 00000000 		.4byte	0
 9141 00a0 00000000 		.4byte	.Ltext0
 9142 00a4 F8080000 		.4byte	.Letext0
 9143 00a8 00000000 		.4byte	.LFB57
 9144 00ac CC000000 		.4byte	.LFE57
 9145 00b0 00000000 		.4byte	0
 9146 00b4 00000000 		.4byte	0
 9147              		.section	.debug_line,"",%progbits
 9148              	.Ldebug_line0:
 9149 0000 8E0E0000 		.section	.debug_str,"MS",%progbits,1
 9149      03003702 
 9149      00000201 
 9149      FB0E0D00 
 9149      01010101 
 9150              	.LASF209:
 9151 0000 636F6E74 		.ascii	"controlarMotorPasso\000"
 9151      726F6C61 
 9151      724D6F74 
 9151      6F725061 
 9151      73736F00 
 9152              	.LASF75:
 9153 0014 52534552 		.ascii	"RSERVED1\000"
ARM GAS  /tmp/ccaJFhKP.s 			page 182


 9153      56454431 
 9153      00
 9154              	.LASF36:
 9155 001d 45585449 		.ascii	"EXTI2_IRQn\000"
 9155      325F4952 
 9155      516E00
 9156              	.LASF162:
 9157 0028 4750494F 		.ascii	"GPIO_Mode_IPU\000"
 9157      5F4D6F64 
 9157      655F4950 
 9157      5500
 9158              	.LASF247:
 9159 0036 55534152 		.ascii	"USART_SendData\000"
 9159      545F5365 
 9159      6E644461 
 9159      746100
 9160              	.LASF113:
 9161 0045 45585449 		.ascii	"EXTICR\000"
 9161      435200
 9162              	.LASF217:
 9163 004c 66726163 		.ascii	"fracionaria\000"
 9163      696F6E61 
 9163      72696100 
 9164              	.LASF243:
 9165 0058 64697370 		.ascii	"disp_cmd\000"
 9165      5F636D64 
 9165      00
 9166              	.LASF94:
 9167 0061 53515231 		.ascii	"SQR1\000"
 9167      00
 9168              	.LASF95:
 9169 0066 53515232 		.ascii	"SQR2\000"
 9169      00
 9170              	.LASF96:
 9171 006b 53515233 		.ascii	"SQR3\000"
 9171      00
 9172              	.LASF222:
 9173 0070 656E6162 		.ascii	"enable_TIM3_delay\000"
 9173      6C655F54 
 9173      494D335F 
 9173      64656C61 
 9173      7900
 9174              	.LASF153:
 9175 0082 47545052 		.ascii	"GTPR\000"
 9175      00
 9176              	.LASF43:
 9177 0087 444D4131 		.ascii	"DMA1_Channel5_IRQn\000"
 9177      5F436861 
 9177      6E6E656C 
 9177      355F4952 
 9177      516E00
 9178              	.LASF212:
 9179 009a 64696769 		.ascii	"digito\000"
 9179      746F00
 9180              	.LASF16:
 9181 00a1 42617365 		.ascii	"BaseType_t\000"
 9181      54797065 
ARM GAS  /tmp/ccaJFhKP.s 			page 183


 9181      5F7400
 9182              	.LASF223:
 9183 00ac 44656C61 		.ascii	"Delay\000"
 9183      7900
 9184              	.LASF32:
 9185 00b2 464C4153 		.ascii	"FLASH_IRQn\000"
 9185      485F4952 
 9185      516E00
 9186              	.LASF188:
 9187 00bd 776F7264 		.ascii	"word_IR\000"
 9187      5F495200 
 9188              	.LASF226:
 9189 00c5 41444331 		.ascii	"ADC1_configure\000"
 9189      5F636F6E 
 9189      66696775 
 9189      726500
 9190              	.LASF183:
 9191 00d4 50574D5F 		.ascii	"PWM_data_queue\000"
 9191      64617461 
 9191      5F717565 
 9191      756500
 9192              	.LASF56:
 9193 00e3 54494D32 		.ascii	"TIM2_IRQn\000"
 9193      5F495251 
 9193      6E00
 9194              	.LASF150:
 9195 00ed 444D4152 		.ascii	"DMAR\000"
 9195      00
 9196              	.LASF78:
 9197 00f2 49435052 		.ascii	"ICPR\000"
 9197      00
 9198              	.LASF139:
 9199 00f7 43435231 		.ascii	"CCR1\000"
 9199      00
 9200              	.LASF141:
 9201 00fc 43435232 		.ascii	"CCR2\000"
 9201      00
 9202              	.LASF143:
 9203 0101 43435233 		.ascii	"CCR3\000"
 9203      00
 9204              	.LASF145:
 9205 0106 43435234 		.ascii	"CCR4\000"
 9205      00
 9206              	.LASF6:
 9207 010b 5F5F7569 		.ascii	"__uint8_t\000"
 9207      6E74385F 
 9207      7400
 9208              	.LASF64:
 9209 0115 53504932 		.ascii	"SPI2_IRQn\000"
 9209      5F495251 
 9209      6E00
 9210              	.LASF169:
 9211 011f 4750494F 		.ascii	"GPIO_Speed\000"
 9211      5F537065 
 9211      656400
 9212              	.LASF225:
 9213 012a 41444339 		.ascii	"ADC9_Configuration\000"
ARM GAS  /tmp/ccaJFhKP.s 			page 184


 9213      5F436F6E 
 9213      66696775 
 9213      72617469 
 9213      6F6E00
 9214              	.LASF9:
 9215 013d 6C6F6E67 		.ascii	"long int\000"
 9215      20696E74 
 9215      00
 9216              	.LASF258:
 9217 0146 51756575 		.ascii	"QueueDefinition\000"
 9217      65446566 
 9217      696E6974 
 9217      696F6E00 
 9218              	.LASF159:
 9219 0156 4750494F 		.ascii	"GPIO_Mode_AIN\000"
 9219      5F4D6F64 
 9219      655F4149 
 9219      4E00
 9220              	.LASF30:
 9221 0164 54414D50 		.ascii	"TAMPER_IRQn\000"
 9221      45525F49 
 9221      52516E00 
 9222              	.LASF230:
 9223 0170 76546173 		.ascii	"vTaskStartScheduler\000"
 9223      6B537461 
 9223      72745363 
 9223      68656475 
 9223      6C657200 
 9224              	.LASF198:
 9225 0184 6D61696E 		.ascii	"main\000"
 9225      00
 9226              	.LASF219:
 9227 0189 4952516E 		.ascii	"IRQn\000"
 9227      00
 9228              	.LASF140:
 9229 018e 52455345 		.ascii	"RESERVED13\000"
 9229      52564544 
 9229      313300
 9230              	.LASF120:
 9231 0199 41504232 		.ascii	"APB2ENR\000"
 9231      454E5200 
 9232              	.LASF208:
 9233 01a1 55534152 		.ascii	"USART_InitStructure\000"
 9233      545F496E 
 9233      69745374 
 9233      72756374 
 9233      75726500 
 9234              	.LASF165:
 9235 01b5 4750494F 		.ascii	"GPIO_Mode_AF_OD\000"
 9235      5F4D6F64 
 9235      655F4146 
 9235      5F4F4400 
 9236              	.LASF27:
 9237 01c5 53797354 		.ascii	"SysTick_IRQn\000"
 9237      69636B5F 
 9237      4952516E 
 9237      00
ARM GAS  /tmp/ccaJFhKP.s 			page 185


 9238              	.LASF106:
 9239 01d2 57525052 		.ascii	"WRPR\000"
 9239      00
 9240              	.LASF67:
 9241 01d7 55534152 		.ascii	"USART3_IRQn\000"
 9241      54335F49 
 9241      52516E00 
 9242              	.LASF19:
 9243 01e3 51756575 		.ascii	"QueueHandle_t\000"
 9243      6548616E 
 9243      646C655F 
 9243      7400
 9244              	.LASF3:
 9245 01f1 7369676E 		.ascii	"signed char\000"
 9245      65642063 
 9245      68617200 
 9246              	.LASF13:
 9247 01fd 75696E74 		.ascii	"uint8_t\000"
 9247      385F7400 
 9248              	.LASF171:
 9249 0205 4750494F 		.ascii	"GPIO_InitTypeDef\000"
 9249      5F496E69 
 9249      74547970 
 9249      65446566 
 9249      00
 9250              	.LASF210:
 9251 0216 70617373 		.ascii	"passo\000"
 9251      6F00
 9252              	.LASF152:
 9253 021c 54494D5F 		.ascii	"TIM_TypeDef\000"
 9253      54797065 
 9253      44656600 
 9254              	.LASF73:
 9255 0228 52455345 		.ascii	"RESERVED0\000"
 9255      52564544 
 9255      3000
 9256              	.LASF126:
 9257 0232 52455345 		.ascii	"RESERVED1\000"
 9257      52564544 
 9257      3100
 9258              	.LASF4:
 9259 023c 756E7369 		.ascii	"unsigned char\000"
 9259      676E6564 
 9259      20636861 
 9259      7200
 9260              	.LASF79:
 9261 024a 52455345 		.ascii	"RESERVED3\000"
 9261      52564544 
 9261      3300
 9262              	.LASF81:
 9263 0254 52455345 		.ascii	"RESERVED4\000"
 9263      52564544 
 9263      3400
 9264              	.LASF82:
 9265 025e 52455345 		.ascii	"RESERVED5\000"
 9265      52564544 
 9265      3500
ARM GAS  /tmp/ccaJFhKP.s 			page 186


 9266              	.LASF130:
 9267 0268 52455345 		.ascii	"RESERVED6\000"
 9267      52564544 
 9267      3600
 9268              	.LASF132:
 9269 0272 52455345 		.ascii	"RESERVED7\000"
 9269      52564544 
 9269      3700
 9270              	.LASF134:
 9271 027c 52455345 		.ascii	"RESERVED8\000"
 9271      52564544 
 9271      3800
 9272              	.LASF135:
 9273 0286 52455345 		.ascii	"RESERVED9\000"
 9273      52564544 
 9273      3900
 9274              	.LASF166:
 9275 0290 4750494F 		.ascii	"GPIO_Mode_AF_PP\000"
 9275      5F4D6F64 
 9275      655F4146 
 9275      5F505000 
 9276              	.LASF80:
 9277 02a0 49414252 		.ascii	"IABR\000"
 9277      00
 9278              	.LASF173:
 9279 02a5 55534152 		.ascii	"USART_WordLength\000"
 9279      545F576F 
 9279      72644C65 
 9279      6E677468 
 9279      00
 9280              	.LASF60:
 9281 02b6 49324331 		.ascii	"I2C1_ER_IRQn\000"
 9281      5F45525F 
 9281      4952516E 
 9281      00
 9282              	.LASF228:
 9283 02c3 78517565 		.ascii	"xQueueGenericCreate\000"
 9283      75654765 
 9283      6E657269 
 9283      63437265 
 9283      61746500 
 9284              	.LASF39:
 9285 02d7 444D4131 		.ascii	"DMA1_Channel1_IRQn\000"
 9285      5F436861 
 9285      6E6E656C 
 9285      315F4952 
 9285      516E00
 9286              	.LASF52:
 9287 02ea 54494D31 		.ascii	"TIM1_BRK_IRQn\000"
 9287      5F42524B 
 9287      5F495251 
 9287      6E00
 9288              	.LASF77:
 9289 02f8 52455345 		.ascii	"RESERVED2\000"
 9289      52564544 
 9289      3200
 9290              	.LASF175:
ARM GAS  /tmp/ccaJFhKP.s 			page 187


 9291 0302 55534152 		.ascii	"USART_Parity\000"
 9291      545F5061 
 9291      72697479 
 9291      00
 9292              	.LASF23:
 9293 030f 55736167 		.ascii	"UsageFault_IRQn\000"
 9293      65466175 
 9293      6C745F49 
 9293      52516E00 
 9294              	.LASF129:
 9295 031f 43434D52 		.ascii	"CCMR1\000"
 9295      3100
 9296              	.LASF47:
 9297 0325 5553425F 		.ascii	"USB_HP_CAN1_TX_IRQn\000"
 9297      48505F43 
 9297      414E315F 
 9297      54585F49 
 9297      52516E00 
 9298              	.LASF18:
 9299 0339 63686172 		.ascii	"char\000"
 9299      00
 9300              	.LASF245:
 9301 033e 5243435F 		.ascii	"RCC_APB2PeriphClockCmd\000"
 9301      41504232 
 9301      50657269 
 9301      7068436C 
 9301      6F636B43 
 9302              	.LASF163:
 9303 0355 4750494F 		.ascii	"GPIO_Mode_Out_OD\000"
 9303      5F4D6F64 
 9303      655F4F75 
 9303      745F4F44 
 9303      00
 9304              	.LASF7:
 9305 0366 5F5F7569 		.ascii	"__uint16_t\000"
 9305      6E743136 
 9305      5F7400
 9306              	.LASF218:
 9307 0371 64697361 		.ascii	"disable_interrupt\000"
 9307      626C655F 
 9307      696E7465 
 9307      72727570 
 9307      7400
 9308              	.LASF252:
 9309 0383 5F5F6165 		.ascii	"__aeabi_f2iz\000"
 9309      6162695F 
 9309      6632697A 
 9309      00
 9310              	.LASF157:
 9311 0390 4750494F 		.ascii	"GPIO_Speed_50MHz\000"
 9311      5F537065 
 9311      65645F35 
 9311      304D487A 
 9311      00
 9312              	.LASF114:
 9313 03a1 4D415052 		.ascii	"MAPR2\000"
 9313      3200
ARM GAS  /tmp/ccaJFhKP.s 			page 188


 9314              	.LASF154:
 9315 03a7 55534152 		.ascii	"USART_TypeDef\000"
 9315      545F5479 
 9315      70654465 
 9315      6600
 9316              	.LASF181:
 9317 03b5 4C43445F 		.ascii	"LCD_Show_queue\000"
 9317      53686F77 
 9317      5F717565 
 9317      756500
 9318              	.LASF70:
 9319 03c4 55534257 		.ascii	"USBWakeUp_IRQn\000"
 9319      616B6555 
 9319      705F4952 
 9319      516E00
 9320              	.LASF58:
 9321 03d3 54494D34 		.ascii	"TIM4_IRQn\000"
 9321      5F495251 
 9321      6E00
 9322              	.LASF66:
 9323 03dd 55534152 		.ascii	"USART2_IRQn\000"
 9323      54325F49 
 9323      52516E00 
 9324              	.LASF249:
 9325 03e9 55534152 		.ascii	"USART_Init\000"
 9325      545F496E 
 9325      697400
 9326              	.LASF232:
 9327 03f4 69746F61 		.ascii	"itoa\000"
 9327      00
 9328              	.LASF211:
 9329 03f9 74656D70 		.ascii	"temp\000"
 9329      00
 9330              	.LASF122:
 9331 03fe 42444352 		.ascii	"BDCR\000"
 9331      00
 9332              	.LASF83:
 9333 0403 53544952 		.ascii	"STIR\000"
 9333      00
 9334              	.LASF59:
 9335 0408 49324331 		.ascii	"I2C1_EV_IRQn\000"
 9335      5F45565F 
 9335      4952516E 
 9335      00
 9336              	.LASF102:
 9337 0415 4144435F 		.ascii	"ADC_TypeDef\000"
 9337      54797065 
 9337      44656600 
 9338              	.LASF105:
 9339 0421 52455345 		.ascii	"RESERVED\000"
 9339      52564544 
 9339      00
 9340              	.LASF236:
 9341 042a 78517565 		.ascii	"xQueuePeek\000"
 9341      75655065 
 9341      656B00
 9342              	.LASF239:
ARM GAS  /tmp/ccaJFhKP.s 			page 189


 9343 0435 5F5F6165 		.ascii	"__aeabi_f2d\000"
 9343      6162695F 
 9343      66326400 
 9344              	.LASF172:
 9345 0441 55534152 		.ascii	"USART_BaudRate\000"
 9345      545F4261 
 9345      75645261 
 9345      746500
 9346              	.LASF116:
 9347 0450 43464752 		.ascii	"CFGR\000"
 9347      00
 9348              	.LASF176:
 9349 0455 55534152 		.ascii	"USART_Mode\000"
 9349      545F4D6F 
 9349      646500
 9350              	.LASF55:
 9351 0460 54494D31 		.ascii	"TIM1_CC_IRQn\000"
 9351      5F43435F 
 9351      4952516E 
 9351      00
 9352              	.LASF35:
 9353 046d 45585449 		.ascii	"EXTI1_IRQn\000"
 9353      315F4952 
 9353      516E00
 9354              	.LASF164:
 9355 0478 4750494F 		.ascii	"GPIO_Mode_Out_PP\000"
 9355      5F4D6F64 
 9355      655F4F75 
 9355      745F5050 
 9355      00
 9356              	.LASF233:
 9357 0489 78517565 		.ascii	"xQueueGenericSend\000"
 9357      75654765 
 9357      6E657269 
 9357      6353656E 
 9357      6400
 9358              	.LASF182:
 9359 049b 49525F44 		.ascii	"IR_Data_queue\000"
 9359      6174615F 
 9359      71756575 
 9359      6500
 9360              	.LASF104:
 9361 04a9 4F50544B 		.ascii	"OPTKEYR\000"
 9361      45595200 
 9362              	.LASF244:
 9363 04b1 4750494F 		.ascii	"GPIO_ReadInputDataBit\000"
 9363      5F526561 
 9363      64496E70 
 9363      75744461 
 9363      74614269 
 9364              	.LASF20:
 9365 04c7 4E6F6E4D 		.ascii	"NonMaskableInt_IRQn\000"
 9365      61736B61 
 9365      626C6549 
 9365      6E745F49 
 9365      52516E00 
 9366              	.LASF28:
ARM GAS  /tmp/ccaJFhKP.s 			page 190


 9367 04db 57574447 		.ascii	"WWDG_IRQn\000"
 9367      5F495251 
 9367      6E00
 9368              	.LASF11:
 9369 04e5 6C6F6E67 		.ascii	"long unsigned int\000"
 9369      20756E73 
 9369      69676E65 
 9369      6420696E 
 9369      7400
 9370              	.LASF121:
 9371 04f7 41504231 		.ascii	"APB1ENR\000"
 9371      454E5200 
 9372              	.LASF21:
 9373 04ff 4D656D6F 		.ascii	"MemoryManagement_IRQn\000"
 9373      72794D61 
 9373      6E616765 
 9373      6D656E74 
 9373      5F495251 
 9374              	.LASF42:
 9375 0515 444D4131 		.ascii	"DMA1_Channel4_IRQn\000"
 9375      5F436861 
 9375      6E6E656C 
 9375      345F4952 
 9375      516E00
 9376              	.LASF128:
 9377 0528 44494552 		.ascii	"DIER\000"
 9377      00
 9378              	.LASF203:
 9379 052d 49525F49 		.ascii	"IR_Init\000"
 9379      6E697400 
 9380              	.LASF50:
 9381 0535 43414E31 		.ascii	"CAN1_SCE_IRQn\000"
 9381      5F534345 
 9381      5F495251 
 9381      6E00
 9382              	.LASF71:
 9383 0543 4952516E 		.ascii	"IRQn_Type\000"
 9383      5F547970 
 9383      6500
 9384              	.LASF88:
 9385 054d 534D5052 		.ascii	"SMPR1\000"
 9385      3100
 9386              	.LASF89:
 9387 0553 534D5052 		.ascii	"SMPR2\000"
 9387      3200
 9388              	.LASF231:
 9389 0559 78517565 		.ascii	"xQueueReceive\000"
 9389      75655265 
 9389      63656976 
 9389      6500
 9390              	.LASF259:
 9391 0567 4C434431 		.ascii	"LCD16x2_init\000"
 9391      3678325F 
 9391      696E6974 
 9391      00
 9392              	.LASF174:
 9393 0574 55534152 		.ascii	"USART_StopBits\000"
ARM GAS  /tmp/ccaJFhKP.s 			page 191


 9393      545F5374 
 9393      6F704269 
 9393      747300
 9394              	.LASF109:
 9395 0583 4C434B52 		.ascii	"LCKR\000"
 9395      00
 9396              	.LASF62:
 9397 0588 49324332 		.ascii	"I2C2_ER_IRQn\000"
 9397      5F45525F 
 9397      4952516E 
 9397      00
 9398              	.LASF187:
 9399 0595 61726773 		.ascii	"args\000"
 9399      00
 9400              	.LASF123:
 9401 059a 41484252 		.ascii	"AHBRSTR\000"
 9401      53545200 
 9402              	.LASF22:
 9403 05a2 42757346 		.ascii	"BusFault_IRQn\000"
 9403      61756C74 
 9403      5F495251 
 9403      6E00
 9404              	.LASF111:
 9405 05b0 45564352 		.ascii	"EVCR\000"
 9405      00
 9406              	.LASF184:
 9407 05b5 636F6465 		.ascii	"code_ir\000"
 9407      5F697200 
 9408              	.LASF10:
 9409 05bd 5F5F7569 		.ascii	"__uint32_t\000"
 9409      6E743332 
 9409      5F7400
 9410              	.LASF1:
 9411 05c8 6C6F6E67 		.ascii	"long long int\000"
 9411      206C6F6E 
 9411      6720696E 
 9411      7400
 9412              	.LASF207:
 9413 05d6 55534152 		.ascii	"USART_init\000"
 9413      545F696E 
 9413      697400
 9414              	.LASF227:
 9415 05e1 636F6E66 		.ascii	"configure_PWM_TIM2\000"
 9415      69677572 
 9415      655F5057 
 9415      4D5F5449 
 9415      4D3200
 9416              	.LASF220:
 9417 05f4 656E6162 		.ascii	"enable_interrupt\000"
 9417      6C655F69 
 9417      6E746572 
 9417      72757074 
 9417      00
 9418              	.LASF63:
 9419 0605 53504931 		.ascii	"SPI1_IRQn\000"
 9419      5F495251 
 9419      6E00
ARM GAS  /tmp/ccaJFhKP.s 			page 192


 9420              	.LASF180:
 9421 060f 646F7562 		.ascii	"double\000"
 9421      6C6500
 9422              	.LASF24:
 9423 0616 53564361 		.ascii	"SVCall_IRQn\000"
 9423      6C6C5F49 
 9423      52516E00 
 9424              	.LASF117:
 9425 0622 41504232 		.ascii	"APB2RSTR\000"
 9425      52535452 
 9425      00
 9426              	.LASF69:
 9427 062b 52544341 		.ascii	"RTCAlarm_IRQn\000"
 9427      6C61726D 
 9427      5F495251 
 9427      6E00
 9428              	.LASF248:
 9429 0639 55534152 		.ascii	"USART_GetFlagStatus\000"
 9429      545F4765 
 9429      74466C61 
 9429      67537461 
 9429      74757300 
 9430              	.LASF179:
 9431 064d 666C6F61 		.ascii	"float\000"
 9431      7400
 9432              	.LASF205:
 9433 0653 55534152 		.ascii	"USARTSend\000"
 9433      5453656E 
 9433      6400
 9434              	.LASF0:
 9435 065d 756E7369 		.ascii	"unsigned int\000"
 9435      676E6564 
 9435      20696E74 
 9435      00
 9436              	.LASF240:
 9437 066a 5F5F6165 		.ascii	"__aeabi_dmul\000"
 9437      6162695F 
 9437      646D756C 
 9437      00
 9438              	.LASF124:
 9439 0677 43464752 		.ascii	"CFGR2\000"
 9439      3200
 9440              	.LASF61:
 9441 067d 49324332 		.ascii	"I2C2_EV_IRQn\000"
 9441      5F45565F 
 9441      4952516E 
 9441      00
 9442              	.LASF251:
 9443 068a 5F5F6165 		.ascii	"__aeabi_fmul\000"
 9443      6162695F 
 9443      666D756C 
 9443      00
 9444              	.LASF131:
 9445 0697 43434D52 		.ascii	"CCMR2\000"
 9445      3200
 9446              	.LASF45:
 9447 069d 444D4131 		.ascii	"DMA1_Channel7_IRQn\000"
ARM GAS  /tmp/ccaJFhKP.s 			page 193


 9447      5F436861 
 9447      6E6E656C 
 9447      375F4952 
 9447      516E00
 9448              	.LASF216:
 9449 06b0 696E7454 		.ascii	"intToStr\000"
 9449      6F537472 
 9449      00
 9450              	.LASF191:
 9451 06b9 56616C6F 		.ascii	"Valor_ADC_normalizado\000"
 9451      725F4144 
 9451      435F6E6F 
 9451      726D616C 
 9451      697A6164 
 9452              	.LASF229:
 9453 06cf 78546173 		.ascii	"xTaskCreate\000"
 9453      6B437265 
 9453      61746500 
 9454              	.LASF193:
 9455 06db 7461736B 		.ascii	"task1\000"
 9455      3100
 9456              	.LASF192:
 9457 06e1 7461736B 		.ascii	"task2\000"
 9457      3200
 9458              	.LASF202:
 9459 06e7 7461736B 		.ascii	"task3\000"
 9459      3300
 9460              	.LASF189:
 9461 06ed 7461736B 		.ascii	"task4\000"
 9461      3400
 9462              	.LASF186:
 9463 06f3 7461736B 		.ascii	"task5\000"
 9463      3500
 9464              	.LASF185:
 9465 06f9 7461736B 		.ascii	"task6\000"
 9465      3600
 9466              	.LASF86:
 9467 06ff 44495341 		.ascii	"DISABLE\000"
 9467      424C4500 
 9468              	.LASF2:
 9469 0707 6C6F6E67 		.ascii	"long double\000"
 9469      20646F75 
 9469      626C6500 
 9470              	.LASF54:
 9471 0713 54494D31 		.ascii	"TIM1_TRG_COM_IRQn\000"
 9471      5F545247 
 9471      5F434F4D 
 9471      5F495251 
 9471      6E00
 9472              	.LASF118:
 9473 0725 41504231 		.ascii	"APB1RSTR\000"
 9473      52535452 
 9473      00
 9474              	.LASF234:
 9475 072e 76546173 		.ascii	"vTaskDelay\000"
 9475      6B44656C 
 9475      617900
ARM GAS  /tmp/ccaJFhKP.s 			page 194


 9476              	.LASF246:
 9477 0739 4750494F 		.ascii	"GPIO_Init\000"
 9477      5F496E69 
 9477      7400
 9478              	.LASF84:
 9479 0743 4E564943 		.ascii	"NVIC_Type\000"
 9479      5F547970 
 9479      6500
 9480              	.LASF68:
 9481 074d 45585449 		.ascii	"EXTI15_10_IRQn\000"
 9481      31355F31 
 9481      305F4952 
 9481      516E00
 9482              	.LASF12:
 9483 075c 6C6F6E67 		.ascii	"long long unsigned int\000"
 9483      206C6F6E 
 9483      6720756E 
 9483      7369676E 
 9483      65642069 
 9484              	.LASF14:
 9485 0773 75696E74 		.ascii	"uint16_t\000"
 9485      31365F74 
 9485      00
 9486              	.LASF57:
 9487 077c 54494D33 		.ascii	"TIM3_IRQn\000"
 9487      5F495251 
 9487      6E00
 9488              	.LASF133:
 9489 0786 43434552 		.ascii	"CCER\000"
 9489      00
 9490              	.LASF138:
 9491 078b 52455345 		.ascii	"RESERVED12\000"
 9491      52564544 
 9491      313200
 9492              	.LASF65:
 9493 0796 55534152 		.ascii	"USART1_IRQn\000"
 9493      54315F49 
 9493      52516E00 
 9494              	.LASF142:
 9495 07a2 52455345 		.ascii	"RESERVED14\000"
 9495      52564544 
 9495      313400
 9496              	.LASF144:
 9497 07ad 52455345 		.ascii	"RESERVED15\000"
 9497      52564544 
 9497      313500
 9498              	.LASF146:
 9499 07b8 52455345 		.ascii	"RESERVED16\000"
 9499      52564544 
 9499      313600
 9500              	.LASF148:
 9501 07c3 52455345 		.ascii	"RESERVED17\000"
 9501      52564544 
 9501      313700
 9502              	.LASF149:
 9503 07ce 52455345 		.ascii	"RESERVED18\000"
 9503      52564544 
ARM GAS  /tmp/ccaJFhKP.s 			page 195


 9503      313800
 9504              	.LASF151:
 9505 07d9 52455345 		.ascii	"RESERVED19\000"
 9505      52564544 
 9505      313900
 9506              	.LASF112:
 9507 07e4 4D415052 		.ascii	"MAPR\000"
 9507      00
 9508              	.LASF190:
 9509 07e9 6369636C 		.ascii	"cicle_duty\000"
 9509      655F6475 
 9509      747900
 9510              	.LASF206:
 9511 07f4 70756342 		.ascii	"pucBuffer\000"
 9511      75666665 
 9511      7200
 9512              	.LASF204:
 9513 07fe 4750494F 		.ascii	"GPIO_InitStructure\000"
 9513      5F496E69 
 9513      74537472 
 9513      75637475 
 9513      726500
 9514              	.LASF170:
 9515 0811 4750494F 		.ascii	"GPIO_Mode\000"
 9515      5F4D6F64 
 9515      6500
 9516              	.LASF250:
 9517 081b 55534152 		.ascii	"USART_Cmd\000"
 9517      545F436D 
 9517      6400
 9518              	.LASF17:
 9519 0825 5469636B 		.ascii	"TickType_t\000"
 9519      54797065 
 9519      5F7400
 9520              	.LASF74:
 9521 0830 49434552 		.ascii	"ICER\000"
 9521      00
 9522              	.LASF127:
 9523 0835 534D4352 		.ascii	"SMCR\000"
 9523      00
 9524              	.LASF167:
 9525 083a 4750494F 		.ascii	"GPIOMode_TypeDef\000"
 9525      4D6F6465 
 9525      5F547970 
 9525      65446566 
 9525      00
 9526              	.LASF85:
 9527 084b 52455345 		.ascii	"RESET\000"
 9527      5400
 9528              	.LASF242:
 9529 0851 64697370 		.ascii	"disp_init\000"
 9529      5F696E69 
 9529      7400
 9530              	.LASF178:
 9531 085b 55534152 		.ascii	"USART_InitTypeDef\000"
 9531      545F496E 
 9531      69745479 
ARM GAS  /tmp/ccaJFhKP.s 			page 196


 9531      70654465 
 9531      6600
 9532              	.LASF29:
 9533 086d 5056445F 		.ascii	"PVD_IRQn\000"
 9533      4952516E 
 9533      00
 9534              	.LASF200:
 9535 0876 636F6465 		.ascii	"code\000"
 9535      00
 9536              	.LASF34:
 9537 087b 45585449 		.ascii	"EXTI0_IRQn\000"
 9537      305F4952 
 9537      516E00
 9538              	.LASF253:
 9539 0886 5F5F6165 		.ascii	"__aeabi_fsub\000"
 9539      6162695F 
 9539      66737562 
 9539      00
 9540              	.LASF156:
 9541 0893 4750494F 		.ascii	"GPIO_Speed_2MHz\000"
 9541      5F537065 
 9541      65645F32 
 9541      4D487A00 
 9542              	.LASF158:
 9543 08a3 4750494F 		.ascii	"GPIOSpeed_TypeDef\000"
 9543      53706565 
 9543      645F5479 
 9543      70654465 
 9543      6600
 9544              	.LASF25:
 9545 08b5 44656275 		.ascii	"DebugMonitor_IRQn\000"
 9545      674D6F6E 
 9545      69746F72 
 9545      5F495251 
 9545      6E00
 9546              	.LASF168:
 9547 08c7 4750494F 		.ascii	"GPIO_Pin\000"
 9547      5F50696E 
 9547      00
 9548              	.LASF237:
 9549 08d0 64697370 		.ascii	"disp_clear\000"
 9549      5F636C65 
 9549      617200
 9550              	.LASF48:
 9551 08db 5553425F 		.ascii	"USB_LP_CAN1_RX0_IRQn\000"
 9551      4C505F43 
 9551      414E315F 
 9551      5258305F 
 9551      4952516E 
 9552              	.LASF41:
 9553 08f0 444D4131 		.ascii	"DMA1_Channel3_IRQn\000"
 9553      5F436861 
 9553      6E6E656C 
 9553      335F4952 
 9553      516E00
 9554              	.LASF103:
 9555 0903 4B455952 		.ascii	"KEYR\000"
ARM GAS  /tmp/ccaJFhKP.s 			page 197


 9555      00
 9556              	.LASF125:
 9557 0908 5243435F 		.ascii	"RCC_TypeDef\000"
 9557      54797065 
 9557      44656600 
 9558              	.LASF5:
 9559 0914 73686F72 		.ascii	"short int\000"
 9559      7420696E 
 9559      7400
 9560              	.LASF33:
 9561 091e 5243435F 		.ascii	"RCC_IRQn\000"
 9561      4952516E 
 9561      00
 9562              	.LASF160:
 9563 0927 4750494F 		.ascii	"GPIO_Mode_IN_FLOATING\000"
 9563      5F4D6F64 
 9563      655F494E 
 9563      5F464C4F 
 9563      4154494E 
 9564              	.LASF214:
 9565 093d 70726563 		.ascii	"precision\000"
 9565      6973696F 
 9565      6E00
 9566              	.LASF115:
 9567 0947 4146494F 		.ascii	"AFIO_TypeDef\000"
 9567      5F547970 
 9567      65446566 
 9567      00
 9568              	.LASF90:
 9569 0954 4A4F4652 		.ascii	"JOFR1\000"
 9569      3100
 9570              	.LASF91:
 9571 095a 4A4F4652 		.ascii	"JOFR2\000"
 9571      3200
 9572              	.LASF92:
 9573 0960 4A4F4652 		.ascii	"JOFR3\000"
 9573      3300
 9574              	.LASF93:
 9575 0966 4A4F4652 		.ascii	"JOFR4\000"
 9575      3400
 9576              	.LASF197:
 9577 096c 656E745F 		.ascii	"ent_atual\000"
 9577      61747561 
 9577      6C00
 9578              	.LASF46:
 9579 0976 41444331 		.ascii	"ADC1_2_IRQn\000"
 9579      5F325F49 
 9579      52516E00 
 9580              	.LASF87:
 9581 0982 454E4142 		.ascii	"ENABLE\000"
 9581      4C4500
 9582              	.LASF221:
 9583 0989 41444339 		.ascii	"ADC9_GetValue\000"
 9583      5F476574 
 9583      56616C75 
 9583      6500
 9584              	.LASF119:
ARM GAS  /tmp/ccaJFhKP.s 			page 198


 9585 0997 41484245 		.ascii	"AHBENR\000"
 9585      4E5200
 9586              	.LASF255:
 9587 099e 474E5520 		.ascii	"GNU C17 10.3.1 20210824 (release) -mcpu=cortex-m3 -"
 9587      43313720 
 9587      31302E33 
 9587      2E312032 
 9587      30323130 
 9588 09d1 6D746875 		.ascii	"mthumb -mfloat-abi=soft -march=armv7-m -g -gdwarf-2"
 9588      6D62202D 
 9588      6D666C6F 
 9588      61742D61 
 9588      62693D73 
 9589 0a04 202D4F73 		.ascii	" -Os -fomit-frame-pointer\000"
 9589      202D666F 
 9589      6D69742D 
 9589      6672616D 
 9589      652D706F 
 9590              	.LASF108:
 9591 0a1e 42535252 		.ascii	"BSRR\000"
 9591      00
 9592              	.LASF98:
 9593 0a23 4A445231 		.ascii	"JDR1\000"
 9593      00
 9594              	.LASF99:
 9595 0a28 4A445232 		.ascii	"JDR2\000"
 9595      00
 9596              	.LASF100:
 9597 0a2d 4A445233 		.ascii	"JDR3\000"
 9597      00
 9598              	.LASF101:
 9599 0a32 4A445234 		.ascii	"JDR4\000"
 9599      00
 9600              	.LASF196:
 9601 0a37 466C6F61 		.ascii	"Float_point\000"
 9601      745F706F 
 9601      696E7400 
 9602              	.LASF224:
 9603 0a43 7365745F 		.ascii	"set_system_clock_to_72Mhz\000"
 9603      73797374 
 9603      656D5F63 
 9603      6C6F636B 
 9603      5F746F5F 
 9604              	.LASF97:
 9605 0a5d 4A535152 		.ascii	"JSQR\000"
 9605      00
 9606              	.LASF110:
 9607 0a62 4750494F 		.ascii	"GPIO_TypeDef\000"
 9607      5F547970 
 9607      65446566 
 9607      00
 9608              	.LASF40:
 9609 0a6f 444D4131 		.ascii	"DMA1_Channel2_IRQn\000"
 9609      5F436861 
 9609      6E6E656C 
 9609      325F4952 
 9609      516E00
ARM GAS  /tmp/ccaJFhKP.s 			page 199


 9610              	.LASF107:
 9611 0a82 464C4153 		.ascii	"FLASH_TypeDef\000"
 9611      485F5479 
 9611      70654465 
 9611      6600
 9612              	.LASF199:
 9613 0a90 49525F52 		.ascii	"IR_Read\000"
 9613      65616400 
 9614              	.LASF147:
 9615 0a98 42445452 		.ascii	"BDTR\000"
 9615      00
 9616              	.LASF194:
 9617 0a9d 6D73675F 		.ascii	"msg_buf_rev\000"
 9617      6275665F 
 9617      72657600 
 9618              	.LASF15:
 9619 0aa9 75696E74 		.ascii	"uint32_t\000"
 9619      33325F74 
 9619      00
 9620              	.LASF53:
 9621 0ab2 54494D31 		.ascii	"TIM1_UP_IRQn\000"
 9621      5F55505F 
 9621      4952516E 
 9621      00
 9622              	.LASF49:
 9623 0abf 43414E31 		.ascii	"CAN1_RX1_IRQn\000"
 9623      5F525831 
 9623      5F495251 
 9623      6E00
 9624              	.LASF177:
 9625 0acd 55534152 		.ascii	"USART_HardwareFlowControl\000"
 9625      545F4861 
 9625      72647761 
 9625      7265466C 
 9625      6F77436F 
 9626              	.LASF254:
 9627 0ae7 5F5F6165 		.ascii	"__aeabi_fcmplt\000"
 9627      6162695F 
 9627      66636D70 
 9627      6C7400
 9628              	.LASF51:
 9629 0af6 45585449 		.ascii	"EXTI9_5_IRQn\000"
 9629      395F355F 
 9629      4952516E 
 9629      00
 9630              	.LASF155:
 9631 0b03 4750494F 		.ascii	"GPIO_Speed_10MHz\000"
 9631      5F537065 
 9631      65645F31 
 9631      304D487A 
 9631      00
 9632              	.LASF38:
 9633 0b14 45585449 		.ascii	"EXTI4_IRQn\000"
 9633      345F4952 
 9633      516E00
 9634              	.LASF8:
 9635 0b1f 73686F72 		.ascii	"short unsigned int\000"
ARM GAS  /tmp/ccaJFhKP.s 			page 200


 9635      7420756E 
 9635      7369676E 
 9635      65642069 
 9635      6E7400
 9636              	.LASF136:
 9637 0b32 52455345 		.ascii	"RESERVED10\000"
 9637      52564544 
 9637      313000
 9638              	.LASF137:
 9639 0b3d 52455345 		.ascii	"RESERVED11\000"
 9639      52564544 
 9639      313100
 9640              	.LASF76:
 9641 0b48 49535052 		.ascii	"ISPR\000"
 9641      00
 9642              	.LASF37:
 9643 0b4d 45585449 		.ascii	"EXTI3_IRQn\000"
 9643      335F4952 
 9643      516E00
 9644              	.LASF26:
 9645 0b58 50656E64 		.ascii	"PendSV_IRQn\000"
 9645      53565F49 
 9645      52516E00 
 9646              	.LASF213:
 9647 0b64 666C6F61 		.ascii	"floatToString\000"
 9647      74546F53 
 9647      7472696E 
 9647      6700
 9648              	.LASF72:
 9649 0b72 49534552 		.ascii	"ISER\000"
 9649      00
 9650              	.LASF256:
 9651 0b77 2E2E2F38 		.ascii	"../8-LCD-TEMP-STP_Motor_IR/main.c\000"
 9651      2D4C4344 
 9651      2D54454D 
 9651      502D5354 
 9651      505F4D6F 
 9652              	.LASF241:
 9653 0b99 5F5F6165 		.ascii	"__aeabi_d2f\000"
 9653      6162695F 
 9653      64326600 
 9654              	.LASF44:
 9655 0ba5 444D4131 		.ascii	"DMA1_Channel6_IRQn\000"
 9655      5F436861 
 9655      6E6E656C 
 9655      365F4952 
 9655      516E00
 9656              	.LASF201:
 9657 0bb8 64617461 		.ascii	"data\000"
 9657      00
 9658              	.LASF238:
 9659 0bbd 5F5F6165 		.ascii	"__aeabi_i2f\000"
 9659      6162695F 
 9659      69326600 
 9660              	.LASF257:
 9661 0bc9 2F686F6D 		.ascii	"/home/junior/Codigos/6-Stm32_GCC_FreeRTOS10.2.1/8-L"
 9661      652F6A75 
ARM GAS  /tmp/ccaJFhKP.s 			page 201


 9661      6E696F72 
 9661      2F436F64 
 9661      69676F73 
 9662 0bfc 43442D54 		.ascii	"CD-TEMP-STP_Motor_IR\000"
 9662      454D502D 
 9662      5354505F 
 9662      4D6F746F 
 9662      725F4952 
 9663              	.LASF235:
 9664 0c11 64697370 		.ascii	"disp_text\000"
 9664      5F746578 
 9664      7400
 9665              	.LASF31:
 9666 0c1b 5254435F 		.ascii	"RTC_IRQn\000"
 9666      4952516E 
 9666      00
 9667              	.LASF215:
 9668 0c24 696E7465 		.ascii	"inteira\000"
 9668      69726100 
 9669              	.LASF195:
 9670 0c2c 42554646 		.ascii	"BUFF\000"
 9670      00
 9671              	.LASF161:
 9672 0c31 4750494F 		.ascii	"GPIO_Mode_IPD\000"
 9672      5F4D6F64 
 9672      655F4950 
 9672      4400
 9673              		.ident	"GCC: (GNU Arm Embedded Toolchain 10.3-2021.10) 10.3.1 20210824 (release)"
ARM GAS  /tmp/ccaJFhKP.s 			page 202


DEFINED SYMBOLS
                            *ABS*:0000000000000000 main.c
     /tmp/ccaJFhKP.s:78     .text:0000000000000000 $t
     /tmp/ccaJFhKP.s:83     .text:0000000000000000 task2
     /tmp/ccaJFhKP.s:141    .text:0000000000000028 $d
     /tmp/ccaJFhKP.s:146    .text:0000000000000030 $t
     /tmp/ccaJFhKP.s:151    .text:0000000000000030 task6
     /tmp/ccaJFhKP.s:266    .text:000000000000007c $d
     /tmp/ccaJFhKP.s:273    .text:000000000000008c $t
     /tmp/ccaJFhKP.s:279    .text:000000000000008c configure_PWM_TIM2
     /tmp/ccaJFhKP.s:407    .text:0000000000000130 $d
     /tmp/ccaJFhKP.s:413    .text:000000000000013c $t
     /tmp/ccaJFhKP.s:419    .text:000000000000013c ADC1_configure
     /tmp/ccaJFhKP.s:546    .text:00000000000001bc $d
     /tmp/ccaJFhKP.s:552    .text:00000000000001c8 $t
     /tmp/ccaJFhKP.s:558    .text:00000000000001c8 set_system_clock_to_72Mhz
     /tmp/ccaJFhKP.s:666    .text:0000000000000238 $d
     /tmp/ccaJFhKP.s:670    .text:000000000000023c $t
     /tmp/ccaJFhKP.s:676    .text:000000000000023c Delay
     /tmp/ccaJFhKP.s:747    .text:0000000000000268 $d
     /tmp/ccaJFhKP.s:751    .text:000000000000026c $t
     /tmp/ccaJFhKP.s:757    .text:000000000000026c enable_TIM3_delay
     /tmp/ccaJFhKP.s:795    .text:0000000000000290 $d
     /tmp/ccaJFhKP.s:799    .text:0000000000000294 $t
     /tmp/ccaJFhKP.s:805    .text:0000000000000294 enable_interrupt
     /tmp/ccaJFhKP.s:837    .text:00000000000002a8 $d
     /tmp/ccaJFhKP.s:841    .text:00000000000002ac $t
     /tmp/ccaJFhKP.s:847    .text:00000000000002ac disable_interrupt
     /tmp/ccaJFhKP.s:880    .text:00000000000002c4 $d
     /tmp/ccaJFhKP.s:884    .text:00000000000002c8 $t
     /tmp/ccaJFhKP.s:890    .text:00000000000002c8 intToStr
     /tmp/ccaJFhKP.s:1023   .text:0000000000000304 floatToString
     /tmp/ccaJFhKP.s:1210   .text:0000000000000384 $d
     /tmp/ccaJFhKP.s:1215   .text:0000000000000388 $t
     /tmp/ccaJFhKP.s:1221   .text:0000000000000388 controlarMotorPasso
     /tmp/ccaJFhKP.s:1252   .text:00000000000003a6 $d
     /tmp/ccaJFhKP.s:1320   .text:00000000000003e8 $d
     /tmp/ccaJFhKP.s:1324   .text:00000000000003ec $t
     /tmp/ccaJFhKP.s:1329   .text:00000000000003ec task4
     /tmp/ccaJFhKP.s:1466   .text:0000000000000458 $d
     /tmp/ccaJFhKP.s:1474   .text:0000000000000468 $t
     /tmp/ccaJFhKP.s:1480   .text:0000000000000468 USART_init
     /tmp/ccaJFhKP.s:1593   .text:00000000000004d4 $d
     /tmp/ccaJFhKP.s:1597   .text:00000000000004d8 $t
     /tmp/ccaJFhKP.s:1603   .text:00000000000004d8 USARTSend
     /tmp/ccaJFhKP.s:1662   .text:00000000000004fc $d
     /tmp/ccaJFhKP.s:1666   .text:0000000000000500 $t
     /tmp/ccaJFhKP.s:1672   .text:0000000000000500 ADC9_Configuration
     /tmp/ccaJFhKP.s:1761   .text:0000000000000560 $d
     /tmp/ccaJFhKP.s:1768   .text:0000000000000570 $t
     /tmp/ccaJFhKP.s:1774   .text:0000000000000570 task3
     /tmp/ccaJFhKP.s:1828   .text:0000000000000594 $d
     /tmp/ccaJFhKP.s:1833   .text:000000000000059c $t
     /tmp/ccaJFhKP.s:1839   .text:000000000000059c ADC9_GetValue
     /tmp/ccaJFhKP.s:1875   .text:00000000000005b4 $d
     /tmp/ccaJFhKP.s:1879   .text:00000000000005b8 $t
     /tmp/ccaJFhKP.s:1885   .text:00000000000005b8 IR_Init
ARM GAS  /tmp/ccaJFhKP.s 			page 203


     /tmp/ccaJFhKP.s:1935   .text:00000000000005e0 $d
     /tmp/ccaJFhKP.s:1939   .text:00000000000005e4 $t
     /tmp/ccaJFhKP.s:1945   .text:00000000000005e4 IR_Read
     /tmp/ccaJFhKP.s:2074   .text:0000000000000640 $d
     /tmp/ccaJFhKP.s:2082   .text:0000000000000644 $t
     /tmp/ccaJFhKP.s:2087   .text:0000000000000644 task5
     /tmp/ccaJFhKP.s:2206   .text:00000000000006b0 $d
     /tmp/ccaJFhKP.s:2224   .text:00000000000006c4 $t
     /tmp/ccaJFhKP.s:2230   .text:00000000000006c4 LCD16x2_init
     /tmp/ccaJFhKP.s:2388   .text:000000000000076c $d
     /tmp/ccaJFhKP.s:2407   .text:0000000000000788 $t
     /tmp/ccaJFhKP.s:2412   .text:0000000000000788 task1
     /tmp/ccaJFhKP.s:2740   .text:00000000000008c8 $d
     /tmp/ccaJFhKP.s:2769   .text.startup:0000000000000000 $t
     /tmp/ccaJFhKP.s:2775   .text.startup:0000000000000000 main
     /tmp/ccaJFhKP.s:2898   .text.startup:0000000000000098 $d
     /tmp/ccaJFhKP.s:2915   .bss:0000000000000000 $d
     /tmp/ccaJFhKP.s:2919   .bss:0000000000000000 PWM_data_queue
     /tmp/ccaJFhKP.s:2923   .bss:0000000000000004 IR_Data_queue
     /tmp/ccaJFhKP.s:2927   .bss:0000000000000008 LCD_Show_queue
     /tmp/ccaJFhKP.s:1259   .text:00000000000003ad $d
     /tmp/ccaJFhKP.s:1259   .text:00000000000003ae $t

UNDEFINED SYMBOLS
vTaskDelay
xQueueReceive
__aeabi_fcmplt
__aeabi_f2iz
__aeabi_i2f
__aeabi_fsub
__aeabi_fmul
RCC_APB2PeriphClockCmd
GPIO_Init
USART_Init
USART_Cmd
USART_SendData
USART_GetFlagStatus
xQueueGenericSend
GPIO_ReadInputDataBit
itoa
disp_init
disp_cmd
disp_text
disp_clear
__aeabi_f2d
__aeabi_dmul
__aeabi_d2f
xQueuePeek
xQueueGenericCreate
xTaskCreate
vTaskStartScheduler
