ARM GAS  /tmp/ccRlFgm0.s 			page 1


   1              		.cpu cortex-m3
   2              		.arch armv7-m
   3              		.fpu softvfp
   4              		.eabi_attribute 20, 1	@ Tag_ABI_FP_denormal
   5              		.eabi_attribute 21, 1	@ Tag_ABI_FP_exceptions
   6              		.eabi_attribute 23, 3	@ Tag_ABI_FP_number_model
   7              		.eabi_attribute 24, 1	@ Tag_ABI_align8_needed
   8              		.eabi_attribute 25, 1	@ Tag_ABI_align8_preserved
   9              		.eabi_attribute 26, 1	@ Tag_ABI_enum_size
  10              		.eabi_attribute 30, 4	@ Tag_ABI_optimization_goals
  11              		.eabi_attribute 34, 1	@ Tag_CPU_unaligned_access
  12              		.eabi_attribute 18, 4	@ Tag_ABI_PCS_wchar_t
  13              		.file	"list.c"
  14              	@ GNU C17 (Arch Repository) version 13.2.0 (arm-none-eabi)
  15              	@	compiled by GNU C version 13.2.1 20230730, GMP version 6.2.1, MPFR version 4.2.0-p12, MPC version
  16              	
  17              	@ warning: GMP header version 6.2.1 differs from library version 6.3.0.
  18              	@ GGC heuristics: --param ggc-min-expand=100 --param ggc-min-heapsize=131072
  19              	@ options passed: -mcpu=cortex-m3 -mthumb -mfloat-abi=soft -march=armv7-m -g -gdwarf-2 -Os -fomit-f
  20              		.text
  21              	.Ltext0:
  22              		.cfi_sections	.debug_frame
  23              		.file 1 "../freertos/list.c"
  24              		.align	1
  25              		.global	vListInitialise
  26              		.syntax unified
  27              		.thumb
  28              		.thumb_func
  29              		.type	vListInitialise, %function
  30              	vListInitialise:
  31              	.LVL0:
  32              	.LFB5:
   1:../freertos/list.c **** /*
   2:../freertos/list.c ****  * FreeRTOS Kernel V10.2.1
   3:../freertos/list.c ****  * Copyright (C) 2019 Amazon.com, Inc. or its affiliates.  All Rights Reserved.
   4:../freertos/list.c ****  *
   5:../freertos/list.c ****  * Permission is hereby granted, free of charge, to any person obtaining a copy of
   6:../freertos/list.c ****  * this software and associated documentation files (the "Software"), to deal in
   7:../freertos/list.c ****  * the Software without restriction, including without limitation the rights to
   8:../freertos/list.c ****  * use, copy, modify, merge, publish, distribute, sublicense, and/or sell copies of
   9:../freertos/list.c ****  * the Software, and to permit persons to whom the Software is furnished to do so,
  10:../freertos/list.c ****  * subject to the following conditions:
  11:../freertos/list.c ****  *
  12:../freertos/list.c ****  * The above copyright notice and this permission notice shall be included in all
  13:../freertos/list.c ****  * copies or substantial portions of the Software.
  14:../freertos/list.c ****  *
  15:../freertos/list.c ****  * THE SOFTWARE IS PROVIDED "AS IS", WITHOUT WARRANTY OF ANY KIND, EXPRESS OR
  16:../freertos/list.c ****  * IMPLIED, INCLUDING BUT NOT LIMITED TO THE WARRANTIES OF MERCHANTABILITY, FITNESS
  17:../freertos/list.c ****  * FOR A PARTICULAR PURPOSE AND NONINFRINGEMENT. IN NO EVENT SHALL THE AUTHORS OR
  18:../freertos/list.c ****  * COPYRIGHT HOLDERS BE LIABLE FOR ANY CLAIM, DAMAGES OR OTHER LIABILITY, WHETHER
  19:../freertos/list.c ****  * IN AN ACTION OF CONTRACT, TORT OR OTHERWISE, ARISING FROM, OUT OF OR IN
  20:../freertos/list.c ****  * CONNECTION WITH THE SOFTWARE OR THE USE OR OTHER DEALINGS IN THE SOFTWARE.
  21:../freertos/list.c ****  *
  22:../freertos/list.c ****  * http://www.FreeRTOS.org
  23:../freertos/list.c ****  * http://aws.amazon.com/freertos
  24:../freertos/list.c ****  *
  25:../freertos/list.c ****  * 1 tab == 4 spaces!
ARM GAS  /tmp/ccRlFgm0.s 			page 2


  26:../freertos/list.c ****  */
  27:../freertos/list.c **** 
  28:../freertos/list.c **** 
  29:../freertos/list.c **** #include <stdlib.h>
  30:../freertos/list.c **** #include "FreeRTOS.h"
  31:../freertos/list.c **** #include "list.h"
  32:../freertos/list.c **** 
  33:../freertos/list.c **** /*-----------------------------------------------------------
  34:../freertos/list.c ****  * PUBLIC LIST API documented in list.h
  35:../freertos/list.c ****  *----------------------------------------------------------*/
  36:../freertos/list.c **** 
  37:../freertos/list.c **** void vListInitialise( List_t * const pxList )
  38:../freertos/list.c **** {
  33              		.loc 1 38 1 view -0
  34              		.cfi_startproc
  35              		@ args = 0, pretend = 0, frame = 0
  36              		@ frame_needed = 0, uses_anonymous_args = 0
  37              		@ link register save eliminated.
  39:../freertos/list.c **** 	/* The list structure contains a list item which is used to mark the
  40:../freertos/list.c **** 	end of the list.  To initialise the list the list end is inserted
  41:../freertos/list.c **** 	as the only list entry. */
  42:../freertos/list.c **** 	pxList->pxIndex = ( ListItem_t * ) &( pxList->xListEnd );			/*lint !e826 !e740 !e9087 The mini lis
  38              		.loc 1 42 2 view .LVU1
  39              	@ ../freertos/list.c:46: 	pxList->xListEnd.xItemValue = portMAX_DELAY;
  43:../freertos/list.c **** 
  44:../freertos/list.c **** 	/* The list end value is the highest possible value in the list to
  45:../freertos/list.c **** 	ensure it remains at the end of the list. */
  46:../freertos/list.c **** 	pxList->xListEnd.xItemValue = portMAX_DELAY;
  40              		.loc 1 46 30 is_stmt 0 view .LVU2
  41 0000 4FF0FF32 		mov	r2, #-1	@ tmp116,
  42              	@ ../freertos/list.c:42: 	pxList->pxIndex = ( ListItem_t * ) &( pxList->xListEnd );			/*lint !e826 
  42:../freertos/list.c **** 
  43              		.loc 1 42 37 view .LVU3
  44 0004 00F10803 		add	r3, r0, #8	@ _1, pxList,
  45              	@ ../freertos/list.c:50: 	pxList->xListEnd.pxNext = ( ListItem_t * ) &( pxList->xListEnd );	/*lint 
  47:../freertos/list.c **** 
  48:../freertos/list.c **** 	/* The list end next and previous pointers point to itself so we know
  49:../freertos/list.c **** 	when the list is empty. */
  50:../freertos/list.c **** 	pxList->xListEnd.pxNext = ( ListItem_t * ) &( pxList->xListEnd );	/*lint !e826 !e740 !e9087 The mi
  46              		.loc 1 50 26 view .LVU4
  47 0008 C0E90223 		strd	r2, r3, [r0, #8]	@ tmp116, _1, pxList,
  48              	@ ../freertos/list.c:42: 	pxList->pxIndex = ( ListItem_t * ) &( pxList->xListEnd );			/*lint !e826 
  42:../freertos/list.c **** 
  49              		.loc 1 42 18 view .LVU5
  50 000c 4360     		str	r3, [r0, #4]	@ _1, pxList_2(D)->pxIndex
  46:../freertos/list.c **** 
  51              		.loc 1 46 2 is_stmt 1 view .LVU6
  51:../freertos/list.c **** 	pxList->xListEnd.pxPrevious = ( ListItem_t * ) &( pxList->xListEnd );/*lint !e826 !e740 !e9087 The
  52              		.loc 1 51 2 view .LVU7
  53              	@ ../freertos/list.c:51: 	pxList->xListEnd.pxPrevious = ( ListItem_t * ) &( pxList->xListEnd );/*li
  54              		.loc 1 51 30 is_stmt 0 view .LVU8
  55 000e 0361     		str	r3, [r0, #16]	@ _1, pxList_2(D)->xListEnd.pxPrevious
  52:../freertos/list.c **** 
  53:../freertos/list.c **** 	pxList->uxNumberOfItems = ( UBaseType_t ) 0U;
  56              		.loc 1 53 2 is_stmt 1 view .LVU9
  57              	@ ../freertos/list.c:53: 	pxList->uxNumberOfItems = ( UBaseType_t ) 0U;
  58              		.loc 1 53 26 is_stmt 0 view .LVU10
ARM GAS  /tmp/ccRlFgm0.s 			page 3


  59 0010 0023     		movs	r3, #0	@ tmp117,
  60 0012 0360     		str	r3, [r0]	@ tmp117, pxList_2(D)->uxNumberOfItems
  54:../freertos/list.c **** 
  55:../freertos/list.c **** 	/* Write known values into the list if
  56:../freertos/list.c **** 	configUSE_LIST_DATA_INTEGRITY_CHECK_BYTES is set to 1. */
  57:../freertos/list.c **** 	listSET_LIST_INTEGRITY_CHECK_1_VALUE( pxList );
  61              		.loc 1 57 48 is_stmt 1 view .LVU11
  58:../freertos/list.c **** 	listSET_LIST_INTEGRITY_CHECK_2_VALUE( pxList );
  62              		.loc 1 58 48 view .LVU12
  63              	@ ../freertos/list.c:59: }
  59:../freertos/list.c **** }
  64              		.loc 1 59 1 is_stmt 0 view .LVU13
  65 0014 7047     		bx	lr	@
  66              		.cfi_endproc
  67              	.LFE5:
  68              		.size	vListInitialise, .-vListInitialise
  69              		.align	1
  70              		.global	vListInitialiseItem
  71              		.syntax unified
  72              		.thumb
  73              		.thumb_func
  74              		.type	vListInitialiseItem, %function
  75              	vListInitialiseItem:
  76              	.LVL1:
  77              	.LFB6:
  60:../freertos/list.c **** /*-----------------------------------------------------------*/
  61:../freertos/list.c **** 
  62:../freertos/list.c **** void vListInitialiseItem( ListItem_t * const pxItem )
  63:../freertos/list.c **** {
  78              		.loc 1 63 1 is_stmt 1 view -0
  79              		.cfi_startproc
  80              		@ args = 0, pretend = 0, frame = 0
  81              		@ frame_needed = 0, uses_anonymous_args = 0
  82              		@ link register save eliminated.
  64:../freertos/list.c **** 	/* Make sure the list item is not recorded as being on a list. */
  65:../freertos/list.c **** 	pxItem->pxContainer = NULL;
  83              		.loc 1 65 2 view .LVU15
  84              	@ ../freertos/list.c:65: 	pxItem->pxContainer = NULL;
  85              		.loc 1 65 22 is_stmt 0 view .LVU16
  86 0016 0023     		movs	r3, #0	@ tmp115,
  87 0018 0361     		str	r3, [r0, #16]	@ tmp115, pxItem_2(D)->pvContainer
  66:../freertos/list.c **** 
  67:../freertos/list.c **** 	/* Write known values into the list item if
  68:../freertos/list.c **** 	configUSE_LIST_DATA_INTEGRITY_CHECK_BYTES is set to 1. */
  69:../freertos/list.c **** 	listSET_FIRST_LIST_ITEM_INTEGRITY_CHECK_VALUE( pxItem );
  88              		.loc 1 69 57 is_stmt 1 view .LVU17
  70:../freertos/list.c **** 	listSET_SECOND_LIST_ITEM_INTEGRITY_CHECK_VALUE( pxItem );
  89              		.loc 1 70 58 view .LVU18
  90              	@ ../freertos/list.c:71: }
  71:../freertos/list.c **** }
  91              		.loc 1 71 1 is_stmt 0 view .LVU19
  92 001a 7047     		bx	lr	@
  93              		.cfi_endproc
  94              	.LFE6:
  95              		.size	vListInitialiseItem, .-vListInitialiseItem
  96              		.align	1
  97              		.global	vListInsertEnd
ARM GAS  /tmp/ccRlFgm0.s 			page 4


  98              		.syntax unified
  99              		.thumb
 100              		.thumb_func
 101              		.type	vListInsertEnd, %function
 102              	vListInsertEnd:
 103              	.LVL2:
 104              	.LFB7:
  72:../freertos/list.c **** /*-----------------------------------------------------------*/
  73:../freertos/list.c **** 
  74:../freertos/list.c **** void vListInsertEnd( List_t * const pxList, ListItem_t * const pxNewListItem )
  75:../freertos/list.c **** {
 105              		.loc 1 75 1 is_stmt 1 view -0
 106              		.cfi_startproc
 107              		@ args = 0, pretend = 0, frame = 0
 108              		@ frame_needed = 0, uses_anonymous_args = 0
 109              		@ link register save eliminated.
  76:../freertos/list.c **** ListItem_t * const pxIndex = pxList->pxIndex;
 110              		.loc 1 76 1 view .LVU21
 111              	@ ../freertos/list.c:76: ListItem_t * const pxIndex = pxList->pxIndex;
 112              		.loc 1 76 20 is_stmt 0 view .LVU22
 113 001c 4368     		ldr	r3, [r0, #4]	@ pxIndex, pxList_5(D)->pxIndex
 114              	.LVL3:
  77:../freertos/list.c **** 
  78:../freertos/list.c **** 	/* Only effective when configASSERT() is also defined, these tests may catch
  79:../freertos/list.c **** 	the list data structures being overwritten in memory.  They will not catch
  80:../freertos/list.c **** 	data errors caused by incorrect configuration or use of FreeRTOS. */
  81:../freertos/list.c **** 	listTEST_LIST_INTEGRITY( pxList );
 115              		.loc 1 81 35 is_stmt 1 view .LVU23
  82:../freertos/list.c **** 	listTEST_LIST_ITEM_INTEGRITY( pxNewListItem );
 116              		.loc 1 82 47 view .LVU24
  83:../freertos/list.c **** 
  84:../freertos/list.c **** 	/* Insert a new list item into pxList, but rather than sort the list,
  85:../freertos/list.c **** 	makes the new list item the last item to be removed by a call to
  86:../freertos/list.c **** 	listGET_OWNER_OF_NEXT_ENTRY(). */
  87:../freertos/list.c **** 	pxNewListItem->pxNext = pxIndex;
 117              		.loc 1 87 2 view .LVU25
 118              	@ ../freertos/list.c:88: 	pxNewListItem->pxPrevious = pxIndex->pxPrevious;
  88:../freertos/list.c **** 	pxNewListItem->pxPrevious = pxIndex->pxPrevious;
 119              		.loc 1 88 37 is_stmt 0 view .LVU26
 120 001e 9A68     		ldr	r2, [r3, #8]	@ _1, pxIndex_6->pxPrevious
 121              	@ ../freertos/list.c:87: 	pxNewListItem->pxNext = pxIndex;
  87:../freertos/list.c **** 	pxNewListItem->pxPrevious = pxIndex->pxPrevious;
 122              		.loc 1 87 24 view .LVU27
 123 0020 4B60     		str	r3, [r1, #4]	@ pxIndex, pxNewListItem_7(D)->pxNext
 124              		.loc 1 88 2 is_stmt 1 view .LVU28
 125              	@ ../freertos/list.c:88: 	pxNewListItem->pxPrevious = pxIndex->pxPrevious;
 126              		.loc 1 88 28 is_stmt 0 view .LVU29
 127 0022 8A60     		str	r2, [r1, #8]	@ _1, pxNewListItem_7(D)->pxPrevious
  89:../freertos/list.c **** 
  90:../freertos/list.c **** 	/* Only used during decision coverage testing. */
  91:../freertos/list.c **** 	mtCOVERAGE_TEST_DELAY();
 128              		.loc 1 91 25 is_stmt 1 view .LVU30
  92:../freertos/list.c **** 
  93:../freertos/list.c **** 	pxIndex->pxPrevious->pxNext = pxNewListItem;
 129              		.loc 1 93 2 view .LVU31
 130              	@ ../freertos/list.c:93: 	pxIndex->pxPrevious->pxNext = pxNewListItem;
 131              		.loc 1 93 30 is_stmt 0 view .LVU32
ARM GAS  /tmp/ccRlFgm0.s 			page 5


 132 0024 5160     		str	r1, [r2, #4]	@ pxNewListItem, _1->pxNext
  94:../freertos/list.c **** 	pxIndex->pxPrevious = pxNewListItem;
 133              		.loc 1 94 2 is_stmt 1 view .LVU33
 134              	@ ../freertos/list.c:94: 	pxIndex->pxPrevious = pxNewListItem;
 135              		.loc 1 94 22 is_stmt 0 view .LVU34
 136 0026 9960     		str	r1, [r3, #8]	@ pxNewListItem, pxIndex_6->pxPrevious
  95:../freertos/list.c **** 
  96:../freertos/list.c **** 	/* Remember which list the item is in. */
  97:../freertos/list.c **** 	pxNewListItem->pxContainer = pxList;
 137              		.loc 1 97 2 is_stmt 1 view .LVU35
 138              	@ ../freertos/list.c:99: 	( pxList->uxNumberOfItems )++;
  98:../freertos/list.c **** 
  99:../freertos/list.c **** 	( pxList->uxNumberOfItems )++;
 139              		.loc 1 99 10 is_stmt 0 view .LVU36
 140 0028 0368     		ldr	r3, [r0]	@ _2, pxList_5(D)->uxNumberOfItems
 141              	.LVL4:
 142              	@ ../freertos/list.c:97: 	pxNewListItem->pxContainer = pxList;
  97:../freertos/list.c **** 
 143              		.loc 1 97 29 view .LVU37
 144 002a 0861     		str	r0, [r1, #16]	@ pxList, pxNewListItem_7(D)->pvContainer
 145              		.loc 1 99 2 is_stmt 1 view .LVU38
 146              	@ ../freertos/list.c:99: 	( pxList->uxNumberOfItems )++;
 147              		.loc 1 99 29 is_stmt 0 view .LVU39
 148 002c 0133     		adds	r3, r3, #1	@ _3, _2,
 149 002e 0360     		str	r3, [r0]	@ _3, pxList_5(D)->uxNumberOfItems
 150              	@ ../freertos/list.c:100: }
 100:../freertos/list.c **** }
 151              		.loc 1 100 1 view .LVU40
 152 0030 7047     		bx	lr	@
 153              		.cfi_endproc
 154              	.LFE7:
 155              		.size	vListInsertEnd, .-vListInsertEnd
 156              		.align	1
 157              		.global	vListInsert
 158              		.syntax unified
 159              		.thumb
 160              		.thumb_func
 161              		.type	vListInsert, %function
 162              	vListInsert:
 163              	.LVL5:
 164              	.LFB8:
 101:../freertos/list.c **** /*-----------------------------------------------------------*/
 102:../freertos/list.c **** 
 103:../freertos/list.c **** void vListInsert( List_t * const pxList, ListItem_t * const pxNewListItem )
 104:../freertos/list.c **** {
 165              		.loc 1 104 1 is_stmt 1 view -0
 166              		.cfi_startproc
 167              		@ args = 0, pretend = 0, frame = 0
 168              		@ frame_needed = 0, uses_anonymous_args = 0
 105:../freertos/list.c **** ListItem_t *pxIterator;
 169              		.loc 1 105 1 view .LVU42
 106:../freertos/list.c **** const TickType_t xValueOfInsertion = pxNewListItem->xItemValue;
 170              		.loc 1 106 1 view .LVU43
 171              	@ ../freertos/list.c:104: {
 104:../freertos/list.c **** ListItem_t *pxIterator;
 172              		.loc 1 104 1 is_stmt 0 view .LVU44
 173 0032 30B5     		push	{r4, r5, lr}	@
ARM GAS  /tmp/ccRlFgm0.s 			page 6


 174              	.LCFI0:
 175              		.cfi_def_cfa_offset 12
 176              		.cfi_offset 4, -12
 177              		.cfi_offset 5, -8
 178              		.cfi_offset 14, -4
 179              	@ ../freertos/list.c:106: const TickType_t xValueOfInsertion = pxNewListItem->xItemValue;
 180              		.loc 1 106 18 view .LVU45
 181 0034 0C68     		ldr	r4, [r1]	@ xValueOfInsertion, pxNewListItem_9(D)->xItemValue
 182              	.LVL6:
 107:../freertos/list.c **** 
 108:../freertos/list.c **** 	/* Only effective when configASSERT() is also defined, these tests may catch
 109:../freertos/list.c **** 	the list data structures being overwritten in memory.  They will not catch
 110:../freertos/list.c **** 	data errors caused by incorrect configuration or use of FreeRTOS. */
 111:../freertos/list.c **** 	listTEST_LIST_INTEGRITY( pxList );
 183              		.loc 1 111 35 is_stmt 1 view .LVU46
 112:../freertos/list.c **** 	listTEST_LIST_ITEM_INTEGRITY( pxNewListItem );
 184              		.loc 1 112 47 view .LVU47
 113:../freertos/list.c **** 
 114:../freertos/list.c **** 	/* Insert the new list item into the list, sorted in xItemValue order.
 115:../freertos/list.c **** 
 116:../freertos/list.c **** 	If the list already contains a list item with the same item value then the
 117:../freertos/list.c **** 	new list item should be placed after it.  This ensures that TCBs which are
 118:../freertos/list.c **** 	stored in ready lists (all of which have the same xItemValue value) get a
 119:../freertos/list.c **** 	share of the CPU.  However, if the xItemValue is the same as the back marker
 120:../freertos/list.c **** 	the iteration loop below will not end.  Therefore the value is checked
 121:../freertos/list.c **** 	first, and the algorithm slightly modified if necessary. */
 122:../freertos/list.c **** 	if( xValueOfInsertion == portMAX_DELAY )
 185              		.loc 1 122 2 view .LVU48
 186              	@ ../freertos/list.c:122: 	if( xValueOfInsertion == portMAX_DELAY )
 187              		.loc 1 122 4 is_stmt 0 view .LVU49
 188 0036 631C     		adds	r3, r4, #1	@, xValueOfInsertion,
 189 0038 0AD1     		bne	.L5		@,
 123:../freertos/list.c **** 	{
 124:../freertos/list.c **** 		pxIterator = pxList->xListEnd.pxPrevious;
 190              		.loc 1 124 3 is_stmt 1 view .LVU50
 191              	@ ../freertos/list.c:124: 		pxIterator = pxList->xListEnd.pxPrevious;
 192              		.loc 1 124 14 is_stmt 0 view .LVU51
 193 003a 0369     		ldr	r3, [r0, #16]	@ pxIterator, pxList_11(D)->xListEnd.pxPrevious
 194              	.LVL7:
 195              	.L6:
 125:../freertos/list.c **** 	}
 126:../freertos/list.c **** 	else
 127:../freertos/list.c **** 	{
 128:../freertos/list.c **** 		/* *** NOTE ***********************************************************
 129:../freertos/list.c **** 		If you find your application is crashing here then likely causes are
 130:../freertos/list.c **** 		listed below.  In addition see https://www.freertos.org/FAQHelp.html for
 131:../freertos/list.c **** 		more tips, and ensure configASSERT() is defined!
 132:../freertos/list.c **** 		https://www.freertos.org/a00110.html#configASSERT
 133:../freertos/list.c **** 
 134:../freertos/list.c **** 			1) Stack overflow -
 135:../freertos/list.c **** 			   see https://www.freertos.org/Stacks-and-stack-overflow-checking.html
 136:../freertos/list.c **** 			2) Incorrect interrupt priority assignment, especially on Cortex-M
 137:../freertos/list.c **** 			   parts where numerically high priority values denote low actual
 138:../freertos/list.c **** 			   interrupt priorities, which can seem counter intuitive.  See
 139:../freertos/list.c **** 			   https://www.freertos.org/RTOS-Cortex-M3-M4.html and the definition
 140:../freertos/list.c **** 			   of configMAX_SYSCALL_INTERRUPT_PRIORITY on
 141:../freertos/list.c **** 			   https://www.freertos.org/a00110.html
ARM GAS  /tmp/ccRlFgm0.s 			page 7


 142:../freertos/list.c **** 			3) Calling an API function from within a critical section or when
 143:../freertos/list.c **** 			   the scheduler is suspended, or calling an API function that does
 144:../freertos/list.c **** 			   not end in "FromISR" from an interrupt.
 145:../freertos/list.c **** 			4) Using a queue or semaphore before it has been initialised or
 146:../freertos/list.c **** 			   before the scheduler has been started (are interrupts firing
 147:../freertos/list.c **** 			   before vTaskStartScheduler() has been called?).
 148:../freertos/list.c **** 		**********************************************************************/
 149:../freertos/list.c **** 
 150:../freertos/list.c **** 		for( pxIterator = ( ListItem_t * ) &( pxList->xListEnd ); pxIterator->pxNext->xItemValue <= xValu
 151:../freertos/list.c **** 		{
 152:../freertos/list.c **** 			/* There is nothing to do here, just iterating to the wanted
 153:../freertos/list.c **** 			insertion position. */
 154:../freertos/list.c **** 		}
 155:../freertos/list.c **** 	}
 156:../freertos/list.c **** 
 157:../freertos/list.c **** 	pxNewListItem->pxNext = pxIterator->pxNext;
 196              		.loc 1 157 2 is_stmt 1 view .LVU52
 197              	@ ../freertos/list.c:157: 	pxNewListItem->pxNext = pxIterator->pxNext;
 198              		.loc 1 157 36 is_stmt 0 view .LVU53
 199 003c 5A68     		ldr	r2, [r3, #4]	@ _3, pxIterator_7->pxNext
 200              	@ ../freertos/list.c:157: 	pxNewListItem->pxNext = pxIterator->pxNext;
 201              		.loc 1 157 24 view .LVU54
 202 003e 4A60     		str	r2, [r1, #4]	@ _3, pxNewListItem_9(D)->pxNext
 158:../freertos/list.c **** 	pxNewListItem->pxNext->pxPrevious = pxNewListItem;
 203              		.loc 1 158 2 is_stmt 1 view .LVU55
 204              	@ ../freertos/list.c:158: 	pxNewListItem->pxNext->pxPrevious = pxNewListItem;
 205              		.loc 1 158 36 is_stmt 0 view .LVU56
 206 0040 9160     		str	r1, [r2, #8]	@ pxNewListItem, _3->pxPrevious
 159:../freertos/list.c **** 	pxNewListItem->pxPrevious = pxIterator;
 207              		.loc 1 159 2 is_stmt 1 view .LVU57
 208              	@ ../freertos/list.c:159: 	pxNewListItem->pxPrevious = pxIterator;
 209              		.loc 1 159 28 is_stmt 0 view .LVU58
 210 0042 8B60     		str	r3, [r1, #8]	@ pxIterator, pxNewListItem_9(D)->pxPrevious
 160:../freertos/list.c **** 	pxIterator->pxNext = pxNewListItem;
 211              		.loc 1 160 2 is_stmt 1 view .LVU59
 212              	@ ../freertos/list.c:160: 	pxIterator->pxNext = pxNewListItem;
 213              		.loc 1 160 21 is_stmt 0 view .LVU60
 214 0044 5960     		str	r1, [r3, #4]	@ pxNewListItem, pxIterator_7->pxNext
 161:../freertos/list.c **** 
 162:../freertos/list.c **** 	/* Remember which list the item is in.  This allows fast removal of the
 163:../freertos/list.c **** 	item later. */
 164:../freertos/list.c **** 	pxNewListItem->pxContainer = pxList;
 215              		.loc 1 164 2 is_stmt 1 view .LVU61
 216              	@ ../freertos/list.c:166: 	( pxList->uxNumberOfItems )++;
 165:../freertos/list.c **** 
 166:../freertos/list.c **** 	( pxList->uxNumberOfItems )++;
 217              		.loc 1 166 10 is_stmt 0 view .LVU62
 218 0046 0368     		ldr	r3, [r0]	@ _4, pxList_11(D)->uxNumberOfItems
 219              	.LVL8:
 220              	@ ../freertos/list.c:164: 	pxNewListItem->pxContainer = pxList;
 164:../freertos/list.c **** 
 221              		.loc 1 164 29 view .LVU63
 222 0048 0861     		str	r0, [r1, #16]	@ pxList, pxNewListItem_9(D)->pvContainer
 223              		.loc 1 166 2 is_stmt 1 view .LVU64
 224              	@ ../freertos/list.c:166: 	( pxList->uxNumberOfItems )++;
 225              		.loc 1 166 29 is_stmt 0 view .LVU65
 226 004a 0133     		adds	r3, r3, #1	@ _5, _4,
ARM GAS  /tmp/ccRlFgm0.s 			page 8


 227 004c 0360     		str	r3, [r0]	@ _5, pxList_11(D)->uxNumberOfItems
 228              	@ ../freertos/list.c:167: }
 167:../freertos/list.c **** }
 229              		.loc 1 167 1 view .LVU66
 230 004e 30BD     		pop	{r4, r5, pc}	@
 231              	.LVL9:
 232              	.L5:
 150:../freertos/list.c **** 		{
 233              		.loc 1 150 3 is_stmt 1 view .LVU67
 234              	@ ../freertos/list.c:150: 		for( pxIterator = ( ListItem_t * ) &( pxList->xListEnd ); pxIterator->p
 150:../freertos/list.c **** 		{
 235              		.loc 1 150 19 is_stmt 0 view .LVU68
 236 0050 00F10802 		add	r2, r0, #8	@ _1, pxList,
 237              	.LVL10:
 238              	.L7:
 150:../freertos/list.c **** 		{
 239              		.loc 1 150 92 is_stmt 1 discriminator 1 view .LVU69
 240 0054 1346     		mov	r3, r2	@ pxIterator, _1
 241              	@ ../freertos/list.c:150: 		for( pxIterator = ( ListItem_t * ) &( pxList->xListEnd ); pxIterator->p
 150:../freertos/list.c **** 		{
 242              		.loc 1 150 71 is_stmt 0 discriminator 1 view .LVU70
 243 0056 5268     		ldr	r2, [r2, #4]	@ _1, pxIterator_6->pxNext
 244              	.LVL11:
 245              	@ ../freertos/list.c:150: 		for( pxIterator = ( ListItem_t * ) &( pxList->xListEnd ); pxIterator->p
 150:../freertos/list.c **** 		{
 246              		.loc 1 150 92 discriminator 1 view .LVU71
 247 0058 1568     		ldr	r5, [r2]	@ _1->xItemValue, _1->xItemValue
 248 005a A542     		cmp	r5, r4	@ _1->xItemValue, xValueOfInsertion
 249 005c FAD9     		bls	.L7		@,
 250 005e EDE7     		b	.L6		@
 251              		.cfi_endproc
 252              	.LFE8:
 253              		.size	vListInsert, .-vListInsert
 254              		.align	1
 255              		.global	uxListRemove
 256              		.syntax unified
 257              		.thumb
 258              		.thumb_func
 259              		.type	uxListRemove, %function
 260              	uxListRemove:
 261              	.LVL12:
 262              	.LFB9:
 168:../freertos/list.c **** /*-----------------------------------------------------------*/
 169:../freertos/list.c **** 
 170:../freertos/list.c **** UBaseType_t uxListRemove( ListItem_t * const pxItemToRemove )
 171:../freertos/list.c **** {
 263              		.loc 1 171 1 is_stmt 1 view -0
 264              		.cfi_startproc
 265              		@ args = 0, pretend = 0, frame = 0
 266              		@ frame_needed = 0, uses_anonymous_args = 0
 267              		@ link register save eliminated.
 172:../freertos/list.c **** /* The list item knows which list it is in.  Obtain the list from the list
 173:../freertos/list.c **** item. */
 174:../freertos/list.c **** List_t * const pxList = pxItemToRemove->pxContainer;
 268              		.loc 1 174 1 view .LVU73
 269              	@ ../freertos/list.c:174: List_t * const pxList = pxItemToRemove->pxContainer;
 270              		.loc 1 174 16 is_stmt 0 view .LVU74
ARM GAS  /tmp/ccRlFgm0.s 			page 9


 271 0060 0369     		ldr	r3, [r0, #16]	@ pxList, pxItemToRemove_8(D)->pvContainer
 272              	.LVL13:
 175:../freertos/list.c **** 
 176:../freertos/list.c **** 	pxItemToRemove->pxNext->pxPrevious = pxItemToRemove->pxPrevious;
 273              		.loc 1 176 2 is_stmt 1 view .LVU75
 274              	@ ../freertos/list.c:176: 	pxItemToRemove->pxNext->pxPrevious = pxItemToRemove->pxPrevious;
 275              		.loc 1 176 53 is_stmt 0 view .LVU76
 276 0062 D0E90112 		ldrd	r1, r2, [r0, #4]	@ _1, _2, pxItemToRemove,
 277              	@ ../freertos/list.c:176: 	pxItemToRemove->pxNext->pxPrevious = pxItemToRemove->pxPrevious;
 278              		.loc 1 176 37 view .LVU77
 279 0066 8A60     		str	r2, [r1, #8]	@ _2, _1->pxPrevious
 177:../freertos/list.c **** 	pxItemToRemove->pxPrevious->pxNext = pxItemToRemove->pxNext;
 280              		.loc 1 177 2 is_stmt 1 view .LVU78
 281              	@ ../freertos/list.c:177: 	pxItemToRemove->pxPrevious->pxNext = pxItemToRemove->pxNext;
 282              		.loc 1 177 37 is_stmt 0 view .LVU79
 283 0068 5160     		str	r1, [r2, #4]	@ _1, _2->pxNext
 178:../freertos/list.c **** 
 179:../freertos/list.c **** 	/* Only used during decision coverage testing. */
 180:../freertos/list.c **** 	mtCOVERAGE_TEST_DELAY();
 284              		.loc 1 180 25 is_stmt 1 view .LVU80
 181:../freertos/list.c **** 
 182:../freertos/list.c **** 	/* Make sure the index is left pointing to a valid item. */
 183:../freertos/list.c **** 	if( pxList->pxIndex == pxItemToRemove )
 285              		.loc 1 183 2 view .LVU81
 286              	@ ../freertos/list.c:183: 	if( pxList->pxIndex == pxItemToRemove )
 287              		.loc 1 183 4 is_stmt 0 view .LVU82
 288 006a 5968     		ldr	r1, [r3, #4]	@ pxList_9->pxIndex, pxList_9->pxIndex
 289 006c 8142     		cmp	r1, r0	@ pxList_9->pxIndex, pxItemToRemove
 184:../freertos/list.c **** 	{
 185:../freertos/list.c **** 		pxList->pxIndex = pxItemToRemove->pxPrevious;
 290              		.loc 1 185 3 is_stmt 1 view .LVU83
 291              	@ ../freertos/list.c:185: 		pxList->pxIndex = pxItemToRemove->pxPrevious;
 292              		.loc 1 185 19 is_stmt 0 view .LVU84
 293 006e 08BF     		it	eq
 294 0070 5A60     		streq	r2, [r3, #4]	@ _2, pxList_9->pxIndex
 186:../freertos/list.c **** 	}
 187:../freertos/list.c **** 	else
 188:../freertos/list.c **** 	{
 189:../freertos/list.c **** 		mtCOVERAGE_TEST_MARKER();
 295              		.loc 1 189 27 is_stmt 1 view .LVU85
 190:../freertos/list.c **** 	}
 191:../freertos/list.c **** 
 192:../freertos/list.c **** 	pxItemToRemove->pxContainer = NULL;
 296              		.loc 1 192 2 view .LVU86
 297              	@ ../freertos/list.c:192: 	pxItemToRemove->pxContainer = NULL;
 298              		.loc 1 192 30 is_stmt 0 view .LVU87
 299 0072 0022     		movs	r2, #0	@ tmp123,
 300 0074 0261     		str	r2, [r0, #16]	@ tmp123, pxItemToRemove_8(D)->pvContainer
 193:../freertos/list.c **** 	( pxList->uxNumberOfItems )--;
 301              		.loc 1 193 2 is_stmt 1 view .LVU88
 302              	@ ../freertos/list.c:193: 	( pxList->uxNumberOfItems )--;
 303              		.loc 1 193 10 is_stmt 0 view .LVU89
 304 0076 1A68     		ldr	r2, [r3]	@ _4, pxList_9->uxNumberOfItems
 305              	@ ../freertos/list.c:193: 	( pxList->uxNumberOfItems )--;
 306              		.loc 1 193 29 view .LVU90
 307 0078 013A     		subs	r2, r2, #1	@ _5, _4,
 308 007a 1A60     		str	r2, [r3]	@ _5, pxList_9->uxNumberOfItems
ARM GAS  /tmp/ccRlFgm0.s 			page 10


 194:../freertos/list.c **** 
 195:../freertos/list.c **** 	return pxList->uxNumberOfItems;
 309              		.loc 1 195 2 is_stmt 1 view .LVU91
 310              	@ ../freertos/list.c:195: 	return pxList->uxNumberOfItems;
 311              		.loc 1 195 15 is_stmt 0 view .LVU92
 312 007c 1868     		ldr	r0, [r3]	@ <retval>, pxList_9->uxNumberOfItems
 313              	.LVL14:
 314              	@ ../freertos/list.c:196: }
 196:../freertos/list.c **** }
 315              		.loc 1 196 1 view .LVU93
 316 007e 7047     		bx	lr	@
 317              		.cfi_endproc
 318              	.LFE9:
 319              		.size	uxListRemove, .-uxListRemove
 320              	.Letext0:
 321              		.file 2 "/usr/arm-none-eabi/include/machine/_default_types.h"
 322              		.file 3 "/usr/arm-none-eabi/include/sys/_stdint.h"
 323              		.file 4 "../freertos/portable/GCC/ARM_CM3/portmacro.h"
 324              		.file 5 "../freertos/include/list.h"