ARM GAS  /tmp/ccIXPZcX.s 			page 1


   1              		.cpu cortex-m3
   2              		.arch armv7-m
   3              		.fpu softvfp
   4              		.eabi_attribute 20, 1	@ Tag_ABI_FP_denormal
   5              		.eabi_attribute 21, 1	@ Tag_ABI_FP_exceptions
   6              		.eabi_attribute 23, 3	@ Tag_ABI_FP_number_model
   7              		.eabi_attribute 24, 1	@ Tag_ABI_align8_needed
   8              		.eabi_attribute 25, 1	@ Tag_ABI_align8_preserved
   9              		.eabi_attribute 26, 1	@ Tag_ABI_enum_size
  10              		.eabi_attribute 30, 4	@ Tag_ABI_optimization_goals
  11              		.eabi_attribute 34, 1	@ Tag_CPU_unaligned_access
  12              		.eabi_attribute 18, 4	@ Tag_ABI_PCS_wchar_t
  13              		.file	"main.c"
  14              	@ GNU C17 (GNU Arm Embedded Toolchain 10.3-2021.10) version 10.3.1 20210824 (release) (arm-none-eab
  15              	@	compiled by GNU C version 4.8.4, GMP version 6.1.0, MPFR version 3.1.4, MPC version 1.0.3, isl ve
  16              	
  17              	@ GGC heuristics: --param ggc-min-expand=100 --param ggc-min-heapsize=131072
  18              	@ options passed:  -I . -I ../5-TempR_LCD_Serial
  19              	@ -I ../stm32f10x_lib/CMSIS/CM3/CoreSupport
  20              	@ -I ../stm32f10x_lib/CMSIS/CM3/DeviceSupport/ST/STM32F10x
  21              	@ -I ../stm32f10x_lib/STM32F10x_StdPeriph_Driver/inc
  22              	@ -I ../stm32f10x_lib/STM32F10x_StdPeriph_Driver -I ../freertos/include
  23              	@ -I ../freertos/portable/GCC/ARM_CM3 -imultilib thumb/v7-m/nofp
  24              	@ -iprefix /usr/bin/../lib/gcc/arm-none-eabi/10.3.1/
  25              	@ -isysroot /usr/bin/../arm-none-eabi -D__USES_INITFINI__ -D STM32F10X_MD
  26              	@ -D USE_STDPERIPH_DRIVER -D HSE_VALUE=8000000 -D RUN_FROM_FLASH=1
  27              	@ ../5-TempR_LCD_Serial/main.c -mcpu=cortex-m3 -mthumb -mfloat-abi=soft
  28              	@ -mlibarch=armv7-m -march=armv7-m
  29              	@ -auxbase-strip ../5-TempR_LCD_Serial/main.o -g -gdwarf-2 -Os -Wall
  30              	@ -fomit-frame-pointer -fverbose-asm
  31              	@ options enabled:  -faggressive-loop-optimizations -fallocation-dce
  32              	@ -fauto-inc-dec -fbranch-count-reg -fcaller-saves -fcode-hoisting
  33              	@ -fcombine-stack-adjustments -fcompare-elim -fcprop-registers
  34              	@ -fcrossjumping -fcse-follow-jumps -fdefer-pop
  35              	@ -fdelete-null-pointer-checks -fdevirtualize -fdevirtualize-speculatively
  36              	@ -fdwarf2-cfi-asm -fearly-inlining -feliminate-unused-debug-symbols
  37              	@ -feliminate-unused-debug-types -fexpensive-optimizations
  38              	@ -fforward-propagate -ffp-int-builtin-inexact -ffunction-cse -fgcse
  39              	@ -fgcse-lm -fgnu-unique -fguess-branch-probability -fhoist-adjacent-loads
  40              	@ -fident -fif-conversion -fif-conversion2 -findirect-inlining -finline
  41              	@ -finline-atomics -finline-functions -finline-functions-called-once
  42              	@ -finline-small-functions -fipa-bit-cp -fipa-cp -fipa-icf
  43              	@ -fipa-icf-functions -fipa-icf-variables -fipa-profile -fipa-pure-const
  44              	@ -fipa-ra -fipa-reference -fipa-reference-addressable -fipa-sra
  45              	@ -fipa-stack-alignment -fipa-vrp -fira-hoist-pressure
  46              	@ -fira-share-save-slots -fira-share-spill-slots
  47              	@ -fisolate-erroneous-paths-dereference -fivopts -fkeep-static-consts
  48              	@ -fleading-underscore -flifetime-dse -flra-remat -fmath-errno
  49              	@ -fmerge-constants -fmerge-debug-strings -fmove-loop-invariants
  50              	@ -fomit-frame-pointer -foptimize-sibling-calls -fpartial-inlining
  51              	@ -fpeephole -fpeephole2 -fplt -fprefetch-loop-arrays -freg-struct-return
  52              	@ -freorder-blocks -freorder-functions -frerun-cse-after-loop
  53              	@ -fsched-critical-path-heuristic -fsched-dep-count-heuristic
  54              	@ -fsched-group-heuristic -fsched-interblock -fsched-last-insn-heuristic
  55              	@ -fsched-pressure -fsched-rank-heuristic -fsched-spec
  56              	@ -fsched-spec-insn-heuristic -fsched-stalled-insns-dep -fschedule-insns2
  57              	@ -fsection-anchors -fsemantic-interposition -fshow-column
ARM GAS  /tmp/ccIXPZcX.s 			page 2


  58              	@ -fshrink-wrap-separate -fsigned-zeros -fsplit-ivs-in-unroller
  59              	@ -fsplit-wide-types -fssa-backprop -fssa-phiopt -fstdarg-opt
  60              	@ -fstore-merging -fstrict-aliasing -fstrict-volatile-bitfields
  61              	@ -fsync-libcalls -fthread-jumps -ftoplevel-reorder -ftrapping-math
  62              	@ -ftree-bit-ccp -ftree-builtin-call-dce -ftree-ccp -ftree-ch
  63              	@ -ftree-coalesce-vars -ftree-copy-prop -ftree-cselim -ftree-dce
  64              	@ -ftree-dominator-opts -ftree-dse -ftree-forwprop -ftree-fre
  65              	@ -ftree-loop-distribute-patterns -ftree-loop-if-convert -ftree-loop-im
  66              	@ -ftree-loop-ivcanon -ftree-loop-optimize -ftree-parallelize-loops=
  67              	@ -ftree-phiprop -ftree-pre -ftree-pta -ftree-reassoc -ftree-scev-cprop
  68              	@ -ftree-sink -ftree-slsr -ftree-sra -ftree-switch-conversion
  69              	@ -ftree-tail-merge -ftree-ter -ftree-vrp -funit-at-a-time -fvar-tracking
  70              	@ -fvar-tracking-assignments -fverbose-asm -fzero-initialized-in-bss
  71              	@ -masm-syntax-unified -mbe32 -mfix-cortex-m3-ldrd -mlittle-endian
  72              	@ -mpic-data-is-text-relative -msched-prolog -mthumb -munaligned-access
  73              	@ -mvectorize-with-neon-quad
  74              	
  75              		.text
  76              	.Ltext0:
  77              		.cfi_sections	.debug_frame
  78              		.align	1
  79              		.syntax unified
  80              		.thumb
  81              		.thumb_func
  82              		.type	task2, %function
  83              	task2:
  84              	.LVL0:
  85              	.LFB49:
  86              		.file 1 "../5-TempR_LCD_Serial/main.c"
   1:../5-TempR_LCD_Serial/main.c **** /*
   2:../5-TempR_LCD_Serial/main.c ****  * Projeto LCD
   3:../5-TempR_LCD_Serial/main.c ****  *		Modificações necessárias: 
   4:../5-TempR_LCD_Serial/main.c ****  *		  FreeRTOSConfig:
   5:../5-TempR_LCD_Serial/main.c ****  *			 TICK_RATE_HZ definido em (100000)Hz -> 1µs
   6:../5-TempR_LCD_Serial/main.c ****  *
   7:../5-TempR_LCD_Serial/main.c ****  *	Clock do sistema: 
   8:../5-TempR_LCD_Serial/main.c ****  *		72Mhz
   9:../5-TempR_LCD_Serial/main.c ****  *	
  10:../5-TempR_LCD_Serial/main.c ****  *	Lib construída para Arduíno UNO:
  11:../5-TempR_LCD_Serial/main.c ****  *		myLcd.h
  12:../5-TempR_LCD_Serial/main.c ****  *			#define delayMicroseconds(X)   vTaskDelay(X)
  13:../5-TempR_LCD_Serial/main.c ****  *			#define delay(X)  vTaskDelay(X)
  14:../5-TempR_LCD_Serial/main.c ****  * */
  15:../5-TempR_LCD_Serial/main.c **** 
  16:../5-TempR_LCD_Serial/main.c **** // FreeRTOS: 
  17:../5-TempR_LCD_Serial/main.c **** 
  18:../5-TempR_LCD_Serial/main.c **** #include "FreeRTOS.h"
  19:../5-TempR_LCD_Serial/main.c **** #include "queue.h"
  20:../5-TempR_LCD_Serial/main.c **** #include "task.h"
  21:../5-TempR_LCD_Serial/main.c **** 
  22:../5-TempR_LCD_Serial/main.c **** // #include <string.h>
  23:../5-TempR_LCD_Serial/main.c **** 
  24:../5-TempR_LCD_Serial/main.c **** #define __delay_ms( TEMPO ) vTaskDelay(pdMS_TO_TICKS( TEMPO ))
  25:../5-TempR_LCD_Serial/main.c **** #define __delay( TEMPO ) vTaskDelay( TEMPO )
  26:../5-TempR_LCD_Serial/main.c **** 
  27:../5-TempR_LCD_Serial/main.c **** #include "stm32f10x.h"
  28:../5-TempR_LCD_Serial/main.c **** #include "stm32f10x_tim.h"
ARM GAS  /tmp/ccIXPZcX.s 			page 3


  29:../5-TempR_LCD_Serial/main.c **** #include "Me.h"
  30:../5-TempR_LCD_Serial/main.c **** 
  31:../5-TempR_LCD_Serial/main.c **** // LCD 16x2
  32:../5-TempR_LCD_Serial/main.c **** #include "myLcd.h"
  33:../5-TempR_LCD_Serial/main.c **** #include "Serial.h"
  34:../5-TempR_LCD_Serial/main.c **** #include "adc.h"
  35:../5-TempR_LCD_Serial/main.c **** 
  36:../5-TempR_LCD_Serial/main.c **** #define BIN 2
  37:../5-TempR_LCD_Serial/main.c **** #define OCT 8
  38:../5-TempR_LCD_Serial/main.c **** #define DEC 10
  39:../5-TempR_LCD_Serial/main.c **** #define HEX 16
  40:../5-TempR_LCD_Serial/main.c **** 
  41:../5-TempR_LCD_Serial/main.c **** // Vadc * 3.3 * 10 / 4096 (12 bits) 
  42:../5-TempR_LCD_Serial/main.c **** #define ADC_Const 0.008056
  43:../5-TempR_LCD_Serial/main.c **** #define VEL_ANIMACAO 15
  44:../5-TempR_LCD_Serial/main.c **** 
  45:../5-TempR_LCD_Serial/main.c **** 
  46:../5-TempR_LCD_Serial/main.c **** void LCD16x2_init(){
  47:../5-TempR_LCD_Serial/main.c **** 
  48:../5-TempR_LCD_Serial/main.c **** 	RCC->APB2ENR |= (1<<2);
  49:../5-TempR_LCD_Serial/main.c **** 	GPIOA->CRL	 = 0x33333300; // Hab PA(2-7) out PP
  50:../5-TempR_LCD_Serial/main.c **** 
  51:../5-TempR_LCD_Serial/main.c **** 	set_bit(IO,RS);   set_bit(IO,RS);
  52:../5-TempR_LCD_Serial/main.c **** 	set_bit(IO,EN);   set_bit(IO,D4);
  53:../5-TempR_LCD_Serial/main.c **** 	set_bit(IO,D5);   set_bit(IO,D6);
  54:../5-TempR_LCD_Serial/main.c **** 	set_bit(IO,D7);   disp_init();
  55:../5-TempR_LCD_Serial/main.c **** 	disp_cmd(0x0C);
  56:../5-TempR_LCD_Serial/main.c **** 
  57:../5-TempR_LCD_Serial/main.c **** // Animação no visor:
  58:../5-TempR_LCD_Serial/main.c **** 	disp_text("----------------", 0 ,0);
  59:../5-TempR_LCD_Serial/main.c **** 	disp_text("================", 1, 0);
  60:../5-TempR_LCD_Serial/main.c **** 
  61:../5-TempR_LCD_Serial/main.c **** 	for (u8 i=0 ; i<16 ; i++){
  62:../5-TempR_LCD_Serial/main.c **** 		__delay_ms(VEL_ANIMACAO);
  63:../5-TempR_LCD_Serial/main.c **** 		disp_text("=", 0 ,i);
  64:../5-TempR_LCD_Serial/main.c **** 		disp_text("-", 1 , 16 - i);
  65:../5-TempR_LCD_Serial/main.c **** 	}
  66:../5-TempR_LCD_Serial/main.c **** 	__delay_ms(VEL_ANIMACAO); 
  67:../5-TempR_LCD_Serial/main.c **** 	disp_clear();
  68:../5-TempR_LCD_Serial/main.c **** }
  69:../5-TempR_LCD_Serial/main.c **** 
  70:../5-TempR_LCD_Serial/main.c **** static QueueHandle_t LCD_Show_queue; 
  71:../5-TempR_LCD_Serial/main.c **** static void task1(void *args __attribute((unused))) {
  72:../5-TempR_LCD_Serial/main.c **** 
  73:../5-TempR_LCD_Serial/main.c **** 	/* [2---]
  74:../5-TempR_LCD_Serial/main.c **** 	 *
  75:../5-TempR_LCD_Serial/main.c **** 	 * Tarefa dedicada em mostrar informações no LCD 16x2.
  76:../5-TempR_LCD_Serial/main.c **** 	 * Informações de temperatura, ficando aberto para mais
  77:../5-TempR_LCD_Serial/main.c **** 	 * funcionalidades
  78:../5-TempR_LCD_Serial/main.c **** 	 *
  79:../5-TempR_LCD_Serial/main.c **** 	 *		Modificações necessárias: 
  80:../5-TempR_LCD_Serial/main.c **** 	 *		  FreeRTOSConfig:
  81:../5-TempR_LCD_Serial/main.c **** 	 *			 TICK_RATE_HZ definido em (100000)Hz -> 1µs
  82:../5-TempR_LCD_Serial/main.c **** 	 *
  83:../5-TempR_LCD_Serial/main.c **** 	 *	Clock do sistema: 
  84:../5-TempR_LCD_Serial/main.c **** 	 *		72Mhz
  85:../5-TempR_LCD_Serial/main.c **** 	 * */
ARM GAS  /tmp/ccIXPZcX.s 			page 4


  86:../5-TempR_LCD_Serial/main.c **** 
  87:../5-TempR_LCD_Serial/main.c **** 	LCD16x2_init();
  88:../5-TempR_LCD_Serial/main.c **** 	RCC->APB2ENR |= 1<<3;
  89:../5-TempR_LCD_Serial/main.c **** 	GPIOB->CRH |= 0x4<<0; // Input Pull
  90:../5-TempR_LCD_Serial/main.c **** 	GPIOB->ODR |= 1<<8; // Pull-up
  91:../5-TempR_LCD_Serial/main.c **** 	int msg_buf_rev, BUFF = 0;
  92:../5-TempR_LCD_Serial/main.c **** 
  93:../5-TempR_LCD_Serial/main.c **** 	char Float_point[6];
  94:../5-TempR_LCD_Serial/main.c **** 	u8 ent_atual=1;
  95:../5-TempR_LCD_Serial/main.c **** 
  96:../5-TempR_LCD_Serial/main.c **** #define MAX_MENU 2
  97:../5-TempR_LCD_Serial/main.c **** 
  98:../5-TempR_LCD_Serial/main.c **** 	while(1){
  99:../5-TempR_LCD_Serial/main.c **** 		if ((GPIOB->IDR & (1<<8))){
 100:../5-TempR_LCD_Serial/main.c **** 			ent_atual ++;
 101:../5-TempR_LCD_Serial/main.c **** 
 102:../5-TempR_LCD_Serial/main.c **** 		if (ent_atual > MAX_MENU )
 103:../5-TempR_LCD_Serial/main.c **** 			ent_atual = 1;
 104:../5-TempR_LCD_Serial/main.c **** 		disp_clear();
 105:../5-TempR_LCD_Serial/main.c **** 		}
 106:../5-TempR_LCD_Serial/main.c **** 
 107:../5-TempR_LCD_Serial/main.c **** 		if (xQueueReceive(LCD_Show_queue, 
 108:../5-TempR_LCD_Serial/main.c **** 					&msg_buf_rev, pdMS_TO_TICKS(1)))
 109:../5-TempR_LCD_Serial/main.c **** 			BUFF = msg_buf_rev;
 110:../5-TempR_LCD_Serial/main.c **** 
 111:../5-TempR_LCD_Serial/main.c **** 		if (ent_atual == 1 ){
 112:../5-TempR_LCD_Serial/main.c **** 				disp_text("Temperatura - C", 0, 0); 
 113:../5-TempR_LCD_Serial/main.c **** 
 114:../5-TempR_LCD_Serial/main.c **** 				floatToString(BUFF * ADC_Const, Float_point, 2);
 115:../5-TempR_LCD_Serial/main.c **** 				disp_text(Float_point, 1, 6);
 116:../5-TempR_LCD_Serial/main.c **** 		} 
 117:../5-TempR_LCD_Serial/main.c **** 		if (ent_atual == 2 ){
 118:../5-TempR_LCD_Serial/main.c **** 			disp_text("----------------", 0 ,0);
 119:../5-TempR_LCD_Serial/main.c **** 			disp_text("================", 1, 0);
 120:../5-TempR_LCD_Serial/main.c **** 
 121:../5-TempR_LCD_Serial/main.c **** 			for (u8 i=0 ; i<16 ; i++){
 122:../5-TempR_LCD_Serial/main.c **** 				__delay_ms(10);
 123:../5-TempR_LCD_Serial/main.c **** 				disp_text("=", 0 ,i);
 124:../5-TempR_LCD_Serial/main.c **** 				disp_text("-", 1 , 16 - i);
 125:../5-TempR_LCD_Serial/main.c **** 			}
 126:../5-TempR_LCD_Serial/main.c **** 		}
 127:../5-TempR_LCD_Serial/main.c **** 	}
 128:../5-TempR_LCD_Serial/main.c **** }
 129:../5-TempR_LCD_Serial/main.c **** 
 130:../5-TempR_LCD_Serial/main.c **** void LCD_Menu( u8 ent_atual ){
 131:../5-TempR_LCD_Serial/main.c **** }
 132:../5-TempR_LCD_Serial/main.c **** 
 133:../5-TempR_LCD_Serial/main.c **** static void task2(void *args __attribute ((unused))){
  87              		.loc 1 133 53 view -0
  88              		.cfi_startproc
  89              		@ Volatile: function does not return.
  90              		@ args = 0, pretend = 0, frame = 0
  91              		@ frame_needed = 0, uses_anonymous_args = 0
 134:../5-TempR_LCD_Serial/main.c **** 	RCC->APB2ENR |= (1<<4); // En GPIOC
  92              		.loc 1 134 2 view .LVU1
  93              	@ ../5-TempR_LCD_Serial/main.c:134: 	RCC->APB2ENR |= (1<<4); // En GPIOC
  94              		.loc 1 134 15 is_stmt 0 view .LVU2
ARM GAS  /tmp/ccIXPZcX.s 			page 5


  95 0000 094A     		ldr	r2, .L3	@ tmp120,
  96              	@ ../5-TempR_LCD_Serial/main.c:133: static void task2(void *args __attribute ((unused))){
 133:../5-TempR_LCD_Serial/main.c **** 	RCC->APB2ENR |= (1<<4); // En GPIOC
  97              		.loc 1 133 53 view .LVU3
  98 0002 08B5     		push	{r3, lr}	@
  99              	.LCFI0:
 100              		.cfi_def_cfa_offset 8
 101              		.cfi_offset 3, -8
 102              		.cfi_offset 14, -4
 103              	@ ../5-TempR_LCD_Serial/main.c:134: 	RCC->APB2ENR |= (1<<4); // En GPIOC
 104              		.loc 1 134 15 view .LVU4
 105 0004 9369     		ldr	r3, [r2, #24]	@ _1, MEM[(struct RCC_TypeDef *)1073876992B].APB2ENR
 106              	@ ../5-TempR_LCD_Serial/main.c:135: 	GPIOC->CRH	|= (0b11<< 20); // PC13 out PP 
 135:../5-TempR_LCD_Serial/main.c **** 	GPIOC->CRH	|= (0b11<< 20); // PC13 out PP 
 107              		.loc 1 135 13 view .LVU5
 108 0006 094C     		ldr	r4, .L3+4	@ tmp122,
 109              	@ ../5-TempR_LCD_Serial/main.c:134: 	RCC->APB2ENR |= (1<<4); // En GPIOC
 134:../5-TempR_LCD_Serial/main.c **** 	RCC->APB2ENR |= (1<<4); // En GPIOC
 110              		.loc 1 134 15 view .LVU6
 111 0008 43F01003 		orr	r3, r3, #16	@ _2, _1,
 112 000c 9361     		str	r3, [r2, #24]	@ _2, MEM[(struct RCC_TypeDef *)1073876992B].APB2ENR
 113              		.loc 1 135 2 is_stmt 1 view .LVU7
 114              	@ ../5-TempR_LCD_Serial/main.c:135: 	GPIOC->CRH	|= (0b11<< 20); // PC13 out PP 
 115              		.loc 1 135 13 is_stmt 0 view .LVU8
 116 000e 6368     		ldr	r3, [r4, #4]	@ _3, MEM[(struct GPIO_TypeDef *)1073811456B].CRH
 117 0010 43F44013 		orr	r3, r3, #3145728	@ _4, _3,
 118 0014 6360     		str	r3, [r4, #4]	@ _4, MEM[(struct GPIO_TypeDef *)1073811456B].CRH
 119              	.LVL1:
 120              	.L2:
 136:../5-TempR_LCD_Serial/main.c **** 
 137:../5-TempR_LCD_Serial/main.c **** 	while(1){
 121              		.loc 1 137 2 is_stmt 1 discriminator 1 view .LVU9
 138:../5-TempR_LCD_Serial/main.c **** 		GPIOC->ODR	^= (1<<13);
 122              		.loc 1 138 3 discriminator 1 view .LVU10
 123              	@ ../5-TempR_LCD_Serial/main.c:138: 		GPIOC->ODR	^= (1<<13);
 124              		.loc 1 138 14 is_stmt 0 discriminator 1 view .LVU11
 125 0016 E368     		ldr	r3, [r4, #12]	@ _5, MEM[(struct GPIO_TypeDef *)1073811456B].ODR
 126              	@ ../5-TempR_LCD_Serial/main.c:139: 		__delay_ms(50);
 139:../5-TempR_LCD_Serial/main.c **** 		__delay_ms(50);
 127              		.loc 1 139 3 discriminator 1 view .LVU12
 128 0018 41F28830 		movw	r0, #5000	@,
 129              	@ ../5-TempR_LCD_Serial/main.c:138: 		GPIOC->ODR	^= (1<<13);
 138:../5-TempR_LCD_Serial/main.c **** 		GPIOC->ODR	^= (1<<13);
 130              		.loc 1 138 14 discriminator 1 view .LVU13
 131 001c 83F40053 		eor	r3, r3, #8192	@ _6, _5,
 132 0020 E360     		str	r3, [r4, #12]	@ _6, MEM[(struct GPIO_TypeDef *)1073811456B].ODR
 133              		.loc 1 139 3 is_stmt 1 discriminator 1 view .LVU14
 134 0022 FFF7FEFF 		bl	vTaskDelay		@
 135              	.LVL2:
 137:../5-TempR_LCD_Serial/main.c **** 		GPIOC->ODR	^= (1<<13);
 136              		.loc 1 137 7 discriminator 1 view .LVU15
 137 0026 F6E7     		b	.L2		@
 138              	.L4:
 139              		.align	2
 140              	.L3:
 141 0028 00100240 		.word	1073876992
 142 002c 00100140 		.word	1073811456
ARM GAS  /tmp/ccIXPZcX.s 			page 6


 143              		.cfi_endproc
 144              	.LFE49:
 145              		.size	task2, .-task2
 146              		.align	1
 147              		.global	ADC1_configure
 148              		.syntax unified
 149              		.thumb
 150              		.thumb_func
 151              		.type	ADC1_configure, %function
 152              	ADC1_configure:
 153              	.LFB34:
 154              		.file 2 "../5-TempR_LCD_Serial/Me.h"
   1:../5-TempR_LCD_Serial/Me.h **** #include <math.h>
   2:../5-TempR_LCD_Serial/Me.h **** #define __IO volatile
   3:../5-TempR_LCD_Serial/Me.h **** 
   4:../5-TempR_LCD_Serial/Me.h **** void SystemInit (void);
   5:../5-TempR_LCD_Serial/Me.h **** void nvic_IntDisble(u8 IRQn);
   6:../5-TempR_LCD_Serial/Me.h **** void nvic_intEnable(u8 IRQn);
   7:../5-TempR_LCD_Serial/Me.h **** void set_system_clock_to_25Mhz (void);
   8:../5-TempR_LCD_Serial/Me.h **** void set_system_clock_to_72Mhz(void);
   9:../5-TempR_LCD_Serial/Me.h **** void Delay ( __IO u32 T );
  10:../5-TempR_LCD_Serial/Me.h **** void enable_TIM3_delay (void);
  11:../5-TempR_LCD_Serial/Me.h **** void ADC1_configure();
  12:../5-TempR_LCD_Serial/Me.h **** 
  13:../5-TempR_LCD_Serial/Me.h **** void ADC1_configure(){
 155              		.loc 2 13 22 view -0
 156              		.cfi_startproc
 157              		@ args = 0, pretend = 0, frame = 0
 158              		@ frame_needed = 0, uses_anonymous_args = 0
 159              		@ link register save eliminated.
  14:../5-TempR_LCD_Serial/Me.h **** 	RCC->APB2ENR |= 1UL<<2 ; // Hab. GPIOA
 160              		.loc 2 14 2 view .LVU17
 161              	@ ../5-TempR_LCD_Serial/Me.h:14: 	RCC->APB2ENR |= 1UL<<2 ; // Hab. GPIOA
 162              		.loc 2 14 15 is_stmt 0 view .LVU18
 163 0030 1F4B     		ldr	r3, .L10	@ tmp141,
 164              	@ ../5-TempR_LCD_Serial/Me.h:15: 	GPIOA->CRL &= ~(0x0F << 4); // Define A1 Input Analogic
  15:../5-TempR_LCD_Serial/Me.h **** 	GPIOA->CRL &= ~(0x0F << 4); // Define A1 Input Analogic
 165              		.loc 2 15 13 view .LVU19
 166 0032 2049     		ldr	r1, .L10+4	@ tmp143,
 167              	@ ../5-TempR_LCD_Serial/Me.h:14: 	RCC->APB2ENR |= 1UL<<2 ; // Hab. GPIOA
  14:../5-TempR_LCD_Serial/Me.h **** 	RCC->APB2ENR |= 1UL<<2 ; // Hab. GPIOA
 168              		.loc 2 14 15 view .LVU20
 169 0034 9A69     		ldr	r2, [r3, #24]	@ _1, MEM[(struct RCC_TypeDef *)1073876992B].APB2ENR
 170 0036 42F00402 		orr	r2, r2, #4	@ _2, _1,
 171 003a 9A61     		str	r2, [r3, #24]	@ _2, MEM[(struct RCC_TypeDef *)1073876992B].APB2ENR
 172              		.loc 2 15 2 is_stmt 1 view .LVU21
 173              	@ ../5-TempR_LCD_Serial/Me.h:15: 	GPIOA->CRL &= ~(0x0F << 4); // Define A1 Input Analogic
 174              		.loc 2 15 13 is_stmt 0 view .LVU22
 175 003c 0A68     		ldr	r2, [r1]	@ _3, MEM[(struct GPIO_TypeDef *)1073809408B].CRL
 176 003e 22F0F002 		bic	r2, r2, #240	@ _4, _3,
 177 0042 0A60     		str	r2, [r1]	@ _4, MEM[(struct GPIO_TypeDef *)1073809408B].CRL
  16:../5-TempR_LCD_Serial/Me.h **** 	
  17:../5-TempR_LCD_Serial/Me.h **** 	RCC->APB2ENR |= (1<<9); // Bit 9 ADC1EN: ADC 1 
 178              		.loc 2 17 2 is_stmt 1 view .LVU23
 179              	@ ../5-TempR_LCD_Serial/Me.h:17: 	RCC->APB2ENR |= (1<<9); // Bit 9 ADC1EN: ADC 1 
 180              		.loc 2 17 15 is_stmt 0 view .LVU24
 181 0044 9A69     		ldr	r2, [r3, #24]	@ _5, MEM[(struct RCC_TypeDef *)1073876992B].APB2ENR
ARM GAS  /tmp/ccIXPZcX.s 			page 7


 182 0046 42F40072 		orr	r2, r2, #512	@ _6, _5,
 183 004a 9A61     		str	r2, [r3, #24]	@ _6, MEM[(struct RCC_TypeDef *)1073876992B].APB2ENR
  18:../5-TempR_LCD_Serial/Me.h **** 									// interface clock enable
  19:../5-TempR_LCD_Serial/Me.h **** 
  20:../5-TempR_LCD_Serial/Me.h **** 	RCC->CFGR	|= (0b10 << 14); // Bits 15:14 ADCPRE:
 184              		.loc 2 20 2 is_stmt 1 view .LVU25
 185              	@ ../5-TempR_LCD_Serial/Me.h:20: 	RCC->CFGR	|= (0b10 << 14); // Bits 15:14 ADCPRE:
 186              		.loc 2 20 12 is_stmt 0 view .LVU26
 187 004c 5A68     		ldr	r2, [r3, #4]	@ _7, MEM[(struct RCC_TypeDef *)1073876992B].CFGR
 188 004e 42F40042 		orr	r2, r2, #32768	@ _8, _7,
 189 0052 5A60     		str	r2, [r3, #4]	@ _8, MEM[(struct RCC_TypeDef *)1073876992B].CFGR
  21:../5-TempR_LCD_Serial/Me.h **** 										  // ADC prescaler 10:
  22:../5-TempR_LCD_Serial/Me.h **** 										  //    PCLK2 divided by 6
  23:../5-TempR_LCD_Serial/Me.h **** 	// Enable End of Conversion (EOC) interrupt
  24:../5-TempR_LCD_Serial/Me.h **** 	ADC1->CR1 |= (1 << 5);
 190              		.loc 2 24 2 is_stmt 1 view .LVU27
 191              	@ ../5-TempR_LCD_Serial/Me.h:24: 	ADC1->CR1 |= (1 << 5);
 192              		.loc 2 24 12 is_stmt 0 view .LVU28
 193 0054 A3F56C43 		sub	r3, r3, #60416	@ tmp149, tmp149,
 194 0058 5A68     		ldr	r2, [r3, #4]	@ _9, MEM[(struct ADC_TypeDef *)1073816576B].CR1
 195 005a 42F02002 		orr	r2, r2, #32	@ _10, _9,
 196 005e 5A60     		str	r2, [r3, #4]	@ _10, MEM[(struct ADC_TypeDef *)1073816576B].CR1
  25:../5-TempR_LCD_Serial/Me.h **** 
  26:../5-TempR_LCD_Serial/Me.h **** 	// One conversion
  27:../5-TempR_LCD_Serial/Me.h **** 	ADC1->SQR1 = 0x00000000;
 197              		.loc 2 27 2 is_stmt 1 view .LVU29
 198              	@ ../5-TempR_LCD_Serial/Me.h:27: 	ADC1->SQR1 = 0x00000000;
 199              		.loc 2 27 13 is_stmt 0 view .LVU30
 200 0060 0022     		movs	r2, #0	@ tmp152,
 201 0062 DA62     		str	r2, [r3, #44]	@ tmp152, MEM[(struct ADC_TypeDef *)1073816576B].SQR1
  28:../5-TempR_LCD_Serial/Me.h **** 
  29:../5-TempR_LCD_Serial/Me.h **** 	// Choose the analog channel to read
  30:../5-TempR_LCD_Serial/Me.h **** 	// Since we want channel 10 to be the first
  31:../5-TempR_LCD_Serial/Me.h **** 	//   conversion we write 10 to SQ1 bits (3:0)
  32:../5-TempR_LCD_Serial/Me.h **** 	//   which is in SQR3 register. For multiple conversions
  33:../5-TempR_LCD_Serial/Me.h **** 	//   keep writing the channel numbers to SQx bits.
  34:../5-TempR_LCD_Serial/Me.h **** 	 ADC1->SQR3 = (10 << 0);
 202              		.loc 2 34 3 is_stmt 1 view .LVU31
 203              	@ ../5-TempR_LCD_Serial/Me.h:34: 	 ADC1->SQR3 = (10 << 0);
 204              		.loc 2 34 14 is_stmt 0 view .LVU32
 205 0064 0A22     		movs	r2, #10	@ tmp154,
 206 0066 5A63     		str	r2, [r3, #52]	@ tmp154, MEM[(struct ADC_TypeDef *)1073816576B].SQR3
  35:../5-TempR_LCD_Serial/Me.h **** 
  36:../5-TempR_LCD_Serial/Me.h **** 	// Set up software trigger to start conversion
  37:../5-TempR_LCD_Serial/Me.h **** 	ADC1->CR2 |= (7 << 17);  // Select SWSTART as trigger
 207              		.loc 2 37 2 is_stmt 1 view .LVU33
 208              	@ ../5-TempR_LCD_Serial/Me.h:37: 	ADC1->CR2 |= (7 << 17);  // Select SWSTART as trigger
 209              		.loc 2 37 12 is_stmt 0 view .LVU34
 210 0068 9A68     		ldr	r2, [r3, #8]	@ _11, MEM[(struct ADC_TypeDef *)1073816576B].CR2
 211 006a 42F46022 		orr	r2, r2, #917504	@ _12, _11,
 212 006e 9A60     		str	r2, [r3, #8]	@ _12, MEM[(struct ADC_TypeDef *)1073816576B].CR2
  38:../5-TempR_LCD_Serial/Me.h **** 	ADC1->CR2 |= (1 << 20);  // Enable external trigger
 213              		.loc 2 38 2 is_stmt 1 view .LVU35
 214              	@ ../5-TempR_LCD_Serial/Me.h:38: 	ADC1->CR2 |= (1 << 20);  // Enable external trigger
 215              		.loc 2 38 12 is_stmt 0 view .LVU36
 216 0070 9A68     		ldr	r2, [r3, #8]	@ _13, MEM[(struct ADC_TypeDef *)1073816576B].CR2
 217 0072 42F48012 		orr	r2, r2, #1048576	@ _14, _13,
ARM GAS  /tmp/ccIXPZcX.s 			page 8


 218 0076 9A60     		str	r2, [r3, #8]	@ _14, MEM[(struct ADC_TypeDef *)1073816576B].CR2
  39:../5-TempR_LCD_Serial/Me.h **** 
  40:../5-TempR_LCD_Serial/Me.h **** 	// Enable continuous conversion
  41:../5-TempR_LCD_Serial/Me.h **** 	ADC1->CR2 |= (1 << 1);
 219              		.loc 2 41 2 is_stmt 1 view .LVU37
 220              	@ ../5-TempR_LCD_Serial/Me.h:41: 	ADC1->CR2 |= (1 << 1);
 221              		.loc 2 41 12 is_stmt 0 view .LVU38
 222 0078 9A68     		ldr	r2, [r3, #8]	@ _15, MEM[(struct ADC_TypeDef *)1073816576B].CR2
 223 007a 42F00202 		orr	r2, r2, #2	@ _16, _15,
 224 007e 9A60     		str	r2, [r3, #8]	@ _16, MEM[(struct ADC_TypeDef *)1073816576B].CR2
  42:../5-TempR_LCD_Serial/Me.h **** 
  43:../5-TempR_LCD_Serial/Me.h **** 	// enable_interrupt(ADC1_2_IRQn);
  44:../5-TempR_LCD_Serial/Me.h **** 
  45:../5-TempR_LCD_Serial/Me.h **** 	// Enable A/D conversion
  46:../5-TempR_LCD_Serial/Me.h **** 	ADC1->CR2 |= (1 << 0);
 225              		.loc 2 46 2 is_stmt 1 view .LVU39
 226              	@ ../5-TempR_LCD_Serial/Me.h:46: 	ADC1->CR2 |= (1 << 0);
 227              		.loc 2 46 12 is_stmt 0 view .LVU40
 228 0080 9A68     		ldr	r2, [r3, #8]	@ _17, MEM[(struct ADC_TypeDef *)1073816576B].CR2
 229 0082 42F00102 		orr	r2, r2, #1	@ _18, _17,
 230 0086 9A60     		str	r2, [r3, #8]	@ _18, MEM[(struct ADC_TypeDef *)1073816576B].CR2
  47:../5-TempR_LCD_Serial/Me.h **** 
  48:../5-TempR_LCD_Serial/Me.h **** 	// Calibration reset and start
  49:../5-TempR_LCD_Serial/Me.h **** 	//    Optional for better accuracy.
  50:../5-TempR_LCD_Serial/Me.h **** 	ADC1->CR2 |= (1 << 3);
 231              		.loc 2 50 2 is_stmt 1 view .LVU41
 232              	@ ../5-TempR_LCD_Serial/Me.h:50: 	ADC1->CR2 |= (1 << 3);
 233              		.loc 2 50 12 is_stmt 0 view .LVU42
 234 0088 9A68     		ldr	r2, [r3, #8]	@ _19, MEM[(struct ADC_TypeDef *)1073816576B].CR2
 235 008a 42F00802 		orr	r2, r2, #8	@ _20, _19,
 236 008e 9A60     		str	r2, [r3, #8]	@ _20, MEM[(struct ADC_TypeDef *)1073816576B].CR2
  51:../5-TempR_LCD_Serial/Me.h **** 	while((ADC1->CR2 & (1 << 3)));
 237              		.loc 2 51 2 is_stmt 1 view .LVU43
 238              	.L6:
 239              		.loc 2 51 31 discriminator 1 view .LVU44
 240              		.loc 2 51 7 discriminator 1 view .LVU45
 241              	@ ../5-TempR_LCD_Serial/Me.h:51: 	while((ADC1->CR2 & (1 << 3)));
 242              		.loc 2 51 13 is_stmt 0 discriminator 1 view .LVU46
 243 0090 9A68     		ldr	r2, [r3, #8]	@ _21, MEM[(struct ADC_TypeDef *)1073816576B].CR2
 244              	@ ../5-TempR_LCD_Serial/Me.h:51: 	while((ADC1->CR2 & (1 << 3)));
 245              		.loc 2 51 7 discriminator 1 view .LVU47
 246 0092 1107     		lsls	r1, r2, #28	@, _21,
 247 0094 FCD4     		bmi	.L6		@,
  52:../5-TempR_LCD_Serial/Me.h **** 	ADC1->CR2 |= (1 << 2);
 248              		.loc 2 52 2 is_stmt 1 view .LVU48
 249              	@ ../5-TempR_LCD_Serial/Me.h:52: 	ADC1->CR2 |= (1 << 2);
 250              		.loc 2 52 12 is_stmt 0 view .LVU49
 251 0096 9A68     		ldr	r2, [r3, #8]	@ _23, MEM[(struct ADC_TypeDef *)1073816576B].CR2
 252 0098 42F00402 		orr	r2, r2, #4	@ _24, _23,
 253 009c 9A60     		str	r2, [r3, #8]	@ _24, MEM[(struct ADC_TypeDef *)1073816576B].CR2
  53:../5-TempR_LCD_Serial/Me.h **** 	while((ADC1->CR2 & (1 << 2)));
 254              		.loc 2 53 2 is_stmt 1 view .LVU50
 255              	@ ../5-TempR_LCD_Serial/Me.h:53: 	while((ADC1->CR2 & (1 << 2)));
 256              		.loc 2 53 13 is_stmt 0 view .LVU51
 257 009e 064B     		ldr	r3, .L10+8	@ tmp169,
 258              	.L7:
 259              		.loc 2 53 31 is_stmt 1 discriminator 1 view .LVU52
ARM GAS  /tmp/ccIXPZcX.s 			page 9


 260              		.loc 2 53 7 discriminator 1 view .LVU53
 261              	@ ../5-TempR_LCD_Serial/Me.h:53: 	while((ADC1->CR2 & (1 << 2)));
 262              		.loc 2 53 13 is_stmt 0 discriminator 1 view .LVU54
 263 00a0 9A68     		ldr	r2, [r3, #8]	@ _25, MEM[(struct ADC_TypeDef *)1073816576B].CR2
 264              	@ ../5-TempR_LCD_Serial/Me.h:53: 	while((ADC1->CR2 & (1 << 2)));
 265              		.loc 2 53 7 discriminator 1 view .LVU55
 266 00a2 5207     		lsls	r2, r2, #29	@, _25,
 267 00a4 FCD4     		bmi	.L7		@,
  54:../5-TempR_LCD_Serial/Me.h **** 
  55:../5-TempR_LCD_Serial/Me.h **** 	// Start conversion with software trigger
  56:../5-TempR_LCD_Serial/Me.h **** 	ADC1->CR2 |= (1<<22);
 268              		.loc 2 56 2 is_stmt 1 view .LVU56
 269              	@ ../5-TempR_LCD_Serial/Me.h:56: 	ADC1->CR2 |= (1<<22);
 270              		.loc 2 56 12 is_stmt 0 view .LVU57
 271 00a6 9A68     		ldr	r2, [r3, #8]	@ _27, MEM[(struct ADC_TypeDef *)1073816576B].CR2
 272 00a8 42F48002 		orr	r2, r2, #4194304	@ _28, _27,
 273 00ac 9A60     		str	r2, [r3, #8]	@ _28, MEM[(struct ADC_TypeDef *)1073816576B].CR2
 274              	@ ../5-TempR_LCD_Serial/Me.h:59: }
  57:../5-TempR_LCD_Serial/Me.h **** 	//
  58:../5-TempR_LCD_Serial/Me.h **** 	// Leitura  ADC1->DR  -> Data Register
  59:../5-TempR_LCD_Serial/Me.h **** }
 275              		.loc 2 59 1 view .LVU58
 276 00ae 7047     		bx	lr	@
 277              	.L11:
 278              		.align	2
 279              	.L10:
 280 00b0 00100240 		.word	1073876992
 281 00b4 00080140 		.word	1073809408
 282 00b8 00240140 		.word	1073816576
 283              		.cfi_endproc
 284              	.LFE34:
 285              		.size	ADC1_configure, .-ADC1_configure
 286              		.align	1
 287              		.global	set_system_clock_to_72Mhz
 288              		.syntax unified
 289              		.thumb
 290              		.thumb_func
 291              		.type	set_system_clock_to_72Mhz, %function
 292              	set_system_clock_to_72Mhz:
 293              	.LFB35:
  60:../5-TempR_LCD_Serial/Me.h **** 
  61:../5-TempR_LCD_Serial/Me.h **** void set_system_clock_to_72Mhz(void)
  62:../5-TempR_LCD_Serial/Me.h **** {
 294              		.loc 2 62 1 is_stmt 1 view -0
 295              		.cfi_startproc
 296              		@ args = 0, pretend = 0, frame = 0
 297              		@ frame_needed = 0, uses_anonymous_args = 0
 298              		@ link register save eliminated.
  63:../5-TempR_LCD_Serial/Me.h ****    // Necessary wait states for Flash for high speeds
  64:../5-TempR_LCD_Serial/Me.h ****    FLASH->ACR = 0x12;
 299              		.loc 2 64 4 view .LVU60
 300              	@ ../5-TempR_LCD_Serial/Me.h:64:    FLASH->ACR = 0x12;
 301              		.loc 2 64 15 is_stmt 0 view .LVU61
 302 00bc 1222     		movs	r2, #18	@ tmp140,
 303 00be 1B4B     		ldr	r3, .L19	@ tmp139,
 304 00c0 1A60     		str	r2, [r3]	@ tmp140, MEM[(struct FLASH_TypeDef *)1073881088B].ACR
  65:../5-TempR_LCD_Serial/Me.h ****    // Enable HSE
ARM GAS  /tmp/ccIXPZcX.s 			page 10


  66:../5-TempR_LCD_Serial/Me.h ****    RCC->CR |= (1 << 16);
 305              		.loc 2 66 4 is_stmt 1 view .LVU62
 306              	@ ../5-TempR_LCD_Serial/Me.h:66:    RCC->CR |= (1 << 16);
 307              		.loc 2 66 12 is_stmt 0 view .LVU63
 308 00c2 A3F58053 		sub	r3, r3, #4096	@ tmp141, tmp141,
 309 00c6 1A68     		ldr	r2, [r3]	@ _1, MEM[(struct RCC_TypeDef *)1073876992B].CR
 310 00c8 42F48032 		orr	r2, r2, #65536	@ _2, _1,
 311 00cc 1A60     		str	r2, [r3]	@ _2, MEM[(struct RCC_TypeDef *)1073876992B].CR
  67:../5-TempR_LCD_Serial/Me.h ****    // Wait untill HSE settles down
  68:../5-TempR_LCD_Serial/Me.h ****    while (!(RCC->CR & (1 << 17)));
 312              		.loc 2 68 4 is_stmt 1 view .LVU64
 313              	.L13:
 314              		.loc 2 68 34 discriminator 1 view .LVU65
 315              		.loc 2 68 10 discriminator 1 view .LVU66
 316              	@ ../5-TempR_LCD_Serial/Me.h:68:    while (!(RCC->CR & (1 << 17)));
 317              		.loc 2 68 16 is_stmt 0 discriminator 1 view .LVU67
 318 00ce 1A68     		ldr	r2, [r3]	@ _3, MEM[(struct RCC_TypeDef *)1073876992B].CR
 319              	@ ../5-TempR_LCD_Serial/Me.h:68:    while (!(RCC->CR & (1 << 17)));
 320              		.loc 2 68 10 discriminator 1 view .LVU68
 321 00d0 9103     		lsls	r1, r2, #14	@, _3,
 322 00d2 FCD5     		bpl	.L13		@,
  69:../5-TempR_LCD_Serial/Me.h ****    // Set PREDIV2 division factor to 5
  70:../5-TempR_LCD_Serial/Me.h ****    RCC->CFGR2 |= (0b0100 << 4);
 323              		.loc 2 70 4 is_stmt 1 view .LVU69
 324              	@ ../5-TempR_LCD_Serial/Me.h:70:    RCC->CFGR2 |= (0b0100 << 4);
 325              		.loc 2 70 15 is_stmt 0 view .LVU70
 326 00d4 DA6A     		ldr	r2, [r3, #44]	@ _5, MEM[(struct RCC_TypeDef *)1073876992B].CFGR2
 327 00d6 42F04002 		orr	r2, r2, #64	@ _6, _5,
 328 00da DA62     		str	r2, [r3, #44]	@ _6, MEM[(struct RCC_TypeDef *)1073876992B].CFGR2
  71:../5-TempR_LCD_Serial/Me.h ****    // Set PLL2 multiplication factor to 8
  72:../5-TempR_LCD_Serial/Me.h ****    RCC->CFGR2 |= (0b0110 << 8);
 329              		.loc 2 72 4 is_stmt 1 view .LVU71
 330              	@ ../5-TempR_LCD_Serial/Me.h:72:    RCC->CFGR2 |= (0b0110 << 8);
 331              		.loc 2 72 15 is_stmt 0 view .LVU72
 332 00dc DA6A     		ldr	r2, [r3, #44]	@ _7, MEM[(struct RCC_TypeDef *)1073876992B].CFGR2
 333 00de 42F4C062 		orr	r2, r2, #1536	@ _8, _7,
 334 00e2 DA62     		str	r2, [r3, #44]	@ _8, MEM[(struct RCC_TypeDef *)1073876992B].CFGR2
  73:../5-TempR_LCD_Serial/Me.h ****    // Enable PLL2
  74:../5-TempR_LCD_Serial/Me.h ****    RCC->CR |= (1 << 26);
 335              		.loc 2 74 4 is_stmt 1 view .LVU73
 336              	@ ../5-TempR_LCD_Serial/Me.h:74:    RCC->CR |= (1 << 26);
 337              		.loc 2 74 12 is_stmt 0 view .LVU74
 338 00e4 1A68     		ldr	r2, [r3]	@ _9, MEM[(struct RCC_TypeDef *)1073876992B].CR
 339 00e6 42F08062 		orr	r2, r2, #67108864	@ _10, _9,
 340 00ea 1A60     		str	r2, [r3]	@ _10, MEM[(struct RCC_TypeDef *)1073876992B].CR
  75:../5-TempR_LCD_Serial/Me.h ****    // Wait untill PLL2 settles down
  76:../5-TempR_LCD_Serial/Me.h **** 	// while (!(RCC->CR & (1 << 27)));
  77:../5-TempR_LCD_Serial/Me.h ****    // Set PLL2 as PREDIV1 clock source
  78:../5-TempR_LCD_Serial/Me.h ****    RCC->CFGR2 |= (1 << 16);
 341              		.loc 2 78 4 is_stmt 1 view .LVU75
 342              	@ ../5-TempR_LCD_Serial/Me.h:78:    RCC->CFGR2 |= (1 << 16);
 343              		.loc 2 78 15 is_stmt 0 view .LVU76
 344 00ec DA6A     		ldr	r2, [r3, #44]	@ _11, MEM[(struct RCC_TypeDef *)1073876992B].CFGR2
 345 00ee 42F48032 		orr	r2, r2, #65536	@ _12, _11,
 346 00f2 DA62     		str	r2, [r3, #44]	@ _12, MEM[(struct RCC_TypeDef *)1073876992B].CFGR2
  79:../5-TempR_LCD_Serial/Me.h ****    // Set PREDIV1 division factor to 5
  80:../5-TempR_LCD_Serial/Me.h ****    RCC->CFGR2 |= (0b0100 << 0);
ARM GAS  /tmp/ccIXPZcX.s 			page 11


 347              		.loc 2 80 4 is_stmt 1 view .LVU77
 348              	@ ../5-TempR_LCD_Serial/Me.h:80:    RCC->CFGR2 |= (0b0100 << 0);
 349              		.loc 2 80 15 is_stmt 0 view .LVU78
 350 00f4 DA6A     		ldr	r2, [r3, #44]	@ _13, MEM[(struct RCC_TypeDef *)1073876992B].CFGR2
 351 00f6 42F00402 		orr	r2, r2, #4	@ _14, _13,
 352 00fa DA62     		str	r2, [r3, #44]	@ _14, MEM[(struct RCC_TypeDef *)1073876992B].CFGR2
  81:../5-TempR_LCD_Serial/Me.h ****    // Select Prediv1 as PLL source
  82:../5-TempR_LCD_Serial/Me.h ****    RCC->CFGR |= (1 << 16);
 353              		.loc 2 82 4 is_stmt 1 view .LVU79
 354              	@ ../5-TempR_LCD_Serial/Me.h:82:    RCC->CFGR |= (1 << 16);
 355              		.loc 2 82 14 is_stmt 0 view .LVU80
 356 00fc 5A68     		ldr	r2, [r3, #4]	@ _15, MEM[(struct RCC_TypeDef *)1073876992B].CFGR
 357 00fe 42F48032 		orr	r2, r2, #65536	@ _16, _15,
 358 0102 5A60     		str	r2, [r3, #4]	@ _16, MEM[(struct RCC_TypeDef *)1073876992B].CFGR
  83:../5-TempR_LCD_Serial/Me.h ****    // Set PLL1 multiplication factor to 9
  84:../5-TempR_LCD_Serial/Me.h ****    RCC->CFGR |= (0b0111 << 18);
 359              		.loc 2 84 4 is_stmt 1 view .LVU81
 360              	@ ../5-TempR_LCD_Serial/Me.h:84:    RCC->CFGR |= (0b0111 << 18);
 361              		.loc 2 84 14 is_stmt 0 view .LVU82
 362 0104 5A68     		ldr	r2, [r3, #4]	@ _17, MEM[(struct RCC_TypeDef *)1073876992B].CFGR
 363 0106 42F4E012 		orr	r2, r2, #1835008	@ _18, _17,
 364 010a 5A60     		str	r2, [r3, #4]	@ _18, MEM[(struct RCC_TypeDef *)1073876992B].CFGR
  85:../5-TempR_LCD_Serial/Me.h ****    // Set APB1 to 36MHz
  86:../5-TempR_LCD_Serial/Me.h ****    RCC->CFGR |= 1 << 10;
 365              		.loc 2 86 4 is_stmt 1 view .LVU83
 366              	@ ../5-TempR_LCD_Serial/Me.h:86:    RCC->CFGR |= 1 << 10;
 367              		.loc 2 86 14 is_stmt 0 view .LVU84
 368 010c 5A68     		ldr	r2, [r3, #4]	@ _19, MEM[(struct RCC_TypeDef *)1073876992B].CFGR
 369 010e 42F48062 		orr	r2, r2, #1024	@ _20, _19,
 370 0112 5A60     		str	r2, [r3, #4]	@ _20, MEM[(struct RCC_TypeDef *)1073876992B].CFGR
  87:../5-TempR_LCD_Serial/Me.h ****    // Enable PLL
  88:../5-TempR_LCD_Serial/Me.h ****    RCC->CR |= (1 << 24);
 371              		.loc 2 88 4 is_stmt 1 view .LVU85
 372              	@ ../5-TempR_LCD_Serial/Me.h:88:    RCC->CR |= (1 << 24);
 373              		.loc 2 88 12 is_stmt 0 view .LVU86
 374 0114 1A68     		ldr	r2, [r3]	@ _21, MEM[(struct RCC_TypeDef *)1073876992B].CR
 375 0116 42F08072 		orr	r2, r2, #16777216	@ _22, _21,
 376 011a 1A60     		str	r2, [r3]	@ _22, MEM[(struct RCC_TypeDef *)1073876992B].CR
  89:../5-TempR_LCD_Serial/Me.h ****    // Wait untill PLL settles down
  90:../5-TempR_LCD_Serial/Me.h ****    while (!(RCC->CR & (1 << 25)));
 377              		.loc 2 90 4 is_stmt 1 view .LVU87
 378              	.L14:
 379              		.loc 2 90 34 discriminator 1 view .LVU88
 380              		.loc 2 90 10 discriminator 1 view .LVU89
 381              	@ ../5-TempR_LCD_Serial/Me.h:90:    while (!(RCC->CR & (1 << 25)));
 382              		.loc 2 90 16 is_stmt 0 discriminator 1 view .LVU90
 383 011c 1A68     		ldr	r2, [r3]	@ _23, MEM[(struct RCC_TypeDef *)1073876992B].CR
 384              	@ ../5-TempR_LCD_Serial/Me.h:90:    while (!(RCC->CR & (1 << 25)));
 385              		.loc 2 90 10 discriminator 1 view .LVU91
 386 011e 9201     		lsls	r2, r2, #6	@, _23,
 387 0120 FCD5     		bpl	.L14		@,
  91:../5-TempR_LCD_Serial/Me.h ****    // Finally, choose PLL as the system clock
  92:../5-TempR_LCD_Serial/Me.h ****    RCC->CFGR |= (0b10 << 0);
 388              		.loc 2 92 4 is_stmt 1 view .LVU92
 389              	@ ../5-TempR_LCD_Serial/Me.h:92:    RCC->CFGR |= (0b10 << 0);
 390              		.loc 2 92 14 is_stmt 0 view .LVU93
 391 0122 5A68     		ldr	r2, [r3, #4]	@ _25, MEM[(struct RCC_TypeDef *)1073876992B].CFGR
ARM GAS  /tmp/ccIXPZcX.s 			page 12


 392 0124 42F00202 		orr	r2, r2, #2	@ _26, _25,
 393 0128 5A60     		str	r2, [r3, #4]	@ _26, MEM[(struct RCC_TypeDef *)1073876992B].CFGR
 394              	@ ../5-TempR_LCD_Serial/Me.h:93: } 
  93:../5-TempR_LCD_Serial/Me.h **** } 
 395              		.loc 2 93 1 view .LVU94
 396 012a 7047     		bx	lr	@
 397              	.L20:
 398              		.align	2
 399              	.L19:
 400 012c 00200240 		.word	1073881088
 401              		.cfi_endproc
 402              	.LFE35:
 403              		.size	set_system_clock_to_72Mhz, .-set_system_clock_to_72Mhz
 404              		.align	1
 405              		.global	Delay
 406              		.syntax unified
 407              		.thumb
 408              		.thumb_func
 409              		.type	Delay, %function
 410              	Delay:
 411              	.LVL3:
 412              	.LFB36:
  94:../5-TempR_LCD_Serial/Me.h **** 
  95:../5-TempR_LCD_Serial/Me.h **** void Delay ( __IO u32 T ) { // T=1 ;  868µs -> T=1 ~ 526µs
 413              		.loc 2 95 27 is_stmt 1 view -0
 414              		.cfi_startproc
 415              		@ args = 0, pretend = 0, frame = 8
 416              		@ frame_needed = 0, uses_anonymous_args = 0
 417              		@ link register save eliminated.
  96:../5-TempR_LCD_Serial/Me.h ****   for ( T ; T > 0 ; T-- ){
 418              		.loc 2 96 3 view .LVU96
 419              	@ ../5-TempR_LCD_Serial/Me.h:95: void Delay ( __IO u32 T ) { // T=1 ;  868µs -> T=1 ~ 526µs
  95:../5-TempR_LCD_Serial/Me.h ****   for ( T ; T > 0 ; T-- ){
 420              		.loc 2 95 27 is_stmt 0 view .LVU97
 421 0130 82B0     		sub	sp, sp, #8	@,,
 422              	.LCFI1:
 423              		.cfi_def_cfa_offset 8
 424              	@ ../5-TempR_LCD_Serial/Me.h:95: void Delay ( __IO u32 T ) { // T=1 ;  868µs -> T=1 ~ 526µs
  95:../5-TempR_LCD_Serial/Me.h ****   for ( T ; T > 0 ; T-- ){
 425              		.loc 2 95 27 view .LVU98
 426 0132 0190     		str	r0, [sp, #4]	@ T, T
 427              	@ ../5-TempR_LCD_Serial/Me.h:96:   for ( T ; T > 0 ; T-- ){
 428              		.loc 2 96 3 view .LVU99
 429 0134 019B     		ldr	r3, [sp, #4]	@ vol.0_9, T
 430              	@ ../5-TempR_LCD_Serial/Me.h:97:    TIM3->EGR |= ( 1 << 0 );
  97:../5-TempR_LCD_Serial/Me.h ****    TIM3->EGR |= ( 1 << 0 );
 431              		.loc 2 97 14 view .LVU100
 432 0136 094A     		ldr	r2, .L26	@ tmp132,
 433              	.L22:
  96:../5-TempR_LCD_Serial/Me.h ****   for ( T ; T > 0 ; T-- ){
 434              		.loc 2 96 13 is_stmt 1 discriminator 1 view .LVU101
 435              	@ ../5-TempR_LCD_Serial/Me.h:96:   for ( T ; T > 0 ; T-- ){
  96:../5-TempR_LCD_Serial/Me.h ****   for ( T ; T > 0 ; T-- ){
 436              		.loc 2 96 15 is_stmt 0 discriminator 1 view .LVU102
 437 0138 019B     		ldr	r3, [sp, #4]	@ T.2_6, T
 438              	@ ../5-TempR_LCD_Serial/Me.h:96:   for ( T ; T > 0 ; T-- ){
  96:../5-TempR_LCD_Serial/Me.h ****   for ( T ; T > 0 ; T-- ){
ARM GAS  /tmp/ccIXPZcX.s 			page 13


 439              		.loc 2 96 3 discriminator 1 view .LVU103
 440 013a 0BB9     		cbnz	r3, .L24	@ T.2_6,
 441              	@ ../5-TempR_LCD_Serial/Me.h:100: }
  98:../5-TempR_LCD_Serial/Me.h ****    while ( TIM3->CNT < 5 ) ; /* 5 * 10-- Configurar para IR */
  99:../5-TempR_LCD_Serial/Me.h ****   }
 100:../5-TempR_LCD_Serial/Me.h **** }
 442              		.loc 2 100 1 view .LVU104
 443 013c 02B0     		add	sp, sp, #8	@,,
 444              	.LCFI2:
 445              		.cfi_remember_state
 446              		.cfi_def_cfa_offset 0
 447              		@ sp needed	@
 448 013e 7047     		bx	lr	@
 449              	.L24:
 450              	.LCFI3:
 451              		.cfi_restore_state
  97:../5-TempR_LCD_Serial/Me.h ****    TIM3->EGR |= ( 1 << 0 );
 452              		.loc 2 97 4 is_stmt 1 view .LVU105
 453              	@ ../5-TempR_LCD_Serial/Me.h:97:    TIM3->EGR |= ( 1 << 0 );
  97:../5-TempR_LCD_Serial/Me.h ****    TIM3->EGR |= ( 1 << 0 );
 454              		.loc 2 97 14 is_stmt 0 view .LVU106
 455 0140 938A     		ldrh	r3, [r2, #20]	@, MEM[(struct TIM_TypeDef *)1073742848B].EGR
 456 0142 9BB2     		uxth	r3, r3	@ _1, MEM[(struct TIM_TypeDef *)1073742848B].EGR
 457 0144 43F00103 		orr	r3, r3, #1	@ _2, _1,
 458 0148 9382     		strh	r3, [r2, #20]	@ movhi	@ _2, MEM[(struct TIM_TypeDef *)1073742848B].EGR
  98:../5-TempR_LCD_Serial/Me.h ****    while ( TIM3->CNT < 5 ) ; /* 5 * 10-- Configurar para IR */
 459              		.loc 2 98 4 is_stmt 1 view .LVU107
 460              	.L23:
  98:../5-TempR_LCD_Serial/Me.h ****    while ( TIM3->CNT < 5 ) ; /* 5 * 10-- Configurar para IR */
 461              		.loc 2 98 28 discriminator 1 view .LVU108
  98:../5-TempR_LCD_Serial/Me.h ****    while ( TIM3->CNT < 5 ) ; /* 5 * 10-- Configurar para IR */
 462              		.loc 2 98 10 discriminator 1 view .LVU109
 463              	@ ../5-TempR_LCD_Serial/Me.h:98:    while ( TIM3->CNT < 5 ) ; /* 5 * 10-- Configurar para IR */
  98:../5-TempR_LCD_Serial/Me.h ****    while ( TIM3->CNT < 5 ) ; /* 5 * 10-- Configurar para IR */
 464              		.loc 2 98 16 is_stmt 0 discriminator 1 view .LVU110
 465 014a 938C     		ldrh	r3, [r2, #36]	@, MEM[(struct TIM_TypeDef *)1073742848B].CNT
 466 014c 9BB2     		uxth	r3, r3	@ _3, MEM[(struct TIM_TypeDef *)1073742848B].CNT
 467              	@ ../5-TempR_LCD_Serial/Me.h:98:    while ( TIM3->CNT < 5 ) ; /* 5 * 10-- Configurar para IR */
  98:../5-TempR_LCD_Serial/Me.h ****    while ( TIM3->CNT < 5 ) ; /* 5 * 10-- Configurar para IR */
 468              		.loc 2 98 10 discriminator 1 view .LVU111
 469 014e 042B     		cmp	r3, #4	@ _3,
 470 0150 FBD9     		bls	.L23		@,
  96:../5-TempR_LCD_Serial/Me.h ****    TIM3->EGR |= ( 1 << 0 );
 471              		.loc 2 96 21 is_stmt 1 discriminator 2 view .LVU112
 472              	@ ../5-TempR_LCD_Serial/Me.h:96:   for ( T ; T > 0 ; T-- ){
  96:../5-TempR_LCD_Serial/Me.h ****    TIM3->EGR |= ( 1 << 0 );
 473              		.loc 2 96 22 is_stmt 0 discriminator 2 view .LVU113
 474 0152 019B     		ldr	r3, [sp, #4]	@ T.1_4, T
 475 0154 013B     		subs	r3, r3, #1	@ _5, T.1_4,
 476 0156 0193     		str	r3, [sp, #4]	@ _5, T
 477 0158 EEE7     		b	.L22		@
 478              	.L27:
 479 015a 00BF     		.align	2
 480              	.L26:
 481 015c 00040040 		.word	1073742848
 482              		.cfi_endproc
 483              	.LFE36:
ARM GAS  /tmp/ccIXPZcX.s 			page 14


 484              		.size	Delay, .-Delay
 485              		.align	1
 486              		.global	enable_TIM3_delay
 487              		.syntax unified
 488              		.thumb
 489              		.thumb_func
 490              		.type	enable_TIM3_delay, %function
 491              	enable_TIM3_delay:
 492              	.LFB37:
 101:../5-TempR_LCD_Serial/Me.h **** 
 102:../5-TempR_LCD_Serial/Me.h **** void enable_TIM3_delay (void) {
 493              		.loc 2 102 31 is_stmt 1 view -0
 494              		.cfi_startproc
 495              		@ args = 0, pretend = 0, frame = 0
 496              		@ frame_needed = 0, uses_anonymous_args = 0
 497              		@ link register save eliminated.
 103:../5-TempR_LCD_Serial/Me.h ****    RCC->APB1ENR |= 1<<1 ;
 498              		.loc 2 103 4 view .LVU115
 499              	@ ../5-TempR_LCD_Serial/Me.h:103:    RCC->APB1ENR |= 1<<1 ;
 500              		.loc 2 103 17 is_stmt 0 view .LVU116
 501 0160 084A     		ldr	r2, .L29	@ tmp117,
 502 0162 D369     		ldr	r3, [r2, #28]	@ _1, MEM[(struct RCC_TypeDef *)1073876992B].APB1ENR
 503 0164 43F00203 		orr	r3, r3, #2	@ _2, _1,
 504 0168 D361     		str	r3, [r2, #28]	@ _2, MEM[(struct RCC_TypeDef *)1073876992B].APB1ENR
 104:../5-TempR_LCD_Serial/Me.h ****    TIM3->CR1 = 0x0000;
 505              		.loc 2 104 4 is_stmt 1 view .LVU117
 506              	@ ../5-TempR_LCD_Serial/Me.h:104:    TIM3->CR1 = 0x0000;
 507              		.loc 2 104 14 is_stmt 0 view .LVU118
 508 016a 0023     		movs	r3, #0	@ tmp121,
 509 016c A2F50332 		sub	r2, r2, #134144	@ tmp119, tmp119,
 510 0170 1380     		strh	r3, [r2]	@ movhi	@ tmp121, MEM[(struct TIM_TypeDef *)1073742848B].CR1
 105:../5-TempR_LCD_Serial/Me.h ****    //TIM3->ARR = 21699;
 106:../5-TempR_LCD_Serial/Me.h ****    TIM3->ARR = 250-1; // 10µs
 511              		.loc 2 106 4 is_stmt 1 view .LVU119
 512              	@ ../5-TempR_LCD_Serial/Me.h:106:    TIM3->ARR = 250-1; // 10µs
 513              		.loc 2 106 14 is_stmt 0 view .LVU120
 514 0172 F923     		movs	r3, #249	@ tmp124,
 515 0174 9385     		strh	r3, [r2, #44]	@ movhi	@ tmp124, MEM[(struct TIM_TypeDef *)1073742848B].ARR
 107:../5-TempR_LCD_Serial/Me.h ****    // para obter o período de 868µs
 108:../5-TempR_LCD_Serial/Me.h **** /*https://www.vishay.com/docs/80071/dataform.pdf PAG 2
 109:../5-TempR_LCD_Serial/Me.h ****  * https://controllerstech.com/ir-remote-with-stm32/
 110:../5-TempR_LCD_Serial/Me.h ****  * Per=(1+ARR)/Clock_system */
 111:../5-TempR_LCD_Serial/Me.h ****    TIM3->CR1 |= 1<<0;
 516              		.loc 2 111 4 is_stmt 1 view .LVU121
 517              	@ ../5-TempR_LCD_Serial/Me.h:111:    TIM3->CR1 |= 1<<0;
 518              		.loc 2 111 14 is_stmt 0 view .LVU122
 519 0176 1388     		ldrh	r3, [r2]	@, MEM[(struct TIM_TypeDef *)1073742848B].CR1
 520 0178 9BB2     		uxth	r3, r3	@ _3, MEM[(struct TIM_TypeDef *)1073742848B].CR1
 521 017a 43F00103 		orr	r3, r3, #1	@ _4, _3,
 522 017e 1380     		strh	r3, [r2]	@ movhi	@ _4, MEM[(struct TIM_TypeDef *)1073742848B].CR1
 523              	@ ../5-TempR_LCD_Serial/Me.h:112: }
 112:../5-TempR_LCD_Serial/Me.h **** }
 524              		.loc 2 112 1 view .LVU123
 525 0180 7047     		bx	lr	@
 526              	.L30:
 527 0182 00BF     		.align	2
 528              	.L29:
ARM GAS  /tmp/ccIXPZcX.s 			page 15


 529 0184 00100240 		.word	1073876992
 530              		.cfi_endproc
 531              	.LFE37:
 532              		.size	enable_TIM3_delay, .-enable_TIM3_delay
 533              		.align	1
 534              		.global	enable_interrupt
 535              		.syntax unified
 536              		.thumb
 537              		.thumb_func
 538              		.type	enable_interrupt, %function
 539              	enable_interrupt:
 540              	.LVL4:
 541              	.LFB38:
 113:../5-TempR_LCD_Serial/Me.h **** 
 114:../5-TempR_LCD_Serial/Me.h **** void enable_interrupt(IRQn_Type IRQn)
 115:../5-TempR_LCD_Serial/Me.h **** {
 542              		.loc 2 115 1 is_stmt 1 view -0
 543              		.cfi_startproc
 544              		@ args = 0, pretend = 0, frame = 0
 545              		@ frame_needed = 0, uses_anonymous_args = 0
 546              		@ link register save eliminated.
 116:../5-TempR_LCD_Serial/Me.h ****    NVIC->ISER[((uint32_t)(IRQn) >> 5)] = (1 << ((uint32_t)(IRQn) & 0x1F));
 547              		.loc 2 116 4 view .LVU125
 548              	@ ../5-TempR_LCD_Serial/Me.h:116:    NVIC->ISER[((uint32_t)(IRQn) >> 5)] = (1 << ((uint32_t)(IRQn) 
 549              		.loc 2 116 45 is_stmt 0 view .LVU126
 550 0188 0123     		movs	r3, #1	@ tmp124,
 551              	@ ../5-TempR_LCD_Serial/Me.h:116:    NVIC->ISER[((uint32_t)(IRQn) >> 5)] = (1 << ((uint32_t)(IRQn) 
 552              		.loc 2 116 33 view .LVU127
 553 018a 4209     		lsrs	r2, r0, #5	@ _6, IRQn,
 554              	@ ../5-TempR_LCD_Serial/Me.h:116:    NVIC->ISER[((uint32_t)(IRQn) >> 5)] = (1 << ((uint32_t)(IRQn) 
 555              		.loc 2 116 66 view .LVU128
 556 018c 00F01F00 		and	r0, r0, #31	@ tmp123, IRQn,
 557              	.LVL5:
 558              	@ ../5-TempR_LCD_Serial/Me.h:116:    NVIC->ISER[((uint32_t)(IRQn) >> 5)] = (1 << ((uint32_t)(IRQn) 
 559              		.loc 2 116 45 view .LVU129
 560 0190 03FA00F0 		lsl	r0, r3, r0	@ _7, tmp124, tmp123
 561              	@ ../5-TempR_LCD_Serial/Me.h:116:    NVIC->ISER[((uint32_t)(IRQn) >> 5)] = (1 << ((uint32_t)(IRQn) 
 562              		.loc 2 116 40 view .LVU130
 563 0194 014B     		ldr	r3, .L32	@ tmp125,
 564 0196 43F82200 		str	r0, [r3, r2, lsl #2]	@ _7, MEM[(struct NVIC_Type *)3758153984B].ISER[_6]
 565              	@ ../5-TempR_LCD_Serial/Me.h:117: }  
 117:../5-TempR_LCD_Serial/Me.h **** }  
 566              		.loc 2 117 1 view .LVU131
 567 019a 7047     		bx	lr	@
 568              	.L33:
 569              		.align	2
 570              	.L32:
 571 019c 00E100E0 		.word	-536813312
 572              		.cfi_endproc
 573              	.LFE38:
 574              		.size	enable_interrupt, .-enable_interrupt
 575              		.align	1
 576              		.global	disable_interrupt
 577              		.syntax unified
 578              		.thumb
 579              		.thumb_func
 580              		.type	disable_interrupt, %function
ARM GAS  /tmp/ccIXPZcX.s 			page 16


 581              	disable_interrupt:
 582              	.LVL6:
 583              	.LFB39:
 118:../5-TempR_LCD_Serial/Me.h ****    
 119:../5-TempR_LCD_Serial/Me.h **** /* 
 120:../5-TempR_LCD_Serial/Me.h ****  * Disable given interrupt
 121:../5-TempR_LCD_Serial/Me.h ****  */
 122:../5-TempR_LCD_Serial/Me.h **** void disable_interrupt(IRQn_Type IRQn)
 123:../5-TempR_LCD_Serial/Me.h **** {
 584              		.loc 2 123 1 is_stmt 1 view -0
 585              		.cfi_startproc
 586              		@ args = 0, pretend = 0, frame = 0
 587              		@ frame_needed = 0, uses_anonymous_args = 0
 588              		@ link register save eliminated.
 124:../5-TempR_LCD_Serial/Me.h ****    NVIC->ICER[((uint32_t)(IRQn) >> 5)] = (1 << ((uint32_t)(IRQn) & 0x1F));
 589              		.loc 2 124 4 view .LVU133
 590              	@ ../5-TempR_LCD_Serial/Me.h:124:    NVIC->ICER[((uint32_t)(IRQn) >> 5)] = (1 << ((uint32_t)(IRQn) 
 591              		.loc 2 124 45 is_stmt 0 view .LVU134
 592 01a0 0122     		movs	r2, #1	@ tmp124,
 593              	@ ../5-TempR_LCD_Serial/Me.h:124:    NVIC->ICER[((uint32_t)(IRQn) >> 5)] = (1 << ((uint32_t)(IRQn) 
 594              		.loc 2 124 33 view .LVU135
 595 01a2 4309     		lsrs	r3, r0, #5	@ _6, IRQn,
 596              	@ ../5-TempR_LCD_Serial/Me.h:124:    NVIC->ICER[((uint32_t)(IRQn) >> 5)] = (1 << ((uint32_t)(IRQn) 
 597              		.loc 2 124 66 view .LVU136
 598 01a4 00F01F00 		and	r0, r0, #31	@ tmp123, IRQn,
 599              	.LVL7:
 600              	@ ../5-TempR_LCD_Serial/Me.h:124:    NVIC->ICER[((uint32_t)(IRQn) >> 5)] = (1 << ((uint32_t)(IRQn) 
 601              		.loc 2 124 45 view .LVU137
 602 01a8 02FA00F0 		lsl	r0, r2, r0	@ _7, tmp124, tmp123
 603              	@ ../5-TempR_LCD_Serial/Me.h:124:    NVIC->ICER[((uint32_t)(IRQn) >> 5)] = (1 << ((uint32_t)(IRQn) 
 604              		.loc 2 124 40 view .LVU138
 605 01ac 024A     		ldr	r2, .L35	@ tmp125,
 606 01ae 2033     		adds	r3, r3, #32	@ tmp126, _6,
 607 01b0 42F82300 		str	r0, [r2, r3, lsl #2]	@ _7, MEM[(struct NVIC_Type *)3758153984B].ICER[_6]
 608              	@ ../5-TempR_LCD_Serial/Me.h:125: }
 125:../5-TempR_LCD_Serial/Me.h **** }
 609              		.loc 2 125 1 view .LVU139
 610 01b4 7047     		bx	lr	@
 611              	.L36:
 612 01b6 00BF     		.align	2
 613              	.L35:
 614 01b8 00E100E0 		.word	-536813312
 615              		.cfi_endproc
 616              	.LFE39:
 617              		.size	disable_interrupt, .-disable_interrupt
 618              		.align	1
 619              		.global	intToStr
 620              		.syntax unified
 621              		.thumb
 622              		.thumb_func
 623              		.type	intToStr, %function
 624              	intToStr:
 625              	.LVL8:
 626              	.LFB41:
 126:../5-TempR_LCD_Serial/Me.h **** 
 127:../5-TempR_LCD_Serial/Me.h **** /* Exemplo: 
 128:../5-TempR_LCD_Serial/Me.h ****  		    float num = 123.456789;
ARM GAS  /tmp/ccIXPZcX.s 			page 17


 129:../5-TempR_LCD_Serial/Me.h **** 			 char str[20];
 130:../5-TempR_LCD_Serial/Me.h **** 			 // num -> ponto flutuante
 131:../5-TempR_LCD_Serial/Me.h **** 			 // str -> Var String 
 132:../5-TempR_LCD_Serial/Me.h **** 			 // 4 -> Precisão do de casas decimais
 133:../5-TempR_LCD_Serial/Me.h **** 			 floatToString(num, str, 4);
 134:../5-TempR_LCD_Serial/Me.h ****  
 135:../5-TempR_LCD_Serial/Me.h ****  * */
 136:../5-TempR_LCD_Serial/Me.h **** void floatToString(float num, char *str, int precision) {
 137:../5-TempR_LCD_Serial/Me.h ****     // Lida com números negativos
 138:../5-TempR_LCD_Serial/Me.h ****     if (num < 0) {
 139:../5-TempR_LCD_Serial/Me.h ****         num = -num;
 140:../5-TempR_LCD_Serial/Me.h ****         *str++ = '-';
 141:../5-TempR_LCD_Serial/Me.h ****     }
 142:../5-TempR_LCD_Serial/Me.h **** 
 143:../5-TempR_LCD_Serial/Me.h ****     // Extrai a parte inteira do número
 144:../5-TempR_LCD_Serial/Me.h ****     int inteira = (int)num;
 145:../5-TempR_LCD_Serial/Me.h ****     intToStr(inteira, str);
 146:../5-TempR_LCD_Serial/Me.h ****     while (*str != '\0') {
 147:../5-TempR_LCD_Serial/Me.h ****         str++;
 148:../5-TempR_LCD_Serial/Me.h ****     }
 149:../5-TempR_LCD_Serial/Me.h **** 
 150:../5-TempR_LCD_Serial/Me.h ****     // Adiciona o ponto decimal
 151:../5-TempR_LCD_Serial/Me.h ****     *str++ = '.';
 152:../5-TempR_LCD_Serial/Me.h **** 
 153:../5-TempR_LCD_Serial/Me.h ****     // Calcula e adiciona a parte fracionária
 154:../5-TempR_LCD_Serial/Me.h ****     float fracionaria = num - inteira;
 155:../5-TempR_LCD_Serial/Me.h ****     for (int i = 0; i < precision; i++) {
 156:../5-TempR_LCD_Serial/Me.h ****         fracionaria *= 10;
 157:../5-TempR_LCD_Serial/Me.h ****         int digito = (int)fracionaria;
 158:../5-TempR_LCD_Serial/Me.h ****         *str++ = '0' + digito;
 159:../5-TempR_LCD_Serial/Me.h ****         fracionaria -= digito;
 160:../5-TempR_LCD_Serial/Me.h ****     }
 161:../5-TempR_LCD_Serial/Me.h **** 
 162:../5-TempR_LCD_Serial/Me.h ****     // Adiciona o terminador nulo
 163:../5-TempR_LCD_Serial/Me.h ****     *str = '\0';
 164:../5-TempR_LCD_Serial/Me.h **** }
 165:../5-TempR_LCD_Serial/Me.h **** 
 166:../5-TempR_LCD_Serial/Me.h **** void intToStr(int num, char *str) {
 627              		.loc 2 166 35 is_stmt 1 view -0
 628              		.cfi_startproc
 629              		@ args = 0, pretend = 0, frame = 0
 630              		@ frame_needed = 0, uses_anonymous_args = 0
 167:../5-TempR_LCD_Serial/Me.h ****     // Converte um número inteiro para uma string
 168:../5-TempR_LCD_Serial/Me.h ****     if (num == 0) {
 631              		.loc 2 168 5 view .LVU141
 632              	@ ../5-TempR_LCD_Serial/Me.h:166: void intToStr(int num, char *str) {
 166:../5-TempR_LCD_Serial/Me.h ****     // Converte um número inteiro para uma string
 633              		.loc 2 166 35 is_stmt 0 view .LVU142
 634 01bc 10B5     		push	{r4, lr}	@
 635              	.LCFI4:
 636              		.cfi_def_cfa_offset 8
 637              		.cfi_offset 4, -8
 638              		.cfi_offset 14, -4
 639              	@ ../5-TempR_LCD_Serial/Me.h:168:     if (num == 0) {
 640              		.loc 2 168 8 view .LVU143
 641 01be B8B9     		cbnz	r0, .L43	@ num,
 169:../5-TempR_LCD_Serial/Me.h ****         *str++ = '0';
ARM GAS  /tmp/ccIXPZcX.s 			page 18


 642              		.loc 2 169 9 is_stmt 1 view .LVU144
 643              	.LVL9:
 644              	@ ../5-TempR_LCD_Serial/Me.h:169:         *str++ = '0';
 645              		.loc 2 169 16 is_stmt 0 view .LVU145
 646 01c0 3023     		movs	r3, #48	@ tmp122,
 647              	@ ../5-TempR_LCD_Serial/Me.h:170:         *str = '\0';
 170:../5-TempR_LCD_Serial/Me.h ****         *str = '\0';
 648              		.loc 2 170 14 view .LVU146
 649 01c2 4870     		strb	r0, [r1, #1]	@ num, MEM[(char *)str_6(D) + 1B]
 650              	@ ../5-TempR_LCD_Serial/Me.h:169:         *str++ = '0';
 169:../5-TempR_LCD_Serial/Me.h ****         *str++ = '0';
 651              		.loc 2 169 16 view .LVU147
 652 01c4 0B70     		strb	r3, [r1]	@ tmp122, *str_6(D)
 653              		.loc 2 170 9 is_stmt 1 view .LVU148
 171:../5-TempR_LCD_Serial/Me.h ****         return;
 654              		.loc 2 171 9 view .LVU149
 655              	.LVL10:
 656              	.L37:
 657              	@ ../5-TempR_LCD_Serial/Me.h:189: }
 172:../5-TempR_LCD_Serial/Me.h ****     }
 173:../5-TempR_LCD_Serial/Me.h **** 
 174:../5-TempR_LCD_Serial/Me.h ****     int len = 0;
 175:../5-TempR_LCD_Serial/Me.h ****     int temp = num;
 176:../5-TempR_LCD_Serial/Me.h ****     while (temp > 0) {
 177:../5-TempR_LCD_Serial/Me.h ****         temp /= 10;
 178:../5-TempR_LCD_Serial/Me.h ****         len++;
 179:../5-TempR_LCD_Serial/Me.h ****     }
 180:../5-TempR_LCD_Serial/Me.h **** 
 181:../5-TempR_LCD_Serial/Me.h ****     str += len;
 182:../5-TempR_LCD_Serial/Me.h ****     *str = '\0';
 183:../5-TempR_LCD_Serial/Me.h **** 
 184:../5-TempR_LCD_Serial/Me.h ****     while (num > 0) {
 185:../5-TempR_LCD_Serial/Me.h ****         int digito = num % 10;
 186:../5-TempR_LCD_Serial/Me.h ****         *(--str) = '0' + digito;
 187:../5-TempR_LCD_Serial/Me.h ****         num /= 10;
 188:../5-TempR_LCD_Serial/Me.h ****     }
 189:../5-TempR_LCD_Serial/Me.h **** }
 658              		.loc 2 189 1 is_stmt 0 view .LVU150
 659 01c6 10BD     		pop	{r4, pc}	@
 660              	.LVL11:
 661              	.L40:
 662              	.LBB6:
 663              	.LBB7:
 177:../5-TempR_LCD_Serial/Me.h ****         len++;
 664              		.loc 2 177 9 is_stmt 1 view .LVU151
 665              	@ ../5-TempR_LCD_Serial/Me.h:177:         temp /= 10;
 177:../5-TempR_LCD_Serial/Me.h ****         len++;
 666              		.loc 2 177 14 is_stmt 0 view .LVU152
 667 01c8 92FBF4F2 		sdiv	r2, r2, r4	@ temp, temp, tmp147
 668              	.LVL12:
 178:../5-TempR_LCD_Serial/Me.h ****     }
 669              		.loc 2 178 9 is_stmt 1 view .LVU153
 670              	@ ../5-TempR_LCD_Serial/Me.h:178:         len++;
 178:../5-TempR_LCD_Serial/Me.h ****     }
 671              		.loc 2 178 12 is_stmt 0 view .LVU154
 672 01cc 0133     		adds	r3, r3, #1	@ len, len,
 673              	.LVL13:
ARM GAS  /tmp/ccIXPZcX.s 			page 19


 674              	.L38:
 176:../5-TempR_LCD_Serial/Me.h ****         temp /= 10;
 675              		.loc 2 176 11 is_stmt 1 view .LVU155
 676 01ce 002A     		cmp	r2, #0	@ temp,
 677 01d0 FADC     		bgt	.L40		@,
 181:../5-TempR_LCD_Serial/Me.h ****     *str = '\0';
 678              		.loc 2 181 5 view .LVU156
 679              	@ ../5-TempR_LCD_Serial/Me.h:182:     *str = '\0';
 182:../5-TempR_LCD_Serial/Me.h **** 
 680              		.loc 2 182 10 is_stmt 0 view .LVU157
 681 01d2 0024     		movs	r4, #0	@ tmp129,
 682              	@ ../5-TempR_LCD_Serial/Me.h:181:     str += len;
 181:../5-TempR_LCD_Serial/Me.h ****     *str = '\0';
 683              		.loc 2 181 9 view .LVU158
 684 01d4 CA18     		adds	r2, r1, r3	@ str, str, len
 685              	.LVL14:
 182:../5-TempR_LCD_Serial/Me.h **** 
 686              		.loc 2 182 5 is_stmt 1 view .LVU159
 687              	@ ../5-TempR_LCD_Serial/Me.h:182:     *str = '\0';
 182:../5-TempR_LCD_Serial/Me.h **** 
 688              		.loc 2 182 10 is_stmt 0 view .LVU160
 689 01d6 CC54     		strb	r4, [r1, r3]	@ tmp129, *str_16
 184:../5-TempR_LCD_Serial/Me.h ****         int digito = num % 10;
 690              		.loc 2 184 5 is_stmt 1 view .LVU161
 691              	.LBB8:
 692              	@ ../5-TempR_LCD_Serial/Me.h:185:         int digito = num % 10;
 185:../5-TempR_LCD_Serial/Me.h ****         *(--str) = '0' + digito;
 693              		.loc 2 185 13 is_stmt 0 view .LVU162
 694 01d8 0A23     		movs	r3, #10	@ tmp146,
 695              	.LVL15:
 696              	.L41:
 185:../5-TempR_LCD_Serial/Me.h ****         *(--str) = '0' + digito;
 697              		.loc 2 185 13 view .LVU163
 698              	.LBE8:
 184:../5-TempR_LCD_Serial/Me.h ****         int digito = num % 10;
 699              		.loc 2 184 11 is_stmt 1 view .LVU164
 700 01da 0028     		cmp	r0, #0	@ num,
 701 01dc F3DD     		ble	.L37		@,
 702              	.LBB9:
 185:../5-TempR_LCD_Serial/Me.h ****         *(--str) = '0' + digito;
 703              		.loc 2 185 9 view .LVU165
 704              	.LVL16:
 186:../5-TempR_LCD_Serial/Me.h ****         num /= 10;
 705              		.loc 2 186 9 view .LVU166
 706              	@ ../5-TempR_LCD_Serial/Me.h:185:         int digito = num % 10;
 185:../5-TempR_LCD_Serial/Me.h ****         *(--str) = '0' + digito;
 707              		.loc 2 185 13 is_stmt 0 view .LVU167
 708 01de 90FBF3F1 		sdiv	r1, r0, r3	@ tmp135, num, tmp146
 709 01e2 03FB1100 		mls	r0, r3, r1, r0	@ digito, tmp146, tmp135, num
 710              	.LVL17:
 711              	@ ../5-TempR_LCD_Serial/Me.h:186:         *(--str) = '0' + digito;
 186:../5-TempR_LCD_Serial/Me.h ****         num /= 10;
 712              		.loc 2 186 24 view .LVU168
 713 01e6 3030     		adds	r0, r0, #48	@ tmp141, digito,
 714              	@ ../5-TempR_LCD_Serial/Me.h:186:         *(--str) = '0' + digito;
 186:../5-TempR_LCD_Serial/Me.h ****         num /= 10;
 715              		.loc 2 186 18 view .LVU169
ARM GAS  /tmp/ccIXPZcX.s 			page 20


 716 01e8 02F8010D 		strb	r0, [r2, #-1]!	@ tmp141, MEM[base: str_21, offset: 0B]
 717              	.LVL18:
 187:../5-TempR_LCD_Serial/Me.h ****     }
 718              		.loc 2 187 9 is_stmt 1 view .LVU170
 719              	@ ../5-TempR_LCD_Serial/Me.h:187:         num /= 10;
 187:../5-TempR_LCD_Serial/Me.h ****     }
 720              		.loc 2 187 13 is_stmt 0 view .LVU171
 721 01ec 0846     		mov	r0, r1	@ num, tmp135
 722              	.LVL19:
 187:../5-TempR_LCD_Serial/Me.h ****     }
 723              		.loc 2 187 13 view .LVU172
 724 01ee F4E7     		b	.L41		@
 725              	.LVL20:
 726              	.L43:
 187:../5-TempR_LCD_Serial/Me.h ****     }
 727              		.loc 2 187 13 view .LVU173
 728              	.LBE9:
 729              	.LBE7:
 730              	.LBE6:
 731 01f0 0246     		mov	r2, r0	@ temp, num
 732              	.LBB11:
 733              	.LBB10:
 734              	@ ../5-TempR_LCD_Serial/Me.h:174:     int len = 0;
 174:../5-TempR_LCD_Serial/Me.h ****     int temp = num;
 735              		.loc 2 174 9 view .LVU174
 736 01f2 0023     		movs	r3, #0	@ len,
 737              	@ ../5-TempR_LCD_Serial/Me.h:177:         temp /= 10;
 177:../5-TempR_LCD_Serial/Me.h ****         len++;
 738              		.loc 2 177 14 view .LVU175
 739 01f4 0A24     		movs	r4, #10	@ tmp147,
 740 01f6 EAE7     		b	.L38		@
 741              	.LBE10:
 742              	.LBE11:
 743              		.cfi_endproc
 744              	.LFE41:
 745              		.size	intToStr, .-intToStr
 746              		.global	__aeabi_fcmplt
 747              		.global	__aeabi_f2iz
 748              		.global	__aeabi_i2f
 749              		.global	__aeabi_fsub
 750              		.global	__aeabi_fmul
 751              		.align	1
 752              		.global	floatToString
 753              		.syntax unified
 754              		.thumb
 755              		.thumb_func
 756              		.type	floatToString, %function
 757              	floatToString:
 758              	.LVL21:
 759              	.LFB40:
 136:../5-TempR_LCD_Serial/Me.h ****     // Lida com números negativos
 760              		.loc 2 136 57 is_stmt 1 view -0
 761              		.cfi_startproc
 762              		@ args = 0, pretend = 0, frame = 0
 763              		@ frame_needed = 0, uses_anonymous_args = 0
 138:../5-TempR_LCD_Serial/Me.h ****         num = -num;
 764              		.loc 2 138 5 view .LVU177
ARM GAS  /tmp/ccIXPZcX.s 			page 21


 765              	@ ../5-TempR_LCD_Serial/Me.h:136: void floatToString(float num, char *str, int precision) {
 136:../5-TempR_LCD_Serial/Me.h ****     // Lida com números negativos
 766              		.loc 2 136 57 is_stmt 0 view .LVU178
 767 01f8 2DE9F041 		push	{r4, r5, r6, r7, r8, lr}	@
 768              	.LCFI5:
 769              		.cfi_def_cfa_offset 24
 770              		.cfi_offset 4, -24
 771              		.cfi_offset 5, -20
 772              		.cfi_offset 6, -16
 773              		.cfi_offset 7, -12
 774              		.cfi_offset 8, -8
 775              		.cfi_offset 14, -4
 776              	@ ../5-TempR_LCD_Serial/Me.h:136: void floatToString(float num, char *str, int precision) {
 136:../5-TempR_LCD_Serial/Me.h ****     // Lida com números negativos
 777              		.loc 2 136 57 view .LVU179
 778 01fc 0C46     		mov	r4, r1	@ str, tmp158
 779              	@ ../5-TempR_LCD_Serial/Me.h:138:     if (num < 0) {
 138:../5-TempR_LCD_Serial/Me.h ****         num = -num;
 780              		.loc 2 138 8 view .LVU180
 781 01fe 0021     		movs	r1, #0	@,
 782              	.LVL22:
 783              	@ ../5-TempR_LCD_Serial/Me.h:136: void floatToString(float num, char *str, int precision) {
 136:../5-TempR_LCD_Serial/Me.h ****     // Lida com números negativos
 784              		.loc 2 136 57 view .LVU181
 785 0200 0546     		mov	r5, r0	@ num, tmp157
 786 0202 1646     		mov	r6, r2	@ precision, tmp159
 787              	@ ../5-TempR_LCD_Serial/Me.h:138:     if (num < 0) {
 138:../5-TempR_LCD_Serial/Me.h ****         num = -num;
 788              		.loc 2 138 8 view .LVU182
 789 0204 FFF7FEFF 		bl	__aeabi_fcmplt		@
 790              	.LVL23:
 138:../5-TempR_LCD_Serial/Me.h ****         num = -num;
 791              		.loc 2 138 8 view .LVU183
 792 0208 20B1     		cbz	r0, .L45	@ tmp160,
 139:../5-TempR_LCD_Serial/Me.h ****         *str++ = '-';
 793              		.loc 2 139 9 is_stmt 1 view .LVU184
 794              	@ ../5-TempR_LCD_Serial/Me.h:140:         *str++ = '-';
 140:../5-TempR_LCD_Serial/Me.h ****     }
 795              		.loc 2 140 16 is_stmt 0 view .LVU185
 796 020a 2D23     		movs	r3, #45	@ tmp138,
 797              	@ ../5-TempR_LCD_Serial/Me.h:139:         num = -num;
 139:../5-TempR_LCD_Serial/Me.h ****         *str++ = '-';
 798              		.loc 2 139 13 view .LVU186
 799 020c 05F10045 		add	r5, r5, #-2147483648	@ tmp137, num,
 800              	.LVL24:
 140:../5-TempR_LCD_Serial/Me.h ****     }
 801              		.loc 2 140 9 is_stmt 1 view .LVU187
 802              	@ ../5-TempR_LCD_Serial/Me.h:140:         *str++ = '-';
 140:../5-TempR_LCD_Serial/Me.h ****     }
 803              		.loc 2 140 16 is_stmt 0 view .LVU188
 804 0210 04F8013B 		strb	r3, [r4], #1	@ tmp138, *str_17(D)
 805              	.LVL25:
 806              	.L45:
 144:../5-TempR_LCD_Serial/Me.h ****     intToStr(inteira, str);
 807              		.loc 2 144 5 is_stmt 1 view .LVU189
 808              	@ ../5-TempR_LCD_Serial/Me.h:144:     int inteira = (int)num;
 144:../5-TempR_LCD_Serial/Me.h ****     intToStr(inteira, str);
ARM GAS  /tmp/ccIXPZcX.s 			page 22


 809              		.loc 2 144 9 is_stmt 0 view .LVU190
 810 0214 2846     		mov	r0, r5	@, num
 811 0216 FFF7FEFF 		bl	__aeabi_f2iz		@
 812              	.LVL26:
 813              	@ ../5-TempR_LCD_Serial/Me.h:145:     intToStr(inteira, str);
 145:../5-TempR_LCD_Serial/Me.h ****     while (*str != '\0') {
 814              		.loc 2 145 5 view .LVU191
 815 021a 2146     		mov	r1, r4	@, str
 816              	@ ../5-TempR_LCD_Serial/Me.h:144:     int inteira = (int)num;
 144:../5-TempR_LCD_Serial/Me.h ****     intToStr(inteira, str);
 817              		.loc 2 144 9 view .LVU192
 818 021c 0746     		mov	r7, r0	@ inteira, tmp161
 819              	.LVL27:
 145:../5-TempR_LCD_Serial/Me.h ****     while (*str != '\0') {
 820              		.loc 2 145 5 is_stmt 1 view .LVU193
 821 021e FFF7FEFF 		bl	intToStr		@
 822              	.LVL28:
 146:../5-TempR_LCD_Serial/Me.h ****         str++;
 823              		.loc 2 146 5 view .LVU194
 824              	.L47:
 146:../5-TempR_LCD_Serial/Me.h ****         str++;
 825              		.loc 2 146 11 view .LVU195
 826              	@ ../5-TempR_LCD_Serial/Me.h:146:     while (*str != '\0') {
 146:../5-TempR_LCD_Serial/Me.h ****         str++;
 827              		.loc 2 146 12 is_stmt 0 view .LVU196
 828 0222 2278     		ldrb	r2, [r4]	@ zero_extendqisi2	@ _1, MEM[base: str_10, offset: 0B]
 829 0224 2346     		mov	r3, r4	@ str, str
 830              	@ ../5-TempR_LCD_Serial/Me.h:147:         str++;
 147:../5-TempR_LCD_Serial/Me.h ****     }
 831              		.loc 2 147 12 view .LVU197
 832 0226 0134     		adds	r4, r4, #1	@ str, str,
 833              	.LVL29:
 834              	@ ../5-TempR_LCD_Serial/Me.h:146:     while (*str != '\0') {
 146:../5-TempR_LCD_Serial/Me.h ****         str++;
 835              		.loc 2 146 11 view .LVU198
 836 0228 002A     		cmp	r2, #0	@ _1
 837 022a FAD1     		bne	.L47	@
 151:../5-TempR_LCD_Serial/Me.h **** 
 838              		.loc 2 151 5 is_stmt 1 view .LVU199
 839              	.LVL30:
 840              	@ ../5-TempR_LCD_Serial/Me.h:151:     *str++ = '.';
 151:../5-TempR_LCD_Serial/Me.h **** 
 841              		.loc 2 151 12 is_stmt 0 view .LVU200
 842 022c 2E22     		movs	r2, #46	@ tmp141,
 843              	@ ../5-TempR_LCD_Serial/Me.h:154:     float fracionaria = num - inteira;
 154:../5-TempR_LCD_Serial/Me.h ****     for (int i = 0; i < precision; i++) {
 844              		.loc 2 154 29 view .LVU201
 845 022e 3846     		mov	r0, r7	@, inteira
 846              	@ ../5-TempR_LCD_Serial/Me.h:151:     *str++ = '.';
 151:../5-TempR_LCD_Serial/Me.h **** 
 847              		.loc 2 151 12 view .LVU202
 848 0230 1A70     		strb	r2, [r3]	@ tmp141, *str_20
 154:../5-TempR_LCD_Serial/Me.h ****     for (int i = 0; i < precision; i++) {
 849              		.loc 2 154 5 is_stmt 1 view .LVU203
 850              	@ ../5-TempR_LCD_Serial/Me.h:154:     float fracionaria = num - inteira;
 154:../5-TempR_LCD_Serial/Me.h ****     for (int i = 0; i < precision; i++) {
 851              		.loc 2 154 29 is_stmt 0 view .LVU204
ARM GAS  /tmp/ccIXPZcX.s 			page 23


 852 0232 FFF7FEFF 		bl	__aeabi_i2f		@
 853              	.LVL31:
 854 0236 0146     		mov	r1, r0	@ tmp162,
 855              	@ ../5-TempR_LCD_Serial/Me.h:154:     float fracionaria = num - inteira;
 154:../5-TempR_LCD_Serial/Me.h ****     for (int i = 0; i < precision; i++) {
 856              		.loc 2 154 11 view .LVU205
 857 0238 2846     		mov	r0, r5	@, num
 858 023a FFF7FEFF 		bl	__aeabi_fsub		@
 859              	.LVL32:
 155:../5-TempR_LCD_Serial/Me.h ****         fracionaria *= 10;
 860              		.loc 2 155 5 is_stmt 1 view .LVU206
 861              	.LBB12:
 155:../5-TempR_LCD_Serial/Me.h ****         fracionaria *= 10;
 862              		.loc 2 155 10 view .LVU207
 155:../5-TempR_LCD_Serial/Me.h ****         fracionaria *= 10;
 863              		.loc 2 155 10 is_stmt 0 view .LVU208
 864              	.LBE12:
 865              	@ ../5-TempR_LCD_Serial/Me.h:147:         str++;
 147:../5-TempR_LCD_Serial/Me.h ****     }
 866              		.loc 2 147 12 view .LVU209
 867 023e 2546     		mov	r5, r4	@ str, str
 868              	.LVL33:
 869              	.LBB15:
 870              	.LBB13:
 871              	@ ../5-TempR_LCD_Serial/Me.h:156:         fracionaria *= 10;
 156:../5-TempR_LCD_Serial/Me.h ****         int digito = (int)fracionaria;
 872              		.loc 2 156 21 view .LVU210
 873 0240 DFF83480 		ldr	r8, .L52	@ tmp156,
 874              	.LVL34:
 875              	.L48:
 156:../5-TempR_LCD_Serial/Me.h ****         int digito = (int)fracionaria;
 876              		.loc 2 156 21 view .LVU211
 877              	.LBE13:
 155:../5-TempR_LCD_Serial/Me.h ****         fracionaria *= 10;
 878              		.loc 2 155 21 is_stmt 1 discriminator 1 view .LVU212
 879              	@ ../5-TempR_LCD_Serial/Me.h:155:     for (int i = 0; i < precision; i++) {
 155:../5-TempR_LCD_Serial/Me.h ****         fracionaria *= 10;
 880              		.loc 2 155 5 is_stmt 0 discriminator 1 view .LVU213
 881 0244 2B1B     		subs	r3, r5, r4	@ i, str, str
 882              	.LVL35:
 155:../5-TempR_LCD_Serial/Me.h ****         fracionaria *= 10;
 883              		.loc 2 155 5 discriminator 1 view .LVU214
 884 0246 9E42     		cmp	r6, r3	@ precision, i
 885 0248 05DC     		bgt	.L49		@,
 155:../5-TempR_LCD_Serial/Me.h ****         fracionaria *= 10;
 886              		.loc 2 155 5 discriminator 1 view .LVU215
 887              	.LBE15:
 163:../5-TempR_LCD_Serial/Me.h **** }
 888              		.loc 2 163 5 is_stmt 1 view .LVU216
 889              	@ ../5-TempR_LCD_Serial/Me.h:163:     *str = '\0';
 163:../5-TempR_LCD_Serial/Me.h **** }
 890              		.loc 2 163 10 is_stmt 0 view .LVU217
 891 024a 0023     		movs	r3, #0	@ tmp154,
 892              	.LVL36:
 163:../5-TempR_LCD_Serial/Me.h **** }
 893              		.loc 2 163 10 view .LVU218
 894 024c 26EAE676 		bic	r6, r6, r6, asr #31	@ tmp153, precision
ARM GAS  /tmp/ccIXPZcX.s 			page 24


 895              	.LVL37:
 163:../5-TempR_LCD_Serial/Me.h **** }
 896              		.loc 2 163 10 view .LVU219
 897 0250 A355     		strb	r3, [r4, r6]	@ tmp154, *str_35
 898              	@ ../5-TempR_LCD_Serial/Me.h:164: }
 164:../5-TempR_LCD_Serial/Me.h **** 
 899              		.loc 2 164 1 view .LVU220
 900 0252 BDE8F081 		pop	{r4, r5, r6, r7, r8, pc}	@
 901              	.LVL38:
 902              	.L49:
 903              	.LBB16:
 904              	.LBB14:
 156:../5-TempR_LCD_Serial/Me.h ****         int digito = (int)fracionaria;
 905              		.loc 2 156 9 is_stmt 1 discriminator 3 view .LVU221
 906              	@ ../5-TempR_LCD_Serial/Me.h:156:         fracionaria *= 10;
 156:../5-TempR_LCD_Serial/Me.h ****         int digito = (int)fracionaria;
 907              		.loc 2 156 21 is_stmt 0 discriminator 3 view .LVU222
 908 0256 4146     		mov	r1, r8	@, tmp156
 909 0258 FFF7FEFF 		bl	__aeabi_fmul		@
 910              	.LVL39:
 156:../5-TempR_LCD_Serial/Me.h ****         int digito = (int)fracionaria;
 911              		.loc 2 156 21 discriminator 3 view .LVU223
 912 025c 0746     		mov	r7, r0	@ tmp145, tmp164
 913              	.LVL40:
 157:../5-TempR_LCD_Serial/Me.h ****         *str++ = '0' + digito;
 914              		.loc 2 157 9 is_stmt 1 discriminator 3 view .LVU224
 915              	@ ../5-TempR_LCD_Serial/Me.h:157:         int digito = (int)fracionaria;
 157:../5-TempR_LCD_Serial/Me.h ****         *str++ = '0' + digito;
 916              		.loc 2 157 13 is_stmt 0 discriminator 3 view .LVU225
 917 025e FFF7FEFF 		bl	__aeabi_f2iz		@
 918              	.LVL41:
 158:../5-TempR_LCD_Serial/Me.h ****         fracionaria -= digito;
 919              		.loc 2 158 9 is_stmt 1 discriminator 3 view .LVU226
 920              	@ ../5-TempR_LCD_Serial/Me.h:158:         *str++ = '0' + digito;
 158:../5-TempR_LCD_Serial/Me.h ****         fracionaria -= digito;
 921              		.loc 2 158 22 is_stmt 0 discriminator 3 view .LVU227
 922 0262 00F13003 		add	r3, r0, #48	@ tmp148, tmp165,
 923              	@ ../5-TempR_LCD_Serial/Me.h:158:         *str++ = '0' + digito;
 158:../5-TempR_LCD_Serial/Me.h ****         fracionaria -= digito;
 924              		.loc 2 158 16 discriminator 3 view .LVU228
 925 0266 05F8013B 		strb	r3, [r5], #1	@ tmp148, MEM[base: str_31, offset: 4294967295B]
 926              	.LVL42:
 159:../5-TempR_LCD_Serial/Me.h ****     }
 927              		.loc 2 159 9 is_stmt 1 discriminator 3 view .LVU229
 928              	@ ../5-TempR_LCD_Serial/Me.h:159:         fracionaria -= digito;
 159:../5-TempR_LCD_Serial/Me.h ****     }
 929              		.loc 2 159 21 is_stmt 0 discriminator 3 view .LVU230
 930 026a FFF7FEFF 		bl	__aeabi_i2f		@
 931              	.LVL43:
 159:../5-TempR_LCD_Serial/Me.h ****     }
 932              		.loc 2 159 21 discriminator 3 view .LVU231
 933 026e 0146     		mov	r1, r0	@ tmp166,
 934 0270 3846     		mov	r0, r7	@, tmp145
 935 0272 FFF7FEFF 		bl	__aeabi_fsub		@
 936              	.LVL44:
 937              	.LBE14:
 155:../5-TempR_LCD_Serial/Me.h ****         fracionaria *= 10;
ARM GAS  /tmp/ccIXPZcX.s 			page 25


 938              		.loc 2 155 36 is_stmt 1 discriminator 3 view .LVU232
 155:../5-TempR_LCD_Serial/Me.h ****         fracionaria *= 10;
 939              		.loc 2 155 36 is_stmt 0 discriminator 3 view .LVU233
 940 0276 E5E7     		b	.L48		@
 941              	.L53:
 942              		.align	2
 943              	.L52:
 944 0278 00002041 		.word	1092616192
 945              	.LBE16:
 946              		.cfi_endproc
 947              	.LFE40:
 948              		.size	floatToString, .-floatToString
 949              		.align	1
 950              		.global	USART_init
 951              		.syntax unified
 952              		.thumb
 953              		.thumb_func
 954              		.type	USART_init, %function
 955              	USART_init:
 956              	.LFB42:
 957              		.file 3 "../5-TempR_LCD_Serial/Serial.h"
   1:../5-TempR_LCD_Serial/Serial.h **** // #ifndef	SERIAL_K
   2:../5-TempR_LCD_Serial/Serial.h **** // #define 	SERIAL_K
   3:../5-TempR_LCD_Serial/Serial.h **** 
   4:../5-TempR_LCD_Serial/Serial.h **** void USARTSend(char *pucBuffer);
   5:../5-TempR_LCD_Serial/Serial.h **** void USART_init(void);
   6:../5-TempR_LCD_Serial/Serial.h **** 
   7:../5-TempR_LCD_Serial/Serial.h **** void USART_init(void) {
 958              		.loc 3 7 23 is_stmt 1 view -0
 959              		.cfi_startproc
 960              		@ args = 0, pretend = 0, frame = 24
 961              		@ frame_needed = 0, uses_anonymous_args = 0
   8:../5-TempR_LCD_Serial/Serial.h ****    /* Enable USART1 and GPIOA clock */
   9:../5-TempR_LCD_Serial/Serial.h ****    RCC_APB2PeriphClockCmd(RCC_APB2Periph_USART1 | RCC_APB2Periph_GPIOA, ENABLE);
 962              		.loc 3 9 4 view .LVU235
 963              	@ ../5-TempR_LCD_Serial/Serial.h:7: void USART_init(void) {
   7:../5-TempR_LCD_Serial/Serial.h ****    /* Enable USART1 and GPIOA clock */
 964              		.loc 3 7 23 is_stmt 0 view .LVU236
 965 027c 10B5     		push	{r4, lr}	@
 966              	.LCFI6:
 967              		.cfi_def_cfa_offset 8
 968              		.cfi_offset 4, -8
 969              		.cfi_offset 14, -4
 970              	@ ../5-TempR_LCD_Serial/Serial.h:9:    RCC_APB2PeriphClockCmd(RCC_APB2Periph_USART1 | RCC_APB2Perip
 971              		.loc 3 9 4 view .LVU237
 972 027e 0121     		movs	r1, #1	@,
 973              	@ ../5-TempR_LCD_Serial/Serial.h:7: void USART_init(void) {
   7:../5-TempR_LCD_Serial/Serial.h ****    /* Enable USART1 and GPIOA clock */
 974              		.loc 3 7 23 view .LVU238
 975 0280 86B0     		sub	sp, sp, #24	@,,
 976              	.LCFI7:
 977              		.cfi_def_cfa_offset 32
 978              	@ ../5-TempR_LCD_Serial/Serial.h:9:    RCC_APB2PeriphClockCmd(RCC_APB2Periph_USART1 | RCC_APB2Perip
 979              		.loc 3 9 4 view .LVU239
 980 0282 44F20400 		movw	r0, #16388	@,
 981 0286 FFF7FEFF 		bl	RCC_APB2PeriphClockCmd		@
 982              	.LVL45:
ARM GAS  /tmp/ccIXPZcX.s 			page 26


  10:../5-TempR_LCD_Serial/Serial.h **** 
  11:../5-TempR_LCD_Serial/Serial.h ****    /* Configure the GPIOs */
  12:../5-TempR_LCD_Serial/Serial.h ****    GPIO_InitTypeDef GPIO_InitStructure;
 983              		.loc 3 12 4 is_stmt 1 view .LVU240
  13:../5-TempR_LCD_Serial/Serial.h **** 
  14:../5-TempR_LCD_Serial/Serial.h ****    /* Configure USART1 Tx (PA.09) as alternate function push-pull */
  15:../5-TempR_LCD_Serial/Serial.h ****    GPIO_InitStructure.GPIO_Pin = GPIO_Pin_9;
 984              		.loc 3 15 4 view .LVU241
  16:../5-TempR_LCD_Serial/Serial.h ****    GPIO_InitStructure.GPIO_Mode = GPIO_Mode_AF_PP;
 985              		.loc 3 16 4 view .LVU242
  17:../5-TempR_LCD_Serial/Serial.h ****    GPIO_InitStructure.GPIO_Speed = GPIO_Speed_50MHz;
 986              		.loc 3 17 4 view .LVU243
 987              	@ ../5-TempR_LCD_Serial/Serial.h:15:    GPIO_InitStructure.GPIO_Pin = GPIO_Pin_9;
  15:../5-TempR_LCD_Serial/Serial.h ****    GPIO_InitStructure.GPIO_Mode = GPIO_Mode_AF_PP;
 988              		.loc 3 15 32 is_stmt 0 view .LVU244
 989 028a 4FF40073 		mov	r3, #512	@ tmp114,
 990 028e ADF80430 		strh	r3, [sp, #4]	@ movhi	@ tmp114, GPIO_InitStructure.GPIO_Pin
 991              	@ ../5-TempR_LCD_Serial/Serial.h:17:    GPIO_InitStructure.GPIO_Speed = GPIO_Speed_50MHz;
 992              		.loc 3 17 34 view .LVU245
 993 0292 41F60303 		movw	r3, #6147	@ tmp116,
 994              	@ ../5-TempR_LCD_Serial/Serial.h:18:    GPIO_Init(GPIOA, &GPIO_InitStructure);
  18:../5-TempR_LCD_Serial/Serial.h ****    GPIO_Init(GPIOA, &GPIO_InitStructure);
 995              		.loc 3 18 4 view .LVU246
 996 0296 144C     		ldr	r4, .L55	@ tmp118,
 997 0298 01A9     		add	r1, sp, #4	@ tmp134,,
 998 029a 2046     		mov	r0, r4	@, tmp118
 999              	@ ../5-TempR_LCD_Serial/Serial.h:17:    GPIO_InitStructure.GPIO_Speed = GPIO_Speed_50MHz;
  17:../5-TempR_LCD_Serial/Serial.h ****    GPIO_InitStructure.GPIO_Speed = GPIO_Speed_50MHz;
 1000              		.loc 3 17 34 view .LVU247
 1001 029c ADF80630 		strh	r3, [sp, #6]	@ movhi	@ tmp116, MEM <unsigned short> [(void *)&GPIO_InitStructure + 2B]
 1002              		.loc 3 18 4 is_stmt 1 view .LVU248
 1003 02a0 FFF7FEFF 		bl	GPIO_Init		@
 1004              	.LVL46:
  19:../5-TempR_LCD_Serial/Serial.h **** 
  20:../5-TempR_LCD_Serial/Serial.h ****    /* Configure USART1 Rx (PA.10) as input floating */
  21:../5-TempR_LCD_Serial/Serial.h ****    GPIO_InitStructure.GPIO_Pin = GPIO_Pin_10;
 1005              		.loc 3 21 4 view .LVU249
 1006              	@ ../5-TempR_LCD_Serial/Serial.h:21:    GPIO_InitStructure.GPIO_Pin = GPIO_Pin_10;
 1007              		.loc 3 21 32 is_stmt 0 view .LVU250
 1008 02a4 4FF48063 		mov	r3, #1024	@ tmp120,
 1009 02a8 ADF80430 		strh	r3, [sp, #4]	@ movhi	@ tmp120, GPIO_InitStructure.GPIO_Pin
  22:../5-TempR_LCD_Serial/Serial.h ****    GPIO_InitStructure.GPIO_Mode = GPIO_Mode_IN_FLOATING;
 1010              		.loc 3 22 4 is_stmt 1 view .LVU251
 1011              	@ ../5-TempR_LCD_Serial/Serial.h:22:    GPIO_InitStructure.GPIO_Mode = GPIO_Mode_IN_FLOATING;
 1012              		.loc 3 22 33 is_stmt 0 view .LVU252
 1013 02ac 0423     		movs	r3, #4	@ tmp121,
 1014              	@ ../5-TempR_LCD_Serial/Serial.h:23:    GPIO_Init(GPIOA, &GPIO_InitStructure);
  23:../5-TempR_LCD_Serial/Serial.h ****    GPIO_Init(GPIOA, &GPIO_InitStructure);
 1015              		.loc 3 23 4 view .LVU253
 1016 02ae 2046     		mov	r0, r4	@, tmp118
 1017 02b0 0DEB0301 		add	r1, sp, r3	@ tmp135,,
 1018              	@ ../5-TempR_LCD_Serial/Serial.h:22:    GPIO_InitStructure.GPIO_Mode = GPIO_Mode_IN_FLOATING;
  22:../5-TempR_LCD_Serial/Serial.h ****    GPIO_InitStructure.GPIO_Mode = GPIO_Mode_IN_FLOATING;
 1019              		.loc 3 22 33 view .LVU254
 1020 02b4 8DF80730 		strb	r3, [sp, #7]	@ tmp121, GPIO_InitStructure.GPIO_Mode
 1021              		.loc 3 23 4 is_stmt 1 view .LVU255
 1022 02b8 FFF7FEFF 		bl	GPIO_Init		@
ARM GAS  /tmp/ccIXPZcX.s 			page 27


 1023              	.LVL47:
  24:../5-TempR_LCD_Serial/Serial.h **** 
  25:../5-TempR_LCD_Serial/Serial.h ****    /* Configure the USART1 */
  26:../5-TempR_LCD_Serial/Serial.h ****    USART_InitTypeDef USART_InitStructure;
 1024              		.loc 3 26 4 view .LVU256
  27:../5-TempR_LCD_Serial/Serial.h ****    USART_InitStructure.USART_BaudRate = 115200;
 1025              		.loc 3 27 4 view .LVU257
  28:../5-TempR_LCD_Serial/Serial.h ****    USART_InitStructure.USART_WordLength = USART_WordLength_8b;
 1026              		.loc 3 28 4 view .LVU258
  29:../5-TempR_LCD_Serial/Serial.h ****    USART_InitStructure.USART_StopBits = USART_StopBits_1;
 1027              		.loc 3 29 4 view .LVU259
  30:../5-TempR_LCD_Serial/Serial.h ****    USART_InitStructure.USART_Parity = USART_Parity_No;
 1028              		.loc 3 30 4 view .LVU260
  31:../5-TempR_LCD_Serial/Serial.h ****    USART_InitStructure.USART_HardwareFlowControl = USART_HardwareFlowControl_None;
 1029              		.loc 3 31 4 view .LVU261
  32:../5-TempR_LCD_Serial/Serial.h ****    USART_InitStructure.USART_Mode = USART_Mode_Rx | USART_Mode_Tx;
 1030              		.loc 3 32 4 view .LVU262
 1031              	@ ../5-TempR_LCD_Serial/Serial.h:28:    USART_InitStructure.USART_WordLength = USART_WordLength_8b;
  28:../5-TempR_LCD_Serial/Serial.h ****    USART_InitStructure.USART_StopBits = USART_StopBits_1;
 1032              		.loc 3 28 41 is_stmt 0 view .LVU263
 1033 02bc 0023     		movs	r3, #0	@ tmp126,
 1034 02be 4FF4E132 		mov	r2, #115200	@,
 1035 02c2 CDE90223 		strd	r2, r3, [sp, #8]	@, tmp126,,
 1036              	@ ../5-TempR_LCD_Serial/Serial.h:30:    USART_InitStructure.USART_Parity = USART_Parity_No;
  30:../5-TempR_LCD_Serial/Serial.h ****    USART_InitStructure.USART_HardwareFlowControl = USART_HardwareFlowControl_None;
 1037              		.loc 3 30 37 view .LVU264
 1038 02c6 4FF44022 		mov	r2, #786432	@ tmp127,
 1039              	@ ../5-TempR_LCD_Serial/Serial.h:34:    USART_Init(USART1, &USART_InitStructure);
  33:../5-TempR_LCD_Serial/Serial.h **** 
  34:../5-TempR_LCD_Serial/Serial.h ****    USART_Init(USART1, &USART_InitStructure);
 1040              		.loc 3 34 4 view .LVU265
 1041 02ca 04F54054 		add	r4, r4, #12288	@ tmp131, tmp131,
 1042 02ce 2046     		mov	r0, r4	@, tmp131
 1043 02d0 02A9     		add	r1, sp, #8	@,,
 1044              	@ ../5-TempR_LCD_Serial/Serial.h:30:    USART_InitStructure.USART_Parity = USART_Parity_No;
  30:../5-TempR_LCD_Serial/Serial.h ****    USART_InitStructure.USART_HardwareFlowControl = USART_HardwareFlowControl_None;
 1045              		.loc 3 30 37 view .LVU266
 1046 02d2 0492     		str	r2, [sp, #16]	@ tmp127, MEM <unsigned int> [(short unsigned int *)&USART_InitStructure + 8B]
 1047              	@ ../5-TempR_LCD_Serial/Serial.h:31:    USART_InitStructure.USART_HardwareFlowControl = USART_Hardw
  31:../5-TempR_LCD_Serial/Serial.h ****    USART_InitStructure.USART_Mode = USART_Mode_Rx | USART_Mode_Tx;
 1048              		.loc 3 31 50 view .LVU267
 1049 02d4 ADF81430 		strh	r3, [sp, #20]	@ movhi	@ tmp126, USART_InitStructure.USART_HardwareFlowControl
 1050              		.loc 3 34 4 is_stmt 1 view .LVU268
 1051 02d8 FFF7FEFF 		bl	USART_Init		@
 1052              	.LVL48:
  35:../5-TempR_LCD_Serial/Serial.h **** 
  36:../5-TempR_LCD_Serial/Serial.h ****    /* Enable USART1 */
  37:../5-TempR_LCD_Serial/Serial.h ****    USART_Cmd(USART1, ENABLE);
 1053              		.loc 3 37 4 view .LVU269
 1054 02dc 0121     		movs	r1, #1	@,
 1055 02de 2046     		mov	r0, r4	@, tmp131
 1056 02e0 FFF7FEFF 		bl	USART_Cmd		@
 1057              	.LVL49:
 1058              	@ ../5-TempR_LCD_Serial/Serial.h:38: }
  38:../5-TempR_LCD_Serial/Serial.h **** }
 1059              		.loc 3 38 1 is_stmt 0 view .LVU270
 1060 02e4 06B0     		add	sp, sp, #24	@,,
ARM GAS  /tmp/ccIXPZcX.s 			page 28


 1061              	.LCFI8:
 1062              		.cfi_def_cfa_offset 8
 1063              		@ sp needed	@
 1064 02e6 10BD     		pop	{r4, pc}	@
 1065              	.L56:
 1066              		.align	2
 1067              	.L55:
 1068 02e8 00080140 		.word	1073809408
 1069              		.cfi_endproc
 1070              	.LFE42:
 1071              		.size	USART_init, .-USART_init
 1072              		.align	1
 1073              		.global	USARTSend
 1074              		.syntax unified
 1075              		.thumb
 1076              		.thumb_func
 1077              		.type	USARTSend, %function
 1078              	USARTSend:
 1079              	.LVL50:
 1080              	.LFB43:
  39:../5-TempR_LCD_Serial/Serial.h **** 
  40:../5-TempR_LCD_Serial/Serial.h **** void USARTSend(char *pucBuffer) {
 1081              		.loc 3 40 33 is_stmt 1 view -0
 1082              		.cfi_startproc
 1083              		@ args = 0, pretend = 0, frame = 0
 1084              		@ frame_needed = 0, uses_anonymous_args = 0
  41:../5-TempR_LCD_Serial/Serial.h ****     while (*pucBuffer)
 1085              		.loc 3 41 5 view .LVU272
 1086              	@ ../5-TempR_LCD_Serial/Serial.h:40: void USARTSend(char *pucBuffer) {
  40:../5-TempR_LCD_Serial/Serial.h ****     while (*pucBuffer)
 1087              		.loc 3 40 33 is_stmt 0 view .LVU273
 1088 02ec 38B5     		push	{r3, r4, r5, lr}	@
 1089              	.LCFI9:
 1090              		.cfi_def_cfa_offset 16
 1091              		.cfi_offset 3, -16
 1092              		.cfi_offset 4, -12
 1093              		.cfi_offset 5, -8
 1094              		.cfi_offset 14, -4
 1095              	@ ../5-TempR_LCD_Serial/Serial.h:43:         USART_SendData(USART1, *pucBuffer++);
  42:../5-TempR_LCD_Serial/Serial.h ****     {
  43:../5-TempR_LCD_Serial/Serial.h ****         USART_SendData(USART1, *pucBuffer++);
 1096              		.loc 3 43 9 view .LVU274
 1097 02ee 084D     		ldr	r5, .L63	@ tmp126,
 1098 02f0 441E     		subs	r4, r0, #1	@ ivtmp.99, tmp128,
 1099              	.LVL51:
 1100              	.L58:
  41:../5-TempR_LCD_Serial/Serial.h ****     {
 1101              		.loc 3 41 11 is_stmt 1 view .LVU275
 1102              	@ ../5-TempR_LCD_Serial/Serial.h:41:     while (*pucBuffer)
  41:../5-TempR_LCD_Serial/Serial.h ****     {
 1103              		.loc 3 41 12 is_stmt 0 view .LVU276
 1104 02f2 14F8011F 		ldrb	r1, [r4, #1]!	@ zero_extendqisi2	@ _3, MEM[base: _16, offset: 0B]
 1105              	.LVL52:
 1106              	@ ../5-TempR_LCD_Serial/Serial.h:41:     while (*pucBuffer)
  41:../5-TempR_LCD_Serial/Serial.h ****     {
 1107              		.loc 3 41 11 view .LVU277
 1108 02f6 01B9     		cbnz	r1, .L60	@ _3,
ARM GAS  /tmp/ccIXPZcX.s 			page 29


 1109              	@ ../5-TempR_LCD_Serial/Serial.h:48: }
  44:../5-TempR_LCD_Serial/Serial.h ****         while(USART_GetFlagStatus(USART1, USART_FLAG_TC) == RESET)
  45:../5-TempR_LCD_Serial/Serial.h ****         {
  46:../5-TempR_LCD_Serial/Serial.h ****         }
  47:../5-TempR_LCD_Serial/Serial.h ****     }
  48:../5-TempR_LCD_Serial/Serial.h **** }
 1110              		.loc 3 48 1 view .LVU278
 1111 02f8 38BD     		pop	{r3, r4, r5, pc}	@
 1112              	.LVL53:
 1113              	.L60:
  43:../5-TempR_LCD_Serial/Serial.h ****         while(USART_GetFlagStatus(USART1, USART_FLAG_TC) == RESET)
 1114              		.loc 3 43 9 is_stmt 1 view .LVU279
  43:../5-TempR_LCD_Serial/Serial.h ****         while(USART_GetFlagStatus(USART1, USART_FLAG_TC) == RESET)
 1115              		.loc 3 43 9 is_stmt 0 view .LVU280
 1116 02fa 2846     		mov	r0, r5	@, tmp126
 1117 02fc FFF7FEFF 		bl	USART_SendData		@
 1118              	.LVL54:
  44:../5-TempR_LCD_Serial/Serial.h ****         while(USART_GetFlagStatus(USART1, USART_FLAG_TC) == RESET)
 1119              		.loc 3 44 9 is_stmt 1 view .LVU281
 1120              	.L59:
  46:../5-TempR_LCD_Serial/Serial.h ****     }
 1121              		.loc 3 46 9 discriminator 1 view .LVU282
  44:../5-TempR_LCD_Serial/Serial.h ****         while(USART_GetFlagStatus(USART1, USART_FLAG_TC) == RESET)
 1122              		.loc 3 44 14 discriminator 1 view .LVU283
 1123              	@ ../5-TempR_LCD_Serial/Serial.h:44:         while(USART_GetFlagStatus(USART1, USART_FLAG_TC) == RE
  44:../5-TempR_LCD_Serial/Serial.h ****         while(USART_GetFlagStatus(USART1, USART_FLAG_TC) == RESET)
 1124              		.loc 3 44 15 is_stmt 0 discriminator 1 view .LVU284
 1125 0300 4021     		movs	r1, #64	@,
 1126 0302 2846     		mov	r0, r5	@, tmp126
 1127 0304 FFF7FEFF 		bl	USART_GetFlagStatus		@
 1128              	.LVL55:
 1129              	@ ../5-TempR_LCD_Serial/Serial.h:44:         while(USART_GetFlagStatus(USART1, USART_FLAG_TC) == RE
  44:../5-TempR_LCD_Serial/Serial.h ****         while(USART_GetFlagStatus(USART1, USART_FLAG_TC) == RESET)
 1130              		.loc 3 44 14 discriminator 1 view .LVU285
 1131 0308 0028     		cmp	r0, #0	@ tmp129
 1132 030a F9D0     		beq	.L59	@
 1133 030c F1E7     		b	.L58		@
 1134              	.L64:
 1135 030e 00BF     		.align	2
 1136              	.L63:
 1137 0310 00380140 		.word	1073821696
 1138              		.cfi_endproc
 1139              	.LFE43:
 1140              		.size	USARTSend, .-USARTSend
 1141              		.align	1
 1142              		.global	ADC9_Configuration
 1143              		.syntax unified
 1144              		.thumb
 1145              		.thumb_func
 1146              		.type	ADC9_Configuration, %function
 1147              	ADC9_Configuration:
 1148              	.LFB44:
 1149              		.file 4 "../5-TempR_LCD_Serial/adc.h"
   1:../5-TempR_LCD_Serial/adc.h **** 
   2:../5-TempR_LCD_Serial/adc.h **** void ADC9_Configuration()
   3:../5-TempR_LCD_Serial/adc.h **** {
 1150              		.loc 4 3 1 is_stmt 1 view -0
ARM GAS  /tmp/ccIXPZcX.s 			page 30


 1151              		.cfi_startproc
 1152              		@ args = 0, pretend = 0, frame = 0
 1153              		@ frame_needed = 0, uses_anonymous_args = 0
 1154              		@ link register save eliminated.
   4:../5-TempR_LCD_Serial/adc.h ****     // Habilitar o clock do ADC9
   5:../5-TempR_LCD_Serial/adc.h ****     RCC->APB2ENR |= RCC_APB2ENR_ADC2EN;
 1155              		.loc 4 5 5 view .LVU287
 1156              	@ ../5-TempR_LCD_Serial/adc.h:5:     RCC->APB2ENR |= RCC_APB2ENR_ADC2EN;
 1157              		.loc 4 5 18 is_stmt 0 view .LVU288
 1158 0314 174B     		ldr	r3, .L68	@ tmp135,
 1159 0316 9A69     		ldr	r2, [r3, #24]	@ _1, MEM[(struct RCC_TypeDef *)1073876992B].APB2ENR
 1160 0318 42F48062 		orr	r2, r2, #1024	@ _2, _1,
 1161 031c 9A61     		str	r2, [r3, #24]	@ _2, MEM[(struct RCC_TypeDef *)1073876992B].APB2ENR
   6:../5-TempR_LCD_Serial/adc.h ****     RCC->APB2ENR |= (1<<3);
 1162              		.loc 4 6 5 is_stmt 1 view .LVU289
 1163              	@ ../5-TempR_LCD_Serial/adc.h:6:     RCC->APB2ENR |= (1<<3);
 1164              		.loc 4 6 18 is_stmt 0 view .LVU290
 1165 031e 9A69     		ldr	r2, [r3, #24]	@ _3, MEM[(struct RCC_TypeDef *)1073876992B].APB2ENR
 1166 0320 42F00802 		orr	r2, r2, #8	@ _4, _3,
 1167 0324 9A61     		str	r2, [r3, #24]	@ _4, MEM[(struct RCC_TypeDef *)1073876992B].APB2ENR
   7:../5-TempR_LCD_Serial/adc.h **** 
   8:../5-TempR_LCD_Serial/adc.h ****     // Configurar o pino PB1 como entrada analógica
   9:../5-TempR_LCD_Serial/adc.h ****     GPIOB->CRL &= ~(GPIO_CRL_MODE1 | GPIO_CRL_CNF1);
 1168              		.loc 4 9 5 is_stmt 1 view .LVU291
 1169              	@ ../5-TempR_LCD_Serial/adc.h:9:     GPIOB->CRL &= ~(GPIO_CRL_MODE1 | GPIO_CRL_CNF1);
 1170              		.loc 4 9 16 is_stmt 0 view .LVU292
 1171 0326 144A     		ldr	r2, .L68+4	@ tmp139,
 1172 0328 1368     		ldr	r3, [r2]	@ _5, MEM[(struct GPIO_TypeDef *)1073810432B].CRL
 1173 032a 23F0F003 		bic	r3, r3, #240	@ _6, _5,
 1174 032e 1360     		str	r3, [r2]	@ _6, MEM[(struct GPIO_TypeDef *)1073810432B].CRL
  10:../5-TempR_LCD_Serial/adc.h ****     // GPIOB->CRL |= GPIO_CRL_CNF1_0;
  11:../5-TempR_LCD_Serial/adc.h **** 
  12:../5-TempR_LCD_Serial/adc.h ****     // Configurar as seguintes opções para o ADC9:
  13:../5-TempR_LCD_Serial/adc.h ****     // - Modo de operação: modo independente
  14:../5-TempR_LCD_Serial/adc.h ****     // - Modo de conversão: Contínua
  15:../5-TempR_LCD_Serial/adc.h ****     // - Resolução: 12 bits
  16:../5-TempR_LCD_Serial/adc.h ****     // - Fator de divisão do clock: 4 (seleciona um clock ADC de 14 MHz)
  17:../5-TempR_LCD_Serial/adc.h ****     ADC2->CR1 &= ~(ADC_CR1_DISCEN | ADC_CR1_SCAN);
 1175              		.loc 4 17 5 is_stmt 1 view .LVU293
 1176              	@ ../5-TempR_LCD_Serial/adc.h:17:     ADC2->CR1 &= ~(ADC_CR1_DISCEN | ADC_CR1_SCAN);
 1177              		.loc 4 17 15 is_stmt 0 view .LVU294
 1178 0330 124B     		ldr	r3, .L68+8	@ tmp141,
 1179 0332 5A68     		ldr	r2, [r3, #4]	@ _7, MEM[(struct ADC_TypeDef *)1073817600B].CR1
 1180 0334 22F41062 		bic	r2, r2, #2304	@ _8, _7,
 1181 0338 5A60     		str	r2, [r3, #4]	@ _8, MEM[(struct ADC_TypeDef *)1073817600B].CR1
  18:../5-TempR_LCD_Serial/adc.h ****     ADC2->CR1 |= ADC_CR1_EOCIE;
 1182              		.loc 4 18 5 is_stmt 1 view .LVU295
 1183              	@ ../5-TempR_LCD_Serial/adc.h:18:     ADC2->CR1 |= ADC_CR1_EOCIE;
 1184              		.loc 4 18 15 is_stmt 0 view .LVU296
 1185 033a 5A68     		ldr	r2, [r3, #4]	@ _9, MEM[(struct ADC_TypeDef *)1073817600B].CR1
 1186 033c 42F02002 		orr	r2, r2, #32	@ _10, _9,
 1187 0340 5A60     		str	r2, [r3, #4]	@ _10, MEM[(struct ADC_TypeDef *)1073817600B].CR1
  19:../5-TempR_LCD_Serial/adc.h ****     ADC2->CR2 &= ~(ADC_CR2_CONT | ADC_CR2_ALIGN | ADC_CR2_EXTSEL | ADC_CR2_EXTTRIG);
 1188              		.loc 4 19 5 is_stmt 1 view .LVU297
 1189              	@ ../5-TempR_LCD_Serial/adc.h:19:     ADC2->CR2 &= ~(ADC_CR2_CONT | ADC_CR2_ALIGN | ADC_CR2_EXTSEL 
 1190              		.loc 4 19 15 is_stmt 0 view .LVU298
 1191 0342 9968     		ldr	r1, [r3, #8]	@ _11, MEM[(struct ADC_TypeDef *)1073817600B].CR2
ARM GAS  /tmp/ccIXPZcX.s 			page 31


 1192 0344 0E4A     		ldr	r2, .L68+12	@ _12,
 1193 0346 0A40     		ands	r2, r2, r1	@, _12, _12, _11
 1194 0348 9A60     		str	r2, [r3, #8]	@ _12, MEM[(struct ADC_TypeDef *)1073817600B].CR2
  20:../5-TempR_LCD_Serial/adc.h **** 
  21:../5-TempR_LCD_Serial/adc.h ****     ADC2->CR2 |= ADC_CR2_ADON | ADC_CR2_CONT | ADC_CR2_RSTCAL;
 1195              		.loc 4 21 5 is_stmt 1 view .LVU299
 1196              	@ ../5-TempR_LCD_Serial/adc.h:21:     ADC2->CR2 |= ADC_CR2_ADON | ADC_CR2_CONT | ADC_CR2_RSTCAL;
 1197              		.loc 4 21 15 is_stmt 0 view .LVU300
 1198 034a 9A68     		ldr	r2, [r3, #8]	@ _13, MEM[(struct ADC_TypeDef *)1073817600B].CR2
 1199 034c 42F00B02 		orr	r2, r2, #11	@ _14, _13,
 1200 0350 9A60     		str	r2, [r3, #8]	@ _14, MEM[(struct ADC_TypeDef *)1073817600B].CR2
  22:../5-TempR_LCD_Serial/adc.h **** 
  23:../5-TempR_LCD_Serial/adc.h ****     ADC2->SMPR2 |= ADC_SMPR2_SMP9_0 | ADC_SMPR2_SMP9_1;
 1201              		.loc 4 23 5 is_stmt 1 view .LVU301
 1202              	@ ../5-TempR_LCD_Serial/adc.h:23:     ADC2->SMPR2 |= ADC_SMPR2_SMP9_0 | ADC_SMPR2_SMP9_1;
 1203              		.loc 4 23 17 is_stmt 0 view .LVU302
 1204 0352 1A69     		ldr	r2, [r3, #16]	@ _15, MEM[(struct ADC_TypeDef *)1073817600B].SMPR2
 1205 0354 42F0C052 		orr	r2, r2, #402653184	@ _16, _15,
 1206 0358 1A61     		str	r2, [r3, #16]	@ _16, MEM[(struct ADC_TypeDef *)1073817600B].SMPR2
  24:../5-TempR_LCD_Serial/adc.h ****     ADC2->SQR3 |= 9;
 1207              		.loc 4 24 5 is_stmt 1 view .LVU303
 1208              	@ ../5-TempR_LCD_Serial/adc.h:24:     ADC2->SQR3 |= 9;
 1209              		.loc 4 24 16 is_stmt 0 view .LVU304
 1210 035a 5A6B     		ldr	r2, [r3, #52]	@ _17, MEM[(struct ADC_TypeDef *)1073817600B].SQR3
 1211 035c 42F00902 		orr	r2, r2, #9	@ _18, _17,
 1212 0360 5A63     		str	r2, [r3, #52]	@ _18, MEM[(struct ADC_TypeDef *)1073817600B].SQR3
  25:../5-TempR_LCD_Serial/adc.h **** 
  26:../5-TempR_LCD_Serial/adc.h **** 	while(ADC2->CR2 & ADC_CR2_RSTCAL);
 1213              		.loc 4 26 2 is_stmt 1 view .LVU305
 1214              	.L66:
 1215              		.loc 4 26 35 discriminator 1 view .LVU306
 1216              		.loc 4 26 7 discriminator 1 view .LVU307
 1217              	@ ../5-TempR_LCD_Serial/adc.h:26: 	while(ADC2->CR2 & ADC_CR2_RSTCAL);
 1218              		.loc 4 26 12 is_stmt 0 discriminator 1 view .LVU308
 1219 0362 9A68     		ldr	r2, [r3, #8]	@ _19, MEM[(struct ADC_TypeDef *)1073817600B].CR2
 1220              	@ ../5-TempR_LCD_Serial/adc.h:26: 	while(ADC2->CR2 & ADC_CR2_RSTCAL);
 1221              		.loc 4 26 7 discriminator 1 view .LVU309
 1222 0364 1207     		lsls	r2, r2, #28	@, _19,
 1223 0366 FCD4     		bmi	.L66		@,
  27:../5-TempR_LCD_Serial/adc.h **** 
  28:../5-TempR_LCD_Serial/adc.h ****     // Habilitar o ADC9
  29:../5-TempR_LCD_Serial/adc.h ****     ADC2->CR2 |= ADC_CR2_ADON;
 1224              		.loc 4 29 5 is_stmt 1 view .LVU310
 1225              	@ ../5-TempR_LCD_Serial/adc.h:29:     ADC2->CR2 |= ADC_CR2_ADON;
 1226              		.loc 4 29 15 is_stmt 0 view .LVU311
 1227 0368 9A68     		ldr	r2, [r3, #8]	@ _21, MEM[(struct ADC_TypeDef *)1073817600B].CR2
 1228 036a 42F00102 		orr	r2, r2, #1	@ _22, _21,
 1229 036e 9A60     		str	r2, [r3, #8]	@ _22, MEM[(struct ADC_TypeDef *)1073817600B].CR2
 1230              	@ ../5-TempR_LCD_Serial/adc.h:30: }
  30:../5-TempR_LCD_Serial/adc.h **** }
 1231              		.loc 4 30 1 view .LVU312
 1232 0370 7047     		bx	lr	@
 1233              	.L69:
 1234 0372 00BF     		.align	2
 1235              	.L68:
 1236 0374 00100240 		.word	1073876992
 1237 0378 000C0140 		.word	1073810432
ARM GAS  /tmp/ccIXPZcX.s 			page 32


 1238 037c 00280140 		.word	1073817600
 1239 0380 FDF7E1FF 		.word	-1968131
 1240              		.cfi_endproc
 1241              	.LFE44:
 1242              		.size	ADC9_Configuration, .-ADC9_Configuration
 1243              		.align	1
 1244              		.global	task3
 1245              		.syntax unified
 1246              		.thumb
 1247              		.thumb_func
 1248              		.type	task3, %function
 1249              	task3:
 1250              	.LVL56:
 1251              	.LFB50:
 140:../5-TempR_LCD_Serial/main.c **** 	}
 141:../5-TempR_LCD_Serial/main.c **** }
 142:../5-TempR_LCD_Serial/main.c **** 
 143:../5-TempR_LCD_Serial/main.c **** 
 144:../5-TempR_LCD_Serial/main.c ****  void task3(void *args __attribute ((unused))){
 1252              		.loc 1 144 47 is_stmt 1 view -0
 1253              		.cfi_startproc
 1254              		@ Volatile: function does not return.
 1255              		@ args = 0, pretend = 0, frame = 8
 1256              		@ frame_needed = 0, uses_anonymous_args = 0
 145:../5-TempR_LCD_Serial/main.c **** 	/* [1---]
 146:../5-TempR_LCD_Serial/main.c **** 	 *
 147:../5-TempR_LCD_Serial/main.c **** 	 * Tarefa dedicada a leitura do sensor de temperatura
 148:../5-TempR_LCD_Serial/main.c **** 	 * usando ADC9 -> PB1
 149:../5-TempR_LCD_Serial/main.c **** 	 *
 150:../5-TempR_LCD_Serial/main.c **** 	 * O valor amostrado deve ser transmitido a cada 500ms
 151:../5-TempR_LCD_Serial/main.c **** 	 * usando área de memória compartilhada. -> [2---]
 152:../5-TempR_LCD_Serial/main.c **** 	 *
 153:../5-TempR_LCD_Serial/main.c **** 	 * */
 154:../5-TempR_LCD_Serial/main.c **** 
 155:../5-TempR_LCD_Serial/main.c **** 	ADC9_Configuration();
 1257              		.loc 1 155 2 view .LVU314
 1258              	@ ../5-TempR_LCD_Serial/main.c:144:  void task3(void *args __attribute ((unused))){
 144:../5-TempR_LCD_Serial/main.c **** 	/* [1---]
 1259              		.loc 1 144 47 is_stmt 0 view .LVU315
 1260 0384 07B5     		push	{r0, r1, r2, lr}	@
 1261              	.LCFI10:
 1262              		.cfi_def_cfa_offset 16
 1263              		.cfi_offset 14, -4
 1264              	@ ../5-TempR_LCD_Serial/main.c:155: 	ADC9_Configuration();
 1265              		.loc 1 155 2 view .LVU316
 1266 0386 FFF7FEFF 		bl	ADC9_Configuration		@
 1267              	.LVL57:
 1268              	@ ../5-TempR_LCD_Serial/main.c:160: 		Valor_ADC_normalizado = ADC2->DR;
 156:../5-TempR_LCD_Serial/main.c **** 	u32 Valor_ADC_normalizado; 
 157:../5-TempR_LCD_Serial/main.c **** 
 158:../5-TempR_LCD_Serial/main.c **** 	while(1){
 159:../5-TempR_LCD_Serial/main.c **** 
 160:../5-TempR_LCD_Serial/main.c **** 		Valor_ADC_normalizado = ADC2->DR;
 1269              		.loc 1 160 31 view .LVU317
 1270 038a 074D     		ldr	r5, .L72	@ tmp116,
 1271              	@ ../5-TempR_LCD_Serial/main.c:162: 		xQueueSend(LCD_Show_queue, &Valor_ADC_normalizado, 0);
 161:../5-TempR_LCD_Serial/main.c **** 
ARM GAS  /tmp/ccIXPZcX.s 			page 33


 162:../5-TempR_LCD_Serial/main.c **** 		xQueueSend(LCD_Show_queue, &Valor_ADC_normalizado, 0);
 1272              		.loc 1 162 3 view .LVU318
 1273 038c 074C     		ldr	r4, .L72+4	@ tmp118,
 1274              	.LVL58:
 1275              	.L71:
 156:../5-TempR_LCD_Serial/main.c **** 	u32 Valor_ADC_normalizado; 
 1276              		.loc 1 156 2 is_stmt 1 discriminator 1 view .LVU319
 158:../5-TempR_LCD_Serial/main.c **** 
 1277              		.loc 1 158 2 discriminator 1 view .LVU320
 160:../5-TempR_LCD_Serial/main.c **** 
 1278              		.loc 1 160 3 discriminator 1 view .LVU321
 1279              	@ ../5-TempR_LCD_Serial/main.c:160: 		Valor_ADC_normalizado = ADC2->DR;
 160:../5-TempR_LCD_Serial/main.c **** 
 1280              		.loc 1 160 31 is_stmt 0 discriminator 1 view .LVU322
 1281 038e EB6C     		ldr	r3, [r5, #76]	@ _1, MEM[(struct ADC_TypeDef *)1073817600B].DR
 1282              	@ ../5-TempR_LCD_Serial/main.c:162: 		xQueueSend(LCD_Show_queue, &Valor_ADC_normalizado, 0);
 1283              		.loc 1 162 3 discriminator 1 view .LVU323
 1284 0390 2068     		ldr	r0, [r4]	@, LCD_Show_queue
 1285              	@ ../5-TempR_LCD_Serial/main.c:160: 		Valor_ADC_normalizado = ADC2->DR;
 160:../5-TempR_LCD_Serial/main.c **** 
 1286              		.loc 1 160 25 discriminator 1 view .LVU324
 1287 0392 0193     		str	r3, [sp, #4]	@ _1, Valor_ADC_normalizado
 1288              		.loc 1 162 3 is_stmt 1 discriminator 1 view .LVU325
 1289 0394 0023     		movs	r3, #0	@,
 1290 0396 01A9     		add	r1, sp, #4	@ tmp120,,
 1291 0398 1A46     		mov	r2, r3	@,
 1292 039a FFF7FEFF 		bl	xQueueGenericSend		@
 1293              	.LVL59:
 163:../5-TempR_LCD_Serial/main.c **** 		__delay_ms(500);
 1294              		.loc 1 163 3 discriminator 1 view .LVU326
 1295 039e 4CF25030 		movw	r0, #50000	@,
 1296 03a2 FFF7FEFF 		bl	vTaskDelay		@
 1297              	.LVL60:
 158:../5-TempR_LCD_Serial/main.c **** 
 1298              		.loc 1 158 7 discriminator 1 view .LVU327
 1299 03a6 F2E7     		b	.L71		@
 1300              	.L73:
 1301              		.align	2
 1302              	.L72:
 1303 03a8 00280140 		.word	1073817600
 1304 03ac 00000000 		.word	.LANCHOR0
 1305              		.cfi_endproc
 1306              	.LFE50:
 1307              		.size	task3, .-task3
 1308              		.align	1
 1309              		.global	ADC9_GetValue
 1310              		.syntax unified
 1311              		.thumb
 1312              		.thumb_func
 1313              		.type	ADC9_GetValue, %function
 1314              	ADC9_GetValue:
 1315              	.LFB45:
  31:../5-TempR_LCD_Serial/adc.h **** 
  32:../5-TempR_LCD_Serial/adc.h **** uint16_t ADC9_GetValue()
  33:../5-TempR_LCD_Serial/adc.h **** {
 1316              		.loc 4 33 1 view -0
 1317              		.cfi_startproc
ARM GAS  /tmp/ccIXPZcX.s 			page 34


 1318              		@ args = 0, pretend = 0, frame = 0
 1319              		@ frame_needed = 0, uses_anonymous_args = 0
 1320              		@ link register save eliminated.
  34:../5-TempR_LCD_Serial/adc.h ****     // Iniciar uma conversão no ADC9
  35:../5-TempR_LCD_Serial/adc.h ****     ADC2->CR2 |= ADC_CR2_SWSTART;
 1321              		.loc 4 35 5 view .LVU329
 1322              	@ ../5-TempR_LCD_Serial/adc.h:35:     ADC2->CR2 |= ADC_CR2_SWSTART;
 1323              		.loc 4 35 15 is_stmt 0 view .LVU330
 1324 03b0 054B     		ldr	r3, .L78	@ tmp119,
 1325 03b2 9A68     		ldr	r2, [r3, #8]	@ _1, MEM[(struct ADC_TypeDef *)1073817600B].CR2
 1326 03b4 42F48002 		orr	r2, r2, #4194304	@ _2, _1,
 1327 03b8 9A60     		str	r2, [r3, #8]	@ _2, MEM[(struct ADC_TypeDef *)1073817600B].CR2
  36:../5-TempR_LCD_Serial/adc.h **** 
  37:../5-TempR_LCD_Serial/adc.h ****     // Aguardar o final da conversão
  38:../5-TempR_LCD_Serial/adc.h ****     while (!(ADC2->SR & ADC_SR_EOC));
 1328              		.loc 4 38 5 is_stmt 1 view .LVU331
 1329              	.L75:
 1330              		.loc 4 38 37 discriminator 1 view .LVU332
 1331              		.loc 4 38 11 discriminator 1 view .LVU333
 1332              	@ ../5-TempR_LCD_Serial/adc.h:38:     while (!(ADC2->SR & ADC_SR_EOC));
 1333              		.loc 4 38 18 is_stmt 0 discriminator 1 view .LVU334
 1334 03ba 1A68     		ldr	r2, [r3]	@ _3, MEM[(struct ADC_TypeDef *)1073817600B].SR
 1335              	@ ../5-TempR_LCD_Serial/adc.h:38:     while (!(ADC2->SR & ADC_SR_EOC));
 1336              		.loc 4 38 11 discriminator 1 view .LVU335
 1337 03bc 9207     		lsls	r2, r2, #30	@, _3,
 1338 03be FCD5     		bpl	.L75		@,
  39:../5-TempR_LCD_Serial/adc.h **** 
  40:../5-TempR_LCD_Serial/adc.h ****     // Obter o valor convertido
  41:../5-TempR_LCD_Serial/adc.h ****     return ADC2->DR;
 1339              		.loc 4 41 5 is_stmt 1 view .LVU336
 1340              	@ ../5-TempR_LCD_Serial/adc.h:41:     return ADC2->DR;
 1341              		.loc 4 41 16 is_stmt 0 view .LVU337
 1342 03c0 D86C     		ldr	r0, [r3, #76]	@ _5, MEM[(struct ADC_TypeDef *)1073817600B].DR
 1343              	@ ../5-TempR_LCD_Serial/adc.h:43: }
  42:../5-TempR_LCD_Serial/adc.h **** 
  43:../5-TempR_LCD_Serial/adc.h **** }
 1344              		.loc 4 43 1 view .LVU338
 1345 03c2 80B2     		uxth	r0, r0	@, _5
 1346 03c4 7047     		bx	lr	@
 1347              	.L79:
 1348 03c6 00BF     		.align	2
 1349              	.L78:
 1350 03c8 00280140 		.word	1073817600
 1351              		.cfi_endproc
 1352              	.LFE45:
 1353              		.size	ADC9_GetValue, .-ADC9_GetValue
 1354              		.section	.rodata.str1.1,"aMS",%progbits,1
 1355              	.LC0:
 1356 0000 2D2D2D2D 		.ascii	"----------------\000"
 1356      2D2D2D2D 
 1356      2D2D2D2D 
 1356      2D2D2D2D 
 1356      00
 1357              	.LC1:
 1358 0011 3D3D3D3D 		.ascii	"================\000"
 1358      3D3D3D3D 
 1358      3D3D3D3D 
ARM GAS  /tmp/ccIXPZcX.s 			page 35


 1358      3D3D3D3D 
 1358      00
 1359              	.LC2:
 1360 0022 3D00     		.ascii	"=\000"
 1361              	.LC3:
 1362 0024 2D00     		.ascii	"-\000"
 1363              		.text
 1364              		.align	1
 1365              		.global	LCD16x2_init
 1366              		.syntax unified
 1367              		.thumb
 1368              		.thumb_func
 1369              		.type	LCD16x2_init, %function
 1370              	LCD16x2_init:
 1371              	.LFB46:
  46:../5-TempR_LCD_Serial/main.c **** 
 1372              		.loc 1 46 20 is_stmt 1 view -0
 1373              		.cfi_startproc
 1374              		@ args = 0, pretend = 0, frame = 0
 1375              		@ frame_needed = 0, uses_anonymous_args = 0
  48:../5-TempR_LCD_Serial/main.c **** 	GPIOA->CRL	 = 0x33333300; // Hab PA(2-7) out PP
 1376              		.loc 1 48 2 view .LVU340
 1377              	@ ../5-TempR_LCD_Serial/main.c:48: 	RCC->APB2ENR |= (1<<2);
  48:../5-TempR_LCD_Serial/main.c **** 	GPIOA->CRL	 = 0x33333300; // Hab PA(2-7) out PP
 1378              		.loc 1 48 15 is_stmt 0 view .LVU341
 1379 03cc 294A     		ldr	r2, .L83	@ tmp132,
 1380              	@ ../5-TempR_LCD_Serial/main.c:46: void LCD16x2_init(){
  46:../5-TempR_LCD_Serial/main.c **** 
 1381              		.loc 1 46 20 view .LVU342
 1382 03ce F8B5     		push	{r3, r4, r5, r6, r7, lr}	@
 1383              	.LCFI11:
 1384              		.cfi_def_cfa_offset 24
 1385              		.cfi_offset 3, -24
 1386              		.cfi_offset 4, -20
 1387              		.cfi_offset 5, -16
 1388              		.cfi_offset 6, -12
 1389              		.cfi_offset 7, -8
 1390              		.cfi_offset 14, -4
 1391              	@ ../5-TempR_LCD_Serial/main.c:48: 	RCC->APB2ENR |= (1<<2);
  48:../5-TempR_LCD_Serial/main.c **** 	GPIOA->CRL	 = 0x33333300; // Hab PA(2-7) out PP
 1392              		.loc 1 48 15 view .LVU343
 1393 03d0 9369     		ldr	r3, [r2, #24]	@ _1, MEM[(struct RCC_TypeDef *)1073876992B].APB2ENR
 1394              	@ ../5-TempR_LCD_Serial/main.c:59: 	disp_text("================", 1, 0);
  59:../5-TempR_LCD_Serial/main.c **** 
 1395              		.loc 1 59 2 view .LVU344
 1396 03d2 0024     		movs	r4, #0	@ ivtmp.113,
 1397              	@ ../5-TempR_LCD_Serial/main.c:48: 	RCC->APB2ENR |= (1<<2);
  48:../5-TempR_LCD_Serial/main.c **** 	GPIOA->CRL	 = 0x33333300; // Hab PA(2-7) out PP
 1398              		.loc 1 48 15 view .LVU345
 1399 03d4 43F00403 		orr	r3, r3, #4	@ _2, _1,
 1400 03d8 9361     		str	r3, [r2, #24]	@ _2, MEM[(struct RCC_TypeDef *)1073876992B].APB2ENR
  49:../5-TempR_LCD_Serial/main.c **** 
 1401              		.loc 1 49 2 is_stmt 1 view .LVU346
 1402              	@ ../5-TempR_LCD_Serial/main.c:49: 	GPIOA->CRL	 = 0x33333300; // Hab PA(2-7) out PP
  49:../5-TempR_LCD_Serial/main.c **** 
 1403              		.loc 1 49 14 is_stmt 0 view .LVU347
 1404 03da 274B     		ldr	r3, .L83+4	@ tmp134,
ARM GAS  /tmp/ccIXPZcX.s 			page 36


 1405 03dc 274A     		ldr	r2, .L83+8	@ tmp135,
 1406              	.LBB17:
 1407              	@ ../5-TempR_LCD_Serial/main.c:63: 		disp_text("=", 0 ,i);
  63:../5-TempR_LCD_Serial/main.c **** 		disp_text("-", 1 , 16 - i);
 1408              		.loc 1 63 3 view .LVU348
 1409 03de 284F     		ldr	r7, .L83+12	@ tmp157,
 1410              	.LBE17:
 1411              	@ ../5-TempR_LCD_Serial/main.c:49: 	GPIOA->CRL	 = 0x33333300; // Hab PA(2-7) out PP
  49:../5-TempR_LCD_Serial/main.c **** 
 1412              		.loc 1 49 14 view .LVU349
 1413 03e0 1A60     		str	r2, [r3]	@ tmp135, MEM[(struct GPIO_TypeDef *)1073809408B].CRL
  51:../5-TempR_LCD_Serial/main.c **** 	set_bit(IO,EN);   set_bit(IO,D4);
 1414              		.loc 1 51 2 is_stmt 1 view .LVU350
 1415 03e2 DA68     		ldr	r2, [r3, #12]	@ _3, MEM[(struct GPIO_TypeDef *)1073809408B].ODR
 1416              	.LBB18:
 1417              	@ ../5-TempR_LCD_Serial/main.c:64: 		disp_text("-", 1 , 16 - i);
  64:../5-TempR_LCD_Serial/main.c **** 	}
 1418              		.loc 1 64 3 is_stmt 0 view .LVU351
 1419 03e4 274E     		ldr	r6, .L83+16	@ tmp158,
 1420              	.LBE18:
 1421              	@ ../5-TempR_LCD_Serial/main.c:51: 	set_bit(IO,RS);   set_bit(IO,RS);
  51:../5-TempR_LCD_Serial/main.c **** 	set_bit(IO,EN);   set_bit(IO,D4);
 1422              		.loc 1 51 2 view .LVU352
 1423 03e6 42F08002 		orr	r2, r2, #128	@ _4, _3,
 1424 03ea DA60     		str	r2, [r3, #12]	@ _4, MEM[(struct GPIO_TypeDef *)1073809408B].ODR
  51:../5-TempR_LCD_Serial/main.c **** 	set_bit(IO,EN);   set_bit(IO,D4);
 1425              		.loc 1 51 20 is_stmt 1 view .LVU353
 1426 03ec DA68     		ldr	r2, [r3, #12]	@ _5, MEM[(struct GPIO_TypeDef *)1073809408B].ODR
 1427 03ee 42F08002 		orr	r2, r2, #128	@ _6, _5,
 1428 03f2 DA60     		str	r2, [r3, #12]	@ _6, MEM[(struct GPIO_TypeDef *)1073809408B].ODR
  52:../5-TempR_LCD_Serial/main.c **** 	set_bit(IO,D5);   set_bit(IO,D6);
 1429              		.loc 1 52 2 view .LVU354
 1430 03f4 DA68     		ldr	r2, [r3, #12]	@ _7, MEM[(struct GPIO_TypeDef *)1073809408B].ODR
 1431 03f6 42F04002 		orr	r2, r2, #64	@ _8, _7,
 1432 03fa DA60     		str	r2, [r3, #12]	@ _8, MEM[(struct GPIO_TypeDef *)1073809408B].ODR
  52:../5-TempR_LCD_Serial/main.c **** 	set_bit(IO,D5);   set_bit(IO,D6);
 1433              		.loc 1 52 20 view .LVU355
 1434 03fc DA68     		ldr	r2, [r3, #12]	@ _9, MEM[(struct GPIO_TypeDef *)1073809408B].ODR
 1435 03fe 42F02002 		orr	r2, r2, #32	@ _10, _9,
 1436 0402 DA60     		str	r2, [r3, #12]	@ _10, MEM[(struct GPIO_TypeDef *)1073809408B].ODR
  53:../5-TempR_LCD_Serial/main.c **** 	set_bit(IO,D7);   disp_init();
 1437              		.loc 1 53 2 view .LVU356
 1438 0404 DA68     		ldr	r2, [r3, #12]	@ _11, MEM[(struct GPIO_TypeDef *)1073809408B].ODR
 1439 0406 42F01002 		orr	r2, r2, #16	@ _12, _11,
 1440 040a DA60     		str	r2, [r3, #12]	@ _12, MEM[(struct GPIO_TypeDef *)1073809408B].ODR
  53:../5-TempR_LCD_Serial/main.c **** 	set_bit(IO,D7);   disp_init();
 1441              		.loc 1 53 20 view .LVU357
 1442 040c DA68     		ldr	r2, [r3, #12]	@ _13, MEM[(struct GPIO_TypeDef *)1073809408B].ODR
 1443 040e 42F00802 		orr	r2, r2, #8	@ _14, _13,
 1444 0412 DA60     		str	r2, [r3, #12]	@ _14, MEM[(struct GPIO_TypeDef *)1073809408B].ODR
  54:../5-TempR_LCD_Serial/main.c **** 	disp_cmd(0x0C);
 1445              		.loc 1 54 2 view .LVU358
 1446 0414 DA68     		ldr	r2, [r3, #12]	@ _15, MEM[(struct GPIO_TypeDef *)1073809408B].ODR
 1447 0416 42F00402 		orr	r2, r2, #4	@ _16, _15,
 1448 041a DA60     		str	r2, [r3, #12]	@ _16, MEM[(struct GPIO_TypeDef *)1073809408B].ODR
  54:../5-TempR_LCD_Serial/main.c **** 	disp_cmd(0x0C);
 1449              		.loc 1 54 20 view .LVU359
ARM GAS  /tmp/ccIXPZcX.s 			page 37


 1450 041c FFF7FEFF 		bl	disp_init		@
 1451              	.LVL61:
  55:../5-TempR_LCD_Serial/main.c **** 
 1452              		.loc 1 55 2 view .LVU360
 1453 0420 0C20     		movs	r0, #12	@,
 1454 0422 FFF7FEFF 		bl	disp_cmd		@
 1455              	.LVL62:
  58:../5-TempR_LCD_Serial/main.c **** 	disp_text("================", 1, 0);
 1456              		.loc 1 58 2 view .LVU361
 1457 0426 0022     		movs	r2, #0	@,
 1458 0428 1748     		ldr	r0, .L83+20	@,
 1459 042a 1146     		mov	r1, r2	@,
 1460 042c FFF7FEFF 		bl	disp_text		@
 1461              	.LVL63:
  59:../5-TempR_LCD_Serial/main.c **** 
 1462              		.loc 1 59 2 view .LVU362
 1463 0430 0022     		movs	r2, #0	@,
 1464 0432 0121     		movs	r1, #1	@,
 1465 0434 1548     		ldr	r0, .L83+24	@,
 1466 0436 FFF7FEFF 		bl	disp_text		@
 1467              	.LVL64:
  61:../5-TempR_LCD_Serial/main.c **** 		__delay_ms(VEL_ANIMACAO);
 1468              		.loc 1 61 2 view .LVU363
 1469              	.LBB19:
  61:../5-TempR_LCD_Serial/main.c **** 		__delay_ms(VEL_ANIMACAO);
 1470              		.loc 1 61 7 view .LVU364
  61:../5-TempR_LCD_Serial/main.c **** 		__delay_ms(VEL_ANIMACAO);
 1471              		.loc 1 61 16 view .LVU365
 1472              	.L81:
  61:../5-TempR_LCD_Serial/main.c **** 		__delay_ms(VEL_ANIMACAO);
 1473              		.loc 1 61 16 is_stmt 0 view .LVU366
 1474 043a E5B2     		uxtb	r5, r4	@ _40, ivtmp.113
 1475              	.LVL65:
  62:../5-TempR_LCD_Serial/main.c **** 		disp_text("=", 0 ,i);
 1476              		.loc 1 62 3 is_stmt 1 discriminator 3 view .LVU367
 1477 043c 40F2DC50 		movw	r0, #1500	@,
 1478 0440 FFF7FEFF 		bl	vTaskDelay		@
 1479              	.LVL66:
  63:../5-TempR_LCD_Serial/main.c **** 		disp_text("-", 1 , 16 - i);
 1480              		.loc 1 63 3 discriminator 3 view .LVU368
 1481 0444 2A46     		mov	r2, r5	@, _40
 1482 0446 0021     		movs	r1, #0	@,
 1483 0448 3846     		mov	r0, r7	@, tmp157
 1484 044a FFF7FEFF 		bl	disp_text		@
 1485              	.LVL67:
  64:../5-TempR_LCD_Serial/main.c **** 	}
 1486              		.loc 1 64 3 discriminator 3 view .LVU369
 1487 044e C5F11002 		rsb	r2, r5, #16	@ tmp153, _40,
 1488 0452 0121     		movs	r1, #1	@,
 1489 0454 3046     		mov	r0, r6	@, tmp158
 1490 0456 D2B2     		uxtb	r2, r2	@, tmp153
 1491              	@ ../5-TempR_LCD_Serial/main.c:61: 	for (u8 i=0 ; i<16 ; i++){
  61:../5-TempR_LCD_Serial/main.c **** 		__delay_ms(VEL_ANIMACAO);
 1492              		.loc 1 61 2 is_stmt 0 discriminator 3 view .LVU370
 1493 0458 0134     		adds	r4, r4, #1	@ ivtmp.113, ivtmp.113,
 1494              	@ ../5-TempR_LCD_Serial/main.c:64: 		disp_text("-", 1 , 16 - i);
  64:../5-TempR_LCD_Serial/main.c **** 	}
ARM GAS  /tmp/ccIXPZcX.s 			page 38


 1495              		.loc 1 64 3 discriminator 3 view .LVU371
 1496 045a FFF7FEFF 		bl	disp_text		@
 1497              	.LVL68:
  61:../5-TempR_LCD_Serial/main.c **** 		__delay_ms(VEL_ANIMACAO);
 1498              		.loc 1 61 23 is_stmt 1 discriminator 3 view .LVU372
  61:../5-TempR_LCD_Serial/main.c **** 		__delay_ms(VEL_ANIMACAO);
 1499              		.loc 1 61 16 discriminator 3 view .LVU373
 1500              	@ ../5-TempR_LCD_Serial/main.c:61: 	for (u8 i=0 ; i<16 ; i++){
  61:../5-TempR_LCD_Serial/main.c **** 		__delay_ms(VEL_ANIMACAO);
 1501              		.loc 1 61 2 is_stmt 0 discriminator 3 view .LVU374
 1502 045e 102C     		cmp	r4, #16	@ ivtmp.113,
 1503 0460 EBD1     		bne	.L81		@,
 1504              	.LBE19:
  66:../5-TempR_LCD_Serial/main.c **** 	disp_clear();
 1505              		.loc 1 66 2 is_stmt 1 view .LVU375
 1506 0462 40F2DC50 		movw	r0, #1500	@,
 1507 0466 FFF7FEFF 		bl	vTaskDelay		@
 1508              	.LVL69:
  67:../5-TempR_LCD_Serial/main.c **** }
 1509              		.loc 1 67 2 view .LVU376
 1510              	@ ../5-TempR_LCD_Serial/main.c:68: }
  68:../5-TempR_LCD_Serial/main.c **** 
 1511              		.loc 1 68 1 is_stmt 0 view .LVU377
 1512 046a BDE8F840 		pop	{r3, r4, r5, r6, r7, lr}	@
 1513              	.LCFI12:
 1514              		.cfi_restore 14
 1515              		.cfi_restore 7
 1516              		.cfi_restore 6
 1517              		.cfi_restore 5
 1518              		.cfi_restore 4
 1519              		.cfi_restore 3
 1520              		.cfi_def_cfa_offset 0
 1521              	@ ../5-TempR_LCD_Serial/main.c:67: 	disp_clear();
  67:../5-TempR_LCD_Serial/main.c **** }
 1522              		.loc 1 67 2 view .LVU378
 1523 046e FFF7FEBF 		b	disp_clear		@
 1524              	.LVL70:
 1525              	.L84:
 1526 0472 00BF     		.align	2
 1527              	.L83:
 1528 0474 00100240 		.word	1073876992
 1529 0478 00080140 		.word	1073809408
 1530 047c 00333333 		.word	858993408
 1531 0480 22000000 		.word	.LC2
 1532 0484 24000000 		.word	.LC3
 1533 0488 00000000 		.word	.LC0
 1534 048c 11000000 		.word	.LC1
 1535              		.cfi_endproc
 1536              	.LFE46:
 1537              		.size	LCD16x2_init, .-LCD16x2_init
 1538              		.section	.rodata.str1.1
 1539              	.LC4:
 1540 0026 54656D70 		.ascii	"Temperatura - C\000"
 1540      65726174 
 1540      75726120 
 1540      2D204300 
 1541              		.global	__aeabi_i2d
ARM GAS  /tmp/ccIXPZcX.s 			page 39


 1542              		.global	__aeabi_dmul
 1543              		.global	__aeabi_d2f
 1544              		.text
 1545              		.align	1
 1546              		.syntax unified
 1547              		.thumb
 1548              		.thumb_func
 1549              		.type	task1, %function
 1550              	task1:
 1551              	.LVL71:
 1552              	.LFB47:
  71:../5-TempR_LCD_Serial/main.c **** 
 1553              		.loc 1 71 53 is_stmt 1 view -0
 1554              		.cfi_startproc
 1555              		@ args = 0, pretend = 0, frame = 24
 1556              		@ frame_needed = 0, uses_anonymous_args = 0
  87:../5-TempR_LCD_Serial/main.c **** 	RCC->APB2ENR |= 1<<3;
 1557              		.loc 1 87 2 view .LVU380
 1558              	@ ../5-TempR_LCD_Serial/main.c:71: static void task1(void *args __attribute((unused))) {
  71:../5-TempR_LCD_Serial/main.c **** 
 1559              		.loc 1 71 53 is_stmt 0 view .LVU381
 1560 0490 2DE9F04F 		push	{r4, r5, r6, r7, r8, r9, r10, fp, lr}	@
 1561              	.LCFI13:
 1562              		.cfi_def_cfa_offset 36
 1563              		.cfi_offset 4, -36
 1564              		.cfi_offset 5, -32
 1565              		.cfi_offset 6, -28
 1566              		.cfi_offset 7, -24
 1567              		.cfi_offset 8, -20
 1568              		.cfi_offset 9, -16
 1569              		.cfi_offset 10, -12
 1570              		.cfi_offset 11, -8
 1571              		.cfi_offset 14, -4
 1572              	@ ../5-TempR_LCD_Serial/main.c:114: 				floatToString(BUFF * ADC_Const, Float_point, 2);
 114:../5-TempR_LCD_Serial/main.c **** 				disp_text(Float_point, 1, 6);
 1573              		.loc 1 114 24 view .LVU382
 1574 0494 0FF2D009 		adr	r9, .L101	@,
 1575 0498 D9E90089 		ldrd	r8, [r9]	@ tmp157,
 1576              	@ ../5-TempR_LCD_Serial/main.c:94: 	u8 ent_atual=1;
  94:../5-TempR_LCD_Serial/main.c **** 
 1577              		.loc 1 94 5 view .LVU383
 1578 049c 0124     		movs	r4, #1	@ ent_atual,
 1579              	@ ../5-TempR_LCD_Serial/main.c:91: 	int msg_buf_rev, BUFF = 0;
  91:../5-TempR_LCD_Serial/main.c **** 
 1580              		.loc 1 91 19 view .LVU384
 1581 049e 0026     		movs	r6, #0	@ BUFF,
 1582              	@ ../5-TempR_LCD_Serial/main.c:71: static void task1(void *args __attribute((unused))) {
  71:../5-TempR_LCD_Serial/main.c **** 
 1583              		.loc 1 71 53 view .LVU385
 1584 04a0 87B0     		sub	sp, sp, #28	@,,
 1585              	.LCFI14:
 1586              		.cfi_def_cfa_offset 64
 1587              	@ ../5-TempR_LCD_Serial/main.c:87: 	LCD16x2_init();
  87:../5-TempR_LCD_Serial/main.c **** 	RCC->APB2ENR |= 1<<3;
 1588              		.loc 1 87 2 view .LVU386
 1589 04a2 FFF7FEFF 		bl	LCD16x2_init		@
 1590              	.LVL72:
ARM GAS  /tmp/ccIXPZcX.s 			page 40


  88:../5-TempR_LCD_Serial/main.c **** 	GPIOB->CRH |= 0x4<<0; // Input Pull
 1591              		.loc 1 88 2 is_stmt 1 view .LVU387
 1592              	@ ../5-TempR_LCD_Serial/main.c:88: 	RCC->APB2ENR |= 1<<3;
  88:../5-TempR_LCD_Serial/main.c **** 	GPIOB->CRH |= 0x4<<0; // Input Pull
 1593              		.loc 1 88 15 is_stmt 0 view .LVU388
 1594 04a6 324A     		ldr	r2, .L101+8	@ tmp132,
 1595              	@ ../5-TempR_LCD_Serial/main.c:89: 	GPIOB->CRH |= 0x4<<0; // Input Pull
  89:../5-TempR_LCD_Serial/main.c **** 	GPIOB->ODR |= 1<<8; // Pull-up
 1596              		.loc 1 89 13 view .LVU389
 1597 04a8 324D     		ldr	r5, .L101+12	@ tmp134,
 1598              	@ ../5-TempR_LCD_Serial/main.c:88: 	RCC->APB2ENR |= 1<<3;
  88:../5-TempR_LCD_Serial/main.c **** 	GPIOB->CRH |= 0x4<<0; // Input Pull
 1599              		.loc 1 88 15 view .LVU390
 1600 04aa 9369     		ldr	r3, [r2, #24]	@ _2, MEM[(struct RCC_TypeDef *)1073876992B].APB2ENR
 1601 04ac 43F00803 		orr	r3, r3, #8	@ _3, _2,
 1602 04b0 9361     		str	r3, [r2, #24]	@ _3, MEM[(struct RCC_TypeDef *)1073876992B].APB2ENR
  89:../5-TempR_LCD_Serial/main.c **** 	GPIOB->ODR |= 1<<8; // Pull-up
 1603              		.loc 1 89 2 is_stmt 1 view .LVU391
 1604              	@ ../5-TempR_LCD_Serial/main.c:89: 	GPIOB->CRH |= 0x4<<0; // Input Pull
  89:../5-TempR_LCD_Serial/main.c **** 	GPIOB->ODR |= 1<<8; // Pull-up
 1605              		.loc 1 89 13 is_stmt 0 view .LVU392
 1606 04b2 6B68     		ldr	r3, [r5, #4]	@ _4, MEM[(struct GPIO_TypeDef *)1073810432B].CRH
 1607 04b4 43F00403 		orr	r3, r3, #4	@ _5, _4,
 1608 04b8 6B60     		str	r3, [r5, #4]	@ _5, MEM[(struct GPIO_TypeDef *)1073810432B].CRH
  90:../5-TempR_LCD_Serial/main.c **** 	int msg_buf_rev, BUFF = 0;
 1609              		.loc 1 90 2 is_stmt 1 view .LVU393
 1610              	@ ../5-TempR_LCD_Serial/main.c:90: 	GPIOB->ODR |= 1<<8; // Pull-up
  90:../5-TempR_LCD_Serial/main.c **** 	int msg_buf_rev, BUFF = 0;
 1611              		.loc 1 90 13 is_stmt 0 view .LVU394
 1612 04ba EB68     		ldr	r3, [r5, #12]	@ _6, MEM[(struct GPIO_TypeDef *)1073810432B].ODR
 1613 04bc 43F48073 		orr	r3, r3, #256	@ _7, _6,
 1614 04c0 EB60     		str	r3, [r5, #12]	@ _7, MEM[(struct GPIO_TypeDef *)1073810432B].ODR
  91:../5-TempR_LCD_Serial/main.c **** 
 1615              		.loc 1 91 2 is_stmt 1 view .LVU395
 1616              	.LVL73:
  93:../5-TempR_LCD_Serial/main.c **** 	u8 ent_atual=1;
 1617              		.loc 1 93 2 view .LVU396
  94:../5-TempR_LCD_Serial/main.c **** 
 1618              		.loc 1 94 2 view .LVU397
 1619              	.L86:
  98:../5-TempR_LCD_Serial/main.c **** 		if ((GPIOB->IDR & (1<<8))){
 1620              		.loc 1 98 2 view .LVU398
  99:../5-TempR_LCD_Serial/main.c **** 			ent_atual ++;
 1621              		.loc 1 99 3 view .LVU399
 1622              	@ ../5-TempR_LCD_Serial/main.c:99: 		if ((GPIOB->IDR & (1<<8))){
  99:../5-TempR_LCD_Serial/main.c **** 			ent_atual ++;
 1623              		.loc 1 99 13 is_stmt 0 view .LVU400
 1624 04c2 AB68     		ldr	r3, [r5, #8]	@ _8, MEM[(struct GPIO_TypeDef *)1073810432B].IDR
 1625              	@ ../5-TempR_LCD_Serial/main.c:99: 		if ((GPIOB->IDR & (1<<8))){
  99:../5-TempR_LCD_Serial/main.c **** 			ent_atual ++;
 1626              		.loc 1 99 6 view .LVU401
 1627 04c4 DB05     		lsls	r3, r3, #23	@, _8,
 1628 04c6 05D5     		bpl	.L87		@,
 100:../5-TempR_LCD_Serial/main.c **** 
 1629              		.loc 1 100 4 is_stmt 1 view .LVU402
 1630              	.LVL74:
 102:../5-TempR_LCD_Serial/main.c **** 			ent_atual = 1;
ARM GAS  /tmp/ccIXPZcX.s 			page 41


 1631              		.loc 1 102 3 view .LVU403
 1632              	@ ../5-TempR_LCD_Serial/main.c:103: 			ent_atual = 1;
 103:../5-TempR_LCD_Serial/main.c **** 		disp_clear();
 1633              		.loc 1 103 14 is_stmt 0 view .LVU404
 1634 04c8 012C     		cmp	r4, #1	@ ent_atual,
 1635 04ca 0CBF     		ite	eq
 1636 04cc 0224     		moveq	r4, #2	@ ent_atual,
 1637              	.LVL75:
 103:../5-TempR_LCD_Serial/main.c **** 		disp_clear();
 1638              		.loc 1 103 14 view .LVU405
 1639 04ce 0124     		movne	r4, #1	@ ent_atual,
 1640              	.LVL76:
 104:../5-TempR_LCD_Serial/main.c **** 		}
 1641              		.loc 1 104 3 is_stmt 1 view .LVU406
 1642 04d0 FFF7FEFF 		bl	disp_clear		@
 1643              	.LVL77:
 1644              	.L87:
 107:../5-TempR_LCD_Serial/main.c **** 					&msg_buf_rev, pdMS_TO_TICKS(1)))
 1645              		.loc 1 107 3 view .LVU407
 1646              	@ ../5-TempR_LCD_Serial/main.c:107: 		if (xQueueReceive(LCD_Show_queue, 
 107:../5-TempR_LCD_Serial/main.c **** 					&msg_buf_rev, pdMS_TO_TICKS(1)))
 1647              		.loc 1 107 7 is_stmt 0 view .LVU408
 1648 04d4 284B     		ldr	r3, .L101+16	@ tmp160,
 1649 04d6 6422     		movs	r2, #100	@,
 1650 04d8 1868     		ldr	r0, [r3]	@, LCD_Show_queue
 1651 04da 03A9     		add	r1, sp, #12	@,,
 1652 04dc FFF7FEFF 		bl	xQueueReceive		@
 1653              	.LVL78:
 1654              	@ ../5-TempR_LCD_Serial/main.c:107: 		if (xQueueReceive(LCD_Show_queue, 
 107:../5-TempR_LCD_Serial/main.c **** 					&msg_buf_rev, pdMS_TO_TICKS(1)))
 1655              		.loc 1 107 6 view .LVU409
 1656 04e0 00B1     		cbz	r0, .L89	@ tmp158,
 109:../5-TempR_LCD_Serial/main.c **** 
 1657              		.loc 1 109 4 is_stmt 1 view .LVU410
 1658              	@ ../5-TempR_LCD_Serial/main.c:109: 			BUFF = msg_buf_rev;
 109:../5-TempR_LCD_Serial/main.c **** 
 1659              		.loc 1 109 9 is_stmt 0 view .LVU411
 1660 04e2 039E     		ldr	r6, [sp, #12]	@ BUFF, msg_buf_rev
 1661              	.LVL79:
 1662              	.L89:
 111:../5-TempR_LCD_Serial/main.c **** 				disp_text("Temperatura - C", 0, 0); 
 1663              		.loc 1 111 3 is_stmt 1 view .LVU412
 1664              	@ ../5-TempR_LCD_Serial/main.c:111: 		if (ent_atual == 1 ){
 111:../5-TempR_LCD_Serial/main.c **** 				disp_text("Temperatura - C", 0, 0); 
 1665              		.loc 1 111 6 is_stmt 0 view .LVU413
 1666 04e4 012C     		cmp	r4, #1	@ ent_atual,
 1667 04e6 17D1     		bne	.L90		@,
 112:../5-TempR_LCD_Serial/main.c **** 
 1668              		.loc 1 112 5 is_stmt 1 view .LVU414
 1669 04e8 0022     		movs	r2, #0	@,
 1670 04ea 2448     		ldr	r0, .L101+20	@,
 1671 04ec 1146     		mov	r1, r2	@,
 1672 04ee FFF7FEFF 		bl	disp_text		@
 1673              	.LVL80:
 114:../5-TempR_LCD_Serial/main.c **** 				disp_text(Float_point, 1, 6);
 1674              		.loc 1 114 5 view .LVU415
 1675              	@ ../5-TempR_LCD_Serial/main.c:114: 				floatToString(BUFF * ADC_Const, Float_point, 2);
ARM GAS  /tmp/ccIXPZcX.s 			page 42


 114:../5-TempR_LCD_Serial/main.c **** 				disp_text(Float_point, 1, 6);
 1676              		.loc 1 114 24 is_stmt 0 view .LVU416
 1677 04f2 3046     		mov	r0, r6	@, BUFF
 1678 04f4 FFF7FEFF 		bl	__aeabi_i2d		@
 1679              	.LVL81:
 1680 04f8 4246     		mov	r2, r8	@, tmp157
 1681 04fa 4B46     		mov	r3, r9	@,
 1682 04fc FFF7FEFF 		bl	__aeabi_dmul		@
 1683              	.LVL82:
 1684              	@ ../5-TempR_LCD_Serial/main.c:114: 				floatToString(BUFF * ADC_Const, Float_point, 2);
 114:../5-TempR_LCD_Serial/main.c **** 				disp_text(Float_point, 1, 6);
 1685              		.loc 1 114 5 view .LVU417
 1686 0500 FFF7FEFF 		bl	__aeabi_d2f		@
 1687              	.LVL83:
 1688 0504 04A9     		add	r1, sp, #16	@ tmp161,,
 1689 0506 0222     		movs	r2, #2	@,
 1690 0508 FFF7FEFF 		bl	floatToString		@
 1691              	.LVL84:
 115:../5-TempR_LCD_Serial/main.c **** 		} 
 1692              		.loc 1 115 5 is_stmt 1 view .LVU418
 1693 050c 0622     		movs	r2, #6	@,
 1694 050e 2146     		mov	r1, r4	@, ent_atual
 1695 0510 04A8     		add	r0, sp, #16	@ tmp162,,
 1696 0512 FFF7FEFF 		bl	disp_text		@
 1697              	.LVL85:
 117:../5-TempR_LCD_Serial/main.c **** 			disp_text("----------------", 0 ,0);
 1698              		.loc 1 117 3 view .LVU419
 1699 0516 D4E7     		b	.L86		@
 1700              	.L90:
 117:../5-TempR_LCD_Serial/main.c **** 			disp_text("----------------", 0 ,0);
 1701              		.loc 1 117 3 view .LVU420
 1702              	@ ../5-TempR_LCD_Serial/main.c:117: 		if (ent_atual == 2 ){
 117:../5-TempR_LCD_Serial/main.c **** 			disp_text("----------------", 0 ,0);
 1703              		.loc 1 117 6 is_stmt 0 view .LVU421
 1704 0518 022C     		cmp	r4, #2	@ ent_atual,
 1705 051a D2D1     		bne	.L86		@,
 118:../5-TempR_LCD_Serial/main.c **** 			disp_text("================", 1, 0);
 1706              		.loc 1 118 4 is_stmt 1 view .LVU422
 1707 051c 0022     		movs	r2, #0	@,
 1708 051e 1848     		ldr	r0, .L101+24	@,
 1709 0520 1146     		mov	r1, r2	@,
 1710 0522 FFF7FEFF 		bl	disp_text		@
 1711              	.LVL86:
 119:../5-TempR_LCD_Serial/main.c **** 
 1712              		.loc 1 119 4 view .LVU423
 1713 0526 0022     		movs	r2, #0	@,
 1714 0528 0121     		movs	r1, #1	@,
 1715 052a 1648     		ldr	r0, .L101+28	@,
 1716 052c FFF7FEFF 		bl	disp_text		@
 1717              	.LVL87:
 121:../5-TempR_LCD_Serial/main.c **** 				__delay_ms(10);
 1718              		.loc 1 121 4 view .LVU424
 1719              	.LBB20:
 121:../5-TempR_LCD_Serial/main.c **** 				__delay_ms(10);
 1720              		.loc 1 121 9 view .LVU425
 121:../5-TempR_LCD_Serial/main.c **** 				__delay_ms(10);
 1721              		.loc 1 121 18 view .LVU426
ARM GAS  /tmp/ccIXPZcX.s 			page 43


 1722              	.LBE20:
 1723              	@ ../5-TempR_LCD_Serial/main.c:119: 			disp_text("================", 1, 0);
 119:../5-TempR_LCD_Serial/main.c **** 
 1724              		.loc 1 119 4 is_stmt 0 view .LVU427
 1725 0530 0023     		movs	r3, #0	@ ivtmp.122,
 1726              	.LBB21:
 1727              	@ ../5-TempR_LCD_Serial/main.c:123: 				disp_text("=", 0 ,i);
 123:../5-TempR_LCD_Serial/main.c **** 				disp_text("-", 1 , 16 - i);
 1728              		.loc 1 123 5 view .LVU428
 1729 0532 DFF854B0 		ldr	fp, .L101+32	@ tmp155,
 1730              	@ ../5-TempR_LCD_Serial/main.c:124: 				disp_text("-", 1 , 16 - i);
 124:../5-TempR_LCD_Serial/main.c **** 			}
 1731              		.loc 1 124 5 view .LVU429
 1732 0536 DFF854A0 		ldr	r10, .L101+36	@ tmp156,
 1733              	.LVL88:
 1734              	.L92:
 124:../5-TempR_LCD_Serial/main.c **** 			}
 1735              		.loc 1 124 5 view .LVU430
 1736 053a DFB2     		uxtb	r7, r3	@ _27, ivtmp.122
 1737              	@ ../5-TempR_LCD_Serial/main.c:122: 				__delay_ms(10);
 122:../5-TempR_LCD_Serial/main.c **** 				disp_text("=", 0 ,i);
 1738              		.loc 1 122 5 discriminator 3 view .LVU431
 1739 053c 4FF47A70 		mov	r0, #1000	@,
 1740 0540 0193     		str	r3, [sp, #4]	@ ivtmp.122, %sfp
 1741              	.LVL89:
 122:../5-TempR_LCD_Serial/main.c **** 				disp_text("=", 0 ,i);
 1742              		.loc 1 122 5 is_stmt 1 discriminator 3 view .LVU432
 1743 0542 FFF7FEFF 		bl	vTaskDelay		@
 1744              	.LVL90:
 123:../5-TempR_LCD_Serial/main.c **** 				disp_text("-", 1 , 16 - i);
 1745              		.loc 1 123 5 discriminator 3 view .LVU433
 1746 0546 3A46     		mov	r2, r7	@, _27
 1747 0548 0021     		movs	r1, #0	@,
 1748 054a 5846     		mov	r0, fp	@, tmp155
 1749 054c FFF7FEFF 		bl	disp_text		@
 1750              	.LVL91:
 124:../5-TempR_LCD_Serial/main.c **** 			}
 1751              		.loc 1 124 5 discriminator 3 view .LVU434
 1752 0550 C7F11002 		rsb	r2, r7, #16	@ tmp151, _27,
 1753 0554 0121     		movs	r1, #1	@,
 1754 0556 5046     		mov	r0, r10	@, tmp156
 1755 0558 D2B2     		uxtb	r2, r2	@, tmp151
 1756 055a FFF7FEFF 		bl	disp_text		@
 1757              	.LVL92:
 121:../5-TempR_LCD_Serial/main.c **** 				__delay_ms(10);
 1758              		.loc 1 121 25 discriminator 3 view .LVU435
 121:../5-TempR_LCD_Serial/main.c **** 				__delay_ms(10);
 1759              		.loc 1 121 18 discriminator 3 view .LVU436
 1760              	@ ../5-TempR_LCD_Serial/main.c:121: 			for (u8 i=0 ; i<16 ; i++){
 121:../5-TempR_LCD_Serial/main.c **** 				__delay_ms(10);
 1761              		.loc 1 121 4 is_stmt 0 discriminator 3 view .LVU437
 1762 055e 019B     		ldr	r3, [sp, #4]	@ ivtmp.122, %sfp
 1763 0560 0133     		adds	r3, r3, #1	@ ivtmp.122, ivtmp.122,
 1764 0562 102B     		cmp	r3, #16	@ ivtmp.122,
 1765 0564 E9D1     		bne	.L92		@,
 1766 0566 ACE7     		b	.L86		@
 1767              	.L102:
ARM GAS  /tmp/ccIXPZcX.s 			page 44


 1768              		.align	3
 1769              	.L101:
 1770 0568 5CE84A04 		.word	72018012
 1771 056c AA7F803F 		.word	1065385898
 1772 0570 00100240 		.word	1073876992
 1773 0574 000C0140 		.word	1073810432
 1774 0578 00000000 		.word	.LANCHOR0
 1775 057c 26000000 		.word	.LC4
 1776 0580 00000000 		.word	.LC0
 1777 0584 11000000 		.word	.LC1
 1778 0588 22000000 		.word	.LC2
 1779 058c 24000000 		.word	.LC3
 1780              	.LBE21:
 1781              		.cfi_endproc
 1782              	.LFE47:
 1783              		.size	task1, .-task1
 1784              		.align	1
 1785              		.global	LCD_Menu
 1786              		.syntax unified
 1787              		.thumb
 1788              		.thumb_func
 1789              		.type	LCD_Menu, %function
 1790              	LCD_Menu:
 1791              	.LVL93:
 1792              	.LFB48:
 130:../5-TempR_LCD_Serial/main.c **** }
 1793              		.loc 1 130 30 is_stmt 1 view -0
 1794              		.cfi_startproc
 1795              		@ args = 0, pretend = 0, frame = 0
 1796              		@ frame_needed = 0, uses_anonymous_args = 0
 1797              		@ link register save eliminated.
 131:../5-TempR_LCD_Serial/main.c **** 
 1798              		.loc 1 131 1 view .LVU439
 1799 0590 7047     		bx	lr	@
 1800              		.cfi_endproc
 1801              	.LFE48:
 1802              		.size	LCD_Menu, .-LCD_Menu
 1803              		.section	.rodata.str1.1
 1804              	.LC5:
 1805 0036 4C43445F 		.ascii	"LCD_16x2\000"
 1805      31367832 
 1805      00
 1806              	.LC6:
 1807 003f 4C45445F 		.ascii	"LED_13\000"
 1807      313300
 1808              	.LC7:
 1809 0046 4C4D3335 		.ascii	"LM35_read\000"
 1809      5F726561 
 1809      6400
 1810              		.section	.text.startup,"ax",%progbits
 1811              		.align	1
 1812              		.global	main
 1813              		.syntax unified
 1814              		.thumb
 1815              		.thumb_func
 1816              		.type	main, %function
 1817              	main:
ARM GAS  /tmp/ccIXPZcX.s 			page 45


 1818              	.LFB51:
 164:../5-TempR_LCD_Serial/main.c **** 		
 165:../5-TempR_LCD_Serial/main.c **** 	}
 166:../5-TempR_LCD_Serial/main.c **** }
 167:../5-TempR_LCD_Serial/main.c **** 
 168:../5-TempR_LCD_Serial/main.c **** int main(void) {
 1819              		.loc 1 168 16 view -0
 1820              		.cfi_startproc
 1821              		@ Volatile: function does not return.
 1822              		@ args = 0, pretend = 0, frame = 0
 1823              		@ frame_needed = 0, uses_anonymous_args = 0
 169:../5-TempR_LCD_Serial/main.c **** 
 170:../5-TempR_LCD_Serial/main.c **** 	LCD_Show_queue = xQueueCreate(2, sizeof(u32));
 1824              		.loc 1 170 2 view .LVU441
 1825              	@ ../5-TempR_LCD_Serial/main.c:168: int main(void) {
 168:../5-TempR_LCD_Serial/main.c **** 
 1826              		.loc 1 168 16 is_stmt 0 view .LVU442
 1827 0000 07B5     		push	{r0, r1, r2, lr}	@
 1828              	.LCFI15:
 1829              		.cfi_def_cfa_offset 16
 1830              		.cfi_offset 14, -4
 1831              	@ ../5-TempR_LCD_Serial/main.c:170: 	LCD_Show_queue = xQueueCreate(2, sizeof(u32));
 1832              		.loc 1 170 19 view .LVU443
 1833 0002 0022     		movs	r2, #0	@,
 1834 0004 0421     		movs	r1, #4	@,
 1835 0006 0220     		movs	r0, #2	@,
 1836 0008 FFF7FEFF 		bl	xQueueGenericCreate		@
 1837              	.LVL94:
 1838              	@ ../5-TempR_LCD_Serial/main.c:174: 	xTaskCreate(task1,"LCD_16x2", 100 ,NULL, 4 ,NULL);
 171:../5-TempR_LCD_Serial/main.c **** 	
 172:../5-TempR_LCD_Serial/main.c **** 	set_system_clock_to_72Mhz();
 173:../5-TempR_LCD_Serial/main.c **** 
 174:../5-TempR_LCD_Serial/main.c **** 	xTaskCreate(task1,"LCD_16x2", 100 ,NULL, 4 ,NULL);
 1839              		.loc 1 174 2 view .LVU444
 1840 000c 0024     		movs	r4, #0	@ tmp118,
 1841 000e 0425     		movs	r5, #4	@ tmp119,
 1842              	@ ../5-TempR_LCD_Serial/main.c:170: 	LCD_Show_queue = xQueueCreate(2, sizeof(u32));
 170:../5-TempR_LCD_Serial/main.c **** 	
 1843              		.loc 1 170 17 view .LVU445
 1844 0010 0F4B     		ldr	r3, .L106	@ tmp115,
 1845 0012 1860     		str	r0, [r3]	@ tmp128, LCD_Show_queue
 172:../5-TempR_LCD_Serial/main.c **** 
 1846              		.loc 1 172 2 is_stmt 1 view .LVU446
 1847 0014 FFF7FEFF 		bl	set_system_clock_to_72Mhz		@
 1848              	.LVL95:
 1849              		.loc 1 174 2 view .LVU447
 1850 0018 0E48     		ldr	r0, .L106+4	@,
 1851 001a 2346     		mov	r3, r4	@, tmp118
 1852 001c 6422     		movs	r2, #100	@,
 1853 001e 0E49     		ldr	r1, .L106+8	@,
 1854 0020 CDE90054 		strd	r5, r4, [sp]	@ tmp119, tmp118,
 1855 0024 FFF7FEFF 		bl	xTaskCreate		@
 1856              	.LVL96:
 175:../5-TempR_LCD_Serial/main.c **** 	xTaskCreate(task2, "LED_13", 100 , NULL, 4, NULL);
 1857              		.loc 1 175 2 view .LVU448
 1858 0028 2346     		mov	r3, r4	@, tmp118
 1859 002a 6422     		movs	r2, #100	@,
ARM GAS  /tmp/ccIXPZcX.s 			page 46


 1860 002c 0B49     		ldr	r1, .L106+12	@,
 1861 002e CDE90054 		strd	r5, r4, [sp]	@ tmp119, tmp118,
 1862 0032 0B48     		ldr	r0, .L106+16	@,
 1863 0034 FFF7FEFF 		bl	xTaskCreate		@
 1864              	.LVL97:
 176:../5-TempR_LCD_Serial/main.c **** 	xTaskCreate(task3, "LM35_read", 100 , NULL, 4 , NULL);
 1865              		.loc 1 176 2 view .LVU449
 1866 0038 2346     		mov	r3, r4	@, tmp118
 1867 003a 6422     		movs	r2, #100	@,
 1868 003c 0949     		ldr	r1, .L106+20	@,
 1869 003e CDE90054 		strd	r5, r4, [sp]	@ tmp119, tmp118,
 1870 0042 0948     		ldr	r0, .L106+24	@,
 1871 0044 FFF7FEFF 		bl	xTaskCreate		@
 1872              	.LVL98:
 177:../5-TempR_LCD_Serial/main.c **** 
 178:../5-TempR_LCD_Serial/main.c **** 	vTaskStartScheduler(); 
 1873              		.loc 1 178 2 view .LVU450
 1874 0048 FFF7FEFF 		bl	vTaskStartScheduler		@
 1875              	.LVL99:
 1876              	.L105:
 179:../5-TempR_LCD_Serial/main.c **** 
 180:../5-TempR_LCD_Serial/main.c **** 	while(1);
 1877              		.loc 1 180 2 discriminator 1 view .LVU451
 1878              		.loc 1 180 10 discriminator 1 view .LVU452
 1879              		.loc 1 180 7 discriminator 1 view .LVU453
 1880 004c FEE7     		b	.L105		@
 1881              	.L107:
 1882 004e 00BF     		.align	2
 1883              	.L106:
 1884 0050 00000000 		.word	.LANCHOR0
 1885 0054 00000000 		.word	task1
 1886 0058 36000000 		.word	.LC5
 1887 005c 3F000000 		.word	.LC6
 1888 0060 00000000 		.word	task2
 1889 0064 46000000 		.word	.LC7
 1890 0068 00000000 		.word	task3
 1891              		.cfi_endproc
 1892              	.LFE51:
 1893              		.size	main, .-main
 1894              		.bss
 1895              		.align	2
 1896              		.set	.LANCHOR0,. + 0
 1897              		.type	LCD_Show_queue, %object
 1898              		.size	LCD_Show_queue, 4
 1899              	LCD_Show_queue:
 1900 0000 00000000 		.space	4
 1901              		.text
 1902              	.Letext0:
 1903              		.file 5 "/usr/arm-none-eabi/include/machine/_default_types.h"
 1904              		.file 6 "/usr/arm-none-eabi/include/sys/_stdint.h"
 1905              		.file 7 "../freertos/portable/GCC/ARM_CM3/portmacro.h"
 1906              		.file 8 "../freertos/include/queue.h"
 1907              		.file 9 "../stm32f10x_lib/CMSIS/CM3/DeviceSupport/ST/STM32F10x/stm32f10x.h"
 1908              		.file 10 "../stm32f10x_lib/CMSIS/CM3/CoreSupport/core_cm3.h"
 1909              		.file 11 "../stm32f10x_lib/STM32F10x_StdPeriph_Driver/inc/stm32f10x_gpio.h"
 1910              		.file 12 "../stm32f10x_lib/STM32F10x_StdPeriph_Driver/inc/stm32f10x_usart.h"
 1911              		.file 13 "../freertos/include/task.h"
ARM GAS  /tmp/ccIXPZcX.s 			page 47


 1912              		.file 14 "../5-TempR_LCD_Serial/myLcd.h"
 1913              		.file 15 "../stm32f10x_lib/STM32F10x_StdPeriph_Driver/inc/stm32f10x_rcc.h"
 1914 0592 00BF     		.section	.debug_info,"",%progbits
 1915              	.Ldebug_info0:
 1916 0000 34160000 		.4byte	0x1634
 1917 0004 0200     		.2byte	0x2
 1918 0006 00000000 		.4byte	.Ldebug_abbrev0
 1919 000a 04       		.byte	0x4
 1920 000b 01       		.uleb128 0x1
 1921 000c 2D090000 		.4byte	.LASF232
 1922 0010 0C       		.byte	0xc
 1923 0011 F0010000 		.4byte	.LASF233
 1924 0015 5C080000 		.4byte	.LASF234
 1925 0019 A0000000 		.4byte	.Ldebug_ranges0+0xa0
 1926 001d 00000000 		.4byte	0
 1927 0021 00000000 		.4byte	0
 1928 0025 00000000 		.4byte	.Ldebug_line0
 1929 0029 02       		.uleb128 0x2
 1930 002a 04       		.byte	0x4
 1931 002b 05       		.byte	0x5
 1932 002c 696E7400 		.ascii	"int\000"
 1933 0030 03       		.uleb128 0x3
 1934 0031 04       		.byte	0x4
 1935 0032 07       		.byte	0x7
 1936 0033 DD050000 		.4byte	.LASF0
 1937 0037 03       		.uleb128 0x3
 1938 0038 08       		.byte	0x8
 1939 0039 05       		.byte	0x5
 1940 003a 5B050000 		.4byte	.LASF1
 1941 003e 03       		.uleb128 0x3
 1942 003f 08       		.byte	0x8
 1943 0040 04       		.byte	0x4
 1944 0041 75060000 		.4byte	.LASF2
 1945 0045 03       		.uleb128 0x3
 1946 0046 01       		.byte	0x1
 1947 0047 06       		.byte	0x6
 1948 0048 BF010000 		.4byte	.LASF3
 1949 004c 04       		.uleb128 0x4
 1950 004d D9000000 		.4byte	.LASF6
 1951 0051 05       		.byte	0x5
 1952 0052 2B       		.byte	0x2b
 1953 0053 18       		.byte	0x18
 1954 0054 58000000 		.4byte	0x58
 1955 0058 03       		.uleb128 0x3
 1956 0059 01       		.byte	0x1
 1957 005a 08       		.byte	0x8
 1958 005b 21020000 		.4byte	.LASF4
 1959 005f 03       		.uleb128 0x3
 1960 0060 02       		.byte	0x2
 1961 0061 05       		.byte	0x5
 1962 0062 B0080000 		.4byte	.LASF5
 1963 0066 04       		.uleb128 0x4
 1964 0067 4B030000 		.4byte	.LASF7
 1965 006b 05       		.byte	0x5
 1966 006c 39       		.byte	0x39
 1967 006d 19       		.byte	0x19
 1968 006e 72000000 		.4byte	0x72
ARM GAS  /tmp/ccIXPZcX.s 			page 48


 1969 0072 03       		.uleb128 0x3
 1970 0073 02       		.byte	0x2
 1971 0074 07       		.byte	0x7
 1972 0075 A60A0000 		.4byte	.LASF8
 1973 0079 03       		.uleb128 0x3
 1974 007a 04       		.byte	0x4
 1975 007b 05       		.byte	0x5
 1976 007c 0B010000 		.4byte	.LASF9
 1977 0080 04       		.uleb128 0x4
 1978 0081 50050000 		.4byte	.LASF10
 1979 0085 05       		.byte	0x5
 1980 0086 4F       		.byte	0x4f
 1981 0087 19       		.byte	0x19
 1982 0088 8C000000 		.4byte	0x8c
 1983 008c 03       		.uleb128 0x3
 1984 008d 04       		.byte	0x4
 1985 008e 07       		.byte	0x7
 1986 008f 84040000 		.4byte	.LASF11
 1987 0093 03       		.uleb128 0x3
 1988 0094 08       		.byte	0x8
 1989 0095 07       		.byte	0x7
 1990 0096 CA060000 		.4byte	.LASF12
 1991 009a 04       		.uleb128 0x4
 1992 009b CB010000 		.4byte	.LASF13
 1993 009f 06       		.byte	0x6
 1994 00a0 18       		.byte	0x18
 1995 00a1 13       		.byte	0x13
 1996 00a2 4C000000 		.4byte	0x4c
 1997 00a6 05       		.uleb128 0x5
 1998 00a7 9A000000 		.4byte	0x9a
 1999 00ab 04       		.uleb128 0x4
 2000 00ac E1060000 		.4byte	.LASF14
 2001 00b0 06       		.byte	0x6
 2002 00b1 24       		.byte	0x24
 2003 00b2 14       		.byte	0x14
 2004 00b3 66000000 		.4byte	0x66
 2005 00b7 05       		.uleb128 0x5
 2006 00b8 AB000000 		.4byte	0xab
 2007 00bc 04       		.uleb128 0x4
 2008 00bd 300A0000 		.4byte	.LASF15
 2009 00c1 06       		.byte	0x6
 2010 00c2 30       		.byte	0x30
 2011 00c3 14       		.byte	0x14
 2012 00c4 80000000 		.4byte	0x80
 2013 00c8 05       		.uleb128 0x5
 2014 00c9 BC000000 		.4byte	0xbc
 2015 00cd 06       		.uleb128 0x6
 2016 00ce 04       		.byte	0x4
 2017 00cf 04       		.uleb128 0x4
 2018 00d0 86000000 		.4byte	.LASF16
 2019 00d4 07       		.byte	0x7
 2020 00d5 38       		.byte	0x38
 2021 00d6 0E       		.byte	0xe
 2022 00d7 79000000 		.4byte	0x79
 2023 00db 04       		.uleb128 0x4
 2024 00dc 83070000 		.4byte	.LASF17
 2025 00e0 07       		.byte	0x7
ARM GAS  /tmp/ccIXPZcX.s 			page 49


 2026 00e1 3F       		.byte	0x3f
 2027 00e2 13       		.byte	0x13
 2028 00e3 BC000000 		.4byte	0xbc
 2029 00e7 03       		.uleb128 0x3
 2030 00e8 01       		.byte	0x1
 2031 00e9 08       		.byte	0x8
 2032 00ea 1E030000 		.4byte	.LASF18
 2033 00ee 04       		.uleb128 0x4
 2034 00ef B1010000 		.4byte	.LASF19
 2035 00f3 08       		.byte	0x8
 2036 00f4 30       		.byte	0x30
 2037 00f5 22       		.byte	0x22
 2038 00f6 FA000000 		.4byte	0xfa
 2039 00fa 07       		.uleb128 0x7
 2040 00fb 04       		.byte	0x4
 2041 00fc 00010000 		.4byte	0x100
 2042 0100 08       		.uleb128 0x8
 2043 0101 14010000 		.4byte	.LASF235
 2044 0105 01       		.byte	0x1
 2045 0106 09       		.uleb128 0x9
 2046 0107 57010000 		.4byte	.LASF200
 2047 010b 05       		.byte	0x5
 2048 010c 01       		.byte	0x1
 2049 010d 45000000 		.4byte	0x45
 2050 0111 09       		.byte	0x9
 2051 0112 A7       		.byte	0xa7
 2052 0113 0E       		.byte	0xe
 2053 0114 4B020000 		.4byte	0x24b
 2054 0118 0A       		.uleb128 0xa
 2055 0119 66040000 		.4byte	.LASF20
 2056 011d 72       		.sleb128 -14
 2057 011e 0A       		.uleb128 0xa
 2058 011f 9E040000 		.4byte	.LASF21
 2059 0123 74       		.sleb128 -12
 2060 0124 0A       		.uleb128 0xa
 2061 0125 42050000 		.4byte	.LASF22
 2062 0129 75       		.sleb128 -11
 2063 012a 0A       		.uleb128 0xa
 2064 012b F4020000 		.4byte	.LASF23
 2065 012f 76       		.sleb128 -10
 2066 0130 0A       		.uleb128 0xa
 2067 0131 96050000 		.4byte	.LASF24
 2068 0135 7B       		.sleb128 -5
 2069 0136 0A       		.uleb128 0xa
 2070 0137 0E080000 		.4byte	.LASF25
 2071 013b 7C       		.sleb128 -4
 2072 013c 0A       		.uleb128 0xa
 2073 013d DF0A0000 		.4byte	.LASF26
 2074 0141 7E       		.sleb128 -2
 2075 0142 0A       		.uleb128 0xa
 2076 0143 93010000 		.4byte	.LASF27
 2077 0147 7F       		.sleb128 -1
 2078 0148 0B       		.uleb128 0xb
 2079 0149 7A040000 		.4byte	.LASF28
 2080 014d 00       		.byte	0
 2081 014e 0B       		.uleb128 0xb
 2082 014f CB070000 		.4byte	.LASF29
ARM GAS  /tmp/ccIXPZcX.s 			page 50


 2083 0153 01       		.byte	0x1
 2084 0154 0B       		.uleb128 0xb
 2085 0155 32010000 		.4byte	.LASF30
 2086 0159 02       		.byte	0x2
 2087 015a 0B       		.uleb128 0xb
 2088 015b 3F0B0000 		.4byte	.LASF31
 2089 015f 03       		.byte	0x3
 2090 0160 0B       		.uleb128 0xb
 2091 0161 97000000 		.4byte	.LASF32
 2092 0165 04       		.byte	0x4
 2093 0166 0B       		.uleb128 0xb
 2094 0167 BA080000 		.4byte	.LASF33
 2095 016b 05       		.byte	0x5
 2096 016c 0B       		.uleb128 0xb
 2097 016d D4070000 		.4byte	.LASF34
 2098 0171 06       		.byte	0x6
 2099 0172 0B       		.uleb128 0xb
 2100 0173 30040000 		.4byte	.LASF35
 2101 0177 07       		.byte	0x7
 2102 0178 0B       		.uleb128 0xb
 2103 0179 09000000 		.4byte	.LASF36
 2104 017d 08       		.byte	0x8
 2105 017e 0B       		.uleb128 0xb
 2106 017f D40A0000 		.4byte	.LASF37
 2107 0183 09       		.byte	0x9
 2108 0184 0B       		.uleb128 0xb
 2109 0185 9B0A0000 		.4byte	.LASF38
 2110 0189 0A       		.byte	0xa
 2111 018a 0B       		.uleb128 0xb
 2112 018b BC020000 		.4byte	.LASF39
 2113 018f 0B       		.byte	0xb
 2114 0190 0B       		.uleb128 0xb
 2115 0191 FE090000 		.4byte	.LASF40
 2116 0195 0C       		.byte	0xc
 2117 0196 0B       		.uleb128 0xb
 2118 0197 49080000 		.4byte	.LASF41
 2119 019b 0D       		.byte	0xd
 2120 019c 0B       		.uleb128 0xb
 2121 019d B4040000 		.4byte	.LASF42
 2122 01a1 0E       		.byte	0xe
 2123 01a2 0B       		.uleb128 0xb
 2124 01a3 6C000000 		.4byte	.LASF43
 2125 01a7 0F       		.byte	0xf
 2126 01a8 0B       		.uleb128 0xb
 2127 01a9 0A0B0000 		.4byte	.LASF44
 2128 01ad 10       		.byte	0x10
 2129 01ae 0B       		.uleb128 0xb
 2130 01af 1D060000 		.4byte	.LASF45
 2131 01b3 11       		.byte	0x11
 2132 01b4 0B       		.uleb128 0xb
 2133 01b5 05090000 		.4byte	.LASF46
 2134 01b9 12       		.byte	0x12
 2135 01ba 0B       		.uleb128 0xb
 2136 01bb 0A030000 		.4byte	.LASF47
 2137 01bf 13       		.byte	0x13
 2138 01c0 0B       		.uleb128 0xb
 2139 01c1 34080000 		.4byte	.LASF48
ARM GAS  /tmp/ccIXPZcX.s 			page 51


 2140 01c5 14       		.byte	0x14
 2141 01c6 0B       		.uleb128 0xb
 2142 01c7 460A0000 		.4byte	.LASF49
 2143 01cb 15       		.byte	0x15
 2144 01cc 0B       		.uleb128 0xb
 2145 01cd D5040000 		.4byte	.LASF50
 2146 01d1 16       		.byte	0x16
 2147 01d2 0B       		.uleb128 0xb
 2148 01d3 7D0A0000 		.4byte	.LASF51
 2149 01d7 17       		.byte	0x17
 2150 01d8 0B       		.uleb128 0xb
 2151 01d9 CF020000 		.4byte	.LASF52
 2152 01dd 18       		.byte	0x18
 2153 01de 0B       		.uleb128 0xb
 2154 01df 390A0000 		.4byte	.LASF53
 2155 01e3 19       		.byte	0x19
 2156 01e4 0B       		.uleb128 0xb
 2157 01e5 81060000 		.4byte	.LASF54
 2158 01e9 1A       		.byte	0x1a
 2159 01ea 0B       		.uleb128 0xb
 2160 01eb 23040000 		.4byte	.LASF55
 2161 01ef 1B       		.byte	0x1b
 2162 01f0 0B       		.uleb128 0xb
 2163 01f1 B1000000 		.4byte	.LASF56
 2164 01f5 1C       		.byte	0x1c
 2165 01f6 0B       		.uleb128 0xb
 2166 01f7 EA060000 		.4byte	.LASF57
 2167 01fb 1D       		.byte	0x1d
 2168 01fc 0B       		.uleb128 0xb
 2169 01fd B2030000 		.4byte	.LASF58
 2170 0201 1E       		.byte	0x1e
 2171 0202 0B       		.uleb128 0xb
 2172 0203 E2030000 		.4byte	.LASF59
 2173 0207 1F       		.byte	0x1f
 2174 0208 0B       		.uleb128 0xb
 2175 0209 9B020000 		.4byte	.LASF60
 2176 020d 20       		.byte	0x20
 2177 020e 0B       		.uleb128 0xb
 2178 020f FD050000 		.4byte	.LASF61
 2179 0213 21       		.byte	0x21
 2180 0214 0B       		.uleb128 0xb
 2181 0215 28050000 		.4byte	.LASF62
 2182 0219 22       		.byte	0x22
 2183 021a 0B       		.uleb128 0xb
 2184 021b 85050000 		.4byte	.LASF63
 2185 021f 23       		.byte	0x23
 2186 0220 0B       		.uleb128 0xb
 2187 0221 E3000000 		.4byte	.LASF64
 2188 0225 24       		.byte	0x24
 2189 0226 0B       		.uleb128 0xb
 2190 0227 04070000 		.4byte	.LASF65
 2191 022b 25       		.byte	0x25
 2192 022c 0B       		.uleb128 0xb
 2193 022d BC030000 		.4byte	.LASF66
 2194 0231 26       		.byte	0x26
 2195 0232 0B       		.uleb128 0xb
 2196 0233 A5010000 		.4byte	.LASF67
ARM GAS  /tmp/ccIXPZcX.s 			page 52


 2197 0237 27       		.byte	0x27
 2198 0238 0B       		.uleb128 0xb
 2199 0239 BB060000 		.4byte	.LASF68
 2200 023d 28       		.byte	0x28
 2201 023e 0B       		.uleb128 0xb
 2202 023f AB050000 		.4byte	.LASF69
 2203 0243 29       		.byte	0x29
 2204 0244 0B       		.uleb128 0xb
 2205 0245 A3030000 		.4byte	.LASF70
 2206 0249 2A       		.byte	0x2a
 2207 024a 00       		.byte	0
 2208 024b 0C       		.uleb128 0xc
 2209 024c E3040000 		.4byte	.LASF71
 2210 0250 09       		.byte	0x9
 2211 0251 D801     		.2byte	0x1d8
 2212 0253 03       		.byte	0x3
 2213 0254 06010000 		.4byte	0x106
 2214 0258 0D       		.uleb128 0xd
 2215 0259 040E     		.2byte	0xe04
 2216 025b 0A       		.byte	0xa
 2217 025c 84       		.byte	0x84
 2218 025d 09       		.byte	0x9
 2219 025e 30030000 		.4byte	0x330
 2220 0262 0E       		.uleb128 0xe
 2221 0263 F90A0000 		.4byte	.LASF72
 2222 0267 0A       		.byte	0xa
 2223 0268 86       		.byte	0x86
 2224 0269 11       		.byte	0x11
 2225 026a 40030000 		.4byte	0x340
 2226 026e 02       		.byte	0x2
 2227 026f 23       		.byte	0x23
 2228 0270 00       		.uleb128 0
 2229 0271 0E       		.uleb128 0xe
 2230 0272 0D020000 		.4byte	.LASF73
 2231 0276 0A       		.byte	0xa
 2232 0277 87       		.byte	0x87
 2233 0278 11       		.byte	0x11
 2234 0279 45030000 		.4byte	0x345
 2235 027d 02       		.byte	0x2
 2236 027e 23       		.byte	0x23
 2237 027f 20       		.uleb128 0x20
 2238 0280 0E       		.uleb128 0xe
 2239 0281 8E070000 		.4byte	.LASF74
 2240 0285 0A       		.byte	0xa
 2241 0286 88       		.byte	0x88
 2242 0287 11       		.byte	0x11
 2243 0288 40030000 		.4byte	0x340
 2244 028c 03       		.byte	0x3
 2245 028d 23       		.byte	0x23
 2246 028e 8001     		.uleb128 0x80
 2247 0290 0E       		.uleb128 0xe
 2248 0291 00000000 		.4byte	.LASF75
 2249 0295 0A       		.byte	0xa
 2250 0296 89       		.byte	0x89
 2251 0297 11       		.byte	0x11
 2252 0298 45030000 		.4byte	0x345
 2253 029c 03       		.byte	0x3
ARM GAS  /tmp/ccIXPZcX.s 			page 53


 2254 029d 23       		.byte	0x23
 2255 029e A001     		.uleb128 0xa0
 2256 02a0 0E       		.uleb128 0xe
 2257 02a1 CF0A0000 		.4byte	.LASF76
 2258 02a5 0A       		.byte	0xa
 2259 02a6 8A       		.byte	0x8a
 2260 02a7 11       		.byte	0x11
 2261 02a8 40030000 		.4byte	0x340
 2262 02ac 03       		.byte	0x3
 2263 02ad 23       		.byte	0x23
 2264 02ae 8002     		.uleb128 0x100
 2265 02b0 0E       		.uleb128 0xe
 2266 02b1 DD020000 		.4byte	.LASF77
 2267 02b5 0A       		.byte	0xa
 2268 02b6 8B       		.byte	0x8b
 2269 02b7 11       		.byte	0x11
 2270 02b8 45030000 		.4byte	0x345
 2271 02bc 03       		.byte	0x3
 2272 02bd 23       		.byte	0x23
 2273 02be A002     		.uleb128 0x120
 2274 02c0 0E       		.uleb128 0xe
 2275 02c1 C0000000 		.4byte	.LASF78
 2276 02c5 0A       		.byte	0xa
 2277 02c6 8C       		.byte	0x8c
 2278 02c7 11       		.byte	0x11
 2279 02c8 40030000 		.4byte	0x340
 2280 02cc 03       		.byte	0x3
 2281 02cd 23       		.byte	0x23
 2282 02ce 8003     		.uleb128 0x180
 2283 02d0 0E       		.uleb128 0xe
 2284 02d1 2F020000 		.4byte	.LASF79
 2285 02d5 0A       		.byte	0xa
 2286 02d6 8D       		.byte	0x8d
 2287 02d7 11       		.byte	0x11
 2288 02d8 45030000 		.4byte	0x345
 2289 02dc 03       		.byte	0x3
 2290 02dd 23       		.byte	0x23
 2291 02de A003     		.uleb128 0x1a0
 2292 02e0 0E       		.uleb128 0xe
 2293 02e1 85020000 		.4byte	.LASF80
 2294 02e5 0A       		.byte	0xa
 2295 02e6 8E       		.byte	0x8e
 2296 02e7 11       		.byte	0x11
 2297 02e8 40030000 		.4byte	0x340
 2298 02ec 03       		.byte	0x3
 2299 02ed 23       		.byte	0x23
 2300 02ee 8004     		.uleb128 0x200
 2301 02f0 0E       		.uleb128 0xe
 2302 02f1 39020000 		.4byte	.LASF81
 2303 02f5 0A       		.byte	0xa
 2304 02f6 8F       		.byte	0x8f
 2305 02f7 11       		.byte	0x11
 2306 02f8 55030000 		.4byte	0x355
 2307 02fc 03       		.byte	0x3
 2308 02fd 23       		.byte	0x23
 2309 02fe A004     		.uleb128 0x220
 2310 0300 0F       		.uleb128 0xf
ARM GAS  /tmp/ccIXPZcX.s 			page 54


 2311 0301 495000   		.ascii	"IP\000"
 2312 0304 0A       		.byte	0xa
 2313 0305 90       		.byte	0x90
 2314 0306 11       		.byte	0x11
 2315 0307 75030000 		.4byte	0x375
 2316 030b 03       		.byte	0x3
 2317 030c 23       		.byte	0x23
 2318 030d 8006     		.uleb128 0x300
 2319 030f 0E       		.uleb128 0xe
 2320 0310 43020000 		.4byte	.LASF82
 2321 0314 0A       		.byte	0xa
 2322 0315 91       		.byte	0x91
 2323 0316 11       		.byte	0x11
 2324 0317 7A030000 		.4byte	0x37a
 2325 031b 03       		.byte	0x3
 2326 031c 23       		.byte	0x23
 2327 031d F007     		.uleb128 0x3f0
 2328 031f 0E       		.uleb128 0xe
 2329 0320 DD030000 		.4byte	.LASF83
 2330 0324 0A       		.byte	0xa
 2331 0325 92       		.byte	0x92
 2332 0326 11       		.byte	0x11
 2333 0327 C8000000 		.4byte	0xc8
 2334 032b 03       		.byte	0x3
 2335 032c 23       		.byte	0x23
 2336 032d 801C     		.uleb128 0xe00
 2337 032f 00       		.byte	0
 2338 0330 10       		.uleb128 0x10
 2339 0331 C8000000 		.4byte	0xc8
 2340 0335 40030000 		.4byte	0x340
 2341 0339 11       		.uleb128 0x11
 2342 033a 30000000 		.4byte	0x30
 2343 033e 07       		.byte	0x7
 2344 033f 00       		.byte	0
 2345 0340 05       		.uleb128 0x5
 2346 0341 30030000 		.4byte	0x330
 2347 0345 10       		.uleb128 0x10
 2348 0346 BC000000 		.4byte	0xbc
 2349 034a 55030000 		.4byte	0x355
 2350 034e 11       		.uleb128 0x11
 2351 034f 30000000 		.4byte	0x30
 2352 0353 17       		.byte	0x17
 2353 0354 00       		.byte	0
 2354 0355 10       		.uleb128 0x10
 2355 0356 BC000000 		.4byte	0xbc
 2356 035a 65030000 		.4byte	0x365
 2357 035e 11       		.uleb128 0x11
 2358 035f 30000000 		.4byte	0x30
 2359 0363 37       		.byte	0x37
 2360 0364 00       		.byte	0
 2361 0365 10       		.uleb128 0x10
 2362 0366 A6000000 		.4byte	0xa6
 2363 036a 75030000 		.4byte	0x375
 2364 036e 11       		.uleb128 0x11
 2365 036f 30000000 		.4byte	0x30
 2366 0373 EF       		.byte	0xef
 2367 0374 00       		.byte	0
ARM GAS  /tmp/ccIXPZcX.s 			page 55


 2368 0375 05       		.uleb128 0x5
 2369 0376 65030000 		.4byte	0x365
 2370 037a 10       		.uleb128 0x10
 2371 037b BC000000 		.4byte	0xbc
 2372 037f 8B030000 		.4byte	0x38b
 2373 0383 12       		.uleb128 0x12
 2374 0384 30000000 		.4byte	0x30
 2375 0388 8302     		.2byte	0x283
 2376 038a 00       		.byte	0
 2377 038b 04       		.uleb128 0x4
 2378 038c B1060000 		.4byte	.LASF84
 2379 0390 0A       		.byte	0xa
 2380 0391 93       		.byte	0x93
 2381 0392 04       		.byte	0x4
 2382 0393 58020000 		.4byte	0x258
 2383 0397 13       		.uleb128 0x13
 2384 0398 75333200 		.ascii	"u32\000"
 2385 039c 09       		.byte	0x9
 2386 039d F701     		.2byte	0x1f7
 2387 039f 13       		.byte	0x13
 2388 03a0 BC000000 		.4byte	0xbc
 2389 03a4 05       		.uleb128 0x5
 2390 03a5 97030000 		.4byte	0x397
 2391 03a9 13       		.uleb128 0x13
 2392 03aa 753800   		.ascii	"u8\000"
 2393 03ad 09       		.byte	0x9
 2394 03ae F901     		.2byte	0x1f9
 2395 03b0 12       		.byte	0x12
 2396 03b1 9A000000 		.4byte	0x9a
 2397 03b5 14       		.uleb128 0x14
 2398 03b6 07       		.byte	0x7
 2399 03b7 01       		.byte	0x1
 2400 03b8 58000000 		.4byte	0x58
 2401 03bc 09       		.byte	0x9
 2402 03bd 0702     		.2byte	0x207
 2403 03bf 0E       		.byte	0xe
 2404 03c0 D1030000 		.4byte	0x3d1
 2405 03c4 0B       		.uleb128 0xb
 2406 03c5 A9070000 		.4byte	.LASF85
 2407 03c9 00       		.byte	0
 2408 03ca 15       		.uleb128 0x15
 2409 03cb 53455400 		.ascii	"SET\000"
 2410 03cf 01       		.byte	0x1
 2411 03d0 00       		.byte	0
 2412 03d1 14       		.uleb128 0x14
 2413 03d2 07       		.byte	0x7
 2414 03d3 01       		.byte	0x1
 2415 03d4 58000000 		.4byte	0x58
 2416 03d8 09       		.byte	0x9
 2417 03d9 0902     		.2byte	0x209
 2418 03db 0E       		.byte	0xe
 2419 03dc ED030000 		.4byte	0x3ed
 2420 03e0 0B       		.uleb128 0xb
 2421 03e1 6D060000 		.4byte	.LASF86
 2422 03e5 00       		.byte	0
 2423 03e6 0B       		.uleb128 0xb
 2424 03e7 11090000 		.4byte	.LASF87
ARM GAS  /tmp/ccIXPZcX.s 			page 56


 2425 03eb 01       		.byte	0x1
 2426 03ec 00       		.byte	0
 2427 03ed 16       		.uleb128 0x16
 2428 03ee 50       		.byte	0x50
 2429 03ef 09       		.byte	0x9
 2430 03f0 1E02     		.2byte	0x21e
 2431 03f2 09       		.byte	0x9
 2432 03f3 36050000 		.4byte	0x536
 2433 03f7 17       		.uleb128 0x17
 2434 03f8 535200   		.ascii	"SR\000"
 2435 03fb 09       		.byte	0x9
 2436 03fc 2002     		.2byte	0x220
 2437 03fe 11       		.byte	0x11
 2438 03ff C8000000 		.4byte	0xc8
 2439 0403 02       		.byte	0x2
 2440 0404 23       		.byte	0x23
 2441 0405 00       		.uleb128 0
 2442 0406 17       		.uleb128 0x17
 2443 0407 43523100 		.ascii	"CR1\000"
 2444 040b 09       		.byte	0x9
 2445 040c 2102     		.2byte	0x221
 2446 040e 11       		.byte	0x11
 2447 040f C8000000 		.4byte	0xc8
 2448 0413 02       		.byte	0x2
 2449 0414 23       		.byte	0x23
 2450 0415 04       		.uleb128 0x4
 2451 0416 17       		.uleb128 0x17
 2452 0417 43523200 		.ascii	"CR2\000"
 2453 041b 09       		.byte	0x9
 2454 041c 2202     		.2byte	0x222
 2455 041e 11       		.byte	0x11
 2456 041f C8000000 		.4byte	0xc8
 2457 0423 02       		.byte	0x2
 2458 0424 23       		.byte	0x23
 2459 0425 08       		.uleb128 0x8
 2460 0426 18       		.uleb128 0x18
 2461 0427 ED040000 		.4byte	.LASF88
 2462 042b 09       		.byte	0x9
 2463 042c 2302     		.2byte	0x223
 2464 042e 11       		.byte	0x11
 2465 042f C8000000 		.4byte	0xc8
 2466 0433 02       		.byte	0x2
 2467 0434 23       		.byte	0x23
 2468 0435 0C       		.uleb128 0xc
 2469 0436 18       		.uleb128 0x18
 2470 0437 F3040000 		.4byte	.LASF89
 2471 043b 09       		.byte	0x9
 2472 043c 2402     		.2byte	0x224
 2473 043e 11       		.byte	0x11
 2474 043f C8000000 		.4byte	0xc8
 2475 0443 02       		.byte	0x2
 2476 0444 23       		.byte	0x23
 2477 0445 10       		.uleb128 0x10
 2478 0446 18       		.uleb128 0x18
 2479 0447 E3080000 		.4byte	.LASF90
 2480 044b 09       		.byte	0x9
 2481 044c 2502     		.2byte	0x225
ARM GAS  /tmp/ccIXPZcX.s 			page 57


 2482 044e 11       		.byte	0x11
 2483 044f C8000000 		.4byte	0xc8
 2484 0453 02       		.byte	0x2
 2485 0454 23       		.byte	0x23
 2486 0455 14       		.uleb128 0x14
 2487 0456 18       		.uleb128 0x18
 2488 0457 E9080000 		.4byte	.LASF91
 2489 045b 09       		.byte	0x9
 2490 045c 2602     		.2byte	0x226
 2491 045e 11       		.byte	0x11
 2492 045f C8000000 		.4byte	0xc8
 2493 0463 02       		.byte	0x2
 2494 0464 23       		.byte	0x23
 2495 0465 18       		.uleb128 0x18
 2496 0466 18       		.uleb128 0x18
 2497 0467 EF080000 		.4byte	.LASF92
 2498 046b 09       		.byte	0x9
 2499 046c 2702     		.2byte	0x227
 2500 046e 11       		.byte	0x11
 2501 046f C8000000 		.4byte	0xc8
 2502 0473 02       		.byte	0x2
 2503 0474 23       		.byte	0x23
 2504 0475 1C       		.uleb128 0x1c
 2505 0476 18       		.uleb128 0x18
 2506 0477 F5080000 		.4byte	.LASF93
 2507 047b 09       		.byte	0x9
 2508 047c 2802     		.2byte	0x228
 2509 047e 11       		.byte	0x11
 2510 047f C8000000 		.4byte	0xc8
 2511 0483 02       		.byte	0x2
 2512 0484 23       		.byte	0x23
 2513 0485 20       		.uleb128 0x20
 2514 0486 17       		.uleb128 0x17
 2515 0487 48545200 		.ascii	"HTR\000"
 2516 048b 09       		.byte	0x9
 2517 048c 2902     		.2byte	0x229
 2518 048e 11       		.byte	0x11
 2519 048f C8000000 		.4byte	0xc8
 2520 0493 02       		.byte	0x2
 2521 0494 23       		.byte	0x23
 2522 0495 24       		.uleb128 0x24
 2523 0496 17       		.uleb128 0x17
 2524 0497 4C545200 		.ascii	"LTR\000"
 2525 049b 09       		.byte	0x9
 2526 049c 2A02     		.2byte	0x22a
 2527 049e 11       		.byte	0x11
 2528 049f C8000000 		.4byte	0xc8
 2529 04a3 02       		.byte	0x2
 2530 04a4 23       		.byte	0x23
 2531 04a5 28       		.uleb128 0x28
 2532 04a6 18       		.uleb128 0x18
 2533 04a7 46000000 		.4byte	.LASF94
 2534 04ab 09       		.byte	0x9
 2535 04ac 2B02     		.2byte	0x22b
 2536 04ae 11       		.byte	0x11
 2537 04af C8000000 		.4byte	0xc8
 2538 04b3 02       		.byte	0x2
ARM GAS  /tmp/ccIXPZcX.s 			page 58


 2539 04b4 23       		.byte	0x23
 2540 04b5 2C       		.uleb128 0x2c
 2541 04b6 18       		.uleb128 0x18
 2542 04b7 4B000000 		.4byte	.LASF95
 2543 04bb 09       		.byte	0x9
 2544 04bc 2C02     		.2byte	0x22c
 2545 04be 11       		.byte	0x11
 2546 04bf C8000000 		.4byte	0xc8
 2547 04c3 02       		.byte	0x2
 2548 04c4 23       		.byte	0x23
 2549 04c5 30       		.uleb128 0x30
 2550 04c6 18       		.uleb128 0x18
 2551 04c7 50000000 		.4byte	.LASF96
 2552 04cb 09       		.byte	0x9
 2553 04cc 2D02     		.2byte	0x22d
 2554 04ce 11       		.byte	0x11
 2555 04cf C8000000 		.4byte	0xc8
 2556 04d3 02       		.byte	0x2
 2557 04d4 23       		.byte	0x23
 2558 04d5 34       		.uleb128 0x34
 2559 04d6 18       		.uleb128 0x18
 2560 04d7 EC090000 		.4byte	.LASF97
 2561 04db 09       		.byte	0x9
 2562 04dc 2E02     		.2byte	0x22e
 2563 04de 11       		.byte	0x11
 2564 04df C8000000 		.4byte	0xc8
 2565 04e3 02       		.byte	0x2
 2566 04e4 23       		.byte	0x23
 2567 04e5 38       		.uleb128 0x38
 2568 04e6 18       		.uleb128 0x18
 2569 04e7 B2090000 		.4byte	.LASF98
 2570 04eb 09       		.byte	0x9
 2571 04ec 2F02     		.2byte	0x22f
 2572 04ee 11       		.byte	0x11
 2573 04ef C8000000 		.4byte	0xc8
 2574 04f3 02       		.byte	0x2
 2575 04f4 23       		.byte	0x23
 2576 04f5 3C       		.uleb128 0x3c
 2577 04f6 18       		.uleb128 0x18
 2578 04f7 B7090000 		.4byte	.LASF99
 2579 04fb 09       		.byte	0x9
 2580 04fc 3002     		.2byte	0x230
 2581 04fe 11       		.byte	0x11
 2582 04ff C8000000 		.4byte	0xc8
 2583 0503 02       		.byte	0x2
 2584 0504 23       		.byte	0x23
 2585 0505 40       		.uleb128 0x40
 2586 0506 18       		.uleb128 0x18
 2587 0507 BC090000 		.4byte	.LASF100
 2588 050b 09       		.byte	0x9
 2589 050c 3102     		.2byte	0x231
 2590 050e 11       		.byte	0x11
 2591 050f C8000000 		.4byte	0xc8
 2592 0513 02       		.byte	0x2
 2593 0514 23       		.byte	0x23
 2594 0515 44       		.uleb128 0x44
 2595 0516 18       		.uleb128 0x18
ARM GAS  /tmp/ccIXPZcX.s 			page 59


 2596 0517 C1090000 		.4byte	.LASF101
 2597 051b 09       		.byte	0x9
 2598 051c 3202     		.2byte	0x232
 2599 051e 11       		.byte	0x11
 2600 051f C8000000 		.4byte	0xc8
 2601 0523 02       		.byte	0x2
 2602 0524 23       		.byte	0x23
 2603 0525 48       		.uleb128 0x48
 2604 0526 17       		.uleb128 0x17
 2605 0527 445200   		.ascii	"DR\000"
 2606 052a 09       		.byte	0x9
 2607 052b 3302     		.2byte	0x233
 2608 052d 11       		.byte	0x11
 2609 052e C8000000 		.4byte	0xc8
 2610 0532 02       		.byte	0x2
 2611 0533 23       		.byte	0x23
 2612 0534 4C       		.uleb128 0x4c
 2613 0535 00       		.byte	0
 2614 0536 0C       		.uleb128 0xc
 2615 0537 EF030000 		.4byte	.LASF102
 2616 053b 09       		.byte	0x9
 2617 053c 3402     		.2byte	0x234
 2618 053e 03       		.byte	0x3
 2619 053f ED030000 		.4byte	0x3ed
 2620 0543 16       		.uleb128 0x16
 2621 0544 24       		.byte	0x24
 2622 0545 09       		.byte	0x9
 2623 0546 8503     		.2byte	0x385
 2624 0548 09       		.byte	0x9
 2625 0549 DB050000 		.4byte	0x5db
 2626 054d 17       		.uleb128 0x17
 2627 054e 41435200 		.ascii	"ACR\000"
 2628 0552 09       		.byte	0x9
 2629 0553 8703     		.2byte	0x387
 2630 0555 11       		.byte	0x11
 2631 0556 C8000000 		.4byte	0xc8
 2632 055a 02       		.byte	0x2
 2633 055b 23       		.byte	0x23
 2634 055c 00       		.uleb128 0
 2635 055d 18       		.uleb128 0x18
 2636 055e 9F080000 		.4byte	.LASF103
 2637 0562 09       		.byte	0x9
 2638 0563 8803     		.2byte	0x388
 2639 0565 11       		.byte	0x11
 2640 0566 C8000000 		.4byte	0xc8
 2641 056a 02       		.byte	0x2
 2642 056b 23       		.byte	0x23
 2643 056c 04       		.uleb128 0x4
 2644 056d 18       		.uleb128 0x18
 2645 056e 5E040000 		.4byte	.LASF104
 2646 0572 09       		.byte	0x9
 2647 0573 8903     		.2byte	0x389
 2648 0575 11       		.byte	0x11
 2649 0576 C8000000 		.4byte	0xc8
 2650 057a 02       		.byte	0x2
 2651 057b 23       		.byte	0x23
 2652 057c 08       		.uleb128 0x8
ARM GAS  /tmp/ccIXPZcX.s 			page 60


 2653 057d 17       		.uleb128 0x17
 2654 057e 535200   		.ascii	"SR\000"
 2655 0581 09       		.byte	0x9
 2656 0582 8A03     		.2byte	0x38a
 2657 0584 11       		.byte	0x11
 2658 0585 C8000000 		.4byte	0xc8
 2659 0589 02       		.byte	0x2
 2660 058a 23       		.byte	0x23
 2661 058b 0C       		.uleb128 0xc
 2662 058c 17       		.uleb128 0x17
 2663 058d 435200   		.ascii	"CR\000"
 2664 0590 09       		.byte	0x9
 2665 0591 8B03     		.2byte	0x38b
 2666 0593 11       		.byte	0x11
 2667 0594 C8000000 		.4byte	0xc8
 2668 0598 02       		.byte	0x2
 2669 0599 23       		.byte	0x23
 2670 059a 10       		.uleb128 0x10
 2671 059b 17       		.uleb128 0x17
 2672 059c 415200   		.ascii	"AR\000"
 2673 059f 09       		.byte	0x9
 2674 05a0 8C03     		.2byte	0x38c
 2675 05a2 11       		.byte	0x11
 2676 05a3 C8000000 		.4byte	0xc8
 2677 05a7 02       		.byte	0x2
 2678 05a8 23       		.byte	0x23
 2679 05a9 14       		.uleb128 0x14
 2680 05aa 18       		.uleb128 0x18
 2681 05ab FB030000 		.4byte	.LASF105
 2682 05af 09       		.byte	0x9
 2683 05b0 8D03     		.2byte	0x38d
 2684 05b2 11       		.byte	0x11
 2685 05b3 C8000000 		.4byte	0xc8
 2686 05b7 02       		.byte	0x2
 2687 05b8 23       		.byte	0x23
 2688 05b9 18       		.uleb128 0x18
 2689 05ba 17       		.uleb128 0x17
 2690 05bb 4F425200 		.ascii	"OBR\000"
 2691 05bf 09       		.byte	0x9
 2692 05c0 8E03     		.2byte	0x38e
 2693 05c2 11       		.byte	0x11
 2694 05c3 C8000000 		.4byte	0xc8
 2695 05c7 02       		.byte	0x2
 2696 05c8 23       		.byte	0x23
 2697 05c9 1C       		.uleb128 0x1c
 2698 05ca 18       		.uleb128 0x18
 2699 05cb A0010000 		.4byte	.LASF106
 2700 05cf 09       		.byte	0x9
 2701 05d0 8F03     		.2byte	0x38f
 2702 05d2 11       		.byte	0x11
 2703 05d3 C8000000 		.4byte	0xc8
 2704 05d7 02       		.byte	0x2
 2705 05d8 23       		.byte	0x23
 2706 05d9 20       		.uleb128 0x20
 2707 05da 00       		.byte	0
 2708 05db 0C       		.uleb128 0xc
 2709 05dc 110A0000 		.4byte	.LASF107
ARM GAS  /tmp/ccIXPZcX.s 			page 61


 2710 05e0 09       		.byte	0x9
 2711 05e1 9803     		.2byte	0x398
 2712 05e3 03       		.byte	0x3
 2713 05e4 43050000 		.4byte	0x543
 2714 05e8 16       		.uleb128 0x16
 2715 05e9 1C       		.byte	0x1c
 2716 05ea 09       		.byte	0x9
 2717 05eb E903     		.2byte	0x3e9
 2718 05ed 09       		.byte	0x9
 2719 05ee 63060000 		.4byte	0x663
 2720 05f2 17       		.uleb128 0x17
 2721 05f3 43524C00 		.ascii	"CRL\000"
 2722 05f7 09       		.byte	0x9
 2723 05f8 EB03     		.2byte	0x3eb
 2724 05fa 11       		.byte	0x11
 2725 05fb C8000000 		.4byte	0xc8
 2726 05ff 02       		.byte	0x2
 2727 0600 23       		.byte	0x23
 2728 0601 00       		.uleb128 0
 2729 0602 17       		.uleb128 0x17
 2730 0603 43524800 		.ascii	"CRH\000"
 2731 0607 09       		.byte	0x9
 2732 0608 EC03     		.2byte	0x3ec
 2733 060a 11       		.byte	0x11
 2734 060b C8000000 		.4byte	0xc8
 2735 060f 02       		.byte	0x2
 2736 0610 23       		.byte	0x23
 2737 0611 04       		.uleb128 0x4
 2738 0612 17       		.uleb128 0x17
 2739 0613 49445200 		.ascii	"IDR\000"
 2740 0617 09       		.byte	0x9
 2741 0618 ED03     		.2byte	0x3ed
 2742 061a 11       		.byte	0x11
 2743 061b C8000000 		.4byte	0xc8
 2744 061f 02       		.byte	0x2
 2745 0620 23       		.byte	0x23
 2746 0621 08       		.uleb128 0x8
 2747 0622 17       		.uleb128 0x17
 2748 0623 4F445200 		.ascii	"ODR\000"
 2749 0627 09       		.byte	0x9
 2750 0628 EE03     		.2byte	0x3ee
 2751 062a 11       		.byte	0x11
 2752 062b C8000000 		.4byte	0xc8
 2753 062f 02       		.byte	0x2
 2754 0630 23       		.byte	0x23
 2755 0631 0C       		.uleb128 0xc
 2756 0632 18       		.uleb128 0x18
 2757 0633 AD090000 		.4byte	.LASF108
 2758 0637 09       		.byte	0x9
 2759 0638 EF03     		.2byte	0x3ef
 2760 063a 11       		.byte	0x11
 2761 063b C8000000 		.4byte	0xc8
 2762 063f 02       		.byte	0x2
 2763 0640 23       		.byte	0x23
 2764 0641 10       		.uleb128 0x10
 2765 0642 17       		.uleb128 0x17
 2766 0643 42525200 		.ascii	"BRR\000"
ARM GAS  /tmp/ccIXPZcX.s 			page 62


 2767 0647 09       		.byte	0x9
 2768 0648 F003     		.2byte	0x3f0
 2769 064a 11       		.byte	0x11
 2770 064b C8000000 		.4byte	0xc8
 2771 064f 02       		.byte	0x2
 2772 0650 23       		.byte	0x23
 2773 0651 14       		.uleb128 0x14
 2774 0652 18       		.uleb128 0x18
 2775 0653 23050000 		.4byte	.LASF109
 2776 0657 09       		.byte	0x9
 2777 0658 F103     		.2byte	0x3f1
 2778 065a 11       		.byte	0x11
 2779 065b C8000000 		.4byte	0xc8
 2780 065f 02       		.byte	0x2
 2781 0660 23       		.byte	0x23
 2782 0661 18       		.uleb128 0x18
 2783 0662 00       		.byte	0
 2784 0663 0C       		.uleb128 0xc
 2785 0664 F1090000 		.4byte	.LASF110
 2786 0668 09       		.byte	0x9
 2787 0669 F203     		.2byte	0x3f2
 2788 066b 03       		.byte	0x3
 2789 066c E8050000 		.4byte	0x5e8
 2790 0670 16       		.uleb128 0x16
 2791 0671 30       		.byte	0x30
 2792 0672 09       		.byte	0x9
 2793 0673 3404     		.2byte	0x434
 2794 0675 09       		.byte	0x9
 2795 0676 3A070000 		.4byte	0x73a
 2796 067a 17       		.uleb128 0x17
 2797 067b 435200   		.ascii	"CR\000"
 2798 067e 09       		.byte	0x9
 2799 067f 3604     		.2byte	0x436
 2800 0681 11       		.byte	0x11
 2801 0682 C8000000 		.4byte	0xc8
 2802 0686 02       		.byte	0x2
 2803 0687 23       		.byte	0x23
 2804 0688 00       		.uleb128 0
 2805 0689 18       		.uleb128 0x18
 2806 068a 13040000 		.4byte	.LASF111
 2807 068e 09       		.byte	0x9
 2808 068f 3704     		.2byte	0x437
 2809 0691 11       		.byte	0x11
 2810 0692 C8000000 		.4byte	0xc8
 2811 0696 02       		.byte	0x2
 2812 0697 23       		.byte	0x23
 2813 0698 04       		.uleb128 0x4
 2814 0699 17       		.uleb128 0x17
 2815 069a 43495200 		.ascii	"CIR\000"
 2816 069e 09       		.byte	0x9
 2817 069f 3804     		.2byte	0x438
 2818 06a1 11       		.byte	0x11
 2819 06a2 C8000000 		.4byte	0xc8
 2820 06a6 02       		.byte	0x2
 2821 06a7 23       		.byte	0x23
 2822 06a8 08       		.uleb128 0x8
 2823 06a9 18       		.uleb128 0x18
ARM GAS  /tmp/ccIXPZcX.s 			page 63


 2824 06aa A2050000 		.4byte	.LASF112
 2825 06ae 09       		.byte	0x9
 2826 06af 3904     		.2byte	0x439
 2827 06b1 11       		.byte	0x11
 2828 06b2 C8000000 		.4byte	0xc8
 2829 06b6 02       		.byte	0x2
 2830 06b7 23       		.byte	0x23
 2831 06b8 0C       		.uleb128 0xc
 2832 06b9 18       		.uleb128 0x18
 2833 06ba 93060000 		.4byte	.LASF113
 2834 06be 09       		.byte	0x9
 2835 06bf 3A04     		.2byte	0x43a
 2836 06c1 11       		.byte	0x11
 2837 06c2 C8000000 		.4byte	0xc8
 2838 06c6 02       		.byte	0x2
 2839 06c7 23       		.byte	0x23
 2840 06c8 10       		.uleb128 0x10
 2841 06c9 18       		.uleb128 0x18
 2842 06ca 26090000 		.4byte	.LASF114
 2843 06ce 09       		.byte	0x9
 2844 06cf 3B04     		.2byte	0x43b
 2845 06d1 11       		.byte	0x11
 2846 06d2 C8000000 		.4byte	0xc8
 2847 06d6 02       		.byte	0x2
 2848 06d7 23       		.byte	0x23
 2849 06d8 14       		.uleb128 0x14
 2850 06d9 18       		.uleb128 0x18
 2851 06da 67010000 		.4byte	.LASF115
 2852 06de 09       		.byte	0x9
 2853 06df 3C04     		.2byte	0x43c
 2854 06e1 11       		.byte	0x11
 2855 06e2 C8000000 		.4byte	0xc8
 2856 06e6 02       		.byte	0x2
 2857 06e7 23       		.byte	0x23
 2858 06e8 18       		.uleb128 0x18
 2859 06e9 18       		.uleb128 0x18
 2860 06ea 96040000 		.4byte	.LASF116
 2861 06ee 09       		.byte	0x9
 2862 06ef 3D04     		.2byte	0x43d
 2863 06f1 11       		.byte	0x11
 2864 06f2 C8000000 		.4byte	0xc8
 2865 06f6 02       		.byte	0x2
 2866 06f7 23       		.byte	0x23
 2867 06f8 1C       		.uleb128 0x1c
 2868 06f9 18       		.uleb128 0x18
 2869 06fa D8030000 		.4byte	.LASF117
 2870 06fe 09       		.byte	0x9
 2871 06ff 3E04     		.2byte	0x43e
 2872 0701 11       		.byte	0x11
 2873 0702 C8000000 		.4byte	0xc8
 2874 0706 02       		.byte	0x2
 2875 0707 23       		.byte	0x23
 2876 0708 20       		.uleb128 0x20
 2877 0709 17       		.uleb128 0x17
 2878 070a 43535200 		.ascii	"CSR\000"
 2879 070e 09       		.byte	0x9
 2880 070f 3F04     		.2byte	0x43f
ARM GAS  /tmp/ccIXPZcX.s 			page 64


 2881 0711 11       		.byte	0x11
 2882 0712 C8000000 		.4byte	0xc8
 2883 0716 02       		.byte	0x2
 2884 0717 23       		.byte	0x23
 2885 0718 24       		.uleb128 0x24
 2886 0719 18       		.uleb128 0x18
 2887 071a 3A050000 		.4byte	.LASF118
 2888 071e 09       		.byte	0x9
 2889 071f 4004     		.2byte	0x440
 2890 0721 11       		.byte	0x11
 2891 0722 C8000000 		.4byte	0xc8
 2892 0726 02       		.byte	0x2
 2893 0727 23       		.byte	0x23
 2894 0728 28       		.uleb128 0x28
 2895 0729 18       		.uleb128 0x18
 2896 072a F7050000 		.4byte	.LASF119
 2897 072e 09       		.byte	0x9
 2898 072f 4104     		.2byte	0x441
 2899 0731 11       		.byte	0x11
 2900 0732 C8000000 		.4byte	0xc8
 2901 0736 02       		.byte	0x2
 2902 0737 23       		.byte	0x23
 2903 0738 2C       		.uleb128 0x2c
 2904 0739 00       		.byte	0
 2905 073a 0C       		.uleb128 0xc
 2906 073b A4080000 		.4byte	.LASF120
 2907 073f 09       		.byte	0x9
 2908 0740 4204     		.2byte	0x442
 2909 0742 03       		.byte	0x3
 2910 0743 70060000 		.4byte	0x670
 2911 0747 16       		.uleb128 0x16
 2912 0748 50       		.byte	0x50
 2913 0749 09       		.byte	0x9
 2914 074a 9A04     		.2byte	0x49a
 2915 074c 09       		.byte	0x9
 2916 074d D1090000 		.4byte	0x9d1
 2917 0751 17       		.uleb128 0x17
 2918 0752 43523100 		.ascii	"CR1\000"
 2919 0756 09       		.byte	0x9
 2920 0757 9C04     		.2byte	0x49c
 2921 0759 11       		.byte	0x11
 2922 075a B7000000 		.4byte	0xb7
 2923 075e 02       		.byte	0x2
 2924 075f 23       		.byte	0x23
 2925 0760 00       		.uleb128 0
 2926 0761 18       		.uleb128 0x18
 2927 0762 0D020000 		.4byte	.LASF73
 2928 0766 09       		.byte	0x9
 2929 0767 9D04     		.2byte	0x49d
 2930 0769 0D       		.byte	0xd
 2931 076a AB000000 		.4byte	0xab
 2932 076e 02       		.byte	0x2
 2933 076f 23       		.byte	0x23
 2934 0770 02       		.uleb128 0x2
 2935 0771 17       		.uleb128 0x17
 2936 0772 43523200 		.ascii	"CR2\000"
 2937 0776 09       		.byte	0x9
ARM GAS  /tmp/ccIXPZcX.s 			page 65


 2938 0777 9E04     		.2byte	0x49e
 2939 0779 11       		.byte	0x11
 2940 077a B7000000 		.4byte	0xb7
 2941 077e 02       		.byte	0x2
 2942 077f 23       		.byte	0x23
 2943 0780 04       		.uleb128 0x4
 2944 0781 18       		.uleb128 0x18
 2945 0782 17020000 		.4byte	.LASF121
 2946 0786 09       		.byte	0x9
 2947 0787 9F04     		.2byte	0x49f
 2948 0789 0D       		.byte	0xd
 2949 078a AB000000 		.4byte	0xab
 2950 078e 02       		.byte	0x2
 2951 078f 23       		.byte	0x23
 2952 0790 06       		.uleb128 0x6
 2953 0791 18       		.uleb128 0x18
 2954 0792 93070000 		.4byte	.LASF122
 2955 0796 09       		.byte	0x9
 2956 0797 A004     		.2byte	0x4a0
 2957 0799 11       		.byte	0x11
 2958 079a B7000000 		.4byte	0xb7
 2959 079e 02       		.byte	0x2
 2960 079f 23       		.byte	0x23
 2961 07a0 08       		.uleb128 0x8
 2962 07a1 18       		.uleb128 0x18
 2963 07a2 DD020000 		.4byte	.LASF77
 2964 07a6 09       		.byte	0x9
 2965 07a7 A104     		.2byte	0x4a1
 2966 07a9 0D       		.byte	0xd
 2967 07aa AB000000 		.4byte	0xab
 2968 07ae 02       		.byte	0x2
 2969 07af 23       		.byte	0x23
 2970 07b0 0A       		.uleb128 0xa
 2971 07b1 18       		.uleb128 0x18
 2972 07b2 C7040000 		.4byte	.LASF123
 2973 07b6 09       		.byte	0x9
 2974 07b7 A204     		.2byte	0x4a2
 2975 07b9 11       		.byte	0x11
 2976 07ba B7000000 		.4byte	0xb7
 2977 07be 02       		.byte	0x2
 2978 07bf 23       		.byte	0x23
 2979 07c0 0C       		.uleb128 0xc
 2980 07c1 18       		.uleb128 0x18
 2981 07c2 2F020000 		.4byte	.LASF79
 2982 07c6 09       		.byte	0x9
 2983 07c7 A304     		.2byte	0x4a3
 2984 07c9 0D       		.byte	0xd
 2985 07ca AB000000 		.4byte	0xab
 2986 07ce 02       		.byte	0x2
 2987 07cf 23       		.byte	0x23
 2988 07d0 0E       		.uleb128 0xe
 2989 07d1 17       		.uleb128 0x17
 2990 07d2 535200   		.ascii	"SR\000"
 2991 07d5 09       		.byte	0x9
 2992 07d6 A404     		.2byte	0x4a4
 2993 07d8 11       		.byte	0x11
 2994 07d9 B7000000 		.4byte	0xb7
ARM GAS  /tmp/ccIXPZcX.s 			page 66


 2995 07dd 02       		.byte	0x2
 2996 07de 23       		.byte	0x23
 2997 07df 10       		.uleb128 0x10
 2998 07e0 18       		.uleb128 0x18
 2999 07e1 39020000 		.4byte	.LASF81
 3000 07e5 09       		.byte	0x9
 3001 07e6 A504     		.2byte	0x4a5
 3002 07e8 0D       		.byte	0xd
 3003 07e9 AB000000 		.4byte	0xab
 3004 07ed 02       		.byte	0x2
 3005 07ee 23       		.byte	0x23
 3006 07ef 12       		.uleb128 0x12
 3007 07f0 17       		.uleb128 0x17
 3008 07f1 45475200 		.ascii	"EGR\000"
 3009 07f5 09       		.byte	0x9
 3010 07f6 A604     		.2byte	0x4a6
 3011 07f8 11       		.byte	0x11
 3012 07f9 B7000000 		.4byte	0xb7
 3013 07fd 02       		.byte	0x2
 3014 07fe 23       		.byte	0x23
 3015 07ff 14       		.uleb128 0x14
 3016 0800 18       		.uleb128 0x18
 3017 0801 43020000 		.4byte	.LASF82
 3018 0805 09       		.byte	0x9
 3019 0806 A704     		.2byte	0x4a7
 3020 0808 0D       		.byte	0xd
 3021 0809 AB000000 		.4byte	0xab
 3022 080d 02       		.byte	0x2
 3023 080e 23       		.byte	0x23
 3024 080f 16       		.uleb128 0x16
 3025 0810 18       		.uleb128 0x18
 3026 0811 04030000 		.4byte	.LASF124
 3027 0815 09       		.byte	0x9
 3028 0816 A804     		.2byte	0x4a8
 3029 0818 11       		.byte	0x11
 3030 0819 B7000000 		.4byte	0xb7
 3031 081d 02       		.byte	0x2
 3032 081e 23       		.byte	0x23
 3033 081f 18       		.uleb128 0x18
 3034 0820 18       		.uleb128 0x18
 3035 0821 4D020000 		.4byte	.LASF125
 3036 0825 09       		.byte	0x9
 3037 0826 A904     		.2byte	0x4a9
 3038 0828 0D       		.byte	0xd
 3039 0829 AB000000 		.4byte	0xab
 3040 082d 02       		.byte	0x2
 3041 082e 23       		.byte	0x23
 3042 082f 1A       		.uleb128 0x1a
 3043 0830 18       		.uleb128 0x18
 3044 0831 17060000 		.4byte	.LASF126
 3045 0835 09       		.byte	0x9
 3046 0836 AA04     		.2byte	0x4aa
 3047 0838 11       		.byte	0x11
 3048 0839 B7000000 		.4byte	0xb7
 3049 083d 02       		.byte	0x2
 3050 083e 23       		.byte	0x23
 3051 083f 1C       		.uleb128 0x1c
ARM GAS  /tmp/ccIXPZcX.s 			page 67


 3052 0840 18       		.uleb128 0x18
 3053 0841 57020000 		.4byte	.LASF127
 3054 0845 09       		.byte	0x9
 3055 0846 AB04     		.2byte	0x4ab
 3056 0848 0D       		.byte	0xd
 3057 0849 AB000000 		.4byte	0xab
 3058 084d 02       		.byte	0x2
 3059 084e 23       		.byte	0x23
 3060 084f 1E       		.uleb128 0x1e
 3061 0850 18       		.uleb128 0x18
 3062 0851 F4060000 		.4byte	.LASF128
 3063 0855 09       		.byte	0x9
 3064 0856 AC04     		.2byte	0x4ac
 3065 0858 11       		.byte	0x11
 3066 0859 B7000000 		.4byte	0xb7
 3067 085d 02       		.byte	0x2
 3068 085e 23       		.byte	0x23
 3069 085f 20       		.uleb128 0x20
 3070 0860 18       		.uleb128 0x18
 3071 0861 61020000 		.4byte	.LASF129
 3072 0865 09       		.byte	0x9
 3073 0866 AD04     		.2byte	0x4ad
 3074 0868 0D       		.byte	0xd
 3075 0869 AB000000 		.4byte	0xab
 3076 086d 02       		.byte	0x2
 3077 086e 23       		.byte	0x23
 3078 086f 22       		.uleb128 0x22
 3079 0870 17       		.uleb128 0x17
 3080 0871 434E5400 		.ascii	"CNT\000"
 3081 0875 09       		.byte	0x9
 3082 0876 AE04     		.2byte	0x4ae
 3083 0878 11       		.byte	0x11
 3084 0879 B7000000 		.4byte	0xb7
 3085 087d 02       		.byte	0x2
 3086 087e 23       		.byte	0x23
 3087 087f 24       		.uleb128 0x24
 3088 0880 18       		.uleb128 0x18
 3089 0881 6B020000 		.4byte	.LASF130
 3090 0885 09       		.byte	0x9
 3091 0886 AF04     		.2byte	0x4af
 3092 0888 0D       		.byte	0xd
 3093 0889 AB000000 		.4byte	0xab
 3094 088d 02       		.byte	0x2
 3095 088e 23       		.byte	0x23
 3096 088f 26       		.uleb128 0x26
 3097 0890 17       		.uleb128 0x17
 3098 0891 50534300 		.ascii	"PSC\000"
 3099 0895 09       		.byte	0x9
 3100 0896 B004     		.2byte	0x4b0
 3101 0898 11       		.byte	0x11
 3102 0899 B7000000 		.4byte	0xb7
 3103 089d 02       		.byte	0x2
 3104 089e 23       		.byte	0x23
 3105 089f 28       		.uleb128 0x28
 3106 08a0 18       		.uleb128 0x18
 3107 08a1 B90A0000 		.4byte	.LASF131
 3108 08a5 09       		.byte	0x9
ARM GAS  /tmp/ccIXPZcX.s 			page 68


 3109 08a6 B104     		.2byte	0x4b1
 3110 08a8 0D       		.byte	0xd
 3111 08a9 AB000000 		.4byte	0xab
 3112 08ad 02       		.byte	0x2
 3113 08ae 23       		.byte	0x23
 3114 08af 2A       		.uleb128 0x2a
 3115 08b0 17       		.uleb128 0x17
 3116 08b1 41525200 		.ascii	"ARR\000"
 3117 08b5 09       		.byte	0x9
 3118 08b6 B204     		.2byte	0x4b2
 3119 08b8 11       		.byte	0x11
 3120 08b9 B7000000 		.4byte	0xb7
 3121 08bd 02       		.byte	0x2
 3122 08be 23       		.byte	0x23
 3123 08bf 2C       		.uleb128 0x2c
 3124 08c0 18       		.uleb128 0x18
 3125 08c1 C40A0000 		.4byte	.LASF132
 3126 08c5 09       		.byte	0x9
 3127 08c6 B304     		.2byte	0x4b3
 3128 08c8 0D       		.byte	0xd
 3129 08c9 AB000000 		.4byte	0xab
 3130 08cd 02       		.byte	0x2
 3131 08ce 23       		.byte	0x23
 3132 08cf 2E       		.uleb128 0x2e
 3133 08d0 17       		.uleb128 0x17
 3134 08d1 52435200 		.ascii	"RCR\000"
 3135 08d5 09       		.byte	0x9
 3136 08d6 B404     		.2byte	0x4b4
 3137 08d8 11       		.byte	0x11
 3138 08d9 B7000000 		.4byte	0xb7
 3139 08dd 02       		.byte	0x2
 3140 08de 23       		.byte	0x23
 3141 08df 30       		.uleb128 0x30
 3142 08e0 18       		.uleb128 0x18
 3143 08e1 F9060000 		.4byte	.LASF133
 3144 08e5 09       		.byte	0x9
 3145 08e6 B504     		.2byte	0x4b5
 3146 08e8 0D       		.byte	0xd
 3147 08e9 AB000000 		.4byte	0xab
 3148 08ed 02       		.byte	0x2
 3149 08ee 23       		.byte	0x23
 3150 08ef 32       		.uleb128 0x32
 3151 08f0 18       		.uleb128 0x18
 3152 08f1 C5000000 		.4byte	.LASF134
 3153 08f5 09       		.byte	0x9
 3154 08f6 B604     		.2byte	0x4b6
 3155 08f8 11       		.byte	0x11
 3156 08f9 B7000000 		.4byte	0xb7
 3157 08fd 02       		.byte	0x2
 3158 08fe 23       		.byte	0x23
 3159 08ff 34       		.uleb128 0x34
 3160 0900 18       		.uleb128 0x18
 3161 0901 5C010000 		.4byte	.LASF135
 3162 0905 09       		.byte	0x9
 3163 0906 B704     		.2byte	0x4b7
 3164 0908 0D       		.byte	0xd
 3165 0909 AB000000 		.4byte	0xab
ARM GAS  /tmp/ccIXPZcX.s 			page 69


 3166 090d 02       		.byte	0x2
 3167 090e 23       		.byte	0x23
 3168 090f 36       		.uleb128 0x36
 3169 0910 18       		.uleb128 0x18
 3170 0911 CA000000 		.4byte	.LASF136
 3171 0915 09       		.byte	0x9
 3172 0916 B804     		.2byte	0x4b8
 3173 0918 11       		.byte	0x11
 3174 0919 B7000000 		.4byte	0xb7
 3175 091d 02       		.byte	0x2
 3176 091e 23       		.byte	0x23
 3177 091f 38       		.uleb128 0x38
 3178 0920 18       		.uleb128 0x18
 3179 0921 10070000 		.4byte	.LASF137
 3180 0925 09       		.byte	0x9
 3181 0926 B904     		.2byte	0x4b9
 3182 0928 0D       		.byte	0xd
 3183 0929 AB000000 		.4byte	0xab
 3184 092d 02       		.byte	0x2
 3185 092e 23       		.byte	0x23
 3186 092f 3A       		.uleb128 0x3a
 3187 0930 18       		.uleb128 0x18
 3188 0931 CF000000 		.4byte	.LASF138
 3189 0935 09       		.byte	0x9
 3190 0936 BA04     		.2byte	0x4ba
 3191 0938 11       		.byte	0x11
 3192 0939 B7000000 		.4byte	0xb7
 3193 093d 02       		.byte	0x2
 3194 093e 23       		.byte	0x23
 3195 093f 3C       		.uleb128 0x3c
 3196 0940 18       		.uleb128 0x18
 3197 0941 1B070000 		.4byte	.LASF139
 3198 0945 09       		.byte	0x9
 3199 0946 BB04     		.2byte	0x4bb
 3200 0948 0D       		.byte	0xd
 3201 0949 AB000000 		.4byte	0xab
 3202 094d 02       		.byte	0x2
 3203 094e 23       		.byte	0x23
 3204 094f 3E       		.uleb128 0x3e
 3205 0950 18       		.uleb128 0x18
 3206 0951 D4000000 		.4byte	.LASF140
 3207 0955 09       		.byte	0x9
 3208 0956 BC04     		.2byte	0x4bc
 3209 0958 11       		.byte	0x11
 3210 0959 B7000000 		.4byte	0xb7
 3211 095d 02       		.byte	0x2
 3212 095e 23       		.byte	0x23
 3213 095f 40       		.uleb128 0x40
 3214 0960 18       		.uleb128 0x18
 3215 0961 26070000 		.4byte	.LASF141
 3216 0965 09       		.byte	0x9
 3217 0966 BD04     		.2byte	0x4bd
 3218 0968 0D       		.byte	0xd
 3219 0969 AB000000 		.4byte	0xab
 3220 096d 02       		.byte	0x2
 3221 096e 23       		.byte	0x23
 3222 096f 42       		.uleb128 0x42
ARM GAS  /tmp/ccIXPZcX.s 			page 70


 3223 0970 18       		.uleb128 0x18
 3224 0971 1F0A0000 		.4byte	.LASF142
 3225 0975 09       		.byte	0x9
 3226 0976 BE04     		.2byte	0x4be
 3227 0978 11       		.byte	0x11
 3228 0979 B7000000 		.4byte	0xb7
 3229 097d 02       		.byte	0x2
 3230 097e 23       		.byte	0x23
 3231 097f 44       		.uleb128 0x44
 3232 0980 18       		.uleb128 0x18
 3233 0981 31070000 		.4byte	.LASF143
 3234 0985 09       		.byte	0x9
 3235 0986 BF04     		.2byte	0x4bf
 3236 0988 0D       		.byte	0xd
 3237 0989 AB000000 		.4byte	0xab
 3238 098d 02       		.byte	0x2
 3239 098e 23       		.byte	0x23
 3240 098f 46       		.uleb128 0x46
 3241 0990 17       		.uleb128 0x17
 3242 0991 44435200 		.ascii	"DCR\000"
 3243 0995 09       		.byte	0x9
 3244 0996 C004     		.2byte	0x4c0
 3245 0998 11       		.byte	0x11
 3246 0999 B7000000 		.4byte	0xb7
 3247 099d 02       		.byte	0x2
 3248 099e 23       		.byte	0x23
 3249 099f 48       		.uleb128 0x48
 3250 09a0 18       		.uleb128 0x18
 3251 09a1 3C070000 		.4byte	.LASF144
 3252 09a5 09       		.byte	0x9
 3253 09a6 C104     		.2byte	0x4c1
 3254 09a8 0D       		.byte	0xd
 3255 09a9 AB000000 		.4byte	0xab
 3256 09ad 02       		.byte	0x2
 3257 09ae 23       		.byte	0x23
 3258 09af 4A       		.uleb128 0x4a
 3259 09b0 18       		.uleb128 0x18
 3260 09b1 BB000000 		.4byte	.LASF145
 3261 09b5 09       		.byte	0x9
 3262 09b6 C204     		.2byte	0x4c2
 3263 09b8 11       		.byte	0x11
 3264 09b9 B7000000 		.4byte	0xb7
 3265 09bd 02       		.byte	0x2
 3266 09be 23       		.byte	0x23
 3267 09bf 4C       		.uleb128 0x4c
 3268 09c0 18       		.uleb128 0x18
 3269 09c1 47070000 		.4byte	.LASF146
 3270 09c5 09       		.byte	0x9
 3271 09c6 C304     		.2byte	0x4c3
 3272 09c8 0D       		.byte	0xd
 3273 09c9 AB000000 		.4byte	0xab
 3274 09cd 02       		.byte	0x2
 3275 09ce 23       		.byte	0x23
 3276 09cf 4E       		.uleb128 0x4e
 3277 09d0 00       		.byte	0
 3278 09d1 0C       		.uleb128 0xc
 3279 09d2 E4010000 		.4byte	.LASF147
ARM GAS  /tmp/ccIXPZcX.s 			page 71


 3280 09d6 09       		.byte	0x9
 3281 09d7 C404     		.2byte	0x4c4
 3282 09d9 03       		.byte	0x3
 3283 09da 47070000 		.4byte	0x747
 3284 09de 16       		.uleb128 0x16
 3285 09df 1C       		.byte	0x1c
 3286 09e0 09       		.byte	0x9
 3287 09e1 CA04     		.2byte	0x4ca
 3288 09e3 09       		.byte	0x9
 3289 09e4 C70A0000 		.4byte	0xac7
 3290 09e8 17       		.uleb128 0x17
 3291 09e9 535200   		.ascii	"SR\000"
 3292 09ec 09       		.byte	0x9
 3293 09ed CC04     		.2byte	0x4cc
 3294 09ef 11       		.byte	0x11
 3295 09f0 B7000000 		.4byte	0xb7
 3296 09f4 02       		.byte	0x2
 3297 09f5 23       		.byte	0x23
 3298 09f6 00       		.uleb128 0
 3299 09f7 18       		.uleb128 0x18
 3300 09f8 0D020000 		.4byte	.LASF73
 3301 09fc 09       		.byte	0x9
 3302 09fd CD04     		.2byte	0x4cd
 3303 09ff 0D       		.byte	0xd
 3304 0a00 AB000000 		.4byte	0xab
 3305 0a04 02       		.byte	0x2
 3306 0a05 23       		.byte	0x23
 3307 0a06 02       		.uleb128 0x2
 3308 0a07 17       		.uleb128 0x17
 3309 0a08 445200   		.ascii	"DR\000"
 3310 0a0b 09       		.byte	0x9
 3311 0a0c CE04     		.2byte	0x4ce
 3312 0a0e 11       		.byte	0x11
 3313 0a0f B7000000 		.4byte	0xb7
 3314 0a13 02       		.byte	0x2
 3315 0a14 23       		.byte	0x23
 3316 0a15 04       		.uleb128 0x4
 3317 0a16 18       		.uleb128 0x18
 3318 0a17 17020000 		.4byte	.LASF121
 3319 0a1b 09       		.byte	0x9
 3320 0a1c CF04     		.2byte	0x4cf
 3321 0a1e 0D       		.byte	0xd
 3322 0a1f AB000000 		.4byte	0xab
 3323 0a23 02       		.byte	0x2
 3324 0a24 23       		.byte	0x23
 3325 0a25 06       		.uleb128 0x6
 3326 0a26 17       		.uleb128 0x17
 3327 0a27 42525200 		.ascii	"BRR\000"
 3328 0a2b 09       		.byte	0x9
 3329 0a2c D004     		.2byte	0x4d0
 3330 0a2e 11       		.byte	0x11
 3331 0a2f B7000000 		.4byte	0xb7
 3332 0a33 02       		.byte	0x2
 3333 0a34 23       		.byte	0x23
 3334 0a35 08       		.uleb128 0x8
 3335 0a36 18       		.uleb128 0x18
 3336 0a37 DD020000 		.4byte	.LASF77
ARM GAS  /tmp/ccIXPZcX.s 			page 72


 3337 0a3b 09       		.byte	0x9
 3338 0a3c D104     		.2byte	0x4d1
 3339 0a3e 0D       		.byte	0xd
 3340 0a3f AB000000 		.4byte	0xab
 3341 0a43 02       		.byte	0x2
 3342 0a44 23       		.byte	0x23
 3343 0a45 0A       		.uleb128 0xa
 3344 0a46 17       		.uleb128 0x17
 3345 0a47 43523100 		.ascii	"CR1\000"
 3346 0a4b 09       		.byte	0x9
 3347 0a4c D204     		.2byte	0x4d2
 3348 0a4e 11       		.byte	0x11
 3349 0a4f B7000000 		.4byte	0xb7
 3350 0a53 02       		.byte	0x2
 3351 0a54 23       		.byte	0x23
 3352 0a55 0C       		.uleb128 0xc
 3353 0a56 18       		.uleb128 0x18
 3354 0a57 2F020000 		.4byte	.LASF79
 3355 0a5b 09       		.byte	0x9
 3356 0a5c D304     		.2byte	0x4d3
 3357 0a5e 0D       		.byte	0xd
 3358 0a5f AB000000 		.4byte	0xab
 3359 0a63 02       		.byte	0x2
 3360 0a64 23       		.byte	0x23
 3361 0a65 0E       		.uleb128 0xe
 3362 0a66 17       		.uleb128 0x17
 3363 0a67 43523200 		.ascii	"CR2\000"
 3364 0a6b 09       		.byte	0x9
 3365 0a6c D404     		.2byte	0x4d4
 3366 0a6e 11       		.byte	0x11
 3367 0a6f B7000000 		.4byte	0xb7
 3368 0a73 02       		.byte	0x2
 3369 0a74 23       		.byte	0x23
 3370 0a75 10       		.uleb128 0x10
 3371 0a76 18       		.uleb128 0x18
 3372 0a77 39020000 		.4byte	.LASF81
 3373 0a7b 09       		.byte	0x9
 3374 0a7c D504     		.2byte	0x4d5
 3375 0a7e 0D       		.byte	0xd
 3376 0a7f AB000000 		.4byte	0xab
 3377 0a83 02       		.byte	0x2
 3378 0a84 23       		.byte	0x23
 3379 0a85 12       		.uleb128 0x12
 3380 0a86 17       		.uleb128 0x17
 3381 0a87 43523300 		.ascii	"CR3\000"
 3382 0a8b 09       		.byte	0x9
 3383 0a8c D604     		.2byte	0x4d6
 3384 0a8e 11       		.byte	0x11
 3385 0a8f B7000000 		.4byte	0xb7
 3386 0a93 02       		.byte	0x2
 3387 0a94 23       		.byte	0x23
 3388 0a95 14       		.uleb128 0x14
 3389 0a96 18       		.uleb128 0x18
 3390 0a97 43020000 		.4byte	.LASF82
 3391 0a9b 09       		.byte	0x9
 3392 0a9c D704     		.2byte	0x4d7
 3393 0a9e 0D       		.byte	0xd
ARM GAS  /tmp/ccIXPZcX.s 			page 73


 3394 0a9f AB000000 		.4byte	0xab
 3395 0aa3 02       		.byte	0x2
 3396 0aa4 23       		.byte	0x23
 3397 0aa5 16       		.uleb128 0x16
 3398 0aa6 18       		.uleb128 0x18
 3399 0aa7 67000000 		.4byte	.LASF148
 3400 0aab 09       		.byte	0x9
 3401 0aac D804     		.2byte	0x4d8
 3402 0aae 11       		.byte	0x11
 3403 0aaf B7000000 		.4byte	0xb7
 3404 0ab3 02       		.byte	0x2
 3405 0ab4 23       		.byte	0x23
 3406 0ab5 18       		.uleb128 0x18
 3407 0ab6 18       		.uleb128 0x18
 3408 0ab7 4D020000 		.4byte	.LASF125
 3409 0abb 09       		.byte	0x9
 3410 0abc D904     		.2byte	0x4d9
 3411 0abe 0D       		.byte	0xd
 3412 0abf AB000000 		.4byte	0xab
 3413 0ac3 02       		.byte	0x2
 3414 0ac4 23       		.byte	0x23
 3415 0ac5 1A       		.uleb128 0x1a
 3416 0ac6 00       		.byte	0
 3417 0ac7 0C       		.uleb128 0xc
 3418 0ac8 86030000 		.4byte	.LASF149
 3419 0acc 09       		.byte	0x9
 3420 0acd DA04     		.2byte	0x4da
 3421 0acf 03       		.byte	0x3
 3422 0ad0 DE090000 		.4byte	0x9de
 3423 0ad4 19       		.uleb128 0x19
 3424 0ad5 07       		.byte	0x7
 3425 0ad6 01       		.byte	0x1
 3426 0ad7 58000000 		.4byte	0x58
 3427 0adb 0B       		.byte	0xb
 3428 0adc 3B       		.byte	0x3b
 3429 0add 01       		.byte	0x1
 3430 0ade F50A0000 		.4byte	0xaf5
 3431 0ae2 0B       		.uleb128 0xb
 3432 0ae3 8A0A0000 		.4byte	.LASF150
 3433 0ae7 01       		.byte	0x1
 3434 0ae8 0B       		.uleb128 0xb
 3435 0ae9 EC070000 		.4byte	.LASF151
 3436 0aed 02       		.byte	0x2
 3437 0aee 0B       		.uleb128 0xb
 3438 0aef 75030000 		.4byte	.LASF152
 3439 0af3 03       		.byte	0x3
 3440 0af4 00       		.byte	0
 3441 0af5 04       		.uleb128 0x4
 3442 0af6 FC070000 		.4byte	.LASF153
 3443 0afa 0B       		.byte	0xb
 3444 0afb 3F       		.byte	0x3f
 3445 0afc 02       		.byte	0x2
 3446 0afd D40A0000 		.4byte	0xad4
 3447 0b01 19       		.uleb128 0x19
 3448 0b02 07       		.byte	0x7
 3449 0b03 01       		.byte	0x1
 3450 0b04 58000000 		.4byte	0x58
ARM GAS  /tmp/ccIXPZcX.s 			page 74


 3451 0b08 0B       		.byte	0xb
 3452 0b09 48       		.byte	0x48
 3453 0b0a 01       		.byte	0x1
 3454 0b0b 400B0000 		.4byte	0xb40
 3455 0b0f 0B       		.uleb128 0xb
 3456 0b10 24010000 		.4byte	.LASF154
 3457 0b14 00       		.byte	0
 3458 0b15 0B       		.uleb128 0xb
 3459 0b16 C3080000 		.4byte	.LASF155
 3460 0b1a 04       		.byte	0x4
 3461 0b1b 0B       		.uleb128 0xb
 3462 0b1c 550B0000 		.4byte	.LASF156
 3463 0b20 28       		.byte	0x28
 3464 0b21 0B       		.uleb128 0xb
 3465 0b22 14000000 		.4byte	.LASF157
 3466 0b26 48       		.byte	0x48
 3467 0b27 0B       		.uleb128 0xb
 3468 0b28 3A030000 		.4byte	.LASF158
 3469 0b2c 14       		.byte	0x14
 3470 0b2d 0B       		.uleb128 0xb
 3471 0b2e 3B040000 		.4byte	.LASF159
 3472 0b32 10       		.byte	0x10
 3473 0b33 0B       		.uleb128 0xb
 3474 0b34 83010000 		.4byte	.LASF160
 3475 0b38 1C       		.byte	0x1c
 3476 0b39 0B       		.uleb128 0xb
 3477 0b3a 75020000 		.4byte	.LASF161
 3478 0b3e 18       		.byte	0x18
 3479 0b3f 00       		.byte	0
 3480 0b40 04       		.uleb128 0x4
 3481 0b41 98070000 		.4byte	.LASF162
 3482 0b45 0B       		.byte	0xb
 3483 0b46 50       		.byte	0x50
 3484 0b47 02       		.byte	0x2
 3485 0b48 010B0000 		.4byte	0xb01
 3486 0b4c 1A       		.uleb128 0x1a
 3487 0b4d 04       		.byte	0x4
 3488 0b4e 0B       		.byte	0xb
 3489 0b4f 5B       		.byte	0x5b
 3490 0b50 09       		.byte	0x9
 3491 0b51 830B0000 		.4byte	0xb83
 3492 0b55 0E       		.uleb128 0xe
 3493 0b56 20080000 		.4byte	.LASF163
 3494 0b5a 0B       		.byte	0xb
 3495 0b5b 5D       		.byte	0x5d
 3496 0b5c 0C       		.byte	0xc
 3497 0b5d AB000000 		.4byte	0xab
 3498 0b61 02       		.byte	0x2
 3499 0b62 23       		.byte	0x23
 3500 0b63 00       		.uleb128 0
 3501 0b64 0E       		.uleb128 0xe
 3502 0b65 ED000000 		.4byte	.LASF164
 3503 0b69 0B       		.byte	0xb
 3504 0b6a 60       		.byte	0x60
 3505 0b6b 15       		.byte	0x15
 3506 0b6c F50A0000 		.4byte	0xaf5
 3507 0b70 02       		.byte	0x2
ARM GAS  /tmp/ccIXPZcX.s 			page 75


 3508 0b71 23       		.byte	0x23
 3509 0b72 02       		.uleb128 0x2
 3510 0b73 0E       		.uleb128 0xe
 3511 0b74 6F070000 		.4byte	.LASF165
 3512 0b78 0B       		.byte	0xb
 3513 0b79 63       		.byte	0x63
 3514 0b7a 14       		.byte	0x14
 3515 0b7b 400B0000 		.4byte	0xb40
 3516 0b7f 02       		.byte	0x2
 3517 0b80 23       		.byte	0x23
 3518 0b81 03       		.uleb128 0x3
 3519 0b82 00       		.byte	0
 3520 0b83 04       		.uleb128 0x4
 3521 0b84 D3010000 		.4byte	.LASF166
 3522 0b88 0B       		.byte	0xb
 3523 0b89 65       		.byte	0x65
 3524 0b8a 02       		.byte	0x2
 3525 0b8b 4C0B0000 		.4byte	0xb4c
 3526 0b8f 1A       		.uleb128 0x1a
 3527 0b90 10       		.byte	0x10
 3528 0b91 0C       		.byte	0xc
 3529 0b92 32       		.byte	0x32
 3530 0b93 09       		.byte	0x9
 3531 0b94 F30B0000 		.4byte	0xbf3
 3532 0b98 0E       		.uleb128 0xe
 3533 0b99 04040000 		.4byte	.LASF167
 3534 0b9d 0C       		.byte	0xc
 3535 0b9e 34       		.byte	0x34
 3536 0b9f 0C       		.byte	0xc
 3537 0ba0 BC000000 		.4byte	0xbc
 3538 0ba4 02       		.byte	0x2
 3539 0ba5 23       		.byte	0x23
 3540 0ba6 00       		.uleb128 0
 3541 0ba7 0E       		.uleb128 0xe
 3542 0ba8 8A020000 		.4byte	.LASF168
 3543 0bac 0C       		.byte	0xc
 3544 0bad 39       		.byte	0x39
 3545 0bae 0C       		.byte	0xc
 3546 0baf AB000000 		.4byte	0xab
 3547 0bb3 02       		.byte	0x2
 3548 0bb4 23       		.byte	0x23
 3549 0bb5 04       		.uleb128 0x4
 3550 0bb6 0E       		.uleb128 0xe
 3551 0bb7 14050000 		.4byte	.LASF169
 3552 0bbb 0C       		.byte	0xc
 3553 0bbc 3C       		.byte	0x3c
 3554 0bbd 0C       		.byte	0xc
 3555 0bbe AB000000 		.4byte	0xab
 3556 0bc2 02       		.byte	0x2
 3557 0bc3 23       		.byte	0x23
 3558 0bc4 06       		.uleb128 0x6
 3559 0bc5 0E       		.uleb128 0xe
 3560 0bc6 E7020000 		.4byte	.LASF170
 3561 0bca 0C       		.byte	0xc
 3562 0bcb 3F       		.byte	0x3f
 3563 0bcc 0C       		.byte	0xc
 3564 0bcd AB000000 		.4byte	0xab
ARM GAS  /tmp/ccIXPZcX.s 			page 76


 3565 0bd1 02       		.byte	0x2
 3566 0bd2 23       		.byte	0x23
 3567 0bd3 08       		.uleb128 0x8
 3568 0bd4 0E       		.uleb128 0xe
 3569 0bd5 18040000 		.4byte	.LASF171
 3570 0bd9 0C       		.byte	0xc
 3571 0bda 46       		.byte	0x46
 3572 0bdb 0C       		.byte	0xc
 3573 0bdc AB000000 		.4byte	0xab
 3574 0be0 02       		.byte	0x2
 3575 0be1 23       		.byte	0x23
 3576 0be2 0A       		.uleb128 0xa
 3577 0be3 0E       		.uleb128 0xe
 3578 0be4 540A0000 		.4byte	.LASF172
 3579 0be8 0C       		.byte	0xc
 3580 0be9 49       		.byte	0x49
 3581 0bea 0C       		.byte	0xc
 3582 0beb AB000000 		.4byte	0xab
 3583 0bef 02       		.byte	0x2
 3584 0bf0 23       		.byte	0x23
 3585 0bf1 0C       		.uleb128 0xc
 3586 0bf2 00       		.byte	0
 3587 0bf3 04       		.uleb128 0x4
 3588 0bf4 B9070000 		.4byte	.LASF173
 3589 0bf8 0C       		.byte	0xc
 3590 0bf9 4C       		.byte	0x4c
 3591 0bfa 03       		.byte	0x3
 3592 0bfb 8F0B0000 		.4byte	0xb8f
 3593 0bff 07       		.uleb128 0x7
 3594 0c00 04       		.byte	0x4
 3595 0c01 E7000000 		.4byte	0xe7
 3596 0c05 03       		.uleb128 0x3
 3597 0c06 04       		.byte	0x4
 3598 0c07 04       		.byte	0x4
 3599 0c08 CD050000 		.4byte	.LASF174
 3600 0c0c 03       		.uleb128 0x3
 3601 0c0d 08       		.byte	0x8
 3602 0c0e 04       		.byte	0x4
 3603 0c0f 8F050000 		.4byte	.LASF175
 3604 0c13 1B       		.uleb128 0x1b
 3605 0c14 94030000 		.4byte	.LASF176
 3606 0c18 01       		.byte	0x1
 3607 0c19 46       		.byte	0x46
 3608 0c1a 16       		.byte	0x16
 3609 0c1b EE000000 		.4byte	0xee
 3610 0c1f 05       		.byte	0x5
 3611 0c20 03       		.byte	0x3
 3612 0c21 00000000 		.4byte	LCD_Show_queue
 3613 0c25 1C       		.uleb128 0x1c
 3614 0c26 01       		.byte	0x1
 3615 0c27 52010000 		.4byte	.LASF236
 3616 0c2b 01       		.byte	0x1
 3617 0c2c A8       		.byte	0xa8
 3618 0c2d 05       		.byte	0x5
 3619 0c2e 01       		.byte	0x1
 3620 0c2f 29000000 		.4byte	0x29
 3621 0c33 00000000 		.4byte	.LFB51
ARM GAS  /tmp/ccIXPZcX.s 			page 77


 3622 0c37 6C000000 		.4byte	.LFE51
 3623 0c3b 00000000 		.4byte	.LLST33
 3624 0c3f 01       		.byte	0x1
 3625 0c40 220D0000 		.4byte	0xd22
 3626 0c44 1D       		.uleb128 0x1d
 3627 0c45 0C000000 		.4byte	.LVL94
 3628 0c49 F3140000 		.4byte	0x14f3
 3629 0c4d 610C0000 		.4byte	0xc61
 3630 0c51 1E       		.uleb128 0x1e
 3631 0c52 01       		.byte	0x1
 3632 0c53 50       		.byte	0x50
 3633 0c54 01       		.byte	0x1
 3634 0c55 32       		.byte	0x32
 3635 0c56 1E       		.uleb128 0x1e
 3636 0c57 01       		.byte	0x1
 3637 0c58 51       		.byte	0x51
 3638 0c59 01       		.byte	0x1
 3639 0c5a 34       		.byte	0x34
 3640 0c5b 1E       		.uleb128 0x1e
 3641 0c5c 01       		.byte	0x1
 3642 0c5d 52       		.byte	0x52
 3643 0c5e 01       		.byte	0x1
 3644 0c5f 30       		.byte	0x30
 3645 0c60 00       		.byte	0
 3646 0c61 1F       		.uleb128 0x1f
 3647 0c62 18000000 		.4byte	.LVL95
 3648 0c66 2F140000 		.4byte	0x142f
 3649 0c6a 1D       		.uleb128 0x1d
 3650 0c6b 28000000 		.4byte	.LVL96
 3651 0c6f 02150000 		.4byte	0x1502
 3652 0c73 A40C0000 		.4byte	0xca4
 3653 0c77 1E       		.uleb128 0x1e
 3654 0c78 01       		.byte	0x1
 3655 0c79 50       		.byte	0x50
 3656 0c7a 05       		.byte	0x5
 3657 0c7b 03       		.byte	0x3
 3658 0c7c 00000000 		.4byte	task1
 3659 0c80 1E       		.uleb128 0x1e
 3660 0c81 01       		.byte	0x1
 3661 0c82 51       		.byte	0x51
 3662 0c83 05       		.byte	0x5
 3663 0c84 03       		.byte	0x3
 3664 0c85 36000000 		.4byte	.LC5
 3665 0c89 1E       		.uleb128 0x1e
 3666 0c8a 01       		.byte	0x1
 3667 0c8b 52       		.byte	0x52
 3668 0c8c 02       		.byte	0x2
 3669 0c8d 08       		.byte	0x8
 3670 0c8e 64       		.byte	0x64
 3671 0c8f 1E       		.uleb128 0x1e
 3672 0c90 01       		.byte	0x1
 3673 0c91 53       		.byte	0x53
 3674 0c92 02       		.byte	0x2
 3675 0c93 74       		.byte	0x74
 3676 0c94 00       		.sleb128 0
 3677 0c95 1E       		.uleb128 0x1e
 3678 0c96 02       		.byte	0x2
ARM GAS  /tmp/ccIXPZcX.s 			page 78


 3679 0c97 7D       		.byte	0x7d
 3680 0c98 00       		.sleb128 0
 3681 0c99 02       		.byte	0x2
 3682 0c9a 75       		.byte	0x75
 3683 0c9b 00       		.sleb128 0
 3684 0c9c 1E       		.uleb128 0x1e
 3685 0c9d 02       		.byte	0x2
 3686 0c9e 7D       		.byte	0x7d
 3687 0c9f 04       		.sleb128 4
 3688 0ca0 02       		.byte	0x2
 3689 0ca1 74       		.byte	0x74
 3690 0ca2 00       		.sleb128 0
 3691 0ca3 00       		.byte	0
 3692 0ca4 1D       		.uleb128 0x1d
 3693 0ca5 38000000 		.4byte	.LVL97
 3694 0ca9 02150000 		.4byte	0x1502
 3695 0cad DE0C0000 		.4byte	0xcde
 3696 0cb1 1E       		.uleb128 0x1e
 3697 0cb2 01       		.byte	0x1
 3698 0cb3 50       		.byte	0x50
 3699 0cb4 05       		.byte	0x5
 3700 0cb5 03       		.byte	0x3
 3701 0cb6 00000000 		.4byte	task2
 3702 0cba 1E       		.uleb128 0x1e
 3703 0cbb 01       		.byte	0x1
 3704 0cbc 51       		.byte	0x51
 3705 0cbd 05       		.byte	0x5
 3706 0cbe 03       		.byte	0x3
 3707 0cbf 3F000000 		.4byte	.LC6
 3708 0cc3 1E       		.uleb128 0x1e
 3709 0cc4 01       		.byte	0x1
 3710 0cc5 52       		.byte	0x52
 3711 0cc6 02       		.byte	0x2
 3712 0cc7 08       		.byte	0x8
 3713 0cc8 64       		.byte	0x64
 3714 0cc9 1E       		.uleb128 0x1e
 3715 0cca 01       		.byte	0x1
 3716 0ccb 53       		.byte	0x53
 3717 0ccc 02       		.byte	0x2
 3718 0ccd 74       		.byte	0x74
 3719 0cce 00       		.sleb128 0
 3720 0ccf 1E       		.uleb128 0x1e
 3721 0cd0 02       		.byte	0x2
 3722 0cd1 7D       		.byte	0x7d
 3723 0cd2 00       		.sleb128 0
 3724 0cd3 02       		.byte	0x2
 3725 0cd4 75       		.byte	0x75
 3726 0cd5 00       		.sleb128 0
 3727 0cd6 1E       		.uleb128 0x1e
 3728 0cd7 02       		.byte	0x2
 3729 0cd8 7D       		.byte	0x7d
 3730 0cd9 04       		.sleb128 4
 3731 0cda 02       		.byte	0x2
 3732 0cdb 74       		.byte	0x74
 3733 0cdc 00       		.sleb128 0
 3734 0cdd 00       		.byte	0
 3735 0cde 1D       		.uleb128 0x1d
ARM GAS  /tmp/ccIXPZcX.s 			page 79


 3736 0cdf 48000000 		.4byte	.LVL98
 3737 0ce3 02150000 		.4byte	0x1502
 3738 0ce7 180D0000 		.4byte	0xd18
 3739 0ceb 1E       		.uleb128 0x1e
 3740 0cec 01       		.byte	0x1
 3741 0ced 50       		.byte	0x50
 3742 0cee 05       		.byte	0x5
 3743 0cef 03       		.byte	0x3
 3744 0cf0 00000000 		.4byte	task3
 3745 0cf4 1E       		.uleb128 0x1e
 3746 0cf5 01       		.byte	0x1
 3747 0cf6 51       		.byte	0x51
 3748 0cf7 05       		.byte	0x5
 3749 0cf8 03       		.byte	0x3
 3750 0cf9 46000000 		.4byte	.LC7
 3751 0cfd 1E       		.uleb128 0x1e
 3752 0cfe 01       		.byte	0x1
 3753 0cff 52       		.byte	0x52
 3754 0d00 02       		.byte	0x2
 3755 0d01 08       		.byte	0x8
 3756 0d02 64       		.byte	0x64
 3757 0d03 1E       		.uleb128 0x1e
 3758 0d04 01       		.byte	0x1
 3759 0d05 53       		.byte	0x53
 3760 0d06 02       		.byte	0x2
 3761 0d07 74       		.byte	0x74
 3762 0d08 00       		.sleb128 0
 3763 0d09 1E       		.uleb128 0x1e
 3764 0d0a 02       		.byte	0x2
 3765 0d0b 7D       		.byte	0x7d
 3766 0d0c 00       		.sleb128 0
 3767 0d0d 02       		.byte	0x2
 3768 0d0e 75       		.byte	0x75
 3769 0d0f 00       		.sleb128 0
 3770 0d10 1E       		.uleb128 0x1e
 3771 0d11 02       		.byte	0x2
 3772 0d12 7D       		.byte	0x7d
 3773 0d13 04       		.sleb128 4
 3774 0d14 02       		.byte	0x2
 3775 0d15 74       		.byte	0x74
 3776 0d16 00       		.sleb128 0
 3777 0d17 00       		.byte	0
 3778 0d18 1F       		.uleb128 0x1f
 3779 0d19 4C000000 		.4byte	.LVL99
 3780 0d1d 11150000 		.4byte	0x1511
 3781 0d21 00       		.byte	0
 3782 0d22 20       		.uleb128 0x20
 3783 0d23 01       		.byte	0x1
 3784 0d24 67060000 		.4byte	.LASF179
 3785 0d28 01       		.byte	0x1
 3786 0d29 90       		.byte	0x90
 3787 0d2a 07       		.byte	0x7
 3788 0d2b 01       		.byte	0x1
 3789 0d2c 84030000 		.4byte	.LFB50
 3790 0d30 B0030000 		.4byte	.LFE50
 3791 0d34 20000000 		.4byte	.LLST24
 3792 0d38 01       		.byte	0x1
ARM GAS  /tmp/ccIXPZcX.s 			page 80


 3793 0d39 990D0000 		.4byte	0xd99
 3794 0d3d 21       		.uleb128 0x21
 3795 0d3e 35050000 		.4byte	.LASF178
 3796 0d42 01       		.byte	0x1
 3797 0d43 90       		.byte	0x90
 3798 0d44 13       		.byte	0x13
 3799 0d45 CD000000 		.4byte	0xcd
 3800 0d49 44000000 		.4byte	.LLST25
 3801 0d4d 40000000 		.4byte	.LVUS25
 3802 0d51 1B       		.uleb128 0x1b
 3803 0d52 39060000 		.4byte	.LASF177
 3804 0d56 01       		.byte	0x1
 3805 0d57 9C       		.byte	0x9c
 3806 0d58 06       		.byte	0x6
 3807 0d59 97030000 		.4byte	0x397
 3808 0d5d 02       		.byte	0x2
 3809 0d5e 91       		.byte	0x91
 3810 0d5f 74       		.sleb128 -12
 3811 0d60 1F       		.uleb128 0x1f
 3812 0d61 8A030000 		.4byte	.LVL57
 3813 0d65 F3100000 		.4byte	0x10f3
 3814 0d69 1D       		.uleb128 0x1d
 3815 0d6a 9E030000 		.4byte	.LVL59
 3816 0d6e 20150000 		.4byte	0x1520
 3817 0d72 870D0000 		.4byte	0xd87
 3818 0d76 1E       		.uleb128 0x1e
 3819 0d77 01       		.byte	0x1
 3820 0d78 51       		.byte	0x51
 3821 0d79 02       		.byte	0x2
 3822 0d7a 91       		.byte	0x91
 3823 0d7b 74       		.sleb128 -12
 3824 0d7c 1E       		.uleb128 0x1e
 3825 0d7d 01       		.byte	0x1
 3826 0d7e 52       		.byte	0x52
 3827 0d7f 01       		.byte	0x1
 3828 0d80 30       		.byte	0x30
 3829 0d81 1E       		.uleb128 0x1e
 3830 0d82 01       		.byte	0x1
 3831 0d83 53       		.byte	0x53
 3832 0d84 01       		.byte	0x1
 3833 0d85 30       		.byte	0x30
 3834 0d86 00       		.byte	0
 3835 0d87 22       		.uleb128 0x22
 3836 0d88 A6030000 		.4byte	.LVL60
 3837 0d8c 2F150000 		.4byte	0x152f
 3838 0d90 1E       		.uleb128 0x1e
 3839 0d91 01       		.byte	0x1
 3840 0d92 50       		.byte	0x50
 3841 0d93 03       		.byte	0x3
 3842 0d94 0A       		.byte	0xa
 3843 0d95 50C3     		.2byte	0xc350
 3844 0d97 00       		.byte	0
 3845 0d98 00       		.byte	0
 3846 0d99 23       		.uleb128 0x23
 3847 0d9a 61060000 		.4byte	.LASF181
 3848 0d9e 01       		.byte	0x1
 3849 0d9f 85       		.byte	0x85
ARM GAS  /tmp/ccIXPZcX.s 			page 81


 3850 0da0 0D       		.byte	0xd
 3851 0da1 01       		.byte	0x1
 3852 0da2 00000000 		.4byte	.LFB49
 3853 0da6 30000000 		.4byte	.LFE49
 3854 0daa 65000000 		.4byte	.LLST0
 3855 0dae 01       		.byte	0x1
 3856 0daf D90D0000 		.4byte	0xdd9
 3857 0db3 21       		.uleb128 0x21
 3858 0db4 35050000 		.4byte	.LASF178
 3859 0db8 01       		.byte	0x1
 3860 0db9 85       		.byte	0x85
 3861 0dba 19       		.byte	0x19
 3862 0dbb CD000000 		.4byte	0xcd
 3863 0dbf 89000000 		.4byte	.LLST1
 3864 0dc3 85000000 		.4byte	.LVUS1
 3865 0dc7 22       		.uleb128 0x22
 3866 0dc8 26000000 		.4byte	.LVL2
 3867 0dcc 2F150000 		.4byte	0x152f
 3868 0dd0 1E       		.uleb128 0x1e
 3869 0dd1 01       		.byte	0x1
 3870 0dd2 50       		.byte	0x50
 3871 0dd3 03       		.byte	0x3
 3872 0dd4 0A       		.byte	0xa
 3873 0dd5 8813     		.2byte	0x1388
 3874 0dd7 00       		.byte	0
 3875 0dd8 00       		.byte	0
 3876 0dd9 24       		.uleb128 0x24
 3877 0dda 01       		.byte	0x1
 3878 0ddb CC040000 		.4byte	.LASF180
 3879 0ddf 01       		.byte	0x1
 3880 0de0 82       		.byte	0x82
 3881 0de1 06       		.byte	0x6
 3882 0de2 01       		.byte	0x1
 3883 0de3 90050000 		.4byte	.LFB48
 3884 0de7 92050000 		.4byte	.LFE48
 3885 0deb 02       		.byte	0x2
 3886 0dec 7D       		.byte	0x7d
 3887 0ded 00       		.sleb128 0
 3888 0dee 01       		.byte	0x1
 3889 0def 020E0000 		.4byte	0xe02
 3890 0df3 25       		.uleb128 0x25
 3891 0df4 FB080000 		.4byte	.LASF186
 3892 0df8 01       		.byte	0x1
 3893 0df9 82       		.byte	0x82
 3894 0dfa 13       		.byte	0x13
 3895 0dfb A9030000 		.4byte	0x3a9
 3896 0dff 01       		.byte	0x1
 3897 0e00 50       		.byte	0x50
 3898 0e01 00       		.byte	0
 3899 0e02 23       		.uleb128 0x23
 3900 0e03 5B060000 		.4byte	.LASF182
 3901 0e07 01       		.byte	0x1
 3902 0e08 47       		.byte	0x47
 3903 0e09 0D       		.byte	0xd
 3904 0e0a 01       		.byte	0x1
 3905 0e0b 90040000 		.4byte	.LFB47
 3906 0e0f 90050000 		.4byte	.LFE47
ARM GAS  /tmp/ccIXPZcX.s 			page 82


 3907 0e13 AA000000 		.4byte	.LLST28
 3908 0e17 01       		.byte	0x1
 3909 0e18 C20F0000 		.4byte	0xfc2
 3910 0e1c 21       		.uleb128 0x21
 3911 0e1d 35050000 		.4byte	.LASF178
 3912 0e21 01       		.byte	0x1
 3913 0e22 47       		.byte	0x47
 3914 0e23 19       		.byte	0x19
 3915 0e24 CD000000 		.4byte	0xcd
 3916 0e28 DB000000 		.4byte	.LLST29
 3917 0e2c D7000000 		.4byte	.LVUS29
 3918 0e30 1B       		.uleb128 0x1b
 3919 0e31 240A0000 		.4byte	.LASF183
 3920 0e35 01       		.byte	0x1
 3921 0e36 5B       		.byte	0x5b
 3922 0e37 06       		.byte	0x6
 3923 0e38 29000000 		.4byte	0x29
 3924 0e3c 02       		.byte	0x2
 3925 0e3d 91       		.byte	0x91
 3926 0e3e 4C       		.sleb128 -52
 3927 0e3f 26       		.uleb128 0x26
 3928 0e40 500B0000 		.4byte	.LASF185
 3929 0e44 01       		.byte	0x1
 3930 0e45 5B       		.byte	0x5b
 3931 0e46 13       		.byte	0x13
 3932 0e47 29000000 		.4byte	0x29
 3933 0e4b 00010000 		.4byte	.LLST30
 3934 0e4f FC000000 		.4byte	.LVUS30
 3935 0e53 1B       		.uleb128 0x1b
 3936 0e54 C6090000 		.4byte	.LASF184
 3937 0e58 01       		.byte	0x1
 3938 0e59 5D       		.byte	0x5d
 3939 0e5a 07       		.byte	0x7
 3940 0e5b C20F0000 		.4byte	0xfc2
 3941 0e5f 02       		.byte	0x2
 3942 0e60 91       		.byte	0x91
 3943 0e61 50       		.sleb128 -48
 3944 0e62 26       		.uleb128 0x26
 3945 0e63 FB080000 		.4byte	.LASF186
 3946 0e67 01       		.byte	0x1
 3947 0e68 5E       		.byte	0x5e
 3948 0e69 05       		.byte	0x5
 3949 0e6a A9030000 		.4byte	0x3a9
 3950 0e6e 25010000 		.4byte	.LLST31
 3951 0e72 1F010000 		.4byte	.LVUS31
 3952 0e76 27       		.uleb128 0x27
 3953 0e77 88000000 		.4byte	.Ldebug_ranges0+0x88
 3954 0e7b E30E0000 		.4byte	0xee3
 3955 0e7f 28       		.uleb128 0x28
 3956 0e80 6900     		.ascii	"i\000"
 3957 0e82 01       		.byte	0x1
 3958 0e83 79       		.byte	0x79
 3959 0e84 0C       		.byte	0xc
 3960 0e85 A9030000 		.4byte	0x3a9
 3961 0e89 56010000 		.4byte	.LLST32
 3962 0e8d 50010000 		.4byte	.LVUS32
 3963 0e91 1D       		.uleb128 0x1d
ARM GAS  /tmp/ccIXPZcX.s 			page 83


 3964 0e92 46050000 		.4byte	.LVL90
 3965 0e96 2F150000 		.4byte	0x152f
 3966 0e9a A60E0000 		.4byte	0xea6
 3967 0e9e 1E       		.uleb128 0x1e
 3968 0e9f 01       		.byte	0x1
 3969 0ea0 50       		.byte	0x50
 3970 0ea1 03       		.byte	0x3
 3971 0ea2 0A       		.byte	0xa
 3972 0ea3 E803     		.2byte	0x3e8
 3973 0ea5 00       		.byte	0
 3974 0ea6 1D       		.uleb128 0x1d
 3975 0ea7 50050000 		.4byte	.LVL91
 3976 0eab 3E150000 		.4byte	0x153e
 3977 0eaf C50E0000 		.4byte	0xec5
 3978 0eb3 1E       		.uleb128 0x1e
 3979 0eb4 01       		.byte	0x1
 3980 0eb5 50       		.byte	0x50
 3981 0eb6 02       		.byte	0x2
 3982 0eb7 7B       		.byte	0x7b
 3983 0eb8 00       		.sleb128 0
 3984 0eb9 1E       		.uleb128 0x1e
 3985 0eba 01       		.byte	0x1
 3986 0ebb 51       		.byte	0x51
 3987 0ebc 01       		.byte	0x1
 3988 0ebd 30       		.byte	0x30
 3989 0ebe 1E       		.uleb128 0x1e
 3990 0ebf 01       		.byte	0x1
 3991 0ec0 52       		.byte	0x52
 3992 0ec1 02       		.byte	0x2
 3993 0ec2 77       		.byte	0x77
 3994 0ec3 00       		.sleb128 0
 3995 0ec4 00       		.byte	0
 3996 0ec5 22       		.uleb128 0x22
 3997 0ec6 5E050000 		.4byte	.LVL92
 3998 0eca 3E150000 		.4byte	0x153e
 3999 0ece 1E       		.uleb128 0x1e
 4000 0ecf 01       		.byte	0x1
 4001 0ed0 50       		.byte	0x50
 4002 0ed1 02       		.byte	0x2
 4003 0ed2 7A       		.byte	0x7a
 4004 0ed3 00       		.sleb128 0
 4005 0ed4 1E       		.uleb128 0x1e
 4006 0ed5 01       		.byte	0x1
 4007 0ed6 51       		.byte	0x51
 4008 0ed7 01       		.byte	0x1
 4009 0ed8 31       		.byte	0x31
 4010 0ed9 1E       		.uleb128 0x1e
 4011 0eda 01       		.byte	0x1
 4012 0edb 52       		.byte	0x52
 4013 0edc 04       		.byte	0x4
 4014 0edd 40       		.byte	0x40
 4015 0ede 77       		.byte	0x77
 4016 0edf 00       		.sleb128 0
 4017 0ee0 1C       		.byte	0x1c
 4018 0ee1 00       		.byte	0
 4019 0ee2 00       		.byte	0
 4020 0ee3 1F       		.uleb128 0x1f
ARM GAS  /tmp/ccIXPZcX.s 			page 84


 4021 0ee4 A6040000 		.4byte	.LVL72
 4022 0ee8 D20F0000 		.4byte	0xfd2
 4023 0eec 1F       		.uleb128 0x1f
 4024 0eed D4040000 		.4byte	.LVL77
 4025 0ef1 4C150000 		.4byte	0x154c
 4026 0ef5 1D       		.uleb128 0x1d
 4027 0ef6 E0040000 		.4byte	.LVL78
 4028 0efa 5A150000 		.4byte	0x155a
 4029 0efe 0F0F0000 		.4byte	0xf0f
 4030 0f02 1E       		.uleb128 0x1e
 4031 0f03 01       		.byte	0x1
 4032 0f04 51       		.byte	0x51
 4033 0f05 02       		.byte	0x2
 4034 0f06 91       		.byte	0x91
 4035 0f07 4C       		.sleb128 -52
 4036 0f08 1E       		.uleb128 0x1e
 4037 0f09 01       		.byte	0x1
 4038 0f0a 52       		.byte	0x52
 4039 0f0b 02       		.byte	0x2
 4040 0f0c 08       		.byte	0x8
 4041 0f0d 64       		.byte	0x64
 4042 0f0e 00       		.byte	0
 4043 0f0f 1D       		.uleb128 0x1d
 4044 0f10 F2040000 		.4byte	.LVL80
 4045 0f14 3E150000 		.4byte	0x153e
 4046 0f18 300F0000 		.4byte	0xf30
 4047 0f1c 1E       		.uleb128 0x1e
 4048 0f1d 01       		.byte	0x1
 4049 0f1e 50       		.byte	0x50
 4050 0f1f 05       		.byte	0x5
 4051 0f20 03       		.byte	0x3
 4052 0f21 26000000 		.4byte	.LC4
 4053 0f25 1E       		.uleb128 0x1e
 4054 0f26 01       		.byte	0x1
 4055 0f27 51       		.byte	0x51
 4056 0f28 01       		.byte	0x1
 4057 0f29 30       		.byte	0x30
 4058 0f2a 1E       		.uleb128 0x1e
 4059 0f2b 01       		.byte	0x1
 4060 0f2c 52       		.byte	0x52
 4061 0f2d 01       		.byte	0x1
 4062 0f2e 30       		.byte	0x30
 4063 0f2f 00       		.byte	0
 4064 0f30 1F       		.uleb128 0x1f
 4065 0f31 F8040000 		.4byte	.LVL81
 4066 0f35 69150000 		.4byte	0x1569
 4067 0f39 1F       		.uleb128 0x1f
 4068 0f3a 00050000 		.4byte	.LVL82
 4069 0f3e 74150000 		.4byte	0x1574
 4070 0f42 1F       		.uleb128 0x1f
 4071 0f43 04050000 		.4byte	.LVL83
 4072 0f47 7F150000 		.4byte	0x157f
 4073 0f4b 1D       		.uleb128 0x1d
 4074 0f4c 0C050000 		.4byte	.LVL84
 4075 0f50 67120000 		.4byte	0x1267
 4076 0f54 640F0000 		.4byte	0xf64
 4077 0f58 1E       		.uleb128 0x1e
ARM GAS  /tmp/ccIXPZcX.s 			page 85


 4078 0f59 01       		.byte	0x1
 4079 0f5a 51       		.byte	0x51
 4080 0f5b 02       		.byte	0x2
 4081 0f5c 91       		.byte	0x91
 4082 0f5d 50       		.sleb128 -48
 4083 0f5e 1E       		.uleb128 0x1e
 4084 0f5f 01       		.byte	0x1
 4085 0f60 52       		.byte	0x52
 4086 0f61 01       		.byte	0x1
 4087 0f62 32       		.byte	0x32
 4088 0f63 00       		.byte	0
 4089 0f64 1D       		.uleb128 0x1d
 4090 0f65 16050000 		.4byte	.LVL85
 4091 0f69 3E150000 		.4byte	0x153e
 4092 0f6d 830F0000 		.4byte	0xf83
 4093 0f71 1E       		.uleb128 0x1e
 4094 0f72 01       		.byte	0x1
 4095 0f73 50       		.byte	0x50
 4096 0f74 02       		.byte	0x2
 4097 0f75 91       		.byte	0x91
 4098 0f76 50       		.sleb128 -48
 4099 0f77 1E       		.uleb128 0x1e
 4100 0f78 01       		.byte	0x1
 4101 0f79 51       		.byte	0x51
 4102 0f7a 02       		.byte	0x2
 4103 0f7b 74       		.byte	0x74
 4104 0f7c 00       		.sleb128 0
 4105 0f7d 1E       		.uleb128 0x1e
 4106 0f7e 01       		.byte	0x1
 4107 0f7f 52       		.byte	0x52
 4108 0f80 01       		.byte	0x1
 4109 0f81 36       		.byte	0x36
 4110 0f82 00       		.byte	0
 4111 0f83 1D       		.uleb128 0x1d
 4112 0f84 26050000 		.4byte	.LVL86
 4113 0f88 3E150000 		.4byte	0x153e
 4114 0f8c A40F0000 		.4byte	0xfa4
 4115 0f90 1E       		.uleb128 0x1e
 4116 0f91 01       		.byte	0x1
 4117 0f92 50       		.byte	0x50
 4118 0f93 05       		.byte	0x5
 4119 0f94 03       		.byte	0x3
 4120 0f95 00000000 		.4byte	.LC0
 4121 0f99 1E       		.uleb128 0x1e
 4122 0f9a 01       		.byte	0x1
 4123 0f9b 51       		.byte	0x51
 4124 0f9c 01       		.byte	0x1
 4125 0f9d 30       		.byte	0x30
 4126 0f9e 1E       		.uleb128 0x1e
 4127 0f9f 01       		.byte	0x1
 4128 0fa0 52       		.byte	0x52
 4129 0fa1 01       		.byte	0x1
 4130 0fa2 30       		.byte	0x30
 4131 0fa3 00       		.byte	0
 4132 0fa4 22       		.uleb128 0x22
 4133 0fa5 30050000 		.4byte	.LVL87
 4134 0fa9 3E150000 		.4byte	0x153e
ARM GAS  /tmp/ccIXPZcX.s 			page 86


 4135 0fad 1E       		.uleb128 0x1e
 4136 0fae 01       		.byte	0x1
 4137 0faf 50       		.byte	0x50
 4138 0fb0 05       		.byte	0x5
 4139 0fb1 03       		.byte	0x3
 4140 0fb2 11000000 		.4byte	.LC1
 4141 0fb6 1E       		.uleb128 0x1e
 4142 0fb7 01       		.byte	0x1
 4143 0fb8 51       		.byte	0x51
 4144 0fb9 01       		.byte	0x1
 4145 0fba 31       		.byte	0x31
 4146 0fbb 1E       		.uleb128 0x1e
 4147 0fbc 01       		.byte	0x1
 4148 0fbd 52       		.byte	0x52
 4149 0fbe 01       		.byte	0x1
 4150 0fbf 30       		.byte	0x30
 4151 0fc0 00       		.byte	0
 4152 0fc1 00       		.byte	0
 4153 0fc2 10       		.uleb128 0x10
 4154 0fc3 E7000000 		.4byte	0xe7
 4155 0fc7 D20F0000 		.4byte	0xfd2
 4156 0fcb 11       		.uleb128 0x11
 4157 0fcc 30000000 		.4byte	0x30
 4158 0fd0 05       		.byte	0x5
 4159 0fd1 00       		.byte	0
 4160 0fd2 29       		.uleb128 0x29
 4161 0fd3 01       		.byte	0x1
 4162 0fd4 07050000 		.4byte	.LASF237
 4163 0fd8 01       		.byte	0x1
 4164 0fd9 2E       		.byte	0x2e
 4165 0fda 06       		.byte	0x6
 4166 0fdb CC030000 		.4byte	.LFB46
 4167 0fdf 90040000 		.4byte	.LFE46
 4168 0fe3 86010000 		.4byte	.LLST26
 4169 0fe7 01       		.byte	0x1
 4170 0fe8 DA100000 		.4byte	0x10da
 4171 0fec 27       		.uleb128 0x27
 4172 0fed 68000000 		.4byte	.Ldebug_ranges0+0x68
 4173 0ff1 59100000 		.4byte	0x1059
 4174 0ff5 28       		.uleb128 0x28
 4175 0ff6 6900     		.ascii	"i\000"
 4176 0ff8 01       		.byte	0x1
 4177 0ff9 3D       		.byte	0x3d
 4178 0ffa 0A       		.byte	0xa
 4179 0ffb A9030000 		.4byte	0x3a9
 4180 0fff B6010000 		.4byte	.LLST27
 4181 1003 B2010000 		.4byte	.LVUS27
 4182 1007 1D       		.uleb128 0x1d
 4183 1008 44040000 		.4byte	.LVL66
 4184 100c 2F150000 		.4byte	0x152f
 4185 1010 1C100000 		.4byte	0x101c
 4186 1014 1E       		.uleb128 0x1e
 4187 1015 01       		.byte	0x1
 4188 1016 50       		.byte	0x50
 4189 1017 03       		.byte	0x3
 4190 1018 0A       		.byte	0xa
 4191 1019 DC05     		.2byte	0x5dc
ARM GAS  /tmp/ccIXPZcX.s 			page 87


 4192 101b 00       		.byte	0
 4193 101c 1D       		.uleb128 0x1d
 4194 101d 4E040000 		.4byte	.LVL67
 4195 1021 3E150000 		.4byte	0x153e
 4196 1025 3B100000 		.4byte	0x103b
 4197 1029 1E       		.uleb128 0x1e
 4198 102a 01       		.byte	0x1
 4199 102b 50       		.byte	0x50
 4200 102c 02       		.byte	0x2
 4201 102d 77       		.byte	0x77
 4202 102e 00       		.sleb128 0
 4203 102f 1E       		.uleb128 0x1e
 4204 1030 01       		.byte	0x1
 4205 1031 51       		.byte	0x51
 4206 1032 01       		.byte	0x1
 4207 1033 30       		.byte	0x30
 4208 1034 1E       		.uleb128 0x1e
 4209 1035 01       		.byte	0x1
 4210 1036 52       		.byte	0x52
 4211 1037 02       		.byte	0x2
 4212 1038 75       		.byte	0x75
 4213 1039 00       		.sleb128 0
 4214 103a 00       		.byte	0
 4215 103b 22       		.uleb128 0x22
 4216 103c 5E040000 		.4byte	.LVL68
 4217 1040 3E150000 		.4byte	0x153e
 4218 1044 1E       		.uleb128 0x1e
 4219 1045 01       		.byte	0x1
 4220 1046 50       		.byte	0x50
 4221 1047 02       		.byte	0x2
 4222 1048 76       		.byte	0x76
 4223 1049 00       		.sleb128 0
 4224 104a 1E       		.uleb128 0x1e
 4225 104b 01       		.byte	0x1
 4226 104c 51       		.byte	0x51
 4227 104d 01       		.byte	0x1
 4228 104e 31       		.byte	0x31
 4229 104f 1E       		.uleb128 0x1e
 4230 1050 01       		.byte	0x1
 4231 1051 52       		.byte	0x52
 4232 1052 04       		.byte	0x4
 4233 1053 40       		.byte	0x40
 4234 1054 75       		.byte	0x75
 4235 1055 00       		.sleb128 0
 4236 1056 1C       		.byte	0x1c
 4237 1057 00       		.byte	0
 4238 1058 00       		.byte	0
 4239 1059 1F       		.uleb128 0x1f
 4240 105a 20040000 		.4byte	.LVL61
 4241 105e 8A150000 		.4byte	0x158a
 4242 1062 1D       		.uleb128 0x1d
 4243 1063 26040000 		.4byte	.LVL62
 4244 1067 98150000 		.4byte	0x1598
 4245 106b 75100000 		.4byte	0x1075
 4246 106f 1E       		.uleb128 0x1e
 4247 1070 01       		.byte	0x1
 4248 1071 50       		.byte	0x50
ARM GAS  /tmp/ccIXPZcX.s 			page 88


 4249 1072 01       		.byte	0x1
 4250 1073 3C       		.byte	0x3c
 4251 1074 00       		.byte	0
 4252 1075 1D       		.uleb128 0x1d
 4253 1076 30040000 		.4byte	.LVL63
 4254 107a 3E150000 		.4byte	0x153e
 4255 107e 98100000 		.4byte	0x1098
 4256 1082 1E       		.uleb128 0x1e
 4257 1083 01       		.byte	0x1
 4258 1084 50       		.byte	0x50
 4259 1085 05       		.byte	0x5
 4260 1086 03       		.byte	0x3
 4261 1087 00000000 		.4byte	.LC0
 4262 108b 1E       		.uleb128 0x1e
 4263 108c 01       		.byte	0x1
 4264 108d 51       		.byte	0x51
 4265 108e 02       		.byte	0x2
 4266 108f 74       		.byte	0x74
 4267 1090 00       		.sleb128 0
 4268 1091 1E       		.uleb128 0x1e
 4269 1092 01       		.byte	0x1
 4270 1093 52       		.byte	0x52
 4271 1094 02       		.byte	0x2
 4272 1095 74       		.byte	0x74
 4273 1096 00       		.sleb128 0
 4274 1097 00       		.byte	0
 4275 1098 1D       		.uleb128 0x1d
 4276 1099 3A040000 		.4byte	.LVL64
 4277 109d 3E150000 		.4byte	0x153e
 4278 10a1 BA100000 		.4byte	0x10ba
 4279 10a5 1E       		.uleb128 0x1e
 4280 10a6 01       		.byte	0x1
 4281 10a7 50       		.byte	0x50
 4282 10a8 05       		.byte	0x5
 4283 10a9 03       		.byte	0x3
 4284 10aa 11000000 		.4byte	.LC1
 4285 10ae 1E       		.uleb128 0x1e
 4286 10af 01       		.byte	0x1
 4287 10b0 51       		.byte	0x51
 4288 10b1 01       		.byte	0x1
 4289 10b2 31       		.byte	0x31
 4290 10b3 1E       		.uleb128 0x1e
 4291 10b4 01       		.byte	0x1
 4292 10b5 52       		.byte	0x52
 4293 10b6 02       		.byte	0x2
 4294 10b7 74       		.byte	0x74
 4295 10b8 00       		.sleb128 0
 4296 10b9 00       		.byte	0
 4297 10ba 1D       		.uleb128 0x1d
 4298 10bb 6A040000 		.4byte	.LVL69
 4299 10bf 2F150000 		.4byte	0x152f
 4300 10c3 CF100000 		.4byte	0x10cf
 4301 10c7 1E       		.uleb128 0x1e
 4302 10c8 01       		.byte	0x1
 4303 10c9 50       		.byte	0x50
 4304 10ca 03       		.byte	0x3
 4305 10cb 0A       		.byte	0xa
ARM GAS  /tmp/ccIXPZcX.s 			page 89


 4306 10cc DC05     		.2byte	0x5dc
 4307 10ce 00       		.byte	0
 4308 10cf 2A       		.uleb128 0x2a
 4309 10d0 72040000 		.4byte	.LVL70
 4310 10d4 01       		.byte	0x1
 4311 10d5 4C150000 		.4byte	0x154c
 4312 10d9 00       		.byte	0
 4313 10da 2B       		.uleb128 0x2b
 4314 10db 01       		.byte	0x1
 4315 10dc 18090000 		.4byte	.LASF202
 4316 10e0 04       		.byte	0x4
 4317 10e1 20       		.byte	0x20
 4318 10e2 0A       		.byte	0xa
 4319 10e3 AB000000 		.4byte	0xab
 4320 10e7 B0030000 		.4byte	.LFB45
 4321 10eb CC030000 		.4byte	.LFE45
 4322 10ef 02       		.byte	0x2
 4323 10f0 7D       		.byte	0x7d
 4324 10f1 00       		.sleb128 0
 4325 10f2 01       		.byte	0x1
 4326 10f3 2C       		.uleb128 0x2c
 4327 10f4 01       		.byte	0x1
 4328 10f5 F8000000 		.4byte	.LASF206
 4329 10f9 04       		.byte	0x4
 4330 10fa 02       		.byte	0x2
 4331 10fb 06       		.byte	0x6
 4332 10fc 14030000 		.4byte	.LFB44
 4333 1100 84030000 		.4byte	.LFE44
 4334 1104 02       		.byte	0x2
 4335 1105 7D       		.byte	0x7d
 4336 1106 00       		.sleb128 0
 4337 1107 01       		.byte	0x1
 4338 1108 20       		.uleb128 0x20
 4339 1109 01       		.byte	0x1
 4340 110a D3050000 		.4byte	.LASF187
 4341 110e 03       		.byte	0x3
 4342 110f 28       		.byte	0x28
 4343 1110 06       		.byte	0x6
 4344 1111 01       		.byte	0x1
 4345 1112 EC020000 		.4byte	.LFB43
 4346 1116 14030000 		.4byte	.LFE43
 4347 111a D5010000 		.4byte	.LLST22
 4348 111e 01       		.byte	0x1
 4349 111f 62110000 		.4byte	0x1162
 4350 1123 21       		.uleb128 0x21
 4351 1124 52070000 		.4byte	.LASF188
 4352 1128 03       		.byte	0x3
 4353 1129 28       		.byte	0x28
 4354 112a 16       		.byte	0x16
 4355 112b FF0B0000 		.4byte	0xbff
 4356 112f FD010000 		.4byte	.LLST23
 4357 1133 F5010000 		.4byte	.LVUS23
 4358 1137 1D       		.uleb128 0x1d
 4359 1138 00030000 		.4byte	.LVL54
 4360 113c A6150000 		.4byte	0x15a6
 4361 1140 4B110000 		.4byte	0x114b
 4362 1144 1E       		.uleb128 0x1e
ARM GAS  /tmp/ccIXPZcX.s 			page 90


 4363 1145 01       		.byte	0x1
 4364 1146 50       		.byte	0x50
 4365 1147 02       		.byte	0x2
 4366 1148 75       		.byte	0x75
 4367 1149 00       		.sleb128 0
 4368 114a 00       		.byte	0
 4369 114b 22       		.uleb128 0x22
 4370 114c 08030000 		.4byte	.LVL55
 4371 1150 B5150000 		.4byte	0x15b5
 4372 1154 1E       		.uleb128 0x1e
 4373 1155 01       		.byte	0x1
 4374 1156 50       		.byte	0x50
 4375 1157 02       		.byte	0x2
 4376 1158 75       		.byte	0x75
 4377 1159 00       		.sleb128 0
 4378 115a 1E       		.uleb128 0x1e
 4379 115b 01       		.byte	0x1
 4380 115c 51       		.byte	0x51
 4381 115d 02       		.byte	0x2
 4382 115e 08       		.byte	0x8
 4383 115f 40       		.byte	0x40
 4384 1160 00       		.byte	0
 4385 1161 00       		.byte	0
 4386 1162 20       		.uleb128 0x20
 4387 1163 01       		.byte	0x1
 4388 1164 69050000 		.4byte	.LASF189
 4389 1168 03       		.byte	0x3
 4390 1169 07       		.byte	0x7
 4391 116a 06       		.byte	0x6
 4392 116b 01       		.byte	0x1
 4393 116c 7C020000 		.4byte	.LFB42
 4394 1170 EC020000 		.4byte	.LFE42
 4395 1174 35020000 		.4byte	.LLST21
 4396 1178 01       		.byte	0x1
 4397 1179 19120000 		.4byte	0x1219
 4398 117d 1B       		.uleb128 0x1b
 4399 117e 5C070000 		.4byte	.LASF190
 4400 1182 03       		.byte	0x3
 4401 1183 0C       		.byte	0xc
 4402 1184 15       		.byte	0x15
 4403 1185 830B0000 		.4byte	0xb83
 4404 1189 02       		.byte	0x2
 4405 118a 91       		.byte	0x91
 4406 118b 64       		.sleb128 -28
 4407 118c 1B       		.uleb128 0x1b
 4408 118d 6F010000 		.4byte	.LASF191
 4409 1191 03       		.byte	0x3
 4410 1192 1A       		.byte	0x1a
 4411 1193 16       		.byte	0x16
 4412 1194 F30B0000 		.4byte	0xbf3
 4413 1198 02       		.byte	0x2
 4414 1199 91       		.byte	0x91
 4415 119a 68       		.sleb128 -24
 4416 119b 1D       		.uleb128 0x1d
 4417 119c 8A020000 		.4byte	.LVL45
 4418 11a0 C4150000 		.4byte	0x15c4
 4419 11a4 B5110000 		.4byte	0x11b5
ARM GAS  /tmp/ccIXPZcX.s 			page 91


 4420 11a8 1E       		.uleb128 0x1e
 4421 11a9 01       		.byte	0x1
 4422 11aa 50       		.byte	0x50
 4423 11ab 03       		.byte	0x3
 4424 11ac 0A       		.byte	0xa
 4425 11ad 0440     		.2byte	0x4004
 4426 11af 1E       		.uleb128 0x1e
 4427 11b0 01       		.byte	0x1
 4428 11b1 51       		.byte	0x51
 4429 11b2 01       		.byte	0x1
 4430 11b3 31       		.byte	0x31
 4431 11b4 00       		.byte	0
 4432 11b5 1D       		.uleb128 0x1d
 4433 11b6 A4020000 		.4byte	.LVL46
 4434 11ba D3150000 		.4byte	0x15d3
 4435 11be CF110000 		.4byte	0x11cf
 4436 11c2 1E       		.uleb128 0x1e
 4437 11c3 01       		.byte	0x1
 4438 11c4 50       		.byte	0x50
 4439 11c5 02       		.byte	0x2
 4440 11c6 74       		.byte	0x74
 4441 11c7 00       		.sleb128 0
 4442 11c8 1E       		.uleb128 0x1e
 4443 11c9 01       		.byte	0x1
 4444 11ca 51       		.byte	0x51
 4445 11cb 02       		.byte	0x2
 4446 11cc 91       		.byte	0x91
 4447 11cd 64       		.sleb128 -28
 4448 11ce 00       		.byte	0
 4449 11cf 1D       		.uleb128 0x1d
 4450 11d0 BC020000 		.4byte	.LVL47
 4451 11d4 D3150000 		.4byte	0x15d3
 4452 11d8 E9110000 		.4byte	0x11e9
 4453 11dc 1E       		.uleb128 0x1e
 4454 11dd 01       		.byte	0x1
 4455 11de 50       		.byte	0x50
 4456 11df 02       		.byte	0x2
 4457 11e0 74       		.byte	0x74
 4458 11e1 00       		.sleb128 0
 4459 11e2 1E       		.uleb128 0x1e
 4460 11e3 01       		.byte	0x1
 4461 11e4 51       		.byte	0x51
 4462 11e5 02       		.byte	0x2
 4463 11e6 91       		.byte	0x91
 4464 11e7 64       		.sleb128 -28
 4465 11e8 00       		.byte	0
 4466 11e9 1D       		.uleb128 0x1d
 4467 11ea DC020000 		.4byte	.LVL48
 4468 11ee E2150000 		.4byte	0x15e2
 4469 11f2 03120000 		.4byte	0x1203
 4470 11f6 1E       		.uleb128 0x1e
 4471 11f7 01       		.byte	0x1
 4472 11f8 50       		.byte	0x50
 4473 11f9 02       		.byte	0x2
 4474 11fa 74       		.byte	0x74
 4475 11fb 00       		.sleb128 0
 4476 11fc 1E       		.uleb128 0x1e
ARM GAS  /tmp/ccIXPZcX.s 			page 92


 4477 11fd 01       		.byte	0x1
 4478 11fe 51       		.byte	0x51
 4479 11ff 02       		.byte	0x2
 4480 1200 91       		.byte	0x91
 4481 1201 68       		.sleb128 -24
 4482 1202 00       		.byte	0
 4483 1203 22       		.uleb128 0x22
 4484 1204 E4020000 		.4byte	.LVL49
 4485 1208 F1150000 		.4byte	0x15f1
 4486 120c 1E       		.uleb128 0x1e
 4487 120d 01       		.byte	0x1
 4488 120e 50       		.byte	0x50
 4489 120f 02       		.byte	0x2
 4490 1210 74       		.byte	0x74
 4491 1211 00       		.sleb128 0
 4492 1212 1E       		.uleb128 0x1e
 4493 1213 01       		.byte	0x1
 4494 1214 51       		.byte	0x51
 4495 1215 01       		.byte	0x1
 4496 1216 31       		.byte	0x31
 4497 1217 00       		.byte	0
 4498 1218 00       		.byte	0
 4499 1219 2D       		.uleb128 0x2d
 4500 121a 01       		.byte	0x1
 4501 121b 30060000 		.4byte	.LASF197
 4502 121f 02       		.byte	0x2
 4503 1220 A6       		.byte	0xa6
 4504 1221 06       		.byte	0x6
 4505 1222 01       		.byte	0x1
 4506 1223 01       		.byte	0x1
 4507 1224 67120000 		.4byte	0x1267
 4508 1228 2E       		.uleb128 0x2e
 4509 1229 6E756D00 		.ascii	"num\000"
 4510 122d 02       		.byte	0x2
 4511 122e A6       		.byte	0xa6
 4512 122f 13       		.byte	0x13
 4513 1230 29000000 		.4byte	0x29
 4514 1234 2E       		.uleb128 0x2e
 4515 1235 73747200 		.ascii	"str\000"
 4516 1239 02       		.byte	0x2
 4517 123a A6       		.byte	0xa6
 4518 123b 1E       		.byte	0x1e
 4519 123c FF0B0000 		.4byte	0xbff
 4520 1240 2F       		.uleb128 0x2f
 4521 1241 6C656E00 		.ascii	"len\000"
 4522 1245 02       		.byte	0x2
 4523 1246 AE       		.byte	0xae
 4524 1247 09       		.byte	0x9
 4525 1248 29000000 		.4byte	0x29
 4526 124c 30       		.uleb128 0x30
 4527 124d D3030000 		.4byte	.LASF192
 4528 1251 02       		.byte	0x2
 4529 1252 AF       		.byte	0xaf
 4530 1253 09       		.byte	0x9
 4531 1254 29000000 		.4byte	0x29
 4532 1258 31       		.uleb128 0x31
 4533 1259 30       		.uleb128 0x30
ARM GAS  /tmp/ccIXPZcX.s 			page 93


 4534 125a 7F000000 		.4byte	.LASF193
 4535 125e 02       		.byte	0x2
 4536 125f B9       		.byte	0xb9
 4537 1260 0D       		.byte	0xd
 4538 1261 29000000 		.4byte	0x29
 4539 1265 00       		.byte	0
 4540 1266 00       		.byte	0
 4541 1267 20       		.uleb128 0x20
 4542 1268 01       		.byte	0x1
 4543 1269 EB0A0000 		.4byte	.LASF194
 4544 126d 02       		.byte	0x2
 4545 126e 88       		.byte	0x88
 4546 126f 06       		.byte	0x6
 4547 1270 01       		.byte	0x1
 4548 1271 F8010000 		.4byte	.LFB40
 4549 1275 7C020000 		.4byte	.LFE40
 4550 1279 6D020000 		.4byte	.LLST13
 4551 127d 01       		.byte	0x1
 4552 127e 93130000 		.4byte	0x1393
 4553 1282 32       		.uleb128 0x32
 4554 1283 6E756D00 		.ascii	"num\000"
 4555 1287 02       		.byte	0x2
 4556 1288 88       		.byte	0x88
 4557 1289 1A       		.byte	0x1a
 4558 128a 050C0000 		.4byte	0xc05
 4559 128e 91020000 		.4byte	.LLST14
 4560 1292 8D020000 		.4byte	.LVUS14
 4561 1296 32       		.uleb128 0x32
 4562 1297 73747200 		.ascii	"str\000"
 4563 129b 02       		.byte	0x2
 4564 129c 88       		.byte	0x88
 4565 129d 25       		.byte	0x25
 4566 129e FF0B0000 		.4byte	0xbff
 4567 12a2 C1020000 		.4byte	.LLST15
 4568 12a6 AF020000 		.4byte	.LVUS15
 4569 12aa 21       		.uleb128 0x21
 4570 12ab D9080000 		.4byte	.LASF195
 4571 12af 02       		.byte	0x2
 4572 12b0 88       		.byte	0x88
 4573 12b1 2E       		.byte	0x2e
 4574 12b2 29000000 		.4byte	0x29
 4575 12b6 38030000 		.4byte	.LLST16
 4576 12ba 30030000 		.4byte	.LVUS16
 4577 12be 26       		.uleb128 0x26
 4578 12bf 480B0000 		.4byte	.LASF196
 4579 12c3 02       		.byte	0x2
 4580 12c4 90       		.byte	0x90
 4581 12c5 09       		.byte	0x9
 4582 12c6 29000000 		.4byte	0x29
 4583 12ca 73030000 		.4byte	.LLST17
 4584 12ce 6F030000 		.4byte	.LVUS17
 4585 12d2 33       		.uleb128 0x33
 4586 12d3 01       		.byte	0x1
 4587 12d4 30060000 		.4byte	.LASF197
 4588 12d8 02       		.byte	0x2
 4589 12d9 91       		.byte	0x91
 4590 12da 05       		.byte	0x5
ARM GAS  /tmp/ccIXPZcX.s 			page 94


 4591 12db 29000000 		.4byte	0x29
 4592 12df 01       		.byte	0x1
 4593 12e0 E6120000 		.4byte	0x12e6
 4594 12e4 34       		.uleb128 0x34
 4595 12e5 00       		.byte	0
 4596 12e6 26       		.uleb128 0x26
 4597 12e7 31000000 		.4byte	.LASF198
 4598 12eb 02       		.byte	0x2
 4599 12ec 9A       		.byte	0x9a
 4600 12ed 0B       		.byte	0xb
 4601 12ee 050C0000 		.4byte	0xc05
 4602 12f2 97030000 		.4byte	.LLST18
 4603 12f6 91030000 		.4byte	.LVUS18
 4604 12fa 27       		.uleb128 0x27
 4605 12fb 30000000 		.4byte	.Ldebug_ranges0+0x30
 4606 12ff 54130000 		.4byte	0x1354
 4607 1303 28       		.uleb128 0x28
 4608 1304 6900     		.ascii	"i\000"
 4609 1306 02       		.byte	0x2
 4610 1307 9B       		.byte	0x9b
 4611 1308 0E       		.byte	0xe
 4612 1309 29000000 		.4byte	0x29
 4613 130d CE030000 		.4byte	.LLST19
 4614 1311 C0030000 		.4byte	.LVUS19
 4615 1315 35       		.uleb128 0x35
 4616 1316 50000000 		.4byte	.Ldebug_ranges0+0x50
 4617 131a 26       		.uleb128 0x26
 4618 131b 7F000000 		.4byte	.LASF193
 4619 131f 02       		.byte	0x2
 4620 1320 9D       		.byte	0x9d
 4621 1321 0D       		.byte	0xd
 4622 1322 29000000 		.4byte	0x29
 4623 1326 3B040000 		.4byte	.LLST20
 4624 132a 39040000 		.4byte	.LVUS20
 4625 132e 1F       		.uleb128 0x1f
 4626 132f 5C020000 		.4byte	.LVL39
 4627 1333 00160000 		.4byte	0x1600
 4628 1337 1F       		.uleb128 0x1f
 4629 1338 62020000 		.4byte	.LVL41
 4630 133c 0B160000 		.4byte	0x160b
 4631 1340 1F       		.uleb128 0x1f
 4632 1341 6E020000 		.4byte	.LVL43
 4633 1345 16160000 		.4byte	0x1616
 4634 1349 1F       		.uleb128 0x1f
 4635 134a 76020000 		.4byte	.LVL44
 4636 134e 21160000 		.4byte	0x1621
 4637 1352 00       		.byte	0
 4638 1353 00       		.byte	0
 4639 1354 1F       		.uleb128 0x1f
 4640 1355 08020000 		.4byte	.LVL23
 4641 1359 2C160000 		.4byte	0x162c
 4642 135d 1F       		.uleb128 0x1f
 4643 135e 1A020000 		.4byte	.LVL26
 4644 1362 0B160000 		.4byte	0x160b
 4645 1366 1D       		.uleb128 0x1d
 4646 1367 22020000 		.4byte	.LVL28
 4647 136b 19120000 		.4byte	0x1219
ARM GAS  /tmp/ccIXPZcX.s 			page 95


 4648 136f 80130000 		.4byte	0x1380
 4649 1373 1E       		.uleb128 0x1e
 4650 1374 01       		.byte	0x1
 4651 1375 50       		.byte	0x50
 4652 1376 02       		.byte	0x2
 4653 1377 77       		.byte	0x77
 4654 1378 00       		.sleb128 0
 4655 1379 1E       		.uleb128 0x1e
 4656 137a 01       		.byte	0x1
 4657 137b 51       		.byte	0x51
 4658 137c 02       		.byte	0x2
 4659 137d 74       		.byte	0x74
 4660 137e 00       		.sleb128 0
 4661 137f 00       		.byte	0
 4662 1380 1F       		.uleb128 0x1f
 4663 1381 36020000 		.4byte	.LVL31
 4664 1385 16160000 		.4byte	0x1616
 4665 1389 1F       		.uleb128 0x1f
 4666 138a 3E020000 		.4byte	.LVL32
 4667 138e 21160000 		.4byte	0x1621
 4668 1392 00       		.byte	0
 4669 1393 24       		.uleb128 0x24
 4670 1394 01       		.byte	0x1
 4671 1395 56030000 		.4byte	.LASF199
 4672 1399 02       		.byte	0x2
 4673 139a 7A       		.byte	0x7a
 4674 139b 06       		.byte	0x6
 4675 139c 01       		.byte	0x1
 4676 139d A0010000 		.4byte	.LFB39
 4677 13a1 BC010000 		.4byte	.LFE39
 4678 13a5 02       		.byte	0x2
 4679 13a6 7D       		.byte	0x7d
 4680 13a7 00       		.sleb128 0
 4681 13a8 01       		.byte	0x1
 4682 13a9 C2130000 		.4byte	0x13c2
 4683 13ad 21       		.uleb128 0x21
 4684 13ae 57010000 		.4byte	.LASF200
 4685 13b2 02       		.byte	0x2
 4686 13b3 7A       		.byte	0x7a
 4687 13b4 22       		.byte	0x22
 4688 13b5 4B020000 		.4byte	0x24b
 4689 13b9 52040000 		.4byte	.LLST4
 4690 13bd 4E040000 		.4byte	.LVUS4
 4691 13c1 00       		.byte	0
 4692 13c2 24       		.uleb128 0x24
 4693 13c3 01       		.byte	0x1
 4694 13c4 74050000 		.4byte	.LASF201
 4695 13c8 02       		.byte	0x2
 4696 13c9 72       		.byte	0x72
 4697 13ca 06       		.byte	0x6
 4698 13cb 01       		.byte	0x1
 4699 13cc 88010000 		.4byte	.LFB38
 4700 13d0 A0010000 		.4byte	.LFE38
 4701 13d4 02       		.byte	0x2
 4702 13d5 7D       		.byte	0x7d
 4703 13d6 00       		.sleb128 0
 4704 13d7 01       		.byte	0x1
ARM GAS  /tmp/ccIXPZcX.s 			page 96


 4705 13d8 F1130000 		.4byte	0x13f1
 4706 13dc 21       		.uleb128 0x21
 4707 13dd 57010000 		.4byte	.LASF200
 4708 13e1 02       		.byte	0x2
 4709 13e2 72       		.byte	0x72
 4710 13e3 21       		.byte	0x21
 4711 13e4 4B020000 		.4byte	0x24b
 4712 13e8 77040000 		.4byte	.LLST3
 4713 13ec 73040000 		.4byte	.LVUS3
 4714 13f0 00       		.byte	0
 4715 13f1 36       		.uleb128 0x36
 4716 13f2 01       		.byte	0x1
 4717 13f3 55000000 		.4byte	.LASF203
 4718 13f7 02       		.byte	0x2
 4719 13f8 66       		.byte	0x66
 4720 13f9 06       		.byte	0x6
 4721 13fa 01       		.byte	0x1
 4722 13fb 60010000 		.4byte	.LFB37
 4723 13ff 88010000 		.4byte	.LFE37
 4724 1403 02       		.byte	0x2
 4725 1404 7D       		.byte	0x7d
 4726 1405 00       		.sleb128 0
 4727 1406 01       		.byte	0x1
 4728 1407 20       		.uleb128 0x20
 4729 1408 01       		.byte	0x1
 4730 1409 91000000 		.4byte	.LASF204
 4731 140d 02       		.byte	0x2
 4732 140e 5F       		.byte	0x5f
 4733 140f 06       		.byte	0x6
 4734 1410 01       		.byte	0x1
 4735 1411 30010000 		.4byte	.LFB36
 4736 1415 60010000 		.4byte	.LFE36
 4737 1419 98040000 		.4byte	.LLST2
 4738 141d 01       		.byte	0x1
 4739 141e 2F140000 		.4byte	0x142f
 4740 1422 37       		.uleb128 0x37
 4741 1423 5400     		.ascii	"T\000"
 4742 1425 02       		.byte	0x2
 4743 1426 5F       		.byte	0x5f
 4744 1427 17       		.byte	0x17
 4745 1428 A4030000 		.4byte	0x3a4
 4746 142c 01       		.byte	0x1
 4747 142d 50       		.byte	0x50
 4748 142e 00       		.byte	0
 4749 142f 36       		.uleb128 0x36
 4750 1430 01       		.byte	0x1
 4751 1431 D2090000 		.4byte	.LASF205
 4752 1435 02       		.byte	0x2
 4753 1436 3D       		.byte	0x3d
 4754 1437 06       		.byte	0x6
 4755 1438 01       		.byte	0x1
 4756 1439 BC000000 		.4byte	.LFB35
 4757 143d 30010000 		.4byte	.LFE35
 4758 1441 02       		.byte	0x2
 4759 1442 7D       		.byte	0x7d
 4760 1443 00       		.sleb128 0
 4761 1444 01       		.byte	0x1
ARM GAS  /tmp/ccIXPZcX.s 			page 97


 4762 1445 2C       		.uleb128 0x2c
 4763 1446 01       		.byte	0x1
 4764 1447 A2000000 		.4byte	.LASF207
 4765 144b 02       		.byte	0x2
 4766 144c 0D       		.byte	0xd
 4767 144d 06       		.byte	0x6
 4768 144e 30000000 		.4byte	.LFB34
 4769 1452 BC000000 		.4byte	.LFE34
 4770 1456 02       		.byte	0x2
 4771 1457 7D       		.byte	0x7d
 4772 1458 00       		.sleb128 0
 4773 1459 01       		.byte	0x1
 4774 145a 38       		.uleb128 0x38
 4775 145b 19120000 		.4byte	0x1219
 4776 145f BC010000 		.4byte	.LFB41
 4777 1463 F8010000 		.4byte	.LFE41
 4778 1467 D0040000 		.4byte	.LLST5
 4779 146b 01       		.byte	0x1
 4780 146c F3140000 		.4byte	0x14f3
 4781 1470 39       		.uleb128 0x39
 4782 1471 28120000 		.4byte	0x1228
 4783 1475 FA040000 		.4byte	.LLST6
 4784 1479 F0040000 		.4byte	.LVUS6
 4785 147d 39       		.uleb128 0x39
 4786 147e 34120000 		.4byte	0x1234
 4787 1482 49050000 		.4byte	.LLST7
 4788 1486 3F050000 		.4byte	.LVUS7
 4789 148a 3A       		.uleb128 0x3a
 4790 148b 40120000 		.4byte	0x1240
 4791 148f 3A       		.uleb128 0x3a
 4792 1490 4C120000 		.4byte	0x124c
 4793 1494 3B       		.uleb128 0x3b
 4794 1495 19120000 		.4byte	0x1219
 4795 1499 00000000 		.4byte	.Ldebug_ranges0+0
 4796 149d 02       		.byte	0x2
 4797 149e A6       		.byte	0xa6
 4798 149f 06       		.byte	0x6
 4799 14a0 39       		.uleb128 0x39
 4800 14a1 34120000 		.4byte	0x1234
 4801 14a5 93050000 		.4byte	.LLST8
 4802 14a9 8D050000 		.4byte	.LVUS8
 4803 14ad 39       		.uleb128 0x39
 4804 14ae 28120000 		.4byte	0x1228
 4805 14b2 C2050000 		.4byte	.LLST9
 4806 14b6 BE050000 		.4byte	.LVUS9
 4807 14ba 35       		.uleb128 0x35
 4808 14bb 00000000 		.4byte	.Ldebug_ranges0+0
 4809 14bf 3C       		.uleb128 0x3c
 4810 14c0 40120000 		.4byte	0x1240
 4811 14c4 E2050000 		.4byte	.LLST10
 4812 14c8 E0050000 		.4byte	.LVUS10
 4813 14cc 3C       		.uleb128 0x3c
 4814 14cd 4C120000 		.4byte	0x124c
 4815 14d1 F7050000 		.4byte	.LLST11
 4816 14d5 F5050000 		.4byte	.LVUS11
 4817 14d9 3D       		.uleb128 0x3d
 4818 14da 58120000 		.4byte	0x1258
ARM GAS  /tmp/ccIXPZcX.s 			page 98


 4819 14de 18000000 		.4byte	.Ldebug_ranges0+0x18
 4820 14e2 3C       		.uleb128 0x3c
 4821 14e3 59120000 		.4byte	0x1259
 4822 14e7 0C060000 		.4byte	.LLST12
 4823 14eb 0A060000 		.4byte	.LVUS12
 4824 14ef 00       		.byte	0
 4825 14f0 00       		.byte	0
 4826 14f1 00       		.byte	0
 4827 14f2 00       		.byte	0
 4828 14f3 3E       		.uleb128 0x3e
 4829 14f4 01       		.byte	0x1
 4830 14f5 01       		.byte	0x1
 4831 14f6 A8020000 		.4byte	.LASF208
 4832 14fa A8020000 		.4byte	.LASF208
 4833 14fe 08       		.byte	0x8
 4834 14ff D805     		.2byte	0x5d8
 4835 1501 10       		.byte	0x10
 4836 1502 3E       		.uleb128 0x3e
 4837 1503 01       		.byte	0x1
 4838 1504 01       		.byte	0x1
 4839 1505 4F060000 		.4byte	.LASF209
 4840 1509 4F060000 		.4byte	.LASF209
 4841 150d 0D       		.byte	0xd
 4842 150e 4A01     		.2byte	0x14a
 4843 1510 0D       		.byte	0xd
 4844 1511 3E       		.uleb128 0x3e
 4845 1512 01       		.byte	0x1
 4846 1513 01       		.byte	0x1
 4847 1514 3E010000 		.4byte	.LASF210
 4848 1518 3E010000 		.4byte	.LASF210
 4849 151c 0D       		.byte	0xd
 4850 151d 9704     		.2byte	0x497
 4851 151f 06       		.byte	0x6
 4852 1520 3E       		.uleb128 0x3e
 4853 1521 01       		.byte	0x1
 4854 1522 01       		.byte	0x1
 4855 1523 4C040000 		.4byte	.LASF211
 4856 1527 4C040000 		.4byte	.LASF211
 4857 152b 08       		.byte	0x8
 4858 152c 8A02     		.2byte	0x28a
 4859 152e 0C       		.byte	0xc
 4860 152f 3E       		.uleb128 0x3e
 4861 1530 01       		.byte	0x1
 4862 1531 01       		.byte	0x1
 4863 1532 9C060000 		.4byte	.LASF212
 4864 1536 9C060000 		.4byte	.LASF212
 4865 153a 0D       		.byte	0xd
 4866 153b F602     		.2byte	0x2f6
 4867 153d 06       		.byte	0x6
 4868 153e 3F       		.uleb128 0x3f
 4869 153f 01       		.byte	0x1
 4870 1540 01       		.byte	0x1
 4871 1541 350B0000 		.4byte	.LASF213
 4872 1545 350B0000 		.4byte	.LASF213
 4873 1549 0E       		.byte	0xe
 4874 154a 2C       		.byte	0x2c
 4875 154b 06       		.byte	0x6
ARM GAS  /tmp/ccIXPZcX.s 			page 99


 4876 154c 3F       		.uleb128 0x3f
 4877 154d 01       		.byte	0x1
 4878 154e 01       		.byte	0x1
 4879 154f 29080000 		.4byte	.LASF214
 4880 1553 29080000 		.4byte	.LASF214
 4881 1557 0E       		.byte	0xe
 4882 1558 30       		.byte	0x30
 4883 1559 06       		.byte	0x6
 4884 155a 3E       		.uleb128 0x3e
 4885 155b 01       		.byte	0x1
 4886 155c 01       		.byte	0x1
 4887 155d F9040000 		.4byte	.LASF215
 4888 1561 F9040000 		.4byte	.LASF215
 4889 1565 08       		.byte	0x8
 4890 1566 6403     		.2byte	0x364
 4891 1568 0C       		.byte	0xc
 4892 1569 40       		.uleb128 0x40
 4893 156a 01       		.byte	0x1
 4894 156b 01       		.byte	0x1
 4895 156c 1D0B0000 		.4byte	.LASF216
 4896 1570 1D0B0000 		.4byte	.LASF216
 4897 1574 40       		.uleb128 0x40
 4898 1575 01       		.byte	0x1
 4899 1576 01       		.byte	0x1
 4900 1577 EA050000 		.4byte	.LASF217
 4901 157b EA050000 		.4byte	.LASF217
 4902 157f 40       		.uleb128 0x40
 4903 1580 01       		.byte	0x1
 4904 1581 01       		.byte	0x1
 4905 1582 FE0A0000 		.4byte	.LASF218
 4906 1586 FE0A0000 		.4byte	.LASF218
 4907 158a 3F       		.uleb128 0x3f
 4908 158b 01       		.byte	0x1
 4909 158c 01       		.byte	0x1
 4910 158d AF070000 		.4byte	.LASF219
 4911 1591 AF070000 		.4byte	.LASF219
 4912 1595 0E       		.byte	0xe
 4913 1596 2F       		.byte	0x2f
 4914 1597 06       		.byte	0x6
 4915 1598 3F       		.uleb128 0x3f
 4916 1599 01       		.byte	0x1
 4917 159a 01       		.byte	0x1
 4918 159b 3D000000 		.4byte	.LASF220
 4919 159f 3D000000 		.4byte	.LASF220
 4920 15a3 0E       		.byte	0xe
 4921 15a4 2E       		.byte	0x2e
 4922 15a5 06       		.byte	0x6
 4923 15a6 3E       		.uleb128 0x3e
 4924 15a7 01       		.byte	0x1
 4925 15a8 01       		.byte	0x1
 4926 15a9 22000000 		.4byte	.LASF221
 4927 15ad 22000000 		.4byte	.LASF221
 4928 15b1 0C       		.byte	0xc
 4929 15b2 7A01     		.2byte	0x17a
 4930 15b4 06       		.byte	0x6
 4931 15b5 3E       		.uleb128 0x3e
 4932 15b6 01       		.byte	0x1
ARM GAS  /tmp/ccIXPZcX.s 			page 100


 4933 15b7 01       		.byte	0x1
 4934 15b8 B9050000 		.4byte	.LASF222
 4935 15bc B9050000 		.4byte	.LASF222
 4936 15c0 0C       		.byte	0xc
 4937 15c1 8601     		.2byte	0x186
 4938 15c3 0C       		.byte	0xc
 4939 15c4 3E       		.uleb128 0x3e
 4940 15c5 01       		.byte	0x1
 4941 15c6 01       		.byte	0x1
 4942 15c7 23030000 		.4byte	.LASF223
 4943 15cb 23030000 		.4byte	.LASF223
 4944 15cf 0F       		.byte	0xf
 4945 15d0 B502     		.2byte	0x2b5
 4946 15d2 06       		.byte	0x6
 4947 15d3 3E       		.uleb128 0x3e
 4948 15d4 01       		.byte	0x1
 4949 15d5 01       		.byte	0x1
 4950 15d6 A7060000 		.4byte	.LASF224
 4951 15da A7060000 		.4byte	.LASF224
 4952 15de 0B       		.byte	0xb
 4953 15df 5F01     		.2byte	0x15f
 4954 15e1 06       		.byte	0x6
 4955 15e2 3E       		.uleb128 0x3e
 4956 15e3 01       		.byte	0x1
 4957 15e4 01       		.byte	0x1
 4958 15e5 C8030000 		.4byte	.LASF225
 4959 15e9 C8030000 		.4byte	.LASF225
 4960 15ed 0C       		.byte	0xc
 4961 15ee 6E01     		.2byte	0x16e
 4962 15f0 06       		.byte	0x6
 4963 15f1 3E       		.uleb128 0x3e
 4964 15f2 01       		.byte	0x1
 4965 15f3 01       		.byte	0x1
 4966 15f4 79070000 		.4byte	.LASF226
 4967 15f8 79070000 		.4byte	.LASF226
 4968 15fc 0C       		.byte	0xc
 4969 15fd 7201     		.2byte	0x172
 4970 15ff 06       		.byte	0x6
 4971 1600 40       		.uleb128 0x40
 4972 1601 01       		.byte	0x1
 4973 1602 01       		.byte	0x1
 4974 1603 0A060000 		.4byte	.LASF227
 4975 1607 0A060000 		.4byte	.LASF227
 4976 160b 40       		.uleb128 0x40
 4977 160c 01       		.byte	0x1
 4978 160d 01       		.byte	0x1
 4979 160e 68030000 		.4byte	.LASF228
 4980 1612 68030000 		.4byte	.LASF228
 4981 1616 40       		.uleb128 0x40
 4982 1617 01       		.byte	0x1
 4983 1618 01       		.byte	0x1
 4984 1619 290B0000 		.4byte	.LASF229
 4985 161d 290B0000 		.4byte	.LASF229
 4986 1621 40       		.uleb128 0x40
 4987 1622 01       		.byte	0x1
 4988 1623 01       		.byte	0x1
 4989 1624 DF070000 		.4byte	.LASF230
ARM GAS  /tmp/ccIXPZcX.s 			page 101


 4990 1628 DF070000 		.4byte	.LASF230
 4991 162c 40       		.uleb128 0x40
 4992 162d 01       		.byte	0x1
 4993 162e 01       		.byte	0x1
 4994 162f 6E0A0000 		.4byte	.LASF231
 4995 1633 6E0A0000 		.4byte	.LASF231
 4996 1637 00       		.byte	0
 4997              		.section	.debug_abbrev,"",%progbits
 4998              	.Ldebug_abbrev0:
 4999 0000 01       		.uleb128 0x1
 5000 0001 11       		.uleb128 0x11
 5001 0002 01       		.byte	0x1
 5002 0003 25       		.uleb128 0x25
 5003 0004 0E       		.uleb128 0xe
 5004 0005 13       		.uleb128 0x13
 5005 0006 0B       		.uleb128 0xb
 5006 0007 03       		.uleb128 0x3
 5007 0008 0E       		.uleb128 0xe
 5008 0009 1B       		.uleb128 0x1b
 5009 000a 0E       		.uleb128 0xe
 5010 000b 55       		.uleb128 0x55
 5011 000c 06       		.uleb128 0x6
 5012 000d 11       		.uleb128 0x11
 5013 000e 01       		.uleb128 0x1
 5014 000f 52       		.uleb128 0x52
 5015 0010 01       		.uleb128 0x1
 5016 0011 10       		.uleb128 0x10
 5017 0012 06       		.uleb128 0x6
 5018 0013 00       		.byte	0
 5019 0014 00       		.byte	0
 5020 0015 02       		.uleb128 0x2
 5021 0016 24       		.uleb128 0x24
 5022 0017 00       		.byte	0
 5023 0018 0B       		.uleb128 0xb
 5024 0019 0B       		.uleb128 0xb
 5025 001a 3E       		.uleb128 0x3e
 5026 001b 0B       		.uleb128 0xb
 5027 001c 03       		.uleb128 0x3
 5028 001d 08       		.uleb128 0x8
 5029 001e 00       		.byte	0
 5030 001f 00       		.byte	0
 5031 0020 03       		.uleb128 0x3
 5032 0021 24       		.uleb128 0x24
 5033 0022 00       		.byte	0
 5034 0023 0B       		.uleb128 0xb
 5035 0024 0B       		.uleb128 0xb
 5036 0025 3E       		.uleb128 0x3e
 5037 0026 0B       		.uleb128 0xb
 5038 0027 03       		.uleb128 0x3
 5039 0028 0E       		.uleb128 0xe
 5040 0029 00       		.byte	0
 5041 002a 00       		.byte	0
 5042 002b 04       		.uleb128 0x4
 5043 002c 16       		.uleb128 0x16
 5044 002d 00       		.byte	0
 5045 002e 03       		.uleb128 0x3
 5046 002f 0E       		.uleb128 0xe
ARM GAS  /tmp/ccIXPZcX.s 			page 102


 5047 0030 3A       		.uleb128 0x3a
 5048 0031 0B       		.uleb128 0xb
 5049 0032 3B       		.uleb128 0x3b
 5050 0033 0B       		.uleb128 0xb
 5051 0034 39       		.uleb128 0x39
 5052 0035 0B       		.uleb128 0xb
 5053 0036 49       		.uleb128 0x49
 5054 0037 13       		.uleb128 0x13
 5055 0038 00       		.byte	0
 5056 0039 00       		.byte	0
 5057 003a 05       		.uleb128 0x5
 5058 003b 35       		.uleb128 0x35
 5059 003c 00       		.byte	0
 5060 003d 49       		.uleb128 0x49
 5061 003e 13       		.uleb128 0x13
 5062 003f 00       		.byte	0
 5063 0040 00       		.byte	0
 5064 0041 06       		.uleb128 0x6
 5065 0042 0F       		.uleb128 0xf
 5066 0043 00       		.byte	0
 5067 0044 0B       		.uleb128 0xb
 5068 0045 0B       		.uleb128 0xb
 5069 0046 00       		.byte	0
 5070 0047 00       		.byte	0
 5071 0048 07       		.uleb128 0x7
 5072 0049 0F       		.uleb128 0xf
 5073 004a 00       		.byte	0
 5074 004b 0B       		.uleb128 0xb
 5075 004c 0B       		.uleb128 0xb
 5076 004d 49       		.uleb128 0x49
 5077 004e 13       		.uleb128 0x13
 5078 004f 00       		.byte	0
 5079 0050 00       		.byte	0
 5080 0051 08       		.uleb128 0x8
 5081 0052 13       		.uleb128 0x13
 5082 0053 00       		.byte	0
 5083 0054 03       		.uleb128 0x3
 5084 0055 0E       		.uleb128 0xe
 5085 0056 3C       		.uleb128 0x3c
 5086 0057 0C       		.uleb128 0xc
 5087 0058 00       		.byte	0
 5088 0059 00       		.byte	0
 5089 005a 09       		.uleb128 0x9
 5090 005b 04       		.uleb128 0x4
 5091 005c 01       		.byte	0x1
 5092 005d 03       		.uleb128 0x3
 5093 005e 0E       		.uleb128 0xe
 5094 005f 3E       		.uleb128 0x3e
 5095 0060 0B       		.uleb128 0xb
 5096 0061 0B       		.uleb128 0xb
 5097 0062 0B       		.uleb128 0xb
 5098 0063 49       		.uleb128 0x49
 5099 0064 13       		.uleb128 0x13
 5100 0065 3A       		.uleb128 0x3a
 5101 0066 0B       		.uleb128 0xb
 5102 0067 3B       		.uleb128 0x3b
 5103 0068 0B       		.uleb128 0xb
ARM GAS  /tmp/ccIXPZcX.s 			page 103


 5104 0069 39       		.uleb128 0x39
 5105 006a 0B       		.uleb128 0xb
 5106 006b 01       		.uleb128 0x1
 5107 006c 13       		.uleb128 0x13
 5108 006d 00       		.byte	0
 5109 006e 00       		.byte	0
 5110 006f 0A       		.uleb128 0xa
 5111 0070 28       		.uleb128 0x28
 5112 0071 00       		.byte	0
 5113 0072 03       		.uleb128 0x3
 5114 0073 0E       		.uleb128 0xe
 5115 0074 1C       		.uleb128 0x1c
 5116 0075 0D       		.uleb128 0xd
 5117 0076 00       		.byte	0
 5118 0077 00       		.byte	0
 5119 0078 0B       		.uleb128 0xb
 5120 0079 28       		.uleb128 0x28
 5121 007a 00       		.byte	0
 5122 007b 03       		.uleb128 0x3
 5123 007c 0E       		.uleb128 0xe
 5124 007d 1C       		.uleb128 0x1c
 5125 007e 0B       		.uleb128 0xb
 5126 007f 00       		.byte	0
 5127 0080 00       		.byte	0
 5128 0081 0C       		.uleb128 0xc
 5129 0082 16       		.uleb128 0x16
 5130 0083 00       		.byte	0
 5131 0084 03       		.uleb128 0x3
 5132 0085 0E       		.uleb128 0xe
 5133 0086 3A       		.uleb128 0x3a
 5134 0087 0B       		.uleb128 0xb
 5135 0088 3B       		.uleb128 0x3b
 5136 0089 05       		.uleb128 0x5
 5137 008a 39       		.uleb128 0x39
 5138 008b 0B       		.uleb128 0xb
 5139 008c 49       		.uleb128 0x49
 5140 008d 13       		.uleb128 0x13
 5141 008e 00       		.byte	0
 5142 008f 00       		.byte	0
 5143 0090 0D       		.uleb128 0xd
 5144 0091 13       		.uleb128 0x13
 5145 0092 01       		.byte	0x1
 5146 0093 0B       		.uleb128 0xb
 5147 0094 05       		.uleb128 0x5
 5148 0095 3A       		.uleb128 0x3a
 5149 0096 0B       		.uleb128 0xb
 5150 0097 3B       		.uleb128 0x3b
 5151 0098 0B       		.uleb128 0xb
 5152 0099 39       		.uleb128 0x39
 5153 009a 0B       		.uleb128 0xb
 5154 009b 01       		.uleb128 0x1
 5155 009c 13       		.uleb128 0x13
 5156 009d 00       		.byte	0
 5157 009e 00       		.byte	0
 5158 009f 0E       		.uleb128 0xe
 5159 00a0 0D       		.uleb128 0xd
 5160 00a1 00       		.byte	0
ARM GAS  /tmp/ccIXPZcX.s 			page 104


 5161 00a2 03       		.uleb128 0x3
 5162 00a3 0E       		.uleb128 0xe
 5163 00a4 3A       		.uleb128 0x3a
 5164 00a5 0B       		.uleb128 0xb
 5165 00a6 3B       		.uleb128 0x3b
 5166 00a7 0B       		.uleb128 0xb
 5167 00a8 39       		.uleb128 0x39
 5168 00a9 0B       		.uleb128 0xb
 5169 00aa 49       		.uleb128 0x49
 5170 00ab 13       		.uleb128 0x13
 5171 00ac 38       		.uleb128 0x38
 5172 00ad 0A       		.uleb128 0xa
 5173 00ae 00       		.byte	0
 5174 00af 00       		.byte	0
 5175 00b0 0F       		.uleb128 0xf
 5176 00b1 0D       		.uleb128 0xd
 5177 00b2 00       		.byte	0
 5178 00b3 03       		.uleb128 0x3
 5179 00b4 08       		.uleb128 0x8
 5180 00b5 3A       		.uleb128 0x3a
 5181 00b6 0B       		.uleb128 0xb
 5182 00b7 3B       		.uleb128 0x3b
 5183 00b8 0B       		.uleb128 0xb
 5184 00b9 39       		.uleb128 0x39
 5185 00ba 0B       		.uleb128 0xb
 5186 00bb 49       		.uleb128 0x49
 5187 00bc 13       		.uleb128 0x13
 5188 00bd 38       		.uleb128 0x38
 5189 00be 0A       		.uleb128 0xa
 5190 00bf 00       		.byte	0
 5191 00c0 00       		.byte	0
 5192 00c1 10       		.uleb128 0x10
 5193 00c2 01       		.uleb128 0x1
 5194 00c3 01       		.byte	0x1
 5195 00c4 49       		.uleb128 0x49
 5196 00c5 13       		.uleb128 0x13
 5197 00c6 01       		.uleb128 0x1
 5198 00c7 13       		.uleb128 0x13
 5199 00c8 00       		.byte	0
 5200 00c9 00       		.byte	0
 5201 00ca 11       		.uleb128 0x11
 5202 00cb 21       		.uleb128 0x21
 5203 00cc 00       		.byte	0
 5204 00cd 49       		.uleb128 0x49
 5205 00ce 13       		.uleb128 0x13
 5206 00cf 2F       		.uleb128 0x2f
 5207 00d0 0B       		.uleb128 0xb
 5208 00d1 00       		.byte	0
 5209 00d2 00       		.byte	0
 5210 00d3 12       		.uleb128 0x12
 5211 00d4 21       		.uleb128 0x21
 5212 00d5 00       		.byte	0
 5213 00d6 49       		.uleb128 0x49
 5214 00d7 13       		.uleb128 0x13
 5215 00d8 2F       		.uleb128 0x2f
 5216 00d9 05       		.uleb128 0x5
 5217 00da 00       		.byte	0
ARM GAS  /tmp/ccIXPZcX.s 			page 105


 5218 00db 00       		.byte	0
 5219 00dc 13       		.uleb128 0x13
 5220 00dd 16       		.uleb128 0x16
 5221 00de 00       		.byte	0
 5222 00df 03       		.uleb128 0x3
 5223 00e0 08       		.uleb128 0x8
 5224 00e1 3A       		.uleb128 0x3a
 5225 00e2 0B       		.uleb128 0xb
 5226 00e3 3B       		.uleb128 0x3b
 5227 00e4 05       		.uleb128 0x5
 5228 00e5 39       		.uleb128 0x39
 5229 00e6 0B       		.uleb128 0xb
 5230 00e7 49       		.uleb128 0x49
 5231 00e8 13       		.uleb128 0x13
 5232 00e9 00       		.byte	0
 5233 00ea 00       		.byte	0
 5234 00eb 14       		.uleb128 0x14
 5235 00ec 04       		.uleb128 0x4
 5236 00ed 01       		.byte	0x1
 5237 00ee 3E       		.uleb128 0x3e
 5238 00ef 0B       		.uleb128 0xb
 5239 00f0 0B       		.uleb128 0xb
 5240 00f1 0B       		.uleb128 0xb
 5241 00f2 49       		.uleb128 0x49
 5242 00f3 13       		.uleb128 0x13
 5243 00f4 3A       		.uleb128 0x3a
 5244 00f5 0B       		.uleb128 0xb
 5245 00f6 3B       		.uleb128 0x3b
 5246 00f7 05       		.uleb128 0x5
 5247 00f8 39       		.uleb128 0x39
 5248 00f9 0B       		.uleb128 0xb
 5249 00fa 01       		.uleb128 0x1
 5250 00fb 13       		.uleb128 0x13
 5251 00fc 00       		.byte	0
 5252 00fd 00       		.byte	0
 5253 00fe 15       		.uleb128 0x15
 5254 00ff 28       		.uleb128 0x28
 5255 0100 00       		.byte	0
 5256 0101 03       		.uleb128 0x3
 5257 0102 08       		.uleb128 0x8
 5258 0103 1C       		.uleb128 0x1c
 5259 0104 0B       		.uleb128 0xb
 5260 0105 00       		.byte	0
 5261 0106 00       		.byte	0
 5262 0107 16       		.uleb128 0x16
 5263 0108 13       		.uleb128 0x13
 5264 0109 01       		.byte	0x1
 5265 010a 0B       		.uleb128 0xb
 5266 010b 0B       		.uleb128 0xb
 5267 010c 3A       		.uleb128 0x3a
 5268 010d 0B       		.uleb128 0xb
 5269 010e 3B       		.uleb128 0x3b
 5270 010f 05       		.uleb128 0x5
 5271 0110 39       		.uleb128 0x39
 5272 0111 0B       		.uleb128 0xb
 5273 0112 01       		.uleb128 0x1
 5274 0113 13       		.uleb128 0x13
ARM GAS  /tmp/ccIXPZcX.s 			page 106


 5275 0114 00       		.byte	0
 5276 0115 00       		.byte	0
 5277 0116 17       		.uleb128 0x17
 5278 0117 0D       		.uleb128 0xd
 5279 0118 00       		.byte	0
 5280 0119 03       		.uleb128 0x3
 5281 011a 08       		.uleb128 0x8
 5282 011b 3A       		.uleb128 0x3a
 5283 011c 0B       		.uleb128 0xb
 5284 011d 3B       		.uleb128 0x3b
 5285 011e 05       		.uleb128 0x5
 5286 011f 39       		.uleb128 0x39
 5287 0120 0B       		.uleb128 0xb
 5288 0121 49       		.uleb128 0x49
 5289 0122 13       		.uleb128 0x13
 5290 0123 38       		.uleb128 0x38
 5291 0124 0A       		.uleb128 0xa
 5292 0125 00       		.byte	0
 5293 0126 00       		.byte	0
 5294 0127 18       		.uleb128 0x18
 5295 0128 0D       		.uleb128 0xd
 5296 0129 00       		.byte	0
 5297 012a 03       		.uleb128 0x3
 5298 012b 0E       		.uleb128 0xe
 5299 012c 3A       		.uleb128 0x3a
 5300 012d 0B       		.uleb128 0xb
 5301 012e 3B       		.uleb128 0x3b
 5302 012f 05       		.uleb128 0x5
 5303 0130 39       		.uleb128 0x39
 5304 0131 0B       		.uleb128 0xb
 5305 0132 49       		.uleb128 0x49
 5306 0133 13       		.uleb128 0x13
 5307 0134 38       		.uleb128 0x38
 5308 0135 0A       		.uleb128 0xa
 5309 0136 00       		.byte	0
 5310 0137 00       		.byte	0
 5311 0138 19       		.uleb128 0x19
 5312 0139 04       		.uleb128 0x4
 5313 013a 01       		.byte	0x1
 5314 013b 3E       		.uleb128 0x3e
 5315 013c 0B       		.uleb128 0xb
 5316 013d 0B       		.uleb128 0xb
 5317 013e 0B       		.uleb128 0xb
 5318 013f 49       		.uleb128 0x49
 5319 0140 13       		.uleb128 0x13
 5320 0141 3A       		.uleb128 0x3a
 5321 0142 0B       		.uleb128 0xb
 5322 0143 3B       		.uleb128 0x3b
 5323 0144 0B       		.uleb128 0xb
 5324 0145 39       		.uleb128 0x39
 5325 0146 0B       		.uleb128 0xb
 5326 0147 01       		.uleb128 0x1
 5327 0148 13       		.uleb128 0x13
 5328 0149 00       		.byte	0
 5329 014a 00       		.byte	0
 5330 014b 1A       		.uleb128 0x1a
 5331 014c 13       		.uleb128 0x13
ARM GAS  /tmp/ccIXPZcX.s 			page 107


 5332 014d 01       		.byte	0x1
 5333 014e 0B       		.uleb128 0xb
 5334 014f 0B       		.uleb128 0xb
 5335 0150 3A       		.uleb128 0x3a
 5336 0151 0B       		.uleb128 0xb
 5337 0152 3B       		.uleb128 0x3b
 5338 0153 0B       		.uleb128 0xb
 5339 0154 39       		.uleb128 0x39
 5340 0155 0B       		.uleb128 0xb
 5341 0156 01       		.uleb128 0x1
 5342 0157 13       		.uleb128 0x13
 5343 0158 00       		.byte	0
 5344 0159 00       		.byte	0
 5345 015a 1B       		.uleb128 0x1b
 5346 015b 34       		.uleb128 0x34
 5347 015c 00       		.byte	0
 5348 015d 03       		.uleb128 0x3
 5349 015e 0E       		.uleb128 0xe
 5350 015f 3A       		.uleb128 0x3a
 5351 0160 0B       		.uleb128 0xb
 5352 0161 3B       		.uleb128 0x3b
 5353 0162 0B       		.uleb128 0xb
 5354 0163 39       		.uleb128 0x39
 5355 0164 0B       		.uleb128 0xb
 5356 0165 49       		.uleb128 0x49
 5357 0166 13       		.uleb128 0x13
 5358 0167 02       		.uleb128 0x2
 5359 0168 0A       		.uleb128 0xa
 5360 0169 00       		.byte	0
 5361 016a 00       		.byte	0
 5362 016b 1C       		.uleb128 0x1c
 5363 016c 2E       		.uleb128 0x2e
 5364 016d 01       		.byte	0x1
 5365 016e 3F       		.uleb128 0x3f
 5366 016f 0C       		.uleb128 0xc
 5367 0170 03       		.uleb128 0x3
 5368 0171 0E       		.uleb128 0xe
 5369 0172 3A       		.uleb128 0x3a
 5370 0173 0B       		.uleb128 0xb
 5371 0174 3B       		.uleb128 0x3b
 5372 0175 0B       		.uleb128 0xb
 5373 0176 39       		.uleb128 0x39
 5374 0177 0B       		.uleb128 0xb
 5375 0178 27       		.uleb128 0x27
 5376 0179 0C       		.uleb128 0xc
 5377 017a 49       		.uleb128 0x49
 5378 017b 13       		.uleb128 0x13
 5379 017c 11       		.uleb128 0x11
 5380 017d 01       		.uleb128 0x1
 5381 017e 12       		.uleb128 0x12
 5382 017f 01       		.uleb128 0x1
 5383 0180 40       		.uleb128 0x40
 5384 0181 06       		.uleb128 0x6
 5385 0182 9742     		.uleb128 0x2117
 5386 0184 0C       		.uleb128 0xc
 5387 0185 01       		.uleb128 0x1
 5388 0186 13       		.uleb128 0x13
ARM GAS  /tmp/ccIXPZcX.s 			page 108


 5389 0187 00       		.byte	0
 5390 0188 00       		.byte	0
 5391 0189 1D       		.uleb128 0x1d
 5392 018a 898201   		.uleb128 0x4109
 5393 018d 01       		.byte	0x1
 5394 018e 11       		.uleb128 0x11
 5395 018f 01       		.uleb128 0x1
 5396 0190 31       		.uleb128 0x31
 5397 0191 13       		.uleb128 0x13
 5398 0192 01       		.uleb128 0x1
 5399 0193 13       		.uleb128 0x13
 5400 0194 00       		.byte	0
 5401 0195 00       		.byte	0
 5402 0196 1E       		.uleb128 0x1e
 5403 0197 8A8201   		.uleb128 0x410a
 5404 019a 00       		.byte	0
 5405 019b 02       		.uleb128 0x2
 5406 019c 0A       		.uleb128 0xa
 5407 019d 9142     		.uleb128 0x2111
 5408 019f 0A       		.uleb128 0xa
 5409 01a0 00       		.byte	0
 5410 01a1 00       		.byte	0
 5411 01a2 1F       		.uleb128 0x1f
 5412 01a3 898201   		.uleb128 0x4109
 5413 01a6 00       		.byte	0
 5414 01a7 11       		.uleb128 0x11
 5415 01a8 01       		.uleb128 0x1
 5416 01a9 31       		.uleb128 0x31
 5417 01aa 13       		.uleb128 0x13
 5418 01ab 00       		.byte	0
 5419 01ac 00       		.byte	0
 5420 01ad 20       		.uleb128 0x20
 5421 01ae 2E       		.uleb128 0x2e
 5422 01af 01       		.byte	0x1
 5423 01b0 3F       		.uleb128 0x3f
 5424 01b1 0C       		.uleb128 0xc
 5425 01b2 03       		.uleb128 0x3
 5426 01b3 0E       		.uleb128 0xe
 5427 01b4 3A       		.uleb128 0x3a
 5428 01b5 0B       		.uleb128 0xb
 5429 01b6 3B       		.uleb128 0x3b
 5430 01b7 0B       		.uleb128 0xb
 5431 01b8 39       		.uleb128 0x39
 5432 01b9 0B       		.uleb128 0xb
 5433 01ba 27       		.uleb128 0x27
 5434 01bb 0C       		.uleb128 0xc
 5435 01bc 11       		.uleb128 0x11
 5436 01bd 01       		.uleb128 0x1
 5437 01be 12       		.uleb128 0x12
 5438 01bf 01       		.uleb128 0x1
 5439 01c0 40       		.uleb128 0x40
 5440 01c1 06       		.uleb128 0x6
 5441 01c2 9742     		.uleb128 0x2117
 5442 01c4 0C       		.uleb128 0xc
 5443 01c5 01       		.uleb128 0x1
 5444 01c6 13       		.uleb128 0x13
 5445 01c7 00       		.byte	0
ARM GAS  /tmp/ccIXPZcX.s 			page 109


 5446 01c8 00       		.byte	0
 5447 01c9 21       		.uleb128 0x21
 5448 01ca 05       		.uleb128 0x5
 5449 01cb 00       		.byte	0
 5450 01cc 03       		.uleb128 0x3
 5451 01cd 0E       		.uleb128 0xe
 5452 01ce 3A       		.uleb128 0x3a
 5453 01cf 0B       		.uleb128 0xb
 5454 01d0 3B       		.uleb128 0x3b
 5455 01d1 0B       		.uleb128 0xb
 5456 01d2 39       		.uleb128 0x39
 5457 01d3 0B       		.uleb128 0xb
 5458 01d4 49       		.uleb128 0x49
 5459 01d5 13       		.uleb128 0x13
 5460 01d6 02       		.uleb128 0x2
 5461 01d7 06       		.uleb128 0x6
 5462 01d8 B742     		.uleb128 0x2137
 5463 01da 06       		.uleb128 0x6
 5464 01db 00       		.byte	0
 5465 01dc 00       		.byte	0
 5466 01dd 22       		.uleb128 0x22
 5467 01de 898201   		.uleb128 0x4109
 5468 01e1 01       		.byte	0x1
 5469 01e2 11       		.uleb128 0x11
 5470 01e3 01       		.uleb128 0x1
 5471 01e4 31       		.uleb128 0x31
 5472 01e5 13       		.uleb128 0x13
 5473 01e6 00       		.byte	0
 5474 01e7 00       		.byte	0
 5475 01e8 23       		.uleb128 0x23
 5476 01e9 2E       		.uleb128 0x2e
 5477 01ea 01       		.byte	0x1
 5478 01eb 03       		.uleb128 0x3
 5479 01ec 0E       		.uleb128 0xe
 5480 01ed 3A       		.uleb128 0x3a
 5481 01ee 0B       		.uleb128 0xb
 5482 01ef 3B       		.uleb128 0x3b
 5483 01f0 0B       		.uleb128 0xb
 5484 01f1 39       		.uleb128 0x39
 5485 01f2 0B       		.uleb128 0xb
 5486 01f3 27       		.uleb128 0x27
 5487 01f4 0C       		.uleb128 0xc
 5488 01f5 11       		.uleb128 0x11
 5489 01f6 01       		.uleb128 0x1
 5490 01f7 12       		.uleb128 0x12
 5491 01f8 01       		.uleb128 0x1
 5492 01f9 40       		.uleb128 0x40
 5493 01fa 06       		.uleb128 0x6
 5494 01fb 9742     		.uleb128 0x2117
 5495 01fd 0C       		.uleb128 0xc
 5496 01fe 01       		.uleb128 0x1
 5497 01ff 13       		.uleb128 0x13
 5498 0200 00       		.byte	0
 5499 0201 00       		.byte	0
 5500 0202 24       		.uleb128 0x24
 5501 0203 2E       		.uleb128 0x2e
 5502 0204 01       		.byte	0x1
ARM GAS  /tmp/ccIXPZcX.s 			page 110


 5503 0205 3F       		.uleb128 0x3f
 5504 0206 0C       		.uleb128 0xc
 5505 0207 03       		.uleb128 0x3
 5506 0208 0E       		.uleb128 0xe
 5507 0209 3A       		.uleb128 0x3a
 5508 020a 0B       		.uleb128 0xb
 5509 020b 3B       		.uleb128 0x3b
 5510 020c 0B       		.uleb128 0xb
 5511 020d 39       		.uleb128 0x39
 5512 020e 0B       		.uleb128 0xb
 5513 020f 27       		.uleb128 0x27
 5514 0210 0C       		.uleb128 0xc
 5515 0211 11       		.uleb128 0x11
 5516 0212 01       		.uleb128 0x1
 5517 0213 12       		.uleb128 0x12
 5518 0214 01       		.uleb128 0x1
 5519 0215 40       		.uleb128 0x40
 5520 0216 0A       		.uleb128 0xa
 5521 0217 9742     		.uleb128 0x2117
 5522 0219 0C       		.uleb128 0xc
 5523 021a 01       		.uleb128 0x1
 5524 021b 13       		.uleb128 0x13
 5525 021c 00       		.byte	0
 5526 021d 00       		.byte	0
 5527 021e 25       		.uleb128 0x25
 5528 021f 05       		.uleb128 0x5
 5529 0220 00       		.byte	0
 5530 0221 03       		.uleb128 0x3
 5531 0222 0E       		.uleb128 0xe
 5532 0223 3A       		.uleb128 0x3a
 5533 0224 0B       		.uleb128 0xb
 5534 0225 3B       		.uleb128 0x3b
 5535 0226 0B       		.uleb128 0xb
 5536 0227 39       		.uleb128 0x39
 5537 0228 0B       		.uleb128 0xb
 5538 0229 49       		.uleb128 0x49
 5539 022a 13       		.uleb128 0x13
 5540 022b 02       		.uleb128 0x2
 5541 022c 0A       		.uleb128 0xa
 5542 022d 00       		.byte	0
 5543 022e 00       		.byte	0
 5544 022f 26       		.uleb128 0x26
 5545 0230 34       		.uleb128 0x34
 5546 0231 00       		.byte	0
 5547 0232 03       		.uleb128 0x3
 5548 0233 0E       		.uleb128 0xe
 5549 0234 3A       		.uleb128 0x3a
 5550 0235 0B       		.uleb128 0xb
 5551 0236 3B       		.uleb128 0x3b
 5552 0237 0B       		.uleb128 0xb
 5553 0238 39       		.uleb128 0x39
 5554 0239 0B       		.uleb128 0xb
 5555 023a 49       		.uleb128 0x49
 5556 023b 13       		.uleb128 0x13
 5557 023c 02       		.uleb128 0x2
 5558 023d 06       		.uleb128 0x6
 5559 023e B742     		.uleb128 0x2137
ARM GAS  /tmp/ccIXPZcX.s 			page 111


 5560 0240 06       		.uleb128 0x6
 5561 0241 00       		.byte	0
 5562 0242 00       		.byte	0
 5563 0243 27       		.uleb128 0x27
 5564 0244 0B       		.uleb128 0xb
 5565 0245 01       		.byte	0x1
 5566 0246 55       		.uleb128 0x55
 5567 0247 06       		.uleb128 0x6
 5568 0248 01       		.uleb128 0x1
 5569 0249 13       		.uleb128 0x13
 5570 024a 00       		.byte	0
 5571 024b 00       		.byte	0
 5572 024c 28       		.uleb128 0x28
 5573 024d 34       		.uleb128 0x34
 5574 024e 00       		.byte	0
 5575 024f 03       		.uleb128 0x3
 5576 0250 08       		.uleb128 0x8
 5577 0251 3A       		.uleb128 0x3a
 5578 0252 0B       		.uleb128 0xb
 5579 0253 3B       		.uleb128 0x3b
 5580 0254 0B       		.uleb128 0xb
 5581 0255 39       		.uleb128 0x39
 5582 0256 0B       		.uleb128 0xb
 5583 0257 49       		.uleb128 0x49
 5584 0258 13       		.uleb128 0x13
 5585 0259 02       		.uleb128 0x2
 5586 025a 06       		.uleb128 0x6
 5587 025b B742     		.uleb128 0x2137
 5588 025d 06       		.uleb128 0x6
 5589 025e 00       		.byte	0
 5590 025f 00       		.byte	0
 5591 0260 29       		.uleb128 0x29
 5592 0261 2E       		.uleb128 0x2e
 5593 0262 01       		.byte	0x1
 5594 0263 3F       		.uleb128 0x3f
 5595 0264 0C       		.uleb128 0xc
 5596 0265 03       		.uleb128 0x3
 5597 0266 0E       		.uleb128 0xe
 5598 0267 3A       		.uleb128 0x3a
 5599 0268 0B       		.uleb128 0xb
 5600 0269 3B       		.uleb128 0x3b
 5601 026a 0B       		.uleb128 0xb
 5602 026b 39       		.uleb128 0x39
 5603 026c 0B       		.uleb128 0xb
 5604 026d 11       		.uleb128 0x11
 5605 026e 01       		.uleb128 0x1
 5606 026f 12       		.uleb128 0x12
 5607 0270 01       		.uleb128 0x1
 5608 0271 40       		.uleb128 0x40
 5609 0272 06       		.uleb128 0x6
 5610 0273 9742     		.uleb128 0x2117
 5611 0275 0C       		.uleb128 0xc
 5612 0276 01       		.uleb128 0x1
 5613 0277 13       		.uleb128 0x13
 5614 0278 00       		.byte	0
 5615 0279 00       		.byte	0
 5616 027a 2A       		.uleb128 0x2a
ARM GAS  /tmp/ccIXPZcX.s 			page 112


 5617 027b 898201   		.uleb128 0x4109
 5618 027e 00       		.byte	0
 5619 027f 11       		.uleb128 0x11
 5620 0280 01       		.uleb128 0x1
 5621 0281 9542     		.uleb128 0x2115
 5622 0283 0C       		.uleb128 0xc
 5623 0284 31       		.uleb128 0x31
 5624 0285 13       		.uleb128 0x13
 5625 0286 00       		.byte	0
 5626 0287 00       		.byte	0
 5627 0288 2B       		.uleb128 0x2b
 5628 0289 2E       		.uleb128 0x2e
 5629 028a 00       		.byte	0
 5630 028b 3F       		.uleb128 0x3f
 5631 028c 0C       		.uleb128 0xc
 5632 028d 03       		.uleb128 0x3
 5633 028e 0E       		.uleb128 0xe
 5634 028f 3A       		.uleb128 0x3a
 5635 0290 0B       		.uleb128 0xb
 5636 0291 3B       		.uleb128 0x3b
 5637 0292 0B       		.uleb128 0xb
 5638 0293 39       		.uleb128 0x39
 5639 0294 0B       		.uleb128 0xb
 5640 0295 49       		.uleb128 0x49
 5641 0296 13       		.uleb128 0x13
 5642 0297 11       		.uleb128 0x11
 5643 0298 01       		.uleb128 0x1
 5644 0299 12       		.uleb128 0x12
 5645 029a 01       		.uleb128 0x1
 5646 029b 40       		.uleb128 0x40
 5647 029c 0A       		.uleb128 0xa
 5648 029d 9742     		.uleb128 0x2117
 5649 029f 0C       		.uleb128 0xc
 5650 02a0 00       		.byte	0
 5651 02a1 00       		.byte	0
 5652 02a2 2C       		.uleb128 0x2c
 5653 02a3 2E       		.uleb128 0x2e
 5654 02a4 00       		.byte	0
 5655 02a5 3F       		.uleb128 0x3f
 5656 02a6 0C       		.uleb128 0xc
 5657 02a7 03       		.uleb128 0x3
 5658 02a8 0E       		.uleb128 0xe
 5659 02a9 3A       		.uleb128 0x3a
 5660 02aa 0B       		.uleb128 0xb
 5661 02ab 3B       		.uleb128 0x3b
 5662 02ac 0B       		.uleb128 0xb
 5663 02ad 39       		.uleb128 0x39
 5664 02ae 0B       		.uleb128 0xb
 5665 02af 11       		.uleb128 0x11
 5666 02b0 01       		.uleb128 0x1
 5667 02b1 12       		.uleb128 0x12
 5668 02b2 01       		.uleb128 0x1
 5669 02b3 40       		.uleb128 0x40
 5670 02b4 0A       		.uleb128 0xa
 5671 02b5 9742     		.uleb128 0x2117
 5672 02b7 0C       		.uleb128 0xc
 5673 02b8 00       		.byte	0
ARM GAS  /tmp/ccIXPZcX.s 			page 113


 5674 02b9 00       		.byte	0
 5675 02ba 2D       		.uleb128 0x2d
 5676 02bb 2E       		.uleb128 0x2e
 5677 02bc 01       		.byte	0x1
 5678 02bd 3F       		.uleb128 0x3f
 5679 02be 0C       		.uleb128 0xc
 5680 02bf 03       		.uleb128 0x3
 5681 02c0 0E       		.uleb128 0xe
 5682 02c1 3A       		.uleb128 0x3a
 5683 02c2 0B       		.uleb128 0xb
 5684 02c3 3B       		.uleb128 0x3b
 5685 02c4 0B       		.uleb128 0xb
 5686 02c5 39       		.uleb128 0x39
 5687 02c6 0B       		.uleb128 0xb
 5688 02c7 27       		.uleb128 0x27
 5689 02c8 0C       		.uleb128 0xc
 5690 02c9 20       		.uleb128 0x20
 5691 02ca 0B       		.uleb128 0xb
 5692 02cb 01       		.uleb128 0x1
 5693 02cc 13       		.uleb128 0x13
 5694 02cd 00       		.byte	0
 5695 02ce 00       		.byte	0
 5696 02cf 2E       		.uleb128 0x2e
 5697 02d0 05       		.uleb128 0x5
 5698 02d1 00       		.byte	0
 5699 02d2 03       		.uleb128 0x3
 5700 02d3 08       		.uleb128 0x8
 5701 02d4 3A       		.uleb128 0x3a
 5702 02d5 0B       		.uleb128 0xb
 5703 02d6 3B       		.uleb128 0x3b
 5704 02d7 0B       		.uleb128 0xb
 5705 02d8 39       		.uleb128 0x39
 5706 02d9 0B       		.uleb128 0xb
 5707 02da 49       		.uleb128 0x49
 5708 02db 13       		.uleb128 0x13
 5709 02dc 00       		.byte	0
 5710 02dd 00       		.byte	0
 5711 02de 2F       		.uleb128 0x2f
 5712 02df 34       		.uleb128 0x34
 5713 02e0 00       		.byte	0
 5714 02e1 03       		.uleb128 0x3
 5715 02e2 08       		.uleb128 0x8
 5716 02e3 3A       		.uleb128 0x3a
 5717 02e4 0B       		.uleb128 0xb
 5718 02e5 3B       		.uleb128 0x3b
 5719 02e6 0B       		.uleb128 0xb
 5720 02e7 39       		.uleb128 0x39
 5721 02e8 0B       		.uleb128 0xb
 5722 02e9 49       		.uleb128 0x49
 5723 02ea 13       		.uleb128 0x13
 5724 02eb 00       		.byte	0
 5725 02ec 00       		.byte	0
 5726 02ed 30       		.uleb128 0x30
 5727 02ee 34       		.uleb128 0x34
 5728 02ef 00       		.byte	0
 5729 02f0 03       		.uleb128 0x3
 5730 02f1 0E       		.uleb128 0xe
ARM GAS  /tmp/ccIXPZcX.s 			page 114


 5731 02f2 3A       		.uleb128 0x3a
 5732 02f3 0B       		.uleb128 0xb
 5733 02f4 3B       		.uleb128 0x3b
 5734 02f5 0B       		.uleb128 0xb
 5735 02f6 39       		.uleb128 0x39
 5736 02f7 0B       		.uleb128 0xb
 5737 02f8 49       		.uleb128 0x49
 5738 02f9 13       		.uleb128 0x13
 5739 02fa 00       		.byte	0
 5740 02fb 00       		.byte	0
 5741 02fc 31       		.uleb128 0x31
 5742 02fd 0B       		.uleb128 0xb
 5743 02fe 01       		.byte	0x1
 5744 02ff 00       		.byte	0
 5745 0300 00       		.byte	0
 5746 0301 32       		.uleb128 0x32
 5747 0302 05       		.uleb128 0x5
 5748 0303 00       		.byte	0
 5749 0304 03       		.uleb128 0x3
 5750 0305 08       		.uleb128 0x8
 5751 0306 3A       		.uleb128 0x3a
 5752 0307 0B       		.uleb128 0xb
 5753 0308 3B       		.uleb128 0x3b
 5754 0309 0B       		.uleb128 0xb
 5755 030a 39       		.uleb128 0x39
 5756 030b 0B       		.uleb128 0xb
 5757 030c 49       		.uleb128 0x49
 5758 030d 13       		.uleb128 0x13
 5759 030e 02       		.uleb128 0x2
 5760 030f 06       		.uleb128 0x6
 5761 0310 B742     		.uleb128 0x2137
 5762 0312 06       		.uleb128 0x6
 5763 0313 00       		.byte	0
 5764 0314 00       		.byte	0
 5765 0315 33       		.uleb128 0x33
 5766 0316 2E       		.uleb128 0x2e
 5767 0317 01       		.byte	0x1
 5768 0318 3F       		.uleb128 0x3f
 5769 0319 0C       		.uleb128 0xc
 5770 031a 03       		.uleb128 0x3
 5771 031b 0E       		.uleb128 0xe
 5772 031c 3A       		.uleb128 0x3a
 5773 031d 0B       		.uleb128 0xb
 5774 031e 3B       		.uleb128 0x3b
 5775 031f 0B       		.uleb128 0xb
 5776 0320 39       		.uleb128 0x39
 5777 0321 0B       		.uleb128 0xb
 5778 0322 49       		.uleb128 0x49
 5779 0323 13       		.uleb128 0x13
 5780 0324 3C       		.uleb128 0x3c
 5781 0325 0C       		.uleb128 0xc
 5782 0326 01       		.uleb128 0x1
 5783 0327 13       		.uleb128 0x13
 5784 0328 00       		.byte	0
 5785 0329 00       		.byte	0
 5786 032a 34       		.uleb128 0x34
 5787 032b 18       		.uleb128 0x18
ARM GAS  /tmp/ccIXPZcX.s 			page 115


 5788 032c 00       		.byte	0
 5789 032d 00       		.byte	0
 5790 032e 00       		.byte	0
 5791 032f 35       		.uleb128 0x35
 5792 0330 0B       		.uleb128 0xb
 5793 0331 01       		.byte	0x1
 5794 0332 55       		.uleb128 0x55
 5795 0333 06       		.uleb128 0x6
 5796 0334 00       		.byte	0
 5797 0335 00       		.byte	0
 5798 0336 36       		.uleb128 0x36
 5799 0337 2E       		.uleb128 0x2e
 5800 0338 00       		.byte	0
 5801 0339 3F       		.uleb128 0x3f
 5802 033a 0C       		.uleb128 0xc
 5803 033b 03       		.uleb128 0x3
 5804 033c 0E       		.uleb128 0xe
 5805 033d 3A       		.uleb128 0x3a
 5806 033e 0B       		.uleb128 0xb
 5807 033f 3B       		.uleb128 0x3b
 5808 0340 0B       		.uleb128 0xb
 5809 0341 39       		.uleb128 0x39
 5810 0342 0B       		.uleb128 0xb
 5811 0343 27       		.uleb128 0x27
 5812 0344 0C       		.uleb128 0xc
 5813 0345 11       		.uleb128 0x11
 5814 0346 01       		.uleb128 0x1
 5815 0347 12       		.uleb128 0x12
 5816 0348 01       		.uleb128 0x1
 5817 0349 40       		.uleb128 0x40
 5818 034a 0A       		.uleb128 0xa
 5819 034b 9742     		.uleb128 0x2117
 5820 034d 0C       		.uleb128 0xc
 5821 034e 00       		.byte	0
 5822 034f 00       		.byte	0
 5823 0350 37       		.uleb128 0x37
 5824 0351 05       		.uleb128 0x5
 5825 0352 00       		.byte	0
 5826 0353 03       		.uleb128 0x3
 5827 0354 08       		.uleb128 0x8
 5828 0355 3A       		.uleb128 0x3a
 5829 0356 0B       		.uleb128 0xb
 5830 0357 3B       		.uleb128 0x3b
 5831 0358 0B       		.uleb128 0xb
 5832 0359 39       		.uleb128 0x39
 5833 035a 0B       		.uleb128 0xb
 5834 035b 49       		.uleb128 0x49
 5835 035c 13       		.uleb128 0x13
 5836 035d 02       		.uleb128 0x2
 5837 035e 0A       		.uleb128 0xa
 5838 035f 00       		.byte	0
 5839 0360 00       		.byte	0
 5840 0361 38       		.uleb128 0x38
 5841 0362 2E       		.uleb128 0x2e
 5842 0363 01       		.byte	0x1
 5843 0364 31       		.uleb128 0x31
 5844 0365 13       		.uleb128 0x13
ARM GAS  /tmp/ccIXPZcX.s 			page 116


 5845 0366 11       		.uleb128 0x11
 5846 0367 01       		.uleb128 0x1
 5847 0368 12       		.uleb128 0x12
 5848 0369 01       		.uleb128 0x1
 5849 036a 40       		.uleb128 0x40
 5850 036b 06       		.uleb128 0x6
 5851 036c 9742     		.uleb128 0x2117
 5852 036e 0C       		.uleb128 0xc
 5853 036f 01       		.uleb128 0x1
 5854 0370 13       		.uleb128 0x13
 5855 0371 00       		.byte	0
 5856 0372 00       		.byte	0
 5857 0373 39       		.uleb128 0x39
 5858 0374 05       		.uleb128 0x5
 5859 0375 00       		.byte	0
 5860 0376 31       		.uleb128 0x31
 5861 0377 13       		.uleb128 0x13
 5862 0378 02       		.uleb128 0x2
 5863 0379 06       		.uleb128 0x6
 5864 037a B742     		.uleb128 0x2137
 5865 037c 06       		.uleb128 0x6
 5866 037d 00       		.byte	0
 5867 037e 00       		.byte	0
 5868 037f 3A       		.uleb128 0x3a
 5869 0380 34       		.uleb128 0x34
 5870 0381 00       		.byte	0
 5871 0382 31       		.uleb128 0x31
 5872 0383 13       		.uleb128 0x13
 5873 0384 00       		.byte	0
 5874 0385 00       		.byte	0
 5875 0386 3B       		.uleb128 0x3b
 5876 0387 1D       		.uleb128 0x1d
 5877 0388 01       		.byte	0x1
 5878 0389 31       		.uleb128 0x31
 5879 038a 13       		.uleb128 0x13
 5880 038b 55       		.uleb128 0x55
 5881 038c 06       		.uleb128 0x6
 5882 038d 58       		.uleb128 0x58
 5883 038e 0B       		.uleb128 0xb
 5884 038f 59       		.uleb128 0x59
 5885 0390 0B       		.uleb128 0xb
 5886 0391 57       		.uleb128 0x57
 5887 0392 0B       		.uleb128 0xb
 5888 0393 00       		.byte	0
 5889 0394 00       		.byte	0
 5890 0395 3C       		.uleb128 0x3c
 5891 0396 34       		.uleb128 0x34
 5892 0397 00       		.byte	0
 5893 0398 31       		.uleb128 0x31
 5894 0399 13       		.uleb128 0x13
 5895 039a 02       		.uleb128 0x2
 5896 039b 06       		.uleb128 0x6
 5897 039c B742     		.uleb128 0x2137
 5898 039e 06       		.uleb128 0x6
 5899 039f 00       		.byte	0
 5900 03a0 00       		.byte	0
 5901 03a1 3D       		.uleb128 0x3d
ARM GAS  /tmp/ccIXPZcX.s 			page 117


 5902 03a2 0B       		.uleb128 0xb
 5903 03a3 01       		.byte	0x1
 5904 03a4 31       		.uleb128 0x31
 5905 03a5 13       		.uleb128 0x13
 5906 03a6 55       		.uleb128 0x55
 5907 03a7 06       		.uleb128 0x6
 5908 03a8 00       		.byte	0
 5909 03a9 00       		.byte	0
 5910 03aa 3E       		.uleb128 0x3e
 5911 03ab 2E       		.uleb128 0x2e
 5912 03ac 00       		.byte	0
 5913 03ad 3F       		.uleb128 0x3f
 5914 03ae 0C       		.uleb128 0xc
 5915 03af 3C       		.uleb128 0x3c
 5916 03b0 0C       		.uleb128 0xc
 5917 03b1 8740     		.uleb128 0x2007
 5918 03b3 0E       		.uleb128 0xe
 5919 03b4 03       		.uleb128 0x3
 5920 03b5 0E       		.uleb128 0xe
 5921 03b6 3A       		.uleb128 0x3a
 5922 03b7 0B       		.uleb128 0xb
 5923 03b8 3B       		.uleb128 0x3b
 5924 03b9 05       		.uleb128 0x5
 5925 03ba 39       		.uleb128 0x39
 5926 03bb 0B       		.uleb128 0xb
 5927 03bc 00       		.byte	0
 5928 03bd 00       		.byte	0
 5929 03be 3F       		.uleb128 0x3f
 5930 03bf 2E       		.uleb128 0x2e
 5931 03c0 00       		.byte	0
 5932 03c1 3F       		.uleb128 0x3f
 5933 03c2 0C       		.uleb128 0xc
 5934 03c3 3C       		.uleb128 0x3c
 5935 03c4 0C       		.uleb128 0xc
 5936 03c5 8740     		.uleb128 0x2007
 5937 03c7 0E       		.uleb128 0xe
 5938 03c8 03       		.uleb128 0x3
 5939 03c9 0E       		.uleb128 0xe
 5940 03ca 3A       		.uleb128 0x3a
 5941 03cb 0B       		.uleb128 0xb
 5942 03cc 3B       		.uleb128 0x3b
 5943 03cd 0B       		.uleb128 0xb
 5944 03ce 39       		.uleb128 0x39
 5945 03cf 0B       		.uleb128 0xb
 5946 03d0 00       		.byte	0
 5947 03d1 00       		.byte	0
 5948 03d2 40       		.uleb128 0x40
 5949 03d3 2E       		.uleb128 0x2e
 5950 03d4 00       		.byte	0
 5951 03d5 3F       		.uleb128 0x3f
 5952 03d6 0C       		.uleb128 0xc
 5953 03d7 3C       		.uleb128 0x3c
 5954 03d8 0C       		.uleb128 0xc
 5955 03d9 8740     		.uleb128 0x2007
 5956 03db 0E       		.uleb128 0xe
 5957 03dc 03       		.uleb128 0x3
 5958 03dd 0E       		.uleb128 0xe
ARM GAS  /tmp/ccIXPZcX.s 			page 118


 5959 03de 00       		.byte	0
 5960 03df 00       		.byte	0
 5961 03e0 00       		.byte	0
 5962              		.section	.debug_loc,"",%progbits
 5963              	.Ldebug_loc0:
 5964              	.LLST33:
 5965 0000 00000000 		.4byte	.LFB51
 5966 0004 02000000 		.4byte	.LCFI15
 5967 0008 0200     		.2byte	0x2
 5968 000a 7D       		.byte	0x7d
 5969 000b 00       		.sleb128 0
 5970 000c 02000000 		.4byte	.LCFI15
 5971 0010 6C000000 		.4byte	.LFE51
 5972 0014 0200     		.2byte	0x2
 5973 0016 7D       		.byte	0x7d
 5974 0017 10       		.sleb128 16
 5975 0018 00000000 		.4byte	0
 5976 001c 00000000 		.4byte	0
 5977              	.LLST24:
 5978 0020 84030000 		.4byte	.LFB50
 5979 0024 86030000 		.4byte	.LCFI10
 5980 0028 0200     		.2byte	0x2
 5981 002a 7D       		.byte	0x7d
 5982 002b 00       		.sleb128 0
 5983 002c 86030000 		.4byte	.LCFI10
 5984 0030 B0030000 		.4byte	.LFE50
 5985 0034 0200     		.2byte	0x2
 5986 0036 7D       		.byte	0x7d
 5987 0037 10       		.sleb128 16
 5988 0038 00000000 		.4byte	0
 5989 003c 00000000 		.4byte	0
 5990              	.LVUS25:
 5991 0040 00       		.uleb128 0
 5992 0041 00       		.uleb128 .LVU319
 5993 0042 00       		.uleb128 .LVU319
 5994 0043 00       		.uleb128 0
 5995              	.LLST25:
 5996 0044 84030000 		.4byte	.LVL56
 5997 0048 8E030000 		.4byte	.LVL58
 5998 004c 0100     		.2byte	0x1
 5999 004e 50       		.byte	0x50
 6000 004f 8E030000 		.4byte	.LVL58
 6001 0053 B0030000 		.4byte	.LFE50
 6002 0057 0400     		.2byte	0x4
 6003 0059 F3       		.byte	0xf3
 6004 005a 01       		.uleb128 0x1
 6005 005b 50       		.byte	0x50
 6006 005c 9F       		.byte	0x9f
 6007 005d 00000000 		.4byte	0
 6008 0061 00000000 		.4byte	0
 6009              	.LLST0:
 6010 0065 00000000 		.4byte	.LFB49
 6011 0069 04000000 		.4byte	.LCFI0
 6012 006d 0200     		.2byte	0x2
 6013 006f 7D       		.byte	0x7d
 6014 0070 00       		.sleb128 0
 6015 0071 04000000 		.4byte	.LCFI0
ARM GAS  /tmp/ccIXPZcX.s 			page 119


 6016 0075 30000000 		.4byte	.LFE49
 6017 0079 0200     		.2byte	0x2
 6018 007b 7D       		.byte	0x7d
 6019 007c 08       		.sleb128 8
 6020 007d 00000000 		.4byte	0
 6021 0081 00000000 		.4byte	0
 6022              	.LVUS1:
 6023 0085 00       		.uleb128 0
 6024 0086 00       		.uleb128 .LVU9
 6025 0087 00       		.uleb128 .LVU9
 6026 0088 00       		.uleb128 0
 6027              	.LLST1:
 6028 0089 00000000 		.4byte	.LVL0
 6029 008d 16000000 		.4byte	.LVL1
 6030 0091 0100     		.2byte	0x1
 6031 0093 50       		.byte	0x50
 6032 0094 16000000 		.4byte	.LVL1
 6033 0098 30000000 		.4byte	.LFE49
 6034 009c 0400     		.2byte	0x4
 6035 009e F3       		.byte	0xf3
 6036 009f 01       		.uleb128 0x1
 6037 00a0 50       		.byte	0x50
 6038 00a1 9F       		.byte	0x9f
 6039 00a2 00000000 		.4byte	0
 6040 00a6 00000000 		.4byte	0
 6041              	.LLST28:
 6042 00aa 90040000 		.4byte	.LFB47
 6043 00ae 94040000 		.4byte	.LCFI13
 6044 00b2 0200     		.2byte	0x2
 6045 00b4 7D       		.byte	0x7d
 6046 00b5 00       		.sleb128 0
 6047 00b6 94040000 		.4byte	.LCFI13
 6048 00ba A2040000 		.4byte	.LCFI14
 6049 00be 0200     		.2byte	0x2
 6050 00c0 7D       		.byte	0x7d
 6051 00c1 24       		.sleb128 36
 6052 00c2 A2040000 		.4byte	.LCFI14
 6053 00c6 90050000 		.4byte	.LFE47
 6054 00ca 0300     		.2byte	0x3
 6055 00cc 7D       		.byte	0x7d
 6056 00cd C000     		.sleb128 64
 6057 00cf 00000000 		.4byte	0
 6058 00d3 00000000 		.4byte	0
 6059              	.LVUS29:
 6060 00d7 00       		.uleb128 0
 6061 00d8 00       		.uleb128 .LVU387
 6062 00d9 00       		.uleb128 .LVU387
 6063 00da 00       		.uleb128 0
 6064              	.LLST29:
 6065 00db 90040000 		.4byte	.LVL71
 6066 00df A5040000 		.4byte	.LVL72-1
 6067 00e3 0100     		.2byte	0x1
 6068 00e5 50       		.byte	0x50
 6069 00e6 A5040000 		.4byte	.LVL72-1
 6070 00ea 90050000 		.4byte	.LFE47
 6071 00ee 0400     		.2byte	0x4
 6072 00f0 F3       		.byte	0xf3
ARM GAS  /tmp/ccIXPZcX.s 			page 120


 6073 00f1 01       		.uleb128 0x1
 6074 00f2 50       		.byte	0x50
 6075 00f3 9F       		.byte	0x9f
 6076 00f4 00000000 		.4byte	0
 6077 00f8 00000000 		.4byte	0
 6078              	.LVUS30:
 6079 00fc 01       		.uleb128 .LVU396
 6080 00fd 03       		.uleb128 .LVU398
 6081 00fe 03       		.uleb128 .LVU398
 6082 00ff 00       		.uleb128 0
 6083              	.LLST30:
 6084 0100 C2040000 		.4byte	.LVL73
 6085 0104 C2040000 		.4byte	.LVL73
 6086 0108 0200     		.2byte	0x2
 6087 010a 30       		.byte	0x30
 6088 010b 9F       		.byte	0x9f
 6089 010c C2040000 		.4byte	.LVL73
 6090 0110 90050000 		.4byte	.LFE47
 6091 0114 0100     		.2byte	0x1
 6092 0116 56       		.byte	0x56
 6093 0117 00000000 		.4byte	0
 6094 011b 00000000 		.4byte	0
 6095              	.LVUS31:
 6096 011f 03       		.uleb128 .LVU398
 6097 0120 01       		.uleb128 .LVU403
 6098 0121 01       		.uleb128 .LVU403
 6099 0122 00       		.uleb128 .LVU405
 6100 0123 00       		.uleb128 .LVU406
 6101 0124 00       		.uleb128 0
 6102              	.LLST31:
 6103 0125 C2040000 		.4byte	.LVL73
 6104 0129 C8040000 		.4byte	.LVL74
 6105 012d 0100     		.2byte	0x1
 6106 012f 54       		.byte	0x54
 6107 0130 C8040000 		.4byte	.LVL74
 6108 0134 CE040000 		.4byte	.LVL75
 6109 0138 0300     		.2byte	0x3
 6110 013a 74       		.byte	0x74
 6111 013b 01       		.sleb128 1
 6112 013c 9F       		.byte	0x9f
 6113 013d D0040000 		.4byte	.LVL76
 6114 0141 90050000 		.4byte	.LFE47
 6115 0145 0100     		.2byte	0x1
 6116 0147 54       		.byte	0x54
 6117 0148 00000000 		.4byte	0
 6118 014c 00000000 		.4byte	0
 6119              	.LVUS32:
 6120 0150 02       		.uleb128 .LVU426
 6121 0151 00       		.uleb128 .LVU430
 6122 0152 00       		.uleb128 .LVU432
 6123 0153 01       		.uleb128 .LVU436
 6124 0154 01       		.uleb128 .LVU436
 6125 0155 00       		.uleb128 0
 6126              	.LLST32:
 6127 0156 30050000 		.4byte	.LVL87
 6128 015a 3A050000 		.4byte	.LVL88
 6129 015e 0200     		.2byte	0x2
ARM GAS  /tmp/ccIXPZcX.s 			page 121


 6130 0160 30       		.byte	0x30
 6131 0161 9F       		.byte	0x9f
 6132 0162 42050000 		.4byte	.LVL89
 6133 0166 5E050000 		.4byte	.LVL92
 6134 016a 0100     		.2byte	0x1
 6135 016c 57       		.byte	0x57
 6136 016d 5E050000 		.4byte	.LVL92
 6137 0171 90050000 		.4byte	.LFE47
 6138 0175 0700     		.2byte	0x7
 6139 0177 91       		.byte	0x91
 6140 0178 44       		.sleb128 -60
 6141 0179 94       		.byte	0x94
 6142 017a 01       		.byte	0x1
 6143 017b 23       		.byte	0x23
 6144 017c 01       		.uleb128 0x1
 6145 017d 9F       		.byte	0x9f
 6146 017e 00000000 		.4byte	0
 6147 0182 00000000 		.4byte	0
 6148              	.LLST26:
 6149 0186 CC030000 		.4byte	.LFB46
 6150 018a D0030000 		.4byte	.LCFI11
 6151 018e 0200     		.2byte	0x2
 6152 0190 7D       		.byte	0x7d
 6153 0191 00       		.sleb128 0
 6154 0192 D0030000 		.4byte	.LCFI11
 6155 0196 6E040000 		.4byte	.LCFI12
 6156 019a 0200     		.2byte	0x2
 6157 019c 7D       		.byte	0x7d
 6158 019d 18       		.sleb128 24
 6159 019e 6E040000 		.4byte	.LCFI12
 6160 01a2 90040000 		.4byte	.LFE46
 6161 01a6 0200     		.2byte	0x2
 6162 01a8 7D       		.byte	0x7d
 6163 01a9 00       		.sleb128 0
 6164 01aa 00000000 		.4byte	0
 6165 01ae 00000000 		.4byte	0
 6166              	.LVUS27:
 6167 01b2 02       		.uleb128 .LVU365
 6168 01b3 03       		.uleb128 .LVU366
 6169 01b4 00       		.uleb128 .LVU367
 6170 01b5 01       		.uleb128 .LVU373
 6171              	.LLST27:
 6172 01b6 3A040000 		.4byte	.LVL64
 6173 01ba 3A040000 		.4byte	.LVL64
 6174 01be 0200     		.2byte	0x2
 6175 01c0 30       		.byte	0x30
 6176 01c1 9F       		.byte	0x9f
 6177 01c2 3C040000 		.4byte	.LVL65
 6178 01c6 5E040000 		.4byte	.LVL68
 6179 01ca 0100     		.2byte	0x1
 6180 01cc 55       		.byte	0x55
 6181 01cd 00000000 		.4byte	0
 6182 01d1 00000000 		.4byte	0
 6183              	.LLST22:
 6184 01d5 EC020000 		.4byte	.LFB43
 6185 01d9 EE020000 		.4byte	.LCFI9
 6186 01dd 0200     		.2byte	0x2
ARM GAS  /tmp/ccIXPZcX.s 			page 122


 6187 01df 7D       		.byte	0x7d
 6188 01e0 00       		.sleb128 0
 6189 01e1 EE020000 		.4byte	.LCFI9
 6190 01e5 14030000 		.4byte	.LFE43
 6191 01e9 0200     		.2byte	0x2
 6192 01eb 7D       		.byte	0x7d
 6193 01ec 10       		.sleb128 16
 6194 01ed 00000000 		.4byte	0
 6195 01f1 00000000 		.4byte	0
 6196              	.LVUS23:
 6197 01f5 00       		.uleb128 0
 6198 01f6 00       		.uleb128 .LVU275
 6199 01f7 00       		.uleb128 .LVU275
 6200 01f8 00       		.uleb128 .LVU277
 6201 01f9 00       		.uleb128 .LVU277
 6202 01fa 01       		.uleb128 .LVU280
 6203 01fb 01       		.uleb128 .LVU280
 6204 01fc 00       		.uleb128 0
 6205              	.LLST23:
 6206 01fd EC020000 		.4byte	.LVL50
 6207 0201 F2020000 		.4byte	.LVL51
 6208 0205 0100     		.2byte	0x1
 6209 0207 50       		.byte	0x50
 6210 0208 F2020000 		.4byte	.LVL51
 6211 020c F6020000 		.4byte	.LVL52
 6212 0210 0300     		.2byte	0x3
 6213 0212 74       		.byte	0x74
 6214 0213 01       		.sleb128 1
 6215 0214 9F       		.byte	0x9f
 6216 0215 F6020000 		.4byte	.LVL52
 6217 0219 FA020000 		.4byte	.LVL53
 6218 021d 0100     		.2byte	0x1
 6219 021f 54       		.byte	0x54
 6220 0220 FA020000 		.4byte	.LVL53
 6221 0224 14030000 		.4byte	.LFE43
 6222 0228 0300     		.2byte	0x3
 6223 022a 74       		.byte	0x74
 6224 022b 01       		.sleb128 1
 6225 022c 9F       		.byte	0x9f
 6226 022d 00000000 		.4byte	0
 6227 0231 00000000 		.4byte	0
 6228              	.LLST21:
 6229 0235 7C020000 		.4byte	.LFB42
 6230 0239 7E020000 		.4byte	.LCFI6
 6231 023d 0200     		.2byte	0x2
 6232 023f 7D       		.byte	0x7d
 6233 0240 00       		.sleb128 0
 6234 0241 7E020000 		.4byte	.LCFI6
 6235 0245 82020000 		.4byte	.LCFI7
 6236 0249 0200     		.2byte	0x2
 6237 024b 7D       		.byte	0x7d
 6238 024c 08       		.sleb128 8
 6239 024d 82020000 		.4byte	.LCFI7
 6240 0251 E6020000 		.4byte	.LCFI8
 6241 0255 0200     		.2byte	0x2
 6242 0257 7D       		.byte	0x7d
 6243 0258 20       		.sleb128 32
ARM GAS  /tmp/ccIXPZcX.s 			page 123


 6244 0259 E6020000 		.4byte	.LCFI8
 6245 025d EC020000 		.4byte	.LFE42
 6246 0261 0200     		.2byte	0x2
 6247 0263 7D       		.byte	0x7d
 6248 0264 08       		.sleb128 8
 6249 0265 00000000 		.4byte	0
 6250 0269 00000000 		.4byte	0
 6251              	.LLST13:
 6252 026d F8010000 		.4byte	.LFB40
 6253 0271 FC010000 		.4byte	.LCFI5
 6254 0275 0200     		.2byte	0x2
 6255 0277 7D       		.byte	0x7d
 6256 0278 00       		.sleb128 0
 6257 0279 FC010000 		.4byte	.LCFI5
 6258 027d 7C020000 		.4byte	.LFE40
 6259 0281 0200     		.2byte	0x2
 6260 0283 7D       		.byte	0x7d
 6261 0284 18       		.sleb128 24
 6262 0285 00000000 		.4byte	0
 6263 0289 00000000 		.4byte	0
 6264              	.LVUS14:
 6265 028d 00       		.uleb128 0
 6266 028e 00       		.uleb128 .LVU183
 6267 028f 00       		.uleb128 .LVU183
 6268 0290 00       		.uleb128 .LVU210
 6269              	.LLST14:
 6270 0291 F8010000 		.4byte	.LVL21
 6271 0295 07020000 		.4byte	.LVL23-1
 6272 0299 0100     		.2byte	0x1
 6273 029b 50       		.byte	0x50
 6274 029c 07020000 		.4byte	.LVL23-1
 6275 02a0 40020000 		.4byte	.LVL33
 6276 02a4 0100     		.2byte	0x1
 6277 02a6 55       		.byte	0x55
 6278 02a7 00000000 		.4byte	0
 6279 02ab 00000000 		.4byte	0
 6280              	.LVUS15:
 6281 02af 00       		.uleb128 0
 6282 02b0 00       		.uleb128 .LVU181
 6283 02b1 00       		.uleb128 .LVU181
 6284 02b2 01       		.uleb128 .LVU188
 6285 02b3 01       		.uleb128 .LVU188
 6286 02b4 00       		.uleb128 .LVU189
 6287 02b5 00       		.uleb128 .LVU189
 6288 02b6 00       		.uleb128 .LVU198
 6289 02b7 00       		.uleb128 .LVU198
 6290 02b8 01       		.uleb128 .LVU200
 6291 02b9 01       		.uleb128 .LVU200
 6292 02ba 00       		.uleb128 .LVU211
 6293 02bb 00       		.uleb128 .LVU211
 6294 02bc 01       		.uleb128 .LVU227
 6295 02bd 01       		.uleb128 .LVU227
 6296 02be 00       		.uleb128 .LVU229
 6297 02bf 00       		.uleb128 .LVU229
 6298 02c0 00       		.uleb128 0
 6299              	.LLST15:
 6300 02c1 F8010000 		.4byte	.LVL21
ARM GAS  /tmp/ccIXPZcX.s 			page 124


 6301 02c5 00020000 		.4byte	.LVL22
 6302 02c9 0100     		.2byte	0x1
 6303 02cb 51       		.byte	0x51
 6304 02cc 00020000 		.4byte	.LVL22
 6305 02d0 10020000 		.4byte	.LVL24
 6306 02d4 0100     		.2byte	0x1
 6307 02d6 54       		.byte	0x54
 6308 02d7 10020000 		.4byte	.LVL24
 6309 02db 14020000 		.4byte	.LVL25
 6310 02df 0300     		.2byte	0x3
 6311 02e1 74       		.byte	0x74
 6312 02e2 01       		.sleb128 1
 6313 02e3 9F       		.byte	0x9f
 6314 02e4 14020000 		.4byte	.LVL25
 6315 02e8 28020000 		.4byte	.LVL29
 6316 02ec 0100     		.2byte	0x1
 6317 02ee 54       		.byte	0x54
 6318 02ef 28020000 		.4byte	.LVL29
 6319 02f3 2C020000 		.4byte	.LVL30
 6320 02f7 0100     		.2byte	0x1
 6321 02f9 53       		.byte	0x53
 6322 02fa 2C020000 		.4byte	.LVL30
 6323 02fe 44020000 		.4byte	.LVL34
 6324 0302 0100     		.2byte	0x1
 6325 0304 54       		.byte	0x54
 6326 0305 44020000 		.4byte	.LVL34
 6327 0309 62020000 		.4byte	.LVL41
 6328 030d 0100     		.2byte	0x1
 6329 030f 55       		.byte	0x55
 6330 0310 62020000 		.4byte	.LVL41
 6331 0314 6A020000 		.4byte	.LVL42
 6332 0318 0300     		.2byte	0x3
 6333 031a 75       		.byte	0x75
 6334 031b 01       		.sleb128 1
 6335 031c 9F       		.byte	0x9f
 6336 031d 6A020000 		.4byte	.LVL42
 6337 0321 7C020000 		.4byte	.LFE40
 6338 0325 0100     		.2byte	0x1
 6339 0327 55       		.byte	0x55
 6340 0328 00000000 		.4byte	0
 6341 032c 00000000 		.4byte	0
 6342              	.LVUS16:
 6343 0330 00       		.uleb128 0
 6344 0331 00       		.uleb128 .LVU183
 6345 0332 00       		.uleb128 .LVU183
 6346 0333 00       		.uleb128 .LVU219
 6347 0334 00       		.uleb128 .LVU219
 6348 0335 00       		.uleb128 .LVU221
 6349 0336 00       		.uleb128 .LVU221
 6350 0337 00       		.uleb128 0
 6351              	.LLST16:
 6352 0338 F8010000 		.4byte	.LVL21
 6353 033c 07020000 		.4byte	.LVL23-1
 6354 0340 0100     		.2byte	0x1
 6355 0342 52       		.byte	0x52
 6356 0343 07020000 		.4byte	.LVL23-1
 6357 0347 50020000 		.4byte	.LVL37
ARM GAS  /tmp/ccIXPZcX.s 			page 125


 6358 034b 0100     		.2byte	0x1
 6359 034d 56       		.byte	0x56
 6360 034e 50020000 		.4byte	.LVL37
 6361 0352 56020000 		.4byte	.LVL38
 6362 0356 0400     		.2byte	0x4
 6363 0358 F3       		.byte	0xf3
 6364 0359 01       		.uleb128 0x1
 6365 035a 52       		.byte	0x52
 6366 035b 9F       		.byte	0x9f
 6367 035c 56020000 		.4byte	.LVL38
 6368 0360 7C020000 		.4byte	.LFE40
 6369 0364 0100     		.2byte	0x1
 6370 0366 56       		.byte	0x56
 6371 0367 00000000 		.4byte	0
 6372 036b 00000000 		.4byte	0
 6373              	.LVUS17:
 6374 036f 00       		.uleb128 .LVU193
 6375 0370 00       		.uleb128 .LVU194
 6376 0371 00       		.uleb128 .LVU194
 6377 0372 00       		.uleb128 .LVU211
 6378              	.LLST17:
 6379 0373 1E020000 		.4byte	.LVL27
 6380 0377 21020000 		.4byte	.LVL28-1
 6381 037b 0100     		.2byte	0x1
 6382 037d 50       		.byte	0x50
 6383 037e 21020000 		.4byte	.LVL28-1
 6384 0382 44020000 		.4byte	.LVL34
 6385 0386 0100     		.2byte	0x1
 6386 0388 57       		.byte	0x57
 6387 0389 00000000 		.4byte	0
 6388 038d 00000000 		.4byte	0
 6389              	.LVUS18:
 6390 0391 00       		.uleb128 .LVU206
 6391 0392 00       		.uleb128 .LVU211
 6392 0393 00       		.uleb128 .LVU224
 6393 0394 00       		.uleb128 .LVU226
 6394 0395 00       		.uleb128 .LVU226
 6395 0396 00       		.uleb128 0
 6396              	.LLST18:
 6397 0397 3E020000 		.4byte	.LVL32
 6398 039b 44020000 		.4byte	.LVL34
 6399 039f 0100     		.2byte	0x1
 6400 03a1 50       		.byte	0x50
 6401 03a2 5E020000 		.4byte	.LVL40
 6402 03a6 61020000 		.4byte	.LVL41-1
 6403 03aa 0100     		.2byte	0x1
 6404 03ac 50       		.byte	0x50
 6405 03ad 61020000 		.4byte	.LVL41-1
 6406 03b1 7C020000 		.4byte	.LFE40
 6407 03b5 0100     		.2byte	0x1
 6408 03b7 57       		.byte	0x57
 6409 03b8 00000000 		.4byte	0
 6410 03bc 00000000 		.4byte	0
 6411              	.LVUS19:
 6412 03c0 02       		.uleb128 .LVU208
 6413 03c1 00       		.uleb128 .LVU211
 6414 03c2 00       		.uleb128 .LVU211
ARM GAS  /tmp/ccIXPZcX.s 			page 126


 6415 03c3 00       		.uleb128 .LVU214
 6416 03c4 00       		.uleb128 .LVU214
 6417 03c5 00       		.uleb128 .LVU218
 6418 03c6 00       		.uleb128 .LVU218
 6419 03c7 00       		.uleb128 .LVU221
 6420 03c8 00       		.uleb128 .LVU221
 6421 03c9 00       		.uleb128 .LVU223
 6422 03ca 00       		.uleb128 .LVU223
 6423 03cb 00       		.uleb128 .LVU229
 6424 03cc 00       		.uleb128 .LVU229
 6425 03cd 01       		.uleb128 .LVU233
 6426              	.LLST19:
 6427 03ce 3E020000 		.4byte	.LVL32
 6428 03d2 44020000 		.4byte	.LVL34
 6429 03d6 0200     		.2byte	0x2
 6430 03d8 30       		.byte	0x30
 6431 03d9 9F       		.byte	0x9f
 6432 03da 44020000 		.4byte	.LVL34
 6433 03de 46020000 		.4byte	.LVL35
 6434 03e2 0600     		.2byte	0x6
 6435 03e4 75       		.byte	0x75
 6436 03e5 00       		.sleb128 0
 6437 03e6 74       		.byte	0x74
 6438 03e7 00       		.sleb128 0
 6439 03e8 1C       		.byte	0x1c
 6440 03e9 9F       		.byte	0x9f
 6441 03ea 46020000 		.4byte	.LVL35
 6442 03ee 4C020000 		.4byte	.LVL36
 6443 03f2 0100     		.2byte	0x1
 6444 03f4 53       		.byte	0x53
 6445 03f5 4C020000 		.4byte	.LVL36
 6446 03f9 56020000 		.4byte	.LVL38
 6447 03fd 0600     		.2byte	0x6
 6448 03ff 75       		.byte	0x75
 6449 0400 00       		.sleb128 0
 6450 0401 74       		.byte	0x74
 6451 0402 00       		.sleb128 0
 6452 0403 1C       		.byte	0x1c
 6453 0404 9F       		.byte	0x9f
 6454 0405 56020000 		.4byte	.LVL38
 6455 0409 5B020000 		.4byte	.LVL39-1
 6456 040d 0100     		.2byte	0x1
 6457 040f 53       		.byte	0x53
 6458 0410 5B020000 		.4byte	.LVL39-1
 6459 0414 6A020000 		.4byte	.LVL42
 6460 0418 0600     		.2byte	0x6
 6461 041a 75       		.byte	0x75
 6462 041b 00       		.sleb128 0
 6463 041c 74       		.byte	0x74
 6464 041d 00       		.sleb128 0
 6465 041e 1C       		.byte	0x1c
 6466 041f 9F       		.byte	0x9f
 6467 0420 6A020000 		.4byte	.LVL42
 6468 0424 76020000 		.4byte	.LVL44
 6469 0428 0700     		.2byte	0x7
 6470 042a 74       		.byte	0x74
 6471 042b 00       		.sleb128 0
ARM GAS  /tmp/ccIXPZcX.s 			page 127


 6472 042c 20       		.byte	0x20
 6473 042d 75       		.byte	0x75
 6474 042e 00       		.sleb128 0
 6475 042f 22       		.byte	0x22
 6476 0430 9F       		.byte	0x9f
 6477 0431 00000000 		.4byte	0
 6478 0435 00000000 		.4byte	0
 6479              	.LVUS20:
 6480 0439 00       		.uleb128 .LVU226
 6481 043a 00       		.uleb128 .LVU231
 6482              	.LLST20:
 6483 043b 62020000 		.4byte	.LVL41
 6484 043f 6D020000 		.4byte	.LVL43-1
 6485 0443 0100     		.2byte	0x1
 6486 0445 50       		.byte	0x50
 6487 0446 00000000 		.4byte	0
 6488 044a 00000000 		.4byte	0
 6489              	.LVUS4:
 6490 044e 00       		.uleb128 0
 6491 044f 00       		.uleb128 .LVU137
 6492 0450 00       		.uleb128 .LVU137
 6493 0451 00       		.uleb128 0
 6494              	.LLST4:
 6495 0452 A0010000 		.4byte	.LVL6
 6496 0456 A8010000 		.4byte	.LVL7
 6497 045a 0100     		.2byte	0x1
 6498 045c 50       		.byte	0x50
 6499 045d A8010000 		.4byte	.LVL7
 6500 0461 BC010000 		.4byte	.LFE39
 6501 0465 0400     		.2byte	0x4
 6502 0467 F3       		.byte	0xf3
 6503 0468 01       		.uleb128 0x1
 6504 0469 50       		.byte	0x50
 6505 046a 9F       		.byte	0x9f
 6506 046b 00000000 		.4byte	0
 6507 046f 00000000 		.4byte	0
 6508              	.LVUS3:
 6509 0473 00       		.uleb128 0
 6510 0474 00       		.uleb128 .LVU129
 6511 0475 00       		.uleb128 .LVU129
 6512 0476 00       		.uleb128 0
 6513              	.LLST3:
 6514 0477 88010000 		.4byte	.LVL4
 6515 047b 90010000 		.4byte	.LVL5
 6516 047f 0100     		.2byte	0x1
 6517 0481 50       		.byte	0x50
 6518 0482 90010000 		.4byte	.LVL5
 6519 0486 A0010000 		.4byte	.LFE38
 6520 048a 0400     		.2byte	0x4
 6521 048c F3       		.byte	0xf3
 6522 048d 01       		.uleb128 0x1
 6523 048e 50       		.byte	0x50
 6524 048f 9F       		.byte	0x9f
 6525 0490 00000000 		.4byte	0
 6526 0494 00000000 		.4byte	0
 6527              	.LLST2:
 6528 0498 30010000 		.4byte	.LFB36
ARM GAS  /tmp/ccIXPZcX.s 			page 128


 6529 049c 32010000 		.4byte	.LCFI1
 6530 04a0 0200     		.2byte	0x2
 6531 04a2 7D       		.byte	0x7d
 6532 04a3 00       		.sleb128 0
 6533 04a4 32010000 		.4byte	.LCFI1
 6534 04a8 3E010000 		.4byte	.LCFI2
 6535 04ac 0200     		.2byte	0x2
 6536 04ae 7D       		.byte	0x7d
 6537 04af 08       		.sleb128 8
 6538 04b0 3E010000 		.4byte	.LCFI2
 6539 04b4 40010000 		.4byte	.LCFI3
 6540 04b8 0200     		.2byte	0x2
 6541 04ba 7D       		.byte	0x7d
 6542 04bb 00       		.sleb128 0
 6543 04bc 40010000 		.4byte	.LCFI3
 6544 04c0 60010000 		.4byte	.LFE36
 6545 04c4 0200     		.2byte	0x2
 6546 04c6 7D       		.byte	0x7d
 6547 04c7 08       		.sleb128 8
 6548 04c8 00000000 		.4byte	0
 6549 04cc 00000000 		.4byte	0
 6550              	.LLST5:
 6551 04d0 BC010000 		.4byte	.LFB41
 6552 04d4 BE010000 		.4byte	.LCFI4
 6553 04d8 0200     		.2byte	0x2
 6554 04da 7D       		.byte	0x7d
 6555 04db 00       		.sleb128 0
 6556 04dc BE010000 		.4byte	.LCFI4
 6557 04e0 F8010000 		.4byte	.LFE41
 6558 04e4 0200     		.2byte	0x2
 6559 04e6 7D       		.byte	0x7d
 6560 04e7 08       		.sleb128 8
 6561 04e8 00000000 		.4byte	0
 6562 04ec 00000000 		.4byte	0
 6563              	.LVUS6:
 6564 04f0 00       		.uleb128 0
 6565 04f1 02       		.uleb128 .LVU150
 6566 04f2 02       		.uleb128 .LVU150
 6567 04f3 00       		.uleb128 .LVU151
 6568 04f4 00       		.uleb128 .LVU151
 6569 04f5 00       		.uleb128 .LVU163
 6570 04f6 00       		.uleb128 .LVU163
 6571 04f7 00       		.uleb128 .LVU173
 6572 04f8 00       		.uleb128 .LVU173
 6573 04f9 00       		.uleb128 0
 6574              	.LLST6:
 6575 04fa BC010000 		.4byte	.LVL8
 6576 04fe C6010000 		.4byte	.LVL10
 6577 0502 0100     		.2byte	0x1
 6578 0504 50       		.byte	0x50
 6579 0505 C6010000 		.4byte	.LVL10
 6580 0509 C8010000 		.4byte	.LVL11
 6581 050d 0400     		.2byte	0x4
 6582 050f F3       		.byte	0xf3
 6583 0510 01       		.uleb128 0x1
 6584 0511 50       		.byte	0x50
 6585 0512 9F       		.byte	0x9f
ARM GAS  /tmp/ccIXPZcX.s 			page 129


 6586 0513 C8010000 		.4byte	.LVL11
 6587 0517 DA010000 		.4byte	.LVL15
 6588 051b 0100     		.2byte	0x1
 6589 051d 50       		.byte	0x50
 6590 051e DA010000 		.4byte	.LVL15
 6591 0522 F0010000 		.4byte	.LVL20
 6592 0526 0400     		.2byte	0x4
 6593 0528 F3       		.byte	0xf3
 6594 0529 01       		.uleb128 0x1
 6595 052a 50       		.byte	0x50
 6596 052b 9F       		.byte	0x9f
 6597 052c F0010000 		.4byte	.LVL20
 6598 0530 F8010000 		.4byte	.LFE41
 6599 0534 0100     		.2byte	0x1
 6600 0536 50       		.byte	0x50
 6601 0537 00000000 		.4byte	0
 6602 053b 00000000 		.4byte	0
 6603              	.LVUS7:
 6604 053f 00       		.uleb128 0
 6605 0540 01       		.uleb128 .LVU145
 6606 0541 01       		.uleb128 .LVU145
 6607 0542 02       		.uleb128 .LVU150
 6608 0543 00       		.uleb128 .LVU151
 6609 0544 00       		.uleb128 .LVU163
 6610 0545 00       		.uleb128 .LVU163
 6611 0546 00       		.uleb128 .LVU173
 6612 0547 00       		.uleb128 .LVU173
 6613 0548 00       		.uleb128 0
 6614              	.LLST7:
 6615 0549 BC010000 		.4byte	.LVL8
 6616 054d C0010000 		.4byte	.LVL9
 6617 0551 0100     		.2byte	0x1
 6618 0553 51       		.byte	0x51
 6619 0554 C0010000 		.4byte	.LVL9
 6620 0558 C6010000 		.4byte	.LVL10
 6621 055c 0300     		.2byte	0x3
 6622 055e 71       		.byte	0x71
 6623 055f 01       		.sleb128 1
 6624 0560 9F       		.byte	0x9f
 6625 0561 C8010000 		.4byte	.LVL11
 6626 0565 DA010000 		.4byte	.LVL15
 6627 0569 0100     		.2byte	0x1
 6628 056b 51       		.byte	0x51
 6629 056c DA010000 		.4byte	.LVL15
 6630 0570 F0010000 		.4byte	.LVL20
 6631 0574 0400     		.2byte	0x4
 6632 0576 F3       		.byte	0xf3
 6633 0577 01       		.uleb128 0x1
 6634 0578 51       		.byte	0x51
 6635 0579 9F       		.byte	0x9f
 6636 057a F0010000 		.4byte	.LVL20
 6637 057e F8010000 		.4byte	.LFE41
 6638 0582 0100     		.2byte	0x1
 6639 0584 51       		.byte	0x51
 6640 0585 00000000 		.4byte	0
 6641 0589 00000000 		.4byte	0
 6642              	.LVUS8:
ARM GAS  /tmp/ccIXPZcX.s 			page 130


 6643 058d 00       		.uleb128 .LVU159
 6644 058e 02       		.uleb128 .LVU167
 6645 058f 02       		.uleb128 .LVU167
 6646 0590 00       		.uleb128 .LVU170
 6647 0591 00       		.uleb128 .LVU170
 6648 0592 00       		.uleb128 .LVU173
 6649              	.LLST8:
 6650 0593 D6010000 		.4byte	.LVL14
 6651 0597 DE010000 		.4byte	.LVL16
 6652 059b 0100     		.2byte	0x1
 6653 059d 52       		.byte	0x52
 6654 059e DE010000 		.4byte	.LVL16
 6655 05a2 EC010000 		.4byte	.LVL18
 6656 05a6 0300     		.2byte	0x3
 6657 05a8 72       		.byte	0x72
 6658 05a9 7F       		.sleb128 -1
 6659 05aa 9F       		.byte	0x9f
 6660 05ab EC010000 		.4byte	.LVL18
 6661 05af F0010000 		.4byte	.LVL20
 6662 05b3 0100     		.2byte	0x1
 6663 05b5 52       		.byte	0x52
 6664 05b6 00000000 		.4byte	0
 6665 05ba 00000000 		.4byte	0
 6666              	.LVUS9:
 6667 05be 00       		.uleb128 .LVU163
 6668 05bf 00       		.uleb128 .LVU168
 6669 05c0 00       		.uleb128 .LVU172
 6670 05c1 00       		.uleb128 .LVU173
 6671              	.LLST9:
 6672 05c2 DA010000 		.4byte	.LVL15
 6673 05c6 E6010000 		.4byte	.LVL17
 6674 05ca 0100     		.2byte	0x1
 6675 05cc 50       		.byte	0x50
 6676 05cd EE010000 		.4byte	.LVL19
 6677 05d1 F0010000 		.4byte	.LVL20
 6678 05d5 0100     		.2byte	0x1
 6679 05d7 50       		.byte	0x50
 6680 05d8 00000000 		.4byte	0
 6681 05dc 00000000 		.4byte	0
 6682              	.LVUS10:
 6683 05e0 00       		.uleb128 .LVU151
 6684 05e1 00       		.uleb128 .LVU163
 6685              	.LLST10:
 6686 05e2 C8010000 		.4byte	.LVL11
 6687 05e6 DA010000 		.4byte	.LVL15
 6688 05ea 0100     		.2byte	0x1
 6689 05ec 53       		.byte	0x53
 6690 05ed 00000000 		.4byte	0
 6691 05f1 00000000 		.4byte	0
 6692              	.LVUS11:
 6693 05f5 00       		.uleb128 .LVU151
 6694 05f6 00       		.uleb128 .LVU159
 6695              	.LLST11:
 6696 05f7 C8010000 		.4byte	.LVL11
 6697 05fb D6010000 		.4byte	.LVL14
 6698 05ff 0100     		.2byte	0x1
 6699 0601 52       		.byte	0x52
ARM GAS  /tmp/ccIXPZcX.s 			page 131


 6700 0602 00000000 		.4byte	0
 6701 0606 00000000 		.4byte	0
 6702              	.LVUS12:
 6703 060a 01       		.uleb128 .LVU166
 6704 060b 00       		.uleb128 .LVU168
 6705              	.LLST12:
 6706 060c DE010000 		.4byte	.LVL16
 6707 0610 E6010000 		.4byte	.LVL17
 6708 0614 0900     		.2byte	0x9
 6709 0616 70       		.byte	0x70
 6710 0617 00       		.sleb128 0
 6711 0618 3A       		.byte	0x3a
 6712 0619 14       		.byte	0x14
 6713 061a 14       		.byte	0x14
 6714 061b 1B       		.byte	0x1b
 6715 061c 1E       		.byte	0x1e
 6716 061d 1C       		.byte	0x1c
 6717 061e 9F       		.byte	0x9f
 6718 061f 00000000 		.4byte	0
 6719 0623 00000000 		.4byte	0
 6720              		.section	.debug_aranges,"",%progbits
 6721 0000 24000000 		.4byte	0x24
 6722 0004 0200     		.2byte	0x2
 6723 0006 00000000 		.4byte	.Ldebug_info0
 6724 000a 04       		.byte	0x4
 6725 000b 00       		.byte	0
 6726 000c 0000     		.2byte	0
 6727 000e 0000     		.2byte	0
 6728 0010 00000000 		.4byte	.Ltext0
 6729 0014 92050000 		.4byte	.Letext0-.Ltext0
 6730 0018 00000000 		.4byte	.LFB51
 6731 001c 6C000000 		.4byte	.LFE51-.LFB51
 6732 0020 00000000 		.4byte	0
 6733 0024 00000000 		.4byte	0
 6734              		.section	.debug_ranges,"",%progbits
 6735              	.Ldebug_ranges0:
 6736 0000 C8010000 		.4byte	.LBB6
 6737 0004 F0010000 		.4byte	.LBE6
 6738 0008 F2010000 		.4byte	.LBB11
 6739 000c F8010000 		.4byte	.LBE11
 6740 0010 00000000 		.4byte	0
 6741 0014 00000000 		.4byte	0
 6742 0018 D8010000 		.4byte	.LBB8
 6743 001c DA010000 		.4byte	.LBE8
 6744 0020 DE010000 		.4byte	.LBB9
 6745 0024 F0010000 		.4byte	.LBE9
 6746 0028 00000000 		.4byte	0
 6747 002c 00000000 		.4byte	0
 6748 0030 3E020000 		.4byte	.LBB12
 6749 0034 3E020000 		.4byte	.LBE12
 6750 0038 40020000 		.4byte	.LBB15
 6751 003c 4A020000 		.4byte	.LBE15
 6752 0040 56020000 		.4byte	.LBB16
 6753 0044 7C020000 		.4byte	.LBE16
 6754 0048 00000000 		.4byte	0
 6755 004c 00000000 		.4byte	0
 6756 0050 40020000 		.4byte	.LBB13
ARM GAS  /tmp/ccIXPZcX.s 			page 132


 6757 0054 44020000 		.4byte	.LBE13
 6758 0058 56020000 		.4byte	.LBB14
 6759 005c 76020000 		.4byte	.LBE14
 6760 0060 00000000 		.4byte	0
 6761 0064 00000000 		.4byte	0
 6762 0068 DE030000 		.4byte	.LBB17
 6763 006c E0030000 		.4byte	.LBE17
 6764 0070 E4030000 		.4byte	.LBB18
 6765 0074 E6030000 		.4byte	.LBE18
 6766 0078 3A040000 		.4byte	.LBB19
 6767 007c 62040000 		.4byte	.LBE19
 6768 0080 00000000 		.4byte	0
 6769 0084 00000000 		.4byte	0
 6770 0088 30050000 		.4byte	.LBB20
 6771 008c 30050000 		.4byte	.LBE20
 6772 0090 32050000 		.4byte	.LBB21
 6773 0094 90050000 		.4byte	.LBE21
 6774 0098 00000000 		.4byte	0
 6775 009c 00000000 		.4byte	0
 6776 00a0 00000000 		.4byte	.Ltext0
 6777 00a4 92050000 		.4byte	.Letext0
 6778 00a8 00000000 		.4byte	.LFB51
 6779 00ac 6C000000 		.4byte	.LFE51
 6780 00b0 00000000 		.4byte	0
 6781 00b4 00000000 		.4byte	0
 6782              		.section	.debug_line,"",%progbits
 6783              	.Ldebug_line0:
 6784 0000 E9090000 		.section	.debug_str,"MS",%progbits,1
 6784      0300FD01 
 6784      00000201 
 6784      FB0E0D00 
 6784      01010101 
 6785              	.LASF75:
 6786 0000 52534552 		.ascii	"RSERVED1\000"
 6786      56454431 
 6786      00
 6787              	.LASF36:
 6788 0009 45585449 		.ascii	"EXTI2_IRQn\000"
 6788      325F4952 
 6788      516E00
 6789              	.LASF157:
 6790 0014 4750494F 		.ascii	"GPIO_Mode_IPU\000"
 6790      5F4D6F64 
 6790      655F4950 
 6790      5500
 6791              	.LASF221:
 6792 0022 55534152 		.ascii	"USART_SendData\000"
 6792      545F5365 
 6792      6E644461 
 6792      746100
 6793              	.LASF198:
 6794 0031 66726163 		.ascii	"fracionaria\000"
 6794      696F6E61 
 6794      72696100 
 6795              	.LASF220:
 6796 003d 64697370 		.ascii	"disp_cmd\000"
 6796      5F636D64 
ARM GAS  /tmp/ccIXPZcX.s 			page 133


 6796      00
 6797              	.LASF94:
 6798 0046 53515231 		.ascii	"SQR1\000"
 6798      00
 6799              	.LASF95:
 6800 004b 53515232 		.ascii	"SQR2\000"
 6800      00
 6801              	.LASF96:
 6802 0050 53515233 		.ascii	"SQR3\000"
 6802      00
 6803              	.LASF203:
 6804 0055 656E6162 		.ascii	"enable_TIM3_delay\000"
 6804      6C655F54 
 6804      494D335F 
 6804      64656C61 
 6804      7900
 6805              	.LASF148:
 6806 0067 47545052 		.ascii	"GTPR\000"
 6806      00
 6807              	.LASF43:
 6808 006c 444D4131 		.ascii	"DMA1_Channel5_IRQn\000"
 6808      5F436861 
 6808      6E6E656C 
 6808      355F4952 
 6808      516E00
 6809              	.LASF193:
 6810 007f 64696769 		.ascii	"digito\000"
 6810      746F00
 6811              	.LASF16:
 6812 0086 42617365 		.ascii	"BaseType_t\000"
 6812      54797065 
 6812      5F7400
 6813              	.LASF204:
 6814 0091 44656C61 		.ascii	"Delay\000"
 6814      7900
 6815              	.LASF32:
 6816 0097 464C4153 		.ascii	"FLASH_IRQn\000"
 6816      485F4952 
 6816      516E00
 6817              	.LASF207:
 6818 00a2 41444331 		.ascii	"ADC1_configure\000"
 6818      5F636F6E 
 6818      66696775 
 6818      726500
 6819              	.LASF56:
 6820 00b1 54494D32 		.ascii	"TIM2_IRQn\000"
 6820      5F495251 
 6820      6E00
 6821              	.LASF145:
 6822 00bb 444D4152 		.ascii	"DMAR\000"
 6822      00
 6823              	.LASF78:
 6824 00c0 49435052 		.ascii	"ICPR\000"
 6824      00
 6825              	.LASF134:
 6826 00c5 43435231 		.ascii	"CCR1\000"
 6826      00
ARM GAS  /tmp/ccIXPZcX.s 			page 134


 6827              	.LASF136:
 6828 00ca 43435232 		.ascii	"CCR2\000"
 6828      00
 6829              	.LASF138:
 6830 00cf 43435233 		.ascii	"CCR3\000"
 6830      00
 6831              	.LASF140:
 6832 00d4 43435234 		.ascii	"CCR4\000"
 6832      00
 6833              	.LASF6:
 6834 00d9 5F5F7569 		.ascii	"__uint8_t\000"
 6834      6E74385F 
 6834      7400
 6835              	.LASF64:
 6836 00e3 53504932 		.ascii	"SPI2_IRQn\000"
 6836      5F495251 
 6836      6E00
 6837              	.LASF164:
 6838 00ed 4750494F 		.ascii	"GPIO_Speed\000"
 6838      5F537065 
 6838      656400
 6839              	.LASF206:
 6840 00f8 41444339 		.ascii	"ADC9_Configuration\000"
 6840      5F436F6E 
 6840      66696775 
 6840      72617469 
 6840      6F6E00
 6841              	.LASF9:
 6842 010b 6C6F6E67 		.ascii	"long int\000"
 6842      20696E74 
 6842      00
 6843              	.LASF235:
 6844 0114 51756575 		.ascii	"QueueDefinition\000"
 6844      65446566 
 6844      696E6974 
 6844      696F6E00 
 6845              	.LASF154:
 6846 0124 4750494F 		.ascii	"GPIO_Mode_AIN\000"
 6846      5F4D6F64 
 6846      655F4149 
 6846      4E00
 6847              	.LASF30:
 6848 0132 54414D50 		.ascii	"TAMPER_IRQn\000"
 6848      45525F49 
 6848      52516E00 
 6849              	.LASF210:
 6850 013e 76546173 		.ascii	"vTaskStartScheduler\000"
 6850      6B537461 
 6850      72745363 
 6850      68656475 
 6850      6C657200 
 6851              	.LASF236:
 6852 0152 6D61696E 		.ascii	"main\000"
 6852      00
 6853              	.LASF200:
 6854 0157 4952516E 		.ascii	"IRQn\000"
 6854      00
ARM GAS  /tmp/ccIXPZcX.s 			page 135


 6855              	.LASF135:
 6856 015c 52455345 		.ascii	"RESERVED13\000"
 6856      52564544 
 6856      313300
 6857              	.LASF115:
 6858 0167 41504232 		.ascii	"APB2ENR\000"
 6858      454E5200 
 6859              	.LASF191:
 6860 016f 55534152 		.ascii	"USART_InitStructure\000"
 6860      545F496E 
 6860      69745374 
 6860      72756374 
 6860      75726500 
 6861              	.LASF160:
 6862 0183 4750494F 		.ascii	"GPIO_Mode_AF_OD\000"
 6862      5F4D6F64 
 6862      655F4146 
 6862      5F4F4400 
 6863              	.LASF27:
 6864 0193 53797354 		.ascii	"SysTick_IRQn\000"
 6864      69636B5F 
 6864      4952516E 
 6864      00
 6865              	.LASF106:
 6866 01a0 57525052 		.ascii	"WRPR\000"
 6866      00
 6867              	.LASF67:
 6868 01a5 55534152 		.ascii	"USART3_IRQn\000"
 6868      54335F49 
 6868      52516E00 
 6869              	.LASF19:
 6870 01b1 51756575 		.ascii	"QueueHandle_t\000"
 6870      6548616E 
 6870      646C655F 
 6870      7400
 6871              	.LASF3:
 6872 01bf 7369676E 		.ascii	"signed char\000"
 6872      65642063 
 6872      68617200 
 6873              	.LASF13:
 6874 01cb 75696E74 		.ascii	"uint8_t\000"
 6874      385F7400 
 6875              	.LASF166:
 6876 01d3 4750494F 		.ascii	"GPIO_InitTypeDef\000"
 6876      5F496E69 
 6876      74547970 
 6876      65446566 
 6876      00
 6877              	.LASF147:
 6878 01e4 54494D5F 		.ascii	"TIM_TypeDef\000"
 6878      54797065 
 6878      44656600 
 6879              	.LASF233:
 6880 01f0 2E2E2F35 		.ascii	"../5-TempR_LCD_Serial/main.c\000"
 6880      2D54656D 
 6880      70525F4C 
 6880      43445F53 
ARM GAS  /tmp/ccIXPZcX.s 			page 136


 6880      65726961 
 6881              	.LASF73:
 6882 020d 52455345 		.ascii	"RESERVED0\000"
 6882      52564544 
 6882      3000
 6883              	.LASF121:
 6884 0217 52455345 		.ascii	"RESERVED1\000"
 6884      52564544 
 6884      3100
 6885              	.LASF4:
 6886 0221 756E7369 		.ascii	"unsigned char\000"
 6886      676E6564 
 6886      20636861 
 6886      7200
 6887              	.LASF79:
 6888 022f 52455345 		.ascii	"RESERVED3\000"
 6888      52564544 
 6888      3300
 6889              	.LASF81:
 6890 0239 52455345 		.ascii	"RESERVED4\000"
 6890      52564544 
 6890      3400
 6891              	.LASF82:
 6892 0243 52455345 		.ascii	"RESERVED5\000"
 6892      52564544 
 6892      3500
 6893              	.LASF125:
 6894 024d 52455345 		.ascii	"RESERVED6\000"
 6894      52564544 
 6894      3600
 6895              	.LASF127:
 6896 0257 52455345 		.ascii	"RESERVED7\000"
 6896      52564544 
 6896      3700
 6897              	.LASF129:
 6898 0261 52455345 		.ascii	"RESERVED8\000"
 6898      52564544 
 6898      3800
 6899              	.LASF130:
 6900 026b 52455345 		.ascii	"RESERVED9\000"
 6900      52564544 
 6900      3900
 6901              	.LASF161:
 6902 0275 4750494F 		.ascii	"GPIO_Mode_AF_PP\000"
 6902      5F4D6F64 
 6902      655F4146 
 6902      5F505000 
 6903              	.LASF80:
 6904 0285 49414252 		.ascii	"IABR\000"
 6904      00
 6905              	.LASF168:
 6906 028a 55534152 		.ascii	"USART_WordLength\000"
 6906      545F576F 
 6906      72644C65 
 6906      6E677468 
 6906      00
 6907              	.LASF60:
ARM GAS  /tmp/ccIXPZcX.s 			page 137


 6908 029b 49324331 		.ascii	"I2C1_ER_IRQn\000"
 6908      5F45525F 
 6908      4952516E 
 6908      00
 6909              	.LASF208:
 6910 02a8 78517565 		.ascii	"xQueueGenericCreate\000"
 6910      75654765 
 6910      6E657269 
 6910      63437265 
 6910      61746500 
 6911              	.LASF39:
 6912 02bc 444D4131 		.ascii	"DMA1_Channel1_IRQn\000"
 6912      5F436861 
 6912      6E6E656C 
 6912      315F4952 
 6912      516E00
 6913              	.LASF52:
 6914 02cf 54494D31 		.ascii	"TIM1_BRK_IRQn\000"
 6914      5F42524B 
 6914      5F495251 
 6914      6E00
 6915              	.LASF77:
 6916 02dd 52455345 		.ascii	"RESERVED2\000"
 6916      52564544 
 6916      3200
 6917              	.LASF170:
 6918 02e7 55534152 		.ascii	"USART_Parity\000"
 6918      545F5061 
 6918      72697479 
 6918      00
 6919              	.LASF23:
 6920 02f4 55736167 		.ascii	"UsageFault_IRQn\000"
 6920      65466175 
 6920      6C745F49 
 6920      52516E00 
 6921              	.LASF124:
 6922 0304 43434D52 		.ascii	"CCMR1\000"
 6922      3100
 6923              	.LASF47:
 6924 030a 5553425F 		.ascii	"USB_HP_CAN1_TX_IRQn\000"
 6924      48505F43 
 6924      414E315F 
 6924      54585F49 
 6924      52516E00 
 6925              	.LASF18:
 6926 031e 63686172 		.ascii	"char\000"
 6926      00
 6927              	.LASF223:
 6928 0323 5243435F 		.ascii	"RCC_APB2PeriphClockCmd\000"
 6928      41504232 
 6928      50657269 
 6928      7068436C 
 6928      6F636B43 
 6929              	.LASF158:
 6930 033a 4750494F 		.ascii	"GPIO_Mode_Out_OD\000"
 6930      5F4D6F64 
 6930      655F4F75 
ARM GAS  /tmp/ccIXPZcX.s 			page 138


 6930      745F4F44 
 6930      00
 6931              	.LASF7:
 6932 034b 5F5F7569 		.ascii	"__uint16_t\000"
 6932      6E743136 
 6932      5F7400
 6933              	.LASF199:
 6934 0356 64697361 		.ascii	"disable_interrupt\000"
 6934      626C655F 
 6934      696E7465 
 6934      72727570 
 6934      7400
 6935              	.LASF228:
 6936 0368 5F5F6165 		.ascii	"__aeabi_f2iz\000"
 6936      6162695F 
 6936      6632697A 
 6936      00
 6937              	.LASF152:
 6938 0375 4750494F 		.ascii	"GPIO_Speed_50MHz\000"
 6938      5F537065 
 6938      65645F35 
 6938      304D487A 
 6938      00
 6939              	.LASF149:
 6940 0386 55534152 		.ascii	"USART_TypeDef\000"
 6940      545F5479 
 6940      70654465 
 6940      6600
 6941              	.LASF176:
 6942 0394 4C43445F 		.ascii	"LCD_Show_queue\000"
 6942      53686F77 
 6942      5F717565 
 6942      756500
 6943              	.LASF70:
 6944 03a3 55534257 		.ascii	"USBWakeUp_IRQn\000"
 6944      616B6555 
 6944      705F4952 
 6944      516E00
 6945              	.LASF58:
 6946 03b2 54494D34 		.ascii	"TIM4_IRQn\000"
 6946      5F495251 
 6946      6E00
 6947              	.LASF66:
 6948 03bc 55534152 		.ascii	"USART2_IRQn\000"
 6948      54325F49 
 6948      52516E00 
 6949              	.LASF225:
 6950 03c8 55534152 		.ascii	"USART_Init\000"
 6950      545F496E 
 6950      697400
 6951              	.LASF192:
 6952 03d3 74656D70 		.ascii	"temp\000"
 6952      00
 6953              	.LASF117:
 6954 03d8 42444352 		.ascii	"BDCR\000"
 6954      00
 6955              	.LASF83:
ARM GAS  /tmp/ccIXPZcX.s 			page 139


 6956 03dd 53544952 		.ascii	"STIR\000"
 6956      00
 6957              	.LASF59:
 6958 03e2 49324331 		.ascii	"I2C1_EV_IRQn\000"
 6958      5F45565F 
 6958      4952516E 
 6958      00
 6959              	.LASF102:
 6960 03ef 4144435F 		.ascii	"ADC_TypeDef\000"
 6960      54797065 
 6960      44656600 
 6961              	.LASF105:
 6962 03fb 52455345 		.ascii	"RESERVED\000"
 6962      52564544 
 6962      00
 6963              	.LASF167:
 6964 0404 55534152 		.ascii	"USART_BaudRate\000"
 6964      545F4261 
 6964      75645261 
 6964      746500
 6965              	.LASF111:
 6966 0413 43464752 		.ascii	"CFGR\000"
 6966      00
 6967              	.LASF171:
 6968 0418 55534152 		.ascii	"USART_Mode\000"
 6968      545F4D6F 
 6968      646500
 6969              	.LASF55:
 6970 0423 54494D31 		.ascii	"TIM1_CC_IRQn\000"
 6970      5F43435F 
 6970      4952516E 
 6970      00
 6971              	.LASF35:
 6972 0430 45585449 		.ascii	"EXTI1_IRQn\000"
 6972      315F4952 
 6972      516E00
 6973              	.LASF159:
 6974 043b 4750494F 		.ascii	"GPIO_Mode_Out_PP\000"
 6974      5F4D6F64 
 6974      655F4F75 
 6974      745F5050 
 6974      00
 6975              	.LASF211:
 6976 044c 78517565 		.ascii	"xQueueGenericSend\000"
 6976      75654765 
 6976      6E657269 
 6976      6353656E 
 6976      6400
 6977              	.LASF104:
 6978 045e 4F50544B 		.ascii	"OPTKEYR\000"
 6978      45595200 
 6979              	.LASF20:
 6980 0466 4E6F6E4D 		.ascii	"NonMaskableInt_IRQn\000"
 6980      61736B61 
 6980      626C6549 
 6980      6E745F49 
 6980      52516E00 
ARM GAS  /tmp/ccIXPZcX.s 			page 140


 6981              	.LASF28:
 6982 047a 57574447 		.ascii	"WWDG_IRQn\000"
 6982      5F495251 
 6982      6E00
 6983              	.LASF11:
 6984 0484 6C6F6E67 		.ascii	"long unsigned int\000"
 6984      20756E73 
 6984      69676E65 
 6984      6420696E 
 6984      7400
 6985              	.LASF116:
 6986 0496 41504231 		.ascii	"APB1ENR\000"
 6986      454E5200 
 6987              	.LASF21:
 6988 049e 4D656D6F 		.ascii	"MemoryManagement_IRQn\000"
 6988      72794D61 
 6988      6E616765 
 6988      6D656E74 
 6988      5F495251 
 6989              	.LASF42:
 6990 04b4 444D4131 		.ascii	"DMA1_Channel4_IRQn\000"
 6990      5F436861 
 6990      6E6E656C 
 6990      345F4952 
 6990      516E00
 6991              	.LASF123:
 6992 04c7 44494552 		.ascii	"DIER\000"
 6992      00
 6993              	.LASF180:
 6994 04cc 4C43445F 		.ascii	"LCD_Menu\000"
 6994      4D656E75 
 6994      00
 6995              	.LASF50:
 6996 04d5 43414E31 		.ascii	"CAN1_SCE_IRQn\000"
 6996      5F534345 
 6996      5F495251 
 6996      6E00
 6997              	.LASF71:
 6998 04e3 4952516E 		.ascii	"IRQn_Type\000"
 6998      5F547970 
 6998      6500
 6999              	.LASF88:
 7000 04ed 534D5052 		.ascii	"SMPR1\000"
 7000      3100
 7001              	.LASF89:
 7002 04f3 534D5052 		.ascii	"SMPR2\000"
 7002      3200
 7003              	.LASF215:
 7004 04f9 78517565 		.ascii	"xQueueReceive\000"
 7004      75655265 
 7004      63656976 
 7004      6500
 7005              	.LASF237:
 7006 0507 4C434431 		.ascii	"LCD16x2_init\000"
 7006      3678325F 
 7006      696E6974 
 7006      00
ARM GAS  /tmp/ccIXPZcX.s 			page 141


 7007              	.LASF169:
 7008 0514 55534152 		.ascii	"USART_StopBits\000"
 7008      545F5374 
 7008      6F704269 
 7008      747300
 7009              	.LASF109:
 7010 0523 4C434B52 		.ascii	"LCKR\000"
 7010      00
 7011              	.LASF62:
 7012 0528 49324332 		.ascii	"I2C2_ER_IRQn\000"
 7012      5F45525F 
 7012      4952516E 
 7012      00
 7013              	.LASF178:
 7014 0535 61726773 		.ascii	"args\000"
 7014      00
 7015              	.LASF118:
 7016 053a 41484252 		.ascii	"AHBRSTR\000"
 7016      53545200 
 7017              	.LASF22:
 7018 0542 42757346 		.ascii	"BusFault_IRQn\000"
 7018      61756C74 
 7018      5F495251 
 7018      6E00
 7019              	.LASF10:
 7020 0550 5F5F7569 		.ascii	"__uint32_t\000"
 7020      6E743332 
 7020      5F7400
 7021              	.LASF1:
 7022 055b 6C6F6E67 		.ascii	"long long int\000"
 7022      206C6F6E 
 7022      6720696E 
 7022      7400
 7023              	.LASF189:
 7024 0569 55534152 		.ascii	"USART_init\000"
 7024      545F696E 
 7024      697400
 7025              	.LASF201:
 7026 0574 656E6162 		.ascii	"enable_interrupt\000"
 7026      6C655F69 
 7026      6E746572 
 7026      72757074 
 7026      00
 7027              	.LASF63:
 7028 0585 53504931 		.ascii	"SPI1_IRQn\000"
 7028      5F495251 
 7028      6E00
 7029              	.LASF175:
 7030 058f 646F7562 		.ascii	"double\000"
 7030      6C6500
 7031              	.LASF24:
 7032 0596 53564361 		.ascii	"SVCall_IRQn\000"
 7032      6C6C5F49 
 7032      52516E00 
 7033              	.LASF112:
 7034 05a2 41504232 		.ascii	"APB2RSTR\000"
 7034      52535452 
ARM GAS  /tmp/ccIXPZcX.s 			page 142


 7034      00
 7035              	.LASF69:
 7036 05ab 52544341 		.ascii	"RTCAlarm_IRQn\000"
 7036      6C61726D 
 7036      5F495251 
 7036      6E00
 7037              	.LASF222:
 7038 05b9 55534152 		.ascii	"USART_GetFlagStatus\000"
 7038      545F4765 
 7038      74466C61 
 7038      67537461 
 7038      74757300 
 7039              	.LASF174:
 7040 05cd 666C6F61 		.ascii	"float\000"
 7040      7400
 7041              	.LASF187:
 7042 05d3 55534152 		.ascii	"USARTSend\000"
 7042      5453656E 
 7042      6400
 7043              	.LASF0:
 7044 05dd 756E7369 		.ascii	"unsigned int\000"
 7044      676E6564 
 7044      20696E74 
 7044      00
 7045              	.LASF217:
 7046 05ea 5F5F6165 		.ascii	"__aeabi_dmul\000"
 7046      6162695F 
 7046      646D756C 
 7046      00
 7047              	.LASF119:
 7048 05f7 43464752 		.ascii	"CFGR2\000"
 7048      3200
 7049              	.LASF61:
 7050 05fd 49324332 		.ascii	"I2C2_EV_IRQn\000"
 7050      5F45565F 
 7050      4952516E 
 7050      00
 7051              	.LASF227:
 7052 060a 5F5F6165 		.ascii	"__aeabi_fmul\000"
 7052      6162695F 
 7052      666D756C 
 7052      00
 7053              	.LASF126:
 7054 0617 43434D52 		.ascii	"CCMR2\000"
 7054      3200
 7055              	.LASF45:
 7056 061d 444D4131 		.ascii	"DMA1_Channel7_IRQn\000"
 7056      5F436861 
 7056      6E6E656C 
 7056      375F4952 
 7056      516E00
 7057              	.LASF197:
 7058 0630 696E7454 		.ascii	"intToStr\000"
 7058      6F537472 
 7058      00
 7059              	.LASF177:
 7060 0639 56616C6F 		.ascii	"Valor_ADC_normalizado\000"
ARM GAS  /tmp/ccIXPZcX.s 			page 143


 7060      725F4144 
 7060      435F6E6F 
 7060      726D616C 
 7060      697A6164 
 7061              	.LASF209:
 7062 064f 78546173 		.ascii	"xTaskCreate\000"
 7062      6B437265 
 7062      61746500 
 7063              	.LASF182:
 7064 065b 7461736B 		.ascii	"task1\000"
 7064      3100
 7065              	.LASF181:
 7066 0661 7461736B 		.ascii	"task2\000"
 7066      3200
 7067              	.LASF179:
 7068 0667 7461736B 		.ascii	"task3\000"
 7068      3300
 7069              	.LASF86:
 7070 066d 44495341 		.ascii	"DISABLE\000"
 7070      424C4500 
 7071              	.LASF2:
 7072 0675 6C6F6E67 		.ascii	"long double\000"
 7072      20646F75 
 7072      626C6500 
 7073              	.LASF54:
 7074 0681 54494D31 		.ascii	"TIM1_TRG_COM_IRQn\000"
 7074      5F545247 
 7074      5F434F4D 
 7074      5F495251 
 7074      6E00
 7075              	.LASF113:
 7076 0693 41504231 		.ascii	"APB1RSTR\000"
 7076      52535452 
 7076      00
 7077              	.LASF212:
 7078 069c 76546173 		.ascii	"vTaskDelay\000"
 7078      6B44656C 
 7078      617900
 7079              	.LASF224:
 7080 06a7 4750494F 		.ascii	"GPIO_Init\000"
 7080      5F496E69 
 7080      7400
 7081              	.LASF84:
 7082 06b1 4E564943 		.ascii	"NVIC_Type\000"
 7082      5F547970 
 7082      6500
 7083              	.LASF68:
 7084 06bb 45585449 		.ascii	"EXTI15_10_IRQn\000"
 7084      31355F31 
 7084      305F4952 
 7084      516E00
 7085              	.LASF12:
 7086 06ca 6C6F6E67 		.ascii	"long long unsigned int\000"
 7086      206C6F6E 
 7086      6720756E 
 7086      7369676E 
 7086      65642069 
ARM GAS  /tmp/ccIXPZcX.s 			page 144


 7087              	.LASF14:
 7088 06e1 75696E74 		.ascii	"uint16_t\000"
 7088      31365F74 
 7088      00
 7089              	.LASF57:
 7090 06ea 54494D33 		.ascii	"TIM3_IRQn\000"
 7090      5F495251 
 7090      6E00
 7091              	.LASF128:
 7092 06f4 43434552 		.ascii	"CCER\000"
 7092      00
 7093              	.LASF133:
 7094 06f9 52455345 		.ascii	"RESERVED12\000"
 7094      52564544 
 7094      313200
 7095              	.LASF65:
 7096 0704 55534152 		.ascii	"USART1_IRQn\000"
 7096      54315F49 
 7096      52516E00 
 7097              	.LASF137:
 7098 0710 52455345 		.ascii	"RESERVED14\000"
 7098      52564544 
 7098      313400
 7099              	.LASF139:
 7100 071b 52455345 		.ascii	"RESERVED15\000"
 7100      52564544 
 7100      313500
 7101              	.LASF141:
 7102 0726 52455345 		.ascii	"RESERVED16\000"
 7102      52564544 
 7102      313600
 7103              	.LASF143:
 7104 0731 52455345 		.ascii	"RESERVED17\000"
 7104      52564544 
 7104      313700
 7105              	.LASF144:
 7106 073c 52455345 		.ascii	"RESERVED18\000"
 7106      52564544 
 7106      313800
 7107              	.LASF146:
 7108 0747 52455345 		.ascii	"RESERVED19\000"
 7108      52564544 
 7108      313900
 7109              	.LASF188:
 7110 0752 70756342 		.ascii	"pucBuffer\000"
 7110      75666665 
 7110      7200
 7111              	.LASF190:
 7112 075c 4750494F 		.ascii	"GPIO_InitStructure\000"
 7112      5F496E69 
 7112      74537472 
 7112      75637475 
 7112      726500
 7113              	.LASF165:
 7114 076f 4750494F 		.ascii	"GPIO_Mode\000"
 7114      5F4D6F64 
 7114      6500
ARM GAS  /tmp/ccIXPZcX.s 			page 145


 7115              	.LASF226:
 7116 0779 55534152 		.ascii	"USART_Cmd\000"
 7116      545F436D 
 7116      6400
 7117              	.LASF17:
 7118 0783 5469636B 		.ascii	"TickType_t\000"
 7118      54797065 
 7118      5F7400
 7119              	.LASF74:
 7120 078e 49434552 		.ascii	"ICER\000"
 7120      00
 7121              	.LASF122:
 7122 0793 534D4352 		.ascii	"SMCR\000"
 7122      00
 7123              	.LASF162:
 7124 0798 4750494F 		.ascii	"GPIOMode_TypeDef\000"
 7124      4D6F6465 
 7124      5F547970 
 7124      65446566 
 7124      00
 7125              	.LASF85:
 7126 07a9 52455345 		.ascii	"RESET\000"
 7126      5400
 7127              	.LASF219:
 7128 07af 64697370 		.ascii	"disp_init\000"
 7128      5F696E69 
 7128      7400
 7129              	.LASF173:
 7130 07b9 55534152 		.ascii	"USART_InitTypeDef\000"
 7130      545F496E 
 7130      69745479 
 7130      70654465 
 7130      6600
 7131              	.LASF29:
 7132 07cb 5056445F 		.ascii	"PVD_IRQn\000"
 7132      4952516E 
 7132      00
 7133              	.LASF34:
 7134 07d4 45585449 		.ascii	"EXTI0_IRQn\000"
 7134      305F4952 
 7134      516E00
 7135              	.LASF230:
 7136 07df 5F5F6165 		.ascii	"__aeabi_fsub\000"
 7136      6162695F 
 7136      66737562 
 7136      00
 7137              	.LASF151:
 7138 07ec 4750494F 		.ascii	"GPIO_Speed_2MHz\000"
 7138      5F537065 
 7138      65645F32 
 7138      4D487A00 
 7139              	.LASF153:
 7140 07fc 4750494F 		.ascii	"GPIOSpeed_TypeDef\000"
 7140      53706565 
 7140      645F5479 
 7140      70654465 
 7140      6600
ARM GAS  /tmp/ccIXPZcX.s 			page 146


 7141              	.LASF25:
 7142 080e 44656275 		.ascii	"DebugMonitor_IRQn\000"
 7142      674D6F6E 
 7142      69746F72 
 7142      5F495251 
 7142      6E00
 7143              	.LASF163:
 7144 0820 4750494F 		.ascii	"GPIO_Pin\000"
 7144      5F50696E 
 7144      00
 7145              	.LASF214:
 7146 0829 64697370 		.ascii	"disp_clear\000"
 7146      5F636C65 
 7146      617200
 7147              	.LASF48:
 7148 0834 5553425F 		.ascii	"USB_LP_CAN1_RX0_IRQn\000"
 7148      4C505F43 
 7148      414E315F 
 7148      5258305F 
 7148      4952516E 
 7149              	.LASF41:
 7150 0849 444D4131 		.ascii	"DMA1_Channel3_IRQn\000"
 7150      5F436861 
 7150      6E6E656C 
 7150      335F4952 
 7150      516E00
 7151              	.LASF234:
 7152 085c 2F686F6D 		.ascii	"/home/junior/Codigos/6-Stm32_GCC_FreeRTOS10.2.1/5-T"
 7152      652F6A75 
 7152      6E696F72 
 7152      2F436F64 
 7152      69676F73 
 7153 088f 656D7052 		.ascii	"empR_LCD_Serial\000"
 7153      5F4C4344 
 7153      5F536572 
 7153      69616C00 
 7154              	.LASF103:
 7155 089f 4B455952 		.ascii	"KEYR\000"
 7155      00
 7156              	.LASF120:
 7157 08a4 5243435F 		.ascii	"RCC_TypeDef\000"
 7157      54797065 
 7157      44656600 
 7158              	.LASF5:
 7159 08b0 73686F72 		.ascii	"short int\000"
 7159      7420696E 
 7159      7400
 7160              	.LASF33:
 7161 08ba 5243435F 		.ascii	"RCC_IRQn\000"
 7161      4952516E 
 7161      00
 7162              	.LASF155:
 7163 08c3 4750494F 		.ascii	"GPIO_Mode_IN_FLOATING\000"
 7163      5F4D6F64 
 7163      655F494E 
 7163      5F464C4F 
 7163      4154494E 
ARM GAS  /tmp/ccIXPZcX.s 			page 147


 7164              	.LASF195:
 7165 08d9 70726563 		.ascii	"precision\000"
 7165      6973696F 
 7165      6E00
 7166              	.LASF90:
 7167 08e3 4A4F4652 		.ascii	"JOFR1\000"
 7167      3100
 7168              	.LASF91:
 7169 08e9 4A4F4652 		.ascii	"JOFR2\000"
 7169      3200
 7170              	.LASF92:
 7171 08ef 4A4F4652 		.ascii	"JOFR3\000"
 7171      3300
 7172              	.LASF93:
 7173 08f5 4A4F4652 		.ascii	"JOFR4\000"
 7173      3400
 7174              	.LASF186:
 7175 08fb 656E745F 		.ascii	"ent_atual\000"
 7175      61747561 
 7175      6C00
 7176              	.LASF46:
 7177 0905 41444331 		.ascii	"ADC1_2_IRQn\000"
 7177      5F325F49 
 7177      52516E00 
 7178              	.LASF87:
 7179 0911 454E4142 		.ascii	"ENABLE\000"
 7179      4C4500
 7180              	.LASF202:
 7181 0918 41444339 		.ascii	"ADC9_GetValue\000"
 7181      5F476574 
 7181      56616C75 
 7181      6500
 7182              	.LASF114:
 7183 0926 41484245 		.ascii	"AHBENR\000"
 7183      4E5200
 7184              	.LASF232:
 7185 092d 474E5520 		.ascii	"GNU C17 10.3.1 20210824 (release) -mcpu=cortex-m3 -"
 7185      43313720 
 7185      31302E33 
 7185      2E312032 
 7185      30323130 
 7186 0960 6D746875 		.ascii	"mthumb -mfloat-abi=soft -march=armv7-m -g -gdwarf-2"
 7186      6D62202D 
 7186      6D666C6F 
 7186      61742D61 
 7186      62693D73 
 7187 0993 202D4F73 		.ascii	" -Os -fomit-frame-pointer\000"
 7187      202D666F 
 7187      6D69742D 
 7187      6672616D 
 7187      652D706F 
 7188              	.LASF108:
 7189 09ad 42535252 		.ascii	"BSRR\000"
 7189      00
 7190              	.LASF98:
 7191 09b2 4A445231 		.ascii	"JDR1\000"
 7191      00
ARM GAS  /tmp/ccIXPZcX.s 			page 148


 7192              	.LASF99:
 7193 09b7 4A445232 		.ascii	"JDR2\000"
 7193      00
 7194              	.LASF100:
 7195 09bc 4A445233 		.ascii	"JDR3\000"
 7195      00
 7196              	.LASF101:
 7197 09c1 4A445234 		.ascii	"JDR4\000"
 7197      00
 7198              	.LASF184:
 7199 09c6 466C6F61 		.ascii	"Float_point\000"
 7199      745F706F 
 7199      696E7400 
 7200              	.LASF205:
 7201 09d2 7365745F 		.ascii	"set_system_clock_to_72Mhz\000"
 7201      73797374 
 7201      656D5F63 
 7201      6C6F636B 
 7201      5F746F5F 
 7202              	.LASF97:
 7203 09ec 4A535152 		.ascii	"JSQR\000"
 7203      00
 7204              	.LASF110:
 7205 09f1 4750494F 		.ascii	"GPIO_TypeDef\000"
 7205      5F547970 
 7205      65446566 
 7205      00
 7206              	.LASF40:
 7207 09fe 444D4131 		.ascii	"DMA1_Channel2_IRQn\000"
 7207      5F436861 
 7207      6E6E656C 
 7207      325F4952 
 7207      516E00
 7208              	.LASF107:
 7209 0a11 464C4153 		.ascii	"FLASH_TypeDef\000"
 7209      485F5479 
 7209      70654465 
 7209      6600
 7210              	.LASF142:
 7211 0a1f 42445452 		.ascii	"BDTR\000"
 7211      00
 7212              	.LASF183:
 7213 0a24 6D73675F 		.ascii	"msg_buf_rev\000"
 7213      6275665F 
 7213      72657600 
 7214              	.LASF15:
 7215 0a30 75696E74 		.ascii	"uint32_t\000"
 7215      33325F74 
 7215      00
 7216              	.LASF53:
 7217 0a39 54494D31 		.ascii	"TIM1_UP_IRQn\000"
 7217      5F55505F 
 7217      4952516E 
 7217      00
 7218              	.LASF49:
 7219 0a46 43414E31 		.ascii	"CAN1_RX1_IRQn\000"
 7219      5F525831 
ARM GAS  /tmp/ccIXPZcX.s 			page 149


 7219      5F495251 
 7219      6E00
 7220              	.LASF172:
 7221 0a54 55534152 		.ascii	"USART_HardwareFlowControl\000"
 7221      545F4861 
 7221      72647761 
 7221      7265466C 
 7221      6F77436F 
 7222              	.LASF231:
 7223 0a6e 5F5F6165 		.ascii	"__aeabi_fcmplt\000"
 7223      6162695F 
 7223      66636D70 
 7223      6C7400
 7224              	.LASF51:
 7225 0a7d 45585449 		.ascii	"EXTI9_5_IRQn\000"
 7225      395F355F 
 7225      4952516E 
 7225      00
 7226              	.LASF150:
 7227 0a8a 4750494F 		.ascii	"GPIO_Speed_10MHz\000"
 7227      5F537065 
 7227      65645F31 
 7227      304D487A 
 7227      00
 7228              	.LASF38:
 7229 0a9b 45585449 		.ascii	"EXTI4_IRQn\000"
 7229      345F4952 
 7229      516E00
 7230              	.LASF8:
 7231 0aa6 73686F72 		.ascii	"short unsigned int\000"
 7231      7420756E 
 7231      7369676E 
 7231      65642069 
 7231      6E7400
 7232              	.LASF131:
 7233 0ab9 52455345 		.ascii	"RESERVED10\000"
 7233      52564544 
 7233      313000
 7234              	.LASF132:
 7235 0ac4 52455345 		.ascii	"RESERVED11\000"
 7235      52564544 
 7235      313100
 7236              	.LASF76:
 7237 0acf 49535052 		.ascii	"ISPR\000"
 7237      00
 7238              	.LASF37:
 7239 0ad4 45585449 		.ascii	"EXTI3_IRQn\000"
 7239      335F4952 
 7239      516E00
 7240              	.LASF26:
 7241 0adf 50656E64 		.ascii	"PendSV_IRQn\000"
 7241      53565F49 
 7241      52516E00 
 7242              	.LASF194:
 7243 0aeb 666C6F61 		.ascii	"floatToString\000"
 7243      74546F53 
 7243      7472696E 
ARM GAS  /tmp/ccIXPZcX.s 			page 150


 7243      6700
 7244              	.LASF72:
 7245 0af9 49534552 		.ascii	"ISER\000"
 7245      00
 7246              	.LASF218:
 7247 0afe 5F5F6165 		.ascii	"__aeabi_d2f\000"
 7247      6162695F 
 7247      64326600 
 7248              	.LASF44:
 7249 0b0a 444D4131 		.ascii	"DMA1_Channel6_IRQn\000"
 7249      5F436861 
 7249      6E6E656C 
 7249      365F4952 
 7249      516E00
 7250              	.LASF216:
 7251 0b1d 5F5F6165 		.ascii	"__aeabi_i2d\000"
 7251      6162695F 
 7251      69326400 
 7252              	.LASF229:
 7253 0b29 5F5F6165 		.ascii	"__aeabi_i2f\000"
 7253      6162695F 
 7253      69326600 
 7254              	.LASF213:
 7255 0b35 64697370 		.ascii	"disp_text\000"
 7255      5F746578 
 7255      7400
 7256              	.LASF31:
 7257 0b3f 5254435F 		.ascii	"RTC_IRQn\000"
 7257      4952516E 
 7257      00
 7258              	.LASF196:
 7259 0b48 696E7465 		.ascii	"inteira\000"
 7259      69726100 
 7260              	.LASF185:
 7261 0b50 42554646 		.ascii	"BUFF\000"
 7261      00
 7262              	.LASF156:
 7263 0b55 4750494F 		.ascii	"GPIO_Mode_IPD\000"
 7263      5F4D6F64 
 7263      655F4950 
 7263      4400
 7264              		.ident	"GCC: (GNU Arm Embedded Toolchain 10.3-2021.10) 10.3.1 20210824 (release)"
ARM GAS  /tmp/ccIXPZcX.s 			page 151


DEFINED SYMBOLS
                            *ABS*:0000000000000000 main.c
     /tmp/ccIXPZcX.s:78     .text:0000000000000000 $t
     /tmp/ccIXPZcX.s:83     .text:0000000000000000 task2
     /tmp/ccIXPZcX.s:141    .text:0000000000000028 $d
     /tmp/ccIXPZcX.s:146    .text:0000000000000030 $t
     /tmp/ccIXPZcX.s:152    .text:0000000000000030 ADC1_configure
     /tmp/ccIXPZcX.s:280    .text:00000000000000b0 $d
     /tmp/ccIXPZcX.s:286    .text:00000000000000bc $t
     /tmp/ccIXPZcX.s:292    .text:00000000000000bc set_system_clock_to_72Mhz
     /tmp/ccIXPZcX.s:400    .text:000000000000012c $d
     /tmp/ccIXPZcX.s:404    .text:0000000000000130 $t
     /tmp/ccIXPZcX.s:410    .text:0000000000000130 Delay
     /tmp/ccIXPZcX.s:481    .text:000000000000015c $d
     /tmp/ccIXPZcX.s:485    .text:0000000000000160 $t
     /tmp/ccIXPZcX.s:491    .text:0000000000000160 enable_TIM3_delay
     /tmp/ccIXPZcX.s:529    .text:0000000000000184 $d
     /tmp/ccIXPZcX.s:533    .text:0000000000000188 $t
     /tmp/ccIXPZcX.s:539    .text:0000000000000188 enable_interrupt
     /tmp/ccIXPZcX.s:571    .text:000000000000019c $d
     /tmp/ccIXPZcX.s:575    .text:00000000000001a0 $t
     /tmp/ccIXPZcX.s:581    .text:00000000000001a0 disable_interrupt
     /tmp/ccIXPZcX.s:614    .text:00000000000001b8 $d
     /tmp/ccIXPZcX.s:618    .text:00000000000001bc $t
     /tmp/ccIXPZcX.s:624    .text:00000000000001bc intToStr
     /tmp/ccIXPZcX.s:757    .text:00000000000001f8 floatToString
     /tmp/ccIXPZcX.s:944    .text:0000000000000278 $d
     /tmp/ccIXPZcX.s:949    .text:000000000000027c $t
     /tmp/ccIXPZcX.s:955    .text:000000000000027c USART_init
     /tmp/ccIXPZcX.s:1068   .text:00000000000002e8 $d
     /tmp/ccIXPZcX.s:1072   .text:00000000000002ec $t
     /tmp/ccIXPZcX.s:1078   .text:00000000000002ec USARTSend
     /tmp/ccIXPZcX.s:1137   .text:0000000000000310 $d
     /tmp/ccIXPZcX.s:1141   .text:0000000000000314 $t
     /tmp/ccIXPZcX.s:1147   .text:0000000000000314 ADC9_Configuration
     /tmp/ccIXPZcX.s:1236   .text:0000000000000374 $d
     /tmp/ccIXPZcX.s:1243   .text:0000000000000384 $t
     /tmp/ccIXPZcX.s:1249   .text:0000000000000384 task3
     /tmp/ccIXPZcX.s:1303   .text:00000000000003a8 $d
     /tmp/ccIXPZcX.s:1308   .text:00000000000003b0 $t
     /tmp/ccIXPZcX.s:1314   .text:00000000000003b0 ADC9_GetValue
     /tmp/ccIXPZcX.s:1350   .text:00000000000003c8 $d
     /tmp/ccIXPZcX.s:1364   .text:00000000000003cc $t
     /tmp/ccIXPZcX.s:1370   .text:00000000000003cc LCD16x2_init
     /tmp/ccIXPZcX.s:1528   .text:0000000000000474 $d
     /tmp/ccIXPZcX.s:1545   .text:0000000000000490 $t
     /tmp/ccIXPZcX.s:1550   .text:0000000000000490 task1
     /tmp/ccIXPZcX.s:1770   .text:0000000000000568 $d
     /tmp/ccIXPZcX.s:1784   .text:0000000000000590 $t
     /tmp/ccIXPZcX.s:1790   .text:0000000000000590 LCD_Menu
     /tmp/ccIXPZcX.s:1811   .text.startup:0000000000000000 $t
     /tmp/ccIXPZcX.s:1817   .text.startup:0000000000000000 main
     /tmp/ccIXPZcX.s:1884   .text.startup:0000000000000050 $d
     /tmp/ccIXPZcX.s:1895   .bss:0000000000000000 $d
     /tmp/ccIXPZcX.s:1899   .bss:0000000000000000 LCD_Show_queue

UNDEFINED SYMBOLS
ARM GAS  /tmp/ccIXPZcX.s 			page 152


vTaskDelay
__aeabi_fcmplt
__aeabi_f2iz
__aeabi_i2f
__aeabi_fsub
__aeabi_fmul
RCC_APB2PeriphClockCmd
GPIO_Init
USART_Init
USART_Cmd
USART_SendData
USART_GetFlagStatus
xQueueGenericSend
disp_init
disp_cmd
disp_text
disp_clear
__aeabi_i2d
__aeabi_dmul
__aeabi_d2f
xQueueReceive
xQueueGenericCreate
xTaskCreate
vTaskStartScheduler
