ARM GAS  /tmp/ccZoGyG7.s 			page 1


   1              		.cpu cortex-m3
   2              		.arch armv7-m
   3              		.fpu softvfp
   4              		.eabi_attribute 20, 1	@ Tag_ABI_FP_denormal
   5              		.eabi_attribute 21, 1	@ Tag_ABI_FP_exceptions
   6              		.eabi_attribute 23, 3	@ Tag_ABI_FP_number_model
   7              		.eabi_attribute 24, 1	@ Tag_ABI_align8_needed
   8              		.eabi_attribute 25, 1	@ Tag_ABI_align8_preserved
   9              		.eabi_attribute 26, 1	@ Tag_ABI_enum_size
  10              		.eabi_attribute 30, 4	@ Tag_ABI_optimization_goals
  11              		.eabi_attribute 34, 1	@ Tag_CPU_unaligned_access
  12              		.eabi_attribute 18, 4	@ Tag_ABI_PCS_wchar_t
  13              		.file	"main.c"
  14              	@ GNU C17 (GNU Arm Embedded Toolchain 10.3-2021.10) version 10.3.1 20210824 (release) (arm-none-eab
  15              	@	compiled by GNU C version 4.8.4, GMP version 6.1.0, MPFR version 3.1.4, MPC version 1.0.3, isl ve
  16              	
  17              	@ GGC heuristics: --param ggc-min-expand=100 --param ggc-min-heapsize=131072
  18              	@ options passed:  -I . -I ../5-TempR_LCD_Serial
  19              	@ -I ../stm32f10x_lib/CMSIS/CM3/CoreSupport
  20              	@ -I ../stm32f10x_lib/CMSIS/CM3/DeviceSupport/ST/STM32F10x
  21              	@ -I ../stm32f10x_lib/STM32F10x_StdPeriph_Driver/inc
  22              	@ -I ../stm32f10x_lib/STM32F10x_StdPeriph_Driver -I ../freertos/include
  23              	@ -I ../freertos/portable/GCC/ARM_CM3 -imultilib thumb/v7-m/nofp
  24              	@ -iprefix /usr/bin/../lib/gcc/arm-none-eabi/10.3.1/
  25              	@ -isysroot /usr/bin/../arm-none-eabi -D__USES_INITFINI__ -D STM32F10X_MD
  26              	@ -D USE_STDPERIPH_DRIVER -D HSE_VALUE=8000000 -D RUN_FROM_FLASH=1
  27              	@ ../5-TempR_LCD_Serial/main.c -mcpu=cortex-m3 -mthumb -mfloat-abi=soft
  28              	@ -mlibarch=armv7-m -march=armv7-m
  29              	@ -auxbase-strip ../5-TempR_LCD_Serial/main.o -g -gdwarf-2 -Os -Wall
  30              	@ -fomit-frame-pointer -fverbose-asm
  31              	@ options enabled:  -faggressive-loop-optimizations -fallocation-dce
  32              	@ -fauto-inc-dec -fbranch-count-reg -fcaller-saves -fcode-hoisting
  33              	@ -fcombine-stack-adjustments -fcompare-elim -fcprop-registers
  34              	@ -fcrossjumping -fcse-follow-jumps -fdefer-pop
  35              	@ -fdelete-null-pointer-checks -fdevirtualize -fdevirtualize-speculatively
  36              	@ -fdwarf2-cfi-asm -fearly-inlining -feliminate-unused-debug-symbols
  37              	@ -feliminate-unused-debug-types -fexpensive-optimizations
  38              	@ -fforward-propagate -ffp-int-builtin-inexact -ffunction-cse -fgcse
  39              	@ -fgcse-lm -fgnu-unique -fguess-branch-probability -fhoist-adjacent-loads
  40              	@ -fident -fif-conversion -fif-conversion2 -findirect-inlining -finline
  41              	@ -finline-atomics -finline-functions -finline-functions-called-once
  42              	@ -finline-small-functions -fipa-bit-cp -fipa-cp -fipa-icf
  43              	@ -fipa-icf-functions -fipa-icf-variables -fipa-profile -fipa-pure-const
  44              	@ -fipa-ra -fipa-reference -fipa-reference-addressable -fipa-sra
  45              	@ -fipa-stack-alignment -fipa-vrp -fira-hoist-pressure
  46              	@ -fira-share-save-slots -fira-share-spill-slots
  47              	@ -fisolate-erroneous-paths-dereference -fivopts -fkeep-static-consts
  48              	@ -fleading-underscore -flifetime-dse -flra-remat -fmath-errno
  49              	@ -fmerge-constants -fmerge-debug-strings -fmove-loop-invariants
  50              	@ -fomit-frame-pointer -foptimize-sibling-calls -fpartial-inlining
  51              	@ -fpeephole -fpeephole2 -fplt -fprefetch-loop-arrays -freg-struct-return
  52              	@ -freorder-blocks -freorder-functions -frerun-cse-after-loop
  53              	@ -fsched-critical-path-heuristic -fsched-dep-count-heuristic
  54              	@ -fsched-group-heuristic -fsched-interblock -fsched-last-insn-heuristic
  55              	@ -fsched-pressure -fsched-rank-heuristic -fsched-spec
  56              	@ -fsched-spec-insn-heuristic -fsched-stalled-insns-dep -fschedule-insns2
  57              	@ -fsection-anchors -fsemantic-interposition -fshow-column
ARM GAS  /tmp/ccZoGyG7.s 			page 2


  58              	@ -fshrink-wrap-separate -fsigned-zeros -fsplit-ivs-in-unroller
  59              	@ -fsplit-wide-types -fssa-backprop -fssa-phiopt -fstdarg-opt
  60              	@ -fstore-merging -fstrict-aliasing -fstrict-volatile-bitfields
  61              	@ -fsync-libcalls -fthread-jumps -ftoplevel-reorder -ftrapping-math
  62              	@ -ftree-bit-ccp -ftree-builtin-call-dce -ftree-ccp -ftree-ch
  63              	@ -ftree-coalesce-vars -ftree-copy-prop -ftree-cselim -ftree-dce
  64              	@ -ftree-dominator-opts -ftree-dse -ftree-forwprop -ftree-fre
  65              	@ -ftree-loop-distribute-patterns -ftree-loop-if-convert -ftree-loop-im
  66              	@ -ftree-loop-ivcanon -ftree-loop-optimize -ftree-parallelize-loops=
  67              	@ -ftree-phiprop -ftree-pre -ftree-pta -ftree-reassoc -ftree-scev-cprop
  68              	@ -ftree-sink -ftree-slsr -ftree-sra -ftree-switch-conversion
  69              	@ -ftree-tail-merge -ftree-ter -ftree-vrp -funit-at-a-time -fvar-tracking
  70              	@ -fvar-tracking-assignments -fverbose-asm -fzero-initialized-in-bss
  71              	@ -masm-syntax-unified -mbe32 -mfix-cortex-m3-ldrd -mlittle-endian
  72              	@ -mpic-data-is-text-relative -msched-prolog -mthumb -munaligned-access
  73              	@ -mvectorize-with-neon-quad
  74              	
  75              		.text
  76              	.Ltext0:
  77              		.cfi_sections	.debug_frame
  78              		.align	1
  79              		.syntax unified
  80              		.thumb
  81              		.thumb_func
  82              		.type	task2, %function
  83              	task2:
  84              	.LVL0:
  85              	.LFB46:
  86              		.file 1 "../5-TempR_LCD_Serial/main.c"
   1:../5-TempR_LCD_Serial/main.c **** /*
   2:../5-TempR_LCD_Serial/main.c ****  * Projeto LCD
   3:../5-TempR_LCD_Serial/main.c ****  *		Modificações necessárias: 
   4:../5-TempR_LCD_Serial/main.c ****  *		  FreeRTOSConfig:
   5:../5-TempR_LCD_Serial/main.c ****  *			 TICK_RATE_HZ definido em (100000)Hz -> 1µs
   6:../5-TempR_LCD_Serial/main.c ****  *
   7:../5-TempR_LCD_Serial/main.c ****  *	Clock do sistema: 
   8:../5-TempR_LCD_Serial/main.c ****  *		72Mhz
   9:../5-TempR_LCD_Serial/main.c ****  *	
  10:../5-TempR_LCD_Serial/main.c ****  *	Lib construída para Arduíno UNO:
  11:../5-TempR_LCD_Serial/main.c ****  *		myLcd.h
  12:../5-TempR_LCD_Serial/main.c ****  *			#define delayMicroseconds(X)   vTaskDelay(X)
  13:../5-TempR_LCD_Serial/main.c ****  *			#define delay(X)  vTaskDelay(X)
  14:../5-TempR_LCD_Serial/main.c ****  * */
  15:../5-TempR_LCD_Serial/main.c **** 
  16:../5-TempR_LCD_Serial/main.c **** // FreeRTOS: 
  17:../5-TempR_LCD_Serial/main.c **** 
  18:../5-TempR_LCD_Serial/main.c **** #include "FreeRTOS.h"
  19:../5-TempR_LCD_Serial/main.c **** #include "queue.h"
  20:../5-TempR_LCD_Serial/main.c **** #include "task.h"
  21:../5-TempR_LCD_Serial/main.c **** 
  22:../5-TempR_LCD_Serial/main.c **** #include <string.h>
  23:../5-TempR_LCD_Serial/main.c **** #include <stdlib.h>
  24:../5-TempR_LCD_Serial/main.c **** 
  25:../5-TempR_LCD_Serial/main.c **** #define __delay_ms( TEMPO ) vTaskDelay(pdMS_TO_TICKS( TEMPO ))
  26:../5-TempR_LCD_Serial/main.c **** #define __delay( TEMPO ) vTaskDelay( TEMPO )
  27:../5-TempR_LCD_Serial/main.c **** 
  28:../5-TempR_LCD_Serial/main.c **** #include "stm32f10x.h"
ARM GAS  /tmp/ccZoGyG7.s 			page 3


  29:../5-TempR_LCD_Serial/main.c **** #include "stm32f10x_tim.h"
  30:../5-TempR_LCD_Serial/main.c **** #include "Me.h"
  31:../5-TempR_LCD_Serial/main.c **** 
  32:../5-TempR_LCD_Serial/main.c **** // LCD 16x2
  33:../5-TempR_LCD_Serial/main.c **** #include "myLcd.h"
  34:../5-TempR_LCD_Serial/main.c **** #include "Serial.h"
  35:../5-TempR_LCD_Serial/main.c **** #include "adc.h"
  36:../5-TempR_LCD_Serial/main.c **** 
  37:../5-TempR_LCD_Serial/main.c **** #define BIN 2
  38:../5-TempR_LCD_Serial/main.c **** #define OCT 8
  39:../5-TempR_LCD_Serial/main.c **** #define DEC 10
  40:../5-TempR_LCD_Serial/main.c **** #define HEX 16
  41:../5-TempR_LCD_Serial/main.c **** 
  42:../5-TempR_LCD_Serial/main.c **** // Vadc * 3300 (mV) / 4096 (12 bits) 
  43:../5-TempR_LCD_Serial/main.c **** #define ADC_Const 0.8056
  44:../5-TempR_LCD_Serial/main.c **** 
  45:../5-TempR_LCD_Serial/main.c **** 
  46:../5-TempR_LCD_Serial/main.c **** void LCD16x2_init(){
  47:../5-TempR_LCD_Serial/main.c **** 
  48:../5-TempR_LCD_Serial/main.c **** 	RCC->APB2ENR |= (1<<2);
  49:../5-TempR_LCD_Serial/main.c **** 	GPIOA->CRL	 = 0x33333300; // Hab PA(2-7) out PP
  50:../5-TempR_LCD_Serial/main.c **** 
  51:../5-TempR_LCD_Serial/main.c **** 	set_bit(IO,RS);   set_bit(IO,RS);
  52:../5-TempR_LCD_Serial/main.c **** 	set_bit(IO,EN);   set_bit(IO,D4);
  53:../5-TempR_LCD_Serial/main.c **** 	set_bit(IO,D5);   set_bit(IO,D6);
  54:../5-TempR_LCD_Serial/main.c **** 	set_bit(IO,D7);   disp_init();
  55:../5-TempR_LCD_Serial/main.c **** 	disp_cmd(0x0C);
  56:../5-TempR_LCD_Serial/main.c **** 
  57:../5-TempR_LCD_Serial/main.c **** // Animação no visor:
  58:../5-TempR_LCD_Serial/main.c **** 	disp_text("----------------", 0 ,0);
  59:../5-TempR_LCD_Serial/main.c **** 	disp_text("0123456789abcdef", 1, 0);
  60:../5-TempR_LCD_Serial/main.c **** 
  61:../5-TempR_LCD_Serial/main.c **** 	for (u8 i=0 ; i<16 ; i++){
  62:../5-TempR_LCD_Serial/main.c **** 		__delay_ms(200);
  63:../5-TempR_LCD_Serial/main.c **** 		disp_text("X", 0 ,i);
  64:../5-TempR_LCD_Serial/main.c **** 		disp_text("#", 1 , 16 - i);
  65:../5-TempR_LCD_Serial/main.c **** 	}
  66:../5-TempR_LCD_Serial/main.c **** 	__delay_ms(500); 
  67:../5-TempR_LCD_Serial/main.c **** 	disp_clear();
  68:../5-TempR_LCD_Serial/main.c **** }
  69:../5-TempR_LCD_Serial/main.c **** 
  70:../5-TempR_LCD_Serial/main.c **** static QueueHandle_t LCD_Show_queue; 
  71:../5-TempR_LCD_Serial/main.c **** static void task1(void *args __attribute((unused))) {
  72:../5-TempR_LCD_Serial/main.c **** 
  73:../5-TempR_LCD_Serial/main.c **** 	/* [2---]
  74:../5-TempR_LCD_Serial/main.c **** 	 *
  75:../5-TempR_LCD_Serial/main.c **** 	 * Tarefa dedicada em mostrar informações no LCD 16x2.
  76:../5-TempR_LCD_Serial/main.c **** 	 * Informações de temperatura, ficando aberto para mais
  77:../5-TempR_LCD_Serial/main.c **** 	 * funcionalidades
  78:../5-TempR_LCD_Serial/main.c **** 	 * 
  79:../5-TempR_LCD_Serial/main.c **** 	 * */
  80:../5-TempR_LCD_Serial/main.c **** 
  81:../5-TempR_LCD_Serial/main.c **** 	LCD16x2_init();
  82:../5-TempR_LCD_Serial/main.c **** 	int msg_buf_rev;
  83:../5-TempR_LCD_Serial/main.c **** 
  84:../5-TempR_LCD_Serial/main.c **** 	while(1){
  85:../5-TempR_LCD_Serial/main.c **** 		xQueueReceive(LCD_Show_queue, &msg_buf_rev, pdMS_TO_TICKS(1));
ARM GAS  /tmp/ccZoGyG7.s 			page 4


  86:../5-TempR_LCD_Serial/main.c **** 
  87:../5-TempR_LCD_Serial/main.c **** 		disp_text("Temp (C): ", 0, 0);
  88:../5-TempR_LCD_Serial/main.c **** 		disp_number(msg_buf_rev * ADC_Const , 0,16-5);
  89:../5-TempR_LCD_Serial/main.c **** 
  90:../5-TempR_LCD_Serial/main.c **** 		__delay_ms(500);
  91:../5-TempR_LCD_Serial/main.c **** 	}
  92:../5-TempR_LCD_Serial/main.c **** }
  93:../5-TempR_LCD_Serial/main.c **** 
  94:../5-TempR_LCD_Serial/main.c **** static void task2(void *args __attribute ((unused))){
  87              		.loc 1 94 53 view -0
  88              		.cfi_startproc
  89              		@ Volatile: function does not return.
  90              		@ args = 0, pretend = 0, frame = 0
  91              		@ frame_needed = 0, uses_anonymous_args = 0
  95:../5-TempR_LCD_Serial/main.c **** 	RCC->APB2ENR |= (1<<4); // En GPIOC
  92              		.loc 1 95 2 view .LVU1
  93              	@ ../5-TempR_LCD_Serial/main.c:95: 	RCC->APB2ENR |= (1<<4); // En GPIOC
  94              		.loc 1 95 15 is_stmt 0 view .LVU2
  95 0000 094A     		ldr	r2, .L3	@ tmp120,
  96              	@ ../5-TempR_LCD_Serial/main.c:94: static void task2(void *args __attribute ((unused))){
  94:../5-TempR_LCD_Serial/main.c **** 	RCC->APB2ENR |= (1<<4); // En GPIOC
  97              		.loc 1 94 53 view .LVU3
  98 0002 08B5     		push	{r3, lr}	@
  99              	.LCFI0:
 100              		.cfi_def_cfa_offset 8
 101              		.cfi_offset 3, -8
 102              		.cfi_offset 14, -4
 103              	@ ../5-TempR_LCD_Serial/main.c:95: 	RCC->APB2ENR |= (1<<4); // En GPIOC
 104              		.loc 1 95 15 view .LVU4
 105 0004 9369     		ldr	r3, [r2, #24]	@ _1, MEM[(struct RCC_TypeDef *)1073876992B].APB2ENR
 106              	@ ../5-TempR_LCD_Serial/main.c:96: 	GPIOC->CRH	|= (0b11<< 20); // PC13 out PP 
  96:../5-TempR_LCD_Serial/main.c **** 	GPIOC->CRH	|= (0b11<< 20); // PC13 out PP 
 107              		.loc 1 96 13 view .LVU5
 108 0006 094C     		ldr	r4, .L3+4	@ tmp122,
 109              	@ ../5-TempR_LCD_Serial/main.c:95: 	RCC->APB2ENR |= (1<<4); // En GPIOC
  95:../5-TempR_LCD_Serial/main.c **** 	RCC->APB2ENR |= (1<<4); // En GPIOC
 110              		.loc 1 95 15 view .LVU6
 111 0008 43F01003 		orr	r3, r3, #16	@ _2, _1,
 112 000c 9361     		str	r3, [r2, #24]	@ _2, MEM[(struct RCC_TypeDef *)1073876992B].APB2ENR
 113              		.loc 1 96 2 is_stmt 1 view .LVU7
 114              	@ ../5-TempR_LCD_Serial/main.c:96: 	GPIOC->CRH	|= (0b11<< 20); // PC13 out PP 
 115              		.loc 1 96 13 is_stmt 0 view .LVU8
 116 000e 6368     		ldr	r3, [r4, #4]	@ _3, MEM[(struct GPIO_TypeDef *)1073811456B].CRH
 117 0010 43F44013 		orr	r3, r3, #3145728	@ _4, _3,
 118 0014 6360     		str	r3, [r4, #4]	@ _4, MEM[(struct GPIO_TypeDef *)1073811456B].CRH
 119              	.LVL1:
 120              	.L2:
  97:../5-TempR_LCD_Serial/main.c **** 
  98:../5-TempR_LCD_Serial/main.c **** 	while(1){
 121              		.loc 1 98 2 is_stmt 1 discriminator 1 view .LVU9
  99:../5-TempR_LCD_Serial/main.c **** 		GPIOC->ODR	^= (1<<13);
 122              		.loc 1 99 3 discriminator 1 view .LVU10
 123              	@ ../5-TempR_LCD_Serial/main.c:99: 		GPIOC->ODR	^= (1<<13);
 124              		.loc 1 99 14 is_stmt 0 discriminator 1 view .LVU11
 125 0016 E368     		ldr	r3, [r4, #12]	@ _5, MEM[(struct GPIO_TypeDef *)1073811456B].ODR
 126              	@ ../5-TempR_LCD_Serial/main.c:100: 		__delay_ms(50);
 100:../5-TempR_LCD_Serial/main.c **** 		__delay_ms(50);
ARM GAS  /tmp/ccZoGyG7.s 			page 5


 127              		.loc 1 100 3 discriminator 1 view .LVU12
 128 0018 41F28830 		movw	r0, #5000	@,
 129              	@ ../5-TempR_LCD_Serial/main.c:99: 		GPIOC->ODR	^= (1<<13);
  99:../5-TempR_LCD_Serial/main.c **** 		GPIOC->ODR	^= (1<<13);
 130              		.loc 1 99 14 discriminator 1 view .LVU13
 131 001c 83F40053 		eor	r3, r3, #8192	@ _6, _5,
 132 0020 E360     		str	r3, [r4, #12]	@ _6, MEM[(struct GPIO_TypeDef *)1073811456B].ODR
 133              		.loc 1 100 3 is_stmt 1 discriminator 1 view .LVU14
 134 0022 FFF7FEFF 		bl	vTaskDelay		@
 135              	.LVL2:
  98:../5-TempR_LCD_Serial/main.c **** 		GPIOC->ODR	^= (1<<13);
 136              		.loc 1 98 7 discriminator 1 view .LVU15
 137 0026 F6E7     		b	.L2		@
 138              	.L4:
 139              		.align	2
 140              	.L3:
 141 0028 00100240 		.word	1073876992
 142 002c 00100140 		.word	1073811456
 143              		.cfi_endproc
 144              	.LFE46:
 145              		.size	task2, .-task2
 146              		.align	1
 147              		.global	ADC1_configure
 148              		.syntax unified
 149              		.thumb
 150              		.thumb_func
 151              		.type	ADC1_configure, %function
 152              	ADC1_configure:
 153              	.LFB34:
 154              		.file 2 "../5-TempR_LCD_Serial/Me.h"
   1:../5-TempR_LCD_Serial/Me.h **** #define __IO volatile
   2:../5-TempR_LCD_Serial/Me.h **** 
   3:../5-TempR_LCD_Serial/Me.h **** void SystemInit (void);
   4:../5-TempR_LCD_Serial/Me.h **** void nvic_IntDisble(u8 IRQn);
   5:../5-TempR_LCD_Serial/Me.h **** void nvic_intEnable(u8 IRQn);
   6:../5-TempR_LCD_Serial/Me.h **** void set_system_clock_to_25Mhz (void);
   7:../5-TempR_LCD_Serial/Me.h **** void set_system_clock_to_72Mhz(void);
   8:../5-TempR_LCD_Serial/Me.h **** void Delay ( __IO u32 T );
   9:../5-TempR_LCD_Serial/Me.h **** void enable_TIM3_delay (void);
  10:../5-TempR_LCD_Serial/Me.h **** void ADC1_configure();
  11:../5-TempR_LCD_Serial/Me.h **** 
  12:../5-TempR_LCD_Serial/Me.h **** #define DelayUs(X) Delay(X)
  13:../5-TempR_LCD_Serial/Me.h **** 
  14:../5-TempR_LCD_Serial/Me.h **** void ADC1_configure(){
 155              		.loc 2 14 22 view -0
 156              		.cfi_startproc
 157              		@ args = 0, pretend = 0, frame = 0
 158              		@ frame_needed = 0, uses_anonymous_args = 0
 159              		@ link register save eliminated.
  15:../5-TempR_LCD_Serial/Me.h **** 	RCC->APB2ENR |= 1UL<<2 ; // Hab. GPIOA
 160              		.loc 2 15 2 view .LVU17
 161              	@ ../5-TempR_LCD_Serial/Me.h:15: 	RCC->APB2ENR |= 1UL<<2 ; // Hab. GPIOA
 162              		.loc 2 15 15 is_stmt 0 view .LVU18
 163 0030 1F4B     		ldr	r3, .L10	@ tmp141,
 164              	@ ../5-TempR_LCD_Serial/Me.h:16: 	GPIOA->CRL &= ~(0x0F << 4); // Define A1 Input Analogic
  16:../5-TempR_LCD_Serial/Me.h **** 	GPIOA->CRL &= ~(0x0F << 4); // Define A1 Input Analogic
 165              		.loc 2 16 13 view .LVU19
ARM GAS  /tmp/ccZoGyG7.s 			page 6


 166 0032 2049     		ldr	r1, .L10+4	@ tmp143,
 167              	@ ../5-TempR_LCD_Serial/Me.h:15: 	RCC->APB2ENR |= 1UL<<2 ; // Hab. GPIOA
  15:../5-TempR_LCD_Serial/Me.h **** 	RCC->APB2ENR |= 1UL<<2 ; // Hab. GPIOA
 168              		.loc 2 15 15 view .LVU20
 169 0034 9A69     		ldr	r2, [r3, #24]	@ _1, MEM[(struct RCC_TypeDef *)1073876992B].APB2ENR
 170 0036 42F00402 		orr	r2, r2, #4	@ _2, _1,
 171 003a 9A61     		str	r2, [r3, #24]	@ _2, MEM[(struct RCC_TypeDef *)1073876992B].APB2ENR
 172              		.loc 2 16 2 is_stmt 1 view .LVU21
 173              	@ ../5-TempR_LCD_Serial/Me.h:16: 	GPIOA->CRL &= ~(0x0F << 4); // Define A1 Input Analogic
 174              		.loc 2 16 13 is_stmt 0 view .LVU22
 175 003c 0A68     		ldr	r2, [r1]	@ _3, MEM[(struct GPIO_TypeDef *)1073809408B].CRL
 176 003e 22F0F002 		bic	r2, r2, #240	@ _4, _3,
 177 0042 0A60     		str	r2, [r1]	@ _4, MEM[(struct GPIO_TypeDef *)1073809408B].CRL
  17:../5-TempR_LCD_Serial/Me.h **** 	
  18:../5-TempR_LCD_Serial/Me.h **** 	RCC->APB2ENR |= (1<<9); // Bit 9 ADC1EN: ADC 1 
 178              		.loc 2 18 2 is_stmt 1 view .LVU23
 179              	@ ../5-TempR_LCD_Serial/Me.h:18: 	RCC->APB2ENR |= (1<<9); // Bit 9 ADC1EN: ADC 1 
 180              		.loc 2 18 15 is_stmt 0 view .LVU24
 181 0044 9A69     		ldr	r2, [r3, #24]	@ _5, MEM[(struct RCC_TypeDef *)1073876992B].APB2ENR
 182 0046 42F40072 		orr	r2, r2, #512	@ _6, _5,
 183 004a 9A61     		str	r2, [r3, #24]	@ _6, MEM[(struct RCC_TypeDef *)1073876992B].APB2ENR
  19:../5-TempR_LCD_Serial/Me.h **** 									// interface clock enable
  20:../5-TempR_LCD_Serial/Me.h **** 
  21:../5-TempR_LCD_Serial/Me.h **** 	RCC->CFGR	|= (0b10 << 14); // Bits 15:14 ADCPRE:
 184              		.loc 2 21 2 is_stmt 1 view .LVU25
 185              	@ ../5-TempR_LCD_Serial/Me.h:21: 	RCC->CFGR	|= (0b10 << 14); // Bits 15:14 ADCPRE:
 186              		.loc 2 21 12 is_stmt 0 view .LVU26
 187 004c 5A68     		ldr	r2, [r3, #4]	@ _7, MEM[(struct RCC_TypeDef *)1073876992B].CFGR
 188 004e 42F40042 		orr	r2, r2, #32768	@ _8, _7,
 189 0052 5A60     		str	r2, [r3, #4]	@ _8, MEM[(struct RCC_TypeDef *)1073876992B].CFGR
  22:../5-TempR_LCD_Serial/Me.h **** 										  // ADC prescaler 10:
  23:../5-TempR_LCD_Serial/Me.h **** 										  //    PCLK2 divided by 6
  24:../5-TempR_LCD_Serial/Me.h **** 	// Enable End of Conversion (EOC) interrupt
  25:../5-TempR_LCD_Serial/Me.h **** 	ADC1->CR1 |= (1 << 5);
 190              		.loc 2 25 2 is_stmt 1 view .LVU27
 191              	@ ../5-TempR_LCD_Serial/Me.h:25: 	ADC1->CR1 |= (1 << 5);
 192              		.loc 2 25 12 is_stmt 0 view .LVU28
 193 0054 A3F56C43 		sub	r3, r3, #60416	@ tmp149, tmp149,
 194 0058 5A68     		ldr	r2, [r3, #4]	@ _9, MEM[(struct ADC_TypeDef *)1073816576B].CR1
 195 005a 42F02002 		orr	r2, r2, #32	@ _10, _9,
 196 005e 5A60     		str	r2, [r3, #4]	@ _10, MEM[(struct ADC_TypeDef *)1073816576B].CR1
  26:../5-TempR_LCD_Serial/Me.h **** 
  27:../5-TempR_LCD_Serial/Me.h **** 	// One conversion
  28:../5-TempR_LCD_Serial/Me.h **** 	ADC1->SQR1 = 0x00000000;
 197              		.loc 2 28 2 is_stmt 1 view .LVU29
 198              	@ ../5-TempR_LCD_Serial/Me.h:28: 	ADC1->SQR1 = 0x00000000;
 199              		.loc 2 28 13 is_stmt 0 view .LVU30
 200 0060 0022     		movs	r2, #0	@ tmp152,
 201 0062 DA62     		str	r2, [r3, #44]	@ tmp152, MEM[(struct ADC_TypeDef *)1073816576B].SQR1
  29:../5-TempR_LCD_Serial/Me.h **** 
  30:../5-TempR_LCD_Serial/Me.h **** 	// Choose the analog channel to read
  31:../5-TempR_LCD_Serial/Me.h **** 	// Since we want channel 10 to be the first
  32:../5-TempR_LCD_Serial/Me.h **** 	//   conversion we write 10 to SQ1 bits (3:0)
  33:../5-TempR_LCD_Serial/Me.h **** 	//   which is in SQR3 register. For multiple conversions
  34:../5-TempR_LCD_Serial/Me.h **** 	//   keep writing the channel numbers to SQx bits.
  35:../5-TempR_LCD_Serial/Me.h **** 	 ADC1->SQR3 = (10 << 0);
 202              		.loc 2 35 3 is_stmt 1 view .LVU31
ARM GAS  /tmp/ccZoGyG7.s 			page 7


 203              	@ ../5-TempR_LCD_Serial/Me.h:35: 	 ADC1->SQR3 = (10 << 0);
 204              		.loc 2 35 14 is_stmt 0 view .LVU32
 205 0064 0A22     		movs	r2, #10	@ tmp154,
 206 0066 5A63     		str	r2, [r3, #52]	@ tmp154, MEM[(struct ADC_TypeDef *)1073816576B].SQR3
  36:../5-TempR_LCD_Serial/Me.h **** 
  37:../5-TempR_LCD_Serial/Me.h **** 	// Set up software trigger to start conversion
  38:../5-TempR_LCD_Serial/Me.h **** 	ADC1->CR2 |= (7 << 17);  // Select SWSTART as trigger
 207              		.loc 2 38 2 is_stmt 1 view .LVU33
 208              	@ ../5-TempR_LCD_Serial/Me.h:38: 	ADC1->CR2 |= (7 << 17);  // Select SWSTART as trigger
 209              		.loc 2 38 12 is_stmt 0 view .LVU34
 210 0068 9A68     		ldr	r2, [r3, #8]	@ _11, MEM[(struct ADC_TypeDef *)1073816576B].CR2
 211 006a 42F46022 		orr	r2, r2, #917504	@ _12, _11,
 212 006e 9A60     		str	r2, [r3, #8]	@ _12, MEM[(struct ADC_TypeDef *)1073816576B].CR2
  39:../5-TempR_LCD_Serial/Me.h **** 	ADC1->CR2 |= (1 << 20);  // Enable external trigger
 213              		.loc 2 39 2 is_stmt 1 view .LVU35
 214              	@ ../5-TempR_LCD_Serial/Me.h:39: 	ADC1->CR2 |= (1 << 20);  // Enable external trigger
 215              		.loc 2 39 12 is_stmt 0 view .LVU36
 216 0070 9A68     		ldr	r2, [r3, #8]	@ _13, MEM[(struct ADC_TypeDef *)1073816576B].CR2
 217 0072 42F48012 		orr	r2, r2, #1048576	@ _14, _13,
 218 0076 9A60     		str	r2, [r3, #8]	@ _14, MEM[(struct ADC_TypeDef *)1073816576B].CR2
  40:../5-TempR_LCD_Serial/Me.h **** 
  41:../5-TempR_LCD_Serial/Me.h **** 	// Enable continuous conversion
  42:../5-TempR_LCD_Serial/Me.h **** 	ADC1->CR2 |= (1 << 1);
 219              		.loc 2 42 2 is_stmt 1 view .LVU37
 220              	@ ../5-TempR_LCD_Serial/Me.h:42: 	ADC1->CR2 |= (1 << 1);
 221              		.loc 2 42 12 is_stmt 0 view .LVU38
 222 0078 9A68     		ldr	r2, [r3, #8]	@ _15, MEM[(struct ADC_TypeDef *)1073816576B].CR2
 223 007a 42F00202 		orr	r2, r2, #2	@ _16, _15,
 224 007e 9A60     		str	r2, [r3, #8]	@ _16, MEM[(struct ADC_TypeDef *)1073816576B].CR2
  43:../5-TempR_LCD_Serial/Me.h **** 
  44:../5-TempR_LCD_Serial/Me.h **** 	// enable_interrupt(ADC1_2_IRQn);
  45:../5-TempR_LCD_Serial/Me.h **** 
  46:../5-TempR_LCD_Serial/Me.h **** 	// Enable A/D conversion
  47:../5-TempR_LCD_Serial/Me.h **** 	ADC1->CR2 |= (1 << 0);
 225              		.loc 2 47 2 is_stmt 1 view .LVU39
 226              	@ ../5-TempR_LCD_Serial/Me.h:47: 	ADC1->CR2 |= (1 << 0);
 227              		.loc 2 47 12 is_stmt 0 view .LVU40
 228 0080 9A68     		ldr	r2, [r3, #8]	@ _17, MEM[(struct ADC_TypeDef *)1073816576B].CR2
 229 0082 42F00102 		orr	r2, r2, #1	@ _18, _17,
 230 0086 9A60     		str	r2, [r3, #8]	@ _18, MEM[(struct ADC_TypeDef *)1073816576B].CR2
  48:../5-TempR_LCD_Serial/Me.h **** 
  49:../5-TempR_LCD_Serial/Me.h **** 	// Calibration reset and start
  50:../5-TempR_LCD_Serial/Me.h **** 	//    Optional for better accuracy.
  51:../5-TempR_LCD_Serial/Me.h **** 	ADC1->CR2 |= (1 << 3);
 231              		.loc 2 51 2 is_stmt 1 view .LVU41
 232              	@ ../5-TempR_LCD_Serial/Me.h:51: 	ADC1->CR2 |= (1 << 3);
 233              		.loc 2 51 12 is_stmt 0 view .LVU42
 234 0088 9A68     		ldr	r2, [r3, #8]	@ _19, MEM[(struct ADC_TypeDef *)1073816576B].CR2
 235 008a 42F00802 		orr	r2, r2, #8	@ _20, _19,
 236 008e 9A60     		str	r2, [r3, #8]	@ _20, MEM[(struct ADC_TypeDef *)1073816576B].CR2
  52:../5-TempR_LCD_Serial/Me.h **** 	while((ADC1->CR2 & (1 << 3)));
 237              		.loc 2 52 2 is_stmt 1 view .LVU43
 238              	.L6:
 239              		.loc 2 52 31 discriminator 1 view .LVU44
 240              		.loc 2 52 7 discriminator 1 view .LVU45
 241              	@ ../5-TempR_LCD_Serial/Me.h:52: 	while((ADC1->CR2 & (1 << 3)));
 242              		.loc 2 52 13 is_stmt 0 discriminator 1 view .LVU46
ARM GAS  /tmp/ccZoGyG7.s 			page 8


 243 0090 9A68     		ldr	r2, [r3, #8]	@ _21, MEM[(struct ADC_TypeDef *)1073816576B].CR2
 244              	@ ../5-TempR_LCD_Serial/Me.h:52: 	while((ADC1->CR2 & (1 << 3)));
 245              		.loc 2 52 7 discriminator 1 view .LVU47
 246 0092 1107     		lsls	r1, r2, #28	@, _21,
 247 0094 FCD4     		bmi	.L6		@,
  53:../5-TempR_LCD_Serial/Me.h **** 	ADC1->CR2 |= (1 << 2);
 248              		.loc 2 53 2 is_stmt 1 view .LVU48
 249              	@ ../5-TempR_LCD_Serial/Me.h:53: 	ADC1->CR2 |= (1 << 2);
 250              		.loc 2 53 12 is_stmt 0 view .LVU49
 251 0096 9A68     		ldr	r2, [r3, #8]	@ _23, MEM[(struct ADC_TypeDef *)1073816576B].CR2
 252 0098 42F00402 		orr	r2, r2, #4	@ _24, _23,
 253 009c 9A60     		str	r2, [r3, #8]	@ _24, MEM[(struct ADC_TypeDef *)1073816576B].CR2
  54:../5-TempR_LCD_Serial/Me.h **** 	while((ADC1->CR2 & (1 << 2)));
 254              		.loc 2 54 2 is_stmt 1 view .LVU50
 255              	@ ../5-TempR_LCD_Serial/Me.h:54: 	while((ADC1->CR2 & (1 << 2)));
 256              		.loc 2 54 13 is_stmt 0 view .LVU51
 257 009e 064B     		ldr	r3, .L10+8	@ tmp169,
 258              	.L7:
 259              		.loc 2 54 31 is_stmt 1 discriminator 1 view .LVU52
 260              		.loc 2 54 7 discriminator 1 view .LVU53
 261              	@ ../5-TempR_LCD_Serial/Me.h:54: 	while((ADC1->CR2 & (1 << 2)));
 262              		.loc 2 54 13 is_stmt 0 discriminator 1 view .LVU54
 263 00a0 9A68     		ldr	r2, [r3, #8]	@ _25, MEM[(struct ADC_TypeDef *)1073816576B].CR2
 264              	@ ../5-TempR_LCD_Serial/Me.h:54: 	while((ADC1->CR2 & (1 << 2)));
 265              		.loc 2 54 7 discriminator 1 view .LVU55
 266 00a2 5207     		lsls	r2, r2, #29	@, _25,
 267 00a4 FCD4     		bmi	.L7		@,
  55:../5-TempR_LCD_Serial/Me.h **** 
  56:../5-TempR_LCD_Serial/Me.h **** 	// Start conversion with software trigger
  57:../5-TempR_LCD_Serial/Me.h **** 	ADC1->CR2 |= (1<<22);
 268              		.loc 2 57 2 is_stmt 1 view .LVU56
 269              	@ ../5-TempR_LCD_Serial/Me.h:57: 	ADC1->CR2 |= (1<<22);
 270              		.loc 2 57 12 is_stmt 0 view .LVU57
 271 00a6 9A68     		ldr	r2, [r3, #8]	@ _27, MEM[(struct ADC_TypeDef *)1073816576B].CR2
 272 00a8 42F48002 		orr	r2, r2, #4194304	@ _28, _27,
 273 00ac 9A60     		str	r2, [r3, #8]	@ _28, MEM[(struct ADC_TypeDef *)1073816576B].CR2
 274              	@ ../5-TempR_LCD_Serial/Me.h:60: }
  58:../5-TempR_LCD_Serial/Me.h **** 	//
  59:../5-TempR_LCD_Serial/Me.h **** 	// Leitura  ADC1->DR  -> Data Register
  60:../5-TempR_LCD_Serial/Me.h **** }
 275              		.loc 2 60 1 view .LVU58
 276 00ae 7047     		bx	lr	@
 277              	.L11:
 278              		.align	2
 279              	.L10:
 280 00b0 00100240 		.word	1073876992
 281 00b4 00080140 		.word	1073809408
 282 00b8 00240140 		.word	1073816576
 283              		.cfi_endproc
 284              	.LFE34:
 285              		.size	ADC1_configure, .-ADC1_configure
 286              		.align	1
 287              		.global	set_system_clock_to_72Mhz
 288              		.syntax unified
 289              		.thumb
 290              		.thumb_func
 291              		.type	set_system_clock_to_72Mhz, %function
ARM GAS  /tmp/ccZoGyG7.s 			page 9


 292              	set_system_clock_to_72Mhz:
 293              	.LFB35:
  61:../5-TempR_LCD_Serial/Me.h **** 
  62:../5-TempR_LCD_Serial/Me.h **** void set_system_clock_to_72Mhz(void)
  63:../5-TempR_LCD_Serial/Me.h **** {
 294              		.loc 2 63 1 is_stmt 1 view -0
 295              		.cfi_startproc
 296              		@ args = 0, pretend = 0, frame = 0
 297              		@ frame_needed = 0, uses_anonymous_args = 0
 298              		@ link register save eliminated.
  64:../5-TempR_LCD_Serial/Me.h ****    // Necessary wait states for Flash for high speeds
  65:../5-TempR_LCD_Serial/Me.h ****    FLASH->ACR = 0x12;
 299              		.loc 2 65 4 view .LVU60
 300              	@ ../5-TempR_LCD_Serial/Me.h:65:    FLASH->ACR = 0x12;
 301              		.loc 2 65 15 is_stmt 0 view .LVU61
 302 00bc 1222     		movs	r2, #18	@ tmp140,
 303 00be 1B4B     		ldr	r3, .L19	@ tmp139,
 304 00c0 1A60     		str	r2, [r3]	@ tmp140, MEM[(struct FLASH_TypeDef *)1073881088B].ACR
  66:../5-TempR_LCD_Serial/Me.h ****    // Enable HSE
  67:../5-TempR_LCD_Serial/Me.h ****    RCC->CR |= (1 << 16);
 305              		.loc 2 67 4 is_stmt 1 view .LVU62
 306              	@ ../5-TempR_LCD_Serial/Me.h:67:    RCC->CR |= (1 << 16);
 307              		.loc 2 67 12 is_stmt 0 view .LVU63
 308 00c2 A3F58053 		sub	r3, r3, #4096	@ tmp141, tmp141,
 309 00c6 1A68     		ldr	r2, [r3]	@ _1, MEM[(struct RCC_TypeDef *)1073876992B].CR
 310 00c8 42F48032 		orr	r2, r2, #65536	@ _2, _1,
 311 00cc 1A60     		str	r2, [r3]	@ _2, MEM[(struct RCC_TypeDef *)1073876992B].CR
  68:../5-TempR_LCD_Serial/Me.h ****    // Wait untill HSE settles down
  69:../5-TempR_LCD_Serial/Me.h ****    while (!(RCC->CR & (1 << 17)));
 312              		.loc 2 69 4 is_stmt 1 view .LVU64
 313              	.L13:
 314              		.loc 2 69 34 discriminator 1 view .LVU65
 315              		.loc 2 69 10 discriminator 1 view .LVU66
 316              	@ ../5-TempR_LCD_Serial/Me.h:69:    while (!(RCC->CR & (1 << 17)));
 317              		.loc 2 69 16 is_stmt 0 discriminator 1 view .LVU67
 318 00ce 1A68     		ldr	r2, [r3]	@ _3, MEM[(struct RCC_TypeDef *)1073876992B].CR
 319              	@ ../5-TempR_LCD_Serial/Me.h:69:    while (!(RCC->CR & (1 << 17)));
 320              		.loc 2 69 10 discriminator 1 view .LVU68
 321 00d0 9103     		lsls	r1, r2, #14	@, _3,
 322 00d2 FCD5     		bpl	.L13		@,
  70:../5-TempR_LCD_Serial/Me.h ****    // Set PREDIV2 division factor to 5
  71:../5-TempR_LCD_Serial/Me.h ****    RCC->CFGR2 |= (0b0100 << 4);
 323              		.loc 2 71 4 is_stmt 1 view .LVU69
 324              	@ ../5-TempR_LCD_Serial/Me.h:71:    RCC->CFGR2 |= (0b0100 << 4);
 325              		.loc 2 71 15 is_stmt 0 view .LVU70
 326 00d4 DA6A     		ldr	r2, [r3, #44]	@ _5, MEM[(struct RCC_TypeDef *)1073876992B].CFGR2
 327 00d6 42F04002 		orr	r2, r2, #64	@ _6, _5,
 328 00da DA62     		str	r2, [r3, #44]	@ _6, MEM[(struct RCC_TypeDef *)1073876992B].CFGR2
  72:../5-TempR_LCD_Serial/Me.h ****    // Set PLL2 multiplication factor to 8
  73:../5-TempR_LCD_Serial/Me.h ****    RCC->CFGR2 |= (0b0110 << 8);
 329              		.loc 2 73 4 is_stmt 1 view .LVU71
 330              	@ ../5-TempR_LCD_Serial/Me.h:73:    RCC->CFGR2 |= (0b0110 << 8);
 331              		.loc 2 73 15 is_stmt 0 view .LVU72
 332 00dc DA6A     		ldr	r2, [r3, #44]	@ _7, MEM[(struct RCC_TypeDef *)1073876992B].CFGR2
 333 00de 42F4C062 		orr	r2, r2, #1536	@ _8, _7,
 334 00e2 DA62     		str	r2, [r3, #44]	@ _8, MEM[(struct RCC_TypeDef *)1073876992B].CFGR2
  74:../5-TempR_LCD_Serial/Me.h ****    // Enable PLL2
ARM GAS  /tmp/ccZoGyG7.s 			page 10


  75:../5-TempR_LCD_Serial/Me.h ****    RCC->CR |= (1 << 26);
 335              		.loc 2 75 4 is_stmt 1 view .LVU73
 336              	@ ../5-TempR_LCD_Serial/Me.h:75:    RCC->CR |= (1 << 26);
 337              		.loc 2 75 12 is_stmt 0 view .LVU74
 338 00e4 1A68     		ldr	r2, [r3]	@ _9, MEM[(struct RCC_TypeDef *)1073876992B].CR
 339 00e6 42F08062 		orr	r2, r2, #67108864	@ _10, _9,
 340 00ea 1A60     		str	r2, [r3]	@ _10, MEM[(struct RCC_TypeDef *)1073876992B].CR
  76:../5-TempR_LCD_Serial/Me.h ****    // Wait untill PLL2 settles down
  77:../5-TempR_LCD_Serial/Me.h **** 	// while (!(RCC->CR & (1 << 27)));
  78:../5-TempR_LCD_Serial/Me.h ****    // Set PLL2 as PREDIV1 clock source
  79:../5-TempR_LCD_Serial/Me.h ****    RCC->CFGR2 |= (1 << 16);
 341              		.loc 2 79 4 is_stmt 1 view .LVU75
 342              	@ ../5-TempR_LCD_Serial/Me.h:79:    RCC->CFGR2 |= (1 << 16);
 343              		.loc 2 79 15 is_stmt 0 view .LVU76
 344 00ec DA6A     		ldr	r2, [r3, #44]	@ _11, MEM[(struct RCC_TypeDef *)1073876992B].CFGR2
 345 00ee 42F48032 		orr	r2, r2, #65536	@ _12, _11,
 346 00f2 DA62     		str	r2, [r3, #44]	@ _12, MEM[(struct RCC_TypeDef *)1073876992B].CFGR2
  80:../5-TempR_LCD_Serial/Me.h ****    // Set PREDIV1 division factor to 5
  81:../5-TempR_LCD_Serial/Me.h ****    RCC->CFGR2 |= (0b0100 << 0);
 347              		.loc 2 81 4 is_stmt 1 view .LVU77
 348              	@ ../5-TempR_LCD_Serial/Me.h:81:    RCC->CFGR2 |= (0b0100 << 0);
 349              		.loc 2 81 15 is_stmt 0 view .LVU78
 350 00f4 DA6A     		ldr	r2, [r3, #44]	@ _13, MEM[(struct RCC_TypeDef *)1073876992B].CFGR2
 351 00f6 42F00402 		orr	r2, r2, #4	@ _14, _13,
 352 00fa DA62     		str	r2, [r3, #44]	@ _14, MEM[(struct RCC_TypeDef *)1073876992B].CFGR2
  82:../5-TempR_LCD_Serial/Me.h ****    // Select Prediv1 as PLL source
  83:../5-TempR_LCD_Serial/Me.h ****    RCC->CFGR |= (1 << 16);
 353              		.loc 2 83 4 is_stmt 1 view .LVU79
 354              	@ ../5-TempR_LCD_Serial/Me.h:83:    RCC->CFGR |= (1 << 16);
 355              		.loc 2 83 14 is_stmt 0 view .LVU80
 356 00fc 5A68     		ldr	r2, [r3, #4]	@ _15, MEM[(struct RCC_TypeDef *)1073876992B].CFGR
 357 00fe 42F48032 		orr	r2, r2, #65536	@ _16, _15,
 358 0102 5A60     		str	r2, [r3, #4]	@ _16, MEM[(struct RCC_TypeDef *)1073876992B].CFGR
  84:../5-TempR_LCD_Serial/Me.h ****    // Set PLL1 multiplication factor to 9
  85:../5-TempR_LCD_Serial/Me.h ****    RCC->CFGR |= (0b0111 << 18);
 359              		.loc 2 85 4 is_stmt 1 view .LVU81
 360              	@ ../5-TempR_LCD_Serial/Me.h:85:    RCC->CFGR |= (0b0111 << 18);
 361              		.loc 2 85 14 is_stmt 0 view .LVU82
 362 0104 5A68     		ldr	r2, [r3, #4]	@ _17, MEM[(struct RCC_TypeDef *)1073876992B].CFGR
 363 0106 42F4E012 		orr	r2, r2, #1835008	@ _18, _17,
 364 010a 5A60     		str	r2, [r3, #4]	@ _18, MEM[(struct RCC_TypeDef *)1073876992B].CFGR
  86:../5-TempR_LCD_Serial/Me.h ****    // Set APB1 to 36MHz
  87:../5-TempR_LCD_Serial/Me.h ****    RCC->CFGR |= 1 << 10;
 365              		.loc 2 87 4 is_stmt 1 view .LVU83
 366              	@ ../5-TempR_LCD_Serial/Me.h:87:    RCC->CFGR |= 1 << 10;
 367              		.loc 2 87 14 is_stmt 0 view .LVU84
 368 010c 5A68     		ldr	r2, [r3, #4]	@ _19, MEM[(struct RCC_TypeDef *)1073876992B].CFGR
 369 010e 42F48062 		orr	r2, r2, #1024	@ _20, _19,
 370 0112 5A60     		str	r2, [r3, #4]	@ _20, MEM[(struct RCC_TypeDef *)1073876992B].CFGR
  88:../5-TempR_LCD_Serial/Me.h ****    // Enable PLL
  89:../5-TempR_LCD_Serial/Me.h ****    RCC->CR |= (1 << 24);
 371              		.loc 2 89 4 is_stmt 1 view .LVU85
 372              	@ ../5-TempR_LCD_Serial/Me.h:89:    RCC->CR |= (1 << 24);
 373              		.loc 2 89 12 is_stmt 0 view .LVU86
 374 0114 1A68     		ldr	r2, [r3]	@ _21, MEM[(struct RCC_TypeDef *)1073876992B].CR
 375 0116 42F08072 		orr	r2, r2, #16777216	@ _22, _21,
 376 011a 1A60     		str	r2, [r3]	@ _22, MEM[(struct RCC_TypeDef *)1073876992B].CR
ARM GAS  /tmp/ccZoGyG7.s 			page 11


  90:../5-TempR_LCD_Serial/Me.h ****    // Wait untill PLL settles down
  91:../5-TempR_LCD_Serial/Me.h ****    while (!(RCC->CR & (1 << 25)));
 377              		.loc 2 91 4 is_stmt 1 view .LVU87
 378              	.L14:
 379              		.loc 2 91 34 discriminator 1 view .LVU88
 380              		.loc 2 91 10 discriminator 1 view .LVU89
 381              	@ ../5-TempR_LCD_Serial/Me.h:91:    while (!(RCC->CR & (1 << 25)));
 382              		.loc 2 91 16 is_stmt 0 discriminator 1 view .LVU90
 383 011c 1A68     		ldr	r2, [r3]	@ _23, MEM[(struct RCC_TypeDef *)1073876992B].CR
 384              	@ ../5-TempR_LCD_Serial/Me.h:91:    while (!(RCC->CR & (1 << 25)));
 385              		.loc 2 91 10 discriminator 1 view .LVU91
 386 011e 9201     		lsls	r2, r2, #6	@, _23,
 387 0120 FCD5     		bpl	.L14		@,
  92:../5-TempR_LCD_Serial/Me.h ****    // Finally, choose PLL as the system clock
  93:../5-TempR_LCD_Serial/Me.h ****    RCC->CFGR |= (0b10 << 0);
 388              		.loc 2 93 4 is_stmt 1 view .LVU92
 389              	@ ../5-TempR_LCD_Serial/Me.h:93:    RCC->CFGR |= (0b10 << 0);
 390              		.loc 2 93 14 is_stmt 0 view .LVU93
 391 0122 5A68     		ldr	r2, [r3, #4]	@ _25, MEM[(struct RCC_TypeDef *)1073876992B].CFGR
 392 0124 42F00202 		orr	r2, r2, #2	@ _26, _25,
 393 0128 5A60     		str	r2, [r3, #4]	@ _26, MEM[(struct RCC_TypeDef *)1073876992B].CFGR
 394              	@ ../5-TempR_LCD_Serial/Me.h:94: } 
  94:../5-TempR_LCD_Serial/Me.h **** } 
 395              		.loc 2 94 1 view .LVU94
 396 012a 7047     		bx	lr	@
 397              	.L20:
 398              		.align	2
 399              	.L19:
 400 012c 00200240 		.word	1073881088
 401              		.cfi_endproc
 402              	.LFE35:
 403              		.size	set_system_clock_to_72Mhz, .-set_system_clock_to_72Mhz
 404              		.align	1
 405              		.global	Delay
 406              		.syntax unified
 407              		.thumb
 408              		.thumb_func
 409              		.type	Delay, %function
 410              	Delay:
 411              	.LVL3:
 412              	.LFB36:
  95:../5-TempR_LCD_Serial/Me.h **** 
  96:../5-TempR_LCD_Serial/Me.h **** void Delay ( __IO u32 T ) { // T=1 ;  868µs -> T=1 ~ 526µs
 413              		.loc 2 96 27 is_stmt 1 view -0
 414              		.cfi_startproc
 415              		@ args = 0, pretend = 0, frame = 8
 416              		@ frame_needed = 0, uses_anonymous_args = 0
 417              		@ link register save eliminated.
  97:../5-TempR_LCD_Serial/Me.h ****   for ( T ; T > 0 ; T-- ){
 418              		.loc 2 97 3 view .LVU96
 419              	@ ../5-TempR_LCD_Serial/Me.h:96: void Delay ( __IO u32 T ) { // T=1 ;  868µs -> T=1 ~ 526µs
  96:../5-TempR_LCD_Serial/Me.h ****   for ( T ; T > 0 ; T-- ){
 420              		.loc 2 96 27 is_stmt 0 view .LVU97
 421 0130 82B0     		sub	sp, sp, #8	@,,
 422              	.LCFI1:
 423              		.cfi_def_cfa_offset 8
 424              	@ ../5-TempR_LCD_Serial/Me.h:96: void Delay ( __IO u32 T ) { // T=1 ;  868µs -> T=1 ~ 526µs
ARM GAS  /tmp/ccZoGyG7.s 			page 12


  96:../5-TempR_LCD_Serial/Me.h ****   for ( T ; T > 0 ; T-- ){
 425              		.loc 2 96 27 view .LVU98
 426 0132 0190     		str	r0, [sp, #4]	@ T, T
 427              	@ ../5-TempR_LCD_Serial/Me.h:97:   for ( T ; T > 0 ; T-- ){
 428              		.loc 2 97 3 view .LVU99
 429 0134 019B     		ldr	r3, [sp, #4]	@ vol.0_9, T
 430              	@ ../5-TempR_LCD_Serial/Me.h:98:    TIM3->EGR |= ( 1 << 0 );
  98:../5-TempR_LCD_Serial/Me.h ****    TIM3->EGR |= ( 1 << 0 );
 431              		.loc 2 98 14 view .LVU100
 432 0136 094A     		ldr	r2, .L26	@ tmp132,
 433              	.L22:
  97:../5-TempR_LCD_Serial/Me.h ****   for ( T ; T > 0 ; T-- ){
 434              		.loc 2 97 13 is_stmt 1 discriminator 1 view .LVU101
 435              	@ ../5-TempR_LCD_Serial/Me.h:97:   for ( T ; T > 0 ; T-- ){
  97:../5-TempR_LCD_Serial/Me.h ****   for ( T ; T > 0 ; T-- ){
 436              		.loc 2 97 15 is_stmt 0 discriminator 1 view .LVU102
 437 0138 019B     		ldr	r3, [sp, #4]	@ T.2_6, T
 438              	@ ../5-TempR_LCD_Serial/Me.h:97:   for ( T ; T > 0 ; T-- ){
  97:../5-TempR_LCD_Serial/Me.h ****   for ( T ; T > 0 ; T-- ){
 439              		.loc 2 97 3 discriminator 1 view .LVU103
 440 013a 0BB9     		cbnz	r3, .L24	@ T.2_6,
 441              	@ ../5-TempR_LCD_Serial/Me.h:101: }
  99:../5-TempR_LCD_Serial/Me.h ****    while ( TIM3->CNT < 5 ) ; /* 5 * 10-- Configurar para IR */
 100:../5-TempR_LCD_Serial/Me.h ****   }
 101:../5-TempR_LCD_Serial/Me.h **** }
 442              		.loc 2 101 1 view .LVU104
 443 013c 02B0     		add	sp, sp, #8	@,,
 444              	.LCFI2:
 445              		.cfi_remember_state
 446              		.cfi_def_cfa_offset 0
 447              		@ sp needed	@
 448 013e 7047     		bx	lr	@
 449              	.L24:
 450              	.LCFI3:
 451              		.cfi_restore_state
  98:../5-TempR_LCD_Serial/Me.h ****    TIM3->EGR |= ( 1 << 0 );
 452              		.loc 2 98 4 is_stmt 1 view .LVU105
 453              	@ ../5-TempR_LCD_Serial/Me.h:98:    TIM3->EGR |= ( 1 << 0 );
  98:../5-TempR_LCD_Serial/Me.h ****    TIM3->EGR |= ( 1 << 0 );
 454              		.loc 2 98 14 is_stmt 0 view .LVU106
 455 0140 938A     		ldrh	r3, [r2, #20]	@, MEM[(struct TIM_TypeDef *)1073742848B].EGR
 456 0142 9BB2     		uxth	r3, r3	@ _1, MEM[(struct TIM_TypeDef *)1073742848B].EGR
 457 0144 43F00103 		orr	r3, r3, #1	@ _2, _1,
 458 0148 9382     		strh	r3, [r2, #20]	@ movhi	@ _2, MEM[(struct TIM_TypeDef *)1073742848B].EGR
  99:../5-TempR_LCD_Serial/Me.h ****    while ( TIM3->CNT < 5 ) ; /* 5 * 10-- Configurar para IR */
 459              		.loc 2 99 4 is_stmt 1 view .LVU107
 460              	.L23:
  99:../5-TempR_LCD_Serial/Me.h ****    while ( TIM3->CNT < 5 ) ; /* 5 * 10-- Configurar para IR */
 461              		.loc 2 99 28 discriminator 1 view .LVU108
  99:../5-TempR_LCD_Serial/Me.h ****    while ( TIM3->CNT < 5 ) ; /* 5 * 10-- Configurar para IR */
 462              		.loc 2 99 10 discriminator 1 view .LVU109
 463              	@ ../5-TempR_LCD_Serial/Me.h:99:    while ( TIM3->CNT < 5 ) ; /* 5 * 10-- Configurar para IR */
  99:../5-TempR_LCD_Serial/Me.h ****    while ( TIM3->CNT < 5 ) ; /* 5 * 10-- Configurar para IR */
 464              		.loc 2 99 16 is_stmt 0 discriminator 1 view .LVU110
 465 014a 938C     		ldrh	r3, [r2, #36]	@, MEM[(struct TIM_TypeDef *)1073742848B].CNT
 466 014c 9BB2     		uxth	r3, r3	@ _3, MEM[(struct TIM_TypeDef *)1073742848B].CNT
 467              	@ ../5-TempR_LCD_Serial/Me.h:99:    while ( TIM3->CNT < 5 ) ; /* 5 * 10-- Configurar para IR */
ARM GAS  /tmp/ccZoGyG7.s 			page 13


  99:../5-TempR_LCD_Serial/Me.h ****    while ( TIM3->CNT < 5 ) ; /* 5 * 10-- Configurar para IR */
 468              		.loc 2 99 10 discriminator 1 view .LVU111
 469 014e 042B     		cmp	r3, #4	@ _3,
 470 0150 FBD9     		bls	.L23		@,
  97:../5-TempR_LCD_Serial/Me.h ****    TIM3->EGR |= ( 1 << 0 );
 471              		.loc 2 97 21 is_stmt 1 discriminator 2 view .LVU112
 472              	@ ../5-TempR_LCD_Serial/Me.h:97:   for ( T ; T > 0 ; T-- ){
  97:../5-TempR_LCD_Serial/Me.h ****    TIM3->EGR |= ( 1 << 0 );
 473              		.loc 2 97 22 is_stmt 0 discriminator 2 view .LVU113
 474 0152 019B     		ldr	r3, [sp, #4]	@ T.1_4, T
 475 0154 013B     		subs	r3, r3, #1	@ _5, T.1_4,
 476 0156 0193     		str	r3, [sp, #4]	@ _5, T
 477 0158 EEE7     		b	.L22		@
 478              	.L27:
 479 015a 00BF     		.align	2
 480              	.L26:
 481 015c 00040040 		.word	1073742848
 482              		.cfi_endproc
 483              	.LFE36:
 484              		.size	Delay, .-Delay
 485              		.align	1
 486              		.global	enable_TIM3_delay
 487              		.syntax unified
 488              		.thumb
 489              		.thumb_func
 490              		.type	enable_TIM3_delay, %function
 491              	enable_TIM3_delay:
 492              	.LFB37:
 102:../5-TempR_LCD_Serial/Me.h **** 
 103:../5-TempR_LCD_Serial/Me.h **** void enable_TIM3_delay (void) {
 493              		.loc 2 103 31 is_stmt 1 view -0
 494              		.cfi_startproc
 495              		@ args = 0, pretend = 0, frame = 0
 496              		@ frame_needed = 0, uses_anonymous_args = 0
 497              		@ link register save eliminated.
 104:../5-TempR_LCD_Serial/Me.h ****    RCC->APB1ENR |= 1<<1 ;
 498              		.loc 2 104 4 view .LVU115
 499              	@ ../5-TempR_LCD_Serial/Me.h:104:    RCC->APB1ENR |= 1<<1 ;
 500              		.loc 2 104 17 is_stmt 0 view .LVU116
 501 0160 084A     		ldr	r2, .L29	@ tmp117,
 502 0162 D369     		ldr	r3, [r2, #28]	@ _1, MEM[(struct RCC_TypeDef *)1073876992B].APB1ENR
 503 0164 43F00203 		orr	r3, r3, #2	@ _2, _1,
 504 0168 D361     		str	r3, [r2, #28]	@ _2, MEM[(struct RCC_TypeDef *)1073876992B].APB1ENR
 105:../5-TempR_LCD_Serial/Me.h ****    TIM3->CR1 = 0x0000;
 505              		.loc 2 105 4 is_stmt 1 view .LVU117
 506              	@ ../5-TempR_LCD_Serial/Me.h:105:    TIM3->CR1 = 0x0000;
 507              		.loc 2 105 14 is_stmt 0 view .LVU118
 508 016a 0023     		movs	r3, #0	@ tmp121,
 509 016c A2F50332 		sub	r2, r2, #134144	@ tmp119, tmp119,
 510 0170 1380     		strh	r3, [r2]	@ movhi	@ tmp121, MEM[(struct TIM_TypeDef *)1073742848B].CR1
 106:../5-TempR_LCD_Serial/Me.h ****    //TIM3->ARR = 21699;
 107:../5-TempR_LCD_Serial/Me.h ****    // TIM3->ARR = 250-1; // 10µs
 108:../5-TempR_LCD_Serial/Me.h ****    TIM3->ARR = 720-1; // 10µs
 511              		.loc 2 108 4 is_stmt 1 view .LVU119
 512              	@ ../5-TempR_LCD_Serial/Me.h:108:    TIM3->ARR = 720-1; // 10µs
 513              		.loc 2 108 14 is_stmt 0 view .LVU120
 514 0172 40F2CF23 		movw	r3, #719	@ tmp124,
ARM GAS  /tmp/ccZoGyG7.s 			page 14


 515 0176 9385     		strh	r3, [r2, #44]	@ movhi	@ tmp124, MEM[(struct TIM_TypeDef *)1073742848B].ARR
 109:../5-TempR_LCD_Serial/Me.h ****    // para obter o período de 868µs
 110:../5-TempR_LCD_Serial/Me.h **** /*https://www.vishay.com/docs/80071/dataform.pdf PAG 2
 111:../5-TempR_LCD_Serial/Me.h ****  * https://controllerstech.com/ir-remote-with-stm32/
 112:../5-TempR_LCD_Serial/Me.h ****  * Per=(1+ARR)/Clock_system */
 113:../5-TempR_LCD_Serial/Me.h ****    TIM3->CR1 |= 1<<0;
 516              		.loc 2 113 4 is_stmt 1 view .LVU121
 517              	@ ../5-TempR_LCD_Serial/Me.h:113:    TIM3->CR1 |= 1<<0;
 518              		.loc 2 113 14 is_stmt 0 view .LVU122
 519 0178 1388     		ldrh	r3, [r2]	@, MEM[(struct TIM_TypeDef *)1073742848B].CR1
 520 017a 9BB2     		uxth	r3, r3	@ _3, MEM[(struct TIM_TypeDef *)1073742848B].CR1
 521 017c 43F00103 		orr	r3, r3, #1	@ _4, _3,
 522 0180 1380     		strh	r3, [r2]	@ movhi	@ _4, MEM[(struct TIM_TypeDef *)1073742848B].CR1
 523              	@ ../5-TempR_LCD_Serial/Me.h:114: }
 114:../5-TempR_LCD_Serial/Me.h **** }
 524              		.loc 2 114 1 view .LVU123
 525 0182 7047     		bx	lr	@
 526              	.L30:
 527              		.align	2
 528              	.L29:
 529 0184 00100240 		.word	1073876992
 530              		.cfi_endproc
 531              	.LFE37:
 532              		.size	enable_TIM3_delay, .-enable_TIM3_delay
 533              		.align	1
 534              		.global	enable_interrupt
 535              		.syntax unified
 536              		.thumb
 537              		.thumb_func
 538              		.type	enable_interrupt, %function
 539              	enable_interrupt:
 540              	.LVL4:
 541              	.LFB38:
 115:../5-TempR_LCD_Serial/Me.h **** 
 116:../5-TempR_LCD_Serial/Me.h **** void enable_interrupt(IRQn_Type IRQn)
 117:../5-TempR_LCD_Serial/Me.h **** {
 542              		.loc 2 117 1 is_stmt 1 view -0
 543              		.cfi_startproc
 544              		@ args = 0, pretend = 0, frame = 0
 545              		@ frame_needed = 0, uses_anonymous_args = 0
 546              		@ link register save eliminated.
 118:../5-TempR_LCD_Serial/Me.h ****    NVIC->ISER[((uint32_t)(IRQn) >> 5)] = (1 << ((uint32_t)(IRQn) & 0x1F));
 547              		.loc 2 118 4 view .LVU125
 548              	@ ../5-TempR_LCD_Serial/Me.h:118:    NVIC->ISER[((uint32_t)(IRQn) >> 5)] = (1 << ((uint32_t)(IRQn) 
 549              		.loc 2 118 45 is_stmt 0 view .LVU126
 550 0188 0123     		movs	r3, #1	@ tmp124,
 551              	@ ../5-TempR_LCD_Serial/Me.h:118:    NVIC->ISER[((uint32_t)(IRQn) >> 5)] = (1 << ((uint32_t)(IRQn) 
 552              		.loc 2 118 33 view .LVU127
 553 018a 4209     		lsrs	r2, r0, #5	@ _6, IRQn,
 554              	@ ../5-TempR_LCD_Serial/Me.h:118:    NVIC->ISER[((uint32_t)(IRQn) >> 5)] = (1 << ((uint32_t)(IRQn) 
 555              		.loc 2 118 66 view .LVU128
 556 018c 00F01F00 		and	r0, r0, #31	@ tmp123, IRQn,
 557              	.LVL5:
 558              	@ ../5-TempR_LCD_Serial/Me.h:118:    NVIC->ISER[((uint32_t)(IRQn) >> 5)] = (1 << ((uint32_t)(IRQn) 
 559              		.loc 2 118 45 view .LVU129
 560 0190 03FA00F0 		lsl	r0, r3, r0	@ _7, tmp124, tmp123
 561              	@ ../5-TempR_LCD_Serial/Me.h:118:    NVIC->ISER[((uint32_t)(IRQn) >> 5)] = (1 << ((uint32_t)(IRQn) 
ARM GAS  /tmp/ccZoGyG7.s 			page 15


 562              		.loc 2 118 40 view .LVU130
 563 0194 014B     		ldr	r3, .L32	@ tmp125,
 564 0196 43F82200 		str	r0, [r3, r2, lsl #2]	@ _7, MEM[(struct NVIC_Type *)3758153984B].ISER[_6]
 565              	@ ../5-TempR_LCD_Serial/Me.h:119: }  
 119:../5-TempR_LCD_Serial/Me.h **** }  
 566              		.loc 2 119 1 view .LVU131
 567 019a 7047     		bx	lr	@
 568              	.L33:
 569              		.align	2
 570              	.L32:
 571 019c 00E100E0 		.word	-536813312
 572              		.cfi_endproc
 573              	.LFE38:
 574              		.size	enable_interrupt, .-enable_interrupt
 575              		.align	1
 576              		.global	disable_interrupt
 577              		.syntax unified
 578              		.thumb
 579              		.thumb_func
 580              		.type	disable_interrupt, %function
 581              	disable_interrupt:
 582              	.LVL6:
 583              	.LFB39:
 120:../5-TempR_LCD_Serial/Me.h ****    
 121:../5-TempR_LCD_Serial/Me.h **** /* 
 122:../5-TempR_LCD_Serial/Me.h ****  * Disable given interrupt
 123:../5-TempR_LCD_Serial/Me.h ****  */
 124:../5-TempR_LCD_Serial/Me.h **** void disable_interrupt(IRQn_Type IRQn)
 125:../5-TempR_LCD_Serial/Me.h **** {
 584              		.loc 2 125 1 is_stmt 1 view -0
 585              		.cfi_startproc
 586              		@ args = 0, pretend = 0, frame = 0
 587              		@ frame_needed = 0, uses_anonymous_args = 0
 588              		@ link register save eliminated.
 126:../5-TempR_LCD_Serial/Me.h ****    NVIC->ICER[((uint32_t)(IRQn) >> 5)] = (1 << ((uint32_t)(IRQn) & 0x1F));
 589              		.loc 2 126 4 view .LVU133
 590              	@ ../5-TempR_LCD_Serial/Me.h:126:    NVIC->ICER[((uint32_t)(IRQn) >> 5)] = (1 << ((uint32_t)(IRQn) 
 591              		.loc 2 126 45 is_stmt 0 view .LVU134
 592 01a0 0122     		movs	r2, #1	@ tmp124,
 593              	@ ../5-TempR_LCD_Serial/Me.h:126:    NVIC->ICER[((uint32_t)(IRQn) >> 5)] = (1 << ((uint32_t)(IRQn) 
 594              		.loc 2 126 33 view .LVU135
 595 01a2 4309     		lsrs	r3, r0, #5	@ _6, IRQn,
 596              	@ ../5-TempR_LCD_Serial/Me.h:126:    NVIC->ICER[((uint32_t)(IRQn) >> 5)] = (1 << ((uint32_t)(IRQn) 
 597              		.loc 2 126 66 view .LVU136
 598 01a4 00F01F00 		and	r0, r0, #31	@ tmp123, IRQn,
 599              	.LVL7:
 600              	@ ../5-TempR_LCD_Serial/Me.h:126:    NVIC->ICER[((uint32_t)(IRQn) >> 5)] = (1 << ((uint32_t)(IRQn) 
 601              		.loc 2 126 45 view .LVU137
 602 01a8 02FA00F0 		lsl	r0, r2, r0	@ _7, tmp124, tmp123
 603              	@ ../5-TempR_LCD_Serial/Me.h:126:    NVIC->ICER[((uint32_t)(IRQn) >> 5)] = (1 << ((uint32_t)(IRQn) 
 604              		.loc 2 126 40 view .LVU138
 605 01ac 024A     		ldr	r2, .L35	@ tmp125,
 606 01ae 2033     		adds	r3, r3, #32	@ tmp126, _6,
 607 01b0 42F82300 		str	r0, [r2, r3, lsl #2]	@ _7, MEM[(struct NVIC_Type *)3758153984B].ICER[_6]
 608              	@ ../5-TempR_LCD_Serial/Me.h:127: }
 127:../5-TempR_LCD_Serial/Me.h **** }
 609              		.loc 2 127 1 view .LVU139
ARM GAS  /tmp/ccZoGyG7.s 			page 16


 610 01b4 7047     		bx	lr	@
 611              	.L36:
 612 01b6 00BF     		.align	2
 613              	.L35:
 614 01b8 00E100E0 		.word	-536813312
 615              		.cfi_endproc
 616              	.LFE39:
 617              		.size	disable_interrupt, .-disable_interrupt
 618              		.align	1
 619              		.global	USART_init
 620              		.syntax unified
 621              		.thumb
 622              		.thumb_func
 623              		.type	USART_init, %function
 624              	USART_init:
 625              	.LFB40:
 626              		.file 3 "../5-TempR_LCD_Serial/Serial.h"
   1:../5-TempR_LCD_Serial/Serial.h **** // #ifndef	SERIAL_K
   2:../5-TempR_LCD_Serial/Serial.h **** // #define 	SERIAL_K
   3:../5-TempR_LCD_Serial/Serial.h **** 
   4:../5-TempR_LCD_Serial/Serial.h **** void USARTSend(char *pucBuffer);
   5:../5-TempR_LCD_Serial/Serial.h **** void USART_init(void);
   6:../5-TempR_LCD_Serial/Serial.h **** 
   7:../5-TempR_LCD_Serial/Serial.h **** void USART_init(void) {
 627              		.loc 3 7 23 is_stmt 1 view -0
 628              		.cfi_startproc
 629              		@ args = 0, pretend = 0, frame = 24
 630              		@ frame_needed = 0, uses_anonymous_args = 0
   8:../5-TempR_LCD_Serial/Serial.h ****    /* Enable USART1 and GPIOA clock */
   9:../5-TempR_LCD_Serial/Serial.h ****    RCC_APB2PeriphClockCmd(RCC_APB2Periph_USART1 | RCC_APB2Periph_GPIOA, ENABLE);
 631              		.loc 3 9 4 view .LVU141
 632              	@ ../5-TempR_LCD_Serial/Serial.h:7: void USART_init(void) {
   7:../5-TempR_LCD_Serial/Serial.h ****    /* Enable USART1 and GPIOA clock */
 633              		.loc 3 7 23 is_stmt 0 view .LVU142
 634 01bc 10B5     		push	{r4, lr}	@
 635              	.LCFI4:
 636              		.cfi_def_cfa_offset 8
 637              		.cfi_offset 4, -8
 638              		.cfi_offset 14, -4
 639              	@ ../5-TempR_LCD_Serial/Serial.h:9:    RCC_APB2PeriphClockCmd(RCC_APB2Periph_USART1 | RCC_APB2Perip
 640              		.loc 3 9 4 view .LVU143
 641 01be 0121     		movs	r1, #1	@,
 642              	@ ../5-TempR_LCD_Serial/Serial.h:7: void USART_init(void) {
   7:../5-TempR_LCD_Serial/Serial.h ****    /* Enable USART1 and GPIOA clock */
 643              		.loc 3 7 23 view .LVU144
 644 01c0 86B0     		sub	sp, sp, #24	@,,
 645              	.LCFI5:
 646              		.cfi_def_cfa_offset 32
 647              	@ ../5-TempR_LCD_Serial/Serial.h:9:    RCC_APB2PeriphClockCmd(RCC_APB2Periph_USART1 | RCC_APB2Perip
 648              		.loc 3 9 4 view .LVU145
 649 01c2 44F20400 		movw	r0, #16388	@,
 650 01c6 FFF7FEFF 		bl	RCC_APB2PeriphClockCmd		@
 651              	.LVL8:
  10:../5-TempR_LCD_Serial/Serial.h **** 
  11:../5-TempR_LCD_Serial/Serial.h ****    /* Configure the GPIOs */
  12:../5-TempR_LCD_Serial/Serial.h ****    GPIO_InitTypeDef GPIO_InitStructure;
 652              		.loc 3 12 4 is_stmt 1 view .LVU146
ARM GAS  /tmp/ccZoGyG7.s 			page 17


  13:../5-TempR_LCD_Serial/Serial.h **** 
  14:../5-TempR_LCD_Serial/Serial.h ****    /* Configure USART1 Tx (PA.09) as alternate function push-pull */
  15:../5-TempR_LCD_Serial/Serial.h ****    GPIO_InitStructure.GPIO_Pin = GPIO_Pin_9;
 653              		.loc 3 15 4 view .LVU147
  16:../5-TempR_LCD_Serial/Serial.h ****    GPIO_InitStructure.GPIO_Mode = GPIO_Mode_AF_PP;
 654              		.loc 3 16 4 view .LVU148
  17:../5-TempR_LCD_Serial/Serial.h ****    GPIO_InitStructure.GPIO_Speed = GPIO_Speed_50MHz;
 655              		.loc 3 17 4 view .LVU149
 656              	@ ../5-TempR_LCD_Serial/Serial.h:15:    GPIO_InitStructure.GPIO_Pin = GPIO_Pin_9;
  15:../5-TempR_LCD_Serial/Serial.h ****    GPIO_InitStructure.GPIO_Mode = GPIO_Mode_AF_PP;
 657              		.loc 3 15 32 is_stmt 0 view .LVU150
 658 01ca 4FF40073 		mov	r3, #512	@ tmp114,
 659 01ce ADF80430 		strh	r3, [sp, #4]	@ movhi	@ tmp114, GPIO_InitStructure.GPIO_Pin
 660              	@ ../5-TempR_LCD_Serial/Serial.h:17:    GPIO_InitStructure.GPIO_Speed = GPIO_Speed_50MHz;
 661              		.loc 3 17 34 view .LVU151
 662 01d2 41F60303 		movw	r3, #6147	@ tmp116,
 663              	@ ../5-TempR_LCD_Serial/Serial.h:18:    GPIO_Init(GPIOA, &GPIO_InitStructure);
  18:../5-TempR_LCD_Serial/Serial.h ****    GPIO_Init(GPIOA, &GPIO_InitStructure);
 664              		.loc 3 18 4 view .LVU152
 665 01d6 144C     		ldr	r4, .L38	@ tmp118,
 666 01d8 01A9     		add	r1, sp, #4	@ tmp134,,
 667 01da 2046     		mov	r0, r4	@, tmp118
 668              	@ ../5-TempR_LCD_Serial/Serial.h:17:    GPIO_InitStructure.GPIO_Speed = GPIO_Speed_50MHz;
  17:../5-TempR_LCD_Serial/Serial.h ****    GPIO_InitStructure.GPIO_Speed = GPIO_Speed_50MHz;
 669              		.loc 3 17 34 view .LVU153
 670 01dc ADF80630 		strh	r3, [sp, #6]	@ movhi	@ tmp116, MEM <unsigned short> [(void *)&GPIO_InitStructure + 2B]
 671              		.loc 3 18 4 is_stmt 1 view .LVU154
 672 01e0 FFF7FEFF 		bl	GPIO_Init		@
 673              	.LVL9:
  19:../5-TempR_LCD_Serial/Serial.h **** 
  20:../5-TempR_LCD_Serial/Serial.h ****    /* Configure USART1 Rx (PA.10) as input floating */
  21:../5-TempR_LCD_Serial/Serial.h ****    GPIO_InitStructure.GPIO_Pin = GPIO_Pin_10;
 674              		.loc 3 21 4 view .LVU155
 675              	@ ../5-TempR_LCD_Serial/Serial.h:21:    GPIO_InitStructure.GPIO_Pin = GPIO_Pin_10;
 676              		.loc 3 21 32 is_stmt 0 view .LVU156
 677 01e4 4FF48063 		mov	r3, #1024	@ tmp120,
 678 01e8 ADF80430 		strh	r3, [sp, #4]	@ movhi	@ tmp120, GPIO_InitStructure.GPIO_Pin
  22:../5-TempR_LCD_Serial/Serial.h ****    GPIO_InitStructure.GPIO_Mode = GPIO_Mode_IN_FLOATING;
 679              		.loc 3 22 4 is_stmt 1 view .LVU157
 680              	@ ../5-TempR_LCD_Serial/Serial.h:22:    GPIO_InitStructure.GPIO_Mode = GPIO_Mode_IN_FLOATING;
 681              		.loc 3 22 33 is_stmt 0 view .LVU158
 682 01ec 0423     		movs	r3, #4	@ tmp121,
 683              	@ ../5-TempR_LCD_Serial/Serial.h:23:    GPIO_Init(GPIOA, &GPIO_InitStructure);
  23:../5-TempR_LCD_Serial/Serial.h ****    GPIO_Init(GPIOA, &GPIO_InitStructure);
 684              		.loc 3 23 4 view .LVU159
 685 01ee 2046     		mov	r0, r4	@, tmp118
 686 01f0 0DEB0301 		add	r1, sp, r3	@ tmp135,,
 687              	@ ../5-TempR_LCD_Serial/Serial.h:22:    GPIO_InitStructure.GPIO_Mode = GPIO_Mode_IN_FLOATING;
  22:../5-TempR_LCD_Serial/Serial.h ****    GPIO_InitStructure.GPIO_Mode = GPIO_Mode_IN_FLOATING;
 688              		.loc 3 22 33 view .LVU160
 689 01f4 8DF80730 		strb	r3, [sp, #7]	@ tmp121, GPIO_InitStructure.GPIO_Mode
 690              		.loc 3 23 4 is_stmt 1 view .LVU161
 691 01f8 FFF7FEFF 		bl	GPIO_Init		@
 692              	.LVL10:
  24:../5-TempR_LCD_Serial/Serial.h **** 
  25:../5-TempR_LCD_Serial/Serial.h ****    /* Configure the USART1 */
  26:../5-TempR_LCD_Serial/Serial.h ****    USART_InitTypeDef USART_InitStructure;
ARM GAS  /tmp/ccZoGyG7.s 			page 18


 693              		.loc 3 26 4 view .LVU162
  27:../5-TempR_LCD_Serial/Serial.h ****    USART_InitStructure.USART_BaudRate = 115200;
 694              		.loc 3 27 4 view .LVU163
  28:../5-TempR_LCD_Serial/Serial.h ****    USART_InitStructure.USART_WordLength = USART_WordLength_8b;
 695              		.loc 3 28 4 view .LVU164
  29:../5-TempR_LCD_Serial/Serial.h ****    USART_InitStructure.USART_StopBits = USART_StopBits_1;
 696              		.loc 3 29 4 view .LVU165
  30:../5-TempR_LCD_Serial/Serial.h ****    USART_InitStructure.USART_Parity = USART_Parity_No;
 697              		.loc 3 30 4 view .LVU166
  31:../5-TempR_LCD_Serial/Serial.h ****    USART_InitStructure.USART_HardwareFlowControl = USART_HardwareFlowControl_None;
 698              		.loc 3 31 4 view .LVU167
  32:../5-TempR_LCD_Serial/Serial.h ****    USART_InitStructure.USART_Mode = USART_Mode_Rx | USART_Mode_Tx;
 699              		.loc 3 32 4 view .LVU168
 700              	@ ../5-TempR_LCD_Serial/Serial.h:28:    USART_InitStructure.USART_WordLength = USART_WordLength_8b;
  28:../5-TempR_LCD_Serial/Serial.h ****    USART_InitStructure.USART_StopBits = USART_StopBits_1;
 701              		.loc 3 28 41 is_stmt 0 view .LVU169
 702 01fc 0023     		movs	r3, #0	@ tmp126,
 703 01fe 4FF4E132 		mov	r2, #115200	@,
 704 0202 CDE90223 		strd	r2, r3, [sp, #8]	@, tmp126,,
 705              	@ ../5-TempR_LCD_Serial/Serial.h:30:    USART_InitStructure.USART_Parity = USART_Parity_No;
  30:../5-TempR_LCD_Serial/Serial.h ****    USART_InitStructure.USART_HardwareFlowControl = USART_HardwareFlowControl_None;
 706              		.loc 3 30 37 view .LVU170
 707 0206 4FF44022 		mov	r2, #786432	@ tmp127,
 708              	@ ../5-TempR_LCD_Serial/Serial.h:34:    USART_Init(USART1, &USART_InitStructure);
  33:../5-TempR_LCD_Serial/Serial.h **** 
  34:../5-TempR_LCD_Serial/Serial.h ****    USART_Init(USART1, &USART_InitStructure);
 709              		.loc 3 34 4 view .LVU171
 710 020a 04F54054 		add	r4, r4, #12288	@ tmp131, tmp131,
 711 020e 2046     		mov	r0, r4	@, tmp131
 712 0210 02A9     		add	r1, sp, #8	@,,
 713              	@ ../5-TempR_LCD_Serial/Serial.h:30:    USART_InitStructure.USART_Parity = USART_Parity_No;
  30:../5-TempR_LCD_Serial/Serial.h ****    USART_InitStructure.USART_HardwareFlowControl = USART_HardwareFlowControl_None;
 714              		.loc 3 30 37 view .LVU172
 715 0212 0492     		str	r2, [sp, #16]	@ tmp127, MEM <unsigned int> [(short unsigned int *)&USART_InitStructure + 8B]
 716              	@ ../5-TempR_LCD_Serial/Serial.h:31:    USART_InitStructure.USART_HardwareFlowControl = USART_Hardw
  31:../5-TempR_LCD_Serial/Serial.h ****    USART_InitStructure.USART_Mode = USART_Mode_Rx | USART_Mode_Tx;
 717              		.loc 3 31 50 view .LVU173
 718 0214 ADF81430 		strh	r3, [sp, #20]	@ movhi	@ tmp126, USART_InitStructure.USART_HardwareFlowControl
 719              		.loc 3 34 4 is_stmt 1 view .LVU174
 720 0218 FFF7FEFF 		bl	USART_Init		@
 721              	.LVL11:
  35:../5-TempR_LCD_Serial/Serial.h **** 
  36:../5-TempR_LCD_Serial/Serial.h ****    /* Enable USART1 */
  37:../5-TempR_LCD_Serial/Serial.h ****    USART_Cmd(USART1, ENABLE);
 722              		.loc 3 37 4 view .LVU175
 723 021c 0121     		movs	r1, #1	@,
 724 021e 2046     		mov	r0, r4	@, tmp131
 725 0220 FFF7FEFF 		bl	USART_Cmd		@
 726              	.LVL12:
 727              	@ ../5-TempR_LCD_Serial/Serial.h:38: }
  38:../5-TempR_LCD_Serial/Serial.h **** }
 728              		.loc 3 38 1 is_stmt 0 view .LVU176
 729 0224 06B0     		add	sp, sp, #24	@,,
 730              	.LCFI6:
 731              		.cfi_def_cfa_offset 8
 732              		@ sp needed	@
 733 0226 10BD     		pop	{r4, pc}	@
ARM GAS  /tmp/ccZoGyG7.s 			page 19


 734              	.L39:
 735              		.align	2
 736              	.L38:
 737 0228 00080140 		.word	1073809408
 738              		.cfi_endproc
 739              	.LFE40:
 740              		.size	USART_init, .-USART_init
 741              		.align	1
 742              		.global	USARTSend
 743              		.syntax unified
 744              		.thumb
 745              		.thumb_func
 746              		.type	USARTSend, %function
 747              	USARTSend:
 748              	.LVL13:
 749              	.LFB41:
  39:../5-TempR_LCD_Serial/Serial.h **** 
  40:../5-TempR_LCD_Serial/Serial.h **** void USARTSend(char *pucBuffer) {
 750              		.loc 3 40 33 is_stmt 1 view -0
 751              		.cfi_startproc
 752              		@ args = 0, pretend = 0, frame = 0
 753              		@ frame_needed = 0, uses_anonymous_args = 0
  41:../5-TempR_LCD_Serial/Serial.h ****     while (*pucBuffer)
 754              		.loc 3 41 5 view .LVU178
 755              	@ ../5-TempR_LCD_Serial/Serial.h:40: void USARTSend(char *pucBuffer) {
  40:../5-TempR_LCD_Serial/Serial.h ****     while (*pucBuffer)
 756              		.loc 3 40 33 is_stmt 0 view .LVU179
 757 022c 38B5     		push	{r3, r4, r5, lr}	@
 758              	.LCFI7:
 759              		.cfi_def_cfa_offset 16
 760              		.cfi_offset 3, -16
 761              		.cfi_offset 4, -12
 762              		.cfi_offset 5, -8
 763              		.cfi_offset 14, -4
 764              	@ ../5-TempR_LCD_Serial/Serial.h:43:         USART_SendData(USART1, *pucBuffer++);
  42:../5-TempR_LCD_Serial/Serial.h ****     {
  43:../5-TempR_LCD_Serial/Serial.h ****         USART_SendData(USART1, *pucBuffer++);
 765              		.loc 3 43 9 view .LVU180
 766 022e 084D     		ldr	r5, .L46	@ tmp126,
 767 0230 441E     		subs	r4, r0, #1	@ ivtmp.54, tmp128,
 768              	.LVL14:
 769              	.L41:
  41:../5-TempR_LCD_Serial/Serial.h ****     {
 770              		.loc 3 41 11 is_stmt 1 view .LVU181
 771              	@ ../5-TempR_LCD_Serial/Serial.h:41:     while (*pucBuffer)
  41:../5-TempR_LCD_Serial/Serial.h ****     {
 772              		.loc 3 41 12 is_stmt 0 view .LVU182
 773 0232 14F8011F 		ldrb	r1, [r4, #1]!	@ zero_extendqisi2	@ _3, MEM[base: _16, offset: 0B]
 774              	.LVL15:
 775              	@ ../5-TempR_LCD_Serial/Serial.h:41:     while (*pucBuffer)
  41:../5-TempR_LCD_Serial/Serial.h ****     {
 776              		.loc 3 41 11 view .LVU183
 777 0236 01B9     		cbnz	r1, .L43	@ _3,
 778              	@ ../5-TempR_LCD_Serial/Serial.h:48: }
  44:../5-TempR_LCD_Serial/Serial.h ****         while(USART_GetFlagStatus(USART1, USART_FLAG_TC) == RESET)
  45:../5-TempR_LCD_Serial/Serial.h ****         {
  46:../5-TempR_LCD_Serial/Serial.h ****         }
ARM GAS  /tmp/ccZoGyG7.s 			page 20


  47:../5-TempR_LCD_Serial/Serial.h ****     }
  48:../5-TempR_LCD_Serial/Serial.h **** }
 779              		.loc 3 48 1 view .LVU184
 780 0238 38BD     		pop	{r3, r4, r5, pc}	@
 781              	.LVL16:
 782              	.L43:
  43:../5-TempR_LCD_Serial/Serial.h ****         while(USART_GetFlagStatus(USART1, USART_FLAG_TC) == RESET)
 783              		.loc 3 43 9 is_stmt 1 view .LVU185
  43:../5-TempR_LCD_Serial/Serial.h ****         while(USART_GetFlagStatus(USART1, USART_FLAG_TC) == RESET)
 784              		.loc 3 43 9 is_stmt 0 view .LVU186
 785 023a 2846     		mov	r0, r5	@, tmp126
 786 023c FFF7FEFF 		bl	USART_SendData		@
 787              	.LVL17:
  44:../5-TempR_LCD_Serial/Serial.h ****         while(USART_GetFlagStatus(USART1, USART_FLAG_TC) == RESET)
 788              		.loc 3 44 9 is_stmt 1 view .LVU187
 789              	.L42:
  46:../5-TempR_LCD_Serial/Serial.h ****     }
 790              		.loc 3 46 9 discriminator 1 view .LVU188
  44:../5-TempR_LCD_Serial/Serial.h ****         while(USART_GetFlagStatus(USART1, USART_FLAG_TC) == RESET)
 791              		.loc 3 44 14 discriminator 1 view .LVU189
 792              	@ ../5-TempR_LCD_Serial/Serial.h:44:         while(USART_GetFlagStatus(USART1, USART_FLAG_TC) == RE
  44:../5-TempR_LCD_Serial/Serial.h ****         while(USART_GetFlagStatus(USART1, USART_FLAG_TC) == RESET)
 793              		.loc 3 44 15 is_stmt 0 discriminator 1 view .LVU190
 794 0240 4021     		movs	r1, #64	@,
 795 0242 2846     		mov	r0, r5	@, tmp126
 796 0244 FFF7FEFF 		bl	USART_GetFlagStatus		@
 797              	.LVL18:
 798              	@ ../5-TempR_LCD_Serial/Serial.h:44:         while(USART_GetFlagStatus(USART1, USART_FLAG_TC) == RE
  44:../5-TempR_LCD_Serial/Serial.h ****         while(USART_GetFlagStatus(USART1, USART_FLAG_TC) == RESET)
 799              		.loc 3 44 14 discriminator 1 view .LVU191
 800 0248 0028     		cmp	r0, #0	@ tmp129
 801 024a F9D0     		beq	.L42	@
 802 024c F1E7     		b	.L41		@
 803              	.L47:
 804 024e 00BF     		.align	2
 805              	.L46:
 806 0250 00380140 		.word	1073821696
 807              		.cfi_endproc
 808              	.LFE41:
 809              		.size	USARTSend, .-USARTSend
 810              		.align	1
 811              		.global	ADC9_Configuration
 812              		.syntax unified
 813              		.thumb
 814              		.thumb_func
 815              		.type	ADC9_Configuration, %function
 816              	ADC9_Configuration:
 817              	.LFB42:
 818              		.file 4 "../5-TempR_LCD_Serial/adc.h"
   1:../5-TempR_LCD_Serial/adc.h **** 
   2:../5-TempR_LCD_Serial/adc.h **** void ADC9_Configuration()
   3:../5-TempR_LCD_Serial/adc.h **** {
 819              		.loc 4 3 1 is_stmt 1 view -0
 820              		.cfi_startproc
 821              		@ args = 0, pretend = 0, frame = 0
 822              		@ frame_needed = 0, uses_anonymous_args = 0
 823              		@ link register save eliminated.
ARM GAS  /tmp/ccZoGyG7.s 			page 21


   4:../5-TempR_LCD_Serial/adc.h ****     // Habilitar o clock do ADC9
   5:../5-TempR_LCD_Serial/adc.h ****     RCC->APB2ENR |= RCC_APB2ENR_ADC2EN;
 824              		.loc 4 5 5 view .LVU193
 825              	@ ../5-TempR_LCD_Serial/adc.h:5:     RCC->APB2ENR |= RCC_APB2ENR_ADC2EN;
 826              		.loc 4 5 18 is_stmt 0 view .LVU194
 827 0254 174B     		ldr	r3, .L51	@ tmp135,
 828 0256 9A69     		ldr	r2, [r3, #24]	@ _1, MEM[(struct RCC_TypeDef *)1073876992B].APB2ENR
 829 0258 42F48062 		orr	r2, r2, #1024	@ _2, _1,
 830 025c 9A61     		str	r2, [r3, #24]	@ _2, MEM[(struct RCC_TypeDef *)1073876992B].APB2ENR
   6:../5-TempR_LCD_Serial/adc.h ****     RCC->APB2ENR |= (1<<3);
 831              		.loc 4 6 5 is_stmt 1 view .LVU195
 832              	@ ../5-TempR_LCD_Serial/adc.h:6:     RCC->APB2ENR |= (1<<3);
 833              		.loc 4 6 18 is_stmt 0 view .LVU196
 834 025e 9A69     		ldr	r2, [r3, #24]	@ _3, MEM[(struct RCC_TypeDef *)1073876992B].APB2ENR
 835 0260 42F00802 		orr	r2, r2, #8	@ _4, _3,
 836 0264 9A61     		str	r2, [r3, #24]	@ _4, MEM[(struct RCC_TypeDef *)1073876992B].APB2ENR
   7:../5-TempR_LCD_Serial/adc.h **** 
   8:../5-TempR_LCD_Serial/adc.h ****     // Configurar o pino PB1 como entrada analógica
   9:../5-TempR_LCD_Serial/adc.h ****     GPIOB->CRL &= ~(GPIO_CRL_MODE1 | GPIO_CRL_CNF1);
 837              		.loc 4 9 5 is_stmt 1 view .LVU197
 838              	@ ../5-TempR_LCD_Serial/adc.h:9:     GPIOB->CRL &= ~(GPIO_CRL_MODE1 | GPIO_CRL_CNF1);
 839              		.loc 4 9 16 is_stmt 0 view .LVU198
 840 0266 144A     		ldr	r2, .L51+4	@ tmp139,
 841 0268 1368     		ldr	r3, [r2]	@ _5, MEM[(struct GPIO_TypeDef *)1073810432B].CRL
 842 026a 23F0F003 		bic	r3, r3, #240	@ _6, _5,
 843 026e 1360     		str	r3, [r2]	@ _6, MEM[(struct GPIO_TypeDef *)1073810432B].CRL
  10:../5-TempR_LCD_Serial/adc.h ****     // GPIOB->CRL |= GPIO_CRL_CNF1_0;
  11:../5-TempR_LCD_Serial/adc.h **** 
  12:../5-TempR_LCD_Serial/adc.h ****     // Configurar as seguintes opções para o ADC9:
  13:../5-TempR_LCD_Serial/adc.h ****     // - Modo de operação: modo independente
  14:../5-TempR_LCD_Serial/adc.h ****     // - Modo de conversão: Contínua
  15:../5-TempR_LCD_Serial/adc.h ****     // - Resolução: 12 bits
  16:../5-TempR_LCD_Serial/adc.h ****     // - Fator de divisão do clock: 4 (seleciona um clock ADC de 14 MHz)
  17:../5-TempR_LCD_Serial/adc.h ****     ADC2->CR1 &= ~(ADC_CR1_DISCEN | ADC_CR1_SCAN);
 844              		.loc 4 17 5 is_stmt 1 view .LVU199
 845              	@ ../5-TempR_LCD_Serial/adc.h:17:     ADC2->CR1 &= ~(ADC_CR1_DISCEN | ADC_CR1_SCAN);
 846              		.loc 4 17 15 is_stmt 0 view .LVU200
 847 0270 124B     		ldr	r3, .L51+8	@ tmp141,
 848 0272 5A68     		ldr	r2, [r3, #4]	@ _7, MEM[(struct ADC_TypeDef *)1073817600B].CR1
 849 0274 22F41062 		bic	r2, r2, #2304	@ _8, _7,
 850 0278 5A60     		str	r2, [r3, #4]	@ _8, MEM[(struct ADC_TypeDef *)1073817600B].CR1
  18:../5-TempR_LCD_Serial/adc.h ****     ADC2->CR1 |= ADC_CR1_EOCIE;
 851              		.loc 4 18 5 is_stmt 1 view .LVU201
 852              	@ ../5-TempR_LCD_Serial/adc.h:18:     ADC2->CR1 |= ADC_CR1_EOCIE;
 853              		.loc 4 18 15 is_stmt 0 view .LVU202
 854 027a 5A68     		ldr	r2, [r3, #4]	@ _9, MEM[(struct ADC_TypeDef *)1073817600B].CR1
 855 027c 42F02002 		orr	r2, r2, #32	@ _10, _9,
 856 0280 5A60     		str	r2, [r3, #4]	@ _10, MEM[(struct ADC_TypeDef *)1073817600B].CR1
  19:../5-TempR_LCD_Serial/adc.h ****     ADC2->CR2 &= ~(ADC_CR2_CONT | ADC_CR2_ALIGN | ADC_CR2_EXTSEL | ADC_CR2_EXTTRIG);
 857              		.loc 4 19 5 is_stmt 1 view .LVU203
 858              	@ ../5-TempR_LCD_Serial/adc.h:19:     ADC2->CR2 &= ~(ADC_CR2_CONT | ADC_CR2_ALIGN | ADC_CR2_EXTSEL 
 859              		.loc 4 19 15 is_stmt 0 view .LVU204
 860 0282 9968     		ldr	r1, [r3, #8]	@ _11, MEM[(struct ADC_TypeDef *)1073817600B].CR2
 861 0284 0E4A     		ldr	r2, .L51+12	@ _12,
 862 0286 0A40     		ands	r2, r2, r1	@, _12, _12, _11
 863 0288 9A60     		str	r2, [r3, #8]	@ _12, MEM[(struct ADC_TypeDef *)1073817600B].CR2
  20:../5-TempR_LCD_Serial/adc.h **** 
ARM GAS  /tmp/ccZoGyG7.s 			page 22


  21:../5-TempR_LCD_Serial/adc.h ****     ADC2->CR2 |= ADC_CR2_ADON | ADC_CR2_CONT | ADC_CR2_RSTCAL;
 864              		.loc 4 21 5 is_stmt 1 view .LVU205
 865              	@ ../5-TempR_LCD_Serial/adc.h:21:     ADC2->CR2 |= ADC_CR2_ADON | ADC_CR2_CONT | ADC_CR2_RSTCAL;
 866              		.loc 4 21 15 is_stmt 0 view .LVU206
 867 028a 9A68     		ldr	r2, [r3, #8]	@ _13, MEM[(struct ADC_TypeDef *)1073817600B].CR2
 868 028c 42F00B02 		orr	r2, r2, #11	@ _14, _13,
 869 0290 9A60     		str	r2, [r3, #8]	@ _14, MEM[(struct ADC_TypeDef *)1073817600B].CR2
  22:../5-TempR_LCD_Serial/adc.h **** 
  23:../5-TempR_LCD_Serial/adc.h ****     ADC2->SMPR2 |= ADC_SMPR2_SMP9_0 | ADC_SMPR2_SMP9_1;
 870              		.loc 4 23 5 is_stmt 1 view .LVU207
 871              	@ ../5-TempR_LCD_Serial/adc.h:23:     ADC2->SMPR2 |= ADC_SMPR2_SMP9_0 | ADC_SMPR2_SMP9_1;
 872              		.loc 4 23 17 is_stmt 0 view .LVU208
 873 0292 1A69     		ldr	r2, [r3, #16]	@ _15, MEM[(struct ADC_TypeDef *)1073817600B].SMPR2
 874 0294 42F0C052 		orr	r2, r2, #402653184	@ _16, _15,
 875 0298 1A61     		str	r2, [r3, #16]	@ _16, MEM[(struct ADC_TypeDef *)1073817600B].SMPR2
  24:../5-TempR_LCD_Serial/adc.h ****     ADC2->SQR3 |= 9;
 876              		.loc 4 24 5 is_stmt 1 view .LVU209
 877              	@ ../5-TempR_LCD_Serial/adc.h:24:     ADC2->SQR3 |= 9;
 878              		.loc 4 24 16 is_stmt 0 view .LVU210
 879 029a 5A6B     		ldr	r2, [r3, #52]	@ _17, MEM[(struct ADC_TypeDef *)1073817600B].SQR3
 880 029c 42F00902 		orr	r2, r2, #9	@ _18, _17,
 881 02a0 5A63     		str	r2, [r3, #52]	@ _18, MEM[(struct ADC_TypeDef *)1073817600B].SQR3
  25:../5-TempR_LCD_Serial/adc.h **** 
  26:../5-TempR_LCD_Serial/adc.h **** 	while(ADC2->CR2 & ADC_CR2_RSTCAL);
 882              		.loc 4 26 2 is_stmt 1 view .LVU211
 883              	.L49:
 884              		.loc 4 26 35 discriminator 1 view .LVU212
 885              		.loc 4 26 7 discriminator 1 view .LVU213
 886              	@ ../5-TempR_LCD_Serial/adc.h:26: 	while(ADC2->CR2 & ADC_CR2_RSTCAL);
 887              		.loc 4 26 12 is_stmt 0 discriminator 1 view .LVU214
 888 02a2 9A68     		ldr	r2, [r3, #8]	@ _19, MEM[(struct ADC_TypeDef *)1073817600B].CR2
 889              	@ ../5-TempR_LCD_Serial/adc.h:26: 	while(ADC2->CR2 & ADC_CR2_RSTCAL);
 890              		.loc 4 26 7 discriminator 1 view .LVU215
 891 02a4 1207     		lsls	r2, r2, #28	@, _19,
 892 02a6 FCD4     		bmi	.L49		@,
  27:../5-TempR_LCD_Serial/adc.h **** 
  28:../5-TempR_LCD_Serial/adc.h ****     // Habilitar o ADC9
  29:../5-TempR_LCD_Serial/adc.h ****     ADC2->CR2 |= ADC_CR2_ADON;
 893              		.loc 4 29 5 is_stmt 1 view .LVU216
 894              	@ ../5-TempR_LCD_Serial/adc.h:29:     ADC2->CR2 |= ADC_CR2_ADON;
 895              		.loc 4 29 15 is_stmt 0 view .LVU217
 896 02a8 9A68     		ldr	r2, [r3, #8]	@ _21, MEM[(struct ADC_TypeDef *)1073817600B].CR2
 897 02aa 42F00102 		orr	r2, r2, #1	@ _22, _21,
 898 02ae 9A60     		str	r2, [r3, #8]	@ _22, MEM[(struct ADC_TypeDef *)1073817600B].CR2
 899              	@ ../5-TempR_LCD_Serial/adc.h:30: }
  30:../5-TempR_LCD_Serial/adc.h **** }
 900              		.loc 4 30 1 view .LVU218
 901 02b0 7047     		bx	lr	@
 902              	.L52:
 903 02b2 00BF     		.align	2
 904              	.L51:
 905 02b4 00100240 		.word	1073876992
 906 02b8 000C0140 		.word	1073810432
 907 02bc 00280140 		.word	1073817600
 908 02c0 FDF7E1FF 		.word	-1968131
 909              		.cfi_endproc
 910              	.LFE42:
ARM GAS  /tmp/ccZoGyG7.s 			page 23


 911              		.size	ADC9_Configuration, .-ADC9_Configuration
 912              		.align	1
 913              		.global	task3
 914              		.syntax unified
 915              		.thumb
 916              		.thumb_func
 917              		.type	task3, %function
 918              	task3:
 919              	.LVL19:
 920              	.LFB47:
 101:../5-TempR_LCD_Serial/main.c **** 	}
 102:../5-TempR_LCD_Serial/main.c **** }
 103:../5-TempR_LCD_Serial/main.c **** 
 104:../5-TempR_LCD_Serial/main.c **** 
 105:../5-TempR_LCD_Serial/main.c ****  void task3(void *args __attribute ((unused))){
 921              		.loc 1 105 47 is_stmt 1 view -0
 922              		.cfi_startproc
 923              		@ Volatile: function does not return.
 924              		@ args = 0, pretend = 0, frame = 8
 925              		@ frame_needed = 0, uses_anonymous_args = 0
 106:../5-TempR_LCD_Serial/main.c **** 	/* [1---]
 107:../5-TempR_LCD_Serial/main.c **** 	 *
 108:../5-TempR_LCD_Serial/main.c **** 	 * Tarefa dedicada a leitura do sensor de temperatura
 109:../5-TempR_LCD_Serial/main.c **** 	 * usando ADC9 -> PB1
 110:../5-TempR_LCD_Serial/main.c **** 	 *
 111:../5-TempR_LCD_Serial/main.c **** 	 * O valor amostrado deve ser transmitido a cada 500ms
 112:../5-TempR_LCD_Serial/main.c **** 	 * usando área de memória compartilhada. -> [2---]
 113:../5-TempR_LCD_Serial/main.c **** 	 *
 114:../5-TempR_LCD_Serial/main.c **** 	 * */
 115:../5-TempR_LCD_Serial/main.c **** 
 116:../5-TempR_LCD_Serial/main.c **** 	ADC9_Configuration();
 926              		.loc 1 116 2 view .LVU220
 927              	@ ../5-TempR_LCD_Serial/main.c:105:  void task3(void *args __attribute ((unused))){
 105:../5-TempR_LCD_Serial/main.c **** 	/* [1---]
 928              		.loc 1 105 47 is_stmt 0 view .LVU221
 929 02c4 07B5     		push	{r0, r1, r2, lr}	@
 930              	.LCFI8:
 931              		.cfi_def_cfa_offset 16
 932              		.cfi_offset 14, -4
 933              	@ ../5-TempR_LCD_Serial/main.c:116: 	ADC9_Configuration();
 934              		.loc 1 116 2 view .LVU222
 935 02c6 FFF7FEFF 		bl	ADC9_Configuration		@
 936              	.LVL20:
 937              	@ ../5-TempR_LCD_Serial/main.c:121: 		Valor_ADC_normalizado = ADC2->DR;
 117:../5-TempR_LCD_Serial/main.c **** 	u32 Valor_ADC_normalizado; 
 118:../5-TempR_LCD_Serial/main.c **** 
 119:../5-TempR_LCD_Serial/main.c **** 	while(1){
 120:../5-TempR_LCD_Serial/main.c **** 
 121:../5-TempR_LCD_Serial/main.c **** 		Valor_ADC_normalizado = ADC2->DR;
 938              		.loc 1 121 31 view .LVU223
 939 02ca 074D     		ldr	r5, .L55	@ tmp116,
 940              	@ ../5-TempR_LCD_Serial/main.c:123: 		xQueueSend(LCD_Show_queue, &Valor_ADC_normalizado, 0);
 122:../5-TempR_LCD_Serial/main.c **** 
 123:../5-TempR_LCD_Serial/main.c **** 		xQueueSend(LCD_Show_queue, &Valor_ADC_normalizado, 0);
 941              		.loc 1 123 3 view .LVU224
 942 02cc 074C     		ldr	r4, .L55+4	@ tmp118,
 943              	.LVL21:
ARM GAS  /tmp/ccZoGyG7.s 			page 24


 944              	.L54:
 117:../5-TempR_LCD_Serial/main.c **** 	u32 Valor_ADC_normalizado; 
 945              		.loc 1 117 2 is_stmt 1 discriminator 1 view .LVU225
 119:../5-TempR_LCD_Serial/main.c **** 
 946              		.loc 1 119 2 discriminator 1 view .LVU226
 121:../5-TempR_LCD_Serial/main.c **** 
 947              		.loc 1 121 3 discriminator 1 view .LVU227
 948              	@ ../5-TempR_LCD_Serial/main.c:121: 		Valor_ADC_normalizado = ADC2->DR;
 121:../5-TempR_LCD_Serial/main.c **** 
 949              		.loc 1 121 31 is_stmt 0 discriminator 1 view .LVU228
 950 02ce EB6C     		ldr	r3, [r5, #76]	@ _1, MEM[(struct ADC_TypeDef *)1073817600B].DR
 951              	@ ../5-TempR_LCD_Serial/main.c:123: 		xQueueSend(LCD_Show_queue, &Valor_ADC_normalizado, 0);
 952              		.loc 1 123 3 discriminator 1 view .LVU229
 953 02d0 2068     		ldr	r0, [r4]	@, LCD_Show_queue
 954              	@ ../5-TempR_LCD_Serial/main.c:121: 		Valor_ADC_normalizado = ADC2->DR;
 121:../5-TempR_LCD_Serial/main.c **** 
 955              		.loc 1 121 25 discriminator 1 view .LVU230
 956 02d2 0193     		str	r3, [sp, #4]	@ _1, Valor_ADC_normalizado
 957              		.loc 1 123 3 is_stmt 1 discriminator 1 view .LVU231
 958 02d4 0023     		movs	r3, #0	@,
 959 02d6 01A9     		add	r1, sp, #4	@ tmp120,,
 960 02d8 1A46     		mov	r2, r3	@,
 961 02da FFF7FEFF 		bl	xQueueGenericSend		@
 962              	.LVL22:
 124:../5-TempR_LCD_Serial/main.c **** 		__delay_ms(500);
 963              		.loc 1 124 3 discriminator 1 view .LVU232
 964 02de 4CF25030 		movw	r0, #50000	@,
 965 02e2 FFF7FEFF 		bl	vTaskDelay		@
 966              	.LVL23:
 119:../5-TempR_LCD_Serial/main.c **** 
 967              		.loc 1 119 7 discriminator 1 view .LVU233
 968 02e6 F2E7     		b	.L54		@
 969              	.L56:
 970              		.align	2
 971              	.L55:
 972 02e8 00280140 		.word	1073817600
 973 02ec 00000000 		.word	.LANCHOR0
 974              		.cfi_endproc
 975              	.LFE47:
 976              		.size	task3, .-task3
 977              		.align	1
 978              		.global	ADC9_GetValue
 979              		.syntax unified
 980              		.thumb
 981              		.thumb_func
 982              		.type	ADC9_GetValue, %function
 983              	ADC9_GetValue:
 984              	.LFB43:
  31:../5-TempR_LCD_Serial/adc.h **** 
  32:../5-TempR_LCD_Serial/adc.h **** uint16_t ADC9_GetValue()
  33:../5-TempR_LCD_Serial/adc.h **** {
 985              		.loc 4 33 1 view -0
 986              		.cfi_startproc
 987              		@ args = 0, pretend = 0, frame = 0
 988              		@ frame_needed = 0, uses_anonymous_args = 0
 989              		@ link register save eliminated.
  34:../5-TempR_LCD_Serial/adc.h ****     // Iniciar uma conversão no ADC9
ARM GAS  /tmp/ccZoGyG7.s 			page 25


  35:../5-TempR_LCD_Serial/adc.h ****     ADC2->CR2 |= ADC_CR2_SWSTART;
 990              		.loc 4 35 5 view .LVU235
 991              	@ ../5-TempR_LCD_Serial/adc.h:35:     ADC2->CR2 |= ADC_CR2_SWSTART;
 992              		.loc 4 35 15 is_stmt 0 view .LVU236
 993 02f0 054B     		ldr	r3, .L61	@ tmp119,
 994 02f2 9A68     		ldr	r2, [r3, #8]	@ _1, MEM[(struct ADC_TypeDef *)1073817600B].CR2
 995 02f4 42F48002 		orr	r2, r2, #4194304	@ _2, _1,
 996 02f8 9A60     		str	r2, [r3, #8]	@ _2, MEM[(struct ADC_TypeDef *)1073817600B].CR2
  36:../5-TempR_LCD_Serial/adc.h **** 
  37:../5-TempR_LCD_Serial/adc.h ****     // Aguardar o final da conversão
  38:../5-TempR_LCD_Serial/adc.h ****     while (!(ADC2->SR & ADC_SR_EOC))
 997              		.loc 4 38 5 is_stmt 1 view .LVU237
 998              	.L58:
  39:../5-TempR_LCD_Serial/adc.h ****     {
  40:../5-TempR_LCD_Serial/adc.h ****     }
 999              		.loc 4 40 5 discriminator 1 view .LVU238
  38:../5-TempR_LCD_Serial/adc.h ****     {
 1000              		.loc 4 38 11 discriminator 1 view .LVU239
 1001              	@ ../5-TempR_LCD_Serial/adc.h:38:     while (!(ADC2->SR & ADC_SR_EOC))
  38:../5-TempR_LCD_Serial/adc.h ****     {
 1002              		.loc 4 38 18 is_stmt 0 discriminator 1 view .LVU240
 1003 02fa 1A68     		ldr	r2, [r3]	@ _3, MEM[(struct ADC_TypeDef *)1073817600B].SR
 1004              	@ ../5-TempR_LCD_Serial/adc.h:38:     while (!(ADC2->SR & ADC_SR_EOC))
  38:../5-TempR_LCD_Serial/adc.h ****     {
 1005              		.loc 4 38 11 discriminator 1 view .LVU241
 1006 02fc 9207     		lsls	r2, r2, #30	@, _3,
 1007 02fe FCD5     		bpl	.L58		@,
  41:../5-TempR_LCD_Serial/adc.h **** 
  42:../5-TempR_LCD_Serial/adc.h ****     // Obter o valor convertido
  43:../5-TempR_LCD_Serial/adc.h ****     return ADC2->DR;
 1008              		.loc 4 43 5 is_stmt 1 view .LVU242
 1009              	@ ../5-TempR_LCD_Serial/adc.h:43:     return ADC2->DR;
 1010              		.loc 4 43 16 is_stmt 0 view .LVU243
 1011 0300 D86C     		ldr	r0, [r3, #76]	@ _5, MEM[(struct ADC_TypeDef *)1073817600B].DR
 1012              	@ ../5-TempR_LCD_Serial/adc.h:45: }
  44:../5-TempR_LCD_Serial/adc.h **** 
  45:../5-TempR_LCD_Serial/adc.h **** }
 1013              		.loc 4 45 1 view .LVU244
 1014 0302 80B2     		uxth	r0, r0	@, _5
 1015 0304 7047     		bx	lr	@
 1016              	.L62:
 1017 0306 00BF     		.align	2
 1018              	.L61:
 1019 0308 00280140 		.word	1073817600
 1020              		.cfi_endproc
 1021              	.LFE43:
 1022              		.size	ADC9_GetValue, .-ADC9_GetValue
 1023              		.section	.rodata.str1.1,"aMS",%progbits,1
 1024              	.LC0:
 1025 0000 2D2D2D2D 		.ascii	"----------------\000"
 1025      2D2D2D2D 
 1025      2D2D2D2D 
 1025      2D2D2D2D 
 1025      00
 1026              	.LC1:
 1027 0011 30313233 		.ascii	"0123456789abcdef\000"
 1027      34353637 
ARM GAS  /tmp/ccZoGyG7.s 			page 26


 1027      38396162 
 1027      63646566 
 1027      00
 1028              	.LC2:
 1029 0022 5800     		.ascii	"X\000"
 1030              	.LC3:
 1031 0024 2300     		.ascii	"#\000"
 1032              		.text
 1033              		.align	1
 1034              		.global	LCD16x2_init
 1035              		.syntax unified
 1036              		.thumb
 1037              		.thumb_func
 1038              		.type	LCD16x2_init, %function
 1039              	LCD16x2_init:
 1040              	.LFB44:
  46:../5-TempR_LCD_Serial/main.c **** 
 1041              		.loc 1 46 20 is_stmt 1 view -0
 1042              		.cfi_startproc
 1043              		@ args = 0, pretend = 0, frame = 0
 1044              		@ frame_needed = 0, uses_anonymous_args = 0
  48:../5-TempR_LCD_Serial/main.c **** 	GPIOA->CRL	 = 0x33333300; // Hab PA(2-7) out PP
 1045              		.loc 1 48 2 view .LVU246
 1046              	@ ../5-TempR_LCD_Serial/main.c:48: 	RCC->APB2ENR |= (1<<2);
  48:../5-TempR_LCD_Serial/main.c **** 	GPIOA->CRL	 = 0x33333300; // Hab PA(2-7) out PP
 1047              		.loc 1 48 15 is_stmt 0 view .LVU247
 1048 030c 294A     		ldr	r2, .L66	@ tmp132,
 1049              	@ ../5-TempR_LCD_Serial/main.c:46: void LCD16x2_init(){
  46:../5-TempR_LCD_Serial/main.c **** 
 1050              		.loc 1 46 20 view .LVU248
 1051 030e F8B5     		push	{r3, r4, r5, r6, r7, lr}	@
 1052              	.LCFI9:
 1053              		.cfi_def_cfa_offset 24
 1054              		.cfi_offset 3, -24
 1055              		.cfi_offset 4, -20
 1056              		.cfi_offset 5, -16
 1057              		.cfi_offset 6, -12
 1058              		.cfi_offset 7, -8
 1059              		.cfi_offset 14, -4
 1060              	@ ../5-TempR_LCD_Serial/main.c:48: 	RCC->APB2ENR |= (1<<2);
  48:../5-TempR_LCD_Serial/main.c **** 	GPIOA->CRL	 = 0x33333300; // Hab PA(2-7) out PP
 1061              		.loc 1 48 15 view .LVU249
 1062 0310 9369     		ldr	r3, [r2, #24]	@ _1, MEM[(struct RCC_TypeDef *)1073876992B].APB2ENR
 1063              	@ ../5-TempR_LCD_Serial/main.c:59: 	disp_text("0123456789abcdef", 1, 0);
  59:../5-TempR_LCD_Serial/main.c **** 
 1064              		.loc 1 59 2 view .LVU250
 1065 0312 0024     		movs	r4, #0	@ ivtmp.69,
 1066              	@ ../5-TempR_LCD_Serial/main.c:48: 	RCC->APB2ENR |= (1<<2);
  48:../5-TempR_LCD_Serial/main.c **** 	GPIOA->CRL	 = 0x33333300; // Hab PA(2-7) out PP
 1067              		.loc 1 48 15 view .LVU251
 1068 0314 43F00403 		orr	r3, r3, #4	@ _2, _1,
 1069 0318 9361     		str	r3, [r2, #24]	@ _2, MEM[(struct RCC_TypeDef *)1073876992B].APB2ENR
  49:../5-TempR_LCD_Serial/main.c **** 
 1070              		.loc 1 49 2 is_stmt 1 view .LVU252
 1071              	@ ../5-TempR_LCD_Serial/main.c:49: 	GPIOA->CRL	 = 0x33333300; // Hab PA(2-7) out PP
  49:../5-TempR_LCD_Serial/main.c **** 
 1072              		.loc 1 49 14 is_stmt 0 view .LVU253
ARM GAS  /tmp/ccZoGyG7.s 			page 27


 1073 031a 274B     		ldr	r3, .L66+4	@ tmp134,
 1074 031c 274A     		ldr	r2, .L66+8	@ tmp135,
 1075              	.LBB2:
 1076              	@ ../5-TempR_LCD_Serial/main.c:63: 		disp_text("X", 0 ,i);
  63:../5-TempR_LCD_Serial/main.c **** 		disp_text("#", 1 , 16 - i);
 1077              		.loc 1 63 3 view .LVU254
 1078 031e 284F     		ldr	r7, .L66+12	@ tmp157,
 1079              	.LBE2:
 1080              	@ ../5-TempR_LCD_Serial/main.c:49: 	GPIOA->CRL	 = 0x33333300; // Hab PA(2-7) out PP
  49:../5-TempR_LCD_Serial/main.c **** 
 1081              		.loc 1 49 14 view .LVU255
 1082 0320 1A60     		str	r2, [r3]	@ tmp135, MEM[(struct GPIO_TypeDef *)1073809408B].CRL
  51:../5-TempR_LCD_Serial/main.c **** 	set_bit(IO,EN);   set_bit(IO,D4);
 1083              		.loc 1 51 2 is_stmt 1 view .LVU256
 1084 0322 DA68     		ldr	r2, [r3, #12]	@ _3, MEM[(struct GPIO_TypeDef *)1073809408B].ODR
 1085              	.LBB3:
 1086              	@ ../5-TempR_LCD_Serial/main.c:64: 		disp_text("#", 1 , 16 - i);
  64:../5-TempR_LCD_Serial/main.c **** 	}
 1087              		.loc 1 64 3 is_stmt 0 view .LVU257
 1088 0324 274E     		ldr	r6, .L66+16	@ tmp158,
 1089              	.LBE3:
 1090              	@ ../5-TempR_LCD_Serial/main.c:51: 	set_bit(IO,RS);   set_bit(IO,RS);
  51:../5-TempR_LCD_Serial/main.c **** 	set_bit(IO,EN);   set_bit(IO,D4);
 1091              		.loc 1 51 2 view .LVU258
 1092 0326 42F08002 		orr	r2, r2, #128	@ _4, _3,
 1093 032a DA60     		str	r2, [r3, #12]	@ _4, MEM[(struct GPIO_TypeDef *)1073809408B].ODR
  51:../5-TempR_LCD_Serial/main.c **** 	set_bit(IO,EN);   set_bit(IO,D4);
 1094              		.loc 1 51 20 is_stmt 1 view .LVU259
 1095 032c DA68     		ldr	r2, [r3, #12]	@ _5, MEM[(struct GPIO_TypeDef *)1073809408B].ODR
 1096 032e 42F08002 		orr	r2, r2, #128	@ _6, _5,
 1097 0332 DA60     		str	r2, [r3, #12]	@ _6, MEM[(struct GPIO_TypeDef *)1073809408B].ODR
  52:../5-TempR_LCD_Serial/main.c **** 	set_bit(IO,D5);   set_bit(IO,D6);
 1098              		.loc 1 52 2 view .LVU260
 1099 0334 DA68     		ldr	r2, [r3, #12]	@ _7, MEM[(struct GPIO_TypeDef *)1073809408B].ODR
 1100 0336 42F04002 		orr	r2, r2, #64	@ _8, _7,
 1101 033a DA60     		str	r2, [r3, #12]	@ _8, MEM[(struct GPIO_TypeDef *)1073809408B].ODR
  52:../5-TempR_LCD_Serial/main.c **** 	set_bit(IO,D5);   set_bit(IO,D6);
 1102              		.loc 1 52 20 view .LVU261
 1103 033c DA68     		ldr	r2, [r3, #12]	@ _9, MEM[(struct GPIO_TypeDef *)1073809408B].ODR
 1104 033e 42F02002 		orr	r2, r2, #32	@ _10, _9,
 1105 0342 DA60     		str	r2, [r3, #12]	@ _10, MEM[(struct GPIO_TypeDef *)1073809408B].ODR
  53:../5-TempR_LCD_Serial/main.c **** 	set_bit(IO,D7);   disp_init();
 1106              		.loc 1 53 2 view .LVU262
 1107 0344 DA68     		ldr	r2, [r3, #12]	@ _11, MEM[(struct GPIO_TypeDef *)1073809408B].ODR
 1108 0346 42F01002 		orr	r2, r2, #16	@ _12, _11,
 1109 034a DA60     		str	r2, [r3, #12]	@ _12, MEM[(struct GPIO_TypeDef *)1073809408B].ODR
  53:../5-TempR_LCD_Serial/main.c **** 	set_bit(IO,D7);   disp_init();
 1110              		.loc 1 53 20 view .LVU263
 1111 034c DA68     		ldr	r2, [r3, #12]	@ _13, MEM[(struct GPIO_TypeDef *)1073809408B].ODR
 1112 034e 42F00802 		orr	r2, r2, #8	@ _14, _13,
 1113 0352 DA60     		str	r2, [r3, #12]	@ _14, MEM[(struct GPIO_TypeDef *)1073809408B].ODR
  54:../5-TempR_LCD_Serial/main.c **** 	disp_cmd(0x0C);
 1114              		.loc 1 54 2 view .LVU264
 1115 0354 DA68     		ldr	r2, [r3, #12]	@ _15, MEM[(struct GPIO_TypeDef *)1073809408B].ODR
 1116 0356 42F00402 		orr	r2, r2, #4	@ _16, _15,
 1117 035a DA60     		str	r2, [r3, #12]	@ _16, MEM[(struct GPIO_TypeDef *)1073809408B].ODR
  54:../5-TempR_LCD_Serial/main.c **** 	disp_cmd(0x0C);
ARM GAS  /tmp/ccZoGyG7.s 			page 28


 1118              		.loc 1 54 20 view .LVU265
 1119 035c FFF7FEFF 		bl	disp_init		@
 1120              	.LVL24:
  55:../5-TempR_LCD_Serial/main.c **** 
 1121              		.loc 1 55 2 view .LVU266
 1122 0360 0C20     		movs	r0, #12	@,
 1123 0362 FFF7FEFF 		bl	disp_cmd		@
 1124              	.LVL25:
  58:../5-TempR_LCD_Serial/main.c **** 	disp_text("0123456789abcdef", 1, 0);
 1125              		.loc 1 58 2 view .LVU267
 1126 0366 0022     		movs	r2, #0	@,
 1127 0368 1748     		ldr	r0, .L66+20	@,
 1128 036a 1146     		mov	r1, r2	@,
 1129 036c FFF7FEFF 		bl	disp_text		@
 1130              	.LVL26:
  59:../5-TempR_LCD_Serial/main.c **** 
 1131              		.loc 1 59 2 view .LVU268
 1132 0370 0022     		movs	r2, #0	@,
 1133 0372 0121     		movs	r1, #1	@,
 1134 0374 1548     		ldr	r0, .L66+24	@,
 1135 0376 FFF7FEFF 		bl	disp_text		@
 1136              	.LVL27:
  61:../5-TempR_LCD_Serial/main.c **** 		__delay_ms(200);
 1137              		.loc 1 61 2 view .LVU269
 1138              	.LBB4:
  61:../5-TempR_LCD_Serial/main.c **** 		__delay_ms(200);
 1139              		.loc 1 61 7 view .LVU270
  61:../5-TempR_LCD_Serial/main.c **** 		__delay_ms(200);
 1140              		.loc 1 61 16 view .LVU271
 1141              	.L64:
  61:../5-TempR_LCD_Serial/main.c **** 		__delay_ms(200);
 1142              		.loc 1 61 16 is_stmt 0 view .LVU272
 1143 037a E5B2     		uxtb	r5, r4	@ _40, ivtmp.69
 1144              	.LVL28:
  62:../5-TempR_LCD_Serial/main.c **** 		disp_text("X", 0 ,i);
 1145              		.loc 1 62 3 is_stmt 1 discriminator 3 view .LVU273
 1146 037c 44F62060 		movw	r0, #20000	@,
 1147 0380 FFF7FEFF 		bl	vTaskDelay		@
 1148              	.LVL29:
  63:../5-TempR_LCD_Serial/main.c **** 		disp_text("#", 1 , 16 - i);
 1149              		.loc 1 63 3 discriminator 3 view .LVU274
 1150 0384 2A46     		mov	r2, r5	@, _40
 1151 0386 0021     		movs	r1, #0	@,
 1152 0388 3846     		mov	r0, r7	@, tmp157
 1153 038a FFF7FEFF 		bl	disp_text		@
 1154              	.LVL30:
  64:../5-TempR_LCD_Serial/main.c **** 	}
 1155              		.loc 1 64 3 discriminator 3 view .LVU275
 1156 038e C5F11002 		rsb	r2, r5, #16	@ tmp153, _40,
 1157 0392 0121     		movs	r1, #1	@,
 1158 0394 3046     		mov	r0, r6	@, tmp158
 1159 0396 D2B2     		uxtb	r2, r2	@, tmp153
 1160              	@ ../5-TempR_LCD_Serial/main.c:61: 	for (u8 i=0 ; i<16 ; i++){
  61:../5-TempR_LCD_Serial/main.c **** 		__delay_ms(200);
 1161              		.loc 1 61 2 is_stmt 0 discriminator 3 view .LVU276
 1162 0398 0134     		adds	r4, r4, #1	@ ivtmp.69, ivtmp.69,
 1163              	@ ../5-TempR_LCD_Serial/main.c:64: 		disp_text("#", 1 , 16 - i);
ARM GAS  /tmp/ccZoGyG7.s 			page 29


  64:../5-TempR_LCD_Serial/main.c **** 	}
 1164              		.loc 1 64 3 discriminator 3 view .LVU277
 1165 039a FFF7FEFF 		bl	disp_text		@
 1166              	.LVL31:
  61:../5-TempR_LCD_Serial/main.c **** 		__delay_ms(200);
 1167              		.loc 1 61 23 is_stmt 1 discriminator 3 view .LVU278
  61:../5-TempR_LCD_Serial/main.c **** 		__delay_ms(200);
 1168              		.loc 1 61 16 discriminator 3 view .LVU279
 1169              	@ ../5-TempR_LCD_Serial/main.c:61: 	for (u8 i=0 ; i<16 ; i++){
  61:../5-TempR_LCD_Serial/main.c **** 		__delay_ms(200);
 1170              		.loc 1 61 2 is_stmt 0 discriminator 3 view .LVU280
 1171 039e 102C     		cmp	r4, #16	@ ivtmp.69,
 1172 03a0 EBD1     		bne	.L64		@,
 1173              	.LBE4:
  66:../5-TempR_LCD_Serial/main.c **** 	disp_clear();
 1174              		.loc 1 66 2 is_stmt 1 view .LVU281
 1175 03a2 4CF25030 		movw	r0, #50000	@,
 1176 03a6 FFF7FEFF 		bl	vTaskDelay		@
 1177              	.LVL32:
  67:../5-TempR_LCD_Serial/main.c **** }
 1178              		.loc 1 67 2 view .LVU282
 1179              	@ ../5-TempR_LCD_Serial/main.c:68: }
  68:../5-TempR_LCD_Serial/main.c **** 
 1180              		.loc 1 68 1 is_stmt 0 view .LVU283
 1181 03aa BDE8F840 		pop	{r3, r4, r5, r6, r7, lr}	@
 1182              	.LCFI10:
 1183              		.cfi_restore 14
 1184              		.cfi_restore 7
 1185              		.cfi_restore 6
 1186              		.cfi_restore 5
 1187              		.cfi_restore 4
 1188              		.cfi_restore 3
 1189              		.cfi_def_cfa_offset 0
 1190              	@ ../5-TempR_LCD_Serial/main.c:67: 	disp_clear();
  67:../5-TempR_LCD_Serial/main.c **** }
 1191              		.loc 1 67 2 view .LVU284
 1192 03ae FFF7FEBF 		b	disp_clear		@
 1193              	.LVL33:
 1194              	.L67:
 1195 03b2 00BF     		.align	2
 1196              	.L66:
 1197 03b4 00100240 		.word	1073876992
 1198 03b8 00080140 		.word	1073809408
 1199 03bc 00333333 		.word	858993408
 1200 03c0 22000000 		.word	.LC2
 1201 03c4 24000000 		.word	.LC3
 1202 03c8 00000000 		.word	.LC0
 1203 03cc 11000000 		.word	.LC1
 1204              		.cfi_endproc
 1205              	.LFE44:
 1206              		.size	LCD16x2_init, .-LCD16x2_init
 1207              		.section	.rodata.str1.1
 1208              	.LC4:
 1209 0026 54656D70 		.ascii	"Temp (C): \000"
 1209      20284329 
 1209      3A2000
 1210              		.global	__aeabi_i2d
ARM GAS  /tmp/ccZoGyG7.s 			page 30


 1211              		.global	__aeabi_dmul
 1212              		.global	__aeabi_d2uiz
 1213              		.text
 1214              		.align	1
 1215              		.syntax unified
 1216              		.thumb
 1217              		.thumb_func
 1218              		.type	task1, %function
 1219              	task1:
 1220              	.LVL34:
 1221              	.LFB45:
  71:../5-TempR_LCD_Serial/main.c **** 
 1222              		.loc 1 71 53 is_stmt 1 view -0
 1223              		.cfi_startproc
 1224              		@ Volatile: function does not return.
 1225              		@ args = 0, pretend = 0, frame = 8
 1226              		@ frame_needed = 0, uses_anonymous_args = 0
  81:../5-TempR_LCD_Serial/main.c **** 	int msg_buf_rev;
 1227              		.loc 1 81 2 view .LVU286
 1228              	@ ../5-TempR_LCD_Serial/main.c:71: static void task1(void *args __attribute((unused))) {
  71:../5-TempR_LCD_Serial/main.c **** 
 1229              		.loc 1 71 53 is_stmt 0 view .LVU287
 1230 03d0 07B5     		push	{r0, r1, r2, lr}	@
 1231              	.LCFI11:
 1232              		.cfi_def_cfa_offset 16
 1233              		.cfi_offset 14, -4
 1234              	@ ../5-TempR_LCD_Serial/main.c:88: 		disp_number(msg_buf_rev * ADC_Const , 0,16-5);
  88:../5-TempR_LCD_Serial/main.c **** 
 1235              		.loc 1 88 27 view .LVU288
 1236 03d2 11A5     		adr	r5, .L70	@,
 1237 03d4 D5E90045 		ldrd	r4, [r5]	@ tmp126,
 1238              	@ ../5-TempR_LCD_Serial/main.c:81: 	LCD16x2_init();
  81:../5-TempR_LCD_Serial/main.c **** 	int msg_buf_rev;
 1239              		.loc 1 81 2 view .LVU289
 1240 03d8 FFF7FEFF 		bl	LCD16x2_init		@
 1241              	.LVL35:
 1242              	@ ../5-TempR_LCD_Serial/main.c:85: 		xQueueReceive(LCD_Show_queue, &msg_buf_rev, pdMS_TO_TICKS(1));
  85:../5-TempR_LCD_Serial/main.c **** 
 1243              		.loc 1 85 3 view .LVU290
 1244 03dc 104E     		ldr	r6, .L70+8	@ tmp120,
 1245              	.L69:
  82:../5-TempR_LCD_Serial/main.c **** 
 1246              		.loc 1 82 2 is_stmt 1 discriminator 1 view .LVU291
  84:../5-TempR_LCD_Serial/main.c **** 		xQueueReceive(LCD_Show_queue, &msg_buf_rev, pdMS_TO_TICKS(1));
 1247              		.loc 1 84 2 discriminator 1 view .LVU292
  85:../5-TempR_LCD_Serial/main.c **** 
 1248              		.loc 1 85 3 discriminator 1 view .LVU293
 1249 03de 01A9     		add	r1, sp, #4	@,,
 1250 03e0 6422     		movs	r2, #100	@,
 1251 03e2 3068     		ldr	r0, [r6]	@, LCD_Show_queue
 1252 03e4 FFF7FEFF 		bl	xQueueReceive		@
 1253              	.LVL36:
  87:../5-TempR_LCD_Serial/main.c **** 		disp_number(msg_buf_rev * ADC_Const , 0,16-5);
 1254              		.loc 1 87 3 discriminator 1 view .LVU294
 1255 03e8 0022     		movs	r2, #0	@,
 1256 03ea 0E48     		ldr	r0, .L70+12	@,
 1257 03ec 1146     		mov	r1, r2	@,
ARM GAS  /tmp/ccZoGyG7.s 			page 31


 1258 03ee FFF7FEFF 		bl	disp_text		@
 1259              	.LVL37:
  88:../5-TempR_LCD_Serial/main.c **** 
 1260              		.loc 1 88 3 discriminator 1 view .LVU295
 1261              	@ ../5-TempR_LCD_Serial/main.c:88: 		disp_number(msg_buf_rev * ADC_Const , 0,16-5);
  88:../5-TempR_LCD_Serial/main.c **** 
 1262              		.loc 1 88 27 is_stmt 0 discriminator 1 view .LVU296
 1263 03f2 0198     		ldr	r0, [sp, #4]	@, msg_buf_rev
 1264 03f4 FFF7FEFF 		bl	__aeabi_i2d		@
 1265              	.LVL38:
 1266 03f8 2246     		mov	r2, r4	@, tmp126
 1267 03fa 2B46     		mov	r3, r5	@,
 1268 03fc FFF7FEFF 		bl	__aeabi_dmul		@
 1269              	.LVL39:
 1270              	@ ../5-TempR_LCD_Serial/main.c:88: 		disp_number(msg_buf_rev * ADC_Const , 0,16-5);
  88:../5-TempR_LCD_Serial/main.c **** 
 1271              		.loc 1 88 3 discriminator 1 view .LVU297
 1272 0400 FFF7FEFF 		bl	__aeabi_d2uiz		@
 1273              	.LVL40:
 1274 0404 0B22     		movs	r2, #11	@,
 1275 0406 0021     		movs	r1, #0	@,
 1276 0408 FFF7FEFF 		bl	disp_number		@
 1277              	.LVL41:
  90:../5-TempR_LCD_Serial/main.c **** 	}
 1278              		.loc 1 90 3 is_stmt 1 discriminator 1 view .LVU298
 1279 040c 4CF25030 		movw	r0, #50000	@,
 1280 0410 FFF7FEFF 		bl	vTaskDelay		@
 1281              	.LVL42:
  84:../5-TempR_LCD_Serial/main.c **** 		xQueueReceive(LCD_Show_queue, &msg_buf_rev, pdMS_TO_TICKS(1));
 1282              		.loc 1 84 7 discriminator 1 view .LVU299
 1283 0414 E3E7     		b	.L69		@
 1284              	.L71:
 1285 0416 00BF     		.align	3
 1286              	.L70:
 1287 0418 0F0BB5A6 		.word	-1498084593
 1288 041c 79C7E93F 		.word	1072285561
 1289 0420 00000000 		.word	.LANCHOR0
 1290 0424 26000000 		.word	.LC4
 1291              		.cfi_endproc
 1292              	.LFE45:
 1293              		.size	task1, .-task1
 1294              		.section	.rodata.str1.1
 1295              	.LC5:
 1296 0031 4C43445F 		.ascii	"LCD_16x2\000"
 1296      31367832 
 1296      00
 1297              	.LC6:
 1298 003a 4C45445F 		.ascii	"LED_13\000"
 1298      313300
 1299              	.LC7:
 1300 0041 4C4D3335 		.ascii	"LM35_read\000"
 1300      5F726561 
 1300      6400
 1301              		.section	.text.startup,"ax",%progbits
 1302              		.align	1
 1303              		.global	main
 1304              		.syntax unified
ARM GAS  /tmp/ccZoGyG7.s 			page 32


 1305              		.thumb
 1306              		.thumb_func
 1307              		.type	main, %function
 1308              	main:
 1309              	.LFB48:
 125:../5-TempR_LCD_Serial/main.c **** 		
 126:../5-TempR_LCD_Serial/main.c **** 	}
 127:../5-TempR_LCD_Serial/main.c **** }
 128:../5-TempR_LCD_Serial/main.c **** 
 129:../5-TempR_LCD_Serial/main.c **** int main(void) {
 1310              		.loc 1 129 16 view -0
 1311              		.cfi_startproc
 1312              		@ Volatile: function does not return.
 1313              		@ args = 0, pretend = 0, frame = 0
 1314              		@ frame_needed = 0, uses_anonymous_args = 0
 130:../5-TempR_LCD_Serial/main.c **** 
 131:../5-TempR_LCD_Serial/main.c **** 	LCD_Show_queue = xQueueCreate(2, sizeof(u32));
 1315              		.loc 1 131 2 view .LVU301
 1316              	@ ../5-TempR_LCD_Serial/main.c:129: int main(void) {
 129:../5-TempR_LCD_Serial/main.c **** 
 1317              		.loc 1 129 16 is_stmt 0 view .LVU302
 1318 0000 07B5     		push	{r0, r1, r2, lr}	@
 1319              	.LCFI12:
 1320              		.cfi_def_cfa_offset 16
 1321              		.cfi_offset 14, -4
 1322              	@ ../5-TempR_LCD_Serial/main.c:131: 	LCD_Show_queue = xQueueCreate(2, sizeof(u32));
 1323              		.loc 1 131 19 view .LVU303
 1324 0002 0022     		movs	r2, #0	@,
 1325 0004 0421     		movs	r1, #4	@,
 1326 0006 0220     		movs	r0, #2	@,
 1327 0008 FFF7FEFF 		bl	xQueueGenericCreate		@
 1328              	.LVL43:
 1329              	@ ../5-TempR_LCD_Serial/main.c:135: 	xTaskCreate(task1,"LCD_16x2", 100 ,NULL, 2 ,NULL);
 132:../5-TempR_LCD_Serial/main.c **** 	
 133:../5-TempR_LCD_Serial/main.c **** 	set_system_clock_to_72Mhz();
 134:../5-TempR_LCD_Serial/main.c **** 
 135:../5-TempR_LCD_Serial/main.c **** 	xTaskCreate(task1,"LCD_16x2", 100 ,NULL, 2 ,NULL);
 1330              		.loc 1 135 2 view .LVU304
 1331 000c 0024     		movs	r4, #0	@ tmp118,
 1332 000e 0225     		movs	r5, #2	@ tmp119,
 1333              	@ ../5-TempR_LCD_Serial/main.c:131: 	LCD_Show_queue = xQueueCreate(2, sizeof(u32));
 131:../5-TempR_LCD_Serial/main.c **** 	
 1334              		.loc 1 131 17 view .LVU305
 1335 0010 0F4B     		ldr	r3, .L74	@ tmp115,
 1336 0012 1860     		str	r0, [r3]	@ tmp128, LCD_Show_queue
 133:../5-TempR_LCD_Serial/main.c **** 
 1337              		.loc 1 133 2 is_stmt 1 view .LVU306
 1338 0014 FFF7FEFF 		bl	set_system_clock_to_72Mhz		@
 1339              	.LVL44:
 1340              		.loc 1 135 2 view .LVU307
 1341 0018 0E48     		ldr	r0, .L74+4	@,
 1342 001a 2346     		mov	r3, r4	@, tmp118
 1343 001c 6422     		movs	r2, #100	@,
 1344 001e 0E49     		ldr	r1, .L74+8	@,
 1345 0020 CDE90054 		strd	r5, r4, [sp]	@ tmp119, tmp118,
 1346 0024 FFF7FEFF 		bl	xTaskCreate		@
 1347              	.LVL45:
ARM GAS  /tmp/ccZoGyG7.s 			page 33


 136:../5-TempR_LCD_Serial/main.c **** 	xTaskCreate(task2, "LED_13", 100 , NULL, 2, NULL);
 1348              		.loc 1 136 2 view .LVU308
 1349 0028 2346     		mov	r3, r4	@, tmp118
 1350 002a 6422     		movs	r2, #100	@,
 1351 002c 0B49     		ldr	r1, .L74+12	@,
 1352 002e CDE90054 		strd	r5, r4, [sp]	@ tmp119, tmp118,
 1353 0032 0B48     		ldr	r0, .L74+16	@,
 1354 0034 FFF7FEFF 		bl	xTaskCreate		@
 1355              	.LVL46:
 137:../5-TempR_LCD_Serial/main.c **** 	xTaskCreate(task3, "LM35_read", 100 , NULL, 2 , NULL);
 1356              		.loc 1 137 2 view .LVU309
 1357 0038 2346     		mov	r3, r4	@, tmp118
 1358 003a 6422     		movs	r2, #100	@,
 1359 003c 0949     		ldr	r1, .L74+20	@,
 1360 003e CDE90054 		strd	r5, r4, [sp]	@ tmp119, tmp118,
 1361 0042 0948     		ldr	r0, .L74+24	@,
 1362 0044 FFF7FEFF 		bl	xTaskCreate		@
 1363              	.LVL47:
 138:../5-TempR_LCD_Serial/main.c **** 
 139:../5-TempR_LCD_Serial/main.c **** 	vTaskStartScheduler(); 
 1364              		.loc 1 139 2 view .LVU310
 1365 0048 FFF7FEFF 		bl	vTaskStartScheduler		@
 1366              	.LVL48:
 1367              	.L73:
 140:../5-TempR_LCD_Serial/main.c **** 
 141:../5-TempR_LCD_Serial/main.c **** 	while(1);
 1368              		.loc 1 141 2 discriminator 1 view .LVU311
 1369              		.loc 1 141 10 discriminator 1 view .LVU312
 1370              		.loc 1 141 7 discriminator 1 view .LVU313
 1371 004c FEE7     		b	.L73		@
 1372              	.L75:
 1373 004e 00BF     		.align	2
 1374              	.L74:
 1375 0050 00000000 		.word	.LANCHOR0
 1376 0054 00000000 		.word	task1
 1377 0058 31000000 		.word	.LC5
 1378 005c 3A000000 		.word	.LC6
 1379 0060 00000000 		.word	task2
 1380 0064 41000000 		.word	.LC7
 1381 0068 00000000 		.word	task3
 1382              		.cfi_endproc
 1383              	.LFE48:
 1384              		.size	main, .-main
 1385              		.bss
 1386              		.align	2
 1387              		.set	.LANCHOR0,. + 0
 1388              		.type	LCD_Show_queue, %object
 1389              		.size	LCD_Show_queue, 4
 1390              	LCD_Show_queue:
 1391 0000 00000000 		.space	4
 1392              		.text
 1393              	.Letext0:
 1394              		.file 5 "/usr/arm-none-eabi/include/machine/_default_types.h"
 1395              		.file 6 "/usr/arm-none-eabi/include/sys/_stdint.h"
 1396              		.file 7 "../freertos/portable/GCC/ARM_CM3/portmacro.h"
 1397              		.file 8 "../freertos/include/queue.h"
 1398              		.file 9 "../stm32f10x_lib/CMSIS/CM3/DeviceSupport/ST/STM32F10x/stm32f10x.h"
ARM GAS  /tmp/ccZoGyG7.s 			page 34


 1399              		.file 10 "../stm32f10x_lib/CMSIS/CM3/CoreSupport/core_cm3.h"
 1400              		.file 11 "../stm32f10x_lib/STM32F10x_StdPeriph_Driver/inc/stm32f10x_gpio.h"
 1401              		.file 12 "../stm32f10x_lib/STM32F10x_StdPeriph_Driver/inc/stm32f10x_usart.h"
 1402              		.file 13 "../freertos/include/task.h"
 1403              		.file 14 "../5-TempR_LCD_Serial/myLcd.h"
 1404              		.file 15 "../stm32f10x_lib/STM32F10x_StdPeriph_Driver/inc/stm32f10x_rcc.h"