ARM GAS  /tmp/ccZoGyG7.s 			page 1


   1              		.cpu cortex-m3
   2              		.arch armv7-m
   3              		.fpu softvfp
   4              		.eabi_attribute 20, 1	@ Tag_ABI_FP_denormal
   5              		.eabi_attribute 21, 1	@ Tag_ABI_FP_exceptions
   6              		.eabi_attribute 23, 3	@ Tag_ABI_FP_number_model
   7              		.eabi_attribute 24, 1	@ Tag_ABI_align8_needed
   8              		.eabi_attribute 25, 1	@ Tag_ABI_align8_preserved
   9              		.eabi_attribute 26, 1	@ Tag_ABI_enum_size
  10              		.eabi_attribute 30, 4	@ Tag_ABI_optimization_goals
  11              		.eabi_attribute 34, 1	@ Tag_CPU_unaligned_access
  12              		.eabi_attribute 18, 4	@ Tag_ABI_PCS_wchar_t
  13              		.file	"main.c"
  14              	@ GNU C17 (GNU Arm Embedded Toolchain 10.3-2021.10) version 10.3.1 20210824 (release) (arm-none-eab
  15              	@	compiled by GNU C version 4.8.4, GMP version 6.1.0, MPFR version 3.1.4, MPC version 1.0.3, isl ve
  16              	
  17              	@ GGC heuristics: --param ggc-min-expand=100 --param ggc-min-heapsize=131072
  18              	@ options passed:  -I . -I ../5-TempR_LCD_Serial
  19              	@ -I ../stm32f10x_lib/CMSIS/CM3/CoreSupport
  20              	@ -I ../stm32f10x_lib/CMSIS/CM3/DeviceSupport/ST/STM32F10x
  21              	@ -I ../stm32f10x_lib/STM32F10x_StdPeriph_Driver/inc
  22              	@ -I ../stm32f10x_lib/STM32F10x_StdPeriph_Driver -I ../freertos/include
  23              	@ -I ../freertos/portable/GCC/ARM_CM3 -imultilib thumb/v7-m/nofp
  24              	@ -iprefix /usr/bin/../lib/gcc/arm-none-eabi/10.3.1/
  25              	@ -isysroot /usr/bin/../arm-none-eabi -D__USES_INITFINI__ -D STM32F10X_MD
  26              	@ -D USE_STDPERIPH_DRIVER -D HSE_VALUE=8000000 -D RUN_FROM_FLASH=1
  27              	@ ../5-TempR_LCD_Serial/main.c -mcpu=cortex-m3 -mthumb -mfloat-abi=soft
  28              	@ -mlibarch=armv7-m -march=armv7-m
  29              	@ -auxbase-strip ../5-TempR_LCD_Serial/main.o -g -gdwarf-2 -Os -Wall
  30              	@ -fomit-frame-pointer -fverbose-asm
  31              	@ options enabled:  -faggressive-loop-optimizations -fallocation-dce
  32              	@ -fauto-inc-dec -fbranch-count-reg -fcaller-saves -fcode-hoisting
  33              	@ -fcombine-stack-adjustments -fcompare-elim -fcprop-registers
  34              	@ -fcrossjumping -fcse-follow-jumps -fdefer-pop
  35              	@ -fdelete-null-pointer-checks -fdevirtualize -fdevirtualize-speculatively
  36              	@ -fdwarf2-cfi-asm -fearly-inlining -feliminate-unused-debug-symbols
  37              	@ -feliminate-unused-debug-types -fexpensive-optimizations
  38              	@ -fforward-propagate -ffp-int-builtin-inexact -ffunction-cse -fgcse
  39              	@ -fgcse-lm -fgnu-unique -fguess-branch-probability -fhoist-adjacent-loads
  40              	@ -fident -fif-conversion -fif-conversion2 -findirect-inlining -finline
  41              	@ -finline-atomics -finline-functions -finline-functions-called-once
  42              	@ -finline-small-functions -fipa-bit-cp -fipa-cp -fipa-icf
  43              	@ -fipa-icf-functions -fipa-icf-variables -fipa-profile -fipa-pure-const
  44              	@ -fipa-ra -fipa-reference -fipa-reference-addressable -fipa-sra
  45              	@ -fipa-stack-alignment -fipa-vrp -fira-hoist-pressure
  46              	@ -fira-share-save-slots -fira-share-spill-slots
  47              	@ -fisolate-erroneous-paths-dereference -fivopts -fkeep-static-consts
  48              	@ -fleading-underscore -flifetime-dse -flra-remat -fmath-errno
  49              	@ -fmerge-constants -fmerge-debug-strings -fmove-loop-invariants
  50              	@ -fomit-frame-pointer -foptimize-sibling-calls -fpartial-inlining
  51              	@ -fpeephole -fpeephole2 -fplt -fprefetch-loop-arrays -freg-struct-return
  52              	@ -freorder-blocks -freorder-functions -frerun-cse-after-loop
  53              	@ -fsched-critical-path-heuristic -fsched-dep-count-heuristic
  54              	@ -fsched-group-heuristic -fsched-interblock -fsched-last-insn-heuristic
  55              	@ -fsched-pressure -fsched-rank-heuristic -fsched-spec
  56              	@ -fsched-spec-insn-heuristic -fsched-stalled-insns-dep -fschedule-insns2
  57              	@ -fsection-anchors -fsemantic-interposition -fshow-column
ARM GAS  /tmp/ccZoGyG7.s 			page 2


  58              	@ -fshrink-wrap-separate -fsigned-zeros -fsplit-ivs-in-unroller
  59              	@ -fsplit-wide-types -fssa-backprop -fssa-phiopt -fstdarg-opt
  60              	@ -fstore-merging -fstrict-aliasing -fstrict-volatile-bitfields
  61              	@ -fsync-libcalls -fthread-jumps -ftoplevel-reorder -ftrapping-math
  62              	@ -ftree-bit-ccp -ftree-builtin-call-dce -ftree-ccp -ftree-ch
  63              	@ -ftree-coalesce-vars -ftree-copy-prop -ftree-cselim -ftree-dce
  64              	@ -ftree-dominator-opts -ftree-dse -ftree-forwprop -ftree-fre
  65              	@ -ftree-loop-distribute-patterns -ftree-loop-if-convert -ftree-loop-im
  66              	@ -ftree-loop-ivcanon -ftree-loop-optimize -ftree-parallelize-loops=
  67              	@ -ftree-phiprop -ftree-pre -ftree-pta -ftree-reassoc -ftree-scev-cprop
  68              	@ -ftree-sink -ftree-slsr -ftree-sra -ftree-switch-conversion
  69              	@ -ftree-tail-merge -ftree-ter -ftree-vrp -funit-at-a-time -fvar-tracking
  70              	@ -fvar-tracking-assignments -fverbose-asm -fzero-initialized-in-bss
  71              	@ -masm-syntax-unified -mbe32 -mfix-cortex-m3-ldrd -mlittle-endian
  72              	@ -mpic-data-is-text-relative -msched-prolog -mthumb -munaligned-access
  73              	@ -mvectorize-with-neon-quad
  74              	
  75              		.text
  76              	.Ltext0:
  77              		.cfi_sections	.debug_frame
  78              		.align	1
  79              		.syntax unified
  80              		.thumb
  81              		.thumb_func
  82              		.type	task2, %function
  83              	task2:
  84              	.LVL0:
  85              	.LFB46:
  86              		.file 1 "../5-TempR_LCD_Serial/main.c"
   1:../5-TempR_LCD_Serial/main.c **** /*
   2:../5-TempR_LCD_Serial/main.c ****  * Projeto LCD
   3:../5-TempR_LCD_Serial/main.c ****  *		Modificações necessárias: 
   4:../5-TempR_LCD_Serial/main.c ****  *		  FreeRTOSConfig:
   5:../5-TempR_LCD_Serial/main.c ****  *			 TICK_RATE_HZ definido em (100000)Hz -> 1µs
   6:../5-TempR_LCD_Serial/main.c ****  *
   7:../5-TempR_LCD_Serial/main.c ****  *	Clock do sistema: 
   8:../5-TempR_LCD_Serial/main.c ****  *		72Mhz
   9:../5-TempR_LCD_Serial/main.c ****  *	
  10:../5-TempR_LCD_Serial/main.c ****  *	Lib construída para Arduíno UNO:
  11:../5-TempR_LCD_Serial/main.c ****  *		myLcd.h
  12:../5-TempR_LCD_Serial/main.c ****  *			#define delayMicroseconds(X)   vTaskDelay(X)
  13:../5-TempR_LCD_Serial/main.c ****  *			#define delay(X)  vTaskDelay(X)
  14:../5-TempR_LCD_Serial/main.c ****  * */
  15:../5-TempR_LCD_Serial/main.c **** 
  16:../5-TempR_LCD_Serial/main.c **** // FreeRTOS: 
  17:../5-TempR_LCD_Serial/main.c **** 
  18:../5-TempR_LCD_Serial/main.c **** #include "FreeRTOS.h"
  19:../5-TempR_LCD_Serial/main.c **** #include "queue.h"
  20:../5-TempR_LCD_Serial/main.c **** #include "task.h"
  21:../5-TempR_LCD_Serial/main.c **** 
  22:../5-TempR_LCD_Serial/main.c **** #include <string.h>
  23:../5-TempR_LCD_Serial/main.c **** #include <stdlib.h>
  24:../5-TempR_LCD_Serial/main.c **** 
  25:../5-TempR_LCD_Serial/main.c **** #define __delay_ms( TEMPO ) vTaskDelay(pdMS_TO_TICKS( TEMPO ))
  26:../5-TempR_LCD_Serial/main.c **** #define __delay( TEMPO ) vTaskDelay( TEMPO )
  27:../5-TempR_LCD_Serial/main.c **** 
  28:../5-TempR_LCD_Serial/main.c **** #include "stm32f10x.h"
ARM GAS  /tmp/ccZoGyG7.s 			page 3


  29:../5-TempR_LCD_Serial/main.c **** #include "stm32f10x_tim.h"
  30:../5-TempR_LCD_Serial/main.c **** #include "Me.h"
  31:../5-TempR_LCD_Serial/main.c **** 
  32:../5-TempR_LCD_Serial/main.c **** // LCD 16x2
  33:../5-TempR_LCD_Serial/main.c **** #include "myLcd.h"
  34:../5-TempR_LCD_Serial/main.c **** #include "Serial.h"
  35:../5-TempR_LCD_Serial/main.c **** #include "adc.h"
  36:../5-TempR_LCD_Serial/main.c **** 
  37:../5-TempR_LCD_Serial/main.c **** #define BIN 2
  38:../5-TempR_LCD_Serial/main.c **** #define OCT 8
  39:../5-TempR_LCD_Serial/main.c **** #define DEC 10
  40:../5-TempR_LCD_Serial/main.c **** #define HEX 16
  41:../5-TempR_LCD_Serial/main.c **** 
  42:../5-TempR_LCD_Serial/main.c **** // Vadc * 3300 (mV) / 4096 (12 bits) 
  43:../5-TempR_LCD_Serial/main.c **** #define ADC_Const 0.8056
  44:../5-TempR_LCD_Serial/main.c **** 
  45:../5-TempR_LCD_Serial/main.c **** 
  46:../5-TempR_LCD_Serial/main.c **** void LCD16x2_init(){
  47:../5-TempR_LCD_Serial/main.c **** 
  48:../5-TempR_LCD_Serial/main.c **** 	RCC->APB2ENR |= (1<<2);
  49:../5-TempR_LCD_Serial/main.c **** 	GPIOA->CRL	 = 0x33333300; // Hab PA(2-7) out PP
  50:../5-TempR_LCD_Serial/main.c **** 
  51:../5-TempR_LCD_Serial/main.c **** 	set_bit(IO,RS);   set_bit(IO,RS);
  52:../5-TempR_LCD_Serial/main.c **** 	set_bit(IO,EN);   set_bit(IO,D4);
  53:../5-TempR_LCD_Serial/main.c **** 	set_bit(IO,D5);   set_bit(IO,D6);
  54:../5-TempR_LCD_Serial/main.c **** 	set_bit(IO,D7);   disp_init();
  55:../5-TempR_LCD_Serial/main.c **** 	disp_cmd(0x0C);
  56:../5-TempR_LCD_Serial/main.c **** 
  57:../5-TempR_LCD_Serial/main.c **** // Animação no visor:
  58:../5-TempR_LCD_Serial/main.c **** 	disp_text("----------------", 0 ,0);
  59:../5-TempR_LCD_Serial/main.c **** 	disp_text("0123456789abcdef", 1, 0);
  60:../5-TempR_LCD_Serial/main.c **** 
  61:../5-TempR_LCD_Serial/main.c **** 	for (u8 i=0 ; i<16 ; i++){
  62:../5-TempR_LCD_Serial/main.c **** 		__delay_ms(200);
  63:../5-TempR_LCD_Serial/main.c **** 		disp_text("X", 0 ,i);
  64:../5-TempR_LCD_Serial/main.c **** 		disp_text("#", 1 , 16 - i);
  65:../5-TempR_LCD_Serial/main.c **** 	}
  66:../5-TempR_LCD_Serial/main.c **** 	__delay_ms(500); 
  67:../5-TempR_LCD_Serial/main.c **** 	disp_clear();
  68:../5-TempR_LCD_Serial/main.c **** }
  69:../5-TempR_LCD_Serial/main.c **** 
  70:../5-TempR_LCD_Serial/main.c **** static QueueHandle_t LCD_Show_queue; 
  71:../5-TempR_LCD_Serial/main.c **** static void task1(void *args __attribute((unused))) {
  72:../5-TempR_LCD_Serial/main.c **** 
  73:../5-TempR_LCD_Serial/main.c **** 	/* [2---]
  74:../5-TempR_LCD_Serial/main.c **** 	 *
  75:../5-TempR_LCD_Serial/main.c **** 	 * Tarefa dedicada em mostrar informações no LCD 16x2.
  76:../5-TempR_LCD_Serial/main.c **** 	 * Informações de temperatura, ficando aberto para mais
  77:../5-TempR_LCD_Serial/main.c **** 	 * funcionalidades
  78:../5-TempR_LCD_Serial/main.c **** 	 * 
  79:../5-TempR_LCD_Serial/main.c **** 	 * */
  80:../5-TempR_LCD_Serial/main.c **** 
  81:../5-TempR_LCD_Serial/main.c **** 	LCD16x2_init();
  82:../5-TempR_LCD_Serial/main.c **** 	int msg_buf_rev;
  83:../5-TempR_LCD_Serial/main.c **** 
  84:../5-TempR_LCD_Serial/main.c **** 	while(1){
  85:../5-TempR_LCD_Serial/main.c **** 		xQueueReceive(LCD_Show_queue, &msg_buf_rev, pdMS_TO_TICKS(1));
ARM GAS  /tmp/ccZoGyG7.s 			page 4


  86:../5-TempR_LCD_Serial/main.c **** 
  87:../5-TempR_LCD_Serial/main.c **** 		disp_text("Temp (C): ", 0, 0);
  88:../5-TempR_LCD_Serial/main.c **** 		disp_number(msg_buf_rev * ADC_Const , 0,16-5);
  89:../5-TempR_LCD_Serial/main.c **** 
  90:../5-TempR_LCD_Serial/main.c **** 		__delay_ms(500);
  91:../5-TempR_LCD_Serial/main.c **** 	}
  92:../5-TempR_LCD_Serial/main.c **** }
  93:../5-TempR_LCD_Serial/main.c **** 
  94:../5-TempR_LCD_Serial/main.c **** static void task2(void *args __attribute ((unused))){
  87              		.loc 1 94 53 view -0
  88              		.cfi_startproc
  89              		@ Volatile: function does not return.
  90              		@ args = 0, pretend = 0, frame = 0
  91              		@ frame_needed = 0, uses_anonymous_args = 0
  95:../5-TempR_LCD_Serial/main.c **** 	RCC->APB2ENR |= (1<<4); // En GPIOC
  92              		.loc 1 95 2 view .LVU1
  93              	@ ../5-TempR_LCD_Serial/main.c:95: 	RCC->APB2ENR |= (1<<4); // En GPIOC
  94              		.loc 1 95 15 is_stmt 0 view .LVU2
  95 0000 094A     		ldr	r2, .L3	@ tmp120,
  96              	@ ../5-TempR_LCD_Serial/main.c:94: static void task2(void *args __attribute ((unused))){
  94:../5-TempR_LCD_Serial/main.c **** 	RCC->APB2ENR |= (1<<4); // En GPIOC
  97              		.loc 1 94 53 view .LVU3
  98 0002 08B5     		push	{r3, lr}	@
  99              	.LCFI0:
 100              		.cfi_def_cfa_offset 8
 101              		.cfi_offset 3, -8
 102              		.cfi_offset 14, -4
 103              	@ ../5-TempR_LCD_Serial/main.c:95: 	RCC->APB2ENR |= (1<<4); // En GPIOC
 104              		.loc 1 95 15 view .LVU4
 105 0004 9369     		ldr	r3, [r2, #24]	@ _1, MEM[(struct RCC_TypeDef *)1073876992B].APB2ENR
 106              	@ ../5-TempR_LCD_Serial/main.c:96: 	GPIOC->CRH	|= (0b11<< 20); // PC13 out PP 
  96:../5-TempR_LCD_Serial/main.c **** 	GPIOC->CRH	|= (0b11<< 20); // PC13 out PP 
 107              		.loc 1 96 13 view .LVU5
 108 0006 094C     		ldr	r4, .L3+4	@ tmp122,
 109              	@ ../5-TempR_LCD_Serial/main.c:95: 	RCC->APB2ENR |= (1<<4); // En GPIOC
  95:../5-TempR_LCD_Serial/main.c **** 	RCC->APB2ENR |= (1<<4); // En GPIOC
 110              		.loc 1 95 15 view .LVU6
 111 0008 43F01003 		orr	r3, r3, #16	@ _2, _1,
 112 000c 9361     		str	r3, [r2, #24]	@ _2, MEM[(struct RCC_TypeDef *)1073876992B].APB2ENR
 113              		.loc 1 96 2 is_stmt 1 view .LVU7
 114              	@ ../5-TempR_LCD_Serial/main.c:96: 	GPIOC->CRH	|= (0b11<< 20); // PC13 out PP 
 115              		.loc 1 96 13 is_stmt 0 view .LVU8
 116 000e 6368     		ldr	r3, [r4, #4]	@ _3, MEM[(struct GPIO_TypeDef *)1073811456B].CRH
 117 0010 43F44013 		orr	r3, r3, #3145728	@ _4, _3,
 118 0014 6360     		str	r3, [r4, #4]	@ _4, MEM[(struct GPIO_TypeDef *)1073811456B].CRH
 119              	.LVL1:
 120              	.L2:
  97:../5-TempR_LCD_Serial/main.c **** 
  98:../5-TempR_LCD_Serial/main.c **** 	while(1){
 121              		.loc 1 98 2 is_stmt 1 discriminator 1 view .LVU9
  99:../5-TempR_LCD_Serial/main.c **** 		GPIOC->ODR	^= (1<<13);
 122              		.loc 1 99 3 discriminator 1 view .LVU10
 123              	@ ../5-TempR_LCD_Serial/main.c:99: 		GPIOC->ODR	^= (1<<13);
 124              		.loc 1 99 14 is_stmt 0 discriminator 1 view .LVU11
 125 0016 E368     		ldr	r3, [r4, #12]	@ _5, MEM[(struct GPIO_TypeDef *)1073811456B].ODR
 126              	@ ../5-TempR_LCD_Serial/main.c:100: 		__delay_ms(50);
 100:../5-TempR_LCD_Serial/main.c **** 		__delay_ms(50);
ARM GAS  /tmp/ccZoGyG7.s 			page 5


 127              		.loc 1 100 3 discriminator 1 view .LVU12
 128 0018 41F28830 		movw	r0, #5000	@,
 129              	@ ../5-TempR_LCD_Serial/main.c:99: 		GPIOC->ODR	^= (1<<13);
  99:../5-TempR_LCD_Serial/main.c **** 		GPIOC->ODR	^= (1<<13);
 130              		.loc 1 99 14 discriminator 1 view .LVU13
 131 001c 83F40053 		eor	r3, r3, #8192	@ _6, _5,
 132 0020 E360     		str	r3, [r4, #12]	@ _6, MEM[(struct GPIO_TypeDef *)1073811456B].ODR
 133              		.loc 1 100 3 is_stmt 1 discriminator 1 view .LVU14
 134 0022 FFF7FEFF 		bl	vTaskDelay		@
 135              	.LVL2:
  98:../5-TempR_LCD_Serial/main.c **** 		GPIOC->ODR	^= (1<<13);
 136              		.loc 1 98 7 discriminator 1 view .LVU15
 137 0026 F6E7     		b	.L2		@
 138              	.L4:
 139              		.align	2
 140              	.L3:
 141 0028 00100240 		.word	1073876992
 142 002c 00100140 		.word	1073811456
 143              		.cfi_endproc
 144              	.LFE46:
 145              		.size	task2, .-task2
 146              		.align	1
 147              		.global	ADC1_configure
 148              		.syntax unified
 149              		.thumb
 150              		.thumb_func
 151              		.type	ADC1_configure, %function
 152              	ADC1_configure:
 153              	.LFB34:
 154              		.file 2 "../5-TempR_LCD_Serial/Me.h"
   1:../5-TempR_LCD_Serial/Me.h **** #define __IO volatile
   2:../5-TempR_LCD_Serial/Me.h **** 
   3:../5-TempR_LCD_Serial/Me.h **** void SystemInit (void);
   4:../5-TempR_LCD_Serial/Me.h **** void nvic_IntDisble(u8 IRQn);
   5:../5-TempR_LCD_Serial/Me.h **** void nvic_intEnable(u8 IRQn);
   6:../5-TempR_LCD_Serial/Me.h **** void set_system_clock_to_25Mhz (void);
   7:../5-TempR_LCD_Serial/Me.h **** void set_system_clock_to_72Mhz(void);
   8:../5-TempR_LCD_Serial/Me.h **** void Delay ( __IO u32 T );
   9:../5-TempR_LCD_Serial/Me.h **** void enable_TIM3_delay (void);
  10:../5-TempR_LCD_Serial/Me.h **** void ADC1_configure();
  11:../5-TempR_LCD_Serial/Me.h **** 
  12:../5-TempR_LCD_Serial/Me.h **** #define DelayUs(X) Delay(X)
  13:../5-TempR_LCD_Serial/Me.h **** 
  14:../5-TempR_LCD_Serial/Me.h **** void ADC1_configure(){
 155              		.loc 2 14 22 view -0
 156              		.cfi_startproc
 157              		@ args = 0, pretend = 0, frame = 0
 158              		@ frame_needed = 0, uses_anonymous_args = 0
 159              		@ link register save eliminated.
  15:../5-TempR_LCD_Serial/Me.h **** 	RCC->APB2ENR |= 1UL<<2 ; // Hab. GPIOA
 160              		.loc 2 15 2 view .LVU17
 161              	@ ../5-TempR_LCD_Serial/Me.h:15: 	RCC->APB2ENR |= 1UL<<2 ; // Hab. GPIOA
 162              		.loc 2 15 15 is_stmt 0 view .LVU18
 163 0030 1F4B     		ldr	r3, .L10	@ tmp141,
 164              	@ ../5-TempR_LCD_Serial/Me.h:16: 	GPIOA->CRL &= ~(0x0F << 4); // Define A1 Input Analogic
  16:../5-TempR_LCD_Serial/Me.h **** 	GPIOA->CRL &= ~(0x0F << 4); // Define A1 Input Analogic
 165              		.loc 2 16 13 view .LVU19
ARM GAS  /tmp/ccZoGyG7.s 			page 6


 166 0032 2049     		ldr	r1, .L10+4	@ tmp143,
 167              	@ ../5-TempR_LCD_Serial/Me.h:15: 	RCC->APB2ENR |= 1UL<<2 ; // Hab. GPIOA
  15:../5-TempR_LCD_Serial/Me.h **** 	RCC->APB2ENR |= 1UL<<2 ; // Hab. GPIOA
 168              		.loc 2 15 15 view .LVU20
 169 0034 9A69     		ldr	r2, [r3, #24]	@ _1, MEM[(struct RCC_TypeDef *)1073876992B].APB2ENR
 170 0036 42F00402 		orr	r2, r2, #4	@ _2, _1,
 171 003a 9A61     		str	r2, [r3, #24]	@ _2, MEM[(struct RCC_TypeDef *)1073876992B].APB2ENR
 172              		.loc 2 16 2 is_stmt 1 view .LVU21
 173              	@ ../5-TempR_LCD_Serial/Me.h:16: 	GPIOA->CRL &= ~(0x0F << 4); // Define A1 Input Analogic
 174              		.loc 2 16 13 is_stmt 0 view .LVU22
 175 003c 0A68     		ldr	r2, [r1]	@ _3, MEM[(struct GPIO_TypeDef *)1073809408B].CRL
 176 003e 22F0F002 		bic	r2, r2, #240	@ _4, _3,
 177 0042 0A60     		str	r2, [r1]	@ _4, MEM[(struct GPIO_TypeDef *)1073809408B].CRL
  17:../5-TempR_LCD_Serial/Me.h **** 	
  18:../5-TempR_LCD_Serial/Me.h **** 	RCC->APB2ENR |= (1<<9); // Bit 9 ADC1EN: ADC 1 
 178              		.loc 2 18 2 is_stmt 1 view .LVU23
 179              	@ ../5-TempR_LCD_Serial/Me.h:18: 	RCC->APB2ENR |= (1<<9); // Bit 9 ADC1EN: ADC 1 
 180              		.loc 2 18 15 is_stmt 0 view .LVU24
 181 0044 9A69     		ldr	r2, [r3, #24]	@ _5, MEM[(struct RCC_TypeDef *)1073876992B].APB2ENR
 182 0046 42F40072 		orr	r2, r2, #512	@ _6, _5,
 183 004a 9A61     		str	r2, [r3, #24]	@ _6, MEM[(struct RCC_TypeDef *)1073876992B].APB2ENR
  19:../5-TempR_LCD_Serial/Me.h **** 									// interface clock enable
  20:../5-TempR_LCD_Serial/Me.h **** 
  21:../5-TempR_LCD_Serial/Me.h **** 	RCC->CFGR	|= (0b10 << 14); // Bits 15:14 ADCPRE:
 184              		.loc 2 21 2 is_stmt 1 view .LVU25
 185              	@ ../5-TempR_LCD_Serial/Me.h:21: 	RCC->CFGR	|= (0b10 << 14); // Bits 15:14 ADCPRE:
 186              		.loc 2 21 12 is_stmt 0 view .LVU26
 187 004c 5A68     		ldr	r2, [r3, #4]	@ _7, MEM[(struct RCC_TypeDef *)1073876992B].CFGR
 188 004e 42F40042 		orr	r2, r2, #32768	@ _8, _7,
 189 0052 5A60     		str	r2, [r3, #4]	@ _8, MEM[(struct RCC_TypeDef *)1073876992B].CFGR
  22:../5-TempR_LCD_Serial/Me.h **** 										  // ADC prescaler 10:
  23:../5-TempR_LCD_Serial/Me.h **** 										  //    PCLK2 divided by 6
  24:../5-TempR_LCD_Serial/Me.h **** 	// Enable End of Conversion (EOC) interrupt
  25:../5-TempR_LCD_Serial/Me.h **** 	ADC1->CR1 |= (1 << 5);
 190              		.loc 2 25 2 is_stmt 1 view .LVU27
 191              	@ ../5-TempR_LCD_Serial/Me.h:25: 	ADC1->CR1 |= (1 << 5);
 192              		.loc 2 25 12 is_stmt 0 view .LVU28
 193 0054 A3F56C43 		sub	r3, r3, #60416	@ tmp149, tmp149,
 194 0058 5A68     		ldr	r2, [r3, #4]	@ _9, MEM[(struct ADC_TypeDef *)1073816576B].CR1
 195 005a 42F02002 		orr	r2, r2, #32	@ _10, _9,
 196 005e 5A60     		str	r2, [r3, #4]	@ _10, MEM[(struct ADC_TypeDef *)1073816576B].CR1
  26:../5-TempR_LCD_Serial/Me.h **** 
  27:../5-TempR_LCD_Serial/Me.h **** 	// One conversion
  28:../5-TempR_LCD_Serial/Me.h **** 	ADC1->SQR1 = 0x00000000;
 197              		.loc 2 28 2 is_stmt 1 view .LVU29
 198              	@ ../5-TempR_LCD_Serial/Me.h:28: 	ADC1->SQR1 = 0x00000000;
 199              		.loc 2 28 13 is_stmt 0 view .LVU30
 200 0060 0022     		movs	r2, #0	@ tmp152,
 201 0062 DA62     		str	r2, [r3, #44]	@ tmp152, MEM[(struct ADC_TypeDef *)1073816576B].SQR1
  29:../5-TempR_LCD_Serial/Me.h **** 
  30:../5-TempR_LCD_Serial/Me.h **** 	// Choose the analog channel to read
  31:../5-TempR_LCD_Serial/Me.h **** 	// Since we want channel 10 to be the first
  32:../5-TempR_LCD_Serial/Me.h **** 	//   conversion we write 10 to SQ1 bits (3:0)
  33:../5-TempR_LCD_Serial/Me.h **** 	//   which is in SQR3 register. For multiple conversions
  34:../5-TempR_LCD_Serial/Me.h **** 	//   keep writing the channel numbers to SQx bits.
  35:../5-TempR_LCD_Serial/Me.h **** 	 ADC1->SQR3 = (10 << 0);
 202              		.loc 2 35 3 is_stmt 1 view .LVU31
ARM GAS  /tmp/ccZoGyG7.s 			page 7


 203              	@ ../5-TempR_LCD_Serial/Me.h:35: 	 ADC1->SQR3 = (10 << 0);
 204              		.loc 2 35 14 is_stmt 0 view .LVU32
 205 0064 0A22     		movs	r2, #10	@ tmp154,
 206 0066 5A63     		str	r2, [r3, #52]	@ tmp154, MEM[(struct ADC_TypeDef *)1073816576B].SQR3
  36:../5-TempR_LCD_Serial/Me.h **** 
  37:../5-TempR_LCD_Serial/Me.h **** 	// Set up software trigger to start conversion
  38:../5-TempR_LCD_Serial/Me.h **** 	ADC1->CR2 |= (7 << 17);  // Select SWSTART as trigger
 207              		.loc 2 38 2 is_stmt 1 view .LVU33
 208              	@ ../5-TempR_LCD_Serial/Me.h:38: 	ADC1->CR2 |= (7 << 17);  // Select SWSTART as trigger
 209              		.loc 2 38 12 is_stmt 0 view .LVU34
 210 0068 9A68     		ldr	r2, [r3, #8]	@ _11, MEM[(struct ADC_TypeDef *)1073816576B].CR2
 211 006a 42F46022 		orr	r2, r2, #917504	@ _12, _11,
 212 006e 9A60     		str	r2, [r3, #8]	@ _12, MEM[(struct ADC_TypeDef *)1073816576B].CR2
  39:../5-TempR_LCD_Serial/Me.h **** 	ADC1->CR2 |= (1 << 20);  // Enable external trigger
 213              		.loc 2 39 2 is_stmt 1 view .LVU35
 214              	@ ../5-TempR_LCD_Serial/Me.h:39: 	ADC1->CR2 |= (1 << 20);  // Enable external trigger
 215              		.loc 2 39 12 is_stmt 0 view .LVU36
 216 0070 9A68     		ldr	r2, [r3, #8]	@ _13, MEM[(struct ADC_TypeDef *)1073816576B].CR2
 217 0072 42F48012 		orr	r2, r2, #1048576	@ _14, _13,
 218 0076 9A60     		str	r2, [r3, #8]	@ _14, MEM[(struct ADC_TypeDef *)1073816576B].CR2
  40:../5-TempR_LCD_Serial/Me.h **** 
  41:../5-TempR_LCD_Serial/Me.h **** 	// Enable continuous conversion
  42:../5-TempR_LCD_Serial/Me.h **** 	ADC1->CR2 |= (1 << 1);
 219              		.loc 2 42 2 is_stmt 1 view .LVU37
 220              	@ ../5-TempR_LCD_Serial/Me.h:42: 	ADC1->CR2 |= (1 << 1);
 221              		.loc 2 42 12 is_stmt 0 view .LVU38
 222 0078 9A68     		ldr	r2, [r3, #8]	@ _15, MEM[(struct ADC_TypeDef *)1073816576B].CR2
 223 007a 42F00202 		orr	r2, r2, #2	@ _16, _15,
 224 007e 9A60     		str	r2, [r3, #8]	@ _16, MEM[(struct ADC_TypeDef *)1073816576B].CR2
  43:../5-TempR_LCD_Serial/Me.h **** 
  44:../5-TempR_LCD_Serial/Me.h **** 	// enable_interrupt(ADC1_2_IRQn);
  45:../5-TempR_LCD_Serial/Me.h **** 
  46:../5-TempR_LCD_Serial/Me.h **** 	// Enable A/D conversion
  47:../5-TempR_LCD_Serial/Me.h **** 	ADC1->CR2 |= (1 << 0);
 225              		.loc 2 47 2 is_stmt 1 view .LVU39
 226              	@ ../5-TempR_LCD_Serial/Me.h:47: 	ADC1->CR2 |= (1 << 0);
 227              		.loc 2 47 12 is_stmt 0 view .LVU40
 228 0080 9A68     		ldr	r2, [r3, #8]	@ _17, MEM[(struct ADC_TypeDef *)1073816576B].CR2
 229 0082 42F00102 		orr	r2, r2, #1	@ _18, _17,
 230 0086 9A60     		str	r2, [r3, #8]	@ _18, MEM[(struct ADC_TypeDef *)1073816576B].CR2
  48:../5-TempR_LCD_Serial/Me.h **** 
  49:../5-TempR_LCD_Serial/Me.h **** 	// Calibration reset and start
  50:../5-TempR_LCD_Serial/Me.h **** 	//    Optional for better accuracy.
  51:../5-TempR_LCD_Serial/Me.h **** 	ADC1->CR2 |= (1 << 3);
 231              		.loc 2 51 2 is_stmt 1 view .LVU41
 232              	@ ../5-TempR_LCD_Serial/Me.h:51: 	ADC1->CR2 |= (1 << 3);
 233              		.loc 2 51 12 is_stmt 0 view .LVU42
 234 0088 9A68     		ldr	r2, [r3, #8]	@ _19, MEM[(struct ADC_TypeDef *)1073816576B].CR2
 235 008a 42F00802 		orr	r2, r2, #8	@ _20, _19,
 236 008e 9A60     		str	r2, [r3, #8]	@ _20, MEM[(struct ADC_TypeDef *)1073816576B].CR2
  52:../5-TempR_LCD_Serial/Me.h **** 	while((ADC1->CR2 & (1 << 3)));
 237              		.loc 2 52 2 is_stmt 1 view .LVU43
 238              	.L6:
 239              		.loc 2 52 31 discriminator 1 view .LVU44
 240              		.loc 2 52 7 discriminator 1 view .LVU45
 241              	@ ../5-TempR_LCD_Serial/Me.h:52: 	while((ADC1->CR2 & (1 << 3)));
 242              		.loc 2 52 13 is_stmt 0 discriminator 1 view .LVU46
ARM GAS  /tmp/ccZoGyG7.s 			page 8


 243 0090 9A68     		ldr	r2, [r3, #8]	@ _21, MEM[(struct ADC_TypeDef *)1073816576B].CR2
 244              	@ ../5-TempR_LCD_Serial/Me.h:52: 	while((ADC1->CR2 & (1 << 3)));
 245              		.loc 2 52 7 discriminator 1 view .LVU47
 246 0092 1107     		lsls	r1, r2, #28	@, _21,
 247 0094 FCD4     		bmi	.L6		@,
  53:../5-TempR_LCD_Serial/Me.h **** 	ADC1->CR2 |= (1 << 2);
 248              		.loc 2 53 2 is_stmt 1 view .LVU48
 249              	@ ../5-TempR_LCD_Serial/Me.h:53: 	ADC1->CR2 |= (1 << 2);
 250              		.loc 2 53 12 is_stmt 0 view .LVU49
 251 0096 9A68     		ldr	r2, [r3, #8]	@ _23, MEM[(struct ADC_TypeDef *)1073816576B].CR2
 252 0098 42F00402 		orr	r2, r2, #4	@ _24, _23,
 253 009c 9A60     		str	r2, [r3, #8]	@ _24, MEM[(struct ADC_TypeDef *)1073816576B].CR2
  54:../5-TempR_LCD_Serial/Me.h **** 	while((ADC1->CR2 & (1 << 2)));
 254              		.loc 2 54 2 is_stmt 1 view .LVU50
 255              	@ ../5-TempR_LCD_Serial/Me.h:54: 	while((ADC1->CR2 & (1 << 2)));
 256              		.loc 2 54 13 is_stmt 0 view .LVU51
 257 009e 064B     		ldr	r3, .L10+8	@ tmp169,
 258              	.L7:
 259              		.loc 2 54 31 is_stmt 1 discriminator 1 view .LVU52
 260              		.loc 2 54 7 discriminator 1 view .LVU53
 261              	@ ../5-TempR_LCD_Serial/Me.h:54: 	while((ADC1->CR2 & (1 << 2)));
 262              		.loc 2 54 13 is_stmt 0 discriminator 1 view .LVU54
 263 00a0 9A68     		ldr	r2, [r3, #8]	@ _25, MEM[(struct ADC_TypeDef *)1073816576B].CR2
 264              	@ ../5-TempR_LCD_Serial/Me.h:54: 	while((ADC1->CR2 & (1 << 2)));
 265              		.loc 2 54 7 discriminator 1 view .LVU55
 266 00a2 5207     		lsls	r2, r2, #29	@, _25,
 267 00a4 FCD4     		bmi	.L7		@,
  55:../5-TempR_LCD_Serial/Me.h **** 
  56:../5-TempR_LCD_Serial/Me.h **** 	// Start conversion with software trigger
  57:../5-TempR_LCD_Serial/Me.h **** 	ADC1->CR2 |= (1<<22);
 268              		.loc 2 57 2 is_stmt 1 view .LVU56
 269              	@ ../5-TempR_LCD_Serial/Me.h:57: 	ADC1->CR2 |= (1<<22);
 270              		.loc 2 57 12 is_stmt 0 view .LVU57
 271 00a6 9A68     		ldr	r2, [r3, #8]	@ _27, MEM[(struct ADC_TypeDef *)1073816576B].CR2
 272 00a8 42F48002 		orr	r2, r2, #4194304	@ _28, _27,
 273 00ac 9A60     		str	r2, [r3, #8]	@ _28, MEM[(struct ADC_TypeDef *)1073816576B].CR2
 274              	@ ../5-TempR_LCD_Serial/Me.h:60: }
  58:../5-TempR_LCD_Serial/Me.h **** 	//
  59:../5-TempR_LCD_Serial/Me.h **** 	// Leitura  ADC1->DR  -> Data Register
  60:../5-TempR_LCD_Serial/Me.h **** }
 275              		.loc 2 60 1 view .LVU58
 276 00ae 7047     		bx	lr	@
 277              	.L11:
 278              		.align	2
 279              	.L10:
 280 00b0 00100240 		.word	1073876992
 281 00b4 00080140 		.word	1073809408
 282 00b8 00240140 		.word	1073816576
 283              		.cfi_endproc
 284              	.LFE34:
 285              		.size	ADC1_configure, .-ADC1_configure
 286              		.align	1
 287              		.global	set_system_clock_to_72Mhz
 288              		.syntax unified
 289              		.thumb
 290              		.thumb_func
 291              		.type	set_system_clock_to_72Mhz, %function
ARM GAS  /tmp/ccZoGyG7.s 			page 9


 292              	set_system_clock_to_72Mhz:
 293              	.LFB35:
  61:../5-TempR_LCD_Serial/Me.h **** 
  62:../5-TempR_LCD_Serial/Me.h **** void set_system_clock_to_72Mhz(void)
  63:../5-TempR_LCD_Serial/Me.h **** {
 294              		.loc 2 63 1 is_stmt 1 view -0
 295              		.cfi_startproc
 296              		@ args = 0, pretend = 0, frame = 0
 297              		@ frame_needed = 0, uses_anonymous_args = 0
 298              		@ link register save eliminated.
  64:../5-TempR_LCD_Serial/Me.h ****    // Necessary wait states for Flash for high speeds
  65:../5-TempR_LCD_Serial/Me.h ****    FLASH->ACR = 0x12;
 299              		.loc 2 65 4 view .LVU60
 300              	@ ../5-TempR_LCD_Serial/Me.h:65:    FLASH->ACR = 0x12;
 301              		.loc 2 65 15 is_stmt 0 view .LVU61
 302 00bc 1222     		movs	r2, #18	@ tmp140,
 303 00be 1B4B     		ldr	r3, .L19	@ tmp139,
 304 00c0 1A60     		str	r2, [r3]	@ tmp140, MEM[(struct FLASH_TypeDef *)1073881088B].ACR
  66:../5-TempR_LCD_Serial/Me.h ****    // Enable HSE
  67:../5-TempR_LCD_Serial/Me.h ****    RCC->CR |= (1 << 16);
 305              		.loc 2 67 4 is_stmt 1 view .LVU62
 306              	@ ../5-TempR_LCD_Serial/Me.h:67:    RCC->CR |= (1 << 16);
 307              		.loc 2 67 12 is_stmt 0 view .LVU63
 308 00c2 A3F58053 		sub	r3, r3, #4096	@ tmp141, tmp141,
 309 00c6 1A68     		ldr	r2, [r3]	@ _1, MEM[(struct RCC_TypeDef *)1073876992B].CR
 310 00c8 42F48032 		orr	r2, r2, #65536	@ _2, _1,
 311 00cc 1A60     		str	r2, [r3]	@ _2, MEM[(struct RCC_TypeDef *)1073876992B].CR
  68:../5-TempR_LCD_Serial/Me.h ****    // Wait untill HSE settles down
  69:../5-TempR_LCD_Serial/Me.h ****    while (!(RCC->CR & (1 << 17)));
 312              		.loc 2 69 4 is_stmt 1 view .LVU64
 313              	.L13:
 314              		.loc 2 69 34 discriminator 1 view .LVU65
 315              		.loc 2 69 10 discriminator 1 view .LVU66
 316              	@ ../5-TempR_LCD_Serial/Me.h:69:    while (!(RCC->CR & (1 << 17)));
 317              		.loc 2 69 16 is_stmt 0 discriminator 1 view .LVU67
 318 00ce 1A68     		ldr	r2, [r3]	@ _3, MEM[(struct RCC_TypeDef *)1073876992B].CR
 319              	@ ../5-TempR_LCD_Serial/Me.h:69:    while (!(RCC->CR & (1 << 17)));
 320              		.loc 2 69 10 discriminator 1 view .LVU68
 321 00d0 9103     		lsls	r1, r2, #14	@, _3,
 322 00d2 FCD5     		bpl	.L13		@,
  70:../5-TempR_LCD_Serial/Me.h ****    // Set PREDIV2 division factor to 5
  71:../5-TempR_LCD_Serial/Me.h ****    RCC->CFGR2 |= (0b0100 << 4);
 323              		.loc 2 71 4 is_stmt 1 view .LVU69
 324              	@ ../5-TempR_LCD_Serial/Me.h:71:    RCC->CFGR2 |= (0b0100 << 4);
 325              		.loc 2 71 15 is_stmt 0 view .LVU70
 326 00d4 DA6A     		ldr	r2, [r3, #44]	@ _5, MEM[(struct RCC_TypeDef *)1073876992B].CFGR2
 327 00d6 42F04002 		orr	r2, r2, #64	@ _6, _5,
 328 00da DA62     		str	r2, [r3, #44]	@ _6, MEM[(struct RCC_TypeDef *)1073876992B].CFGR2
  72:../5-TempR_LCD_Serial/Me.h ****    // Set PLL2 multiplication factor to 8
  73:../5-TempR_LCD_Serial/Me.h ****    RCC->CFGR2 |= (0b0110 << 8);
 329              		.loc 2 73 4 is_stmt 1 view .LVU71
 330              	@ ../5-TempR_LCD_Serial/Me.h:73:    RCC->CFGR2 |= (0b0110 << 8);
 331              		.loc 2 73 15 is_stmt 0 view .LVU72
 332 00dc DA6A     		ldr	r2, [r3, #44]	@ _7, MEM[(struct RCC_TypeDef *)1073876992B].CFGR2
 333 00de 42F4C062 		orr	r2, r2, #1536	@ _8, _7,
 334 00e2 DA62     		str	r2, [r3, #44]	@ _8, MEM[(struct RCC_TypeDef *)1073876992B].CFGR2
  74:../5-TempR_LCD_Serial/Me.h ****    // Enable PLL2
ARM GAS  /tmp/ccZoGyG7.s 			page 10


  75:../5-TempR_LCD_Serial/Me.h ****    RCC->CR |= (1 << 26);
 335              		.loc 2 75 4 is_stmt 1 view .LVU73
 336              	@ ../5-TempR_LCD_Serial/Me.h:75:    RCC->CR |= (1 << 26);
 337              		.loc 2 75 12 is_stmt 0 view .LVU74
 338 00e4 1A68     		ldr	r2, [r3]	@ _9, MEM[(struct RCC_TypeDef *)1073876992B].CR
 339 00e6 42F08062 		orr	r2, r2, #67108864	@ _10, _9,
 340 00ea 1A60     		str	r2, [r3]	@ _10, MEM[(struct RCC_TypeDef *)1073876992B].CR
  76:../5-TempR_LCD_Serial/Me.h ****    // Wait untill PLL2 settles down
  77:../5-TempR_LCD_Serial/Me.h **** 	// while (!(RCC->CR & (1 << 27)));
  78:../5-TempR_LCD_Serial/Me.h ****    // Set PLL2 as PREDIV1 clock source
  79:../5-TempR_LCD_Serial/Me.h ****    RCC->CFGR2 |= (1 << 16);
 341              		.loc 2 79 4 is_stmt 1 view .LVU75
 342              	@ ../5-TempR_LCD_Serial/Me.h:79:    RCC->CFGR2 |= (1 << 16);
 343              		.loc 2 79 15 is_stmt 0 view .LVU76
 344 00ec DA6A     		ldr	r2, [r3, #44]	@ _11, MEM[(struct RCC_TypeDef *)1073876992B].CFGR2
 345 00ee 42F48032 		orr	r2, r2, #65536	@ _12, _11,
 346 00f2 DA62     		str	r2, [r3, #44]	@ _12, MEM[(struct RCC_TypeDef *)1073876992B].CFGR2
  80:../5-TempR_LCD_Serial/Me.h ****    // Set PREDIV1 division factor to 5
  81:../5-TempR_LCD_Serial/Me.h ****    RCC->CFGR2 |= (0b0100 << 0);
 347              		.loc 2 81 4 is_stmt 1 view .LVU77
 348              	@ ../5-TempR_LCD_Serial/Me.h:81:    RCC->CFGR2 |= (0b0100 << 0);
 349              		.loc 2 81 15 is_stmt 0 view .LVU78
 350 00f4 DA6A     		ldr	r2, [r3, #44]	@ _13, MEM[(struct RCC_TypeDef *)1073876992B].CFGR2
 351 00f6 42F00402 		orr	r2, r2, #4	@ _14, _13,
 352 00fa DA62     		str	r2, [r3, #44]	@ _14, MEM[(struct RCC_TypeDef *)1073876992B].CFGR2
  82:../5-TempR_LCD_Serial/Me.h ****    // Select Prediv1 as PLL source
  83:../5-TempR_LCD_Serial/Me.h ****    RCC->CFGR |= (1 << 16);
 353              		.loc 2 83 4 is_stmt 1 view .LVU79
 354              	@ ../5-TempR_LCD_Serial/Me.h:83:    RCC->CFGR |= (1 << 16);
 355              		.loc 2 83 14 is_stmt 0 view .LVU80
 356 00fc 5A68     		ldr	r2, [r3, #4]	@ _15, MEM[(struct RCC_TypeDef *)1073876992B].CFGR
 357 00fe 42F48032 		orr	r2, r2, #65536	@ _16, _15,
 358 0102 5A60     		str	r2, [r3, #4]	@ _16, MEM[(struct RCC_TypeDef *)1073876992B].CFGR
  84:../5-TempR_LCD_Serial/Me.h ****    // Set PLL1 multiplication factor to 9
  85:../5-TempR_LCD_Serial/Me.h ****    RCC->CFGR |= (0b0111 << 18);
 359              		.loc 2 85 4 is_stmt 1 view .LVU81
 360              	@ ../5-TempR_LCD_Serial/Me.h:85:    RCC->CFGR |= (0b0111 << 18);
 361              		.loc 2 85 14 is_stmt 0 view .LVU82
 362 0104 5A68     		ldr	r2, [r3, #4]	@ _17, MEM[(struct RCC_TypeDef *)1073876992B].CFGR
 363 0106 42F4E012 		orr	r2, r2, #1835008	@ _18, _17,
 364 010a 5A60     		str	r2, [r3, #4]	@ _18, MEM[(struct RCC_TypeDef *)1073876992B].CFGR
  86:../5-TempR_LCD_Serial/Me.h ****    // Set APB1 to 36MHz
  87:../5-TempR_LCD_Serial/Me.h ****    RCC->CFGR |= 1 << 10;
 365              		.loc 2 87 4 is_stmt 1 view .LVU83
 366              	@ ../5-TempR_LCD_Serial/Me.h:87:    RCC->CFGR |= 1 << 10;
 367              		.loc 2 87 14 is_stmt 0 view .LVU84
 368 010c 5A68     		ldr	r2, [r3, #4]	@ _19, MEM[(struct RCC_TypeDef *)1073876992B].CFGR
 369 010e 42F48062 		orr	r2, r2, #1024	@ _20, _19,
 370 0112 5A60     		str	r2, [r3, #4]	@ _20, MEM[(struct RCC_TypeDef *)1073876992B].CFGR
  88:../5-TempR_LCD_Serial/Me.h ****    // Enable PLL
  89:../5-TempR_LCD_Serial/Me.h ****    RCC->CR |= (1 << 24);
 371              		.loc 2 89 4 is_stmt 1 view .LVU85
 372              	@ ../5-TempR_LCD_Serial/Me.h:89:    RCC->CR |= (1 << 24);
 373              		.loc 2 89 12 is_stmt 0 view .LVU86
 374 0114 1A68     		ldr	r2, [r3]	@ _21, MEM[(struct RCC_TypeDef *)1073876992B].CR
 375 0116 42F08072 		orr	r2, r2, #16777216	@ _22, _21,
 376 011a 1A60     		str	r2, [r3]	@ _22, MEM[(struct RCC_TypeDef *)1073876992B].CR
ARM GAS  /tmp/ccZoGyG7.s 			page 11


  90:../5-TempR_LCD_Serial/Me.h ****    // Wait untill PLL settles down
  91:../5-TempR_LCD_Serial/Me.h ****    while (!(RCC->CR & (1 << 25)));
 377              		.loc 2 91 4 is_stmt 1 view .LVU87
 378              	.L14:
 379              		.loc 2 91 34 discriminator 1 view .LVU88
 380              		.loc 2 91 10 discriminator 1 view .LVU89
 381              	@ ../5-TempR_LCD_Serial/Me.h:91:    while (!(RCC->CR & (1 << 25)));
 382              		.loc 2 91 16 is_stmt 0 discriminator 1 view .LVU90
 383 011c 1A68     		ldr	r2, [r3]	@ _23, MEM[(struct RCC_TypeDef *)1073876992B].CR
 384              	@ ../5-TempR_LCD_Serial/Me.h:91:    while (!(RCC->CR & (1 << 25)));
 385              		.loc 2 91 10 discriminator 1 view .LVU91
 386 011e 9201     		lsls	r2, r2, #6	@, _23,
 387 0120 FCD5     		bpl	.L14		@,
  92:../5-TempR_LCD_Serial/Me.h ****    // Finally, choose PLL as the system clock
  93:../5-TempR_LCD_Serial/Me.h ****    RCC->CFGR |= (0b10 << 0);
 388              		.loc 2 93 4 is_stmt 1 view .LVU92
 389              	@ ../5-TempR_LCD_Serial/Me.h:93:    RCC->CFGR |= (0b10 << 0);
 390              		.loc 2 93 14 is_stmt 0 view .LVU93
 391 0122 5A68     		ldr	r2, [r3, #4]	@ _25, MEM[(struct RCC_TypeDef *)1073876992B].CFGR
 392 0124 42F00202 		orr	r2, r2, #2	@ _26, _25,
 393 0128 5A60     		str	r2, [r3, #4]	@ _26, MEM[(struct RCC_TypeDef *)1073876992B].CFGR
 394              	@ ../5-TempR_LCD_Serial/Me.h:94: } 
  94:../5-TempR_LCD_Serial/Me.h **** } 
 395              		.loc 2 94 1 view .LVU94
 396 012a 7047     		bx	lr	@
 397              	.L20:
 398              		.align	2
 399              	.L19:
 400 012c 00200240 		.word	1073881088
 401              		.cfi_endproc
 402              	.LFE35:
 403              		.size	set_system_clock_to_72Mhz, .-set_system_clock_to_72Mhz
 404              		.align	1
 405              		.global	Delay
 406              		.syntax unified
 407              		.thumb
 408              		.thumb_func
 409              		.type	Delay, %function
 410              	Delay:
 411              	.LVL3:
 412              	.LFB36:
  95:../5-TempR_LCD_Serial/Me.h **** 
  96:../5-TempR_LCD_Serial/Me.h **** void Delay ( __IO u32 T ) { // T=1 ;  868µs -> T=1 ~ 526µs
 413              		.loc 2 96 27 is_stmt 1 view -0
 414              		.cfi_startproc
 415              		@ args = 0, pretend = 0, frame = 8
 416              		@ frame_needed = 0, uses_anonymous_args = 0
 417              		@ link register save eliminated.
  97:../5-TempR_LCD_Serial/Me.h ****   for ( T ; T > 0 ; T-- ){
 418              		.loc 2 97 3 view .LVU96
 419              	@ ../5-TempR_LCD_Serial/Me.h:96: void Delay ( __IO u32 T ) { // T=1 ;  868µs -> T=1 ~ 526µs
  96:../5-TempR_LCD_Serial/Me.h ****   for ( T ; T > 0 ; T-- ){
 420              		.loc 2 96 27 is_stmt 0 view .LVU97
 421 0130 82B0     		sub	sp, sp, #8	@,,
 422              	.LCFI1:
 423              		.cfi_def_cfa_offset 8
 424              	@ ../5-TempR_LCD_Serial/Me.h:96: void Delay ( __IO u32 T ) { // T=1 ;  868µs -> T=1 ~ 526µs
ARM GAS  /tmp/ccZoGyG7.s 			page 12


  96:../5-TempR_LCD_Serial/Me.h ****   for ( T ; T > 0 ; T-- ){
 425              		.loc 2 96 27 view .LVU98
 426 0132 0190     		str	r0, [sp, #4]	@ T, T
 427              	@ ../5-TempR_LCD_Serial/Me.h:97:   for ( T ; T > 0 ; T-- ){
 428              		.loc 2 97 3 view .LVU99
 429 0134 019B     		ldr	r3, [sp, #4]	@ vol.0_9, T
 430              	@ ../5-TempR_LCD_Serial/Me.h:98:    TIM3->EGR |= ( 1 << 0 );
  98:../5-TempR_LCD_Serial/Me.h ****    TIM3->EGR |= ( 1 << 0 );
 431              		.loc 2 98 14 view .LVU100
 432 0136 094A     		ldr	r2, .L26	@ tmp132,
 433              	.L22:
  97:../5-TempR_LCD_Serial/Me.h ****   for ( T ; T > 0 ; T-- ){
 434              		.loc 2 97 13 is_stmt 1 discriminator 1 view .LVU101
 435              	@ ../5-TempR_LCD_Serial/Me.h:97:   for ( T ; T > 0 ; T-- ){
  97:../5-TempR_LCD_Serial/Me.h ****   for ( T ; T > 0 ; T-- ){
 436              		.loc 2 97 15 is_stmt 0 discriminator 1 view .LVU102
 437 0138 019B     		ldr	r3, [sp, #4]	@ T.2_6, T
 438              	@ ../5-TempR_LCD_Serial/Me.h:97:   for ( T ; T > 0 ; T-- ){
  97:../5-TempR_LCD_Serial/Me.h ****   for ( T ; T > 0 ; T-- ){
 439              		.loc 2 97 3 discriminator 1 view .LVU103
 440 013a 0BB9     		cbnz	r3, .L24	@ T.2_6,
 441              	@ ../5-TempR_LCD_Serial/Me.h:101: }
  99:../5-TempR_LCD_Serial/Me.h ****    while ( TIM3->CNT < 5 ) ; /* 5 * 10-- Configurar para IR */
 100:../5-TempR_LCD_Serial/Me.h ****   }
 101:../5-TempR_LCD_Serial/Me.h **** }
 442              		.loc 2 101 1 view .LVU104
 443 013c 02B0     		add	sp, sp, #8	@,,
 444              	.LCFI2:
 445              		.cfi_remember_state
 446              		.cfi_def_cfa_offset 0
 447              		@ sp needed	@
 448 013e 7047     		bx	lr	@
 449              	.L24:
 450              	.LCFI3:
 451              		.cfi_restore_state
  98:../5-TempR_LCD_Serial/Me.h ****    TIM3->EGR |= ( 1 << 0 );
 452              		.loc 2 98 4 is_stmt 1 view .LVU105
 453              	@ ../5-TempR_LCD_Serial/Me.h:98:    TIM3->EGR |= ( 1 << 0 );
  98:../5-TempR_LCD_Serial/Me.h ****    TIM3->EGR |= ( 1 << 0 );
 454              		.loc 2 98 14 is_stmt 0 view .LVU106
 455 0140 938A     		ldrh	r3, [r2, #20]	@, MEM[(struct TIM_TypeDef *)1073742848B].EGR
 456 0142 9BB2     		uxth	r3, r3	@ _1, MEM[(struct TIM_TypeDef *)1073742848B].EGR
 457 0144 43F00103 		orr	r3, r3, #1	@ _2, _1,
 458 0148 9382     		strh	r3, [r2, #20]	@ movhi	@ _2, MEM[(struct TIM_TypeDef *)1073742848B].EGR
  99:../5-TempR_LCD_Serial/Me.h ****    while ( TIM3->CNT < 5 ) ; /* 5 * 10-- Configurar para IR */
 459              		.loc 2 99 4 is_stmt 1 view .LVU107
 460              	.L23:
  99:../5-TempR_LCD_Serial/Me.h ****    while ( TIM3->CNT < 5 ) ; /* 5 * 10-- Configurar para IR */
 461              		.loc 2 99 28 discriminator 1 view .LVU108
  99:../5-TempR_LCD_Serial/Me.h ****    while ( TIM3->CNT < 5 ) ; /* 5 * 10-- Configurar para IR */
 462              		.loc 2 99 10 discriminator 1 view .LVU109
 463              	@ ../5-TempR_LCD_Serial/Me.h:99:    while ( TIM3->CNT < 5 ) ; /* 5 * 10-- Configurar para IR */
  99:../5-TempR_LCD_Serial/Me.h ****    while ( TIM3->CNT < 5 ) ; /* 5 * 10-- Configurar para IR */
 464              		.loc 2 99 16 is_stmt 0 discriminator 1 view .LVU110
 465 014a 938C     		ldrh	r3, [r2, #36]	@, MEM[(struct TIM_TypeDef *)1073742848B].CNT
 466 014c 9BB2     		uxth	r3, r3	@ _3, MEM[(struct TIM_TypeDef *)1073742848B].CNT
 467              	@ ../5-TempR_LCD_Serial/Me.h:99:    while ( TIM3->CNT < 5 ) ; /* 5 * 10-- Configurar para IR */
ARM GAS  /tmp/ccZoGyG7.s 			page 13


  99:../5-TempR_LCD_Serial/Me.h ****    while ( TIM3->CNT < 5 ) ; /* 5 * 10-- Configurar para IR */
 468              		.loc 2 99 10 discriminator 1 view .LVU111
 469 014e 042B     		cmp	r3, #4	@ _3,
 470 0150 FBD9     		bls	.L23		@,
  97:../5-TempR_LCD_Serial/Me.h ****    TIM3->EGR |= ( 1 << 0 );
 471              		.loc 2 97 21 is_stmt 1 discriminator 2 view .LVU112
 472              	@ ../5-TempR_LCD_Serial/Me.h:97:   for ( T ; T > 0 ; T-- ){
  97:../5-TempR_LCD_Serial/Me.h ****    TIM3->EGR |= ( 1 << 0 );
 473              		.loc 2 97 22 is_stmt 0 discriminator 2 view .LVU113
 474 0152 019B     		ldr	r3, [sp, #4]	@ T.1_4, T
 475 0154 013B     		subs	r3, r3, #1	@ _5, T.1_4,
 476 0156 0193     		str	r3, [sp, #4]	@ _5, T
 477 0158 EEE7     		b	.L22		@
 478              	.L27:
 479 015a 00BF     		.align	2
 480              	.L26:
 481 015c 00040040 		.word	1073742848
 482              		.cfi_endproc
 483              	.LFE36:
 484              		.size	Delay, .-Delay
 485              		.align	1
 486              		.global	enable_TIM3_delay
 487              		.syntax unified
 488              		.thumb
 489              		.thumb_func
 490              		.type	enable_TIM3_delay, %function
 491              	enable_TIM3_delay:
 492              	.LFB37:
 102:../5-TempR_LCD_Serial/Me.h **** 
 103:../5-TempR_LCD_Serial/Me.h **** void enable_TIM3_delay (void) {
 493              		.loc 2 103 31 is_stmt 1 view -0
 494              		.cfi_startproc
 495              		@ args = 0, pretend = 0, frame = 0
 496              		@ frame_needed = 0, uses_anonymous_args = 0
 497              		@ link register save eliminated.
 104:../5-TempR_LCD_Serial/Me.h ****    RCC->APB1ENR |= 1<<1 ;
 498              		.loc 2 104 4 view .LVU115
 499              	@ ../5-TempR_LCD_Serial/Me.h:104:    RCC->APB1ENR |= 1<<1 ;
 500              		.loc 2 104 17 is_stmt 0 view .LVU116
 501 0160 084A     		ldr	r2, .L29	@ tmp117,
 502 0162 D369     		ldr	r3, [r2, #28]	@ _1, MEM[(struct RCC_TypeDef *)1073876992B].APB1ENR
 503 0164 43F00203 		orr	r3, r3, #2	@ _2, _1,
 504 0168 D361     		str	r3, [r2, #28]	@ _2, MEM[(struct RCC_TypeDef *)1073876992B].APB1ENR
 105:../5-TempR_LCD_Serial/Me.h ****    TIM3->CR1 = 0x0000;
 505              		.loc 2 105 4 is_stmt 1 view .LVU117
 506              	@ ../5-TempR_LCD_Serial/Me.h:105:    TIM3->CR1 = 0x0000;
 507              		.loc 2 105 14 is_stmt 0 view .LVU118
 508 016a 0023     		movs	r3, #0	@ tmp121,
 509 016c A2F50332 		sub	r2, r2, #134144	@ tmp119, tmp119,
 510 0170 1380     		strh	r3, [r2]	@ movhi	@ tmp121, MEM[(struct TIM_TypeDef *)1073742848B].CR1
 106:../5-TempR_LCD_Serial/Me.h ****    //TIM3->ARR = 21699;
 107:../5-TempR_LCD_Serial/Me.h ****    // TIM3->ARR = 250-1; // 10µs
 108:../5-TempR_LCD_Serial/Me.h ****    TIM3->ARR = 720-1; // 10µs
 511              		.loc 2 108 4 is_stmt 1 view .LVU119
 512              	@ ../5-TempR_LCD_Serial/Me.h:108:    TIM3->ARR = 720-1; // 10µs
 513              		.loc 2 108 14 is_stmt 0 view .LVU120
 514 0172 40F2CF23 		movw	r3, #719	@ tmp124,
ARM GAS  /tmp/ccZoGyG7.s 			page 14


 515 0176 9385     		strh	r3, [r2, #44]	@ movhi	@ tmp124, MEM[(struct TIM_TypeDef *)1073742848B].ARR
 109:../5-TempR_LCD_Serial/Me.h ****    // para obter o período de 868µs
 110:../5-TempR_LCD_Serial/Me.h **** /*https://www.vishay.com/docs/80071/dataform.pdf PAG 2
 111:../5-TempR_LCD_Serial/Me.h ****  * https://controllerstech.com/ir-remote-with-stm32/
 112:../5-TempR_LCD_Serial/Me.h ****  * Per=(1+ARR)/Clock_system */
 113:../5-TempR_LCD_Serial/Me.h ****    TIM3->CR1 |= 1<<0;
 516              		.loc 2 113 4 is_stmt 1 view .LVU121
 517              	@ ../5-TempR_LCD_Serial/Me.h:113:    TIM3->CR1 |= 1<<0;
 518              		.loc 2 113 14 is_stmt 0 view .LVU122
 519 0178 1388     		ldrh	r3, [r2]	@, MEM[(struct TIM_TypeDef *)1073742848B].CR1
 520 017a 9BB2     		uxth	r3, r3	@ _3, MEM[(struct TIM_TypeDef *)1073742848B].CR1
 521 017c 43F00103 		orr	r3, r3, #1	@ _4, _3,
 522 0180 1380     		strh	r3, [r2]	@ movhi	@ _4, MEM[(struct TIM_TypeDef *)1073742848B].CR1
 523              	@ ../5-TempR_LCD_Serial/Me.h:114: }
 114:../5-TempR_LCD_Serial/Me.h **** }
 524              		.loc 2 114 1 view .LVU123
 525 0182 7047     		bx	lr	@
 526              	.L30:
 527              		.align	2
 528              	.L29:
 529 0184 00100240 		.word	1073876992
 530              		.cfi_endproc
 531              	.LFE37:
 532              		.size	enable_TIM3_delay, .-enable_TIM3_delay
 533              		.align	1
 534              		.global	enable_interrupt
 535              		.syntax unified
 536              		.thumb
 537              		.thumb_func
 538              		.type	enable_interrupt, %function
 539              	enable_interrupt:
 540              	.LVL4:
 541              	.LFB38:
 115:../5-TempR_LCD_Serial/Me.h **** 
 116:../5-TempR_LCD_Serial/Me.h **** void enable_interrupt(IRQn_Type IRQn)
 117:../5-TempR_LCD_Serial/Me.h **** {
 542              		.loc 2 117 1 is_stmt 1 view -0
 543              		.cfi_startproc
 544              		@ args = 0, pretend = 0, frame = 0
 545              		@ frame_needed = 0, uses_anonymous_args = 0
 546              		@ link register save eliminated.
 118:../5-TempR_LCD_Serial/Me.h ****    NVIC->ISER[((uint32_t)(IRQn) >> 5)] = (1 << ((uint32_t)(IRQn) & 0x1F));
 547              		.loc 2 118 4 view .LVU125
 548              	@ ../5-TempR_LCD_Serial/Me.h:118:    NVIC->ISER[((uint32_t)(IRQn) >> 5)] = (1 << ((uint32_t)(IRQn) 
 549              		.loc 2 118 45 is_stmt 0 view .LVU126
 550 0188 0123     		movs	r3, #1	@ tmp124,
 551              	@ ../5-TempR_LCD_Serial/Me.h:118:    NVIC->ISER[((uint32_t)(IRQn) >> 5)] = (1 << ((uint32_t)(IRQn) 
 552              		.loc 2 118 33 view .LVU127
 553 018a 4209     		lsrs	r2, r0, #5	@ _6, IRQn,
 554              	@ ../5-TempR_LCD_Serial/Me.h:118:    NVIC->ISER[((uint32_t)(IRQn) >> 5)] = (1 << ((uint32_t)(IRQn) 
 555              		.loc 2 118 66 view .LVU128
 556 018c 00F01F00 		and	r0, r0, #31	@ tmp123, IRQn,
 557              	.LVL5:
 558              	@ ../5-TempR_LCD_Serial/Me.h:118:    NVIC->ISER[((uint32_t)(IRQn) >> 5)] = (1 << ((uint32_t)(IRQn) 
 559              		.loc 2 118 45 view .LVU129
 560 0190 03FA00F0 		lsl	r0, r3, r0	@ _7, tmp124, tmp123
 561              	@ ../5-TempR_LCD_Serial/Me.h:118:    NVIC->ISER[((uint32_t)(IRQn) >> 5)] = (1 << ((uint32_t)(IRQn) 
ARM GAS  /tmp/ccZoGyG7.s 			page 15


 562              		.loc 2 118 40 view .LVU130
 563 0194 014B     		ldr	r3, .L32	@ tmp125,
 564 0196 43F82200 		str	r0, [r3, r2, lsl #2]	@ _7, MEM[(struct NVIC_Type *)3758153984B].ISER[_6]
 565              	@ ../5-TempR_LCD_Serial/Me.h:119: }  
 119:../5-TempR_LCD_Serial/Me.h **** }  
 566              		.loc 2 119 1 view .LVU131
 567 019a 7047     		bx	lr	@
 568              	.L33:
 569              		.align	2
 570              	.L32:
 571 019c 00E100E0 		.word	-536813312
 572              		.cfi_endproc
 573              	.LFE38:
 574              		.size	enable_interrupt, .-enable_interrupt
 575              		.align	1
 576              		.global	disable_interrupt
 577              		.syntax unified
 578              		.thumb
 579              		.thumb_func
 580              		.type	disable_interrupt, %function
 581              	disable_interrupt:
 582              	.LVL6:
 583              	.LFB39:
 120:../5-TempR_LCD_Serial/Me.h ****    
 121:../5-TempR_LCD_Serial/Me.h **** /* 
 122:../5-TempR_LCD_Serial/Me.h ****  * Disable given interrupt
 123:../5-TempR_LCD_Serial/Me.h ****  */
 124:../5-TempR_LCD_Serial/Me.h **** void disable_interrupt(IRQn_Type IRQn)
 125:../5-TempR_LCD_Serial/Me.h **** {
 584              		.loc 2 125 1 is_stmt 1 view -0
 585              		.cfi_startproc
 586              		@ args = 0, pretend = 0, frame = 0
 587              		@ frame_needed = 0, uses_anonymous_args = 0
 588              		@ link register save eliminated.
 126:../5-TempR_LCD_Serial/Me.h ****    NVIC->ICER[((uint32_t)(IRQn) >> 5)] = (1 << ((uint32_t)(IRQn) & 0x1F));
 589              		.loc 2 126 4 view .LVU133
 590              	@ ../5-TempR_LCD_Serial/Me.h:126:    NVIC->ICER[((uint32_t)(IRQn) >> 5)] = (1 << ((uint32_t)(IRQn) 
 591              		.loc 2 126 45 is_stmt 0 view .LVU134
 592 01a0 0122     		movs	r2, #1	@ tmp124,
 593              	@ ../5-TempR_LCD_Serial/Me.h:126:    NVIC->ICER[((uint32_t)(IRQn) >> 5)] = (1 << ((uint32_t)(IRQn) 
 594              		.loc 2 126 33 view .LVU135
 595 01a2 4309     		lsrs	r3, r0, #5	@ _6, IRQn,
 596              	@ ../5-TempR_LCD_Serial/Me.h:126:    NVIC->ICER[((uint32_t)(IRQn) >> 5)] = (1 << ((uint32_t)(IRQn) 
 597              		.loc 2 126 66 view .LVU136
 598 01a4 00F01F00 		and	r0, r0, #31	@ tmp123, IRQn,
 599              	.LVL7:
 600              	@ ../5-TempR_LCD_Serial/Me.h:126:    NVIC->ICER[((uint32_t)(IRQn) >> 5)] = (1 << ((uint32_t)(IRQn) 
 601              		.loc 2 126 45 view .LVU137
 602 01a8 02FA00F0 		lsl	r0, r2, r0	@ _7, tmp124, tmp123
 603              	@ ../5-TempR_LCD_Serial/Me.h:126:    NVIC->ICER[((uint32_t)(IRQn) >> 5)] = (1 << ((uint32_t)(IRQn) 
 604              		.loc 2 126 40 view .LVU138
 605 01ac 024A     		ldr	r2, .L35	@ tmp125,
 606 01ae 2033     		adds	r3, r3, #32	@ tmp126, _6,
 607 01b0 42F82300 		str	r0, [r2, r3, lsl #2]	@ _7, MEM[(struct NVIC_Type *)3758153984B].ICER[_6]
 608              	@ ../5-TempR_LCD_Serial/Me.h:127: }
 127:../5-TempR_LCD_Serial/Me.h **** }
 609              		.loc 2 127 1 view .LVU139
ARM GAS  /tmp/ccZoGyG7.s 			page 16


 610 01b4 7047     		bx	lr	@
 611              	.L36:
 612 01b6 00BF     		.align	2
 613              	.L35:
 614 01b8 00E100E0 		.word	-536813312
 615              		.cfi_endproc
 616              	.LFE39:
 617              		.size	disable_interrupt, .-disable_interrupt
 618              		.align	1
 619              		.global	USART_init
 620              		.syntax unified
 621              		.thumb
 622              		.thumb_func
 623              		.type	USART_init, %function
 624              	USART_init:
 625              	.LFB40:
 626              		.file 3 "../5-TempR_LCD_Serial/Serial.h"
   1:../5-TempR_LCD_Serial/Serial.h **** // #ifndef	SERIAL_K
   2:../5-TempR_LCD_Serial/Serial.h **** // #define 	SERIAL_K
   3:../5-TempR_LCD_Serial/Serial.h **** 
   4:../5-TempR_LCD_Serial/Serial.h **** void USARTSend(char *pucBuffer);
   5:../5-TempR_LCD_Serial/Serial.h **** void USART_init(void);
   6:../5-TempR_LCD_Serial/Serial.h **** 
   7:../5-TempR_LCD_Serial/Serial.h **** void USART_init(void) {
 627              		.loc 3 7 23 is_stmt 1 view -0
 628              		.cfi_startproc
 629              		@ args = 0, pretend = 0, frame = 24
 630              		@ frame_needed = 0, uses_anonymous_args = 0
   8:../5-TempR_LCD_Serial/Serial.h ****    /* Enable USART1 and GPIOA clock */
   9:../5-TempR_LCD_Serial/Serial.h ****    RCC_APB2PeriphClockCmd(RCC_APB2Periph_USART1 | RCC_APB2Periph_GPIOA, ENABLE);
 631              		.loc 3 9 4 view .LVU141
 632              	@ ../5-TempR_LCD_Serial/Serial.h:7: void USART_init(void) {
   7:../5-TempR_LCD_Serial/Serial.h ****    /* Enable USART1 and GPIOA clock */
 633              		.loc 3 7 23 is_stmt 0 view .LVU142
 634 01bc 10B5     		push	{r4, lr}	@
 635              	.LCFI4:
 636              		.cfi_def_cfa_offset 8
 637              		.cfi_offset 4, -8
 638              		.cfi_offset 14, -4
 639              	@ ../5-TempR_LCD_Serial/Serial.h:9:    RCC_APB2PeriphClockCmd(RCC_APB2Periph_USART1 | RCC_APB2Perip
 640              		.loc 3 9 4 view .LVU143
 641 01be 0121     		movs	r1, #1	@,
 642              	@ ../5-TempR_LCD_Serial/Serial.h:7: void USART_init(void) {
   7:../5-TempR_LCD_Serial/Serial.h ****    /* Enable USART1 and GPIOA clock */
 643              		.loc 3 7 23 view .LVU144
 644 01c0 86B0     		sub	sp, sp, #24	@,,
 645              	.LCFI5:
 646              		.cfi_def_cfa_offset 32
 647              	@ ../5-TempR_LCD_Serial/Serial.h:9:    RCC_APB2PeriphClockCmd(RCC_APB2Periph_USART1 | RCC_APB2Perip
 648              		.loc 3 9 4 view .LVU145
 649 01c2 44F20400 		movw	r0, #16388	@,
 650 01c6 FFF7FEFF 		bl	RCC_APB2PeriphClockCmd		@
 651              	.LVL8:
  10:../5-TempR_LCD_Serial/Serial.h **** 
  11:../5-TempR_LCD_Serial/Serial.h ****    /* Configure the GPIOs */
  12:../5-TempR_LCD_Serial/Serial.h ****    GPIO_InitTypeDef GPIO_InitStructure;
 652              		.loc 3 12 4 is_stmt 1 view .LVU146
ARM GAS  /tmp/ccZoGyG7.s 			page 17


  13:../5-TempR_LCD_Serial/Serial.h **** 
  14:../5-TempR_LCD_Serial/Serial.h ****    /* Configure USART1 Tx (PA.09) as alternate function push-pull */
  15:../5-TempR_LCD_Serial/Serial.h ****    GPIO_InitStructure.GPIO_Pin = GPIO_Pin_9;
 653              		.loc 3 15 4 view .LVU147
  16:../5-TempR_LCD_Serial/Serial.h ****    GPIO_InitStructure.GPIO_Mode = GPIO_Mode_AF_PP;
 654              		.loc 3 16 4 view .LVU148
  17:../5-TempR_LCD_Serial/Serial.h ****    GPIO_InitStructure.GPIO_Speed = GPIO_Speed_50MHz;
 655              		.loc 3 17 4 view .LVU149
 656              	@ ../5-TempR_LCD_Serial/Serial.h:15:    GPIO_InitStructure.GPIO_Pin = GPIO_Pin_9;
  15:../5-TempR_LCD_Serial/Serial.h ****    GPIO_InitStructure.GPIO_Mode = GPIO_Mode_AF_PP;
 657              		.loc 3 15 32 is_stmt 0 view .LVU150
 658 01ca 4FF40073 		mov	r3, #512	@ tmp114,
 659 01ce ADF80430 		strh	r3, [sp, #4]	@ movhi	@ tmp114, GPIO_InitStructure.GPIO_Pin
 660              	@ ../5-TempR_LCD_Serial/Serial.h:17:    GPIO_InitStructure.GPIO_Speed = GPIO_Speed_50MHz;
 661              		.loc 3 17 34 view .LVU151
 662 01d2 41F60303 		movw	r3, #6147	@ tmp116,
 663              	@ ../5-TempR_LCD_Serial/Serial.h:18:    GPIO_Init(GPIOA, &GPIO_InitStructure);
  18:../5-TempR_LCD_Serial/Serial.h ****    GPIO_Init(GPIOA, &GPIO_InitStructure);
 664              		.loc 3 18 4 view .LVU152
 665 01d6 144C     		ldr	r4, .L38	@ tmp118,
 666 01d8 01A9     		add	r1, sp, #4	@ tmp134,,
 667 01da 2046     		mov	r0, r4	@, tmp118
 668              	@ ../5-TempR_LCD_Serial/Serial.h:17:    GPIO_InitStructure.GPIO_Speed = GPIO_Speed_50MHz;
  17:../5-TempR_LCD_Serial/Serial.h ****    GPIO_InitStructure.GPIO_Speed = GPIO_Speed_50MHz;
 669              		.loc 3 17 34 view .LVU153
 670 01dc ADF80630 		strh	r3, [sp, #6]	@ movhi	@ tmp116, MEM <unsigned short> [(void *)&GPIO_InitStructure + 2B]
 671              		.loc 3 18 4 is_stmt 1 view .LVU154
 672 01e0 FFF7FEFF 		bl	GPIO_Init		@
 673              	.LVL9:
  19:../5-TempR_LCD_Serial/Serial.h **** 
  20:../5-TempR_LCD_Serial/Serial.h ****    /* Configure USART1 Rx (PA.10) as input floating */
  21:../5-TempR_LCD_Serial/Serial.h ****    GPIO_InitStructure.GPIO_Pin = GPIO_Pin_10;
 674              		.loc 3 21 4 view .LVU155
 675              	@ ../5-TempR_LCD_Serial/Serial.h:21:    GPIO_InitStructure.GPIO_Pin = GPIO_Pin_10;
 676              		.loc 3 21 32 is_stmt 0 view .LVU156
 677 01e4 4FF48063 		mov	r3, #1024	@ tmp120,
 678 01e8 ADF80430 		strh	r3, [sp, #4]	@ movhi	@ tmp120, GPIO_InitStructure.GPIO_Pin
  22:../5-TempR_LCD_Serial/Serial.h ****    GPIO_InitStructure.GPIO_Mode = GPIO_Mode_IN_FLOATING;
 679              		.loc 3 22 4 is_stmt 1 view .LVU157
 680              	@ ../5-TempR_LCD_Serial/Serial.h:22:    GPIO_InitStructure.GPIO_Mode = GPIO_Mode_IN_FLOATING;
 681              		.loc 3 22 33 is_stmt 0 view .LVU158
 682 01ec 0423     		movs	r3, #4	@ tmp121,
 683              	@ ../5-TempR_LCD_Serial/Serial.h:23:    GPIO_Init(GPIOA, &GPIO_InitStructure);
  23:../5-TempR_LCD_Serial/Serial.h ****    GPIO_Init(GPIOA, &GPIO_InitStructure);
 684              		.loc 3 23 4 view .LVU159
 685 01ee 2046     		mov	r0, r4	@, tmp118
 686 01f0 0DEB0301 		add	r1, sp, r3	@ tmp135,,
 687              	@ ../5-TempR_LCD_Serial/Serial.h:22:    GPIO_InitStructure.GPIO_Mode = GPIO_Mode_IN_FLOATING;
  22:../5-TempR_LCD_Serial/Serial.h ****    GPIO_InitStructure.GPIO_Mode = GPIO_Mode_IN_FLOATING;
 688              		.loc 3 22 33 view .LVU160
 689 01f4 8DF80730 		strb	r3, [sp, #7]	@ tmp121, GPIO_InitStructure.GPIO_Mode
 690              		.loc 3 23 4 is_stmt 1 view .LVU161
 691 01f8 FFF7FEFF 		bl	GPIO_Init		@
 692              	.LVL10:
  24:../5-TempR_LCD_Serial/Serial.h **** 
  25:../5-TempR_LCD_Serial/Serial.h ****    /* Configure the USART1 */
  26:../5-TempR_LCD_Serial/Serial.h ****    USART_InitTypeDef USART_InitStructure;
ARM GAS  /tmp/ccZoGyG7.s 			page 18


 693              		.loc 3 26 4 view .LVU162
  27:../5-TempR_LCD_Serial/Serial.h ****    USART_InitStructure.USART_BaudRate = 115200;
 694              		.loc 3 27 4 view .LVU163
  28:../5-TempR_LCD_Serial/Serial.h ****    USART_InitStructure.USART_WordLength = USART_WordLength_8b;
 695              		.loc 3 28 4 view .LVU164
  29:../5-TempR_LCD_Serial/Serial.h ****    USART_InitStructure.USART_StopBits = USART_StopBits_1;
 696              		.loc 3 29 4 view .LVU165
  30:../5-TempR_LCD_Serial/Serial.h ****    USART_InitStructure.USART_Parity = USART_Parity_No;
 697              		.loc 3 30 4 view .LVU166
  31:../5-TempR_LCD_Serial/Serial.h ****    USART_InitStructure.USART_HardwareFlowControl = USART_HardwareFlowControl_None;
 698              		.loc 3 31 4 view .LVU167
  32:../5-TempR_LCD_Serial/Serial.h ****    USART_InitStructure.USART_Mode = USART_Mode_Rx | USART_Mode_Tx;
 699              		.loc 3 32 4 view .LVU168
 700              	@ ../5-TempR_LCD_Serial/Serial.h:28:    USART_InitStructure.USART_WordLength = USART_WordLength_8b;
  28:../5-TempR_LCD_Serial/Serial.h ****    USART_InitStructure.USART_StopBits = USART_StopBits_1;
 701              		.loc 3 28 41 is_stmt 0 view .LVU169
 702 01fc 0023     		movs	r3, #0	@ tmp126,
 703 01fe 4FF4E132 		mov	r2, #115200	@,
 704 0202 CDE90223 		strd	r2, r3, [sp, #8]	@, tmp126,,
 705              	@ ../5-TempR_LCD_Serial/Serial.h:30:    USART_InitStructure.USART_Parity = USART_Parity_No;
  30:../5-TempR_LCD_Serial/Serial.h ****    USART_InitStructure.USART_HardwareFlowControl = USART_HardwareFlowControl_None;
 706              		.loc 3 30 37 view .LVU170
 707 0206 4FF44022 		mov	r2, #786432	@ tmp127,
 708              	@ ../5-TempR_LCD_Serial/Serial.h:34:    USART_Init(USART1, &USART_InitStructure);
  33:../5-TempR_LCD_Serial/Serial.h **** 
  34:../5-TempR_LCD_Serial/Serial.h ****    USART_Init(USART1, &USART_InitStructure);
 709              		.loc 3 34 4 view .LVU171
 710 020a 04F54054 		add	r4, r4, #12288	@ tmp131, tmp131,
 711 020e 2046     		mov	r0, r4	@, tmp131
 712 0210 02A9     		add	r1, sp, #8	@,,
 713              	@ ../5-TempR_LCD_Serial/Serial.h:30:    USART_InitStructure.USART_Parity = USART_Parity_No;
  30:../5-TempR_LCD_Serial/Serial.h ****    USART_InitStructure.USART_HardwareFlowControl = USART_HardwareFlowControl_None;
 714              		.loc 3 30 37 view .LVU172
 715 0212 0492     		str	r2, [sp, #16]	@ tmp127, MEM <unsigned int> [(short unsigned int *)&USART_InitStructure + 8B]
 716              	@ ../5-TempR_LCD_Serial/Serial.h:31:    USART_InitStructure.USART_HardwareFlowControl = USART_Hardw
  31:../5-TempR_LCD_Serial/Serial.h ****    USART_InitStructure.USART_Mode = USART_Mode_Rx | USART_Mode_Tx;
 717              		.loc 3 31 50 view .LVU173
 718 0214 ADF81430 		strh	r3, [sp, #20]	@ movhi	@ tmp126, USART_InitStructure.USART_HardwareFlowControl
 719              		.loc 3 34 4 is_stmt 1 view .LVU174
 720 0218 FFF7FEFF 		bl	USART_Init		@
 721              	.LVL11:
  35:../5-TempR_LCD_Serial/Serial.h **** 
  36:../5-TempR_LCD_Serial/Serial.h ****    /* Enable USART1 */
  37:../5-TempR_LCD_Serial/Serial.h ****    USART_Cmd(USART1, ENABLE);
 722              		.loc 3 37 4 view .LVU175
 723 021c 0121     		movs	r1, #1	@,
 724 021e 2046     		mov	r0, r4	@, tmp131
 725 0220 FFF7FEFF 		bl	USART_Cmd		@
 726              	.LVL12:
 727              	@ ../5-TempR_LCD_Serial/Serial.h:38: }
  38:../5-TempR_LCD_Serial/Serial.h **** }
 728              		.loc 3 38 1 is_stmt 0 view .LVU176
 729 0224 06B0     		add	sp, sp, #24	@,,
 730              	.LCFI6:
 731              		.cfi_def_cfa_offset 8
 732              		@ sp needed	@
 733 0226 10BD     		pop	{r4, pc}	@
ARM GAS  /tmp/ccZoGyG7.s 			page 19


 734              	.L39:
 735              		.align	2
 736              	.L38:
 737 0228 00080140 		.word	1073809408
 738              		.cfi_endproc
 739              	.LFE40:
 740              		.size	USART_init, .-USART_init
 741              		.align	1
 742              		.global	USARTSend
 743              		.syntax unified
 744              		.thumb
 745              		.thumb_func
 746              		.type	USARTSend, %function
 747              	USARTSend:
 748              	.LVL13:
 749              	.LFB41:
  39:../5-TempR_LCD_Serial/Serial.h **** 
  40:../5-TempR_LCD_Serial/Serial.h **** void USARTSend(char *pucBuffer) {
 750              		.loc 3 40 33 is_stmt 1 view -0
 751              		.cfi_startproc
 752              		@ args = 0, pretend = 0, frame = 0
 753              		@ frame_needed = 0, uses_anonymous_args = 0
  41:../5-TempR_LCD_Serial/Serial.h ****     while (*pucBuffer)
 754              		.loc 3 41 5 view .LVU178
 755              	@ ../5-TempR_LCD_Serial/Serial.h:40: void USARTSend(char *pucBuffer) {
  40:../5-TempR_LCD_Serial/Serial.h ****     while (*pucBuffer)
 756              		.loc 3 40 33 is_stmt 0 view .LVU179
 757 022c 38B5     		push	{r3, r4, r5, lr}	@
 758              	.LCFI7:
 759              		.cfi_def_cfa_offset 16
 760              		.cfi_offset 3, -16
 761              		.cfi_offset 4, -12
 762              		.cfi_offset 5, -8
 763              		.cfi_offset 14, -4
 764              	@ ../5-TempR_LCD_Serial/Serial.h:43:         USART_SendData(USART1, *pucBuffer++);
  42:../5-TempR_LCD_Serial/Serial.h ****     {
  43:../5-TempR_LCD_Serial/Serial.h ****         USART_SendData(USART1, *pucBuffer++);
 765              		.loc 3 43 9 view .LVU180
 766 022e 084D     		ldr	r5, .L46	@ tmp126,
 767 0230 441E     		subs	r4, r0, #1	@ ivtmp.54, tmp128,
 768              	.LVL14:
 769              	.L41:
  41:../5-TempR_LCD_Serial/Serial.h ****     {
 770              		.loc 3 41 11 is_stmt 1 view .LVU181
 771              	@ ../5-TempR_LCD_Serial/Serial.h:41:     while (*pucBuffer)
  41:../5-TempR_LCD_Serial/Serial.h ****     {
 772              		.loc 3 41 12 is_stmt 0 view .LVU182
 773 0232 14F8011F 		ldrb	r1, [r4, #1]!	@ zero_extendqisi2	@ _3, MEM[base: _16, offset: 0B]
 774              	.LVL15:
 775              	@ ../5-TempR_LCD_Serial/Serial.h:41:     while (*pucBuffer)
  41:../5-TempR_LCD_Serial/Serial.h ****     {
 776              		.loc 3 41 11 view .LVU183
 777 0236 01B9     		cbnz	r1, .L43	@ _3,
 778              	@ ../5-TempR_LCD_Serial/Serial.h:48: }
  44:../5-TempR_LCD_Serial/Serial.h ****         while(USART_GetFlagStatus(USART1, USART_FLAG_TC) == RESET)
  45:../5-TempR_LCD_Serial/Serial.h ****         {
  46:../5-TempR_LCD_Serial/Serial.h ****         }
ARM GAS  /tmp/ccZoGyG7.s 			page 20


  47:../5-TempR_LCD_Serial/Serial.h ****     }
  48:../5-TempR_LCD_Serial/Serial.h **** }
 779              		.loc 3 48 1 view .LVU184
 780 0238 38BD     		pop	{r3, r4, r5, pc}	@
 781              	.LVL16:
 782              	.L43:
  43:../5-TempR_LCD_Serial/Serial.h ****         while(USART_GetFlagStatus(USART1, USART_FLAG_TC) == RESET)
 783              		.loc 3 43 9 is_stmt 1 view .LVU185
  43:../5-TempR_LCD_Serial/Serial.h ****         while(USART_GetFlagStatus(USART1, USART_FLAG_TC) == RESET)
 784              		.loc 3 43 9 is_stmt 0 view .LVU186
 785 023a 2846     		mov	r0, r5	@, tmp126
 786 023c FFF7FEFF 		bl	USART_SendData		@
 787              	.LVL17:
  44:../5-TempR_LCD_Serial/Serial.h ****         while(USART_GetFlagStatus(USART1, USART_FLAG_TC) == RESET)
 788              		.loc 3 44 9 is_stmt 1 view .LVU187
 789              	.L42:
  46:../5-TempR_LCD_Serial/Serial.h ****     }
 790              		.loc 3 46 9 discriminator 1 view .LVU188
  44:../5-TempR_LCD_Serial/Serial.h ****         while(USART_GetFlagStatus(USART1, USART_FLAG_TC) == RESET)
 791              		.loc 3 44 14 discriminator 1 view .LVU189
 792              	@ ../5-TempR_LCD_Serial/Serial.h:44:         while(USART_GetFlagStatus(USART1, USART_FLAG_TC) == RE
  44:../5-TempR_LCD_Serial/Serial.h ****         while(USART_GetFlagStatus(USART1, USART_FLAG_TC) == RESET)
 793              		.loc 3 44 15 is_stmt 0 discriminator 1 view .LVU190
 794 0240 4021     		movs	r1, #64	@,
 795 0242 2846     		mov	r0, r5	@, tmp126
 796 0244 FFF7FEFF 		bl	USART_GetFlagStatus		@
 797              	.LVL18:
 798              	@ ../5-TempR_LCD_Serial/Serial.h:44:         while(USART_GetFlagStatus(USART1, USART_FLAG_TC) == RE
  44:../5-TempR_LCD_Serial/Serial.h ****         while(USART_GetFlagStatus(USART1, USART_FLAG_TC) == RESET)
 799              		.loc 3 44 14 discriminator 1 view .LVU191
 800 0248 0028     		cmp	r0, #0	@ tmp129
 801 024a F9D0     		beq	.L42	@
 802 024c F1E7     		b	.L41		@
 803              	.L47:
 804 024e 00BF     		.align	2
 805              	.L46:
 806 0250 00380140 		.word	1073821696
 807              		.cfi_endproc
 808              	.LFE41:
 809              		.size	USARTSend, .-USARTSend
 810              		.align	1
 811              		.global	ADC9_Configuration
 812              		.syntax unified
 813              		.thumb
 814              		.thumb_func
 815              		.type	ADC9_Configuration, %function
 816              	ADC9_Configuration:
 817              	.LFB42:
 818              		.file 4 "../5-TempR_LCD_Serial/adc.h"
   1:../5-TempR_LCD_Serial/adc.h **** 
   2:../5-TempR_LCD_Serial/adc.h **** void ADC9_Configuration()
   3:../5-TempR_LCD_Serial/adc.h **** {
 819              		.loc 4 3 1 is_stmt 1 view -0
 820              		.cfi_startproc
 821              		@ args = 0, pretend = 0, frame = 0
 822              		@ frame_needed = 0, uses_anonymous_args = 0
 823              		@ link register save eliminated.
ARM GAS  /tmp/ccZoGyG7.s 			page 21


   4:../5-TempR_LCD_Serial/adc.h ****     // Habilitar o clock do ADC9
   5:../5-TempR_LCD_Serial/adc.h ****     RCC->APB2ENR |= RCC_APB2ENR_ADC2EN;
 824              		.loc 4 5 5 view .LVU193
 825              	@ ../5-TempR_LCD_Serial/adc.h:5:     RCC->APB2ENR |= RCC_APB2ENR_ADC2EN;
 826              		.loc 4 5 18 is_stmt 0 view .LVU194
 827 0254 174B     		ldr	r3, .L51	@ tmp135,
 828 0256 9A69     		ldr	r2, [r3, #24]	@ _1, MEM[(struct RCC_TypeDef *)1073876992B].APB2ENR
 829 0258 42F48062 		orr	r2, r2, #1024	@ _2, _1,
 830 025c 9A61     		str	r2, [r3, #24]	@ _2, MEM[(struct RCC_TypeDef *)1073876992B].APB2ENR
   6:../5-TempR_LCD_Serial/adc.h ****     RCC->APB2ENR |= (1<<3);
 831              		.loc 4 6 5 is_stmt 1 view .LVU195
 832              	@ ../5-TempR_LCD_Serial/adc.h:6:     RCC->APB2ENR |= (1<<3);
 833              		.loc 4 6 18 is_stmt 0 view .LVU196
 834 025e 9A69     		ldr	r2, [r3, #24]	@ _3, MEM[(struct RCC_TypeDef *)1073876992B].APB2ENR
 835 0260 42F00802 		orr	r2, r2, #8	@ _4, _3,
 836 0264 9A61     		str	r2, [r3, #24]	@ _4, MEM[(struct RCC_TypeDef *)1073876992B].APB2ENR
   7:../5-TempR_LCD_Serial/adc.h **** 
   8:../5-TempR_LCD_Serial/adc.h ****     // Configurar o pino PB1 como entrada analógica
   9:../5-TempR_LCD_Serial/adc.h ****     GPIOB->CRL &= ~(GPIO_CRL_MODE1 | GPIO_CRL_CNF1);
 837              		.loc 4 9 5 is_stmt 1 view .LVU197
 838              	@ ../5-TempR_LCD_Serial/adc.h:9:     GPIOB->CRL &= ~(GPIO_CRL_MODE1 | GPIO_CRL_CNF1);
 839              		.loc 4 9 16 is_stmt 0 view .LVU198
 840 0266 144A     		ldr	r2, .L51+4	@ tmp139,
 841 0268 1368     		ldr	r3, [r2]	@ _5, MEM[(struct GPIO_TypeDef *)1073810432B].CRL
 842 026a 23F0F003 		bic	r3, r3, #240	@ _6, _5,
 843 026e 1360     		str	r3, [r2]	@ _6, MEM[(struct GPIO_TypeDef *)1073810432B].CRL
  10:../5-TempR_LCD_Serial/adc.h ****     // GPIOB->CRL |= GPIO_CRL_CNF1_0;
  11:../5-TempR_LCD_Serial/adc.h **** 
  12:../5-TempR_LCD_Serial/adc.h ****     // Configurar as seguintes opções para o ADC9:
  13:../5-TempR_LCD_Serial/adc.h ****     // - Modo de operação: modo independente
  14:../5-TempR_LCD_Serial/adc.h ****     // - Modo de conversão: Contínua
  15:../5-TempR_LCD_Serial/adc.h ****     // - Resolução: 12 bits
  16:../5-TempR_LCD_Serial/adc.h ****     // - Fator de divisão do clock: 4 (seleciona um clock ADC de 14 MHz)
  17:../5-TempR_LCD_Serial/adc.h ****     ADC2->CR1 &= ~(ADC_CR1_DISCEN | ADC_CR1_SCAN);
 844              		.loc 4 17 5 is_stmt 1 view .LVU199
 845              	@ ../5-TempR_LCD_Serial/adc.h:17:     ADC2->CR1 &= ~(ADC_CR1_DISCEN | ADC_CR1_SCAN);
 846              		.loc 4 17 15 is_stmt 0 view .LVU200
 847 0270 124B     		ldr	r3, .L51+8	@ tmp141,
 848 0272 5A68     		ldr	r2, [r3, #4]	@ _7, MEM[(struct ADC_TypeDef *)1073817600B].CR1
 849 0274 22F41062 		bic	r2, r2, #2304	@ _8, _7,
 850 0278 5A60     		str	r2, [r3, #4]	@ _8, MEM[(struct ADC_TypeDef *)1073817600B].CR1
  18:../5-TempR_LCD_Serial/adc.h ****     ADC2->CR1 |= ADC_CR1_EOCIE;
 851              		.loc 4 18 5 is_stmt 1 view .LVU201
 852              	@ ../5-TempR_LCD_Serial/adc.h:18:     ADC2->CR1 |= ADC_CR1_EOCIE;
 853              		.loc 4 18 15 is_stmt 0 view .LVU202
 854 027a 5A68     		ldr	r2, [r3, #4]	@ _9, MEM[(struct ADC_TypeDef *)1073817600B].CR1
 855 027c 42F02002 		orr	r2, r2, #32	@ _10, _9,
 856 0280 5A60     		str	r2, [r3, #4]	@ _10, MEM[(struct ADC_TypeDef *)1073817600B].CR1
  19:../5-TempR_LCD_Serial/adc.h ****     ADC2->CR2 &= ~(ADC_CR2_CONT | ADC_CR2_ALIGN | ADC_CR2_EXTSEL | ADC_CR2_EXTTRIG);
 857              		.loc 4 19 5 is_stmt 1 view .LVU203
 858              	@ ../5-TempR_LCD_Serial/adc.h:19:     ADC2->CR2 &= ~(ADC_CR2_CONT | ADC_CR2_ALIGN | ADC_CR2_EXTSEL 
 859              		.loc 4 19 15 is_stmt 0 view .LVU204
 860 0282 9968     		ldr	r1, [r3, #8]	@ _11, MEM[(struct ADC_TypeDef *)1073817600B].CR2
 861 0284 0E4A     		ldr	r2, .L51+12	@ _12,
 862 0286 0A40     		ands	r2, r2, r1	@, _12, _12, _11
 863 0288 9A60     		str	r2, [r3, #8]	@ _12, MEM[(struct ADC_TypeDef *)1073817600B].CR2
  20:../5-TempR_LCD_Serial/adc.h **** 
ARM GAS  /tmp/ccZoGyG7.s 			page 22


  21:../5-TempR_LCD_Serial/adc.h ****     ADC2->CR2 |= ADC_CR2_ADON | ADC_CR2_CONT | ADC_CR2_RSTCAL;
 864              		.loc 4 21 5 is_stmt 1 view .LVU205
 865              	@ ../5-TempR_LCD_Serial/adc.h:21:     ADC2->CR2 |= ADC_CR2_ADON | ADC_CR2_CONT | ADC_CR2_RSTCAL;
 866              		.loc 4 21 15 is_stmt 0 view .LVU206
 867 028a 9A68     		ldr	r2, [r3, #8]	@ _13, MEM[(struct ADC_TypeDef *)1073817600B].CR2
 868 028c 42F00B02 		orr	r2, r2, #11	@ _14, _13,
 869 0290 9A60     		str	r2, [r3, #8]	@ _14, MEM[(struct ADC_TypeDef *)1073817600B].CR2
  22:../5-TempR_LCD_Serial/adc.h **** 
  23:../5-TempR_LCD_Serial/adc.h ****     ADC2->SMPR2 |= ADC_SMPR2_SMP9_0 | ADC_SMPR2_SMP9_1;
 870              		.loc 4 23 5 is_stmt 1 view .LVU207
 871              	@ ../5-TempR_LCD_Serial/adc.h:23:     ADC2->SMPR2 |= ADC_SMPR2_SMP9_0 | ADC_SMPR2_SMP9_1;
 872              		.loc 4 23 17 is_stmt 0 view .LVU208
 873 0292 1A69     		ldr	r2, [r3, #16]	@ _15, MEM[(struct ADC_TypeDef *)1073817600B].SMPR2
 874 0294 42F0C052 		orr	r2, r2, #402653184	@ _16, _15,
 875 0298 1A61     		str	r2, [r3, #16]	@ _16, MEM[(struct ADC_TypeDef *)1073817600B].SMPR2
  24:../5-TempR_LCD_Serial/adc.h ****     ADC2->SQR3 |= 9;
 876              		.loc 4 24 5 is_stmt 1 view .LVU209
 877              	@ ../5-TempR_LCD_Serial/adc.h:24:     ADC2->SQR3 |= 9;
 878              		.loc 4 24 16 is_stmt 0 view .LVU210
 879 029a 5A6B     		ldr	r2, [r3, #52]	@ _17, MEM[(struct ADC_TypeDef *)1073817600B].SQR3
 880 029c 42F00902 		orr	r2, r2, #9	@ _18, _17,
 881 02a0 5A63     		str	r2, [r3, #52]	@ _18, MEM[(struct ADC_TypeDef *)1073817600B].SQR3
  25:../5-TempR_LCD_Serial/adc.h **** 
  26:../5-TempR_LCD_Serial/adc.h **** 	while(ADC2->CR2 & ADC_CR2_RSTCAL);
 882              		.loc 4 26 2 is_stmt 1 view .LVU211
 883              	.L49:
 884              		.loc 4 26 35 discriminator 1 view .LVU212
 885              		.loc 4 26 7 discriminator 1 view .LVU213
 886              	@ ../5-TempR_LCD_Serial/adc.h:26: 	while(ADC2->CR2 & ADC_CR2_RSTCAL);
 887              		.loc 4 26 12 is_stmt 0 discriminator 1 view .LVU214
 888 02a2 9A68     		ldr	r2, [r3, #8]	@ _19, MEM[(struct ADC_TypeDef *)1073817600B].CR2
 889              	@ ../5-TempR_LCD_Serial/adc.h:26: 	while(ADC2->CR2 & ADC_CR2_RSTCAL);
 890              		.loc 4 26 7 discriminator 1 view .LVU215
 891 02a4 1207     		lsls	r2, r2, #28	@, _19,
 892 02a6 FCD4     		bmi	.L49		@,
  27:../5-TempR_LCD_Serial/adc.h **** 
  28:../5-TempR_LCD_Serial/adc.h ****     // Habilitar o ADC9
  29:../5-TempR_LCD_Serial/adc.h ****     ADC2->CR2 |= ADC_CR2_ADON;
 893              		.loc 4 29 5 is_stmt 1 view .LVU216
 894              	@ ../5-TempR_LCD_Serial/adc.h:29:     ADC2->CR2 |= ADC_CR2_ADON;
 895              		.loc 4 29 15 is_stmt 0 view .LVU217
 896 02a8 9A68     		ldr	r2, [r3, #8]	@ _21, MEM[(struct ADC_TypeDef *)1073817600B].CR2
 897 02aa 42F00102 		orr	r2, r2, #1	@ _22, _21,
 898 02ae 9A60     		str	r2, [r3, #8]	@ _22, MEM[(struct ADC_TypeDef *)1073817600B].CR2
 899              	@ ../5-TempR_LCD_Serial/adc.h:30: }
  30:../5-TempR_LCD_Serial/adc.h **** }
 900              		.loc 4 30 1 view .LVU218
 901 02b0 7047     		bx	lr	@
 902              	.L52:
 903 02b2 00BF     		.align	2
 904              	.L51:
 905 02b4 00100240 		.word	1073876992
 906 02b8 000C0140 		.word	1073810432
 907 02bc 00280140 		.word	1073817600
 908 02c0 FDF7E1FF 		.word	-1968131
 909              		.cfi_endproc
 910              	.LFE42:
ARM GAS  /tmp/ccZoGyG7.s 			page 23


 911              		.size	ADC9_Configuration, .-ADC9_Configuration
 912              		.align	1
 913              		.global	task3
 914              		.syntax unified
 915              		.thumb
 916              		.thumb_func
 917              		.type	task3, %function
 918              	task3:
 919              	.LVL19:
 920              	.LFB47:
 101:../5-TempR_LCD_Serial/main.c **** 	}
 102:../5-TempR_LCD_Serial/main.c **** }
 103:../5-TempR_LCD_Serial/main.c **** 
 104:../5-TempR_LCD_Serial/main.c **** 
 105:../5-TempR_LCD_Serial/main.c ****  void task3(void *args __attribute ((unused))){
 921              		.loc 1 105 47 is_stmt 1 view -0
 922              		.cfi_startproc
 923              		@ Volatile: function does not return.
 924              		@ args = 0, pretend = 0, frame = 8
 925              		@ frame_needed = 0, uses_anonymous_args = 0
 106:../5-TempR_LCD_Serial/main.c **** 	/* [1---]
 107:../5-TempR_LCD_Serial/main.c **** 	 *
 108:../5-TempR_LCD_Serial/main.c **** 	 * Tarefa dedicada a leitura do sensor de temperatura
 109:../5-TempR_LCD_Serial/main.c **** 	 * usando ADC9 -> PB1
 110:../5-TempR_LCD_Serial/main.c **** 	 *
 111:../5-TempR_LCD_Serial/main.c **** 	 * O valor amostrado deve ser transmitido a cada 500ms
 112:../5-TempR_LCD_Serial/main.c **** 	 * usando área de memória compartilhada. -> [2---]
 113:../5-TempR_LCD_Serial/main.c **** 	 *
 114:../5-TempR_LCD_Serial/main.c **** 	 * */
 115:../5-TempR_LCD_Serial/main.c **** 
 116:../5-TempR_LCD_Serial/main.c **** 	ADC9_Configuration();
 926              		.loc 1 116 2 view .LVU220
 927              	@ ../5-TempR_LCD_Serial/main.c:105:  void task3(void *args __attribute ((unused))){
 105:../5-TempR_LCD_Serial/main.c **** 	/* [1---]
 928              		.loc 1 105 47 is_stmt 0 view .LVU221
 929 02c4 07B5     		push	{r0, r1, r2, lr}	@
 930              	.LCFI8:
 931              		.cfi_def_cfa_offset 16
 932              		.cfi_offset 14, -4
 933              	@ ../5-TempR_LCD_Serial/main.c:116: 	ADC9_Configuration();
 934              		.loc 1 116 2 view .LVU222
 935 02c6 FFF7FEFF 		bl	ADC9_Configuration		@
 936              	.LVL20:
 937              	@ ../5-TempR_LCD_Serial/main.c:121: 		Valor_ADC_normalizado = ADC2->DR;
 117:../5-TempR_LCD_Serial/main.c **** 	u32 Valor_ADC_normalizado; 
 118:../5-TempR_LCD_Serial/main.c **** 
 119:../5-TempR_LCD_Serial/main.c **** 	while(1){
 120:../5-TempR_LCD_Serial/main.c **** 
 121:../5-TempR_LCD_Serial/main.c **** 		Valor_ADC_normalizado = ADC2->DR;
 938              		.loc 1 121 31 view .LVU223
 939 02ca 074D     		ldr	r5, .L55	@ tmp116,
 940              	@ ../5-TempR_LCD_Serial/main.c:123: 		xQueueSend(LCD_Show_queue, &Valor_ADC_normalizado, 0);
 122:../5-TempR_LCD_Serial/main.c **** 
 123:../5-TempR_LCD_Serial/main.c **** 		xQueueSend(LCD_Show_queue, &Valor_ADC_normalizado, 0);
 941              		.loc 1 123 3 view .LVU224
 942 02cc 074C     		ldr	r4, .L55+4	@ tmp118,
 943              	.LVL21:
ARM GAS  /tmp/ccZoGyG7.s 			page 24


 944              	.L54:
 117:../5-TempR_LCD_Serial/main.c **** 	u32 Valor_ADC_normalizado; 
 945              		.loc 1 117 2 is_stmt 1 discriminator 1 view .LVU225
 119:../5-TempR_LCD_Serial/main.c **** 
 946              		.loc 1 119 2 discriminator 1 view .LVU226
 121:../5-TempR_LCD_Serial/main.c **** 
 947              		.loc 1 121 3 discriminator 1 view .LVU227
 948              	@ ../5-TempR_LCD_Serial/main.c:121: 		Valor_ADC_normalizado = ADC2->DR;
 121:../5-TempR_LCD_Serial/main.c **** 
 949              		.loc 1 121 31 is_stmt 0 discriminator 1 view .LVU228
 950 02ce EB6C     		ldr	r3, [r5, #76]	@ _1, MEM[(struct ADC_TypeDef *)1073817600B].DR
 951              	@ ../5-TempR_LCD_Serial/main.c:123: 		xQueueSend(LCD_Show_queue, &Valor_ADC_normalizado, 0);
 952              		.loc 1 123 3 discriminator 1 view .LVU229
 953 02d0 2068     		ldr	r0, [r4]	@, LCD_Show_queue
 954              	@ ../5-TempR_LCD_Serial/main.c:121: 		Valor_ADC_normalizado = ADC2->DR;
 121:../5-TempR_LCD_Serial/main.c **** 
 955              		.loc 1 121 25 discriminator 1 view .LVU230
 956 02d2 0193     		str	r3, [sp, #4]	@ _1, Valor_ADC_normalizado
 957              		.loc 1 123 3 is_stmt 1 discriminator 1 view .LVU231
 958 02d4 0023     		movs	r3, #0	@,
 959 02d6 01A9     		add	r1, sp, #4	@ tmp120,,
 960 02d8 1A46     		mov	r2, r3	@,
 961 02da FFF7FEFF 		bl	xQueueGenericSend		@
 962              	.LVL22:
 124:../5-TempR_LCD_Serial/main.c **** 		__delay_ms(500);
 963              		.loc 1 124 3 discriminator 1 view .LVU232
 964 02de 4CF25030 		movw	r0, #50000	@,
 965 02e2 FFF7FEFF 		bl	vTaskDelay		@
 966              	.LVL23:
 119:../5-TempR_LCD_Serial/main.c **** 
 967              		.loc 1 119 7 discriminator 1 view .LVU233
 968 02e6 F2E7     		b	.L54		@
 969              	.L56:
 970              		.align	2
 971              	.L55:
 972 02e8 00280140 		.word	1073817600
 973 02ec 00000000 		.word	.LANCHOR0
 974              		.cfi_endproc
 975              	.LFE47:
 976              		.size	task3, .-task3
 977              		.align	1
 978              		.global	ADC9_GetValue
 979              		.syntax unified
 980              		.thumb
 981              		.thumb_func
 982              		.type	ADC9_GetValue, %function
 983              	ADC9_GetValue:
 984              	.LFB43:
  31:../5-TempR_LCD_Serial/adc.h **** 
  32:../5-TempR_LCD_Serial/adc.h **** uint16_t ADC9_GetValue()
  33:../5-TempR_LCD_Serial/adc.h **** {
 985              		.loc 4 33 1 view -0
 986              		.cfi_startproc
 987              		@ args = 0, pretend = 0, frame = 0
 988              		@ frame_needed = 0, uses_anonymous_args = 0
 989              		@ link register save eliminated.
  34:../5-TempR_LCD_Serial/adc.h ****     // Iniciar uma conversão no ADC9
ARM GAS  /tmp/ccZoGyG7.s 			page 25


  35:../5-TempR_LCD_Serial/adc.h ****     ADC2->CR2 |= ADC_CR2_SWSTART;
 990              		.loc 4 35 5 view .LVU235
 991              	@ ../5-TempR_LCD_Serial/adc.h:35:     ADC2->CR2 |= ADC_CR2_SWSTART;
 992              		.loc 4 35 15 is_stmt 0 view .LVU236
 993 02f0 054B     		ldr	r3, .L61	@ tmp119,
 994 02f2 9A68     		ldr	r2, [r3, #8]	@ _1, MEM[(struct ADC_TypeDef *)1073817600B].CR2
 995 02f4 42F48002 		orr	r2, r2, #4194304	@ _2, _1,
 996 02f8 9A60     		str	r2, [r3, #8]	@ _2, MEM[(struct ADC_TypeDef *)1073817600B].CR2
  36:../5-TempR_LCD_Serial/adc.h **** 
  37:../5-TempR_LCD_Serial/adc.h ****     // Aguardar o final da conversão
  38:../5-TempR_LCD_Serial/adc.h ****     while (!(ADC2->SR & ADC_SR_EOC))
 997              		.loc 4 38 5 is_stmt 1 view .LVU237
 998              	.L58:
  39:../5-TempR_LCD_Serial/adc.h ****     {
  40:../5-TempR_LCD_Serial/adc.h ****     }
 999              		.loc 4 40 5 discriminator 1 view .LVU238
  38:../5-TempR_LCD_Serial/adc.h ****     {
 1000              		.loc 4 38 11 discriminator 1 view .LVU239
 1001              	@ ../5-TempR_LCD_Serial/adc.h:38:     while (!(ADC2->SR & ADC_SR_EOC))
  38:../5-TempR_LCD_Serial/adc.h ****     {
 1002              		.loc 4 38 18 is_stmt 0 discriminator 1 view .LVU240
 1003 02fa 1A68     		ldr	r2, [r3]	@ _3, MEM[(struct ADC_TypeDef *)1073817600B].SR
 1004              	@ ../5-TempR_LCD_Serial/adc.h:38:     while (!(ADC2->SR & ADC_SR_EOC))
  38:../5-TempR_LCD_Serial/adc.h ****     {
 1005              		.loc 4 38 11 discriminator 1 view .LVU241
 1006 02fc 9207     		lsls	r2, r2, #30	@, _3,
 1007 02fe FCD5     		bpl	.L58		@,
  41:../5-TempR_LCD_Serial/adc.h **** 
  42:../5-TempR_LCD_Serial/adc.h ****     // Obter o valor convertido
  43:../5-TempR_LCD_Serial/adc.h ****     return ADC2->DR;
 1008              		.loc 4 43 5 is_stmt 1 view .LVU242
 1009              	@ ../5-TempR_LCD_Serial/adc.h:43:     return ADC2->DR;
 1010              		.loc 4 43 16 is_stmt 0 view .LVU243
 1011 0300 D86C     		ldr	r0, [r3, #76]	@ _5, MEM[(struct ADC_TypeDef *)1073817600B].DR
 1012              	@ ../5-TempR_LCD_Serial/adc.h:45: }
  44:../5-TempR_LCD_Serial/adc.h **** 
  45:../5-TempR_LCD_Serial/adc.h **** }
 1013              		.loc 4 45 1 view .LVU244
 1014 0302 80B2     		uxth	r0, r0	@, _5
 1015 0304 7047     		bx	lr	@
 1016              	.L62:
 1017 0306 00BF     		.align	2
 1018              	.L61:
 1019 0308 00280140 		.word	1073817600
 1020              		.cfi_endproc
 1021              	.LFE43:
 1022              		.size	ADC9_GetValue, .-ADC9_GetValue
 1023              		.section	.rodata.str1.1,"aMS",%progbits,1
 1024              	.LC0:
 1025 0000 2D2D2D2D 		.ascii	"----------------\000"
 1025      2D2D2D2D 
 1025      2D2D2D2D 
 1025      2D2D2D2D 
 1025      00
 1026              	.LC1:
 1027 0011 30313233 		.ascii	"0123456789abcdef\000"
 1027      34353637 
ARM GAS  /tmp/ccZoGyG7.s 			page 26


 1027      38396162 
 1027      63646566 
 1027      00
 1028              	.LC2:
 1029 0022 5800     		.ascii	"X\000"
 1030              	.LC3:
 1031 0024 2300     		.ascii	"#\000"
 1032              		.text
 1033              		.align	1
 1034              		.global	LCD16x2_init
 1035              		.syntax unified
 1036              		.thumb
 1037              		.thumb_func
 1038              		.type	LCD16x2_init, %function
 1039              	LCD16x2_init:
 1040              	.LFB44:
  46:../5-TempR_LCD_Serial/main.c **** 
 1041              		.loc 1 46 20 is_stmt 1 view -0
 1042              		.cfi_startproc
 1043              		@ args = 0, pretend = 0, frame = 0
 1044              		@ frame_needed = 0, uses_anonymous_args = 0
  48:../5-TempR_LCD_Serial/main.c **** 	GPIOA->CRL	 = 0x33333300; // Hab PA(2-7) out PP
 1045              		.loc 1 48 2 view .LVU246
 1046              	@ ../5-TempR_LCD_Serial/main.c:48: 	RCC->APB2ENR |= (1<<2);
  48:../5-TempR_LCD_Serial/main.c **** 	GPIOA->CRL	 = 0x33333300; // Hab PA(2-7) out PP
 1047              		.loc 1 48 15 is_stmt 0 view .LVU247
 1048 030c 294A     		ldr	r2, .L66	@ tmp132,
 1049              	@ ../5-TempR_LCD_Serial/main.c:46: void LCD16x2_init(){
  46:../5-TempR_LCD_Serial/main.c **** 
 1050              		.loc 1 46 20 view .LVU248
 1051 030e F8B5     		push	{r3, r4, r5, r6, r7, lr}	@
 1052              	.LCFI9:
 1053              		.cfi_def_cfa_offset 24
 1054              		.cfi_offset 3, -24
 1055              		.cfi_offset 4, -20
 1056              		.cfi_offset 5, -16
 1057              		.cfi_offset 6, -12
 1058              		.cfi_offset 7, -8
 1059              		.cfi_offset 14, -4
 1060              	@ ../5-TempR_LCD_Serial/main.c:48: 	RCC->APB2ENR |= (1<<2);
  48:../5-TempR_LCD_Serial/main.c **** 	GPIOA->CRL	 = 0x33333300; // Hab PA(2-7) out PP
 1061              		.loc 1 48 15 view .LVU249
 1062 0310 9369     		ldr	r3, [r2, #24]	@ _1, MEM[(struct RCC_TypeDef *)1073876992B].APB2ENR
 1063              	@ ../5-TempR_LCD_Serial/main.c:59: 	disp_text("0123456789abcdef", 1, 0);
  59:../5-TempR_LCD_Serial/main.c **** 
 1064              		.loc 1 59 2 view .LVU250
 1065 0312 0024     		movs	r4, #0	@ ivtmp.69,
 1066              	@ ../5-TempR_LCD_Serial/main.c:48: 	RCC->APB2ENR |= (1<<2);
  48:../5-TempR_LCD_Serial/main.c **** 	GPIOA->CRL	 = 0x33333300; // Hab PA(2-7) out PP
 1067              		.loc 1 48 15 view .LVU251
 1068 0314 43F00403 		orr	r3, r3, #4	@ _2, _1,
 1069 0318 9361     		str	r3, [r2, #24]	@ _2, MEM[(struct RCC_TypeDef *)1073876992B].APB2ENR
  49:../5-TempR_LCD_Serial/main.c **** 
 1070              		.loc 1 49 2 is_stmt 1 view .LVU252
 1071              	@ ../5-TempR_LCD_Serial/main.c:49: 	GPIOA->CRL	 = 0x33333300; // Hab PA(2-7) out PP
  49:../5-TempR_LCD_Serial/main.c **** 
 1072              		.loc 1 49 14 is_stmt 0 view .LVU253
ARM GAS  /tmp/ccZoGyG7.s 			page 27


 1073 031a 274B     		ldr	r3, .L66+4	@ tmp134,
 1074 031c 274A     		ldr	r2, .L66+8	@ tmp135,
 1075              	.LBB2:
 1076              	@ ../5-TempR_LCD_Serial/main.c:63: 		disp_text("X", 0 ,i);
  63:../5-TempR_LCD_Serial/main.c **** 		disp_text("#", 1 , 16 - i);
 1077              		.loc 1 63 3 view .LVU254
 1078 031e 284F     		ldr	r7, .L66+12	@ tmp157,
 1079              	.LBE2:
 1080              	@ ../5-TempR_LCD_Serial/main.c:49: 	GPIOA->CRL	 = 0x33333300; // Hab PA(2-7) out PP
  49:../5-TempR_LCD_Serial/main.c **** 
 1081              		.loc 1 49 14 view .LVU255
 1082 0320 1A60     		str	r2, [r3]	@ tmp135, MEM[(struct GPIO_TypeDef *)1073809408B].CRL
  51:../5-TempR_LCD_Serial/main.c **** 	set_bit(IO,EN);   set_bit(IO,D4);
 1083              		.loc 1 51 2 is_stmt 1 view .LVU256
 1084 0322 DA68     		ldr	r2, [r3, #12]	@ _3, MEM[(struct GPIO_TypeDef *)1073809408B].ODR
 1085              	.LBB3:
 1086              	@ ../5-TempR_LCD_Serial/main.c:64: 		disp_text("#", 1 , 16 - i);
  64:../5-TempR_LCD_Serial/main.c **** 	}
 1087              		.loc 1 64 3 is_stmt 0 view .LVU257
 1088 0324 274E     		ldr	r6, .L66+16	@ tmp158,
 1089              	.LBE3:
 1090              	@ ../5-TempR_LCD_Serial/main.c:51: 	set_bit(IO,RS);   set_bit(IO,RS);
  51:../5-TempR_LCD_Serial/main.c **** 	set_bit(IO,EN);   set_bit(IO,D4);
 1091              		.loc 1 51 2 view .LVU258
 1092 0326 42F08002 		orr	r2, r2, #128	@ _4, _3,
 1093 032a DA60     		str	r2, [r3, #12]	@ _4, MEM[(struct GPIO_TypeDef *)1073809408B].ODR
  51:../5-TempR_LCD_Serial/main.c **** 	set_bit(IO,EN);   set_bit(IO,D4);
 1094              		.loc 1 51 20 is_stmt 1 view .LVU259
 1095 032c DA68     		ldr	r2, [r3, #12]	@ _5, MEM[(struct GPIO_TypeDef *)1073809408B].ODR
 1096 032e 42F08002 		orr	r2, r2, #128	@ _6, _5,
 1097 0332 DA60     		str	r2, [r3, #12]	@ _6, MEM[(struct GPIO_TypeDef *)1073809408B].ODR
  52:../5-TempR_LCD_Serial/main.c **** 	set_bit(IO,D5);   set_bit(IO,D6);
 1098              		.loc 1 52 2 view .LVU260
 1099 0334 DA68     		ldr	r2, [r3, #12]	@ _7, MEM[(struct GPIO_TypeDef *)1073809408B].ODR
 1100 0336 42F04002 		orr	r2, r2, #64	@ _8, _7,
 1101 033a DA60     		str	r2, [r3, #12]	@ _8, MEM[(struct GPIO_TypeDef *)1073809408B].ODR
  52:../5-TempR_LCD_Serial/main.c **** 	set_bit(IO,D5);   set_bit(IO,D6);
 1102              		.loc 1 52 20 view .LVU261
 1103 033c DA68     		ldr	r2, [r3, #12]	@ _9, MEM[(struct GPIO_TypeDef *)1073809408B].ODR
 1104 033e 42F02002 		orr	r2, r2, #32	@ _10, _9,
 1105 0342 DA60     		str	r2, [r3, #12]	@ _10, MEM[(struct GPIO_TypeDef *)1073809408B].ODR
  53:../5-TempR_LCD_Serial/main.c **** 	set_bit(IO,D7);   disp_init();
 1106              		.loc 1 53 2 view .LVU262
 1107 0344 DA68     		ldr	r2, [r3, #12]	@ _11, MEM[(struct GPIO_TypeDef *)1073809408B].ODR
 1108 0346 42F01002 		orr	r2, r2, #16	@ _12, _11,
 1109 034a DA60     		str	r2, [r3, #12]	@ _12, MEM[(struct GPIO_TypeDef *)1073809408B].ODR
  53:../5-TempR_LCD_Serial/main.c **** 	set_bit(IO,D7);   disp_init();
 1110              		.loc 1 53 20 view .LVU263
 1111 034c DA68     		ldr	r2, [r3, #12]	@ _13, MEM[(struct GPIO_TypeDef *)1073809408B].ODR
 1112 034e 42F00802 		orr	r2, r2, #8	@ _14, _13,
 1113 0352 DA60     		str	r2, [r3, #12]	@ _14, MEM[(struct GPIO_TypeDef *)1073809408B].ODR
  54:../5-TempR_LCD_Serial/main.c **** 	disp_cmd(0x0C);
 1114              		.loc 1 54 2 view .LVU264
 1115 0354 DA68     		ldr	r2, [r3, #12]	@ _15, MEM[(struct GPIO_TypeDef *)1073809408B].ODR
 1116 0356 42F00402 		orr	r2, r2, #4	@ _16, _15,
 1117 035a DA60     		str	r2, [r3, #12]	@ _16, MEM[(struct GPIO_TypeDef *)1073809408B].ODR
  54:../5-TempR_LCD_Serial/main.c **** 	disp_cmd(0x0C);
ARM GAS  /tmp/ccZoGyG7.s 			page 28


 1118              		.loc 1 54 20 view .LVU265
 1119 035c FFF7FEFF 		bl	disp_init		@
 1120              	.LVL24:
  55:../5-TempR_LCD_Serial/main.c **** 
 1121              		.loc 1 55 2 view .LVU266
 1122 0360 0C20     		movs	r0, #12	@,
 1123 0362 FFF7FEFF 		bl	disp_cmd		@
 1124              	.LVL25:
  58:../5-TempR_LCD_Serial/main.c **** 	disp_text("0123456789abcdef", 1, 0);
 1125              		.loc 1 58 2 view .LVU267
 1126 0366 0022     		movs	r2, #0	@,
 1127 0368 1748     		ldr	r0, .L66+20	@,
 1128 036a 1146     		mov	r1, r2	@,
 1129 036c FFF7FEFF 		bl	disp_text		@
 1130              	.LVL26:
  59:../5-TempR_LCD_Serial/main.c **** 
 1131              		.loc 1 59 2 view .LVU268
 1132 0370 0022     		movs	r2, #0	@,
 1133 0372 0121     		movs	r1, #1	@,
 1134 0374 1548     		ldr	r0, .L66+24	@,
 1135 0376 FFF7FEFF 		bl	disp_text		@
 1136              	.LVL27:
  61:../5-TempR_LCD_Serial/main.c **** 		__delay_ms(200);
 1137              		.loc 1 61 2 view .LVU269
 1138              	.LBB4:
  61:../5-TempR_LCD_Serial/main.c **** 		__delay_ms(200);
 1139              		.loc 1 61 7 view .LVU270
  61:../5-TempR_LCD_Serial/main.c **** 		__delay_ms(200);
 1140              		.loc 1 61 16 view .LVU271
 1141              	.L64:
  61:../5-TempR_LCD_Serial/main.c **** 		__delay_ms(200);
 1142              		.loc 1 61 16 is_stmt 0 view .LVU272
 1143 037a E5B2     		uxtb	r5, r4	@ _40, ivtmp.69
 1144              	.LVL28:
  62:../5-TempR_LCD_Serial/main.c **** 		disp_text("X", 0 ,i);
 1145              		.loc 1 62 3 is_stmt 1 discriminator 3 view .LVU273
 1146 037c 44F62060 		movw	r0, #20000	@,
 1147 0380 FFF7FEFF 		bl	vTaskDelay		@
 1148              	.LVL29:
  63:../5-TempR_LCD_Serial/main.c **** 		disp_text("#", 1 , 16 - i);
 1149              		.loc 1 63 3 discriminator 3 view .LVU274
 1150 0384 2A46     		mov	r2, r5	@, _40
 1151 0386 0021     		movs	r1, #0	@,
 1152 0388 3846     		mov	r0, r7	@, tmp157
 1153 038a FFF7FEFF 		bl	disp_text		@
 1154              	.LVL30:
  64:../5-TempR_LCD_Serial/main.c **** 	}
 1155              		.loc 1 64 3 discriminator 3 view .LVU275
 1156 038e C5F11002 		rsb	r2, r5, #16	@ tmp153, _40,
 1157 0392 0121     		movs	r1, #1	@,
 1158 0394 3046     		mov	r0, r6	@, tmp158
 1159 0396 D2B2     		uxtb	r2, r2	@, tmp153
 1160              	@ ../5-TempR_LCD_Serial/main.c:61: 	for (u8 i=0 ; i<16 ; i++){
  61:../5-TempR_LCD_Serial/main.c **** 		__delay_ms(200);
 1161              		.loc 1 61 2 is_stmt 0 discriminator 3 view .LVU276
 1162 0398 0134     		adds	r4, r4, #1	@ ivtmp.69, ivtmp.69,
 1163              	@ ../5-TempR_LCD_Serial/main.c:64: 		disp_text("#", 1 , 16 - i);
ARM GAS  /tmp/ccZoGyG7.s 			page 29


  64:../5-TempR_LCD_Serial/main.c **** 	}
 1164              		.loc 1 64 3 discriminator 3 view .LVU277
 1165 039a FFF7FEFF 		bl	disp_text		@
 1166              	.LVL31:
  61:../5-TempR_LCD_Serial/main.c **** 		__delay_ms(200);
 1167              		.loc 1 61 23 is_stmt 1 discriminator 3 view .LVU278
  61:../5-TempR_LCD_Serial/main.c **** 		__delay_ms(200);
 1168              		.loc 1 61 16 discriminator 3 view .LVU279
 1169              	@ ../5-TempR_LCD_Serial/main.c:61: 	for (u8 i=0 ; i<16 ; i++){
  61:../5-TempR_LCD_Serial/main.c **** 		__delay_ms(200);
 1170              		.loc 1 61 2 is_stmt 0 discriminator 3 view .LVU280
 1171 039e 102C     		cmp	r4, #16	@ ivtmp.69,
 1172 03a0 EBD1     		bne	.L64		@,
 1173              	.LBE4:
  66:../5-TempR_LCD_Serial/main.c **** 	disp_clear();
 1174              		.loc 1 66 2 is_stmt 1 view .LVU281
 1175 03a2 4CF25030 		movw	r0, #50000	@,
 1176 03a6 FFF7FEFF 		bl	vTaskDelay		@
 1177              	.LVL32:
  67:../5-TempR_LCD_Serial/main.c **** }
 1178              		.loc 1 67 2 view .LVU282
 1179              	@ ../5-TempR_LCD_Serial/main.c:68: }
  68:../5-TempR_LCD_Serial/main.c **** 
 1180              		.loc 1 68 1 is_stmt 0 view .LVU283
 1181 03aa BDE8F840 		pop	{r3, r4, r5, r6, r7, lr}	@
 1182              	.LCFI10:
 1183              		.cfi_restore 14
 1184              		.cfi_restore 7
 1185              		.cfi_restore 6
 1186              		.cfi_restore 5
 1187              		.cfi_restore 4
 1188              		.cfi_restore 3
 1189              		.cfi_def_cfa_offset 0
 1190              	@ ../5-TempR_LCD_Serial/main.c:67: 	disp_clear();
  67:../5-TempR_LCD_Serial/main.c **** }
 1191              		.loc 1 67 2 view .LVU284
 1192 03ae FFF7FEBF 		b	disp_clear		@
 1193              	.LVL33:
 1194              	.L67:
 1195 03b2 00BF     		.align	2
 1196              	.L66:
 1197 03b4 00100240 		.word	1073876992
 1198 03b8 00080140 		.word	1073809408
 1199 03bc 00333333 		.word	858993408
 1200 03c0 22000000 		.word	.LC2
 1201 03c4 24000000 		.word	.LC3
 1202 03c8 00000000 		.word	.LC0
 1203 03cc 11000000 		.word	.LC1
 1204              		.cfi_endproc
 1205              	.LFE44:
 1206              		.size	LCD16x2_init, .-LCD16x2_init
 1207              		.section	.rodata.str1.1
 1208              	.LC4:
 1209 0026 54656D70 		.ascii	"Temp (C): \000"
 1209      20284329 
 1209      3A2000
 1210              		.global	__aeabi_i2d
ARM GAS  /tmp/ccZoGyG7.s 			page 30


 1211              		.global	__aeabi_dmul
 1212              		.global	__aeabi_d2uiz
 1213              		.text
 1214              		.align	1
 1215              		.syntax unified
 1216              		.thumb
 1217              		.thumb_func
 1218              		.type	task1, %function
 1219              	task1:
 1220              	.LVL34:
 1221              	.LFB45:
  71:../5-TempR_LCD_Serial/main.c **** 
 1222              		.loc 1 71 53 is_stmt 1 view -0
 1223              		.cfi_startproc
 1224              		@ Volatile: function does not return.
 1225              		@ args = 0, pretend = 0, frame = 8
 1226              		@ frame_needed = 0, uses_anonymous_args = 0
  81:../5-TempR_LCD_Serial/main.c **** 	int msg_buf_rev;
 1227              		.loc 1 81 2 view .LVU286
 1228              	@ ../5-TempR_LCD_Serial/main.c:71: static void task1(void *args __attribute((unused))) {
  71:../5-TempR_LCD_Serial/main.c **** 
 1229              		.loc 1 71 53 is_stmt 0 view .LVU287
 1230 03d0 07B5     		push	{r0, r1, r2, lr}	@
 1231              	.LCFI11:
 1232              		.cfi_def_cfa_offset 16
 1233              		.cfi_offset 14, -4
 1234              	@ ../5-TempR_LCD_Serial/main.c:88: 		disp_number(msg_buf_rev * ADC_Const , 0,16-5);
  88:../5-TempR_LCD_Serial/main.c **** 
 1235              		.loc 1 88 27 view .LVU288
 1236 03d2 11A5     		adr	r5, .L70	@,
 1237 03d4 D5E90045 		ldrd	r4, [r5]	@ tmp126,
 1238              	@ ../5-TempR_LCD_Serial/main.c:81: 	LCD16x2_init();
  81:../5-TempR_LCD_Serial/main.c **** 	int msg_buf_rev;
 1239              		.loc 1 81 2 view .LVU289
 1240 03d8 FFF7FEFF 		bl	LCD16x2_init		@
 1241              	.LVL35:
 1242              	@ ../5-TempR_LCD_Serial/main.c:85: 		xQueueReceive(LCD_Show_queue, &msg_buf_rev, pdMS_TO_TICKS(1));
  85:../5-TempR_LCD_Serial/main.c **** 
 1243              		.loc 1 85 3 view .LVU290
 1244 03dc 104E     		ldr	r6, .L70+8	@ tmp120,
 1245              	.L69:
  82:../5-TempR_LCD_Serial/main.c **** 
 1246              		.loc 1 82 2 is_stmt 1 discriminator 1 view .LVU291
  84:../5-TempR_LCD_Serial/main.c **** 		xQueueReceive(LCD_Show_queue, &msg_buf_rev, pdMS_TO_TICKS(1));
 1247              		.loc 1 84 2 discriminator 1 view .LVU292
  85:../5-TempR_LCD_Serial/main.c **** 
 1248              		.loc 1 85 3 discriminator 1 view .LVU293
 1249 03de 01A9     		add	r1, sp, #4	@,,
 1250 03e0 6422     		movs	r2, #100	@,
 1251 03e2 3068     		ldr	r0, [r6]	@, LCD_Show_queue
 1252 03e4 FFF7FEFF 		bl	xQueueReceive		@
 1253              	.LVL36:
  87:../5-TempR_LCD_Serial/main.c **** 		disp_number(msg_buf_rev * ADC_Const , 0,16-5);
 1254              		.loc 1 87 3 discriminator 1 view .LVU294
 1255 03e8 0022     		movs	r2, #0	@,
 1256 03ea 0E48     		ldr	r0, .L70+12	@,
 1257 03ec 1146     		mov	r1, r2	@,
ARM GAS  /tmp/ccZoGyG7.s 			page 31


 1258 03ee FFF7FEFF 		bl	disp_text		@
 1259              	.LVL37:
  88:../5-TempR_LCD_Serial/main.c **** 
 1260              		.loc 1 88 3 discriminator 1 view .LVU295
 1261              	@ ../5-TempR_LCD_Serial/main.c:88: 		disp_number(msg_buf_rev * ADC_Const , 0,16-5);
  88:../5-TempR_LCD_Serial/main.c **** 
 1262              		.loc 1 88 27 is_stmt 0 discriminator 1 view .LVU296
 1263 03f2 0198     		ldr	r0, [sp, #4]	@, msg_buf_rev
 1264 03f4 FFF7FEFF 		bl	__aeabi_i2d		@
 1265              	.LVL38:
 1266 03f8 2246     		mov	r2, r4	@, tmp126
 1267 03fa 2B46     		mov	r3, r5	@,
 1268 03fc FFF7FEFF 		bl	__aeabi_dmul		@
 1269              	.LVL39:
 1270              	@ ../5-TempR_LCD_Serial/main.c:88: 		disp_number(msg_buf_rev * ADC_Const , 0,16-5);
  88:../5-TempR_LCD_Serial/main.c **** 
 1271              		.loc 1 88 3 discriminator 1 view .LVU297
 1272 0400 FFF7FEFF 		bl	__aeabi_d2uiz		@
 1273              	.LVL40:
 1274 0404 0B22     		movs	r2, #11	@,
 1275 0406 0021     		movs	r1, #0	@,
 1276 0408 FFF7FEFF 		bl	disp_number		@
 1277              	.LVL41:
  90:../5-TempR_LCD_Serial/main.c **** 	}
 1278              		.loc 1 90 3 is_stmt 1 discriminator 1 view .LVU298
 1279 040c 4CF25030 		movw	r0, #50000	@,
 1280 0410 FFF7FEFF 		bl	vTaskDelay		@
 1281              	.LVL42:
  84:../5-TempR_LCD_Serial/main.c **** 		xQueueReceive(LCD_Show_queue, &msg_buf_rev, pdMS_TO_TICKS(1));
 1282              		.loc 1 84 7 discriminator 1 view .LVU299
 1283 0414 E3E7     		b	.L69		@
 1284              	.L71:
 1285 0416 00BF     		.align	3
 1286              	.L70:
 1287 0418 0F0BB5A6 		.word	-1498084593
 1288 041c 79C7E93F 		.word	1072285561
 1289 0420 00000000 		.word	.LANCHOR0
 1290 0424 26000000 		.word	.LC4
 1291              		.cfi_endproc
 1292              	.LFE45:
 1293              		.size	task1, .-task1
 1294              		.section	.rodata.str1.1
 1295              	.LC5:
 1296 0031 4C43445F 		.ascii	"LCD_16x2\000"
 1296      31367832 
 1296      00
 1297              	.LC6:
 1298 003a 4C45445F 		.ascii	"LED_13\000"
 1298      313300
 1299              	.LC7:
 1300 0041 4C4D3335 		.ascii	"LM35_read\000"
 1300      5F726561 
 1300      6400
 1301              		.section	.text.startup,"ax",%progbits
 1302              		.align	1
 1303              		.global	main
 1304              		.syntax unified
ARM GAS  /tmp/ccZoGyG7.s 			page 32


 1305              		.thumb
 1306              		.thumb_func
 1307              		.type	main, %function
 1308              	main:
 1309              	.LFB48:
 125:../5-TempR_LCD_Serial/main.c **** 		
 126:../5-TempR_LCD_Serial/main.c **** 	}
 127:../5-TempR_LCD_Serial/main.c **** }
 128:../5-TempR_LCD_Serial/main.c **** 
 129:../5-TempR_LCD_Serial/main.c **** int main(void) {
 1310              		.loc 1 129 16 view -0
 1311              		.cfi_startproc
 1312              		@ Volatile: function does not return.
 1313              		@ args = 0, pretend = 0, frame = 0
 1314              		@ frame_needed = 0, uses_anonymous_args = 0
 130:../5-TempR_LCD_Serial/main.c **** 
 131:../5-TempR_LCD_Serial/main.c **** 	LCD_Show_queue = xQueueCreate(2, sizeof(u32));
 1315              		.loc 1 131 2 view .LVU301
 1316              	@ ../5-TempR_LCD_Serial/main.c:129: int main(void) {
 129:../5-TempR_LCD_Serial/main.c **** 
 1317              		.loc 1 129 16 is_stmt 0 view .LVU302
 1318 0000 07B5     		push	{r0, r1, r2, lr}	@
 1319              	.LCFI12:
 1320              		.cfi_def_cfa_offset 16
 1321              		.cfi_offset 14, -4
 1322              	@ ../5-TempR_LCD_Serial/main.c:131: 	LCD_Show_queue = xQueueCreate(2, sizeof(u32));
 1323              		.loc 1 131 19 view .LVU303
 1324 0002 0022     		movs	r2, #0	@,
 1325 0004 0421     		movs	r1, #4	@,
 1326 0006 0220     		movs	r0, #2	@,
 1327 0008 FFF7FEFF 		bl	xQueueGenericCreate		@
 1328              	.LVL43:
 1329              	@ ../5-TempR_LCD_Serial/main.c:135: 	xTaskCreate(task1,"LCD_16x2", 100 ,NULL, 2 ,NULL);
 132:../5-TempR_LCD_Serial/main.c **** 	
 133:../5-TempR_LCD_Serial/main.c **** 	set_system_clock_to_72Mhz();
 134:../5-TempR_LCD_Serial/main.c **** 
 135:../5-TempR_LCD_Serial/main.c **** 	xTaskCreate(task1,"LCD_16x2", 100 ,NULL, 2 ,NULL);
 1330              		.loc 1 135 2 view .LVU304
 1331 000c 0024     		movs	r4, #0	@ tmp118,
 1332 000e 0225     		movs	r5, #2	@ tmp119,
 1333              	@ ../5-TempR_LCD_Serial/main.c:131: 	LCD_Show_queue = xQueueCreate(2, sizeof(u32));
 131:../5-TempR_LCD_Serial/main.c **** 	
 1334              		.loc 1 131 17 view .LVU305
 1335 0010 0F4B     		ldr	r3, .L74	@ tmp115,
 1336 0012 1860     		str	r0, [r3]	@ tmp128, LCD_Show_queue
 133:../5-TempR_LCD_Serial/main.c **** 
 1337              		.loc 1 133 2 is_stmt 1 view .LVU306
 1338 0014 FFF7FEFF 		bl	set_system_clock_to_72Mhz		@
 1339              	.LVL44:
 1340              		.loc 1 135 2 view .LVU307
 1341 0018 0E48     		ldr	r0, .L74+4	@,
 1342 001a 2346     		mov	r3, r4	@, tmp118
 1343 001c 6422     		movs	r2, #100	@,
 1344 001e 0E49     		ldr	r1, .L74+8	@,
 1345 0020 CDE90054 		strd	r5, r4, [sp]	@ tmp119, tmp118,
 1346 0024 FFF7FEFF 		bl	xTaskCreate		@
 1347              	.LVL45:
ARM GAS  /tmp/ccZoGyG7.s 			page 33


 136:../5-TempR_LCD_Serial/main.c **** 	xTaskCreate(task2, "LED_13", 100 , NULL, 2, NULL);
 1348              		.loc 1 136 2 view .LVU308
 1349 0028 2346     		mov	r3, r4	@, tmp118
 1350 002a 6422     		movs	r2, #100	@,
 1351 002c 0B49     		ldr	r1, .L74+12	@,
 1352 002e CDE90054 		strd	r5, r4, [sp]	@ tmp119, tmp118,
 1353 0032 0B48     		ldr	r0, .L74+16	@,
 1354 0034 FFF7FEFF 		bl	xTaskCreate		@
 1355              	.LVL46:
 137:../5-TempR_LCD_Serial/main.c **** 	xTaskCreate(task3, "LM35_read", 100 , NULL, 2 , NULL);
 1356              		.loc 1 137 2 view .LVU309
 1357 0038 2346     		mov	r3, r4	@, tmp118
 1358 003a 6422     		movs	r2, #100	@,
 1359 003c 0949     		ldr	r1, .L74+20	@,
 1360 003e CDE90054 		strd	r5, r4, [sp]	@ tmp119, tmp118,
 1361 0042 0948     		ldr	r0, .L74+24	@,
 1362 0044 FFF7FEFF 		bl	xTaskCreate		@
 1363              	.LVL47:
 138:../5-TempR_LCD_Serial/main.c **** 
 139:../5-TempR_LCD_Serial/main.c **** 	vTaskStartScheduler(); 
 1364              		.loc 1 139 2 view .LVU310
 1365 0048 FFF7FEFF 		bl	vTaskStartScheduler		@
 1366              	.LVL48:
 1367              	.L73:
 140:../5-TempR_LCD_Serial/main.c **** 
 141:../5-TempR_LCD_Serial/main.c **** 	while(1);
 1368              		.loc 1 141 2 discriminator 1 view .LVU311
 1369              		.loc 1 141 10 discriminator 1 view .LVU312
 1370              		.loc 1 141 7 discriminator 1 view .LVU313
 1371 004c FEE7     		b	.L73		@
 1372              	.L75:
 1373 004e 00BF     		.align	2
 1374              	.L74:
 1375 0050 00000000 		.word	.LANCHOR0
 1376 0054 00000000 		.word	task1
 1377 0058 31000000 		.word	.LC5
 1378 005c 3A000000 		.word	.LC6
 1379 0060 00000000 		.word	task2
 1380 0064 41000000 		.word	.LC7
 1381 0068 00000000 		.word	task3
 1382              		.cfi_endproc
 1383              	.LFE48:
 1384              		.size	main, .-main
 1385              		.bss
 1386              		.align	2
 1387              		.set	.LANCHOR0,. + 0
 1388              		.type	LCD_Show_queue, %object
 1389              		.size	LCD_Show_queue, 4
 1390              	LCD_Show_queue:
 1391 0000 00000000 		.space	4
 1392              		.text
 1393              	.Letext0:
 1394              		.file 5 "/usr/arm-none-eabi/include/machine/_default_types.h"
 1395              		.file 6 "/usr/arm-none-eabi/include/sys/_stdint.h"
 1396              		.file 7 "../freertos/portable/GCC/ARM_CM3/portmacro.h"
 1397              		.file 8 "../freertos/include/queue.h"
 1398              		.file 9 "../stm32f10x_lib/CMSIS/CM3/DeviceSupport/ST/STM32F10x/stm32f10x.h"
ARM GAS  /tmp/ccZoGyG7.s 			page 34


 1399              		.file 10 "../stm32f10x_lib/CMSIS/CM3/CoreSupport/core_cm3.h"
 1400              		.file 11 "../stm32f10x_lib/STM32F10x_StdPeriph_Driver/inc/stm32f10x_gpio.h"
 1401              		.file 12 "../stm32f10x_lib/STM32F10x_StdPeriph_Driver/inc/stm32f10x_usart.h"
 1402              		.file 13 "../freertos/include/task.h"
 1403              		.file 14 "../5-TempR_LCD_Serial/myLcd.h"
 1404              		.file 15 "../stm32f10x_lib/STM32F10x_StdPeriph_Driver/inc/stm32f10x_rcc.h"
 1405              		.section	.debug_info,"",%progbits
 1406              	.Ldebug_info0:
 1407 0000 B7120000 		.4byte	0x12b7
 1408 0004 0200     		.2byte	0x2
 1409 0006 00000000 		.4byte	.Ldebug_abbrev0
 1410 000a 04       		.byte	0x4
 1411 000b 01       		.uleb128 0x1
 1412 000c 9D040000 		.4byte	.LASF215
 1413 0010 0C       		.byte	0xc
 1414 0011 48080000 		.4byte	.LASF216
 1415 0015 C2050000 		.4byte	.LASF217
 1416 0019 20000000 		.4byte	.Ldebug_ranges0+0x20
 1417 001d 00000000 		.4byte	0
 1418 0021 00000000 		.4byte	0
 1419 0025 00000000 		.4byte	.Ldebug_line0
 1420 0029 02       		.uleb128 0x2
 1421 002a 04       		.byte	0x4
 1422 002b 05       		.byte	0x5
 1423 002c 696E7400 		.ascii	"int\000"
 1424 0030 03       		.uleb128 0x3
 1425 0031 04       		.byte	0x4
 1426 0032 07       		.byte	0x7
 1427 0033 9E030000 		.4byte	.LASF0
 1428 0037 03       		.uleb128 0x3
 1429 0038 08       		.byte	0x8
 1430 0039 05       		.byte	0x5
 1431 003a 35010000 		.4byte	.LASF1
 1432 003e 03       		.uleb128 0x3
 1433 003f 08       		.byte	0x8
 1434 0040 04       		.byte	0x4
 1435 0041 B9080000 		.4byte	.LASF2
 1436 0045 03       		.uleb128 0x3
 1437 0046 01       		.byte	0x1
 1438 0047 06       		.byte	0x6
 1439 0048 43010000 		.4byte	.LASF3
 1440 004c 04       		.uleb128 0x4
 1441 004d 6E000000 		.4byte	.LASF6
 1442 0051 05       		.byte	0x5
 1443 0052 2B       		.byte	0x2b
 1444 0053 18       		.byte	0x18
 1445 0054 58000000 		.4byte	0x58
 1446 0058 03       		.uleb128 0x3
 1447 0059 01       		.byte	0x1
 1448 005a 08       		.byte	0x8
 1449 005b 97070000 		.4byte	.LASF4
 1450 005f 03       		.uleb128 0x3
 1451 0060 02       		.byte	0x2
 1452 0061 05       		.byte	0x5
 1453 0062 47050000 		.4byte	.LASF5
 1454 0066 04       		.uleb128 0x4
 1455 0067 02030000 		.4byte	.LASF7
ARM GAS  /tmp/ccZoGyG7.s 			page 35


 1456 006b 05       		.byte	0x5
 1457 006c 39       		.byte	0x39
 1458 006d 19       		.byte	0x19
 1459 006e 72000000 		.4byte	0x72
 1460 0072 03       		.uleb128 0x3
 1461 0073 02       		.byte	0x2
 1462 0074 07       		.byte	0x7
 1463 0075 DC020000 		.4byte	.LASF8
 1464 0079 03       		.uleb128 0x3
 1465 007a 04       		.byte	0x4
 1466 007b 05       		.byte	0x5
 1467 007c 21020000 		.4byte	.LASF9
 1468 0080 04       		.uleb128 0x4
 1469 0081 0D030000 		.4byte	.LASF10
 1470 0085 05       		.byte	0x5
 1471 0086 4F       		.byte	0x4f
 1472 0087 19       		.byte	0x19
 1473 0088 8C000000 		.4byte	0x8c
 1474 008c 03       		.uleb128 0x3
 1475 008d 04       		.byte	0x4
 1476 008e 07       		.byte	0x7
 1477 008f CF030000 		.4byte	.LASF11
 1478 0093 03       		.uleb128 0x3
 1479 0094 08       		.byte	0x8
 1480 0095 07       		.byte	0x7
 1481 0096 95010000 		.4byte	.LASF12
 1482 009a 04       		.uleb128 0x4
 1483 009b F9090000 		.4byte	.LASF13
 1484 009f 06       		.byte	0x6
 1485 00a0 18       		.byte	0x18
 1486 00a1 13       		.byte	0x13
 1487 00a2 4C000000 		.4byte	0x4c
 1488 00a6 05       		.uleb128 0x5
 1489 00a7 9A000000 		.4byte	0x9a
 1490 00ab 04       		.uleb128 0x4
 1491 00ac 6A020000 		.4byte	.LASF14
 1492 00b0 06       		.byte	0x6
 1493 00b1 24       		.byte	0x24
 1494 00b2 14       		.byte	0x14
 1495 00b3 66000000 		.4byte	0x66
 1496 00b7 05       		.uleb128 0x5
 1497 00b8 AB000000 		.4byte	0xab
 1498 00bc 04       		.uleb128 0x4
 1499 00bd 65080000 		.4byte	.LASF15
 1500 00c1 06       		.byte	0x6
 1501 00c2 30       		.byte	0x30
 1502 00c3 14       		.byte	0x14
 1503 00c4 80000000 		.4byte	0x80
 1504 00c8 05       		.uleb128 0x5
 1505 00c9 BC000000 		.4byte	0xbc
 1506 00cd 06       		.uleb128 0x6
 1507 00ce 04       		.byte	0x4
 1508 00cf 04       		.uleb128 0x4
 1509 00d0 8A020000 		.4byte	.LASF16
 1510 00d4 07       		.byte	0x7
 1511 00d5 38       		.byte	0x38
 1512 00d6 0E       		.byte	0xe
ARM GAS  /tmp/ccZoGyG7.s 			page 36


 1513 00d7 79000000 		.4byte	0x79
 1514 00db 04       		.uleb128 0x4
 1515 00dc 39060000 		.4byte	.LASF17
 1516 00e0 07       		.byte	0x7
 1517 00e1 3F       		.byte	0x3f
 1518 00e2 13       		.byte	0x13
 1519 00e3 BC000000 		.4byte	0xbc
 1520 00e7 03       		.uleb128 0x3
 1521 00e8 01       		.byte	0x1
 1522 00e9 08       		.byte	0x8
 1523 00ea DC080000 		.4byte	.LASF18
 1524 00ee 04       		.uleb128 0x4
 1525 00ef F3000000 		.4byte	.LASF19
 1526 00f3 08       		.byte	0x8
 1527 00f4 30       		.byte	0x30
 1528 00f5 22       		.byte	0x22
 1529 00f6 FA000000 		.4byte	0xfa
 1530 00fa 07       		.uleb128 0x7
 1531 00fb 04       		.byte	0x4
 1532 00fc 00010000 		.4byte	0x100
 1533 0100 08       		.uleb128 0x8
 1534 0101 4F070000 		.4byte	.LASF218
 1535 0105 01       		.byte	0x1
 1536 0106 07       		.uleb128 0x7
 1537 0107 04       		.byte	0x4
 1538 0108 E7000000 		.4byte	0xe7
 1539 010c 09       		.uleb128 0x9
 1540 010d 88050000 		.4byte	.LASF187
 1541 0111 05       		.byte	0x5
 1542 0112 01       		.byte	0x1
 1543 0113 45000000 		.4byte	0x45
 1544 0117 09       		.byte	0x9
 1545 0118 A7       		.byte	0xa7
 1546 0119 0E       		.byte	0xe
 1547 011a 51020000 		.4byte	0x251
 1548 011e 0A       		.uleb128 0xa
 1549 011f 46090000 		.4byte	.LASF20
 1550 0123 72       		.sleb128 -14
 1551 0124 0A       		.uleb128 0xa
 1552 0125 B9030000 		.4byte	.LASF21
 1553 0129 74       		.sleb128 -12
 1554 012a 0A       		.uleb128 0xa
 1555 012b E1080000 		.4byte	.LASF22
 1556 012f 75       		.sleb128 -11
 1557 0130 0A       		.uleb128 0xa
 1558 0131 84080000 		.4byte	.LASF23
 1559 0135 76       		.sleb128 -10
 1560 0136 0A       		.uleb128 0xa
 1561 0137 0F060000 		.4byte	.LASF24
 1562 013b 7B       		.sleb128 -5
 1563 013c 0A       		.uleb128 0xa
 1564 013d 35050000 		.4byte	.LASF25
 1565 0141 7C       		.sleb128 -4
 1566 0142 0A       		.uleb128 0xa
 1567 0143 D0020000 		.4byte	.LASF26
 1568 0147 7E       		.sleb128 -2
 1569 0148 0A       		.uleb128 0xa
ARM GAS  /tmp/ccZoGyG7.s 			page 37


 1570 0149 56050000 		.4byte	.LASF27
 1571 014d 7F       		.sleb128 -1
 1572 014e 0B       		.uleb128 0xb
 1573 014f 0C010000 		.4byte	.LASF28
 1574 0153 00       		.byte	0
 1575 0154 0B       		.uleb128 0xb
 1576 0155 24000000 		.4byte	.LASF29
 1577 0159 01       		.byte	0x1
 1578 015a 0B       		.uleb128 0xb
 1579 015b 75090000 		.4byte	.LASF30
 1580 015f 02       		.byte	0x2
 1581 0160 0B       		.uleb128 0xb
 1582 0161 9D000000 		.4byte	.LASF31
 1583 0165 03       		.byte	0x3
 1584 0166 0B       		.uleb128 0xb
 1585 0167 2B080000 		.4byte	.LASF32
 1586 016b 04       		.byte	0x4
 1587 016c 0B       		.uleb128 0xb
 1588 016d 8C0A0000 		.4byte	.LASF33
 1589 0171 05       		.byte	0x5
 1590 0172 0B       		.uleb128 0xb
 1591 0173 70010000 		.4byte	.LASF34
 1592 0177 06       		.byte	0x6
 1593 0178 0B       		.uleb128 0xb
 1594 0179 B20A0000 		.4byte	.LASF35
 1595 017d 07       		.byte	0x7
 1596 017e 0B       		.uleb128 0xb
 1597 017f 01010000 		.4byte	.LASF36
 1598 0183 08       		.byte	0x8
 1599 0184 0B       		.uleb128 0xb
 1600 0185 7F020000 		.4byte	.LASF37
 1601 0189 09       		.byte	0x9
 1602 018a 0B       		.uleb128 0xb
 1603 018b B9070000 		.4byte	.LASF38
 1604 018f 0A       		.byte	0xa
 1605 0190 0B       		.uleb128 0xb
 1606 0191 E2060000 		.4byte	.LASF39
 1607 0195 0B       		.byte	0xb
 1608 0196 0B       		.uleb128 0xb
 1609 0197 AA050000 		.4byte	.LASF40
 1610 019b 0C       		.byte	0xc
 1611 019c 0B       		.uleb128 0xb
 1612 019d 950A0000 		.4byte	.LASF41
 1613 01a1 0D       		.byte	0xd
 1614 01a2 0B       		.uleb128 0xb
 1615 01a3 EF020000 		.4byte	.LASF42
 1616 01a7 0E       		.byte	0xe
 1617 01a8 0B       		.uleb128 0xb
 1618 01a9 3A040000 		.4byte	.LASF43
 1619 01ad 0F       		.byte	0xf
 1620 01ae 0B       		.uleb128 0xb
 1621 01af 5A090000 		.4byte	.LASF44
 1622 01b3 10       		.byte	0x10
 1623 01b4 0B       		.uleb128 0xb
 1624 01b5 300A0000 		.4byte	.LASF45
 1625 01b9 11       		.byte	0x11
 1626 01ba 0B       		.uleb128 0xb
ARM GAS  /tmp/ccZoGyG7.s 			page 38


 1627 01bb 95020000 		.4byte	.LASF46
 1628 01bf 12       		.byte	0x12
 1629 01c0 0B       		.uleb128 0xb
 1630 01c1 A5070000 		.4byte	.LASF47
 1631 01c5 13       		.byte	0x13
 1632 01c6 0B       		.uleb128 0xb
 1633 01c7 F1070000 		.4byte	.LASF48
 1634 01cb 14       		.byte	0x14
 1635 01cc 0B       		.uleb128 0xb
 1636 01cd 3D000000 		.4byte	.LASF49
 1637 01d1 15       		.byte	0x15
 1638 01d2 0B       		.uleb128 0xb
 1639 01d3 7E0A0000 		.4byte	.LASF50
 1640 01d7 16       		.byte	0x16
 1641 01d8 0B       		.uleb128 0xb
 1642 01d9 3A020000 		.4byte	.LASF51
 1643 01dd 17       		.byte	0x17
 1644 01de 0B       		.uleb128 0xb
 1645 01df EF080000 		.4byte	.LASF52
 1646 01e3 18       		.byte	0x18
 1647 01e4 0B       		.uleb128 0xb
 1648 01e5 81090000 		.4byte	.LASF53
 1649 01e9 19       		.byte	0x19
 1650 01ea 0B       		.uleb128 0xb
 1651 01eb CA080000 		.4byte	.LASF54
 1652 01ef 1A       		.byte	0x1a
 1653 01f0 0B       		.uleb128 0xb
 1654 01f1 63050000 		.4byte	.LASF55
 1655 01f5 1B       		.byte	0x1b
 1656 01f6 0B       		.uleb128 0xb
 1657 01f7 B8090000 		.4byte	.LASF56
 1658 01fb 1C       		.byte	0x1c
 1659 01fc 0B       		.uleb128 0xb
 1660 01fd A80A0000 		.4byte	.LASF57
 1661 0201 1D       		.byte	0x1d
 1662 0202 0B       		.uleb128 0xb
 1663 0203 E9000000 		.4byte	.LASF58
 1664 0207 1E       		.byte	0x1e
 1665 0208 0B       		.uleb128 0xb
 1666 0209 9F080000 		.4byte	.LASF59
 1667 020d 1F       		.byte	0x1f
 1668 020e 0B       		.uleb128 0xb
 1669 020f 590A0000 		.4byte	.LASF60
 1670 0213 20       		.byte	0x20
 1671 0214 0B       		.uleb128 0xb
 1672 0215 1B060000 		.4byte	.LASF61
 1673 0219 21       		.byte	0x21
 1674 021a 0B       		.uleb128 0xb
 1675 021b DC000000 		.4byte	.LASF62
 1676 021f 22       		.byte	0x22
 1677 0220 0B       		.uleb128 0xb
 1678 0221 1D050000 		.4byte	.LASF63
 1679 0225 23       		.byte	0x23
 1680 0226 0B       		.uleb128 0xb
 1681 0227 4A060000 		.4byte	.LASF64
 1682 022b 24       		.byte	0x24
 1683 022c 0B       		.uleb128 0xb
ARM GAS  /tmp/ccZoGyG7.s 			page 39


 1684 022d D1090000 		.4byte	.LASF65
 1685 0231 25       		.byte	0x25
 1686 0232 0B       		.uleb128 0xb
 1687 0233 78080000 		.4byte	.LASF66
 1688 0237 26       		.byte	0x26
 1689 0238 0B       		.uleb128 0xb
 1690 0239 A7090000 		.4byte	.LASF67
 1691 023d 27       		.byte	0x27
 1692 023e 0B       		.uleb128 0xb
 1693 023f 8E040000 		.4byte	.LASF68
 1694 0243 28       		.byte	0x28
 1695 0244 0B       		.uleb128 0xb
 1696 0245 02090000 		.4byte	.LASF69
 1697 0249 29       		.byte	0x29
 1698 024a 0B       		.uleb128 0xb
 1699 024b 8E090000 		.4byte	.LASF70
 1700 024f 2A       		.byte	0x2a
 1701 0250 00       		.byte	0
 1702 0251 0C       		.uleb128 0xc
 1703 0252 10090000 		.4byte	.LASF71
 1704 0256 09       		.byte	0x9
 1705 0257 D801     		.2byte	0x1d8
 1706 0259 03       		.byte	0x3
 1707 025a 0C010000 		.4byte	0x10c
 1708 025e 0D       		.uleb128 0xd
 1709 025f 040E     		.2byte	0xe04
 1710 0261 0A       		.byte	0xa
 1711 0262 84       		.byte	0x84
 1712 0263 09       		.byte	0x9
 1713 0264 36030000 		.4byte	0x336
 1714 0268 0E       		.uleb128 0xe
 1715 0269 D4070000 		.4byte	.LASF72
 1716 026d 0A       		.byte	0xa
 1717 026e 86       		.byte	0x86
 1718 026f 11       		.byte	0x11
 1719 0270 46030000 		.4byte	0x346
 1720 0274 02       		.byte	0x2
 1721 0275 23       		.byte	0x23
 1722 0276 00       		.uleb128 0
 1723 0277 0E       		.uleb128 0xe
 1724 0278 F5060000 		.4byte	.LASF73
 1725 027c 0A       		.byte	0xa
 1726 027d 87       		.byte	0x87
 1727 027e 11       		.byte	0x11
 1728 027f 4B030000 		.4byte	0x34b
 1729 0283 02       		.byte	0x2
 1730 0284 23       		.byte	0x23
 1731 0285 20       		.uleb128 0x20
 1732 0286 0E       		.uleb128 0xe
 1733 0287 51050000 		.4byte	.LASF74
 1734 028b 0A       		.byte	0xa
 1735 028c 88       		.byte	0x88
 1736 028d 11       		.byte	0x11
 1737 028e 46030000 		.4byte	0x346
 1738 0292 03       		.byte	0x3
 1739 0293 23       		.byte	0x23
 1740 0294 8001     		.uleb128 0x80
ARM GAS  /tmp/ccZoGyG7.s 			page 40


 1741 0296 0E       		.uleb128 0xe
 1742 0297 0E0A0000 		.4byte	.LASF75
 1743 029b 0A       		.byte	0xa
 1744 029c 89       		.byte	0x89
 1745 029d 11       		.byte	0x11
 1746 029e 4B030000 		.4byte	0x34b
 1747 02a2 03       		.byte	0x3
 1748 02a3 23       		.byte	0x23
 1749 02a4 A001     		.uleb128 0xa0
 1750 02a6 0E       		.uleb128 0xe
 1751 02a7 16010000 		.4byte	.LASF76
 1752 02ab 0A       		.byte	0xa
 1753 02ac 8A       		.byte	0x8a
 1754 02ad 11       		.byte	0x11
 1755 02ae 46030000 		.4byte	0x346
 1756 02b2 03       		.byte	0x3
 1757 02b3 23       		.byte	0x23
 1758 02b4 8002     		.uleb128 0x100
 1759 02b6 0E       		.uleb128 0xe
 1760 02b7 09070000 		.4byte	.LASF77
 1761 02bb 0A       		.byte	0xa
 1762 02bc 8B       		.byte	0x8b
 1763 02bd 11       		.byte	0x11
 1764 02be 4B030000 		.4byte	0x34b
 1765 02c2 03       		.byte	0x3
 1766 02c3 23       		.byte	0x23
 1767 02c4 A002     		.uleb128 0x120
 1768 02c6 0E       		.uleb128 0xe
 1769 02c7 0A000000 		.4byte	.LASF78
 1770 02cb 0A       		.byte	0xa
 1771 02cc 8C       		.byte	0x8c
 1772 02cd 11       		.byte	0x11
 1773 02ce 46030000 		.4byte	0x346
 1774 02d2 03       		.byte	0x3
 1775 02d3 23       		.byte	0x23
 1776 02d4 8003     		.uleb128 0x180
 1777 02d6 0E       		.uleb128 0xe
 1778 02d7 13070000 		.4byte	.LASF79
 1779 02db 0A       		.byte	0xa
 1780 02dc 8D       		.byte	0x8d
 1781 02dd 11       		.byte	0x11
 1782 02de 4B030000 		.4byte	0x34b
 1783 02e2 03       		.byte	0x3
 1784 02e3 23       		.byte	0x23
 1785 02e4 A003     		.uleb128 0x1a0
 1786 02e6 0E       		.uleb128 0xe
 1787 02e7 34060000 		.4byte	.LASF80
 1788 02eb 0A       		.byte	0xa
 1789 02ec 8E       		.byte	0x8e
 1790 02ed 11       		.byte	0x11
 1791 02ee 46030000 		.4byte	0x346
 1792 02f2 03       		.byte	0x3
 1793 02f3 23       		.byte	0x23
 1794 02f4 8004     		.uleb128 0x200
 1795 02f6 0E       		.uleb128 0xe
 1796 02f7 1D070000 		.4byte	.LASF81
 1797 02fb 0A       		.byte	0xa
ARM GAS  /tmp/ccZoGyG7.s 			page 41


 1798 02fc 8F       		.byte	0x8f
 1799 02fd 11       		.byte	0x11
 1800 02fe 5B030000 		.4byte	0x35b
 1801 0302 03       		.byte	0x3
 1802 0303 23       		.byte	0x23
 1803 0304 A004     		.uleb128 0x220
 1804 0306 0F       		.uleb128 0xf
 1805 0307 495000   		.ascii	"IP\000"
 1806 030a 0A       		.byte	0xa
 1807 030b 90       		.byte	0x90
 1808 030c 11       		.byte	0x11
 1809 030d 7B030000 		.4byte	0x37b
 1810 0311 03       		.byte	0x3
 1811 0312 23       		.byte	0x23
 1812 0313 8006     		.uleb128 0x300
 1813 0315 0E       		.uleb128 0xe
 1814 0316 27070000 		.4byte	.LASF82
 1815 031a 0A       		.byte	0xa
 1816 031b 91       		.byte	0x91
 1817 031c 11       		.byte	0x11
 1818 031d 80030000 		.4byte	0x380
 1819 0321 03       		.byte	0x3
 1820 0322 23       		.byte	0x23
 1821 0323 F007     		.uleb128 0x3f0
 1822 0325 0E       		.uleb128 0xe
 1823 0326 170A0000 		.4byte	.LASF83
 1824 032a 0A       		.byte	0xa
 1825 032b 92       		.byte	0x92
 1826 032c 11       		.byte	0x11
 1827 032d C8000000 		.4byte	0xc8
 1828 0331 03       		.byte	0x3
 1829 0332 23       		.byte	0x23
 1830 0333 801C     		.uleb128 0xe00
 1831 0335 00       		.byte	0
 1832 0336 10       		.uleb128 0x10
 1833 0337 C8000000 		.4byte	0xc8
 1834 033b 46030000 		.4byte	0x346
 1835 033f 11       		.uleb128 0x11
 1836 0340 30000000 		.4byte	0x30
 1837 0344 07       		.byte	0x7
 1838 0345 00       		.byte	0
 1839 0346 05       		.uleb128 0x5
 1840 0347 36030000 		.4byte	0x336
 1841 034b 10       		.uleb128 0x10
 1842 034c BC000000 		.4byte	0xbc
 1843 0350 5B030000 		.4byte	0x35b
 1844 0354 11       		.uleb128 0x11
 1845 0355 30000000 		.4byte	0x30
 1846 0359 17       		.byte	0x17
 1847 035a 00       		.byte	0
 1848 035b 10       		.uleb128 0x10
 1849 035c BC000000 		.4byte	0xbc
 1850 0360 6B030000 		.4byte	0x36b
 1851 0364 11       		.uleb128 0x11
 1852 0365 30000000 		.4byte	0x30
 1853 0369 37       		.byte	0x37
 1854 036a 00       		.byte	0
ARM GAS  /tmp/ccZoGyG7.s 			page 42


 1855 036b 10       		.uleb128 0x10
 1856 036c A6000000 		.4byte	0xa6
 1857 0370 7B030000 		.4byte	0x37b
 1858 0374 11       		.uleb128 0x11
 1859 0375 30000000 		.4byte	0x30
 1860 0379 EF       		.byte	0xef
 1861 037a 00       		.byte	0
 1862 037b 05       		.uleb128 0x5
 1863 037c 6B030000 		.4byte	0x36b
 1864 0380 10       		.uleb128 0x10
 1865 0381 BC000000 		.4byte	0xbc
 1866 0385 91030000 		.4byte	0x391
 1867 0389 12       		.uleb128 0x12
 1868 038a 30000000 		.4byte	0x30
 1869 038e 8302     		.2byte	0x283
 1870 0390 00       		.byte	0
 1871 0391 04       		.uleb128 0x4
 1872 0392 D9070000 		.4byte	.LASF84
 1873 0396 0A       		.byte	0xa
 1874 0397 93       		.byte	0x93
 1875 0398 04       		.byte	0x4
 1876 0399 5E020000 		.4byte	0x25e
 1877 039d 13       		.uleb128 0x13
 1878 039e 75333200 		.ascii	"u32\000"
 1879 03a2 09       		.byte	0x9
 1880 03a3 F701     		.2byte	0x1f7
 1881 03a5 13       		.byte	0x13
 1882 03a6 BC000000 		.4byte	0xbc
 1883 03aa 05       		.uleb128 0x5
 1884 03ab 9D030000 		.4byte	0x39d
 1885 03af 13       		.uleb128 0x13
 1886 03b0 753800   		.ascii	"u8\000"
 1887 03b3 09       		.byte	0x9
 1888 03b4 F901     		.2byte	0x1f9
 1889 03b6 12       		.byte	0x12
 1890 03b7 9A000000 		.4byte	0x9a
 1891 03bb 14       		.uleb128 0x14
 1892 03bc 07       		.byte	0x7
 1893 03bd 01       		.byte	0x1
 1894 03be 58000000 		.4byte	0x58
 1895 03c2 09       		.byte	0x9
 1896 03c3 0702     		.2byte	0x207
 1897 03c5 0E       		.byte	0xe
 1898 03c6 D7030000 		.4byte	0x3d7
 1899 03ca 0B       		.uleb128 0xb
 1900 03cb 82050000 		.4byte	.LASF85
 1901 03cf 00       		.byte	0
 1902 03d0 15       		.uleb128 0x15
 1903 03d1 53455400 		.ascii	"SET\000"
 1904 03d5 01       		.byte	0x1
 1905 03d6 00       		.byte	0
 1906 03d7 14       		.uleb128 0x14
 1907 03d8 07       		.byte	0x7
 1908 03d9 01       		.byte	0x1
 1909 03da 58000000 		.4byte	0x58
 1910 03de 09       		.byte	0x9
 1911 03df 0902     		.2byte	0x209
ARM GAS  /tmp/ccZoGyG7.s 			page 43


 1912 03e1 0E       		.byte	0xe
 1913 03e2 F3030000 		.4byte	0x3f3
 1914 03e6 0B       		.uleb128 0xb
 1915 03e7 95000000 		.4byte	.LASF86
 1916 03eb 00       		.byte	0
 1917 03ec 0B       		.uleb128 0xb
 1918 03ed 2A020000 		.4byte	.LASF87
 1919 03f1 01       		.byte	0x1
 1920 03f2 00       		.byte	0
 1921 03f3 16       		.uleb128 0x16
 1922 03f4 50       		.byte	0x50
 1923 03f5 09       		.byte	0x9
 1924 03f6 1E02     		.2byte	0x21e
 1925 03f8 09       		.byte	0x9
 1926 03f9 3C050000 		.4byte	0x53c
 1927 03fd 17       		.uleb128 0x17
 1928 03fe 535200   		.ascii	"SR\000"
 1929 0401 09       		.byte	0x9
 1930 0402 2002     		.2byte	0x220
 1931 0404 11       		.byte	0x11
 1932 0405 C8000000 		.4byte	0xc8
 1933 0409 02       		.byte	0x2
 1934 040a 23       		.byte	0x23
 1935 040b 00       		.uleb128 0
 1936 040c 17       		.uleb128 0x17
 1937 040d 43523100 		.ascii	"CR1\000"
 1938 0411 09       		.byte	0x9
 1939 0412 2102     		.2byte	0x221
 1940 0414 11       		.byte	0x11
 1941 0415 C8000000 		.4byte	0xc8
 1942 0419 02       		.byte	0x2
 1943 041a 23       		.byte	0x23
 1944 041b 04       		.uleb128 0x4
 1945 041c 17       		.uleb128 0x17
 1946 041d 43523200 		.ascii	"CR2\000"
 1947 0421 09       		.byte	0x9
 1948 0422 2202     		.2byte	0x222
 1949 0424 11       		.byte	0x11
 1950 0425 C8000000 		.4byte	0xc8
 1951 0429 02       		.byte	0x2
 1952 042a 23       		.byte	0x23
 1953 042b 08       		.uleb128 0x8
 1954 042c 18       		.uleb128 0x18
 1955 042d 94060000 		.4byte	.LASF88
 1956 0431 09       		.byte	0x9
 1957 0432 2302     		.2byte	0x223
 1958 0434 11       		.byte	0x11
 1959 0435 C8000000 		.4byte	0xc8
 1960 0439 02       		.byte	0x2
 1961 043a 23       		.byte	0x23
 1962 043b 0C       		.uleb128 0xc
 1963 043c 18       		.uleb128 0x18
 1964 043d 9A060000 		.4byte	.LASF89
 1965 0441 09       		.byte	0x9
 1966 0442 2402     		.2byte	0x224
 1967 0444 11       		.byte	0x11
 1968 0445 C8000000 		.4byte	0xc8
ARM GAS  /tmp/ccZoGyG7.s 			page 44


 1969 0449 02       		.byte	0x2
 1970 044a 23       		.byte	0x23
 1971 044b 10       		.uleb128 0x10
 1972 044c 18       		.uleb128 0x18
 1973 044d ED090000 		.4byte	.LASF90
 1974 0451 09       		.byte	0x9
 1975 0452 2502     		.2byte	0x225
 1976 0454 11       		.byte	0x11
 1977 0455 C8000000 		.4byte	0xc8
 1978 0459 02       		.byte	0x2
 1979 045a 23       		.byte	0x23
 1980 045b 14       		.uleb128 0x14
 1981 045c 18       		.uleb128 0x18
 1982 045d 98050000 		.4byte	.LASF91
 1983 0461 09       		.byte	0x9
 1984 0462 2602     		.2byte	0x226
 1985 0464 11       		.byte	0x11
 1986 0465 C8000000 		.4byte	0xc8
 1987 0469 02       		.byte	0x2
 1988 046a 23       		.byte	0x23
 1989 046b 18       		.uleb128 0x18
 1990 046c 18       		.uleb128 0x18
 1991 046d 9E050000 		.4byte	.LASF92
 1992 0471 09       		.byte	0x9
 1993 0472 2702     		.2byte	0x227
 1994 0474 11       		.byte	0x11
 1995 0475 C8000000 		.4byte	0xc8
 1996 0479 02       		.byte	0x2
 1997 047a 23       		.byte	0x23
 1998 047b 1C       		.uleb128 0x1c
 1999 047c 18       		.uleb128 0x18
 2000 047d A4050000 		.4byte	.LASF93
 2001 0481 09       		.byte	0x9
 2002 0482 2802     		.2byte	0x228
 2003 0484 11       		.byte	0x11
 2004 0485 C8000000 		.4byte	0xc8
 2005 0489 02       		.byte	0x2
 2006 048a 23       		.byte	0x23
 2007 048b 20       		.uleb128 0x20
 2008 048c 17       		.uleb128 0x17
 2009 048d 48545200 		.ascii	"HTR\000"
 2010 0491 09       		.byte	0x9
 2011 0492 2902     		.2byte	0x229
 2012 0494 11       		.byte	0x11
 2013 0495 C8000000 		.4byte	0xc8
 2014 0499 02       		.byte	0x2
 2015 049a 23       		.byte	0x23
 2016 049b 24       		.uleb128 0x24
 2017 049c 17       		.uleb128 0x17
 2018 049d 4C545200 		.ascii	"LTR\000"
 2019 04a1 09       		.byte	0x9
 2020 04a2 2A02     		.2byte	0x22a
 2021 04a4 11       		.byte	0x11
 2022 04a5 C8000000 		.4byte	0xc8
 2023 04a9 02       		.byte	0x2
 2024 04aa 23       		.byte	0x23
 2025 04ab 28       		.uleb128 0x28
ARM GAS  /tmp/ccZoGyG7.s 			page 45


 2026 04ac 18       		.uleb128 0x18
 2027 04ad D3060000 		.4byte	.LASF94
 2028 04b1 09       		.byte	0x9
 2029 04b2 2B02     		.2byte	0x22b
 2030 04b4 11       		.byte	0x11
 2031 04b5 C8000000 		.4byte	0xc8
 2032 04b9 02       		.byte	0x2
 2033 04ba 23       		.byte	0x23
 2034 04bb 2C       		.uleb128 0x2c
 2035 04bc 18       		.uleb128 0x18
 2036 04bd D8060000 		.4byte	.LASF95
 2037 04c1 09       		.byte	0x9
 2038 04c2 2C02     		.2byte	0x22c
 2039 04c4 11       		.byte	0x11
 2040 04c5 C8000000 		.4byte	0xc8
 2041 04c9 02       		.byte	0x2
 2042 04ca 23       		.byte	0x23
 2043 04cb 30       		.uleb128 0x30
 2044 04cc 18       		.uleb128 0x18
 2045 04cd DD060000 		.4byte	.LASF96
 2046 04d1 09       		.byte	0x9
 2047 04d2 2D02     		.2byte	0x22d
 2048 04d4 11       		.byte	0x11
 2049 04d5 C8000000 		.4byte	0xc8
 2050 04d9 02       		.byte	0x2
 2051 04da 23       		.byte	0x23
 2052 04db 34       		.uleb128 0x34
 2053 04dc 18       		.uleb128 0x18
 2054 04dd BD050000 		.4byte	.LASF97
 2055 04e1 09       		.byte	0x9
 2056 04e2 2E02     		.2byte	0x22e
 2057 04e4 11       		.byte	0x11
 2058 04e5 C8000000 		.4byte	0xc8
 2059 04e9 02       		.byte	0x2
 2060 04ea 23       		.byte	0x23
 2061 04eb 38       		.uleb128 0x38
 2062 04ec 18       		.uleb128 0x18
 2063 04ed 1C0A0000 		.4byte	.LASF98
 2064 04f1 09       		.byte	0x9
 2065 04f2 2F02     		.2byte	0x22f
 2066 04f4 11       		.byte	0x11
 2067 04f5 C8000000 		.4byte	0xc8
 2068 04f9 02       		.byte	0x2
 2069 04fa 23       		.byte	0x23
 2070 04fb 3C       		.uleb128 0x3c
 2071 04fc 18       		.uleb128 0x18
 2072 04fd 210A0000 		.4byte	.LASF99
 2073 0501 09       		.byte	0x9
 2074 0502 3002     		.2byte	0x230
 2075 0504 11       		.byte	0x11
 2076 0505 C8000000 		.4byte	0xc8
 2077 0509 02       		.byte	0x2
 2078 050a 23       		.byte	0x23
 2079 050b 40       		.uleb128 0x40
 2080 050c 18       		.uleb128 0x18
 2081 050d 260A0000 		.4byte	.LASF100
 2082 0511 09       		.byte	0x9
ARM GAS  /tmp/ccZoGyG7.s 			page 46


 2083 0512 3102     		.2byte	0x231
 2084 0514 11       		.byte	0x11
 2085 0515 C8000000 		.4byte	0xc8
 2086 0519 02       		.byte	0x2
 2087 051a 23       		.byte	0x23
 2088 051b 44       		.uleb128 0x44
 2089 051c 18       		.uleb128 0x18
 2090 051d 2B0A0000 		.4byte	.LASF101
 2091 0521 09       		.byte	0x9
 2092 0522 3202     		.2byte	0x232
 2093 0524 11       		.byte	0x11
 2094 0525 C8000000 		.4byte	0xc8
 2095 0529 02       		.byte	0x2
 2096 052a 23       		.byte	0x23
 2097 052b 48       		.uleb128 0x48
 2098 052c 17       		.uleb128 0x17
 2099 052d 445200   		.ascii	"DR\000"
 2100 0530 09       		.byte	0x9
 2101 0531 3302     		.2byte	0x233
 2102 0533 11       		.byte	0x11
 2103 0534 C8000000 		.4byte	0xc8
 2104 0538 02       		.byte	0x2
 2105 0539 23       		.byte	0x23
 2106 053a 4C       		.uleb128 0x4c
 2107 053b 00       		.byte	0
 2108 053c 0C       		.uleb128 0xc
 2109 053d 73020000 		.4byte	.LASF102
 2110 0541 09       		.byte	0x9
 2111 0542 3402     		.2byte	0x234
 2112 0544 03       		.byte	0x3
 2113 0545 F3030000 		.4byte	0x3f3
 2114 0549 16       		.uleb128 0x16
 2115 054a 24       		.byte	0x24
 2116 054b 09       		.byte	0x9
 2117 054c 8503     		.2byte	0x385
 2118 054e 09       		.byte	0x9
 2119 054f E1050000 		.4byte	0x5e1
 2120 0553 17       		.uleb128 0x17
 2121 0554 41435200 		.ascii	"ACR\000"
 2122 0558 09       		.byte	0x9
 2123 0559 8703     		.2byte	0x387
 2124 055b 11       		.byte	0x11
 2125 055c C8000000 		.4byte	0xc8
 2126 0560 02       		.byte	0x2
 2127 0561 23       		.byte	0x23
 2128 0562 00       		.uleb128 0
 2129 0563 18       		.uleb128 0x18
 2130 0564 5B030000 		.4byte	.LASF103
 2131 0568 09       		.byte	0x9
 2132 0569 8803     		.2byte	0x388
 2133 056b 11       		.byte	0x11
 2134 056c C8000000 		.4byte	0xc8
 2135 0570 02       		.byte	0x2
 2136 0571 23       		.byte	0x23
 2137 0572 04       		.uleb128 0x4
 2138 0573 18       		.uleb128 0x18
 2139 0574 62020000 		.4byte	.LASF104
ARM GAS  /tmp/ccZoGyG7.s 			page 47


 2140 0578 09       		.byte	0x9
 2141 0579 8903     		.2byte	0x389
 2142 057b 11       		.byte	0x11
 2143 057c C8000000 		.4byte	0xc8
 2144 0580 02       		.byte	0x2
 2145 0581 23       		.byte	0x23
 2146 0582 08       		.uleb128 0x8
 2147 0583 17       		.uleb128 0x17
 2148 0584 535200   		.ascii	"SR\000"
 2149 0587 09       		.byte	0x9
 2150 0588 8A03     		.2byte	0x38a
 2151 058a 11       		.byte	0x11
 2152 058b C8000000 		.4byte	0xc8
 2153 058f 02       		.byte	0x2
 2154 0590 23       		.byte	0x23
 2155 0591 0C       		.uleb128 0xc
 2156 0592 17       		.uleb128 0x17
 2157 0593 435200   		.ascii	"CR\000"
 2158 0596 09       		.byte	0x9
 2159 0597 8B03     		.2byte	0x38b
 2160 0599 11       		.byte	0x11
 2161 059a C8000000 		.4byte	0xc8
 2162 059e 02       		.byte	0x2
 2163 059f 23       		.byte	0x23
 2164 05a0 10       		.uleb128 0x10
 2165 05a1 17       		.uleb128 0x17
 2166 05a2 415200   		.ascii	"AR\000"
 2167 05a5 09       		.byte	0x9
 2168 05a6 8C03     		.2byte	0x38c
 2169 05a8 11       		.byte	0x11
 2170 05a9 C8000000 		.4byte	0xc8
 2171 05ad 02       		.byte	0x2
 2172 05ae 23       		.byte	0x23
 2173 05af 14       		.uleb128 0x14
 2174 05b0 18       		.uleb128 0x18
 2175 05b1 E8070000 		.4byte	.LASF105
 2176 05b5 09       		.byte	0x9
 2177 05b6 8D03     		.2byte	0x38d
 2178 05b8 11       		.byte	0x11
 2179 05b9 C8000000 		.4byte	0xc8
 2180 05bd 02       		.byte	0x2
 2181 05be 23       		.byte	0x23
 2182 05bf 18       		.uleb128 0x18
 2183 05c0 17       		.uleb128 0x17
 2184 05c1 4F425200 		.ascii	"OBR\000"
 2185 05c5 09       		.byte	0x9
 2186 05c6 8E03     		.2byte	0x38e
 2187 05c8 11       		.byte	0x11
 2188 05c9 C8000000 		.4byte	0xc8
 2189 05cd 02       		.byte	0x2
 2190 05ce 23       		.byte	0x23
 2191 05cf 1C       		.uleb128 0x1c
 2192 05d0 18       		.uleb128 0x18
 2193 05d1 C5080000 		.4byte	.LASF106
 2194 05d5 09       		.byte	0x9
 2195 05d6 8F03     		.2byte	0x38f
 2196 05d8 11       		.byte	0x11
ARM GAS  /tmp/ccZoGyG7.s 			page 48


 2197 05d9 C8000000 		.4byte	0xc8
 2198 05dd 02       		.byte	0x2
 2199 05de 23       		.byte	0x23
 2200 05df 20       		.uleb128 0x20
 2201 05e0 00       		.byte	0
 2202 05e1 0C       		.uleb128 0xc
 2203 05e2 660A0000 		.4byte	.LASF107
 2204 05e6 09       		.byte	0x9
 2205 05e7 9803     		.2byte	0x398
 2206 05e9 03       		.byte	0x3
 2207 05ea 49050000 		.4byte	0x549
 2208 05ee 16       		.uleb128 0x16
 2209 05ef 1C       		.byte	0x1c
 2210 05f0 09       		.byte	0x9
 2211 05f1 E903     		.2byte	0x3e9
 2212 05f3 09       		.byte	0x9
 2213 05f4 69060000 		.4byte	0x669
 2214 05f8 17       		.uleb128 0x17
 2215 05f9 43524C00 		.ascii	"CRL\000"
 2216 05fd 09       		.byte	0x9
 2217 05fe EB03     		.2byte	0x3eb
 2218 0600 11       		.byte	0x11
 2219 0601 C8000000 		.4byte	0xc8
 2220 0605 02       		.byte	0x2
 2221 0606 23       		.byte	0x23
 2222 0607 00       		.uleb128 0
 2223 0608 17       		.uleb128 0x17
 2224 0609 43524800 		.ascii	"CRH\000"
 2225 060d 09       		.byte	0x9
 2226 060e EC03     		.2byte	0x3ec
 2227 0610 11       		.byte	0x11
 2228 0611 C8000000 		.4byte	0xc8
 2229 0615 02       		.byte	0x2
 2230 0616 23       		.byte	0x23
 2231 0617 04       		.uleb128 0x4
 2232 0618 17       		.uleb128 0x17
 2233 0619 49445200 		.ascii	"IDR\000"
 2234 061d 09       		.byte	0x9
 2235 061e ED03     		.2byte	0x3ed
 2236 0620 11       		.byte	0x11
 2237 0621 C8000000 		.4byte	0xc8
 2238 0625 02       		.byte	0x2
 2239 0626 23       		.byte	0x23
 2240 0627 08       		.uleb128 0x8
 2241 0628 17       		.uleb128 0x17
 2242 0629 4F445200 		.ascii	"ODR\000"
 2243 062d 09       		.byte	0x9
 2244 062e EE03     		.2byte	0x3ee
 2245 0630 11       		.byte	0x11
 2246 0631 C8000000 		.4byte	0xc8
 2247 0635 02       		.byte	0x2
 2248 0636 23       		.byte	0x23
 2249 0637 0C       		.uleb128 0xc
 2250 0638 18       		.uleb128 0x18
 2251 0639 CC090000 		.4byte	.LASF108
 2252 063d 09       		.byte	0x9
 2253 063e EF03     		.2byte	0x3ef
ARM GAS  /tmp/ccZoGyG7.s 			page 49


 2254 0640 11       		.byte	0x11
 2255 0641 C8000000 		.4byte	0xc8
 2256 0645 02       		.byte	0x2
 2257 0646 23       		.byte	0x23
 2258 0647 10       		.uleb128 0x10
 2259 0648 17       		.uleb128 0x17
 2260 0649 42525200 		.ascii	"BRR\000"
 2261 064d 09       		.byte	0x9
 2262 064e F003     		.2byte	0x3f0
 2263 0650 11       		.byte	0x11
 2264 0651 C8000000 		.4byte	0xc8
 2265 0655 02       		.byte	0x2
 2266 0656 23       		.byte	0x23
 2267 0657 14       		.uleb128 0x14
 2268 0658 18       		.uleb128 0x18
 2269 0659 0F000000 		.4byte	.LASF109
 2270 065d 09       		.byte	0x9
 2271 065e F103     		.2byte	0x3f1
 2272 0660 11       		.byte	0x11
 2273 0661 C8000000 		.4byte	0xc8
 2274 0665 02       		.byte	0x2
 2275 0666 23       		.byte	0x23
 2276 0667 18       		.uleb128 0x18
 2277 0668 00       		.byte	0
 2278 0669 0C       		.uleb128 0xc
 2279 066a E1030000 		.4byte	.LASF110
 2280 066e 09       		.byte	0x9
 2281 066f F203     		.2byte	0x3f2
 2282 0671 03       		.byte	0x3
 2283 0672 EE050000 		.4byte	0x5ee
 2284 0676 16       		.uleb128 0x16
 2285 0677 30       		.byte	0x30
 2286 0678 09       		.byte	0x9
 2287 0679 3404     		.2byte	0x434
 2288 067b 09       		.byte	0x9
 2289 067c 40070000 		.4byte	0x740
 2290 0680 17       		.uleb128 0x17
 2291 0681 435200   		.ascii	"CR\000"
 2292 0684 09       		.byte	0x9
 2293 0685 3604     		.2byte	0x436
 2294 0687 11       		.byte	0x11
 2295 0688 C8000000 		.4byte	0xc8
 2296 068c 02       		.byte	0x2
 2297 068d 23       		.byte	0x23
 2298 068e 00       		.uleb128 0
 2299 068f 18       		.uleb128 0x18
 2300 0690 430A0000 		.4byte	.LASF111
 2301 0694 09       		.byte	0x9
 2302 0695 3704     		.2byte	0x437
 2303 0697 11       		.byte	0x11
 2304 0698 C8000000 		.4byte	0xc8
 2305 069c 02       		.byte	0x2
 2306 069d 23       		.byte	0x23
 2307 069e 04       		.uleb128 0x4
 2308 069f 17       		.uleb128 0x17
 2309 06a0 43495200 		.ascii	"CIR\000"
 2310 06a4 09       		.byte	0x9
ARM GAS  /tmp/ccZoGyG7.s 			page 50


 2311 06a5 3804     		.2byte	0x438
 2312 06a7 11       		.byte	0x11
 2313 06a8 C8000000 		.4byte	0xc8
 2314 06ac 02       		.byte	0x2
 2315 06ad 23       		.byte	0x23
 2316 06ae 08       		.uleb128 0x8
 2317 06af 18       		.uleb128 0x18
 2318 06b0 31020000 		.4byte	.LASF112
 2319 06b4 09       		.byte	0x9
 2320 06b5 3904     		.2byte	0x439
 2321 06b7 11       		.byte	0x11
 2322 06b8 C8000000 		.4byte	0xc8
 2323 06bc 02       		.byte	0x2
 2324 06bd 23       		.byte	0x23
 2325 06be 0C       		.uleb128 0xc
 2326 06bf 18       		.uleb128 0x18
 2327 06c0 CA060000 		.4byte	.LASF113
 2328 06c4 09       		.byte	0x9
 2329 06c5 3A04     		.2byte	0x43a
 2330 06c7 11       		.byte	0x11
 2331 06c8 C8000000 		.4byte	0xc8
 2332 06cc 02       		.byte	0x2
 2333 06cd 23       		.byte	0x23
 2334 06ce 10       		.uleb128 0x10
 2335 06cf 18       		.uleb128 0x18
 2336 06d0 87040000 		.4byte	.LASF114
 2337 06d4 09       		.byte	0x9
 2338 06d5 3B04     		.2byte	0x43b
 2339 06d7 11       		.byte	0x11
 2340 06d8 C8000000 		.4byte	0xc8
 2341 06dc 02       		.byte	0x2
 2342 06dd 23       		.byte	0x23
 2343 06de 14       		.uleb128 0x14
 2344 06df 18       		.uleb128 0x18
 2345 06e0 23080000 		.4byte	.LASF115
 2346 06e4 09       		.byte	0x9
 2347 06e5 3C04     		.2byte	0x43c
 2348 06e7 11       		.byte	0x11
 2349 06e8 C8000000 		.4byte	0xc8
 2350 06ec 02       		.byte	0x2
 2351 06ed 23       		.byte	0x23
 2352 06ee 18       		.uleb128 0x18
 2353 06ef 18       		.uleb128 0x18
 2354 06f0 6D090000 		.4byte	.LASF116
 2355 06f4 09       		.byte	0x9
 2356 06f5 3D04     		.2byte	0x43d
 2357 06f7 11       		.byte	0x11
 2358 06f8 C8000000 		.4byte	0xc8
 2359 06fc 02       		.byte	0x2
 2360 06fd 23       		.byte	0x23
 2361 06fe 1C       		.uleb128 0x1c
 2362 06ff 18       		.uleb128 0x18
 2363 0700 E8090000 		.4byte	.LASF117
 2364 0704 09       		.byte	0x9
 2365 0705 3E04     		.2byte	0x43e
 2366 0707 11       		.byte	0x11
 2367 0708 C8000000 		.4byte	0xc8
ARM GAS  /tmp/ccZoGyG7.s 			page 51


 2368 070c 02       		.byte	0x2
 2369 070d 23       		.byte	0x23
 2370 070e 20       		.uleb128 0x20
 2371 070f 17       		.uleb128 0x17
 2372 0710 43535200 		.ascii	"CSR\000"
 2373 0714 09       		.byte	0x9
 2374 0715 3F04     		.2byte	0x43f
 2375 0717 11       		.byte	0x11
 2376 0718 C8000000 		.4byte	0xc8
 2377 071c 02       		.byte	0x2
 2378 071d 23       		.byte	0x23
 2379 071e 24       		.uleb128 0x24
 2380 071f 18       		.uleb128 0x18
 2381 0720 B1060000 		.4byte	.LASF118
 2382 0724 09       		.byte	0x9
 2383 0725 4004     		.2byte	0x440
 2384 0727 11       		.byte	0x11
 2385 0728 C8000000 		.4byte	0xc8
 2386 072c 02       		.byte	0x2
 2387 072d 23       		.byte	0x23
 2388 072e 28       		.uleb128 0x28
 2389 072f 18       		.uleb128 0x18
 2390 0730 F3090000 		.4byte	.LASF119
 2391 0734 09       		.byte	0x9
 2392 0735 4104     		.2byte	0x441
 2393 0737 11       		.byte	0x11
 2394 0738 C8000000 		.4byte	0xc8
 2395 073c 02       		.byte	0x2
 2396 073d 23       		.byte	0x23
 2397 073e 2C       		.uleb128 0x2c
 2398 073f 00       		.byte	0
 2399 0740 0C       		.uleb128 0xc
 2400 0741 FA030000 		.4byte	.LASF120
 2401 0745 09       		.byte	0x9
 2402 0746 4204     		.2byte	0x442
 2403 0748 03       		.byte	0x3
 2404 0749 76060000 		.4byte	0x676
 2405 074d 16       		.uleb128 0x16
 2406 074e 50       		.byte	0x50
 2407 074f 09       		.byte	0x9
 2408 0750 9A04     		.2byte	0x49a
 2409 0752 09       		.byte	0x9
 2410 0753 D7090000 		.4byte	0x9d7
 2411 0757 17       		.uleb128 0x17
 2412 0758 43523100 		.ascii	"CR1\000"
 2413 075c 09       		.byte	0x9
 2414 075d 9C04     		.2byte	0x49c
 2415 075f 11       		.byte	0x11
 2416 0760 B7000000 		.4byte	0xb7
 2417 0764 02       		.byte	0x2
 2418 0765 23       		.byte	0x23
 2419 0766 00       		.uleb128 0
 2420 0767 18       		.uleb128 0x18
 2421 0768 F5060000 		.4byte	.LASF73
 2422 076c 09       		.byte	0x9
 2423 076d 9D04     		.2byte	0x49d
 2424 076f 0D       		.byte	0xd
ARM GAS  /tmp/ccZoGyG7.s 			page 52


 2425 0770 AB000000 		.4byte	0xab
 2426 0774 02       		.byte	0x2
 2427 0775 23       		.byte	0x23
 2428 0776 02       		.uleb128 0x2
 2429 0777 17       		.uleb128 0x17
 2430 0778 43523200 		.ascii	"CR2\000"
 2431 077c 09       		.byte	0x9
 2432 077d 9E04     		.2byte	0x49e
 2433 077f 11       		.byte	0x11
 2434 0780 B7000000 		.4byte	0xb7
 2435 0784 02       		.byte	0x2
 2436 0785 23       		.byte	0x23
 2437 0786 04       		.uleb128 0x4
 2438 0787 18       		.uleb128 0x18
 2439 0788 FF060000 		.4byte	.LASF121
 2440 078c 09       		.byte	0x9
 2441 078d 9F04     		.2byte	0x49f
 2442 078f 0D       		.byte	0xd
 2443 0790 AB000000 		.4byte	0xab
 2444 0794 02       		.byte	0x2
 2445 0795 23       		.byte	0x23
 2446 0796 06       		.uleb128 0x6
 2447 0797 18       		.uleb128 0x18
 2448 0798 4D040000 		.4byte	.LASF122
 2449 079c 09       		.byte	0x9
 2450 079d A004     		.2byte	0x4a0
 2451 079f 11       		.byte	0x11
 2452 07a0 B7000000 		.4byte	0xb7
 2453 07a4 02       		.byte	0x2
 2454 07a5 23       		.byte	0x23
 2455 07a6 08       		.uleb128 0x8
 2456 07a7 18       		.uleb128 0x18
 2457 07a8 09070000 		.4byte	.LASF77
 2458 07ac 09       		.byte	0x9
 2459 07ad A104     		.2byte	0x4a1
 2460 07af 0D       		.byte	0xd
 2461 07b0 AB000000 		.4byte	0xab
 2462 07b4 02       		.byte	0x2
 2463 07b5 23       		.byte	0x23
 2464 07b6 0A       		.uleb128 0xa
 2465 07b7 18       		.uleb128 0x18
 2466 07b8 2D000000 		.4byte	.LASF123
 2467 07bc 09       		.byte	0x9
 2468 07bd A204     		.2byte	0x4a2
 2469 07bf 11       		.byte	0x11
 2470 07c0 B7000000 		.4byte	0xb7
 2471 07c4 02       		.byte	0x2
 2472 07c5 23       		.byte	0x23
 2473 07c6 0C       		.uleb128 0xc
 2474 07c7 18       		.uleb128 0x18
 2475 07c8 13070000 		.4byte	.LASF79
 2476 07cc 09       		.byte	0x9
 2477 07cd A304     		.2byte	0x4a3
 2478 07cf 0D       		.byte	0xd
 2479 07d0 AB000000 		.4byte	0xab
 2480 07d4 02       		.byte	0x2
 2481 07d5 23       		.byte	0x23
ARM GAS  /tmp/ccZoGyG7.s 			page 53


 2482 07d6 0E       		.uleb128 0xe
 2483 07d7 17       		.uleb128 0x17
 2484 07d8 535200   		.ascii	"SR\000"
 2485 07db 09       		.byte	0x9
 2486 07dc A404     		.2byte	0x4a4
 2487 07de 11       		.byte	0x11
 2488 07df B7000000 		.4byte	0xb7
 2489 07e3 02       		.byte	0x2
 2490 07e4 23       		.byte	0x23
 2491 07e5 10       		.uleb128 0x10
 2492 07e6 18       		.uleb128 0x18
 2493 07e7 1D070000 		.4byte	.LASF81
 2494 07eb 09       		.byte	0x9
 2495 07ec A504     		.2byte	0x4a5
 2496 07ee 0D       		.byte	0xd
 2497 07ef AB000000 		.4byte	0xab
 2498 07f3 02       		.byte	0x2
 2499 07f4 23       		.byte	0x23
 2500 07f5 12       		.uleb128 0x12
 2501 07f6 17       		.uleb128 0x17
 2502 07f7 45475200 		.ascii	"EGR\000"
 2503 07fb 09       		.byte	0x9
 2504 07fc A604     		.2byte	0x4a6
 2505 07fe 11       		.byte	0x11
 2506 07ff B7000000 		.4byte	0xb7
 2507 0803 02       		.byte	0x2
 2508 0804 23       		.byte	0x23
 2509 0805 14       		.uleb128 0x14
 2510 0806 18       		.uleb128 0x18
 2511 0807 27070000 		.4byte	.LASF82
 2512 080b 09       		.byte	0x9
 2513 080c A704     		.2byte	0x4a7
 2514 080e 0D       		.byte	0xd
 2515 080f AB000000 		.4byte	0xab
 2516 0813 02       		.byte	0x2
 2517 0814 23       		.byte	0x23
 2518 0815 16       		.uleb128 0x16
 2519 0816 18       		.uleb128 0x18
 2520 0817 29010000 		.4byte	.LASF124
 2521 081b 09       		.byte	0x9
 2522 081c A804     		.2byte	0x4a8
 2523 081e 11       		.byte	0x11
 2524 081f B7000000 		.4byte	0xb7
 2525 0823 02       		.byte	0x2
 2526 0824 23       		.byte	0x23
 2527 0825 18       		.uleb128 0x18
 2528 0826 18       		.uleb128 0x18
 2529 0827 31070000 		.4byte	.LASF125
 2530 082b 09       		.byte	0x9
 2531 082c A904     		.2byte	0x4a9
 2532 082e 0D       		.byte	0xd
 2533 082f AB000000 		.4byte	0xab
 2534 0833 02       		.byte	0x2
 2535 0834 23       		.byte	0x23
 2536 0835 1A       		.uleb128 0x1a
 2537 0836 18       		.uleb128 0x18
 2538 0837 2F010000 		.4byte	.LASF126
ARM GAS  /tmp/ccZoGyG7.s 			page 54


 2539 083b 09       		.byte	0x9
 2540 083c AA04     		.2byte	0x4aa
 2541 083e 11       		.byte	0x11
 2542 083f B7000000 		.4byte	0xb7
 2543 0843 02       		.byte	0x2
 2544 0844 23       		.byte	0x23
 2545 0845 1C       		.uleb128 0x1c
 2546 0846 18       		.uleb128 0x18
 2547 0847 6E080000 		.4byte	.LASF127
 2548 084b 09       		.byte	0x9
 2549 084c AB04     		.2byte	0x4ab
 2550 084e 0D       		.byte	0xd
 2551 084f AB000000 		.4byte	0xab
 2552 0853 02       		.byte	0x2
 2553 0854 23       		.byte	0x23
 2554 0855 1E       		.uleb128 0x1e
 2555 0856 18       		.uleb128 0x18
 2556 0857 47020000 		.4byte	.LASF128
 2557 085b 09       		.byte	0x9
 2558 085c AC04     		.2byte	0x4ac
 2559 085e 11       		.byte	0x11
 2560 085f B7000000 		.4byte	0xb7
 2561 0863 02       		.byte	0x2
 2562 0864 23       		.byte	0x23
 2563 0865 20       		.uleb128 0x20
 2564 0866 18       		.uleb128 0x18
 2565 0867 3B070000 		.4byte	.LASF129
 2566 086b 09       		.byte	0x9
 2567 086c AD04     		.2byte	0x4ad
 2568 086e 0D       		.byte	0xd
 2569 086f AB000000 		.4byte	0xab
 2570 0873 02       		.byte	0x2
 2571 0874 23       		.byte	0x23
 2572 0875 22       		.uleb128 0x22
 2573 0876 17       		.uleb128 0x17
 2574 0877 434E5400 		.ascii	"CNT\000"
 2575 087b 09       		.byte	0x9
 2576 087c AE04     		.2byte	0x4ae
 2577 087e 11       		.byte	0x11
 2578 087f B7000000 		.4byte	0xb7
 2579 0883 02       		.byte	0x2
 2580 0884 23       		.byte	0x23
 2581 0885 24       		.uleb128 0x24
 2582 0886 18       		.uleb128 0x18
 2583 0887 45070000 		.4byte	.LASF130
 2584 088b 09       		.byte	0x9
 2585 088c AF04     		.2byte	0x4af
 2586 088e 0D       		.byte	0xd
 2587 088f AB000000 		.4byte	0xab
 2588 0893 02       		.byte	0x2
 2589 0894 23       		.byte	0x23
 2590 0895 26       		.uleb128 0x26
 2591 0896 17       		.uleb128 0x17
 2592 0897 50534300 		.ascii	"PSC\000"
 2593 089b 09       		.byte	0x9
 2594 089c B004     		.2byte	0x4b0
 2595 089e 11       		.byte	0x11
ARM GAS  /tmp/ccZoGyG7.s 			page 55


 2596 089f B7000000 		.4byte	0xb7
 2597 08a3 02       		.byte	0x2
 2598 08a4 23       		.byte	0x23
 2599 08a5 28       		.uleb128 0x28
 2600 08a6 18       		.uleb128 0x18
 2601 08a7 AC010000 		.4byte	.LASF131
 2602 08ab 09       		.byte	0x9
 2603 08ac B104     		.2byte	0x4b1
 2604 08ae 0D       		.byte	0xd
 2605 08af AB000000 		.4byte	0xab
 2606 08b3 02       		.byte	0x2
 2607 08b4 23       		.byte	0x23
 2608 08b5 2A       		.uleb128 0x2a
 2609 08b6 17       		.uleb128 0x17
 2610 08b7 41525200 		.ascii	"ARR\000"
 2611 08bb 09       		.byte	0x9
 2612 08bc B204     		.2byte	0x4b2
 2613 08be 11       		.byte	0x11
 2614 08bf B7000000 		.4byte	0xb7
 2615 08c3 02       		.byte	0x2
 2616 08c4 23       		.byte	0x23
 2617 08c5 2C       		.uleb128 0x2c
 2618 08c6 18       		.uleb128 0x18
 2619 08c7 B7010000 		.4byte	.LASF132
 2620 08cb 09       		.byte	0x9
 2621 08cc B304     		.2byte	0x4b3
 2622 08ce 0D       		.byte	0xd
 2623 08cf AB000000 		.4byte	0xab
 2624 08d3 02       		.byte	0x2
 2625 08d4 23       		.byte	0x23
 2626 08d5 2E       		.uleb128 0x2e
 2627 08d6 17       		.uleb128 0x17
 2628 08d7 52435200 		.ascii	"RCR\000"
 2629 08db 09       		.byte	0x9
 2630 08dc B404     		.2byte	0x4b4
 2631 08de 11       		.byte	0x11
 2632 08df B7000000 		.4byte	0xb7
 2633 08e3 02       		.byte	0x2
 2634 08e4 23       		.byte	0x23
 2635 08e5 30       		.uleb128 0x30
 2636 08e6 18       		.uleb128 0x18
 2637 08e7 54060000 		.4byte	.LASF133
 2638 08eb 09       		.byte	0x9
 2639 08ec B504     		.2byte	0x4b5
 2640 08ee 0D       		.byte	0xd
 2641 08ef AB000000 		.4byte	0xab
 2642 08f3 02       		.byte	0x2
 2643 08f4 23       		.byte	0x23
 2644 08f5 32       		.uleb128 0x32
 2645 08f6 18       		.uleb128 0x18
 2646 08f7 B3090000 		.4byte	.LASF134
 2647 08fb 09       		.byte	0x9
 2648 08fc B604     		.2byte	0x4b6
 2649 08fe 11       		.byte	0x11
 2650 08ff B7000000 		.4byte	0xb7
 2651 0903 02       		.byte	0x2
 2652 0904 23       		.byte	0x23
ARM GAS  /tmp/ccZoGyG7.s 			page 56


 2653 0905 34       		.uleb128 0x34
 2654 0906 18       		.uleb128 0x18
 2655 0907 CD010000 		.4byte	.LASF135
 2656 090b 09       		.byte	0x9
 2657 090c B704     		.2byte	0x4b7
 2658 090e 0D       		.byte	0xd
 2659 090f AB000000 		.4byte	0xab
 2660 0913 02       		.byte	0x2
 2661 0914 23       		.byte	0x23
 2662 0915 36       		.uleb128 0x36
 2663 0916 18       		.uleb128 0x18
 2664 0917 B0000000 		.4byte	.LASF136
 2665 091b 09       		.byte	0x9
 2666 091c B804     		.2byte	0x4b8
 2667 091e 11       		.byte	0x11
 2668 091f B7000000 		.4byte	0xb7
 2669 0923 02       		.byte	0x2
 2670 0924 23       		.byte	0x23
 2671 0925 38       		.uleb128 0x38
 2672 0926 18       		.uleb128 0x18
 2673 0927 D8010000 		.4byte	.LASF137
 2674 092b 09       		.byte	0x9
 2675 092c B904     		.2byte	0x4b9
 2676 092e 0D       		.byte	0xd
 2677 092f AB000000 		.4byte	0xab
 2678 0933 02       		.byte	0x2
 2679 0934 23       		.byte	0x23
 2680 0935 3A       		.uleb128 0x3a
 2681 0936 18       		.uleb128 0x18
 2682 0937 C2090000 		.4byte	.LASF138
 2683 093b 09       		.byte	0x9
 2684 093c BA04     		.2byte	0x4ba
 2685 093e 11       		.byte	0x11
 2686 093f B7000000 		.4byte	0xb7
 2687 0943 02       		.byte	0x2
 2688 0944 23       		.byte	0x23
 2689 0945 3C       		.uleb128 0x3c
 2690 0946 18       		.uleb128 0x18
 2691 0947 AB020000 		.4byte	.LASF139
 2692 094b 09       		.byte	0x9
 2693 094c BB04     		.2byte	0x4bb
 2694 094e 0D       		.byte	0xd
 2695 094f AB000000 		.4byte	0xab
 2696 0953 02       		.byte	0x2
 2697 0954 23       		.byte	0x23
 2698 0955 3E       		.uleb128 0x3e
 2699 0956 18       		.uleb128 0x18
 2700 0957 C7090000 		.4byte	.LASF140
 2701 095b 09       		.byte	0x9
 2702 095c BC04     		.2byte	0x4bc
 2703 095e 11       		.byte	0x11
 2704 095f B7000000 		.4byte	0xb7
 2705 0963 02       		.byte	0x2
 2706 0964 23       		.byte	0x23
 2707 0965 40       		.uleb128 0x40
 2708 0966 18       		.uleb128 0x18
 2709 0967 F1010000 		.4byte	.LASF141
ARM GAS  /tmp/ccZoGyG7.s 			page 57


 2710 096b 09       		.byte	0x9
 2711 096c BD04     		.2byte	0x4bd
 2712 096e 0D       		.byte	0xd
 2713 096f AB000000 		.4byte	0xab
 2714 0973 02       		.byte	0x2
 2715 0974 23       		.byte	0x23
 2716 0975 42       		.uleb128 0x42
 2717 0976 18       		.uleb128 0x18
 2718 0977 E3070000 		.4byte	.LASF142
 2719 097b 09       		.byte	0x9
 2720 097c BE04     		.2byte	0x4be
 2721 097e 11       		.byte	0x11
 2722 097f B7000000 		.4byte	0xb7
 2723 0983 02       		.byte	0x2
 2724 0984 23       		.byte	0x23
 2725 0985 44       		.uleb128 0x44
 2726 0986 18       		.uleb128 0x18
 2727 0987 FC010000 		.4byte	.LASF143
 2728 098b 09       		.byte	0x9
 2729 098c BF04     		.2byte	0x4bf
 2730 098e 0D       		.byte	0xd
 2731 098f AB000000 		.4byte	0xab
 2732 0993 02       		.byte	0x2
 2733 0994 23       		.byte	0x23
 2734 0995 46       		.uleb128 0x46
 2735 0996 17       		.uleb128 0x17
 2736 0997 44435200 		.ascii	"DCR\000"
 2737 099b 09       		.byte	0x9
 2738 099c C004     		.2byte	0x4c0
 2739 099e 11       		.byte	0x11
 2740 099f B7000000 		.4byte	0xb7
 2741 09a3 02       		.byte	0x2
 2742 09a4 23       		.byte	0x23
 2743 09a5 48       		.uleb128 0x48
 2744 09a6 18       		.uleb128 0x18
 2745 09a7 DD090000 		.4byte	.LASF144
 2746 09ab 09       		.byte	0x9
 2747 09ac C104     		.2byte	0x4c1
 2748 09ae 0D       		.byte	0xd
 2749 09af AB000000 		.4byte	0xab
 2750 09b3 02       		.byte	0x2
 2751 09b4 23       		.byte	0x23
 2752 09b5 4A       		.uleb128 0x4a
 2753 09b6 18       		.uleb128 0x18
 2754 09b7 FD080000 		.4byte	.LASF145
 2755 09bb 09       		.byte	0x9
 2756 09bc C204     		.2byte	0x4c2
 2757 09be 11       		.byte	0x11
 2758 09bf B7000000 		.4byte	0xb7
 2759 09c3 02       		.byte	0x2
 2760 09c4 23       		.byte	0x23
 2761 09c5 4C       		.uleb128 0x4c
 2762 09c6 18       		.uleb128 0x18
 2763 09c7 16020000 		.4byte	.LASF146
 2764 09cb 09       		.byte	0x9
 2765 09cc C304     		.2byte	0x4c3
 2766 09ce 0D       		.byte	0xd
ARM GAS  /tmp/ccZoGyG7.s 			page 58


 2767 09cf AB000000 		.4byte	0xab
 2768 09d3 02       		.byte	0x2
 2769 09d4 23       		.byte	0x23
 2770 09d5 4E       		.uleb128 0x4e
 2771 09d6 00       		.byte	0
 2772 09d7 0C       		.uleb128 0xc
 2773 09d8 89000000 		.4byte	.LASF147
 2774 09dc 09       		.byte	0x9
 2775 09dd C404     		.2byte	0x4c4
 2776 09df 03       		.byte	0x3
 2777 09e0 4D070000 		.4byte	0x74d
 2778 09e4 16       		.uleb128 0x16
 2779 09e5 1C       		.byte	0x1c
 2780 09e6 09       		.byte	0x9
 2781 09e7 CA04     		.2byte	0x4ca
 2782 09e9 09       		.byte	0x9
 2783 09ea CD0A0000 		.4byte	0xacd
 2784 09ee 17       		.uleb128 0x17
 2785 09ef 535200   		.ascii	"SR\000"
 2786 09f2 09       		.byte	0x9
 2787 09f3 CC04     		.2byte	0x4cc
 2788 09f5 11       		.byte	0x11
 2789 09f6 B7000000 		.4byte	0xb7
 2790 09fa 02       		.byte	0x2
 2791 09fb 23       		.byte	0x23
 2792 09fc 00       		.uleb128 0
 2793 09fd 18       		.uleb128 0x18
 2794 09fe F5060000 		.4byte	.LASF73
 2795 0a02 09       		.byte	0x9
 2796 0a03 CD04     		.2byte	0x4cd
 2797 0a05 0D       		.byte	0xd
 2798 0a06 AB000000 		.4byte	0xab
 2799 0a0a 02       		.byte	0x2
 2800 0a0b 23       		.byte	0x23
 2801 0a0c 02       		.uleb128 0x2
 2802 0a0d 17       		.uleb128 0x17
 2803 0a0e 445200   		.ascii	"DR\000"
 2804 0a11 09       		.byte	0x9
 2805 0a12 CE04     		.2byte	0x4ce
 2806 0a14 11       		.byte	0x11
 2807 0a15 B7000000 		.4byte	0xb7
 2808 0a19 02       		.byte	0x2
 2809 0a1a 23       		.byte	0x23
 2810 0a1b 04       		.uleb128 0x4
 2811 0a1c 18       		.uleb128 0x18
 2812 0a1d FF060000 		.4byte	.LASF121
 2813 0a21 09       		.byte	0x9
 2814 0a22 CF04     		.2byte	0x4cf
 2815 0a24 0D       		.byte	0xd
 2816 0a25 AB000000 		.4byte	0xab
 2817 0a29 02       		.byte	0x2
 2818 0a2a 23       		.byte	0x23
 2819 0a2b 06       		.uleb128 0x6
 2820 0a2c 17       		.uleb128 0x17
 2821 0a2d 42525200 		.ascii	"BRR\000"
 2822 0a31 09       		.byte	0x9
 2823 0a32 D004     		.2byte	0x4d0
ARM GAS  /tmp/ccZoGyG7.s 			page 59


 2824 0a34 11       		.byte	0x11
 2825 0a35 B7000000 		.4byte	0xb7
 2826 0a39 02       		.byte	0x2
 2827 0a3a 23       		.byte	0x23
 2828 0a3b 08       		.uleb128 0x8
 2829 0a3c 18       		.uleb128 0x18
 2830 0a3d 09070000 		.4byte	.LASF77
 2831 0a41 09       		.byte	0x9
 2832 0a42 D104     		.2byte	0x4d1
 2833 0a44 0D       		.byte	0xd
 2834 0a45 AB000000 		.4byte	0xab
 2835 0a49 02       		.byte	0x2
 2836 0a4a 23       		.byte	0x23
 2837 0a4b 0A       		.uleb128 0xa
 2838 0a4c 17       		.uleb128 0x17
 2839 0a4d 43523100 		.ascii	"CR1\000"
 2840 0a51 09       		.byte	0x9
 2841 0a52 D204     		.2byte	0x4d2
 2842 0a54 11       		.byte	0x11
 2843 0a55 B7000000 		.4byte	0xb7
 2844 0a59 02       		.byte	0x2
 2845 0a5a 23       		.byte	0x23
 2846 0a5b 0C       		.uleb128 0xc
 2847 0a5c 18       		.uleb128 0x18
 2848 0a5d 13070000 		.4byte	.LASF79
 2849 0a61 09       		.byte	0x9
 2850 0a62 D304     		.2byte	0x4d3
 2851 0a64 0D       		.byte	0xd
 2852 0a65 AB000000 		.4byte	0xab
 2853 0a69 02       		.byte	0x2
 2854 0a6a 23       		.byte	0x23
 2855 0a6b 0E       		.uleb128 0xe
 2856 0a6c 17       		.uleb128 0x17
 2857 0a6d 43523200 		.ascii	"CR2\000"
 2858 0a71 09       		.byte	0x9
 2859 0a72 D404     		.2byte	0x4d4
 2860 0a74 11       		.byte	0x11
 2861 0a75 B7000000 		.4byte	0xb7
 2862 0a79 02       		.byte	0x2
 2863 0a7a 23       		.byte	0x23
 2864 0a7b 10       		.uleb128 0x10
 2865 0a7c 18       		.uleb128 0x18
 2866 0a7d 1D070000 		.4byte	.LASF81
 2867 0a81 09       		.byte	0x9
 2868 0a82 D504     		.2byte	0x4d5
 2869 0a84 0D       		.byte	0xd
 2870 0a85 AB000000 		.4byte	0xab
 2871 0a89 02       		.byte	0x2
 2872 0a8a 23       		.byte	0x23
 2873 0a8b 12       		.uleb128 0x12
 2874 0a8c 17       		.uleb128 0x17
 2875 0a8d 43523300 		.ascii	"CR3\000"
 2876 0a91 09       		.byte	0x9
 2877 0a92 D604     		.2byte	0x4d6
 2878 0a94 11       		.byte	0x11
 2879 0a95 B7000000 		.4byte	0xb7
 2880 0a99 02       		.byte	0x2
ARM GAS  /tmp/ccZoGyG7.s 			page 60


 2881 0a9a 23       		.byte	0x23
 2882 0a9b 14       		.uleb128 0x14
 2883 0a9c 18       		.uleb128 0x18
 2884 0a9d 27070000 		.4byte	.LASF82
 2885 0aa1 09       		.byte	0x9
 2886 0aa2 D704     		.2byte	0x4d7
 2887 0aa4 0D       		.byte	0xd
 2888 0aa5 AB000000 		.4byte	0xab
 2889 0aa9 02       		.byte	0x2
 2890 0aaa 23       		.byte	0x23
 2891 0aab 16       		.uleb128 0x16
 2892 0aac 18       		.uleb128 0x18
 2893 0aad 7B010000 		.4byte	.LASF148
 2894 0ab1 09       		.byte	0x9
 2895 0ab2 D804     		.2byte	0x4d8
 2896 0ab4 11       		.byte	0x11
 2897 0ab5 B7000000 		.4byte	0xb7
 2898 0ab9 02       		.byte	0x2
 2899 0aba 23       		.byte	0x23
 2900 0abb 18       		.uleb128 0x18
 2901 0abc 18       		.uleb128 0x18
 2902 0abd 31070000 		.4byte	.LASF125
 2903 0ac1 09       		.byte	0x9
 2904 0ac2 D904     		.2byte	0x4d9
 2905 0ac4 0D       		.byte	0xd
 2906 0ac5 AB000000 		.4byte	0xab
 2907 0ac9 02       		.byte	0x2
 2908 0aca 23       		.byte	0x23
 2909 0acb 1A       		.uleb128 0x1a
 2910 0acc 00       		.byte	0
 2911 0acd 0C       		.uleb128 0xc
 2912 0ace 27050000 		.4byte	.LASF149
 2913 0ad2 09       		.byte	0x9
 2914 0ad3 DA04     		.2byte	0x4da
 2915 0ad5 03       		.byte	0x3
 2916 0ad6 E4090000 		.4byte	0x9e4
 2917 0ada 19       		.uleb128 0x19
 2918 0adb 07       		.byte	0x7
 2919 0adc 01       		.byte	0x1
 2920 0add 58000000 		.4byte	0x58
 2921 0ae1 0B       		.byte	0xb
 2922 0ae2 3B       		.byte	0x3b
 2923 0ae3 01       		.byte	0x1
 2924 0ae4 FB0A0000 		.4byte	0xafb
 2925 0ae8 0B       		.uleb128 0xb
 2926 0ae9 78000000 		.4byte	.LASF150
 2927 0aed 01       		.byte	0x1
 2928 0aee 0B       		.uleb128 0xb
 2929 0aef C4070000 		.4byte	.LASF151
 2930 0af3 02       		.byte	0x2
 2931 0af4 0B       		.uleb128 0xb
 2932 0af5 B9060000 		.4byte	.LASF152
 2933 0af9 03       		.byte	0x3
 2934 0afa 00       		.byte	0
 2935 0afb 04       		.uleb128 0x4
 2936 0afc 74030000 		.4byte	.LASF153
 2937 0b00 0B       		.byte	0xb
ARM GAS  /tmp/ccZoGyG7.s 			page 61


 2938 0b01 3F       		.byte	0x3f
 2939 0b02 02       		.byte	0x2
 2940 0b03 DA0A0000 		.4byte	0xada
 2941 0b07 19       		.uleb128 0x19
 2942 0b08 07       		.byte	0x7
 2943 0b09 01       		.byte	0x1
 2944 0b0a 58000000 		.4byte	0x58
 2945 0b0e 0B       		.byte	0xb
 2946 0b0f 48       		.byte	0x48
 2947 0b10 01       		.byte	0x1
 2948 0b11 460B0000 		.4byte	0xb46
 2949 0b15 0B       		.uleb128 0xb
 2950 0b16 06080000 		.4byte	.LASF154
 2951 0b1a 00       		.byte	0
 2952 0b1b 0B       		.uleb128 0xb
 2953 0b1c 4C020000 		.4byte	.LASF155
 2954 0b20 04       		.byte	0x4
 2955 0b21 0B       		.uleb128 0xb
 2956 0b22 AB030000 		.4byte	.LASF156
 2957 0b26 28       		.byte	0x28
 2958 0b27 0B       		.uleb128 0xb
 2959 0b28 E3010000 		.4byte	.LASF157
 2960 0b2c 48       		.byte	0x48
 2961 0b2d 0B       		.uleb128 0xb
 2962 0b2e 76040000 		.4byte	.LASF158
 2963 0b32 14       		.byte	0x14
 2964 0b33 0B       		.uleb128 0xb
 2965 0b34 A0060000 		.4byte	.LASF159
 2966 0b38 10       		.byte	0x10
 2967 0b39 0B       		.uleb128 0xb
 2968 0b3a 2A040000 		.4byte	.LASF160
 2969 0b3e 1C       		.byte	0x1c
 2970 0b3f 0B       		.uleb128 0xb
 2971 0b40 14000000 		.4byte	.LASF161
 2972 0b44 18       		.byte	0x18
 2973 0b45 00       		.byte	0
 2974 0b46 04       		.uleb128 0x4
 2975 0b47 480A0000 		.4byte	.LASF162
 2976 0b4b 0B       		.byte	0xb
 2977 0b4c 50       		.byte	0x50
 2978 0b4d 02       		.byte	0x2
 2979 0b4e 070B0000 		.4byte	0xb07
 2980 0b52 1A       		.uleb128 0x1a
 2981 0b53 04       		.byte	0x4
 2982 0b54 0B       		.byte	0xb
 2983 0b55 5B       		.byte	0x5b
 2984 0b56 09       		.byte	0x9
 2985 0b57 890B0000 		.4byte	0xb89
 2986 0b5b 0E       		.uleb128 0xe
 2987 0b5c 86030000 		.4byte	.LASF163
 2988 0b60 0B       		.byte	0xb
 2989 0b61 5D       		.byte	0x5d
 2990 0b62 0C       		.byte	0xc
 2991 0b63 AB000000 		.4byte	0xab
 2992 0b67 02       		.byte	0x2
 2993 0b68 23       		.byte	0x23
 2994 0b69 00       		.uleb128 0
ARM GAS  /tmp/ccZoGyG7.s 			page 62


 2995 0b6a 0E       		.uleb128 0xe
 2996 0b6b D1000000 		.4byte	.LASF164
 2997 0b6f 0B       		.byte	0xb
 2998 0b70 60       		.byte	0x60
 2999 0b71 15       		.byte	0x15
 3000 0b72 FB0A0000 		.4byte	0xafb
 3001 0b76 02       		.byte	0x2
 3002 0b77 23       		.byte	0x23
 3003 0b78 02       		.uleb128 0x2
 3004 0b79 0E       		.uleb128 0xe
 3005 0b7a A1020000 		.4byte	.LASF165
 3006 0b7e 0B       		.byte	0xb
 3007 0b7f 63       		.byte	0x63
 3008 0b80 14       		.byte	0x14
 3009 0b81 460B0000 		.4byte	0xb46
 3010 0b85 02       		.byte	0x2
 3011 0b86 23       		.byte	0x23
 3012 0b87 03       		.uleb128 0x3
 3013 0b88 00       		.byte	0
 3014 0b89 04       		.uleb128 0x4
 3015 0b8a 83060000 		.4byte	.LASF166
 3016 0b8e 0B       		.byte	0xb
 3017 0b8f 65       		.byte	0x65
 3018 0b90 02       		.byte	0x2
 3019 0b91 520B0000 		.4byte	0xb52
 3020 0b95 1A       		.uleb128 0x1a
 3021 0b96 10       		.byte	0x10
 3022 0b97 0C       		.byte	0xc
 3023 0b98 32       		.byte	0x32
 3024 0b99 09       		.byte	0x9
 3025 0b9a F90B0000 		.4byte	0xbf9
 3026 0b9e 0E       		.uleb128 0xe
 3027 0b9f 07020000 		.4byte	.LASF167
 3028 0ba3 0C       		.byte	0xc
 3029 0ba4 34       		.byte	0x34
 3030 0ba5 0C       		.byte	0xc
 3031 0ba6 BC000000 		.4byte	0xbc
 3032 0baa 02       		.byte	0x2
 3033 0bab 23       		.byte	0x23
 3034 0bac 00       		.uleb128 0
 3035 0bad 0E       		.uleb128 0xe
 3036 0bae 1A090000 		.4byte	.LASF168
 3037 0bb2 0C       		.byte	0xc
 3038 0bb3 39       		.byte	0x39
 3039 0bb4 0C       		.byte	0xc
 3040 0bb5 AB000000 		.4byte	0xab
 3041 0bb9 02       		.byte	0x2
 3042 0bba 23       		.byte	0x23
 3043 0bbb 04       		.uleb128 0x4
 3044 0bbc 0E       		.uleb128 0xe
 3045 0bbd 2A030000 		.4byte	.LASF169
 3046 0bc1 0C       		.byte	0xc
 3047 0bc2 3C       		.byte	0x3c
 3048 0bc3 0C       		.byte	0xc
 3049 0bc4 AB000000 		.4byte	0xab
 3050 0bc8 02       		.byte	0x2
 3051 0bc9 23       		.byte	0x23
ARM GAS  /tmp/ccZoGyG7.s 			page 63


 3052 0bca 06       		.uleb128 0x6
 3053 0bcb 0E       		.uleb128 0xe
 3054 0bcc 63010000 		.4byte	.LASF170
 3055 0bd0 0C       		.byte	0xc
 3056 0bd1 3F       		.byte	0x3f
 3057 0bd2 0C       		.byte	0xc
 3058 0bd3 AB000000 		.4byte	0xab
 3059 0bd7 02       		.byte	0x2
 3060 0bd8 23       		.byte	0x23
 3061 0bd9 08       		.uleb128 0x8
 3062 0bda 0E       		.uleb128 0xe
 3063 0bdb C2010000 		.4byte	.LASF171
 3064 0bdf 0C       		.byte	0xc
 3065 0be0 46       		.byte	0x46
 3066 0be1 0C       		.byte	0xc
 3067 0be2 AB000000 		.4byte	0xab
 3068 0be6 02       		.byte	0x2
 3069 0be7 23       		.byte	0x23
 3070 0be8 0A       		.uleb128 0xa
 3071 0be9 0E       		.uleb128 0xe
 3072 0bea B6020000 		.4byte	.LASF172
 3073 0bee 0C       		.byte	0xc
 3074 0bef 49       		.byte	0x49
 3075 0bf0 0C       		.byte	0xc
 3076 0bf1 AB000000 		.4byte	0xab
 3077 0bf5 02       		.byte	0x2
 3078 0bf6 23       		.byte	0x23
 3079 0bf7 0C       		.uleb128 0xc
 3080 0bf8 00       		.byte	0
 3081 0bf9 04       		.uleb128 0x4
 3082 0bfa 70050000 		.4byte	.LASF173
 3083 0bfe 0C       		.byte	0xc
 3084 0bff 4C       		.byte	0x4c
 3085 0c00 03       		.byte	0x3
 3086 0c01 950B0000 		.4byte	0xb95
 3087 0c05 1B       		.uleb128 0x1b
 3088 0c06 8F030000 		.4byte	.LASF174
 3089 0c0a 01       		.byte	0x1
 3090 0c0b 46       		.byte	0x46
 3091 0c0c 16       		.byte	0x16
 3092 0c0d EE000000 		.4byte	0xee
 3093 0c11 05       		.byte	0x5
 3094 0c12 03       		.byte	0x3
 3095 0c13 00000000 		.4byte	LCD_Show_queue
 3096 0c17 1C       		.uleb128 0x1c
 3097 0c18 01       		.byte	0x1
 3098 0c19 790A0000 		.4byte	.LASF219
 3099 0c1d 01       		.byte	0x1
 3100 0c1e 81       		.byte	0x81
 3101 0c1f 05       		.byte	0x5
 3102 0c20 01       		.byte	0x1
 3103 0c21 29000000 		.4byte	0x29
 3104 0c25 00000000 		.4byte	.LFB48
 3105 0c29 6C000000 		.4byte	.LFE48
 3106 0c2d 00000000 		.4byte	.LLST14
 3107 0c31 01       		.byte	0x1
 3108 0c32 140D0000 		.4byte	0xd14
ARM GAS  /tmp/ccZoGyG7.s 			page 64


 3109 0c36 1D       		.uleb128 0x1d
 3110 0c37 0C000000 		.4byte	.LVL43
 3111 0c3b 9F110000 		.4byte	0x119f
 3112 0c3f 530C0000 		.4byte	0xc53
 3113 0c43 1E       		.uleb128 0x1e
 3114 0c44 01       		.byte	0x1
 3115 0c45 50       		.byte	0x50
 3116 0c46 01       		.byte	0x1
 3117 0c47 32       		.byte	0x32
 3118 0c48 1E       		.uleb128 0x1e
 3119 0c49 01       		.byte	0x1
 3120 0c4a 51       		.byte	0x51
 3121 0c4b 01       		.byte	0x1
 3122 0c4c 34       		.byte	0x34
 3123 0c4d 1E       		.uleb128 0x1e
 3124 0c4e 01       		.byte	0x1
 3125 0c4f 52       		.byte	0x52
 3126 0c50 01       		.byte	0x1
 3127 0c51 30       		.byte	0x30
 3128 0c52 00       		.byte	0
 3129 0c53 1F       		.uleb128 0x1f
 3130 0c54 18000000 		.4byte	.LVL44
 3131 0c58 74110000 		.4byte	0x1174
 3132 0c5c 1D       		.uleb128 0x1d
 3133 0c5d 28000000 		.4byte	.LVL45
 3134 0c61 AE110000 		.4byte	0x11ae
 3135 0c65 960C0000 		.4byte	0xc96
 3136 0c69 1E       		.uleb128 0x1e
 3137 0c6a 01       		.byte	0x1
 3138 0c6b 50       		.byte	0x50
 3139 0c6c 05       		.byte	0x5
 3140 0c6d 03       		.byte	0x3
 3141 0c6e 00000000 		.4byte	task1
 3142 0c72 1E       		.uleb128 0x1e
 3143 0c73 01       		.byte	0x1
 3144 0c74 51       		.byte	0x51
 3145 0c75 05       		.byte	0x5
 3146 0c76 03       		.byte	0x3
 3147 0c77 31000000 		.4byte	.LC5
 3148 0c7b 1E       		.uleb128 0x1e
 3149 0c7c 01       		.byte	0x1
 3150 0c7d 52       		.byte	0x52
 3151 0c7e 02       		.byte	0x2
 3152 0c7f 08       		.byte	0x8
 3153 0c80 64       		.byte	0x64
 3154 0c81 1E       		.uleb128 0x1e
 3155 0c82 01       		.byte	0x1
 3156 0c83 53       		.byte	0x53
 3157 0c84 02       		.byte	0x2
 3158 0c85 74       		.byte	0x74
 3159 0c86 00       		.sleb128 0
 3160 0c87 1E       		.uleb128 0x1e
 3161 0c88 02       		.byte	0x2
 3162 0c89 7D       		.byte	0x7d
 3163 0c8a 00       		.sleb128 0
 3164 0c8b 02       		.byte	0x2
 3165 0c8c 75       		.byte	0x75
ARM GAS  /tmp/ccZoGyG7.s 			page 65


 3166 0c8d 00       		.sleb128 0
 3167 0c8e 1E       		.uleb128 0x1e
 3168 0c8f 02       		.byte	0x2
 3169 0c90 7D       		.byte	0x7d
 3170 0c91 04       		.sleb128 4
 3171 0c92 02       		.byte	0x2
 3172 0c93 74       		.byte	0x74
 3173 0c94 00       		.sleb128 0
 3174 0c95 00       		.byte	0
 3175 0c96 1D       		.uleb128 0x1d
 3176 0c97 38000000 		.4byte	.LVL46
 3177 0c9b AE110000 		.4byte	0x11ae
 3178 0c9f D00C0000 		.4byte	0xcd0
 3179 0ca3 1E       		.uleb128 0x1e
 3180 0ca4 01       		.byte	0x1
 3181 0ca5 50       		.byte	0x50
 3182 0ca6 05       		.byte	0x5
 3183 0ca7 03       		.byte	0x3
 3184 0ca8 00000000 		.4byte	task2
 3185 0cac 1E       		.uleb128 0x1e
 3186 0cad 01       		.byte	0x1
 3187 0cae 51       		.byte	0x51
 3188 0caf 05       		.byte	0x5
 3189 0cb0 03       		.byte	0x3
 3190 0cb1 3A000000 		.4byte	.LC6
 3191 0cb5 1E       		.uleb128 0x1e
 3192 0cb6 01       		.byte	0x1
 3193 0cb7 52       		.byte	0x52
 3194 0cb8 02       		.byte	0x2
 3195 0cb9 08       		.byte	0x8
 3196 0cba 64       		.byte	0x64
 3197 0cbb 1E       		.uleb128 0x1e
 3198 0cbc 01       		.byte	0x1
 3199 0cbd 53       		.byte	0x53
 3200 0cbe 02       		.byte	0x2
 3201 0cbf 74       		.byte	0x74
 3202 0cc0 00       		.sleb128 0
 3203 0cc1 1E       		.uleb128 0x1e
 3204 0cc2 02       		.byte	0x2
 3205 0cc3 7D       		.byte	0x7d
 3206 0cc4 00       		.sleb128 0
 3207 0cc5 02       		.byte	0x2
 3208 0cc6 75       		.byte	0x75
 3209 0cc7 00       		.sleb128 0
 3210 0cc8 1E       		.uleb128 0x1e
 3211 0cc9 02       		.byte	0x2
 3212 0cca 7D       		.byte	0x7d
 3213 0ccb 04       		.sleb128 4
 3214 0ccc 02       		.byte	0x2
 3215 0ccd 74       		.byte	0x74
 3216 0cce 00       		.sleb128 0
 3217 0ccf 00       		.byte	0
 3218 0cd0 1D       		.uleb128 0x1d
 3219 0cd1 48000000 		.4byte	.LVL47
 3220 0cd5 AE110000 		.4byte	0x11ae
 3221 0cd9 0A0D0000 		.4byte	0xd0a
 3222 0cdd 1E       		.uleb128 0x1e
ARM GAS  /tmp/ccZoGyG7.s 			page 66


 3223 0cde 01       		.byte	0x1
 3224 0cdf 50       		.byte	0x50
 3225 0ce0 05       		.byte	0x5
 3226 0ce1 03       		.byte	0x3
 3227 0ce2 00000000 		.4byte	task3
 3228 0ce6 1E       		.uleb128 0x1e
 3229 0ce7 01       		.byte	0x1
 3230 0ce8 51       		.byte	0x51
 3231 0ce9 05       		.byte	0x5
 3232 0cea 03       		.byte	0x3
 3233 0ceb 41000000 		.4byte	.LC7
 3234 0cef 1E       		.uleb128 0x1e
 3235 0cf0 01       		.byte	0x1
 3236 0cf1 52       		.byte	0x52
 3237 0cf2 02       		.byte	0x2
 3238 0cf3 08       		.byte	0x8
 3239 0cf4 64       		.byte	0x64
 3240 0cf5 1E       		.uleb128 0x1e
 3241 0cf6 01       		.byte	0x1
 3242 0cf7 53       		.byte	0x53
 3243 0cf8 02       		.byte	0x2
 3244 0cf9 74       		.byte	0x74
 3245 0cfa 00       		.sleb128 0
 3246 0cfb 1E       		.uleb128 0x1e
 3247 0cfc 02       		.byte	0x2
 3248 0cfd 7D       		.byte	0x7d
 3249 0cfe 00       		.sleb128 0
 3250 0cff 02       		.byte	0x2
 3251 0d00 75       		.byte	0x75
 3252 0d01 00       		.sleb128 0
 3253 0d02 1E       		.uleb128 0x1e
 3254 0d03 02       		.byte	0x2
 3255 0d04 7D       		.byte	0x7d
 3256 0d05 04       		.sleb128 4
 3257 0d06 02       		.byte	0x2
 3258 0d07 74       		.byte	0x74
 3259 0d08 00       		.sleb128 0
 3260 0d09 00       		.byte	0
 3261 0d0a 1F       		.uleb128 0x1f
 3262 0d0b 4C000000 		.4byte	.LVL48
 3263 0d0f BD110000 		.4byte	0x11bd
 3264 0d13 00       		.byte	0
 3265 0d14 20       		.uleb128 0x20
 3266 0d15 01       		.byte	0x1
 3267 0d16 12040000 		.4byte	.LASF180
 3268 0d1a 01       		.byte	0x1
 3269 0d1b 69       		.byte	0x69
 3270 0d1c 07       		.byte	0x7
 3271 0d1d 01       		.byte	0x1
 3272 0d1e C4020000 		.4byte	.LFB47
 3273 0d22 F0020000 		.4byte	.LFE47
 3274 0d26 20000000 		.4byte	.LLST8
 3275 0d2a 01       		.byte	0x1
 3276 0d2b 8B0D0000 		.4byte	0xd8b
 3277 0d2f 21       		.uleb128 0x21
 3278 0d30 740A0000 		.4byte	.LASF176
 3279 0d34 01       		.byte	0x1
ARM GAS  /tmp/ccZoGyG7.s 			page 67


 3280 0d35 69       		.byte	0x69
 3281 0d36 13       		.byte	0x13
 3282 0d37 CD000000 		.4byte	0xcd
 3283 0d3b 44000000 		.4byte	.LLST9
 3284 0d3f 40000000 		.4byte	.LVUS9
 3285 0d43 1B       		.uleb128 0x1b
 3286 0d44 52040000 		.4byte	.LASF175
 3287 0d48 01       		.byte	0x1
 3288 0d49 75       		.byte	0x75
 3289 0d4a 06       		.byte	0x6
 3290 0d4b 9D030000 		.4byte	0x39d
 3291 0d4f 02       		.byte	0x2
 3292 0d50 91       		.byte	0x91
 3293 0d51 74       		.sleb128 -12
 3294 0d52 1F       		.uleb128 0x1f
 3295 0d53 CA020000 		.4byte	.LVL20
 3296 0d57 B20F0000 		.4byte	0xfb2
 3297 0d5b 1D       		.uleb128 0x1d
 3298 0d5c DE020000 		.4byte	.LVL22
 3299 0d60 CC110000 		.4byte	0x11cc
 3300 0d64 790D0000 		.4byte	0xd79
 3301 0d68 1E       		.uleb128 0x1e
 3302 0d69 01       		.byte	0x1
 3303 0d6a 51       		.byte	0x51
 3304 0d6b 02       		.byte	0x2
 3305 0d6c 91       		.byte	0x91
 3306 0d6d 74       		.sleb128 -12
 3307 0d6e 1E       		.uleb128 0x1e
 3308 0d6f 01       		.byte	0x1
 3309 0d70 52       		.byte	0x52
 3310 0d71 01       		.byte	0x1
 3311 0d72 30       		.byte	0x30
 3312 0d73 1E       		.uleb128 0x1e
 3313 0d74 01       		.byte	0x1
 3314 0d75 53       		.byte	0x53
 3315 0d76 01       		.byte	0x1
 3316 0d77 30       		.byte	0x30
 3317 0d78 00       		.byte	0
 3318 0d79 22       		.uleb128 0x22
 3319 0d7a E6020000 		.4byte	.LVL23
 3320 0d7e DB110000 		.4byte	0x11db
 3321 0d82 1E       		.uleb128 0x1e
 3322 0d83 01       		.byte	0x1
 3323 0d84 50       		.byte	0x50
 3324 0d85 03       		.byte	0x3
 3325 0d86 0A       		.byte	0xa
 3326 0d87 50C3     		.2byte	0xc350
 3327 0d89 00       		.byte	0
 3328 0d8a 00       		.byte	0
 3329 0d8b 23       		.uleb128 0x23
 3330 0d8c 0C040000 		.4byte	.LASF177
 3331 0d90 01       		.byte	0x1
 3332 0d91 5E       		.byte	0x5e
 3333 0d92 0D       		.byte	0xd
 3334 0d93 01       		.byte	0x1
 3335 0d94 00000000 		.4byte	.LFB46
 3336 0d98 30000000 		.4byte	.LFE46
ARM GAS  /tmp/ccZoGyG7.s 			page 68


 3337 0d9c 65000000 		.4byte	.LLST0
 3338 0da0 01       		.byte	0x1
 3339 0da1 CB0D0000 		.4byte	0xdcb
 3340 0da5 21       		.uleb128 0x21
 3341 0da6 740A0000 		.4byte	.LASF176
 3342 0daa 01       		.byte	0x1
 3343 0dab 5E       		.byte	0x5e
 3344 0dac 19       		.byte	0x19
 3345 0dad CD000000 		.4byte	0xcd
 3346 0db1 89000000 		.4byte	.LLST1
 3347 0db5 85000000 		.4byte	.LVUS1
 3348 0db9 22       		.uleb128 0x22
 3349 0dba 26000000 		.4byte	.LVL2
 3350 0dbe DB110000 		.4byte	0x11db
 3351 0dc2 1E       		.uleb128 0x1e
 3352 0dc3 01       		.byte	0x1
 3353 0dc4 50       		.byte	0x50
 3354 0dc5 03       		.byte	0x3
 3355 0dc6 0A       		.byte	0xa
 3356 0dc7 8813     		.2byte	0x1388
 3357 0dc9 00       		.byte	0
 3358 0dca 00       		.byte	0
 3359 0dcb 23       		.uleb128 0x23
 3360 0dcc 06040000 		.4byte	.LASF178
 3361 0dd0 01       		.byte	0x1
 3362 0dd1 47       		.byte	0x47
 3363 0dd2 0D       		.byte	0xd
 3364 0dd3 01       		.byte	0x1
 3365 0dd4 D0030000 		.4byte	.LFB45
 3366 0dd8 28040000 		.4byte	.LFE45
 3367 0ddc AA000000 		.4byte	.LLST12
 3368 0de0 01       		.byte	0x1
 3369 0de1 910E0000 		.4byte	0xe91
 3370 0de5 21       		.uleb128 0x21
 3371 0de6 740A0000 		.4byte	.LASF176
 3372 0dea 01       		.byte	0x1
 3373 0deb 47       		.byte	0x47
 3374 0dec 19       		.byte	0x19
 3375 0ded CD000000 		.4byte	0xcd
 3376 0df1 CE000000 		.4byte	.LLST13
 3377 0df5 CA000000 		.4byte	.LVUS13
 3378 0df9 1B       		.uleb128 0x1b
 3379 0dfa 4B000000 		.4byte	.LASF179
 3380 0dfe 01       		.byte	0x1
 3381 0dff 52       		.byte	0x52
 3382 0e00 06       		.byte	0x6
 3383 0e01 29000000 		.4byte	0x29
 3384 0e05 02       		.byte	0x2
 3385 0e06 91       		.byte	0x91
 3386 0e07 74       		.sleb128 -12
 3387 0e08 1F       		.uleb128 0x1f
 3388 0e09 DC030000 		.4byte	.LVL35
 3389 0e0d 910E0000 		.4byte	0xe91
 3390 0e11 1D       		.uleb128 0x1d
 3391 0e12 E8030000 		.4byte	.LVL36
 3392 0e16 EA110000 		.4byte	0x11ea
 3393 0e1a 2B0E0000 		.4byte	0xe2b
ARM GAS  /tmp/ccZoGyG7.s 			page 69


 3394 0e1e 1E       		.uleb128 0x1e
 3395 0e1f 01       		.byte	0x1
 3396 0e20 51       		.byte	0x51
 3397 0e21 02       		.byte	0x2
 3398 0e22 91       		.byte	0x91
 3399 0e23 74       		.sleb128 -12
 3400 0e24 1E       		.uleb128 0x1e
 3401 0e25 01       		.byte	0x1
 3402 0e26 52       		.byte	0x52
 3403 0e27 02       		.byte	0x2
 3404 0e28 08       		.byte	0x8
 3405 0e29 64       		.byte	0x64
 3406 0e2a 00       		.byte	0
 3407 0e2b 1D       		.uleb128 0x1d
 3408 0e2c F2030000 		.4byte	.LVL37
 3409 0e30 F9110000 		.4byte	0x11f9
 3410 0e34 4C0E0000 		.4byte	0xe4c
 3411 0e38 1E       		.uleb128 0x1e
 3412 0e39 01       		.byte	0x1
 3413 0e3a 50       		.byte	0x50
 3414 0e3b 05       		.byte	0x5
 3415 0e3c 03       		.byte	0x3
 3416 0e3d 26000000 		.4byte	.LC4
 3417 0e41 1E       		.uleb128 0x1e
 3418 0e42 01       		.byte	0x1
 3419 0e43 51       		.byte	0x51
 3420 0e44 01       		.byte	0x1
 3421 0e45 30       		.byte	0x30
 3422 0e46 1E       		.uleb128 0x1e
 3423 0e47 01       		.byte	0x1
 3424 0e48 52       		.byte	0x52
 3425 0e49 01       		.byte	0x1
 3426 0e4a 30       		.byte	0x30
 3427 0e4b 00       		.byte	0
 3428 0e4c 1F       		.uleb128 0x1f
 3429 0e4d F8030000 		.4byte	.LVL38
 3430 0e51 07120000 		.4byte	0x1207
 3431 0e55 1F       		.uleb128 0x1f
 3432 0e56 00040000 		.4byte	.LVL39
 3433 0e5a 12120000 		.4byte	0x1212
 3434 0e5e 1F       		.uleb128 0x1f
 3435 0e5f 04040000 		.4byte	.LVL40
 3436 0e63 1D120000 		.4byte	0x121d
 3437 0e67 1D       		.uleb128 0x1d
 3438 0e68 0C040000 		.4byte	.LVL41
 3439 0e6c 28120000 		.4byte	0x1228
 3440 0e70 7F0E0000 		.4byte	0xe7f
 3441 0e74 1E       		.uleb128 0x1e
 3442 0e75 01       		.byte	0x1
 3443 0e76 51       		.byte	0x51
 3444 0e77 01       		.byte	0x1
 3445 0e78 30       		.byte	0x30
 3446 0e79 1E       		.uleb128 0x1e
 3447 0e7a 01       		.byte	0x1
 3448 0e7b 52       		.byte	0x52
 3449 0e7c 01       		.byte	0x1
 3450 0e7d 3B       		.byte	0x3b
ARM GAS  /tmp/ccZoGyG7.s 			page 70


 3451 0e7e 00       		.byte	0
 3452 0e7f 22       		.uleb128 0x22
 3453 0e80 14040000 		.4byte	.LVL42
 3454 0e84 DB110000 		.4byte	0x11db
 3455 0e88 1E       		.uleb128 0x1e
 3456 0e89 01       		.byte	0x1
 3457 0e8a 50       		.byte	0x50
 3458 0e8b 03       		.byte	0x3
 3459 0e8c 0A       		.byte	0xa
 3460 0e8d 50C3     		.2byte	0xc350
 3461 0e8f 00       		.byte	0
 3462 0e90 00       		.byte	0
 3463 0e91 24       		.uleb128 0x24
 3464 0e92 01       		.byte	0x1
 3465 0e93 010A0000 		.4byte	.LASF220
 3466 0e97 01       		.byte	0x1
 3467 0e98 2E       		.byte	0x2e
 3468 0e99 06       		.byte	0x6
 3469 0e9a 0C030000 		.4byte	.LFB44
 3470 0e9e D0030000 		.4byte	.LFE44
 3471 0ea2 EF000000 		.4byte	.LLST10
 3472 0ea6 01       		.byte	0x1
 3473 0ea7 990F0000 		.4byte	0xf99
 3474 0eab 25       		.uleb128 0x25
 3475 0eac 00000000 		.4byte	.Ldebug_ranges0+0
 3476 0eb0 180F0000 		.4byte	0xf18
 3477 0eb4 26       		.uleb128 0x26
 3478 0eb5 6900     		.ascii	"i\000"
 3479 0eb7 01       		.byte	0x1
 3480 0eb8 3D       		.byte	0x3d
 3481 0eb9 0A       		.byte	0xa
 3482 0eba AF030000 		.4byte	0x3af
 3483 0ebe 1F010000 		.4byte	.LLST11
 3484 0ec2 1B010000 		.4byte	.LVUS11
 3485 0ec6 1D       		.uleb128 0x1d
 3486 0ec7 84030000 		.4byte	.LVL29
 3487 0ecb DB110000 		.4byte	0x11db
 3488 0ecf DB0E0000 		.4byte	0xedb
 3489 0ed3 1E       		.uleb128 0x1e
 3490 0ed4 01       		.byte	0x1
 3491 0ed5 50       		.byte	0x50
 3492 0ed6 03       		.byte	0x3
 3493 0ed7 0A       		.byte	0xa
 3494 0ed8 204E     		.2byte	0x4e20
 3495 0eda 00       		.byte	0
 3496 0edb 1D       		.uleb128 0x1d
 3497 0edc 8E030000 		.4byte	.LVL30
 3498 0ee0 F9110000 		.4byte	0x11f9
 3499 0ee4 FA0E0000 		.4byte	0xefa
 3500 0ee8 1E       		.uleb128 0x1e
 3501 0ee9 01       		.byte	0x1
 3502 0eea 50       		.byte	0x50
 3503 0eeb 02       		.byte	0x2
 3504 0eec 77       		.byte	0x77
 3505 0eed 00       		.sleb128 0
 3506 0eee 1E       		.uleb128 0x1e
 3507 0eef 01       		.byte	0x1
ARM GAS  /tmp/ccZoGyG7.s 			page 71


 3508 0ef0 51       		.byte	0x51
 3509 0ef1 01       		.byte	0x1
 3510 0ef2 30       		.byte	0x30
 3511 0ef3 1E       		.uleb128 0x1e
 3512 0ef4 01       		.byte	0x1
 3513 0ef5 52       		.byte	0x52
 3514 0ef6 02       		.byte	0x2
 3515 0ef7 75       		.byte	0x75
 3516 0ef8 00       		.sleb128 0
 3517 0ef9 00       		.byte	0
 3518 0efa 22       		.uleb128 0x22
 3519 0efb 9E030000 		.4byte	.LVL31
 3520 0eff F9110000 		.4byte	0x11f9
 3521 0f03 1E       		.uleb128 0x1e
 3522 0f04 01       		.byte	0x1
 3523 0f05 50       		.byte	0x50
 3524 0f06 02       		.byte	0x2
 3525 0f07 76       		.byte	0x76
 3526 0f08 00       		.sleb128 0
 3527 0f09 1E       		.uleb128 0x1e
 3528 0f0a 01       		.byte	0x1
 3529 0f0b 51       		.byte	0x51
 3530 0f0c 01       		.byte	0x1
 3531 0f0d 31       		.byte	0x31
 3532 0f0e 1E       		.uleb128 0x1e
 3533 0f0f 01       		.byte	0x1
 3534 0f10 52       		.byte	0x52
 3535 0f11 04       		.byte	0x4
 3536 0f12 40       		.byte	0x40
 3537 0f13 75       		.byte	0x75
 3538 0f14 00       		.sleb128 0
 3539 0f15 1C       		.byte	0x1c
 3540 0f16 00       		.byte	0
 3541 0f17 00       		.byte	0
 3542 0f18 1F       		.uleb128 0x1f
 3543 0f19 60030000 		.4byte	.LVL24
 3544 0f1d 36120000 		.4byte	0x1236
 3545 0f21 1D       		.uleb128 0x1d
 3546 0f22 66030000 		.4byte	.LVL25
 3547 0f26 44120000 		.4byte	0x1244
 3548 0f2a 340F0000 		.4byte	0xf34
 3549 0f2e 1E       		.uleb128 0x1e
 3550 0f2f 01       		.byte	0x1
 3551 0f30 50       		.byte	0x50
 3552 0f31 01       		.byte	0x1
 3553 0f32 3C       		.byte	0x3c
 3554 0f33 00       		.byte	0
 3555 0f34 1D       		.uleb128 0x1d
 3556 0f35 70030000 		.4byte	.LVL26
 3557 0f39 F9110000 		.4byte	0x11f9
 3558 0f3d 570F0000 		.4byte	0xf57
 3559 0f41 1E       		.uleb128 0x1e
 3560 0f42 01       		.byte	0x1
 3561 0f43 50       		.byte	0x50
 3562 0f44 05       		.byte	0x5
 3563 0f45 03       		.byte	0x3
 3564 0f46 00000000 		.4byte	.LC0
ARM GAS  /tmp/ccZoGyG7.s 			page 72


 3565 0f4a 1E       		.uleb128 0x1e
 3566 0f4b 01       		.byte	0x1
 3567 0f4c 51       		.byte	0x51
 3568 0f4d 02       		.byte	0x2
 3569 0f4e 74       		.byte	0x74
 3570 0f4f 00       		.sleb128 0
 3571 0f50 1E       		.uleb128 0x1e
 3572 0f51 01       		.byte	0x1
 3573 0f52 52       		.byte	0x52
 3574 0f53 02       		.byte	0x2
 3575 0f54 74       		.byte	0x74
 3576 0f55 00       		.sleb128 0
 3577 0f56 00       		.byte	0
 3578 0f57 1D       		.uleb128 0x1d
 3579 0f58 7A030000 		.4byte	.LVL27
 3580 0f5c F9110000 		.4byte	0x11f9
 3581 0f60 790F0000 		.4byte	0xf79
 3582 0f64 1E       		.uleb128 0x1e
 3583 0f65 01       		.byte	0x1
 3584 0f66 50       		.byte	0x50
 3585 0f67 05       		.byte	0x5
 3586 0f68 03       		.byte	0x3
 3587 0f69 11000000 		.4byte	.LC1
 3588 0f6d 1E       		.uleb128 0x1e
 3589 0f6e 01       		.byte	0x1
 3590 0f6f 51       		.byte	0x51
 3591 0f70 01       		.byte	0x1
 3592 0f71 31       		.byte	0x31
 3593 0f72 1E       		.uleb128 0x1e
 3594 0f73 01       		.byte	0x1
 3595 0f74 52       		.byte	0x52
 3596 0f75 02       		.byte	0x2
 3597 0f76 74       		.byte	0x74
 3598 0f77 00       		.sleb128 0
 3599 0f78 00       		.byte	0
 3600 0f79 1D       		.uleb128 0x1d
 3601 0f7a AA030000 		.4byte	.LVL32
 3602 0f7e DB110000 		.4byte	0x11db
 3603 0f82 8E0F0000 		.4byte	0xf8e
 3604 0f86 1E       		.uleb128 0x1e
 3605 0f87 01       		.byte	0x1
 3606 0f88 50       		.byte	0x50
 3607 0f89 03       		.byte	0x3
 3608 0f8a 0A       		.byte	0xa
 3609 0f8b 50C3     		.2byte	0xc350
 3610 0f8d 00       		.byte	0
 3611 0f8e 27       		.uleb128 0x27
 3612 0f8f B2030000 		.4byte	.LVL33
 3613 0f93 01       		.byte	0x1
 3614 0f94 52120000 		.4byte	0x1252
 3615 0f98 00       		.byte	0
 3616 0f99 28       		.uleb128 0x28
 3617 0f9a 01       		.byte	0x1
 3618 0f9b 4D030000 		.4byte	.LASF189
 3619 0f9f 04       		.byte	0x4
 3620 0fa0 20       		.byte	0x20
 3621 0fa1 0A       		.byte	0xa
ARM GAS  /tmp/ccZoGyG7.s 			page 73


 3622 0fa2 AB000000 		.4byte	0xab
 3623 0fa6 F0020000 		.4byte	.LFB43
 3624 0faa 0C030000 		.4byte	.LFE43
 3625 0fae 02       		.byte	0x2
 3626 0faf 7D       		.byte	0x7d
 3627 0fb0 00       		.sleb128 0
 3628 0fb1 01       		.byte	0x1
 3629 0fb2 29       		.uleb128 0x29
 3630 0fb3 01       		.byte	0x1
 3631 0fb4 70060000 		.4byte	.LASF193
 3632 0fb8 04       		.byte	0x4
 3633 0fb9 02       		.byte	0x2
 3634 0fba 06       		.byte	0x6
 3635 0fbb 54020000 		.4byte	.LFB42
 3636 0fbf C4020000 		.4byte	.LFE42
 3637 0fc3 02       		.byte	0x2
 3638 0fc4 7D       		.byte	0x7d
 3639 0fc5 00       		.sleb128 0
 3640 0fc6 01       		.byte	0x1
 3641 0fc7 20       		.uleb128 0x20
 3642 0fc8 01       		.byte	0x1
 3643 0fc9 A6000000 		.4byte	.LASF181
 3644 0fcd 03       		.byte	0x3
 3645 0fce 28       		.byte	0x28
 3646 0fcf 06       		.byte	0x6
 3647 0fd0 01       		.byte	0x1
 3648 0fd1 2C020000 		.4byte	.LFB41
 3649 0fd5 54020000 		.4byte	.LFE41
 3650 0fd9 3E010000 		.4byte	.LLST6
 3651 0fdd 01       		.byte	0x1
 3652 0fde 21100000 		.4byte	0x1021
 3653 0fe2 21       		.uleb128 0x21
 3654 0fe3 00000000 		.4byte	.LASF182
 3655 0fe7 03       		.byte	0x3
 3656 0fe8 28       		.byte	0x28
 3657 0fe9 16       		.byte	0x16
 3658 0fea 06010000 		.4byte	0x106
 3659 0fee 66010000 		.4byte	.LLST7
 3660 0ff2 5E010000 		.4byte	.LVUS7
 3661 0ff6 1D       		.uleb128 0x1d
 3662 0ff7 40020000 		.4byte	.LVL17
 3663 0ffb 60120000 		.4byte	0x1260
 3664 0fff 0A100000 		.4byte	0x100a
 3665 1003 1E       		.uleb128 0x1e
 3666 1004 01       		.byte	0x1
 3667 1005 50       		.byte	0x50
 3668 1006 02       		.byte	0x2
 3669 1007 75       		.byte	0x75
 3670 1008 00       		.sleb128 0
 3671 1009 00       		.byte	0
 3672 100a 22       		.uleb128 0x22
 3673 100b 48020000 		.4byte	.LVL18
 3674 100f 6F120000 		.4byte	0x126f
 3675 1013 1E       		.uleb128 0x1e
 3676 1014 01       		.byte	0x1
 3677 1015 50       		.byte	0x50
 3678 1016 02       		.byte	0x2
ARM GAS  /tmp/ccZoGyG7.s 			page 74


 3679 1017 75       		.byte	0x75
 3680 1018 00       		.sleb128 0
 3681 1019 1E       		.uleb128 0x1e
 3682 101a 01       		.byte	0x1
 3683 101b 51       		.byte	0x51
 3684 101c 02       		.byte	0x2
 3685 101d 08       		.byte	0x8
 3686 101e 40       		.byte	0x40
 3687 101f 00       		.byte	0
 3688 1020 00       		.byte	0
 3689 1021 20       		.uleb128 0x20
 3690 1022 01       		.byte	0x1
 3691 1023 32000000 		.4byte	.LASF183
 3692 1027 03       		.byte	0x3
 3693 1028 07       		.byte	0x7
 3694 1029 06       		.byte	0x6
 3695 102a 01       		.byte	0x1
 3696 102b BC010000 		.4byte	.LFB40
 3697 102f 2C020000 		.4byte	.LFE40
 3698 1033 9E010000 		.4byte	.LLST5
 3699 1037 01       		.byte	0x1
 3700 1038 D8100000 		.4byte	0x10d8
 3701 103c 1B       		.uleb128 0x1b
 3702 103d BE000000 		.4byte	.LASF184
 3703 1041 03       		.byte	0x3
 3704 1042 0C       		.byte	0xc
 3705 1043 15       		.byte	0x15
 3706 1044 890B0000 		.4byte	0xb89
 3707 1048 02       		.byte	0x2
 3708 1049 91       		.byte	0x91
 3709 104a 64       		.sleb128 -28
 3710 104b 1B       		.uleb128 0x1b
 3711 104c 83070000 		.4byte	.LASF185
 3712 1050 03       		.byte	0x3
 3713 1051 1A       		.byte	0x1a
 3714 1052 16       		.byte	0x16
 3715 1053 F90B0000 		.4byte	0xbf9
 3716 1057 02       		.byte	0x2
 3717 1058 91       		.byte	0x91
 3718 1059 68       		.sleb128 -24
 3719 105a 1D       		.uleb128 0x1d
 3720 105b CA010000 		.4byte	.LVL8
 3721 105f 7E120000 		.4byte	0x127e
 3722 1063 74100000 		.4byte	0x1074
 3723 1067 1E       		.uleb128 0x1e
 3724 1068 01       		.byte	0x1
 3725 1069 50       		.byte	0x50
 3726 106a 03       		.byte	0x3
 3727 106b 0A       		.byte	0xa
 3728 106c 0440     		.2byte	0x4004
 3729 106e 1E       		.uleb128 0x1e
 3730 106f 01       		.byte	0x1
 3731 1070 51       		.byte	0x51
 3732 1071 01       		.byte	0x1
 3733 1072 31       		.byte	0x31
 3734 1073 00       		.byte	0
 3735 1074 1D       		.uleb128 0x1d
ARM GAS  /tmp/ccZoGyG7.s 			page 75


 3736 1075 E4010000 		.4byte	.LVL9
 3737 1079 8D120000 		.4byte	0x128d
 3738 107d 8E100000 		.4byte	0x108e
 3739 1081 1E       		.uleb128 0x1e
 3740 1082 01       		.byte	0x1
 3741 1083 50       		.byte	0x50
 3742 1084 02       		.byte	0x2
 3743 1085 74       		.byte	0x74
 3744 1086 00       		.sleb128 0
 3745 1087 1E       		.uleb128 0x1e
 3746 1088 01       		.byte	0x1
 3747 1089 51       		.byte	0x51
 3748 108a 02       		.byte	0x2
 3749 108b 91       		.byte	0x91
 3750 108c 64       		.sleb128 -28
 3751 108d 00       		.byte	0
 3752 108e 1D       		.uleb128 0x1d
 3753 108f FC010000 		.4byte	.LVL10
 3754 1093 8D120000 		.4byte	0x128d
 3755 1097 A8100000 		.4byte	0x10a8
 3756 109b 1E       		.uleb128 0x1e
 3757 109c 01       		.byte	0x1
 3758 109d 50       		.byte	0x50
 3759 109e 02       		.byte	0x2
 3760 109f 74       		.byte	0x74
 3761 10a0 00       		.sleb128 0
 3762 10a1 1E       		.uleb128 0x1e
 3763 10a2 01       		.byte	0x1
 3764 10a3 51       		.byte	0x51
 3765 10a4 02       		.byte	0x2
 3766 10a5 91       		.byte	0x91
 3767 10a6 64       		.sleb128 -28
 3768 10a7 00       		.byte	0
 3769 10a8 1D       		.uleb128 0x1d
 3770 10a9 1C020000 		.4byte	.LVL11
 3771 10ad 9C120000 		.4byte	0x129c
 3772 10b1 C2100000 		.4byte	0x10c2
 3773 10b5 1E       		.uleb128 0x1e
 3774 10b6 01       		.byte	0x1
 3775 10b7 50       		.byte	0x50
 3776 10b8 02       		.byte	0x2
 3777 10b9 74       		.byte	0x74
 3778 10ba 00       		.sleb128 0
 3779 10bb 1E       		.uleb128 0x1e
 3780 10bc 01       		.byte	0x1
 3781 10bd 51       		.byte	0x51
 3782 10be 02       		.byte	0x2
 3783 10bf 91       		.byte	0x91
 3784 10c0 68       		.sleb128 -24
 3785 10c1 00       		.byte	0
 3786 10c2 22       		.uleb128 0x22
 3787 10c3 24020000 		.4byte	.LVL12
 3788 10c7 AB120000 		.4byte	0x12ab
 3789 10cb 1E       		.uleb128 0x1e
 3790 10cc 01       		.byte	0x1
 3791 10cd 50       		.byte	0x50
 3792 10ce 02       		.byte	0x2
ARM GAS  /tmp/ccZoGyG7.s 			page 76


 3793 10cf 74       		.byte	0x74
 3794 10d0 00       		.sleb128 0
 3795 10d1 1E       		.uleb128 0x1e
 3796 10d2 01       		.byte	0x1
 3797 10d3 51       		.byte	0x51
 3798 10d4 01       		.byte	0x1
 3799 10d5 31       		.byte	0x31
 3800 10d6 00       		.byte	0
 3801 10d7 00       		.byte	0
 3802 10d8 2A       		.uleb128 0x2a
 3803 10d9 01       		.byte	0x1
 3804 10da 36080000 		.4byte	.LASF186
 3805 10de 02       		.byte	0x2
 3806 10df 7C       		.byte	0x7c
 3807 10e0 06       		.byte	0x6
 3808 10e1 01       		.byte	0x1
 3809 10e2 A0010000 		.4byte	.LFB39
 3810 10e6 BC010000 		.4byte	.LFE39
 3811 10ea 02       		.byte	0x2
 3812 10eb 7D       		.byte	0x7d
 3813 10ec 00       		.sleb128 0
 3814 10ed 01       		.byte	0x1
 3815 10ee 07110000 		.4byte	0x1107
 3816 10f2 21       		.uleb128 0x21
 3817 10f3 88050000 		.4byte	.LASF187
 3818 10f7 02       		.byte	0x2
 3819 10f8 7C       		.byte	0x7c
 3820 10f9 22       		.byte	0x22
 3821 10fa 51020000 		.4byte	0x251
 3822 10fe DA010000 		.4byte	.LLST4
 3823 1102 D6010000 		.4byte	.LVUS4
 3824 1106 00       		.byte	0
 3825 1107 2A       		.uleb128 0x2a
 3826 1108 01       		.byte	0x1
 3827 1109 5F060000 		.4byte	.LASF188
 3828 110d 02       		.byte	0x2
 3829 110e 74       		.byte	0x74
 3830 110f 06       		.byte	0x6
 3831 1110 01       		.byte	0x1
 3832 1111 88010000 		.4byte	.LFB38
 3833 1115 A0010000 		.4byte	.LFE38
 3834 1119 02       		.byte	0x2
 3835 111a 7D       		.byte	0x7d
 3836 111b 00       		.sleb128 0
 3837 111c 01       		.byte	0x1
 3838 111d 36110000 		.4byte	0x1136
 3839 1121 21       		.uleb128 0x21
 3840 1122 88050000 		.4byte	.LASF187
 3841 1126 02       		.byte	0x2
 3842 1127 74       		.byte	0x74
 3843 1128 21       		.byte	0x21
 3844 1129 51020000 		.4byte	0x251
 3845 112d FF010000 		.4byte	.LLST3
 3846 1131 FB010000 		.4byte	.LVUS3
 3847 1135 00       		.byte	0
 3848 1136 2B       		.uleb128 0x2b
 3849 1137 01       		.byte	0x1
ARM GAS  /tmp/ccZoGyG7.s 			page 77


 3850 1138 18030000 		.4byte	.LASF190
 3851 113c 02       		.byte	0x2
 3852 113d 67       		.byte	0x67
 3853 113e 06       		.byte	0x6
 3854 113f 01       		.byte	0x1
 3855 1140 60010000 		.4byte	.LFB37
 3856 1144 88010000 		.4byte	.LFE37
 3857 1148 02       		.byte	0x2
 3858 1149 7D       		.byte	0x7d
 3859 114a 00       		.sleb128 0
 3860 114b 01       		.byte	0x1
 3861 114c 20       		.uleb128 0x20
 3862 114d 01       		.byte	0x1
 3863 114e 44060000 		.4byte	.LASF191
 3864 1152 02       		.byte	0x2
 3865 1153 60       		.byte	0x60
 3866 1154 06       		.byte	0x6
 3867 1155 01       		.byte	0x1
 3868 1156 30010000 		.4byte	.LFB36
 3869 115a 60010000 		.4byte	.LFE36
 3870 115e 20020000 		.4byte	.LLST2
 3871 1162 01       		.byte	0x1
 3872 1163 74110000 		.4byte	0x1174
 3873 1167 2C       		.uleb128 0x2c
 3874 1168 5400     		.ascii	"T\000"
 3875 116a 02       		.byte	0x2
 3876 116b 60       		.byte	0x60
 3877 116c 17       		.byte	0x17
 3878 116d AA030000 		.4byte	0x3aa
 3879 1171 01       		.byte	0x1
 3880 1172 50       		.byte	0x50
 3881 1173 00       		.byte	0
 3882 1174 2B       		.uleb128 0x2b
 3883 1175 01       		.byte	0x1
 3884 1176 5F070000 		.4byte	.LASF192
 3885 117a 02       		.byte	0x2
 3886 117b 3E       		.byte	0x3e
 3887 117c 06       		.byte	0x6
 3888 117d 01       		.byte	0x1
 3889 117e BC000000 		.4byte	.LFB35
 3890 1182 30010000 		.4byte	.LFE35
 3891 1186 02       		.byte	0x2
 3892 1187 7D       		.byte	0x7d
 3893 1188 00       		.sleb128 0
 3894 1189 01       		.byte	0x1
 3895 118a 29       		.uleb128 0x29
 3896 118b 01       		.byte	0x1
 3897 118c 14080000 		.4byte	.LASF194
 3898 1190 02       		.byte	0x2
 3899 1191 0E       		.byte	0xe
 3900 1192 06       		.byte	0x6
 3901 1193 30000000 		.4byte	.LFB34
 3902 1197 BC000000 		.4byte	.LFE34
 3903 119b 02       		.byte	0x2
 3904 119c 7D       		.byte	0x7d
 3905 119d 00       		.sleb128 0
 3906 119e 01       		.byte	0x1
ARM GAS  /tmp/ccZoGyG7.s 			page 78


 3907 119f 2D       		.uleb128 0x2d
 3908 11a0 01       		.byte	0x1
 3909 11a1 01       		.byte	0x1
 3910 11a2 60030000 		.4byte	.LASF195
 3911 11a6 60030000 		.4byte	.LASF195
 3912 11aa 08       		.byte	0x8
 3913 11ab D805     		.2byte	0x5d8
 3914 11ad 10       		.byte	0x10
 3915 11ae 2D       		.uleb128 0x2d
 3916 11af 01       		.byte	0x1
 3917 11b0 01       		.byte	0x1
 3918 11b1 28060000 		.4byte	.LASF196
 3919 11b5 28060000 		.4byte	.LASF196
 3920 11b9 0D       		.byte	0xd
 3921 11ba 4A01     		.2byte	0x14a
 3922 11bc 0D       		.byte	0xd
 3923 11bd 2D       		.uleb128 0x2d
 3924 11be 01       		.byte	0x1
 3925 11bf 01       		.byte	0x1
 3926 11c0 39030000 		.4byte	.LASF197
 3927 11c4 39030000 		.4byte	.LASF197
 3928 11c8 0D       		.byte	0xd
 3929 11c9 9704     		.2byte	0x497
 3930 11cb 06       		.byte	0x6
 3931 11cc 2D       		.uleb128 0x2d
 3932 11cd 01       		.byte	0x1
 3933 11ce 01       		.byte	0x1
 3934 11cf 18040000 		.4byte	.LASF198
 3935 11d3 18040000 		.4byte	.LASF198
 3936 11d7 08       		.byte	0x8
 3937 11d8 8A02     		.2byte	0x28a
 3938 11da 0C       		.byte	0xc
 3939 11db 2D       		.uleb128 0x2d
 3940 11dc 01       		.byte	0x1
 3941 11dd 01       		.byte	0x1
 3942 11de 8A010000 		.4byte	.LASF199
 3943 11e2 8A010000 		.4byte	.LASF199
 3944 11e6 0D       		.byte	0xd
 3945 11e7 F602     		.2byte	0x2f6
 3946 11e9 06       		.byte	0x6
 3947 11ea 2D       		.uleb128 0x2d
 3948 11eb 01       		.byte	0x1
 3949 11ec 01       		.byte	0x1
 3950 11ed 68040000 		.4byte	.LASF200
 3951 11f1 68040000 		.4byte	.LASF200
 3952 11f5 08       		.byte	0x8
 3953 11f6 6403     		.2byte	0x364
 3954 11f8 0C       		.byte	0xc
 3955 11f9 2E       		.uleb128 0x2e
 3956 11fa 01       		.byte	0x1
 3957 11fb 01       		.byte	0x1
 3958 11fc 80010000 		.4byte	.LASF201
 3959 1200 80010000 		.4byte	.LASF201
 3960 1204 0E       		.byte	0xe
 3961 1205 2C       		.byte	0x2c
 3962 1206 06       		.byte	0x6
 3963 1207 2F       		.uleb128 0x2f
ARM GAS  /tmp/ccZoGyG7.s 			page 79


 3964 1208 01       		.byte	0x1
 3965 1209 01       		.byte	0x1
 3966 120a EE030000 		.4byte	.LASF202
 3967 120e EE030000 		.4byte	.LASF202
 3968 1212 2F       		.uleb128 0x2f
 3969 1213 01       		.byte	0x1
 3970 1214 01       		.byte	0x1
 3971 1215 AC080000 		.4byte	.LASF203
 3972 1219 AC080000 		.4byte	.LASF203
 3973 121d 2F       		.uleb128 0x2f
 3974 121e 01       		.byte	0x1
 3975 121f 01       		.byte	0x1
 3976 1220 1B010000 		.4byte	.LASF204
 3977 1224 1B010000 		.4byte	.LASF204
 3978 1228 2E       		.uleb128 0x2e
 3979 1229 01       		.byte	0x1
 3980 122a 01       		.byte	0x1
 3981 122b 3A090000 		.4byte	.LASF205
 3982 122f 3A090000 		.4byte	.LASF205
 3983 1233 0E       		.byte	0xe
 3984 1234 2A       		.byte	0x2a
 3985 1235 06       		.byte	0x6
 3986 1236 2E       		.uleb128 0x2e
 3987 1237 01       		.byte	0x1
 3988 1238 01       		.byte	0x1
 3989 1239 9D090000 		.4byte	.LASF206
 3990 123d 9D090000 		.4byte	.LASF206
 3991 1241 0E       		.byte	0xe
 3992 1242 2F       		.byte	0x2f
 3993 1243 06       		.byte	0x6
 3994 1244 2E       		.uleb128 0x2e
 3995 1245 01       		.byte	0x1
 3996 1246 01       		.byte	0x1
 3997 1247 B5000000 		.4byte	.LASF207
 3998 124b B5000000 		.4byte	.LASF207
 3999 124f 0E       		.byte	0xe
 4000 1250 2E       		.byte	0x2e
 4001 1251 06       		.byte	0x6
 4002 1252 2E       		.uleb128 0x2e
 4003 1253 01       		.byte	0x1
 4004 1254 01       		.byte	0x1
 4005 1255 94080000 		.4byte	.LASF208
 4006 1259 94080000 		.4byte	.LASF208
 4007 125d 0E       		.byte	0xe
 4008 125e 30       		.byte	0x30
 4009 125f 06       		.byte	0x6
 4010 1260 2D       		.uleb128 0x2d
 4011 1261 01       		.byte	0x1
 4012 1262 01       		.byte	0x1
 4013 1263 2B090000 		.4byte	.LASF209
 4014 1267 2B090000 		.4byte	.LASF209
 4015 126b 0C       		.byte	0xc
 4016 126c 7A01     		.2byte	0x17a
 4017 126e 06       		.byte	0x6
 4018 126f 2D       		.uleb128 0x2d
 4019 1270 01       		.byte	0x1
 4020 1271 01       		.byte	0x1
ARM GAS  /tmp/ccZoGyG7.s 			page 80


 4021 1272 4F010000 		.4byte	.LASF210
 4022 1276 4F010000 		.4byte	.LASF210
 4023 127a 0C       		.byte	0xc
 4024 127b 8601     		.2byte	0x186
 4025 127d 0C       		.byte	0xc
 4026 127e 2D       		.uleb128 0x2d
 4027 127f 01       		.byte	0x1
 4028 1280 01       		.byte	0x1
 4029 1281 57000000 		.4byte	.LASF211
 4030 1285 57000000 		.4byte	.LASF211
 4031 1289 0F       		.byte	0xf
 4032 128a B502     		.2byte	0x2b5
 4033 128c 06       		.byte	0x6
 4034 128d 2D       		.uleb128 0x2d
 4035 128e 01       		.byte	0x1
 4036 128f 01       		.byte	0x1
 4037 1290 05060000 		.4byte	.LASF212
 4038 1294 05060000 		.4byte	.LASF212
 4039 1298 0B       		.byte	0xb
 4040 1299 5F01     		.2byte	0x15f
 4041 129b 06       		.byte	0x6
 4042 129c 2D       		.uleb128 0x2d
 4043 129d 01       		.byte	0x1
 4044 129e 01       		.byte	0x1
 4045 129f 8D050000 		.4byte	.LASF213
 4046 12a3 8D050000 		.4byte	.LASF213
 4047 12a7 0C       		.byte	0xc
 4048 12a8 6E01     		.2byte	0x16e
 4049 12aa 06       		.byte	0x6
 4050 12ab 2D       		.uleb128 0x2d
 4051 12ac 01       		.byte	0x1
 4052 12ad 01       		.byte	0x1
 4053 12ae 79070000 		.4byte	.LASF214
 4054 12b2 79070000 		.4byte	.LASF214
 4055 12b6 0C       		.byte	0xc
 4056 12b7 7201     		.2byte	0x172
 4057 12b9 06       		.byte	0x6
 4058 12ba 00       		.byte	0
 4059              		.section	.debug_abbrev,"",%progbits
 4060              	.Ldebug_abbrev0:
 4061 0000 01       		.uleb128 0x1
 4062 0001 11       		.uleb128 0x11
 4063 0002 01       		.byte	0x1
 4064 0003 25       		.uleb128 0x25
 4065 0004 0E       		.uleb128 0xe
 4066 0005 13       		.uleb128 0x13
 4067 0006 0B       		.uleb128 0xb
 4068 0007 03       		.uleb128 0x3
 4069 0008 0E       		.uleb128 0xe
 4070 0009 1B       		.uleb128 0x1b
 4071 000a 0E       		.uleb128 0xe
 4072 000b 55       		.uleb128 0x55
 4073 000c 06       		.uleb128 0x6
 4074 000d 11       		.uleb128 0x11
 4075 000e 01       		.uleb128 0x1
 4076 000f 52       		.uleb128 0x52
 4077 0010 01       		.uleb128 0x1
ARM GAS  /tmp/ccZoGyG7.s 			page 81


 4078 0011 10       		.uleb128 0x10
 4079 0012 06       		.uleb128 0x6
 4080 0013 00       		.byte	0
 4081 0014 00       		.byte	0
 4082 0015 02       		.uleb128 0x2
 4083 0016 24       		.uleb128 0x24
 4084 0017 00       		.byte	0
 4085 0018 0B       		.uleb128 0xb
 4086 0019 0B       		.uleb128 0xb
 4087 001a 3E       		.uleb128 0x3e
 4088 001b 0B       		.uleb128 0xb
 4089 001c 03       		.uleb128 0x3
 4090 001d 08       		.uleb128 0x8
 4091 001e 00       		.byte	0
 4092 001f 00       		.byte	0
 4093 0020 03       		.uleb128 0x3
 4094 0021 24       		.uleb128 0x24
 4095 0022 00       		.byte	0
 4096 0023 0B       		.uleb128 0xb
 4097 0024 0B       		.uleb128 0xb
 4098 0025 3E       		.uleb128 0x3e
 4099 0026 0B       		.uleb128 0xb
 4100 0027 03       		.uleb128 0x3
 4101 0028 0E       		.uleb128 0xe
 4102 0029 00       		.byte	0
 4103 002a 00       		.byte	0
 4104 002b 04       		.uleb128 0x4
 4105 002c 16       		.uleb128 0x16
 4106 002d 00       		.byte	0
 4107 002e 03       		.uleb128 0x3
 4108 002f 0E       		.uleb128 0xe
 4109 0030 3A       		.uleb128 0x3a
 4110 0031 0B       		.uleb128 0xb
 4111 0032 3B       		.uleb128 0x3b
 4112 0033 0B       		.uleb128 0xb
 4113 0034 39       		.uleb128 0x39
 4114 0035 0B       		.uleb128 0xb
 4115 0036 49       		.uleb128 0x49
 4116 0037 13       		.uleb128 0x13
 4117 0038 00       		.byte	0
 4118 0039 00       		.byte	0
 4119 003a 05       		.uleb128 0x5
 4120 003b 35       		.uleb128 0x35
 4121 003c 00       		.byte	0
 4122 003d 49       		.uleb128 0x49
 4123 003e 13       		.uleb128 0x13
 4124 003f 00       		.byte	0
 4125 0040 00       		.byte	0
 4126 0041 06       		.uleb128 0x6
 4127 0042 0F       		.uleb128 0xf
 4128 0043 00       		.byte	0
 4129 0044 0B       		.uleb128 0xb
 4130 0045 0B       		.uleb128 0xb
 4131 0046 00       		.byte	0
 4132 0047 00       		.byte	0
 4133 0048 07       		.uleb128 0x7
 4134 0049 0F       		.uleb128 0xf
ARM GAS  /tmp/ccZoGyG7.s 			page 82


 4135 004a 00       		.byte	0
 4136 004b 0B       		.uleb128 0xb
 4137 004c 0B       		.uleb128 0xb
 4138 004d 49       		.uleb128 0x49
 4139 004e 13       		.uleb128 0x13
 4140 004f 00       		.byte	0
 4141 0050 00       		.byte	0
 4142 0051 08       		.uleb128 0x8
 4143 0052 13       		.uleb128 0x13
 4144 0053 00       		.byte	0
 4145 0054 03       		.uleb128 0x3
 4146 0055 0E       		.uleb128 0xe
 4147 0056 3C       		.uleb128 0x3c
 4148 0057 0C       		.uleb128 0xc
 4149 0058 00       		.byte	0
 4150 0059 00       		.byte	0
 4151 005a 09       		.uleb128 0x9
 4152 005b 04       		.uleb128 0x4
 4153 005c 01       		.byte	0x1
 4154 005d 03       		.uleb128 0x3
 4155 005e 0E       		.uleb128 0xe
 4156 005f 3E       		.uleb128 0x3e
 4157 0060 0B       		.uleb128 0xb
 4158 0061 0B       		.uleb128 0xb
 4159 0062 0B       		.uleb128 0xb
 4160 0063 49       		.uleb128 0x49
 4161 0064 13       		.uleb128 0x13
 4162 0065 3A       		.uleb128 0x3a
 4163 0066 0B       		.uleb128 0xb
 4164 0067 3B       		.uleb128 0x3b
 4165 0068 0B       		.uleb128 0xb
 4166 0069 39       		.uleb128 0x39
 4167 006a 0B       		.uleb128 0xb
 4168 006b 01       		.uleb128 0x1
 4169 006c 13       		.uleb128 0x13
 4170 006d 00       		.byte	0
 4171 006e 00       		.byte	0
 4172 006f 0A       		.uleb128 0xa
 4173 0070 28       		.uleb128 0x28
 4174 0071 00       		.byte	0
 4175 0072 03       		.uleb128 0x3
 4176 0073 0E       		.uleb128 0xe
 4177 0074 1C       		.uleb128 0x1c
 4178 0075 0D       		.uleb128 0xd
 4179 0076 00       		.byte	0
 4180 0077 00       		.byte	0
 4181 0078 0B       		.uleb128 0xb
 4182 0079 28       		.uleb128 0x28
 4183 007a 00       		.byte	0
 4184 007b 03       		.uleb128 0x3
 4185 007c 0E       		.uleb128 0xe
 4186 007d 1C       		.uleb128 0x1c
 4187 007e 0B       		.uleb128 0xb
 4188 007f 00       		.byte	0
 4189 0080 00       		.byte	0
 4190 0081 0C       		.uleb128 0xc
 4191 0082 16       		.uleb128 0x16
ARM GAS  /tmp/ccZoGyG7.s 			page 83


 4192 0083 00       		.byte	0
 4193 0084 03       		.uleb128 0x3
 4194 0085 0E       		.uleb128 0xe
 4195 0086 3A       		.uleb128 0x3a
 4196 0087 0B       		.uleb128 0xb
 4197 0088 3B       		.uleb128 0x3b
 4198 0089 05       		.uleb128 0x5
 4199 008a 39       		.uleb128 0x39
 4200 008b 0B       		.uleb128 0xb
 4201 008c 49       		.uleb128 0x49
 4202 008d 13       		.uleb128 0x13
 4203 008e 00       		.byte	0
 4204 008f 00       		.byte	0
 4205 0090 0D       		.uleb128 0xd
 4206 0091 13       		.uleb128 0x13
 4207 0092 01       		.byte	0x1
 4208 0093 0B       		.uleb128 0xb
 4209 0094 05       		.uleb128 0x5
 4210 0095 3A       		.uleb128 0x3a
 4211 0096 0B       		.uleb128 0xb
 4212 0097 3B       		.uleb128 0x3b
 4213 0098 0B       		.uleb128 0xb
 4214 0099 39       		.uleb128 0x39
 4215 009a 0B       		.uleb128 0xb
 4216 009b 01       		.uleb128 0x1
 4217 009c 13       		.uleb128 0x13
 4218 009d 00       		.byte	0
 4219 009e 00       		.byte	0
 4220 009f 0E       		.uleb128 0xe
 4221 00a0 0D       		.uleb128 0xd
 4222 00a1 00       		.byte	0
 4223 00a2 03       		.uleb128 0x3
 4224 00a3 0E       		.uleb128 0xe
 4225 00a4 3A       		.uleb128 0x3a
 4226 00a5 0B       		.uleb128 0xb
 4227 00a6 3B       		.uleb128 0x3b
 4228 00a7 0B       		.uleb128 0xb
 4229 00a8 39       		.uleb128 0x39
 4230 00a9 0B       		.uleb128 0xb
 4231 00aa 49       		.uleb128 0x49
 4232 00ab 13       		.uleb128 0x13
 4233 00ac 38       		.uleb128 0x38
 4234 00ad 0A       		.uleb128 0xa
 4235 00ae 00       		.byte	0
 4236 00af 00       		.byte	0
 4237 00b0 0F       		.uleb128 0xf
 4238 00b1 0D       		.uleb128 0xd
 4239 00b2 00       		.byte	0
 4240 00b3 03       		.uleb128 0x3
 4241 00b4 08       		.uleb128 0x8
 4242 00b5 3A       		.uleb128 0x3a
 4243 00b6 0B       		.uleb128 0xb
 4244 00b7 3B       		.uleb128 0x3b
 4245 00b8 0B       		.uleb128 0xb
 4246 00b9 39       		.uleb128 0x39
 4247 00ba 0B       		.uleb128 0xb
 4248 00bb 49       		.uleb128 0x49
ARM GAS  /tmp/ccZoGyG7.s 			page 84


 4249 00bc 13       		.uleb128 0x13
 4250 00bd 38       		.uleb128 0x38
 4251 00be 0A       		.uleb128 0xa
 4252 00bf 00       		.byte	0
 4253 00c0 00       		.byte	0
 4254 00c1 10       		.uleb128 0x10
 4255 00c2 01       		.uleb128 0x1
 4256 00c3 01       		.byte	0x1
 4257 00c4 49       		.uleb128 0x49
 4258 00c5 13       		.uleb128 0x13
 4259 00c6 01       		.uleb128 0x1
 4260 00c7 13       		.uleb128 0x13
 4261 00c8 00       		.byte	0
 4262 00c9 00       		.byte	0
 4263 00ca 11       		.uleb128 0x11
 4264 00cb 21       		.uleb128 0x21
 4265 00cc 00       		.byte	0
 4266 00cd 49       		.uleb128 0x49
 4267 00ce 13       		.uleb128 0x13
 4268 00cf 2F       		.uleb128 0x2f
 4269 00d0 0B       		.uleb128 0xb
 4270 00d1 00       		.byte	0
 4271 00d2 00       		.byte	0
 4272 00d3 12       		.uleb128 0x12
 4273 00d4 21       		.uleb128 0x21
 4274 00d5 00       		.byte	0
 4275 00d6 49       		.uleb128 0x49
 4276 00d7 13       		.uleb128 0x13
 4277 00d8 2F       		.uleb128 0x2f
 4278 00d9 05       		.uleb128 0x5
 4279 00da 00       		.byte	0
 4280 00db 00       		.byte	0
 4281 00dc 13       		.uleb128 0x13
 4282 00dd 16       		.uleb128 0x16
 4283 00de 00       		.byte	0
 4284 00df 03       		.uleb128 0x3
 4285 00e0 08       		.uleb128 0x8
 4286 00e1 3A       		.uleb128 0x3a
 4287 00e2 0B       		.uleb128 0xb
 4288 00e3 3B       		.uleb128 0x3b
 4289 00e4 05       		.uleb128 0x5
 4290 00e5 39       		.uleb128 0x39
 4291 00e6 0B       		.uleb128 0xb
 4292 00e7 49       		.uleb128 0x49
 4293 00e8 13       		.uleb128 0x13
 4294 00e9 00       		.byte	0
 4295 00ea 00       		.byte	0
 4296 00eb 14       		.uleb128 0x14
 4297 00ec 04       		.uleb128 0x4
 4298 00ed 01       		.byte	0x1
 4299 00ee 3E       		.uleb128 0x3e
 4300 00ef 0B       		.uleb128 0xb
 4301 00f0 0B       		.uleb128 0xb
 4302 00f1 0B       		.uleb128 0xb
 4303 00f2 49       		.uleb128 0x49
 4304 00f3 13       		.uleb128 0x13
 4305 00f4 3A       		.uleb128 0x3a
ARM GAS  /tmp/ccZoGyG7.s 			page 85


 4306 00f5 0B       		.uleb128 0xb
 4307 00f6 3B       		.uleb128 0x3b
 4308 00f7 05       		.uleb128 0x5
 4309 00f8 39       		.uleb128 0x39
 4310 00f9 0B       		.uleb128 0xb
 4311 00fa 01       		.uleb128 0x1
 4312 00fb 13       		.uleb128 0x13
 4313 00fc 00       		.byte	0
 4314 00fd 00       		.byte	0
 4315 00fe 15       		.uleb128 0x15
 4316 00ff 28       		.uleb128 0x28
 4317 0100 00       		.byte	0
 4318 0101 03       		.uleb128 0x3
 4319 0102 08       		.uleb128 0x8
 4320 0103 1C       		.uleb128 0x1c
 4321 0104 0B       		.uleb128 0xb
 4322 0105 00       		.byte	0
 4323 0106 00       		.byte	0
 4324 0107 16       		.uleb128 0x16
 4325 0108 13       		.uleb128 0x13
 4326 0109 01       		.byte	0x1
 4327 010a 0B       		.uleb128 0xb
 4328 010b 0B       		.uleb128 0xb
 4329 010c 3A       		.uleb128 0x3a
 4330 010d 0B       		.uleb128 0xb
 4331 010e 3B       		.uleb128 0x3b
 4332 010f 05       		.uleb128 0x5
 4333 0110 39       		.uleb128 0x39
 4334 0111 0B       		.uleb128 0xb
 4335 0112 01       		.uleb128 0x1
 4336 0113 13       		.uleb128 0x13
 4337 0114 00       		.byte	0
 4338 0115 00       		.byte	0
 4339 0116 17       		.uleb128 0x17
 4340 0117 0D       		.uleb128 0xd
 4341 0118 00       		.byte	0
 4342 0119 03       		.uleb128 0x3
 4343 011a 08       		.uleb128 0x8
 4344 011b 3A       		.uleb128 0x3a
 4345 011c 0B       		.uleb128 0xb
 4346 011d 3B       		.uleb128 0x3b
 4347 011e 05       		.uleb128 0x5
 4348 011f 39       		.uleb128 0x39
 4349 0120 0B       		.uleb128 0xb
 4350 0121 49       		.uleb128 0x49
 4351 0122 13       		.uleb128 0x13
 4352 0123 38       		.uleb128 0x38
 4353 0124 0A       		.uleb128 0xa
 4354 0125 00       		.byte	0
 4355 0126 00       		.byte	0
 4356 0127 18       		.uleb128 0x18
 4357 0128 0D       		.uleb128 0xd
 4358 0129 00       		.byte	0
 4359 012a 03       		.uleb128 0x3
 4360 012b 0E       		.uleb128 0xe
 4361 012c 3A       		.uleb128 0x3a
 4362 012d 0B       		.uleb128 0xb
ARM GAS  /tmp/ccZoGyG7.s 			page 86


 4363 012e 3B       		.uleb128 0x3b
 4364 012f 05       		.uleb128 0x5
 4365 0130 39       		.uleb128 0x39
 4366 0131 0B       		.uleb128 0xb
 4367 0132 49       		.uleb128 0x49
 4368 0133 13       		.uleb128 0x13
 4369 0134 38       		.uleb128 0x38
 4370 0135 0A       		.uleb128 0xa
 4371 0136 00       		.byte	0
 4372 0137 00       		.byte	0
 4373 0138 19       		.uleb128 0x19
 4374 0139 04       		.uleb128 0x4
 4375 013a 01       		.byte	0x1
 4376 013b 3E       		.uleb128 0x3e
 4377 013c 0B       		.uleb128 0xb
 4378 013d 0B       		.uleb128 0xb
 4379 013e 0B       		.uleb128 0xb
 4380 013f 49       		.uleb128 0x49
 4381 0140 13       		.uleb128 0x13
 4382 0141 3A       		.uleb128 0x3a
 4383 0142 0B       		.uleb128 0xb
 4384 0143 3B       		.uleb128 0x3b
 4385 0144 0B       		.uleb128 0xb
 4386 0145 39       		.uleb128 0x39
 4387 0146 0B       		.uleb128 0xb
 4388 0147 01       		.uleb128 0x1
 4389 0148 13       		.uleb128 0x13
 4390 0149 00       		.byte	0
 4391 014a 00       		.byte	0
 4392 014b 1A       		.uleb128 0x1a
 4393 014c 13       		.uleb128 0x13
 4394 014d 01       		.byte	0x1
 4395 014e 0B       		.uleb128 0xb
 4396 014f 0B       		.uleb128 0xb
 4397 0150 3A       		.uleb128 0x3a
 4398 0151 0B       		.uleb128 0xb
 4399 0152 3B       		.uleb128 0x3b
 4400 0153 0B       		.uleb128 0xb
 4401 0154 39       		.uleb128 0x39
 4402 0155 0B       		.uleb128 0xb
 4403 0156 01       		.uleb128 0x1
 4404 0157 13       		.uleb128 0x13
 4405 0158 00       		.byte	0
 4406 0159 00       		.byte	0
 4407 015a 1B       		.uleb128 0x1b
 4408 015b 34       		.uleb128 0x34
 4409 015c 00       		.byte	0
 4410 015d 03       		.uleb128 0x3
 4411 015e 0E       		.uleb128 0xe
 4412 015f 3A       		.uleb128 0x3a
 4413 0160 0B       		.uleb128 0xb
 4414 0161 3B       		.uleb128 0x3b
 4415 0162 0B       		.uleb128 0xb
 4416 0163 39       		.uleb128 0x39
 4417 0164 0B       		.uleb128 0xb
 4418 0165 49       		.uleb128 0x49
 4419 0166 13       		.uleb128 0x13
ARM GAS  /tmp/ccZoGyG7.s 			page 87


 4420 0167 02       		.uleb128 0x2
 4421 0168 0A       		.uleb128 0xa
 4422 0169 00       		.byte	0
 4423 016a 00       		.byte	0
 4424 016b 1C       		.uleb128 0x1c
 4425 016c 2E       		.uleb128 0x2e
 4426 016d 01       		.byte	0x1
 4427 016e 3F       		.uleb128 0x3f
 4428 016f 0C       		.uleb128 0xc
 4429 0170 03       		.uleb128 0x3
 4430 0171 0E       		.uleb128 0xe
 4431 0172 3A       		.uleb128 0x3a
 4432 0173 0B       		.uleb128 0xb
 4433 0174 3B       		.uleb128 0x3b
 4434 0175 0B       		.uleb128 0xb
 4435 0176 39       		.uleb128 0x39
 4436 0177 0B       		.uleb128 0xb
 4437 0178 27       		.uleb128 0x27
 4438 0179 0C       		.uleb128 0xc
 4439 017a 49       		.uleb128 0x49
 4440 017b 13       		.uleb128 0x13
 4441 017c 11       		.uleb128 0x11
 4442 017d 01       		.uleb128 0x1
 4443 017e 12       		.uleb128 0x12
 4444 017f 01       		.uleb128 0x1
 4445 0180 40       		.uleb128 0x40
 4446 0181 06       		.uleb128 0x6
 4447 0182 9742     		.uleb128 0x2117
 4448 0184 0C       		.uleb128 0xc
 4449 0185 01       		.uleb128 0x1
 4450 0186 13       		.uleb128 0x13
 4451 0187 00       		.byte	0
 4452 0188 00       		.byte	0
 4453 0189 1D       		.uleb128 0x1d
 4454 018a 898201   		.uleb128 0x4109
 4455 018d 01       		.byte	0x1
 4456 018e 11       		.uleb128 0x11
 4457 018f 01       		.uleb128 0x1
 4458 0190 31       		.uleb128 0x31
 4459 0191 13       		.uleb128 0x13
 4460 0192 01       		.uleb128 0x1
 4461 0193 13       		.uleb128 0x13
 4462 0194 00       		.byte	0
 4463 0195 00       		.byte	0
 4464 0196 1E       		.uleb128 0x1e
 4465 0197 8A8201   		.uleb128 0x410a
 4466 019a 00       		.byte	0
 4467 019b 02       		.uleb128 0x2
 4468 019c 0A       		.uleb128 0xa
 4469 019d 9142     		.uleb128 0x2111
 4470 019f 0A       		.uleb128 0xa
 4471 01a0 00       		.byte	0
 4472 01a1 00       		.byte	0
 4473 01a2 1F       		.uleb128 0x1f
 4474 01a3 898201   		.uleb128 0x4109
 4475 01a6 00       		.byte	0
 4476 01a7 11       		.uleb128 0x11
ARM GAS  /tmp/ccZoGyG7.s 			page 88


 4477 01a8 01       		.uleb128 0x1
 4478 01a9 31       		.uleb128 0x31
 4479 01aa 13       		.uleb128 0x13
 4480 01ab 00       		.byte	0
 4481 01ac 00       		.byte	0
 4482 01ad 20       		.uleb128 0x20
 4483 01ae 2E       		.uleb128 0x2e
 4484 01af 01       		.byte	0x1
 4485 01b0 3F       		.uleb128 0x3f
 4486 01b1 0C       		.uleb128 0xc
 4487 01b2 03       		.uleb128 0x3
 4488 01b3 0E       		.uleb128 0xe
 4489 01b4 3A       		.uleb128 0x3a
 4490 01b5 0B       		.uleb128 0xb
 4491 01b6 3B       		.uleb128 0x3b
 4492 01b7 0B       		.uleb128 0xb
 4493 01b8 39       		.uleb128 0x39
 4494 01b9 0B       		.uleb128 0xb
 4495 01ba 27       		.uleb128 0x27
 4496 01bb 0C       		.uleb128 0xc
 4497 01bc 11       		.uleb128 0x11
 4498 01bd 01       		.uleb128 0x1
 4499 01be 12       		.uleb128 0x12
 4500 01bf 01       		.uleb128 0x1
 4501 01c0 40       		.uleb128 0x40
 4502 01c1 06       		.uleb128 0x6
 4503 01c2 9742     		.uleb128 0x2117
 4504 01c4 0C       		.uleb128 0xc
 4505 01c5 01       		.uleb128 0x1
 4506 01c6 13       		.uleb128 0x13
 4507 01c7 00       		.byte	0
 4508 01c8 00       		.byte	0
 4509 01c9 21       		.uleb128 0x21
 4510 01ca 05       		.uleb128 0x5
 4511 01cb 00       		.byte	0
 4512 01cc 03       		.uleb128 0x3
 4513 01cd 0E       		.uleb128 0xe
 4514 01ce 3A       		.uleb128 0x3a
 4515 01cf 0B       		.uleb128 0xb
 4516 01d0 3B       		.uleb128 0x3b
 4517 01d1 0B       		.uleb128 0xb
 4518 01d2 39       		.uleb128 0x39
 4519 01d3 0B       		.uleb128 0xb
 4520 01d4 49       		.uleb128 0x49
 4521 01d5 13       		.uleb128 0x13
 4522 01d6 02       		.uleb128 0x2
 4523 01d7 06       		.uleb128 0x6
 4524 01d8 B742     		.uleb128 0x2137
 4525 01da 06       		.uleb128 0x6
 4526 01db 00       		.byte	0
 4527 01dc 00       		.byte	0
 4528 01dd 22       		.uleb128 0x22
 4529 01de 898201   		.uleb128 0x4109
 4530 01e1 01       		.byte	0x1
 4531 01e2 11       		.uleb128 0x11
 4532 01e3 01       		.uleb128 0x1
 4533 01e4 31       		.uleb128 0x31
ARM GAS  /tmp/ccZoGyG7.s 			page 89


 4534 01e5 13       		.uleb128 0x13
 4535 01e6 00       		.byte	0
 4536 01e7 00       		.byte	0
 4537 01e8 23       		.uleb128 0x23
 4538 01e9 2E       		.uleb128 0x2e
 4539 01ea 01       		.byte	0x1
 4540 01eb 03       		.uleb128 0x3
 4541 01ec 0E       		.uleb128 0xe
 4542 01ed 3A       		.uleb128 0x3a
 4543 01ee 0B       		.uleb128 0xb
 4544 01ef 3B       		.uleb128 0x3b
 4545 01f0 0B       		.uleb128 0xb
 4546 01f1 39       		.uleb128 0x39
 4547 01f2 0B       		.uleb128 0xb
 4548 01f3 27       		.uleb128 0x27
 4549 01f4 0C       		.uleb128 0xc
 4550 01f5 11       		.uleb128 0x11
 4551 01f6 01       		.uleb128 0x1
 4552 01f7 12       		.uleb128 0x12
 4553 01f8 01       		.uleb128 0x1
 4554 01f9 40       		.uleb128 0x40
 4555 01fa 06       		.uleb128 0x6
 4556 01fb 9742     		.uleb128 0x2117
 4557 01fd 0C       		.uleb128 0xc
 4558 01fe 01       		.uleb128 0x1
 4559 01ff 13       		.uleb128 0x13
 4560 0200 00       		.byte	0
 4561 0201 00       		.byte	0
 4562 0202 24       		.uleb128 0x24
 4563 0203 2E       		.uleb128 0x2e
 4564 0204 01       		.byte	0x1
 4565 0205 3F       		.uleb128 0x3f
 4566 0206 0C       		.uleb128 0xc
 4567 0207 03       		.uleb128 0x3
 4568 0208 0E       		.uleb128 0xe
 4569 0209 3A       		.uleb128 0x3a
 4570 020a 0B       		.uleb128 0xb
 4571 020b 3B       		.uleb128 0x3b
 4572 020c 0B       		.uleb128 0xb
 4573 020d 39       		.uleb128 0x39
 4574 020e 0B       		.uleb128 0xb
 4575 020f 11       		.uleb128 0x11
 4576 0210 01       		.uleb128 0x1
 4577 0211 12       		.uleb128 0x12
 4578 0212 01       		.uleb128 0x1
 4579 0213 40       		.uleb128 0x40
 4580 0214 06       		.uleb128 0x6
 4581 0215 9742     		.uleb128 0x2117
 4582 0217 0C       		.uleb128 0xc
 4583 0218 01       		.uleb128 0x1
 4584 0219 13       		.uleb128 0x13
 4585 021a 00       		.byte	0
 4586 021b 00       		.byte	0
 4587 021c 25       		.uleb128 0x25
 4588 021d 0B       		.uleb128 0xb
 4589 021e 01       		.byte	0x1
 4590 021f 55       		.uleb128 0x55
ARM GAS  /tmp/ccZoGyG7.s 			page 90


 4591 0220 06       		.uleb128 0x6
 4592 0221 01       		.uleb128 0x1
 4593 0222 13       		.uleb128 0x13
 4594 0223 00       		.byte	0
 4595 0224 00       		.byte	0
 4596 0225 26       		.uleb128 0x26
 4597 0226 34       		.uleb128 0x34
 4598 0227 00       		.byte	0
 4599 0228 03       		.uleb128 0x3
 4600 0229 08       		.uleb128 0x8
 4601 022a 3A       		.uleb128 0x3a
 4602 022b 0B       		.uleb128 0xb
 4603 022c 3B       		.uleb128 0x3b
 4604 022d 0B       		.uleb128 0xb
 4605 022e 39       		.uleb128 0x39
 4606 022f 0B       		.uleb128 0xb
 4607 0230 49       		.uleb128 0x49
 4608 0231 13       		.uleb128 0x13
 4609 0232 02       		.uleb128 0x2
 4610 0233 06       		.uleb128 0x6
 4611 0234 B742     		.uleb128 0x2137
 4612 0236 06       		.uleb128 0x6
 4613 0237 00       		.byte	0
 4614 0238 00       		.byte	0
 4615 0239 27       		.uleb128 0x27
 4616 023a 898201   		.uleb128 0x4109
 4617 023d 00       		.byte	0
 4618 023e 11       		.uleb128 0x11
 4619 023f 01       		.uleb128 0x1
 4620 0240 9542     		.uleb128 0x2115
 4621 0242 0C       		.uleb128 0xc
 4622 0243 31       		.uleb128 0x31
 4623 0244 13       		.uleb128 0x13
 4624 0245 00       		.byte	0
 4625 0246 00       		.byte	0
 4626 0247 28       		.uleb128 0x28
 4627 0248 2E       		.uleb128 0x2e
 4628 0249 00       		.byte	0
 4629 024a 3F       		.uleb128 0x3f
 4630 024b 0C       		.uleb128 0xc
 4631 024c 03       		.uleb128 0x3
 4632 024d 0E       		.uleb128 0xe
 4633 024e 3A       		.uleb128 0x3a
 4634 024f 0B       		.uleb128 0xb
 4635 0250 3B       		.uleb128 0x3b
 4636 0251 0B       		.uleb128 0xb
 4637 0252 39       		.uleb128 0x39
 4638 0253 0B       		.uleb128 0xb
 4639 0254 49       		.uleb128 0x49
 4640 0255 13       		.uleb128 0x13
 4641 0256 11       		.uleb128 0x11
 4642 0257 01       		.uleb128 0x1
 4643 0258 12       		.uleb128 0x12
 4644 0259 01       		.uleb128 0x1
 4645 025a 40       		.uleb128 0x40
 4646 025b 0A       		.uleb128 0xa
 4647 025c 9742     		.uleb128 0x2117
ARM GAS  /tmp/ccZoGyG7.s 			page 91


 4648 025e 0C       		.uleb128 0xc
 4649 025f 00       		.byte	0
 4650 0260 00       		.byte	0
 4651 0261 29       		.uleb128 0x29
 4652 0262 2E       		.uleb128 0x2e
 4653 0263 00       		.byte	0
 4654 0264 3F       		.uleb128 0x3f
 4655 0265 0C       		.uleb128 0xc
 4656 0266 03       		.uleb128 0x3
 4657 0267 0E       		.uleb128 0xe
 4658 0268 3A       		.uleb128 0x3a
 4659 0269 0B       		.uleb128 0xb
 4660 026a 3B       		.uleb128 0x3b
 4661 026b 0B       		.uleb128 0xb
 4662 026c 39       		.uleb128 0x39
 4663 026d 0B       		.uleb128 0xb
 4664 026e 11       		.uleb128 0x11
 4665 026f 01       		.uleb128 0x1
 4666 0270 12       		.uleb128 0x12
 4667 0271 01       		.uleb128 0x1
 4668 0272 40       		.uleb128 0x40
 4669 0273 0A       		.uleb128 0xa
 4670 0274 9742     		.uleb128 0x2117
 4671 0276 0C       		.uleb128 0xc
 4672 0277 00       		.byte	0
 4673 0278 00       		.byte	0
 4674 0279 2A       		.uleb128 0x2a
 4675 027a 2E       		.uleb128 0x2e
 4676 027b 01       		.byte	0x1
 4677 027c 3F       		.uleb128 0x3f
 4678 027d 0C       		.uleb128 0xc
 4679 027e 03       		.uleb128 0x3
 4680 027f 0E       		.uleb128 0xe
 4681 0280 3A       		.uleb128 0x3a
 4682 0281 0B       		.uleb128 0xb
 4683 0282 3B       		.uleb128 0x3b
 4684 0283 0B       		.uleb128 0xb
 4685 0284 39       		.uleb128 0x39
 4686 0285 0B       		.uleb128 0xb
 4687 0286 27       		.uleb128 0x27
 4688 0287 0C       		.uleb128 0xc
 4689 0288 11       		.uleb128 0x11
 4690 0289 01       		.uleb128 0x1
 4691 028a 12       		.uleb128 0x12
 4692 028b 01       		.uleb128 0x1
 4693 028c 40       		.uleb128 0x40
 4694 028d 0A       		.uleb128 0xa
 4695 028e 9742     		.uleb128 0x2117
 4696 0290 0C       		.uleb128 0xc
 4697 0291 01       		.uleb128 0x1
 4698 0292 13       		.uleb128 0x13
 4699 0293 00       		.byte	0
 4700 0294 00       		.byte	0
 4701 0295 2B       		.uleb128 0x2b
 4702 0296 2E       		.uleb128 0x2e
 4703 0297 00       		.byte	0
 4704 0298 3F       		.uleb128 0x3f
ARM GAS  /tmp/ccZoGyG7.s 			page 92


 4705 0299 0C       		.uleb128 0xc
 4706 029a 03       		.uleb128 0x3
 4707 029b 0E       		.uleb128 0xe
 4708 029c 3A       		.uleb128 0x3a
 4709 029d 0B       		.uleb128 0xb
 4710 029e 3B       		.uleb128 0x3b
 4711 029f 0B       		.uleb128 0xb
 4712 02a0 39       		.uleb128 0x39
 4713 02a1 0B       		.uleb128 0xb
 4714 02a2 27       		.uleb128 0x27
 4715 02a3 0C       		.uleb128 0xc
 4716 02a4 11       		.uleb128 0x11
 4717 02a5 01       		.uleb128 0x1
 4718 02a6 12       		.uleb128 0x12
 4719 02a7 01       		.uleb128 0x1
 4720 02a8 40       		.uleb128 0x40
 4721 02a9 0A       		.uleb128 0xa
 4722 02aa 9742     		.uleb128 0x2117
 4723 02ac 0C       		.uleb128 0xc
 4724 02ad 00       		.byte	0
 4725 02ae 00       		.byte	0
 4726 02af 2C       		.uleb128 0x2c
 4727 02b0 05       		.uleb128 0x5
 4728 02b1 00       		.byte	0
 4729 02b2 03       		.uleb128 0x3
 4730 02b3 08       		.uleb128 0x8
 4731 02b4 3A       		.uleb128 0x3a
 4732 02b5 0B       		.uleb128 0xb
 4733 02b6 3B       		.uleb128 0x3b
 4734 02b7 0B       		.uleb128 0xb
 4735 02b8 39       		.uleb128 0x39
 4736 02b9 0B       		.uleb128 0xb
 4737 02ba 49       		.uleb128 0x49
 4738 02bb 13       		.uleb128 0x13
 4739 02bc 02       		.uleb128 0x2
 4740 02bd 0A       		.uleb128 0xa
 4741 02be 00       		.byte	0
 4742 02bf 00       		.byte	0
 4743 02c0 2D       		.uleb128 0x2d
 4744 02c1 2E       		.uleb128 0x2e
 4745 02c2 00       		.byte	0
 4746 02c3 3F       		.uleb128 0x3f
 4747 02c4 0C       		.uleb128 0xc
 4748 02c5 3C       		.uleb128 0x3c
 4749 02c6 0C       		.uleb128 0xc
 4750 02c7 8740     		.uleb128 0x2007
 4751 02c9 0E       		.uleb128 0xe
 4752 02ca 03       		.uleb128 0x3
 4753 02cb 0E       		.uleb128 0xe
 4754 02cc 3A       		.uleb128 0x3a
 4755 02cd 0B       		.uleb128 0xb
 4756 02ce 3B       		.uleb128 0x3b
 4757 02cf 05       		.uleb128 0x5
 4758 02d0 39       		.uleb128 0x39
 4759 02d1 0B       		.uleb128 0xb
 4760 02d2 00       		.byte	0
 4761 02d3 00       		.byte	0
ARM GAS  /tmp/ccZoGyG7.s 			page 93


 4762 02d4 2E       		.uleb128 0x2e
 4763 02d5 2E       		.uleb128 0x2e
 4764 02d6 00       		.byte	0
 4765 02d7 3F       		.uleb128 0x3f
 4766 02d8 0C       		.uleb128 0xc
 4767 02d9 3C       		.uleb128 0x3c
 4768 02da 0C       		.uleb128 0xc
 4769 02db 8740     		.uleb128 0x2007
 4770 02dd 0E       		.uleb128 0xe
 4771 02de 03       		.uleb128 0x3
 4772 02df 0E       		.uleb128 0xe
 4773 02e0 3A       		.uleb128 0x3a
 4774 02e1 0B       		.uleb128 0xb
 4775 02e2 3B       		.uleb128 0x3b
 4776 02e3 0B       		.uleb128 0xb
 4777 02e4 39       		.uleb128 0x39
 4778 02e5 0B       		.uleb128 0xb
 4779 02e6 00       		.byte	0
 4780 02e7 00       		.byte	0
 4781 02e8 2F       		.uleb128 0x2f
 4782 02e9 2E       		.uleb128 0x2e
 4783 02ea 00       		.byte	0
 4784 02eb 3F       		.uleb128 0x3f
 4785 02ec 0C       		.uleb128 0xc
 4786 02ed 3C       		.uleb128 0x3c
 4787 02ee 0C       		.uleb128 0xc
 4788 02ef 8740     		.uleb128 0x2007
 4789 02f1 0E       		.uleb128 0xe
 4790 02f2 03       		.uleb128 0x3
 4791 02f3 0E       		.uleb128 0xe
 4792 02f4 00       		.byte	0
 4793 02f5 00       		.byte	0
 4794 02f6 00       		.byte	0
 4795              		.section	.debug_loc,"",%progbits
 4796              	.Ldebug_loc0:
 4797              	.LLST14:
 4798 0000 00000000 		.4byte	.LFB48
 4799 0004 02000000 		.4byte	.LCFI12
 4800 0008 0200     		.2byte	0x2
 4801 000a 7D       		.byte	0x7d
 4802 000b 00       		.sleb128 0
 4803 000c 02000000 		.4byte	.LCFI12
 4804 0010 6C000000 		.4byte	.LFE48
 4805 0014 0200     		.2byte	0x2
 4806 0016 7D       		.byte	0x7d
 4807 0017 10       		.sleb128 16
 4808 0018 00000000 		.4byte	0
 4809 001c 00000000 		.4byte	0
 4810              	.LLST8:
 4811 0020 C4020000 		.4byte	.LFB47
 4812 0024 C6020000 		.4byte	.LCFI8
 4813 0028 0200     		.2byte	0x2
 4814 002a 7D       		.byte	0x7d
 4815 002b 00       		.sleb128 0
 4816 002c C6020000 		.4byte	.LCFI8
 4817 0030 F0020000 		.4byte	.LFE47
 4818 0034 0200     		.2byte	0x2
ARM GAS  /tmp/ccZoGyG7.s 			page 94


 4819 0036 7D       		.byte	0x7d
 4820 0037 10       		.sleb128 16
 4821 0038 00000000 		.4byte	0
 4822 003c 00000000 		.4byte	0
 4823              	.LVUS9:
 4824 0040 00       		.uleb128 0
 4825 0041 00       		.uleb128 .LVU225
 4826 0042 00       		.uleb128 .LVU225
 4827 0043 00       		.uleb128 0
 4828              	.LLST9:
 4829 0044 C4020000 		.4byte	.LVL19
 4830 0048 CE020000 		.4byte	.LVL21
 4831 004c 0100     		.2byte	0x1
 4832 004e 50       		.byte	0x50
 4833 004f CE020000 		.4byte	.LVL21
 4834 0053 F0020000 		.4byte	.LFE47
 4835 0057 0400     		.2byte	0x4
 4836 0059 F3       		.byte	0xf3
 4837 005a 01       		.uleb128 0x1
 4838 005b 50       		.byte	0x50
 4839 005c 9F       		.byte	0x9f
 4840 005d 00000000 		.4byte	0
 4841 0061 00000000 		.4byte	0
 4842              	.LLST0:
 4843 0065 00000000 		.4byte	.LFB46
 4844 0069 04000000 		.4byte	.LCFI0
 4845 006d 0200     		.2byte	0x2
 4846 006f 7D       		.byte	0x7d
 4847 0070 00       		.sleb128 0
 4848 0071 04000000 		.4byte	.LCFI0
 4849 0075 30000000 		.4byte	.LFE46
 4850 0079 0200     		.2byte	0x2
 4851 007b 7D       		.byte	0x7d
 4852 007c 08       		.sleb128 8
 4853 007d 00000000 		.4byte	0
 4854 0081 00000000 		.4byte	0
 4855              	.LVUS1:
 4856 0085 00       		.uleb128 0
 4857 0086 00       		.uleb128 .LVU9
 4858 0087 00       		.uleb128 .LVU9
 4859 0088 00       		.uleb128 0
 4860              	.LLST1:
 4861 0089 00000000 		.4byte	.LVL0
 4862 008d 16000000 		.4byte	.LVL1
 4863 0091 0100     		.2byte	0x1
 4864 0093 50       		.byte	0x50
 4865 0094 16000000 		.4byte	.LVL1
 4866 0098 30000000 		.4byte	.LFE46
 4867 009c 0400     		.2byte	0x4
 4868 009e F3       		.byte	0xf3
 4869 009f 01       		.uleb128 0x1
 4870 00a0 50       		.byte	0x50
 4871 00a1 9F       		.byte	0x9f
 4872 00a2 00000000 		.4byte	0
 4873 00a6 00000000 		.4byte	0
 4874              	.LLST12:
 4875 00aa D0030000 		.4byte	.LFB45
ARM GAS  /tmp/ccZoGyG7.s 			page 95


 4876 00ae D2030000 		.4byte	.LCFI11
 4877 00b2 0200     		.2byte	0x2
 4878 00b4 7D       		.byte	0x7d
 4879 00b5 00       		.sleb128 0
 4880 00b6 D2030000 		.4byte	.LCFI11
 4881 00ba 28040000 		.4byte	.LFE45
 4882 00be 0200     		.2byte	0x2
 4883 00c0 7D       		.byte	0x7d
 4884 00c1 10       		.sleb128 16
 4885 00c2 00000000 		.4byte	0
 4886 00c6 00000000 		.4byte	0
 4887              	.LVUS13:
 4888 00ca 00       		.uleb128 0
 4889 00cb 00       		.uleb128 .LVU290
 4890 00cc 00       		.uleb128 .LVU290
 4891 00cd 00       		.uleb128 0
 4892              	.LLST13:
 4893 00ce D0030000 		.4byte	.LVL34
 4894 00d2 DB030000 		.4byte	.LVL35-1
 4895 00d6 0100     		.2byte	0x1
 4896 00d8 50       		.byte	0x50
 4897 00d9 DB030000 		.4byte	.LVL35-1
 4898 00dd 28040000 		.4byte	.LFE45
 4899 00e1 0400     		.2byte	0x4
 4900 00e3 F3       		.byte	0xf3
 4901 00e4 01       		.uleb128 0x1
 4902 00e5 50       		.byte	0x50
 4903 00e6 9F       		.byte	0x9f
 4904 00e7 00000000 		.4byte	0
 4905 00eb 00000000 		.4byte	0
 4906              	.LLST10:
 4907 00ef 0C030000 		.4byte	.LFB44
 4908 00f3 10030000 		.4byte	.LCFI9
 4909 00f7 0200     		.2byte	0x2
 4910 00f9 7D       		.byte	0x7d
 4911 00fa 00       		.sleb128 0
 4912 00fb 10030000 		.4byte	.LCFI9
 4913 00ff AE030000 		.4byte	.LCFI10
 4914 0103 0200     		.2byte	0x2
 4915 0105 7D       		.byte	0x7d
 4916 0106 18       		.sleb128 24
 4917 0107 AE030000 		.4byte	.LCFI10
 4918 010b D0030000 		.4byte	.LFE44
 4919 010f 0200     		.2byte	0x2
 4920 0111 7D       		.byte	0x7d
 4921 0112 00       		.sleb128 0
 4922 0113 00000000 		.4byte	0
 4923 0117 00000000 		.4byte	0
 4924              	.LVUS11:
 4925 011b 02       		.uleb128 .LVU271
 4926 011c 03       		.uleb128 .LVU272
 4927 011d 00       		.uleb128 .LVU273
 4928 011e 01       		.uleb128 .LVU279
 4929              	.LLST11:
 4930 011f 7A030000 		.4byte	.LVL27
 4931 0123 7A030000 		.4byte	.LVL27
 4932 0127 0200     		.2byte	0x2
ARM GAS  /tmp/ccZoGyG7.s 			page 96


 4933 0129 30       		.byte	0x30
 4934 012a 9F       		.byte	0x9f
 4935 012b 7C030000 		.4byte	.LVL28
 4936 012f 9E030000 		.4byte	.LVL31
 4937 0133 0100     		.2byte	0x1
 4938 0135 55       		.byte	0x55
 4939 0136 00000000 		.4byte	0
 4940 013a 00000000 		.4byte	0
 4941              	.LLST6:
 4942 013e 2C020000 		.4byte	.LFB41
 4943 0142 2E020000 		.4byte	.LCFI7
 4944 0146 0200     		.2byte	0x2
 4945 0148 7D       		.byte	0x7d
 4946 0149 00       		.sleb128 0
 4947 014a 2E020000 		.4byte	.LCFI7
 4948 014e 54020000 		.4byte	.LFE41
 4949 0152 0200     		.2byte	0x2
 4950 0154 7D       		.byte	0x7d
 4951 0155 10       		.sleb128 16
 4952 0156 00000000 		.4byte	0
 4953 015a 00000000 		.4byte	0
 4954              	.LVUS7:
 4955 015e 00       		.uleb128 0
 4956 015f 00       		.uleb128 .LVU181
 4957 0160 00       		.uleb128 .LVU181
 4958 0161 00       		.uleb128 .LVU183
 4959 0162 00       		.uleb128 .LVU183
 4960 0163 01       		.uleb128 .LVU186
 4961 0164 01       		.uleb128 .LVU186
 4962 0165 00       		.uleb128 0
 4963              	.LLST7:
 4964 0166 2C020000 		.4byte	.LVL13
 4965 016a 32020000 		.4byte	.LVL14
 4966 016e 0100     		.2byte	0x1
 4967 0170 50       		.byte	0x50
 4968 0171 32020000 		.4byte	.LVL14
 4969 0175 36020000 		.4byte	.LVL15
 4970 0179 0300     		.2byte	0x3
 4971 017b 74       		.byte	0x74
 4972 017c 01       		.sleb128 1
 4973 017d 9F       		.byte	0x9f
 4974 017e 36020000 		.4byte	.LVL15
 4975 0182 3A020000 		.4byte	.LVL16
 4976 0186 0100     		.2byte	0x1
 4977 0188 54       		.byte	0x54
 4978 0189 3A020000 		.4byte	.LVL16
 4979 018d 54020000 		.4byte	.LFE41
 4980 0191 0300     		.2byte	0x3
 4981 0193 74       		.byte	0x74
 4982 0194 01       		.sleb128 1
 4983 0195 9F       		.byte	0x9f
 4984 0196 00000000 		.4byte	0
 4985 019a 00000000 		.4byte	0
 4986              	.LLST5:
 4987 019e BC010000 		.4byte	.LFB40
 4988 01a2 BE010000 		.4byte	.LCFI4
 4989 01a6 0200     		.2byte	0x2
ARM GAS  /tmp/ccZoGyG7.s 			page 97


 4990 01a8 7D       		.byte	0x7d
 4991 01a9 00       		.sleb128 0
 4992 01aa BE010000 		.4byte	.LCFI4
 4993 01ae C2010000 		.4byte	.LCFI5
 4994 01b2 0200     		.2byte	0x2
 4995 01b4 7D       		.byte	0x7d
 4996 01b5 08       		.sleb128 8
 4997 01b6 C2010000 		.4byte	.LCFI5
 4998 01ba 26020000 		.4byte	.LCFI6
 4999 01be 0200     		.2byte	0x2
 5000 01c0 7D       		.byte	0x7d
 5001 01c1 20       		.sleb128 32
 5002 01c2 26020000 		.4byte	.LCFI6
 5003 01c6 2C020000 		.4byte	.LFE40
 5004 01ca 0200     		.2byte	0x2
 5005 01cc 7D       		.byte	0x7d
 5006 01cd 08       		.sleb128 8
 5007 01ce 00000000 		.4byte	0
 5008 01d2 00000000 		.4byte	0
 5009              	.LVUS4:
 5010 01d6 00       		.uleb128 0
 5011 01d7 00       		.uleb128 .LVU137
 5012 01d8 00       		.uleb128 .LVU137
 5013 01d9 00       		.uleb128 0
 5014              	.LLST4:
 5015 01da A0010000 		.4byte	.LVL6
 5016 01de A8010000 		.4byte	.LVL7
 5017 01e2 0100     		.2byte	0x1
 5018 01e4 50       		.byte	0x50
 5019 01e5 A8010000 		.4byte	.LVL7
 5020 01e9 BC010000 		.4byte	.LFE39
 5021 01ed 0400     		.2byte	0x4
 5022 01ef F3       		.byte	0xf3
 5023 01f0 01       		.uleb128 0x1
 5024 01f1 50       		.byte	0x50
 5025 01f2 9F       		.byte	0x9f
 5026 01f3 00000000 		.4byte	0
 5027 01f7 00000000 		.4byte	0
 5028              	.LVUS3:
 5029 01fb 00       		.uleb128 0
 5030 01fc 00       		.uleb128 .LVU129
 5031 01fd 00       		.uleb128 .LVU129
 5032 01fe 00       		.uleb128 0
 5033              	.LLST3:
 5034 01ff 88010000 		.4byte	.LVL4
 5035 0203 90010000 		.4byte	.LVL5
 5036 0207 0100     		.2byte	0x1
 5037 0209 50       		.byte	0x50
 5038 020a 90010000 		.4byte	.LVL5
 5039 020e A0010000 		.4byte	.LFE38
 5040 0212 0400     		.2byte	0x4
 5041 0214 F3       		.byte	0xf3
 5042 0215 01       		.uleb128 0x1
 5043 0216 50       		.byte	0x50
 5044 0217 9F       		.byte	0x9f
 5045 0218 00000000 		.4byte	0
 5046 021c 00000000 		.4byte	0
ARM GAS  /tmp/ccZoGyG7.s 			page 98


 5047              	.LLST2:
 5048 0220 30010000 		.4byte	.LFB36
 5049 0224 32010000 		.4byte	.LCFI1
 5050 0228 0200     		.2byte	0x2
 5051 022a 7D       		.byte	0x7d
 5052 022b 00       		.sleb128 0
 5053 022c 32010000 		.4byte	.LCFI1
 5054 0230 3E010000 		.4byte	.LCFI2
 5055 0234 0200     		.2byte	0x2
 5056 0236 7D       		.byte	0x7d
 5057 0237 08       		.sleb128 8
 5058 0238 3E010000 		.4byte	.LCFI2
 5059 023c 40010000 		.4byte	.LCFI3
 5060 0240 0200     		.2byte	0x2
 5061 0242 7D       		.byte	0x7d
 5062 0243 00       		.sleb128 0
 5063 0244 40010000 		.4byte	.LCFI3
 5064 0248 60010000 		.4byte	.LFE36
 5065 024c 0200     		.2byte	0x2
 5066 024e 7D       		.byte	0x7d
 5067 024f 08       		.sleb128 8
 5068 0250 00000000 		.4byte	0
 5069 0254 00000000 		.4byte	0
 5070              		.section	.debug_aranges,"",%progbits
 5071 0000 24000000 		.4byte	0x24
 5072 0004 0200     		.2byte	0x2
 5073 0006 00000000 		.4byte	.Ldebug_info0
 5074 000a 04       		.byte	0x4
 5075 000b 00       		.byte	0
 5076 000c 0000     		.2byte	0
 5077 000e 0000     		.2byte	0
 5078 0010 00000000 		.4byte	.Ltext0
 5079 0014 28040000 		.4byte	.Letext0-.Ltext0
 5080 0018 00000000 		.4byte	.LFB48
 5081 001c 6C000000 		.4byte	.LFE48-.LFB48
 5082 0020 00000000 		.4byte	0
 5083 0024 00000000 		.4byte	0
 5084              		.section	.debug_ranges,"",%progbits
 5085              	.Ldebug_ranges0:
 5086 0000 1E030000 		.4byte	.LBB2
 5087 0004 20030000 		.4byte	.LBE2
 5088 0008 24030000 		.4byte	.LBB3
 5089 000c 26030000 		.4byte	.LBE3
 5090 0010 7A030000 		.4byte	.LBB4
 5091 0014 A2030000 		.4byte	.LBE4
 5092 0018 00000000 		.4byte	0
 5093 001c 00000000 		.4byte	0
 5094 0020 00000000 		.4byte	.Ltext0
 5095 0024 28040000 		.4byte	.Letext0
 5096 0028 00000000 		.4byte	.LFB48
 5097 002c 6C000000 		.4byte	.LFE48
 5098 0030 00000000 		.4byte	0
 5099 0034 00000000 		.4byte	0
 5100              		.section	.debug_line,"",%progbits
 5101              	.Ldebug_line0:
 5102 0000 D8070000 		.section	.debug_str,"MS",%progbits,1
 5102      0300FD01 
ARM GAS  /tmp/ccZoGyG7.s 			page 99


 5102      00000201 
 5102      FB0E0D00 
 5102      01010101 
 5103              	.LASF182:
 5104 0000 70756342 		.ascii	"pucBuffer\000"
 5104      75666665 
 5104      7200
 5105              	.LASF78:
 5106 000a 49435052 		.ascii	"ICPR\000"
 5106      00
 5107              	.LASF109:
 5108 000f 4C434B52 		.ascii	"LCKR\000"
 5108      00
 5109              	.LASF161:
 5110 0014 4750494F 		.ascii	"GPIO_Mode_AF_PP\000"
 5110      5F4D6F64 
 5110      655F4146 
 5110      5F505000 
 5111              	.LASF29:
 5112 0024 5056445F 		.ascii	"PVD_IRQn\000"
 5112      4952516E 
 5112      00
 5113              	.LASF123:
 5114 002d 44494552 		.ascii	"DIER\000"
 5114      00
 5115              	.LASF183:
 5116 0032 55534152 		.ascii	"USART_init\000"
 5116      545F696E 
 5116      697400
 5117              	.LASF49:
 5118 003d 43414E31 		.ascii	"CAN1_RX1_IRQn\000"
 5118      5F525831 
 5118      5F495251 
 5118      6E00
 5119              	.LASF179:
 5120 004b 6D73675F 		.ascii	"msg_buf_rev\000"
 5120      6275665F 
 5120      72657600 
 5121              	.LASF211:
 5122 0057 5243435F 		.ascii	"RCC_APB2PeriphClockCmd\000"
 5122      41504232 
 5122      50657269 
 5122      7068436C 
 5122      6F636B43 
 5123              	.LASF6:
 5124 006e 5F5F7569 		.ascii	"__uint8_t\000"
 5124      6E74385F 
 5124      7400
 5125              	.LASF150:
 5126 0078 4750494F 		.ascii	"GPIO_Speed_10MHz\000"
 5126      5F537065 
 5126      65645F31 
 5126      304D487A 
 5126      00
 5127              	.LASF147:
 5128 0089 54494D5F 		.ascii	"TIM_TypeDef\000"
 5128      54797065 
ARM GAS  /tmp/ccZoGyG7.s 			page 100


 5128      44656600 
 5129              	.LASF86:
 5130 0095 44495341 		.ascii	"DISABLE\000"
 5130      424C4500 
 5131              	.LASF31:
 5132 009d 5254435F 		.ascii	"RTC_IRQn\000"
 5132      4952516E 
 5132      00
 5133              	.LASF181:
 5134 00a6 55534152 		.ascii	"USARTSend\000"
 5134      5453656E 
 5134      6400
 5135              	.LASF136:
 5136 00b0 43435232 		.ascii	"CCR2\000"
 5136      00
 5137              	.LASF207:
 5138 00b5 64697370 		.ascii	"disp_cmd\000"
 5138      5F636D64 
 5138      00
 5139              	.LASF184:
 5140 00be 4750494F 		.ascii	"GPIO_InitStructure\000"
 5140      5F496E69 
 5140      74537472 
 5140      75637475 
 5140      726500
 5141              	.LASF164:
 5142 00d1 4750494F 		.ascii	"GPIO_Speed\000"
 5142      5F537065 
 5142      656400
 5143              	.LASF62:
 5144 00dc 49324332 		.ascii	"I2C2_ER_IRQn\000"
 5144      5F45525F 
 5144      4952516E 
 5144      00
 5145              	.LASF58:
 5146 00e9 54494D34 		.ascii	"TIM4_IRQn\000"
 5146      5F495251 
 5146      6E00
 5147              	.LASF19:
 5148 00f3 51756575 		.ascii	"QueueHandle_t\000"
 5148      6548616E 
 5148      646C655F 
 5148      7400
 5149              	.LASF36:
 5150 0101 45585449 		.ascii	"EXTI2_IRQn\000"
 5150      325F4952 
 5150      516E00
 5151              	.LASF28:
 5152 010c 57574447 		.ascii	"WWDG_IRQn\000"
 5152      5F495251 
 5152      6E00
 5153              	.LASF76:
 5154 0116 49535052 		.ascii	"ISPR\000"
 5154      00
 5155              	.LASF204:
 5156 011b 5F5F6165 		.ascii	"__aeabi_d2uiz\000"
 5156      6162695F 
ARM GAS  /tmp/ccZoGyG7.s 			page 101


 5156      64327569 
 5156      7A00
 5157              	.LASF124:
 5158 0129 43434D52 		.ascii	"CCMR1\000"
 5158      3100
 5159              	.LASF126:
 5160 012f 43434D52 		.ascii	"CCMR2\000"
 5160      3200
 5161              	.LASF1:
 5162 0135 6C6F6E67 		.ascii	"long long int\000"
 5162      206C6F6E 
 5162      6720696E 
 5162      7400
 5163              	.LASF3:
 5164 0143 7369676E 		.ascii	"signed char\000"
 5164      65642063 
 5164      68617200 
 5165              	.LASF210:
 5166 014f 55534152 		.ascii	"USART_GetFlagStatus\000"
 5166      545F4765 
 5166      74466C61 
 5166      67537461 
 5166      74757300 
 5167              	.LASF170:
 5168 0163 55534152 		.ascii	"USART_Parity\000"
 5168      545F5061 
 5168      72697479 
 5168      00
 5169              	.LASF34:
 5170 0170 45585449 		.ascii	"EXTI0_IRQn\000"
 5170      305F4952 
 5170      516E00
 5171              	.LASF148:
 5172 017b 47545052 		.ascii	"GTPR\000"
 5172      00
 5173              	.LASF201:
 5174 0180 64697370 		.ascii	"disp_text\000"
 5174      5F746578 
 5174      7400
 5175              	.LASF199:
 5176 018a 76546173 		.ascii	"vTaskDelay\000"
 5176      6B44656C 
 5176      617900
 5177              	.LASF12:
 5178 0195 6C6F6E67 		.ascii	"long long unsigned int\000"
 5178      206C6F6E 
 5178      6720756E 
 5178      7369676E 
 5178      65642069 
 5179              	.LASF131:
 5180 01ac 52455345 		.ascii	"RESERVED10\000"
 5180      52564544 
 5180      313000
 5181              	.LASF132:
 5182 01b7 52455345 		.ascii	"RESERVED11\000"
 5182      52564544 
 5182      313100
ARM GAS  /tmp/ccZoGyG7.s 			page 102


 5183              	.LASF171:
 5184 01c2 55534152 		.ascii	"USART_Mode\000"
 5184      545F4D6F 
 5184      646500
 5185              	.LASF135:
 5186 01cd 52455345 		.ascii	"RESERVED13\000"
 5186      52564544 
 5186      313300
 5187              	.LASF137:
 5188 01d8 52455345 		.ascii	"RESERVED14\000"
 5188      52564544 
 5188      313400
 5189              	.LASF157:
 5190 01e3 4750494F 		.ascii	"GPIO_Mode_IPU\000"
 5190      5F4D6F64 
 5190      655F4950 
 5190      5500
 5191              	.LASF141:
 5192 01f1 52455345 		.ascii	"RESERVED16\000"
 5192      52564544 
 5192      313600
 5193              	.LASF143:
 5194 01fc 52455345 		.ascii	"RESERVED17\000"
 5194      52564544 
 5194      313700
 5195              	.LASF167:
 5196 0207 55534152 		.ascii	"USART_BaudRate\000"
 5196      545F4261 
 5196      75645261 
 5196      746500
 5197              	.LASF146:
 5198 0216 52455345 		.ascii	"RESERVED19\000"
 5198      52564544 
 5198      313900
 5199              	.LASF9:
 5200 0221 6C6F6E67 		.ascii	"long int\000"
 5200      20696E74 
 5200      00
 5201              	.LASF87:
 5202 022a 454E4142 		.ascii	"ENABLE\000"
 5202      4C4500
 5203              	.LASF112:
 5204 0231 41504232 		.ascii	"APB2RSTR\000"
 5204      52535452 
 5204      00
 5205              	.LASF51:
 5206 023a 45585449 		.ascii	"EXTI9_5_IRQn\000"
 5206      395F355F 
 5206      4952516E 
 5206      00
 5207              	.LASF128:
 5208 0247 43434552 		.ascii	"CCER\000"
 5208      00
 5209              	.LASF155:
 5210 024c 4750494F 		.ascii	"GPIO_Mode_IN_FLOATING\000"
 5210      5F4D6F64 
 5210      655F494E 
ARM GAS  /tmp/ccZoGyG7.s 			page 103


 5210      5F464C4F 
 5210      4154494E 
 5211              	.LASF104:
 5212 0262 4F50544B 		.ascii	"OPTKEYR\000"
 5212      45595200 
 5213              	.LASF14:
 5214 026a 75696E74 		.ascii	"uint16_t\000"
 5214      31365F74 
 5214      00
 5215              	.LASF102:
 5216 0273 4144435F 		.ascii	"ADC_TypeDef\000"
 5216      54797065 
 5216      44656600 
 5217              	.LASF37:
 5218 027f 45585449 		.ascii	"EXTI3_IRQn\000"
 5218      335F4952 
 5218      516E00
 5219              	.LASF16:
 5220 028a 42617365 		.ascii	"BaseType_t\000"
 5220      54797065 
 5220      5F7400
 5221              	.LASF46:
 5222 0295 41444331 		.ascii	"ADC1_2_IRQn\000"
 5222      5F325F49 
 5222      52516E00 
 5223              	.LASF165:
 5224 02a1 4750494F 		.ascii	"GPIO_Mode\000"
 5224      5F4D6F64 
 5224      6500
 5225              	.LASF139:
 5226 02ab 52455345 		.ascii	"RESERVED15\000"
 5226      52564544 
 5226      313500
 5227              	.LASF172:
 5228 02b6 55534152 		.ascii	"USART_HardwareFlowControl\000"
 5228      545F4861 
 5228      72647761 
 5228      7265466C 
 5228      6F77436F 
 5229              	.LASF26:
 5230 02d0 50656E64 		.ascii	"PendSV_IRQn\000"
 5230      53565F49 
 5230      52516E00 
 5231              	.LASF8:
 5232 02dc 73686F72 		.ascii	"short unsigned int\000"
 5232      7420756E 
 5232      7369676E 
 5232      65642069 
 5232      6E7400
 5233              	.LASF42:
 5234 02ef 444D4131 		.ascii	"DMA1_Channel4_IRQn\000"
 5234      5F436861 
 5234      6E6E656C 
 5234      345F4952 
 5234      516E00
 5235              	.LASF7:
 5236 0302 5F5F7569 		.ascii	"__uint16_t\000"
ARM GAS  /tmp/ccZoGyG7.s 			page 104


 5236      6E743136 
 5236      5F7400
 5237              	.LASF10:
 5238 030d 5F5F7569 		.ascii	"__uint32_t\000"
 5238      6E743332 
 5238      5F7400
 5239              	.LASF190:
 5240 0318 656E6162 		.ascii	"enable_TIM3_delay\000"
 5240      6C655F54 
 5240      494D335F 
 5240      64656C61 
 5240      7900
 5241              	.LASF169:
 5242 032a 55534152 		.ascii	"USART_StopBits\000"
 5242      545F5374 
 5242      6F704269 
 5242      747300
 5243              	.LASF197:
 5244 0339 76546173 		.ascii	"vTaskStartScheduler\000"
 5244      6B537461 
 5244      72745363 
 5244      68656475 
 5244      6C657200 
 5245              	.LASF189:
 5246 034d 41444339 		.ascii	"ADC9_GetValue\000"
 5246      5F476574 
 5246      56616C75 
 5246      6500
 5247              	.LASF103:
 5248 035b 4B455952 		.ascii	"KEYR\000"
 5248      00
 5249              	.LASF195:
 5250 0360 78517565 		.ascii	"xQueueGenericCreate\000"
 5250      75654765 
 5250      6E657269 
 5250      63437265 
 5250      61746500 
 5251              	.LASF153:
 5252 0374 4750494F 		.ascii	"GPIOSpeed_TypeDef\000"
 5252      53706565 
 5252      645F5479 
 5252      70654465 
 5252      6600
 5253              	.LASF163:
 5254 0386 4750494F 		.ascii	"GPIO_Pin\000"
 5254      5F50696E 
 5254      00
 5255              	.LASF174:
 5256 038f 4C43445F 		.ascii	"LCD_Show_queue\000"
 5256      53686F77 
 5256      5F717565 
 5256      756500
 5257              	.LASF0:
 5258 039e 756E7369 		.ascii	"unsigned int\000"
 5258      676E6564 
 5258      20696E74 
 5258      00
ARM GAS  /tmp/ccZoGyG7.s 			page 105


 5259              	.LASF156:
 5260 03ab 4750494F 		.ascii	"GPIO_Mode_IPD\000"
 5260      5F4D6F64 
 5260      655F4950 
 5260      4400
 5261              	.LASF21:
 5262 03b9 4D656D6F 		.ascii	"MemoryManagement_IRQn\000"
 5262      72794D61 
 5262      6E616765 
 5262      6D656E74 
 5262      5F495251 
 5263              	.LASF11:
 5264 03cf 6C6F6E67 		.ascii	"long unsigned int\000"
 5264      20756E73 
 5264      69676E65 
 5264      6420696E 
 5264      7400
 5265              	.LASF110:
 5266 03e1 4750494F 		.ascii	"GPIO_TypeDef\000"
 5266      5F547970 
 5266      65446566 
 5266      00
 5267              	.LASF202:
 5268 03ee 5F5F6165 		.ascii	"__aeabi_i2d\000"
 5268      6162695F 
 5268      69326400 
 5269              	.LASF120:
 5270 03fa 5243435F 		.ascii	"RCC_TypeDef\000"
 5270      54797065 
 5270      44656600 
 5271              	.LASF178:
 5272 0406 7461736B 		.ascii	"task1\000"
 5272      3100
 5273              	.LASF177:
 5274 040c 7461736B 		.ascii	"task2\000"
 5274      3200
 5275              	.LASF180:
 5276 0412 7461736B 		.ascii	"task3\000"
 5276      3300
 5277              	.LASF198:
 5278 0418 78517565 		.ascii	"xQueueGenericSend\000"
 5278      75654765 
 5278      6E657269 
 5278      6353656E 
 5278      6400
 5279              	.LASF160:
 5280 042a 4750494F 		.ascii	"GPIO_Mode_AF_OD\000"
 5280      5F4D6F64 
 5280      655F4146 
 5280      5F4F4400 
 5281              	.LASF43:
 5282 043a 444D4131 		.ascii	"DMA1_Channel5_IRQn\000"
 5282      5F436861 
 5282      6E6E656C 
 5282      355F4952 
 5282      516E00
 5283              	.LASF122:
ARM GAS  /tmp/ccZoGyG7.s 			page 106


 5284 044d 534D4352 		.ascii	"SMCR\000"
 5284      00
 5285              	.LASF175:
 5286 0452 56616C6F 		.ascii	"Valor_ADC_normalizado\000"
 5286      725F4144 
 5286      435F6E6F 
 5286      726D616C 
 5286      697A6164 
 5287              	.LASF200:
 5288 0468 78517565 		.ascii	"xQueueReceive\000"
 5288      75655265 
 5288      63656976 
 5288      6500
 5289              	.LASF158:
 5290 0476 4750494F 		.ascii	"GPIO_Mode_Out_OD\000"
 5290      5F4D6F64 
 5290      655F4F75 
 5290      745F4F44 
 5290      00
 5291              	.LASF114:
 5292 0487 41484245 		.ascii	"AHBENR\000"
 5292      4E5200
 5293              	.LASF68:
 5294 048e 45585449 		.ascii	"EXTI15_10_IRQn\000"
 5294      31355F31 
 5294      305F4952 
 5294      516E00
 5295              	.LASF215:
 5296 049d 474E5520 		.ascii	"GNU C17 10.3.1 20210824 (release) -mcpu=cortex-m3 -"
 5296      43313720 
 5296      31302E33 
 5296      2E312032 
 5296      30323130 
 5297 04d0 6D746875 		.ascii	"mthumb -mfloat-abi=soft -march=armv7-m -g -gdwarf-2"
 5297      6D62202D 
 5297      6D666C6F 
 5297      61742D61 
 5297      62693D73 
 5298 0503 202D4F73 		.ascii	" -Os -fomit-frame-pointer\000"
 5298      202D666F 
 5298      6D69742D 
 5298      6672616D 
 5298      652D706F 
 5299              	.LASF63:
 5300 051d 53504931 		.ascii	"SPI1_IRQn\000"
 5300      5F495251 
 5300      6E00
 5301              	.LASF149:
 5302 0527 55534152 		.ascii	"USART_TypeDef\000"
 5302      545F5479 
 5302      70654465 
 5302      6600
 5303              	.LASF25:
 5304 0535 44656275 		.ascii	"DebugMonitor_IRQn\000"
 5304      674D6F6E 
 5304      69746F72 
 5304      5F495251 
ARM GAS  /tmp/ccZoGyG7.s 			page 107


 5304      6E00
 5305              	.LASF5:
 5306 0547 73686F72 		.ascii	"short int\000"
 5306      7420696E 
 5306      7400
 5307              	.LASF74:
 5308 0551 49434552 		.ascii	"ICER\000"
 5308      00
 5309              	.LASF27:
 5310 0556 53797354 		.ascii	"SysTick_IRQn\000"
 5310      69636B5F 
 5310      4952516E 
 5310      00
 5311              	.LASF55:
 5312 0563 54494D31 		.ascii	"TIM1_CC_IRQn\000"
 5312      5F43435F 
 5312      4952516E 
 5312      00
 5313              	.LASF173:
 5314 0570 55534152 		.ascii	"USART_InitTypeDef\000"
 5314      545F496E 
 5314      69745479 
 5314      70654465 
 5314      6600
 5315              	.LASF85:
 5316 0582 52455345 		.ascii	"RESET\000"
 5316      5400
 5317              	.LASF187:
 5318 0588 4952516E 		.ascii	"IRQn\000"
 5318      00
 5319              	.LASF213:
 5320 058d 55534152 		.ascii	"USART_Init\000"
 5320      545F496E 
 5320      697400
 5321              	.LASF91:
 5322 0598 4A4F4652 		.ascii	"JOFR2\000"
 5322      3200
 5323              	.LASF92:
 5324 059e 4A4F4652 		.ascii	"JOFR3\000"
 5324      3300
 5325              	.LASF93:
 5326 05a4 4A4F4652 		.ascii	"JOFR4\000"
 5326      3400
 5327              	.LASF40:
 5328 05aa 444D4131 		.ascii	"DMA1_Channel2_IRQn\000"
 5328      5F436861 
 5328      6E6E656C 
 5328      325F4952 
 5328      516E00
 5329              	.LASF97:
 5330 05bd 4A535152 		.ascii	"JSQR\000"
 5330      00
 5331              	.LASF217:
 5332 05c2 2F686F6D 		.ascii	"/home/junior/Codigos/6-Stm32_GCC_FreeRTOS10.2.1/5-T"
 5332      652F6A75 
 5332      6E696F72 
 5332      2F436F64 
ARM GAS  /tmp/ccZoGyG7.s 			page 108


 5332      69676F73 
 5333 05f5 656D7052 		.ascii	"empR_LCD_Serial\000"
 5333      5F4C4344 
 5333      5F536572 
 5333      69616C00 
 5334              	.LASF212:
 5335 0605 4750494F 		.ascii	"GPIO_Init\000"
 5335      5F496E69 
 5335      7400
 5336              	.LASF24:
 5337 060f 53564361 		.ascii	"SVCall_IRQn\000"
 5337      6C6C5F49 
 5337      52516E00 
 5338              	.LASF61:
 5339 061b 49324332 		.ascii	"I2C2_EV_IRQn\000"
 5339      5F45565F 
 5339      4952516E 
 5339      00
 5340              	.LASF196:
 5341 0628 78546173 		.ascii	"xTaskCreate\000"
 5341      6B437265 
 5341      61746500 
 5342              	.LASF80:
 5343 0634 49414252 		.ascii	"IABR\000"
 5343      00
 5344              	.LASF17:
 5345 0639 5469636B 		.ascii	"TickType_t\000"
 5345      54797065 
 5345      5F7400
 5346              	.LASF191:
 5347 0644 44656C61 		.ascii	"Delay\000"
 5347      7900
 5348              	.LASF64:
 5349 064a 53504932 		.ascii	"SPI2_IRQn\000"
 5349      5F495251 
 5349      6E00
 5350              	.LASF133:
 5351 0654 52455345 		.ascii	"RESERVED12\000"
 5351      52564544 
 5351      313200
 5352              	.LASF188:
 5353 065f 656E6162 		.ascii	"enable_interrupt\000"
 5353      6C655F69 
 5353      6E746572 
 5353      72757074 
 5353      00
 5354              	.LASF193:
 5355 0670 41444339 		.ascii	"ADC9_Configuration\000"
 5355      5F436F6E 
 5355      66696775 
 5355      72617469 
 5355      6F6E00
 5356              	.LASF166:
 5357 0683 4750494F 		.ascii	"GPIO_InitTypeDef\000"
 5357      5F496E69 
 5357      74547970 
 5357      65446566 
ARM GAS  /tmp/ccZoGyG7.s 			page 109


 5357      00
 5358              	.LASF88:
 5359 0694 534D5052 		.ascii	"SMPR1\000"
 5359      3100
 5360              	.LASF89:
 5361 069a 534D5052 		.ascii	"SMPR2\000"
 5361      3200
 5362              	.LASF159:
 5363 06a0 4750494F 		.ascii	"GPIO_Mode_Out_PP\000"
 5363      5F4D6F64 
 5363      655F4F75 
 5363      745F5050 
 5363      00
 5364              	.LASF118:
 5365 06b1 41484252 		.ascii	"AHBRSTR\000"
 5365      53545200 
 5366              	.LASF152:
 5367 06b9 4750494F 		.ascii	"GPIO_Speed_50MHz\000"
 5367      5F537065 
 5367      65645F35 
 5367      304D487A 
 5367      00
 5368              	.LASF113:
 5369 06ca 41504231 		.ascii	"APB1RSTR\000"
 5369      52535452 
 5369      00
 5370              	.LASF94:
 5371 06d3 53515231 		.ascii	"SQR1\000"
 5371      00
 5372              	.LASF95:
 5373 06d8 53515232 		.ascii	"SQR2\000"
 5373      00
 5374              	.LASF96:
 5375 06dd 53515233 		.ascii	"SQR3\000"
 5375      00
 5376              	.LASF39:
 5377 06e2 444D4131 		.ascii	"DMA1_Channel1_IRQn\000"
 5377      5F436861 
 5377      6E6E656C 
 5377      315F4952 
 5377      516E00
 5378              	.LASF73:
 5379 06f5 52455345 		.ascii	"RESERVED0\000"
 5379      52564544 
 5379      3000
 5380              	.LASF121:
 5381 06ff 52455345 		.ascii	"RESERVED1\000"
 5381      52564544 
 5381      3100
 5382              	.LASF77:
 5383 0709 52455345 		.ascii	"RESERVED2\000"
 5383      52564544 
 5383      3200
 5384              	.LASF79:
 5385 0713 52455345 		.ascii	"RESERVED3\000"
 5385      52564544 
 5385      3300
ARM GAS  /tmp/ccZoGyG7.s 			page 110


 5386              	.LASF81:
 5387 071d 52455345 		.ascii	"RESERVED4\000"
 5387      52564544 
 5387      3400
 5388              	.LASF82:
 5389 0727 52455345 		.ascii	"RESERVED5\000"
 5389      52564544 
 5389      3500
 5390              	.LASF125:
 5391 0731 52455345 		.ascii	"RESERVED6\000"
 5391      52564544 
 5391      3600
 5392              	.LASF129:
 5393 073b 52455345 		.ascii	"RESERVED8\000"
 5393      52564544 
 5393      3800
 5394              	.LASF130:
 5395 0745 52455345 		.ascii	"RESERVED9\000"
 5395      52564544 
 5395      3900
 5396              	.LASF218:
 5397 074f 51756575 		.ascii	"QueueDefinition\000"
 5397      65446566 
 5397      696E6974 
 5397      696F6E00 
 5398              	.LASF192:
 5399 075f 7365745F 		.ascii	"set_system_clock_to_72Mhz\000"
 5399      73797374 
 5399      656D5F63 
 5399      6C6F636B 
 5399      5F746F5F 
 5400              	.LASF214:
 5401 0779 55534152 		.ascii	"USART_Cmd\000"
 5401      545F436D 
 5401      6400
 5402              	.LASF185:
 5403 0783 55534152 		.ascii	"USART_InitStructure\000"
 5403      545F496E 
 5403      69745374 
 5403      72756374 
 5403      75726500 
 5404              	.LASF4:
 5405 0797 756E7369 		.ascii	"unsigned char\000"
 5405      676E6564 
 5405      20636861 
 5405      7200
 5406              	.LASF47:
 5407 07a5 5553425F 		.ascii	"USB_HP_CAN1_TX_IRQn\000"
 5407      48505F43 
 5407      414E315F 
 5407      54585F49 
 5407      52516E00 
 5408              	.LASF38:
 5409 07b9 45585449 		.ascii	"EXTI4_IRQn\000"
 5409      345F4952 
 5409      516E00
 5410              	.LASF151:
ARM GAS  /tmp/ccZoGyG7.s 			page 111


 5411 07c4 4750494F 		.ascii	"GPIO_Speed_2MHz\000"
 5411      5F537065 
 5411      65645F32 
 5411      4D487A00 
 5412              	.LASF72:
 5413 07d4 49534552 		.ascii	"ISER\000"
 5413      00
 5414              	.LASF84:
 5415 07d9 4E564943 		.ascii	"NVIC_Type\000"
 5415      5F547970 
 5415      6500
 5416              	.LASF142:
 5417 07e3 42445452 		.ascii	"BDTR\000"
 5417      00
 5418              	.LASF105:
 5419 07e8 52455345 		.ascii	"RESERVED\000"
 5419      52564544 
 5419      00
 5420              	.LASF48:
 5421 07f1 5553425F 		.ascii	"USB_LP_CAN1_RX0_IRQn\000"
 5421      4C505F43 
 5421      414E315F 
 5421      5258305F 
 5421      4952516E 
 5422              	.LASF154:
 5423 0806 4750494F 		.ascii	"GPIO_Mode_AIN\000"
 5423      5F4D6F64 
 5423      655F4149 
 5423      4E00
 5424              	.LASF194:
 5425 0814 41444331 		.ascii	"ADC1_configure\000"
 5425      5F636F6E 
 5425      66696775 
 5425      726500
 5426              	.LASF115:
 5427 0823 41504232 		.ascii	"APB2ENR\000"
 5427      454E5200 
 5428              	.LASF32:
 5429 082b 464C4153 		.ascii	"FLASH_IRQn\000"
 5429      485F4952 
 5429      516E00
 5430              	.LASF186:
 5431 0836 64697361 		.ascii	"disable_interrupt\000"
 5431      626C655F 
 5431      696E7465 
 5431      72727570 
 5431      7400
 5432              	.LASF216:
 5433 0848 2E2E2F35 		.ascii	"../5-TempR_LCD_Serial/main.c\000"
 5433      2D54656D 
 5433      70525F4C 
 5433      43445F53 
 5433      65726961 
 5434              	.LASF15:
 5435 0865 75696E74 		.ascii	"uint32_t\000"
 5435      33325F74 
 5435      00
ARM GAS  /tmp/ccZoGyG7.s 			page 112


 5436              	.LASF127:
 5437 086e 52455345 		.ascii	"RESERVED7\000"
 5437      52564544 
 5437      3700
 5438              	.LASF66:
 5439 0878 55534152 		.ascii	"USART2_IRQn\000"
 5439      54325F49 
 5439      52516E00 
 5440              	.LASF23:
 5441 0884 55736167 		.ascii	"UsageFault_IRQn\000"
 5441      65466175 
 5441      6C745F49 
 5441      52516E00 
 5442              	.LASF208:
 5443 0894 64697370 		.ascii	"disp_clear\000"
 5443      5F636C65 
 5443      617200
 5444              	.LASF59:
 5445 089f 49324331 		.ascii	"I2C1_EV_IRQn\000"
 5445      5F45565F 
 5445      4952516E 
 5445      00
 5446              	.LASF203:
 5447 08ac 5F5F6165 		.ascii	"__aeabi_dmul\000"
 5447      6162695F 
 5447      646D756C 
 5447      00
 5448              	.LASF2:
 5449 08b9 6C6F6E67 		.ascii	"long double\000"
 5449      20646F75 
 5449      626C6500 
 5450              	.LASF106:
 5451 08c5 57525052 		.ascii	"WRPR\000"
 5451      00
 5452              	.LASF54:
 5453 08ca 54494D31 		.ascii	"TIM1_TRG_COM_IRQn\000"
 5453      5F545247 
 5453      5F434F4D 
 5453      5F495251 
 5453      6E00
 5454              	.LASF18:
 5455 08dc 63686172 		.ascii	"char\000"
 5455      00
 5456              	.LASF22:
 5457 08e1 42757346 		.ascii	"BusFault_IRQn\000"
 5457      61756C74 
 5457      5F495251 
 5457      6E00
 5458              	.LASF52:
 5459 08ef 54494D31 		.ascii	"TIM1_BRK_IRQn\000"
 5459      5F42524B 
 5459      5F495251 
 5459      6E00
 5460              	.LASF145:
 5461 08fd 444D4152 		.ascii	"DMAR\000"
 5461      00
 5462              	.LASF69:
ARM GAS  /tmp/ccZoGyG7.s 			page 113


 5463 0902 52544341 		.ascii	"RTCAlarm_IRQn\000"
 5463      6C61726D 
 5463      5F495251 
 5463      6E00
 5464              	.LASF71:
 5465 0910 4952516E 		.ascii	"IRQn_Type\000"
 5465      5F547970 
 5465      6500
 5466              	.LASF168:
 5467 091a 55534152 		.ascii	"USART_WordLength\000"
 5467      545F576F 
 5467      72644C65 
 5467      6E677468 
 5467      00
 5468              	.LASF209:
 5469 092b 55534152 		.ascii	"USART_SendData\000"
 5469      545F5365 
 5469      6E644461 
 5469      746100
 5470              	.LASF205:
 5471 093a 64697370 		.ascii	"disp_number\000"
 5471      5F6E756D 
 5471      62657200 
 5472              	.LASF20:
 5473 0946 4E6F6E4D 		.ascii	"NonMaskableInt_IRQn\000"
 5473      61736B61 
 5473      626C6549 
 5473      6E745F49 
 5473      52516E00 
 5474              	.LASF44:
 5475 095a 444D4131 		.ascii	"DMA1_Channel6_IRQn\000"
 5475      5F436861 
 5475      6E6E656C 
 5475      365F4952 
 5475      516E00
 5476              	.LASF116:
 5477 096d 41504231 		.ascii	"APB1ENR\000"
 5477      454E5200 
 5478              	.LASF30:
 5479 0975 54414D50 		.ascii	"TAMPER_IRQn\000"
 5479      45525F49 
 5479      52516E00 
 5480              	.LASF53:
 5481 0981 54494D31 		.ascii	"TIM1_UP_IRQn\000"
 5481      5F55505F 
 5481      4952516E 
 5481      00
 5482              	.LASF70:
 5483 098e 55534257 		.ascii	"USBWakeUp_IRQn\000"
 5483      616B6555 
 5483      705F4952 
 5483      516E00
 5484              	.LASF206:
 5485 099d 64697370 		.ascii	"disp_init\000"
 5485      5F696E69 
 5485      7400
 5486              	.LASF67:
ARM GAS  /tmp/ccZoGyG7.s 			page 114


 5487 09a7 55534152 		.ascii	"USART3_IRQn\000"
 5487      54335F49 
 5487      52516E00 
 5488              	.LASF134:
 5489 09b3 43435231 		.ascii	"CCR1\000"
 5489      00
 5490              	.LASF56:
 5491 09b8 54494D32 		.ascii	"TIM2_IRQn\000"
 5491      5F495251 
 5491      6E00
 5492              	.LASF138:
 5493 09c2 43435233 		.ascii	"CCR3\000"
 5493      00
 5494              	.LASF140:
 5495 09c7 43435234 		.ascii	"CCR4\000"
 5495      00
 5496              	.LASF108:
 5497 09cc 42535252 		.ascii	"BSRR\000"
 5497      00
 5498              	.LASF65:
 5499 09d1 55534152 		.ascii	"USART1_IRQn\000"
 5499      54315F49 
 5499      52516E00 
 5500              	.LASF144:
 5501 09dd 52455345 		.ascii	"RESERVED18\000"
 5501      52564544 
 5501      313800
 5502              	.LASF117:
 5503 09e8 42444352 		.ascii	"BDCR\000"
 5503      00
 5504              	.LASF90:
 5505 09ed 4A4F4652 		.ascii	"JOFR1\000"
 5505      3100
 5506              	.LASF119:
 5507 09f3 43464752 		.ascii	"CFGR2\000"
 5507      3200
 5508              	.LASF13:
 5509 09f9 75696E74 		.ascii	"uint8_t\000"
 5509      385F7400 
 5510              	.LASF220:
 5511 0a01 4C434431 		.ascii	"LCD16x2_init\000"
 5511      3678325F 
 5511      696E6974 
 5511      00
 5512              	.LASF75:
 5513 0a0e 52534552 		.ascii	"RSERVED1\000"
 5513      56454431 
 5513      00
 5514              	.LASF83:
 5515 0a17 53544952 		.ascii	"STIR\000"
 5515      00
 5516              	.LASF98:
 5517 0a1c 4A445231 		.ascii	"JDR1\000"
 5517      00
 5518              	.LASF99:
 5519 0a21 4A445232 		.ascii	"JDR2\000"
 5519      00
ARM GAS  /tmp/ccZoGyG7.s 			page 115


 5520              	.LASF100:
 5521 0a26 4A445233 		.ascii	"JDR3\000"
 5521      00
 5522              	.LASF101:
 5523 0a2b 4A445234 		.ascii	"JDR4\000"
 5523      00
 5524              	.LASF45:
 5525 0a30 444D4131 		.ascii	"DMA1_Channel7_IRQn\000"
 5525      5F436861 
 5525      6E6E656C 
 5525      375F4952 
 5525      516E00
 5526              	.LASF111:
 5527 0a43 43464752 		.ascii	"CFGR\000"
 5527      00
 5528              	.LASF162:
 5529 0a48 4750494F 		.ascii	"GPIOMode_TypeDef\000"
 5529      4D6F6465 
 5529      5F547970 
 5529      65446566 
 5529      00
 5530              	.LASF60:
 5531 0a59 49324331 		.ascii	"I2C1_ER_IRQn\000"
 5531      5F45525F 
 5531      4952516E 
 5531      00
 5532              	.LASF107:
 5533 0a66 464C4153 		.ascii	"FLASH_TypeDef\000"
 5533      485F5479 
 5533      70654465 
 5533      6600
 5534              	.LASF176:
 5535 0a74 61726773 		.ascii	"args\000"
 5535      00
 5536              	.LASF219:
 5537 0a79 6D61696E 		.ascii	"main\000"
 5537      00
 5538              	.LASF50:
 5539 0a7e 43414E31 		.ascii	"CAN1_SCE_IRQn\000"
 5539      5F534345 
 5539      5F495251 
 5539      6E00
 5540              	.LASF33:
 5541 0a8c 5243435F 		.ascii	"RCC_IRQn\000"
 5541      4952516E 
 5541      00
 5542              	.LASF41:
 5543 0a95 444D4131 		.ascii	"DMA1_Channel3_IRQn\000"
 5543      5F436861 
 5543      6E6E656C 
 5543      335F4952 
 5543      516E00
 5544              	.LASF57:
 5545 0aa8 54494D33 		.ascii	"TIM3_IRQn\000"
 5545      5F495251 
 5545      6E00
 5546              	.LASF35:
ARM GAS  /tmp/ccZoGyG7.s 			page 116


 5547 0ab2 45585449 		.ascii	"EXTI1_IRQn\000"
 5547      315F4952 
 5547      516E00
 5548              		.ident	"GCC: (GNU Arm Embedded Toolchain 10.3-2021.10) 10.3.1 20210824 (release)"
ARM GAS  /tmp/ccZoGyG7.s 			page 117


DEFINED SYMBOLS
                            *ABS*:0000000000000000 main.c
     /tmp/ccZoGyG7.s:78     .text:0000000000000000 $t
     /tmp/ccZoGyG7.s:83     .text:0000000000000000 task2
     /tmp/ccZoGyG7.s:141    .text:0000000000000028 $d
     /tmp/ccZoGyG7.s:146    .text:0000000000000030 $t
     /tmp/ccZoGyG7.s:152    .text:0000000000000030 ADC1_configure
     /tmp/ccZoGyG7.s:280    .text:00000000000000b0 $d
     /tmp/ccZoGyG7.s:286    .text:00000000000000bc $t
     /tmp/ccZoGyG7.s:292    .text:00000000000000bc set_system_clock_to_72Mhz
     /tmp/ccZoGyG7.s:400    .text:000000000000012c $d
     /tmp/ccZoGyG7.s:404    .text:0000000000000130 $t
     /tmp/ccZoGyG7.s:410    .text:0000000000000130 Delay
     /tmp/ccZoGyG7.s:481    .text:000000000000015c $d
     /tmp/ccZoGyG7.s:485    .text:0000000000000160 $t
     /tmp/ccZoGyG7.s:491    .text:0000000000000160 enable_TIM3_delay
     /tmp/ccZoGyG7.s:529    .text:0000000000000184 $d
     /tmp/ccZoGyG7.s:533    .text:0000000000000188 $t
     /tmp/ccZoGyG7.s:539    .text:0000000000000188 enable_interrupt
     /tmp/ccZoGyG7.s:571    .text:000000000000019c $d
     /tmp/ccZoGyG7.s:575    .text:00000000000001a0 $t
     /tmp/ccZoGyG7.s:581    .text:00000000000001a0 disable_interrupt
     /tmp/ccZoGyG7.s:614    .text:00000000000001b8 $d
     /tmp/ccZoGyG7.s:618    .text:00000000000001bc $t
     /tmp/ccZoGyG7.s:624    .text:00000000000001bc USART_init
     /tmp/ccZoGyG7.s:737    .text:0000000000000228 $d
     /tmp/ccZoGyG7.s:741    .text:000000000000022c $t
     /tmp/ccZoGyG7.s:747    .text:000000000000022c USARTSend
     /tmp/ccZoGyG7.s:806    .text:0000000000000250 $d
     /tmp/ccZoGyG7.s:810    .text:0000000000000254 $t
     /tmp/ccZoGyG7.s:816    .text:0000000000000254 ADC9_Configuration
     /tmp/ccZoGyG7.s:905    .text:00000000000002b4 $d
     /tmp/ccZoGyG7.s:912    .text:00000000000002c4 $t
     /tmp/ccZoGyG7.s:918    .text:00000000000002c4 task3
     /tmp/ccZoGyG7.s:972    .text:00000000000002e8 $d
     /tmp/ccZoGyG7.s:977    .text:00000000000002f0 $t
     /tmp/ccZoGyG7.s:983    .text:00000000000002f0 ADC9_GetValue
     /tmp/ccZoGyG7.s:1019   .text:0000000000000308 $d
     /tmp/ccZoGyG7.s:1033   .text:000000000000030c $t
     /tmp/ccZoGyG7.s:1039   .text:000000000000030c LCD16x2_init
     /tmp/ccZoGyG7.s:1197   .text:00000000000003b4 $d
     /tmp/ccZoGyG7.s:1214   .text:00000000000003d0 $t
     /tmp/ccZoGyG7.s:1219   .text:00000000000003d0 task1
     /tmp/ccZoGyG7.s:1287   .text:0000000000000418 $d
     /tmp/ccZoGyG7.s:1302   .text.startup:0000000000000000 $t
     /tmp/ccZoGyG7.s:1308   .text.startup:0000000000000000 main
     /tmp/ccZoGyG7.s:1375   .text.startup:0000000000000050 $d
     /tmp/ccZoGyG7.s:1386   .bss:0000000000000000 $d
     /tmp/ccZoGyG7.s:1390   .bss:0000000000000000 LCD_Show_queue

UNDEFINED SYMBOLS
vTaskDelay
RCC_APB2PeriphClockCmd
GPIO_Init
USART_Init
USART_Cmd
USART_SendData
ARM GAS  /tmp/ccZoGyG7.s 			page 118


USART_GetFlagStatus
xQueueGenericSend
disp_init
disp_cmd
disp_text
disp_clear
__aeabi_i2d
__aeabi_dmul
__aeabi_d2uiz
xQueueReceive
disp_number
xQueueGenericCreate
xTaskCreate
vTaskStartScheduler
