ARM GAS  /tmp/cczVt2F9.s 			page 1


   1              		.cpu cortex-m3
   2              		.arch armv7-m
   3              		.fpu softvfp
   4              		.eabi_attribute 20, 1	@ Tag_ABI_FP_denormal
   5              		.eabi_attribute 21, 1	@ Tag_ABI_FP_exceptions
   6              		.eabi_attribute 23, 3	@ Tag_ABI_FP_number_model
   7              		.eabi_attribute 24, 1	@ Tag_ABI_align8_needed
   8              		.eabi_attribute 25, 1	@ Tag_ABI_align8_preserved
   9              		.eabi_attribute 26, 1	@ Tag_ABI_enum_size
  10              		.eabi_attribute 30, 4	@ Tag_ABI_optimization_goals
  11              		.eabi_attribute 34, 1	@ Tag_CPU_unaligned_access
  12              		.eabi_attribute 18, 4	@ Tag_ABI_PCS_wchar_t
  13              		.file	"core_cm3.c"
  14              	@ GNU C17 (Arch Repository) version 13.2.0 (arm-none-eabi)
  15              	@	compiled by GNU C version 13.2.1 20230730, GMP version 6.2.1, MPFR version 4.2.0-p12, MPC version
  16              	
  17              	@ warning: GMP header version 6.2.1 differs from library version 6.3.0.
  18              	@ GGC heuristics: --param ggc-min-expand=100 --param ggc-min-heapsize=131072
  19              	@ options passed: -mcpu=cortex-m3 -mthumb -mfloat-abi=soft -march=armv7-m -g -gdwarf-2 -Os -fomit-f
  20              		.text
  21              	.Ltext0:
  22              		.cfi_sections	.debug_frame
  23              		.file 1 "../stm32f10x_lib/CMSIS/CM3/CoreSupport/core_cm3.c"
  24              		.align	1
  25              		.global	__get_PSP
  26              		.syntax unified
  27              		.thumb
  28              		.thumb_func
  29              		.type	__get_PSP, %function
  30              	__get_PSP:
  31              	.LFB0:
   1:../stm32f10x_lib/CMSIS/CM3/CoreSupport/core_cm3.c **** /**************************************************************************//**
   2:../stm32f10x_lib/CMSIS/CM3/CoreSupport/core_cm3.c ****  * @file     core_cm3.c
   3:../stm32f10x_lib/CMSIS/CM3/CoreSupport/core_cm3.c ****  * @brief    CMSIS Cortex-M3 Core Peripheral Access Layer Source File
   4:../stm32f10x_lib/CMSIS/CM3/CoreSupport/core_cm3.c ****  * @version  V1.30
   5:../stm32f10x_lib/CMSIS/CM3/CoreSupport/core_cm3.c ****  * @date     30. October 2009
   6:../stm32f10x_lib/CMSIS/CM3/CoreSupport/core_cm3.c ****  *
   7:../stm32f10x_lib/CMSIS/CM3/CoreSupport/core_cm3.c ****  * @note
   8:../stm32f10x_lib/CMSIS/CM3/CoreSupport/core_cm3.c ****  * Copyright (C) 2009 ARM Limited. All rights reserved.
   9:../stm32f10x_lib/CMSIS/CM3/CoreSupport/core_cm3.c ****  *
  10:../stm32f10x_lib/CMSIS/CM3/CoreSupport/core_cm3.c ****  * @par
  11:../stm32f10x_lib/CMSIS/CM3/CoreSupport/core_cm3.c ****  * ARM Limited (ARM) is supplying this software for use with Cortex-M 
  12:../stm32f10x_lib/CMSIS/CM3/CoreSupport/core_cm3.c ****  * processor based microcontrollers.  This file can be freely distributed 
  13:../stm32f10x_lib/CMSIS/CM3/CoreSupport/core_cm3.c ****  * within development tools that are supporting such ARM based processors. 
  14:../stm32f10x_lib/CMSIS/CM3/CoreSupport/core_cm3.c ****  *
  15:../stm32f10x_lib/CMSIS/CM3/CoreSupport/core_cm3.c ****  * @par
  16:../stm32f10x_lib/CMSIS/CM3/CoreSupport/core_cm3.c ****  * THIS SOFTWARE IS PROVIDED "AS IS".  NO WARRANTIES, WHETHER EXPRESS, IMPLIED
  17:../stm32f10x_lib/CMSIS/CM3/CoreSupport/core_cm3.c ****  * OR STATUTORY, INCLUDING, BUT NOT LIMITED TO, IMPLIED WARRANTIES OF
  18:../stm32f10x_lib/CMSIS/CM3/CoreSupport/core_cm3.c ****  * MERCHANTABILITY AND FITNESS FOR A PARTICULAR PURPOSE APPLY TO THIS SOFTWARE.
  19:../stm32f10x_lib/CMSIS/CM3/CoreSupport/core_cm3.c ****  * ARM SHALL NOT, IN ANY CIRCUMSTANCES, BE LIABLE FOR SPECIAL, INCIDENTAL, OR
  20:../stm32f10x_lib/CMSIS/CM3/CoreSupport/core_cm3.c ****  * CONSEQUENTIAL DAMAGES, FOR ANY REASON WHATSOEVER.
  21:../stm32f10x_lib/CMSIS/CM3/CoreSupport/core_cm3.c ****  *
  22:../stm32f10x_lib/CMSIS/CM3/CoreSupport/core_cm3.c ****  ******************************************************************************/
  23:../stm32f10x_lib/CMSIS/CM3/CoreSupport/core_cm3.c **** 
  24:../stm32f10x_lib/CMSIS/CM3/CoreSupport/core_cm3.c **** #include <stdint.h>
  25:../stm32f10x_lib/CMSIS/CM3/CoreSupport/core_cm3.c **** 
  26:../stm32f10x_lib/CMSIS/CM3/CoreSupport/core_cm3.c **** /* define compiler specific symbols */
ARM GAS  /tmp/cczVt2F9.s 			page 2


  27:../stm32f10x_lib/CMSIS/CM3/CoreSupport/core_cm3.c **** #if defined ( __CC_ARM   )
  28:../stm32f10x_lib/CMSIS/CM3/CoreSupport/core_cm3.c ****   #define __ASM            __asm                                      /*!< asm keyword for ARM Comp
  29:../stm32f10x_lib/CMSIS/CM3/CoreSupport/core_cm3.c ****   #define __INLINE         __inline                                   /*!< inline keyword for ARM C
  30:../stm32f10x_lib/CMSIS/CM3/CoreSupport/core_cm3.c **** 
  31:../stm32f10x_lib/CMSIS/CM3/CoreSupport/core_cm3.c **** #elif defined ( __ICCARM__ )
  32:../stm32f10x_lib/CMSIS/CM3/CoreSupport/core_cm3.c ****   #define __ASM           __asm                                       /*!< asm keyword for IAR Comp
  33:../stm32f10x_lib/CMSIS/CM3/CoreSupport/core_cm3.c ****   #define __INLINE        inline                                      /*!< inline keyword for IAR C
  34:../stm32f10x_lib/CMSIS/CM3/CoreSupport/core_cm3.c **** 
  35:../stm32f10x_lib/CMSIS/CM3/CoreSupport/core_cm3.c **** #elif defined   (  __GNUC__  )
  36:../stm32f10x_lib/CMSIS/CM3/CoreSupport/core_cm3.c ****   #define __ASM            __asm                                      /*!< asm keyword for GNU Comp
  37:../stm32f10x_lib/CMSIS/CM3/CoreSupport/core_cm3.c ****   #define __INLINE         inline                                     /*!< inline keyword for GNU C
  38:../stm32f10x_lib/CMSIS/CM3/CoreSupport/core_cm3.c **** 
  39:../stm32f10x_lib/CMSIS/CM3/CoreSupport/core_cm3.c **** #elif defined   (  __TASKING__  )
  40:../stm32f10x_lib/CMSIS/CM3/CoreSupport/core_cm3.c ****   #define __ASM            __asm                                      /*!< asm keyword for TASKING 
  41:../stm32f10x_lib/CMSIS/CM3/CoreSupport/core_cm3.c ****   #define __INLINE         inline                                     /*!< inline keyword for TASKI
  42:../stm32f10x_lib/CMSIS/CM3/CoreSupport/core_cm3.c **** 
  43:../stm32f10x_lib/CMSIS/CM3/CoreSupport/core_cm3.c **** #endif
  44:../stm32f10x_lib/CMSIS/CM3/CoreSupport/core_cm3.c **** 
  45:../stm32f10x_lib/CMSIS/CM3/CoreSupport/core_cm3.c **** 
  46:../stm32f10x_lib/CMSIS/CM3/CoreSupport/core_cm3.c **** /* ###################  Compiler specific Intrinsics  ########################### */
  47:../stm32f10x_lib/CMSIS/CM3/CoreSupport/core_cm3.c **** 
  48:../stm32f10x_lib/CMSIS/CM3/CoreSupport/core_cm3.c **** #if defined ( __CC_ARM   ) /*------------------RealView Compiler -----------------*/
  49:../stm32f10x_lib/CMSIS/CM3/CoreSupport/core_cm3.c **** /* ARM armcc specific functions */
  50:../stm32f10x_lib/CMSIS/CM3/CoreSupport/core_cm3.c **** 
  51:../stm32f10x_lib/CMSIS/CM3/CoreSupport/core_cm3.c **** /**
  52:../stm32f10x_lib/CMSIS/CM3/CoreSupport/core_cm3.c ****  * @brief  Return the Process Stack Pointer
  53:../stm32f10x_lib/CMSIS/CM3/CoreSupport/core_cm3.c ****  *
  54:../stm32f10x_lib/CMSIS/CM3/CoreSupport/core_cm3.c ****  * @return ProcessStackPointer
  55:../stm32f10x_lib/CMSIS/CM3/CoreSupport/core_cm3.c ****  *
  56:../stm32f10x_lib/CMSIS/CM3/CoreSupport/core_cm3.c ****  * Return the actual process stack pointer
  57:../stm32f10x_lib/CMSIS/CM3/CoreSupport/core_cm3.c ****  */
  58:../stm32f10x_lib/CMSIS/CM3/CoreSupport/core_cm3.c **** __ASM uint32_t __get_PSP(void)
  59:../stm32f10x_lib/CMSIS/CM3/CoreSupport/core_cm3.c **** {
  60:../stm32f10x_lib/CMSIS/CM3/CoreSupport/core_cm3.c ****   mrs r0, psp
  61:../stm32f10x_lib/CMSIS/CM3/CoreSupport/core_cm3.c ****   bx lr
  62:../stm32f10x_lib/CMSIS/CM3/CoreSupport/core_cm3.c **** }
  63:../stm32f10x_lib/CMSIS/CM3/CoreSupport/core_cm3.c **** 
  64:../stm32f10x_lib/CMSIS/CM3/CoreSupport/core_cm3.c **** /**
  65:../stm32f10x_lib/CMSIS/CM3/CoreSupport/core_cm3.c ****  * @brief  Set the Process Stack Pointer
  66:../stm32f10x_lib/CMSIS/CM3/CoreSupport/core_cm3.c ****  *
  67:../stm32f10x_lib/CMSIS/CM3/CoreSupport/core_cm3.c ****  * @param  topOfProcStack  Process Stack Pointer
  68:../stm32f10x_lib/CMSIS/CM3/CoreSupport/core_cm3.c ****  *
  69:../stm32f10x_lib/CMSIS/CM3/CoreSupport/core_cm3.c ****  * Assign the value ProcessStackPointer to the MSP 
  70:../stm32f10x_lib/CMSIS/CM3/CoreSupport/core_cm3.c ****  * (process stack pointer) Cortex processor register
  71:../stm32f10x_lib/CMSIS/CM3/CoreSupport/core_cm3.c ****  */
  72:../stm32f10x_lib/CMSIS/CM3/CoreSupport/core_cm3.c **** __ASM void __set_PSP(uint32_t topOfProcStack)
  73:../stm32f10x_lib/CMSIS/CM3/CoreSupport/core_cm3.c **** {
  74:../stm32f10x_lib/CMSIS/CM3/CoreSupport/core_cm3.c ****   msr psp, r0
  75:../stm32f10x_lib/CMSIS/CM3/CoreSupport/core_cm3.c ****   bx lr
  76:../stm32f10x_lib/CMSIS/CM3/CoreSupport/core_cm3.c **** }
  77:../stm32f10x_lib/CMSIS/CM3/CoreSupport/core_cm3.c **** 
  78:../stm32f10x_lib/CMSIS/CM3/CoreSupport/core_cm3.c **** /**
  79:../stm32f10x_lib/CMSIS/CM3/CoreSupport/core_cm3.c ****  * @brief  Return the Main Stack Pointer
  80:../stm32f10x_lib/CMSIS/CM3/CoreSupport/core_cm3.c ****  *
  81:../stm32f10x_lib/CMSIS/CM3/CoreSupport/core_cm3.c ****  * @return Main Stack Pointer
  82:../stm32f10x_lib/CMSIS/CM3/CoreSupport/core_cm3.c ****  *
  83:../stm32f10x_lib/CMSIS/CM3/CoreSupport/core_cm3.c ****  * Return the current value of the MSP (main stack pointer)
ARM GAS  /tmp/cczVt2F9.s 			page 3


  84:../stm32f10x_lib/CMSIS/CM3/CoreSupport/core_cm3.c ****  * Cortex processor register
  85:../stm32f10x_lib/CMSIS/CM3/CoreSupport/core_cm3.c ****  */
  86:../stm32f10x_lib/CMSIS/CM3/CoreSupport/core_cm3.c **** __ASM uint32_t __get_MSP(void)
  87:../stm32f10x_lib/CMSIS/CM3/CoreSupport/core_cm3.c **** {
  88:../stm32f10x_lib/CMSIS/CM3/CoreSupport/core_cm3.c ****   mrs r0, msp
  89:../stm32f10x_lib/CMSIS/CM3/CoreSupport/core_cm3.c ****   bx lr
  90:../stm32f10x_lib/CMSIS/CM3/CoreSupport/core_cm3.c **** }
  91:../stm32f10x_lib/CMSIS/CM3/CoreSupport/core_cm3.c **** 
  92:../stm32f10x_lib/CMSIS/CM3/CoreSupport/core_cm3.c **** /**
  93:../stm32f10x_lib/CMSIS/CM3/CoreSupport/core_cm3.c ****  * @brief  Set the Main Stack Pointer
  94:../stm32f10x_lib/CMSIS/CM3/CoreSupport/core_cm3.c ****  *
  95:../stm32f10x_lib/CMSIS/CM3/CoreSupport/core_cm3.c ****  * @param  topOfMainStack  Main Stack Pointer
  96:../stm32f10x_lib/CMSIS/CM3/CoreSupport/core_cm3.c ****  *
  97:../stm32f10x_lib/CMSIS/CM3/CoreSupport/core_cm3.c ****  * Assign the value mainStackPointer to the MSP 
  98:../stm32f10x_lib/CMSIS/CM3/CoreSupport/core_cm3.c ****  * (main stack pointer) Cortex processor register
  99:../stm32f10x_lib/CMSIS/CM3/CoreSupport/core_cm3.c ****  */
 100:../stm32f10x_lib/CMSIS/CM3/CoreSupport/core_cm3.c **** __ASM void __set_MSP(uint32_t mainStackPointer)
 101:../stm32f10x_lib/CMSIS/CM3/CoreSupport/core_cm3.c **** {
 102:../stm32f10x_lib/CMSIS/CM3/CoreSupport/core_cm3.c ****   msr msp, r0
 103:../stm32f10x_lib/CMSIS/CM3/CoreSupport/core_cm3.c ****   bx lr
 104:../stm32f10x_lib/CMSIS/CM3/CoreSupport/core_cm3.c **** }
 105:../stm32f10x_lib/CMSIS/CM3/CoreSupport/core_cm3.c **** 
 106:../stm32f10x_lib/CMSIS/CM3/CoreSupport/core_cm3.c **** /**
 107:../stm32f10x_lib/CMSIS/CM3/CoreSupport/core_cm3.c ****  * @brief  Reverse byte order in unsigned short value
 108:../stm32f10x_lib/CMSIS/CM3/CoreSupport/core_cm3.c ****  *
 109:../stm32f10x_lib/CMSIS/CM3/CoreSupport/core_cm3.c ****  * @param   value  value to reverse
 110:../stm32f10x_lib/CMSIS/CM3/CoreSupport/core_cm3.c ****  * @return         reversed value
 111:../stm32f10x_lib/CMSIS/CM3/CoreSupport/core_cm3.c ****  *
 112:../stm32f10x_lib/CMSIS/CM3/CoreSupport/core_cm3.c ****  * Reverse byte order in unsigned short value
 113:../stm32f10x_lib/CMSIS/CM3/CoreSupport/core_cm3.c ****  */
 114:../stm32f10x_lib/CMSIS/CM3/CoreSupport/core_cm3.c **** __ASM uint32_t __REV16(uint16_t value)
 115:../stm32f10x_lib/CMSIS/CM3/CoreSupport/core_cm3.c **** {
 116:../stm32f10x_lib/CMSIS/CM3/CoreSupport/core_cm3.c ****   rev16 r0, r0
 117:../stm32f10x_lib/CMSIS/CM3/CoreSupport/core_cm3.c ****   bx lr
 118:../stm32f10x_lib/CMSIS/CM3/CoreSupport/core_cm3.c **** }
 119:../stm32f10x_lib/CMSIS/CM3/CoreSupport/core_cm3.c **** 
 120:../stm32f10x_lib/CMSIS/CM3/CoreSupport/core_cm3.c **** /**
 121:../stm32f10x_lib/CMSIS/CM3/CoreSupport/core_cm3.c ****  * @brief  Reverse byte order in signed short value with sign extension to integer
 122:../stm32f10x_lib/CMSIS/CM3/CoreSupport/core_cm3.c ****  *
 123:../stm32f10x_lib/CMSIS/CM3/CoreSupport/core_cm3.c ****  * @param   value  value to reverse
 124:../stm32f10x_lib/CMSIS/CM3/CoreSupport/core_cm3.c ****  * @return         reversed value
 125:../stm32f10x_lib/CMSIS/CM3/CoreSupport/core_cm3.c ****  *
 126:../stm32f10x_lib/CMSIS/CM3/CoreSupport/core_cm3.c ****  * Reverse byte order in signed short value with sign extension to integer
 127:../stm32f10x_lib/CMSIS/CM3/CoreSupport/core_cm3.c ****  */
 128:../stm32f10x_lib/CMSIS/CM3/CoreSupport/core_cm3.c **** __ASM int32_t __REVSH(int16_t value)
 129:../stm32f10x_lib/CMSIS/CM3/CoreSupport/core_cm3.c **** {
 130:../stm32f10x_lib/CMSIS/CM3/CoreSupport/core_cm3.c ****   revsh r0, r0
 131:../stm32f10x_lib/CMSIS/CM3/CoreSupport/core_cm3.c ****   bx lr
 132:../stm32f10x_lib/CMSIS/CM3/CoreSupport/core_cm3.c **** }
 133:../stm32f10x_lib/CMSIS/CM3/CoreSupport/core_cm3.c **** 
 134:../stm32f10x_lib/CMSIS/CM3/CoreSupport/core_cm3.c **** 
 135:../stm32f10x_lib/CMSIS/CM3/CoreSupport/core_cm3.c **** #if (__ARMCC_VERSION < 400000)
 136:../stm32f10x_lib/CMSIS/CM3/CoreSupport/core_cm3.c **** 
 137:../stm32f10x_lib/CMSIS/CM3/CoreSupport/core_cm3.c **** /**
 138:../stm32f10x_lib/CMSIS/CM3/CoreSupport/core_cm3.c ****  * @brief  Remove the exclusive lock created by ldrex
 139:../stm32f10x_lib/CMSIS/CM3/CoreSupport/core_cm3.c ****  *
 140:../stm32f10x_lib/CMSIS/CM3/CoreSupport/core_cm3.c ****  * Removes the exclusive lock which is created by ldrex.
ARM GAS  /tmp/cczVt2F9.s 			page 4


 141:../stm32f10x_lib/CMSIS/CM3/CoreSupport/core_cm3.c ****  */
 142:../stm32f10x_lib/CMSIS/CM3/CoreSupport/core_cm3.c **** __ASM void __CLREX(void)
 143:../stm32f10x_lib/CMSIS/CM3/CoreSupport/core_cm3.c **** {
 144:../stm32f10x_lib/CMSIS/CM3/CoreSupport/core_cm3.c ****   clrex
 145:../stm32f10x_lib/CMSIS/CM3/CoreSupport/core_cm3.c **** }
 146:../stm32f10x_lib/CMSIS/CM3/CoreSupport/core_cm3.c **** 
 147:../stm32f10x_lib/CMSIS/CM3/CoreSupport/core_cm3.c **** /**
 148:../stm32f10x_lib/CMSIS/CM3/CoreSupport/core_cm3.c ****  * @brief  Return the Base Priority value
 149:../stm32f10x_lib/CMSIS/CM3/CoreSupport/core_cm3.c ****  *
 150:../stm32f10x_lib/CMSIS/CM3/CoreSupport/core_cm3.c ****  * @return BasePriority
 151:../stm32f10x_lib/CMSIS/CM3/CoreSupport/core_cm3.c ****  *
 152:../stm32f10x_lib/CMSIS/CM3/CoreSupport/core_cm3.c ****  * Return the content of the base priority register
 153:../stm32f10x_lib/CMSIS/CM3/CoreSupport/core_cm3.c ****  */
 154:../stm32f10x_lib/CMSIS/CM3/CoreSupport/core_cm3.c **** __ASM uint32_t  __get_BASEPRI(void)
 155:../stm32f10x_lib/CMSIS/CM3/CoreSupport/core_cm3.c **** {
 156:../stm32f10x_lib/CMSIS/CM3/CoreSupport/core_cm3.c ****   mrs r0, basepri
 157:../stm32f10x_lib/CMSIS/CM3/CoreSupport/core_cm3.c ****   bx lr
 158:../stm32f10x_lib/CMSIS/CM3/CoreSupport/core_cm3.c **** }
 159:../stm32f10x_lib/CMSIS/CM3/CoreSupport/core_cm3.c **** 
 160:../stm32f10x_lib/CMSIS/CM3/CoreSupport/core_cm3.c **** /**
 161:../stm32f10x_lib/CMSIS/CM3/CoreSupport/core_cm3.c ****  * @brief  Set the Base Priority value
 162:../stm32f10x_lib/CMSIS/CM3/CoreSupport/core_cm3.c ****  *
 163:../stm32f10x_lib/CMSIS/CM3/CoreSupport/core_cm3.c ****  * @param  basePri  BasePriority
 164:../stm32f10x_lib/CMSIS/CM3/CoreSupport/core_cm3.c ****  *
 165:../stm32f10x_lib/CMSIS/CM3/CoreSupport/core_cm3.c ****  * Set the base priority register
 166:../stm32f10x_lib/CMSIS/CM3/CoreSupport/core_cm3.c ****  */
 167:../stm32f10x_lib/CMSIS/CM3/CoreSupport/core_cm3.c **** __ASM void __set_BASEPRI(uint32_t basePri)
 168:../stm32f10x_lib/CMSIS/CM3/CoreSupport/core_cm3.c **** {
 169:../stm32f10x_lib/CMSIS/CM3/CoreSupport/core_cm3.c ****   msr basepri, r0
 170:../stm32f10x_lib/CMSIS/CM3/CoreSupport/core_cm3.c ****   bx lr
 171:../stm32f10x_lib/CMSIS/CM3/CoreSupport/core_cm3.c **** }
 172:../stm32f10x_lib/CMSIS/CM3/CoreSupport/core_cm3.c **** 
 173:../stm32f10x_lib/CMSIS/CM3/CoreSupport/core_cm3.c **** /**
 174:../stm32f10x_lib/CMSIS/CM3/CoreSupport/core_cm3.c ****  * @brief  Return the Priority Mask value
 175:../stm32f10x_lib/CMSIS/CM3/CoreSupport/core_cm3.c ****  *
 176:../stm32f10x_lib/CMSIS/CM3/CoreSupport/core_cm3.c ****  * @return PriMask
 177:../stm32f10x_lib/CMSIS/CM3/CoreSupport/core_cm3.c ****  *
 178:../stm32f10x_lib/CMSIS/CM3/CoreSupport/core_cm3.c ****  * Return state of the priority mask bit from the priority mask register
 179:../stm32f10x_lib/CMSIS/CM3/CoreSupport/core_cm3.c ****  */
 180:../stm32f10x_lib/CMSIS/CM3/CoreSupport/core_cm3.c **** __ASM uint32_t __get_PRIMASK(void)
 181:../stm32f10x_lib/CMSIS/CM3/CoreSupport/core_cm3.c **** {
 182:../stm32f10x_lib/CMSIS/CM3/CoreSupport/core_cm3.c ****   mrs r0, primask
 183:../stm32f10x_lib/CMSIS/CM3/CoreSupport/core_cm3.c ****   bx lr
 184:../stm32f10x_lib/CMSIS/CM3/CoreSupport/core_cm3.c **** }
 185:../stm32f10x_lib/CMSIS/CM3/CoreSupport/core_cm3.c **** 
 186:../stm32f10x_lib/CMSIS/CM3/CoreSupport/core_cm3.c **** /**
 187:../stm32f10x_lib/CMSIS/CM3/CoreSupport/core_cm3.c ****  * @brief  Set the Priority Mask value
 188:../stm32f10x_lib/CMSIS/CM3/CoreSupport/core_cm3.c ****  *
 189:../stm32f10x_lib/CMSIS/CM3/CoreSupport/core_cm3.c ****  * @param  priMask  PriMask
 190:../stm32f10x_lib/CMSIS/CM3/CoreSupport/core_cm3.c ****  *
 191:../stm32f10x_lib/CMSIS/CM3/CoreSupport/core_cm3.c ****  * Set the priority mask bit in the priority mask register
 192:../stm32f10x_lib/CMSIS/CM3/CoreSupport/core_cm3.c ****  */
 193:../stm32f10x_lib/CMSIS/CM3/CoreSupport/core_cm3.c **** __ASM void __set_PRIMASK(uint32_t priMask)
 194:../stm32f10x_lib/CMSIS/CM3/CoreSupport/core_cm3.c **** {
 195:../stm32f10x_lib/CMSIS/CM3/CoreSupport/core_cm3.c ****   msr primask, r0
 196:../stm32f10x_lib/CMSIS/CM3/CoreSupport/core_cm3.c ****   bx lr
 197:../stm32f10x_lib/CMSIS/CM3/CoreSupport/core_cm3.c **** }
ARM GAS  /tmp/cczVt2F9.s 			page 5


 198:../stm32f10x_lib/CMSIS/CM3/CoreSupport/core_cm3.c **** 
 199:../stm32f10x_lib/CMSIS/CM3/CoreSupport/core_cm3.c **** /**
 200:../stm32f10x_lib/CMSIS/CM3/CoreSupport/core_cm3.c ****  * @brief  Return the Fault Mask value
 201:../stm32f10x_lib/CMSIS/CM3/CoreSupport/core_cm3.c ****  *
 202:../stm32f10x_lib/CMSIS/CM3/CoreSupport/core_cm3.c ****  * @return FaultMask
 203:../stm32f10x_lib/CMSIS/CM3/CoreSupport/core_cm3.c ****  *
 204:../stm32f10x_lib/CMSIS/CM3/CoreSupport/core_cm3.c ****  * Return the content of the fault mask register
 205:../stm32f10x_lib/CMSIS/CM3/CoreSupport/core_cm3.c ****  */
 206:../stm32f10x_lib/CMSIS/CM3/CoreSupport/core_cm3.c **** __ASM uint32_t  __get_FAULTMASK(void)
 207:../stm32f10x_lib/CMSIS/CM3/CoreSupport/core_cm3.c **** {
 208:../stm32f10x_lib/CMSIS/CM3/CoreSupport/core_cm3.c ****   mrs r0, faultmask
 209:../stm32f10x_lib/CMSIS/CM3/CoreSupport/core_cm3.c ****   bx lr
 210:../stm32f10x_lib/CMSIS/CM3/CoreSupport/core_cm3.c **** }
 211:../stm32f10x_lib/CMSIS/CM3/CoreSupport/core_cm3.c **** 
 212:../stm32f10x_lib/CMSIS/CM3/CoreSupport/core_cm3.c **** /**
 213:../stm32f10x_lib/CMSIS/CM3/CoreSupport/core_cm3.c ****  * @brief  Set the Fault Mask value
 214:../stm32f10x_lib/CMSIS/CM3/CoreSupport/core_cm3.c ****  *
 215:../stm32f10x_lib/CMSIS/CM3/CoreSupport/core_cm3.c ****  * @param  faultMask  faultMask value
 216:../stm32f10x_lib/CMSIS/CM3/CoreSupport/core_cm3.c ****  *
 217:../stm32f10x_lib/CMSIS/CM3/CoreSupport/core_cm3.c ****  * Set the fault mask register
 218:../stm32f10x_lib/CMSIS/CM3/CoreSupport/core_cm3.c ****  */
 219:../stm32f10x_lib/CMSIS/CM3/CoreSupport/core_cm3.c **** __ASM void __set_FAULTMASK(uint32_t faultMask)
 220:../stm32f10x_lib/CMSIS/CM3/CoreSupport/core_cm3.c **** {
 221:../stm32f10x_lib/CMSIS/CM3/CoreSupport/core_cm3.c ****   msr faultmask, r0
 222:../stm32f10x_lib/CMSIS/CM3/CoreSupport/core_cm3.c ****   bx lr
 223:../stm32f10x_lib/CMSIS/CM3/CoreSupport/core_cm3.c **** }
 224:../stm32f10x_lib/CMSIS/CM3/CoreSupport/core_cm3.c **** 
 225:../stm32f10x_lib/CMSIS/CM3/CoreSupport/core_cm3.c **** /**
 226:../stm32f10x_lib/CMSIS/CM3/CoreSupport/core_cm3.c ****  * @brief  Return the Control Register value
 227:../stm32f10x_lib/CMSIS/CM3/CoreSupport/core_cm3.c ****  * 
 228:../stm32f10x_lib/CMSIS/CM3/CoreSupport/core_cm3.c ****  * @return Control value
 229:../stm32f10x_lib/CMSIS/CM3/CoreSupport/core_cm3.c ****  *
 230:../stm32f10x_lib/CMSIS/CM3/CoreSupport/core_cm3.c ****  * Return the content of the control register
 231:../stm32f10x_lib/CMSIS/CM3/CoreSupport/core_cm3.c ****  */
 232:../stm32f10x_lib/CMSIS/CM3/CoreSupport/core_cm3.c **** __ASM uint32_t __get_CONTROL(void)
 233:../stm32f10x_lib/CMSIS/CM3/CoreSupport/core_cm3.c **** {
 234:../stm32f10x_lib/CMSIS/CM3/CoreSupport/core_cm3.c ****   mrs r0, control
 235:../stm32f10x_lib/CMSIS/CM3/CoreSupport/core_cm3.c ****   bx lr
 236:../stm32f10x_lib/CMSIS/CM3/CoreSupport/core_cm3.c **** }
 237:../stm32f10x_lib/CMSIS/CM3/CoreSupport/core_cm3.c **** 
 238:../stm32f10x_lib/CMSIS/CM3/CoreSupport/core_cm3.c **** /**
 239:../stm32f10x_lib/CMSIS/CM3/CoreSupport/core_cm3.c ****  * @brief  Set the Control Register value
 240:../stm32f10x_lib/CMSIS/CM3/CoreSupport/core_cm3.c ****  *
 241:../stm32f10x_lib/CMSIS/CM3/CoreSupport/core_cm3.c ****  * @param  control  Control value
 242:../stm32f10x_lib/CMSIS/CM3/CoreSupport/core_cm3.c ****  *
 243:../stm32f10x_lib/CMSIS/CM3/CoreSupport/core_cm3.c ****  * Set the control register
 244:../stm32f10x_lib/CMSIS/CM3/CoreSupport/core_cm3.c ****  */
 245:../stm32f10x_lib/CMSIS/CM3/CoreSupport/core_cm3.c **** __ASM void __set_CONTROL(uint32_t control)
 246:../stm32f10x_lib/CMSIS/CM3/CoreSupport/core_cm3.c **** {
 247:../stm32f10x_lib/CMSIS/CM3/CoreSupport/core_cm3.c ****   msr control, r0
 248:../stm32f10x_lib/CMSIS/CM3/CoreSupport/core_cm3.c ****   bx lr
 249:../stm32f10x_lib/CMSIS/CM3/CoreSupport/core_cm3.c **** }
 250:../stm32f10x_lib/CMSIS/CM3/CoreSupport/core_cm3.c **** 
 251:../stm32f10x_lib/CMSIS/CM3/CoreSupport/core_cm3.c **** #endif /* __ARMCC_VERSION  */ 
 252:../stm32f10x_lib/CMSIS/CM3/CoreSupport/core_cm3.c **** 
 253:../stm32f10x_lib/CMSIS/CM3/CoreSupport/core_cm3.c **** 
 254:../stm32f10x_lib/CMSIS/CM3/CoreSupport/core_cm3.c **** 
ARM GAS  /tmp/cczVt2F9.s 			page 6


 255:../stm32f10x_lib/CMSIS/CM3/CoreSupport/core_cm3.c **** #elif (defined (__ICCARM__)) /*------------------ ICC Compiler -------------------*/
 256:../stm32f10x_lib/CMSIS/CM3/CoreSupport/core_cm3.c **** /* IAR iccarm specific functions */
 257:../stm32f10x_lib/CMSIS/CM3/CoreSupport/core_cm3.c **** #pragma diag_suppress=Pe940
 258:../stm32f10x_lib/CMSIS/CM3/CoreSupport/core_cm3.c **** 
 259:../stm32f10x_lib/CMSIS/CM3/CoreSupport/core_cm3.c **** /**
 260:../stm32f10x_lib/CMSIS/CM3/CoreSupport/core_cm3.c ****  * @brief  Return the Process Stack Pointer
 261:../stm32f10x_lib/CMSIS/CM3/CoreSupport/core_cm3.c ****  *
 262:../stm32f10x_lib/CMSIS/CM3/CoreSupport/core_cm3.c ****  * @return ProcessStackPointer
 263:../stm32f10x_lib/CMSIS/CM3/CoreSupport/core_cm3.c ****  *
 264:../stm32f10x_lib/CMSIS/CM3/CoreSupport/core_cm3.c ****  * Return the actual process stack pointer
 265:../stm32f10x_lib/CMSIS/CM3/CoreSupport/core_cm3.c ****  */
 266:../stm32f10x_lib/CMSIS/CM3/CoreSupport/core_cm3.c **** uint32_t __get_PSP(void)
 267:../stm32f10x_lib/CMSIS/CM3/CoreSupport/core_cm3.c **** {
 268:../stm32f10x_lib/CMSIS/CM3/CoreSupport/core_cm3.c ****   __ASM("mrs r0, psp");
 269:../stm32f10x_lib/CMSIS/CM3/CoreSupport/core_cm3.c ****   __ASM("bx lr");
 270:../stm32f10x_lib/CMSIS/CM3/CoreSupport/core_cm3.c **** }
 271:../stm32f10x_lib/CMSIS/CM3/CoreSupport/core_cm3.c **** 
 272:../stm32f10x_lib/CMSIS/CM3/CoreSupport/core_cm3.c **** /**
 273:../stm32f10x_lib/CMSIS/CM3/CoreSupport/core_cm3.c ****  * @brief  Set the Process Stack Pointer
 274:../stm32f10x_lib/CMSIS/CM3/CoreSupport/core_cm3.c ****  *
 275:../stm32f10x_lib/CMSIS/CM3/CoreSupport/core_cm3.c ****  * @param  topOfProcStack  Process Stack Pointer
 276:../stm32f10x_lib/CMSIS/CM3/CoreSupport/core_cm3.c ****  *
 277:../stm32f10x_lib/CMSIS/CM3/CoreSupport/core_cm3.c ****  * Assign the value ProcessStackPointer to the MSP 
 278:../stm32f10x_lib/CMSIS/CM3/CoreSupport/core_cm3.c ****  * (process stack pointer) Cortex processor register
 279:../stm32f10x_lib/CMSIS/CM3/CoreSupport/core_cm3.c ****  */
 280:../stm32f10x_lib/CMSIS/CM3/CoreSupport/core_cm3.c **** void __set_PSP(uint32_t topOfProcStack)
 281:../stm32f10x_lib/CMSIS/CM3/CoreSupport/core_cm3.c **** {
 282:../stm32f10x_lib/CMSIS/CM3/CoreSupport/core_cm3.c ****   __ASM("msr psp, r0");
 283:../stm32f10x_lib/CMSIS/CM3/CoreSupport/core_cm3.c ****   __ASM("bx lr");
 284:../stm32f10x_lib/CMSIS/CM3/CoreSupport/core_cm3.c **** }
 285:../stm32f10x_lib/CMSIS/CM3/CoreSupport/core_cm3.c **** 
 286:../stm32f10x_lib/CMSIS/CM3/CoreSupport/core_cm3.c **** /**
 287:../stm32f10x_lib/CMSIS/CM3/CoreSupport/core_cm3.c ****  * @brief  Return the Main Stack Pointer
 288:../stm32f10x_lib/CMSIS/CM3/CoreSupport/core_cm3.c ****  *
 289:../stm32f10x_lib/CMSIS/CM3/CoreSupport/core_cm3.c ****  * @return Main Stack Pointer
 290:../stm32f10x_lib/CMSIS/CM3/CoreSupport/core_cm3.c ****  *
 291:../stm32f10x_lib/CMSIS/CM3/CoreSupport/core_cm3.c ****  * Return the current value of the MSP (main stack pointer)
 292:../stm32f10x_lib/CMSIS/CM3/CoreSupport/core_cm3.c ****  * Cortex processor register
 293:../stm32f10x_lib/CMSIS/CM3/CoreSupport/core_cm3.c ****  */
 294:../stm32f10x_lib/CMSIS/CM3/CoreSupport/core_cm3.c **** uint32_t __get_MSP(void)
 295:../stm32f10x_lib/CMSIS/CM3/CoreSupport/core_cm3.c **** {
 296:../stm32f10x_lib/CMSIS/CM3/CoreSupport/core_cm3.c ****   __ASM("mrs r0, msp");
 297:../stm32f10x_lib/CMSIS/CM3/CoreSupport/core_cm3.c ****   __ASM("bx lr");
 298:../stm32f10x_lib/CMSIS/CM3/CoreSupport/core_cm3.c **** }
 299:../stm32f10x_lib/CMSIS/CM3/CoreSupport/core_cm3.c **** 
 300:../stm32f10x_lib/CMSIS/CM3/CoreSupport/core_cm3.c **** /**
 301:../stm32f10x_lib/CMSIS/CM3/CoreSupport/core_cm3.c ****  * @brief  Set the Main Stack Pointer
 302:../stm32f10x_lib/CMSIS/CM3/CoreSupport/core_cm3.c ****  *
 303:../stm32f10x_lib/CMSIS/CM3/CoreSupport/core_cm3.c ****  * @param  topOfMainStack  Main Stack Pointer
 304:../stm32f10x_lib/CMSIS/CM3/CoreSupport/core_cm3.c ****  *
 305:../stm32f10x_lib/CMSIS/CM3/CoreSupport/core_cm3.c ****  * Assign the value mainStackPointer to the MSP 
 306:../stm32f10x_lib/CMSIS/CM3/CoreSupport/core_cm3.c ****  * (main stack pointer) Cortex processor register
 307:../stm32f10x_lib/CMSIS/CM3/CoreSupport/core_cm3.c ****  */
 308:../stm32f10x_lib/CMSIS/CM3/CoreSupport/core_cm3.c **** void __set_MSP(uint32_t topOfMainStack)
 309:../stm32f10x_lib/CMSIS/CM3/CoreSupport/core_cm3.c **** {
 310:../stm32f10x_lib/CMSIS/CM3/CoreSupport/core_cm3.c ****   __ASM("msr msp, r0");
 311:../stm32f10x_lib/CMSIS/CM3/CoreSupport/core_cm3.c ****   __ASM("bx lr");
ARM GAS  /tmp/cczVt2F9.s 			page 7


 312:../stm32f10x_lib/CMSIS/CM3/CoreSupport/core_cm3.c **** }
 313:../stm32f10x_lib/CMSIS/CM3/CoreSupport/core_cm3.c **** 
 314:../stm32f10x_lib/CMSIS/CM3/CoreSupport/core_cm3.c **** /**
 315:../stm32f10x_lib/CMSIS/CM3/CoreSupport/core_cm3.c ****  * @brief  Reverse byte order in unsigned short value
 316:../stm32f10x_lib/CMSIS/CM3/CoreSupport/core_cm3.c ****  *
 317:../stm32f10x_lib/CMSIS/CM3/CoreSupport/core_cm3.c ****  * @param  value  value to reverse
 318:../stm32f10x_lib/CMSIS/CM3/CoreSupport/core_cm3.c ****  * @return        reversed value
 319:../stm32f10x_lib/CMSIS/CM3/CoreSupport/core_cm3.c ****  *
 320:../stm32f10x_lib/CMSIS/CM3/CoreSupport/core_cm3.c ****  * Reverse byte order in unsigned short value
 321:../stm32f10x_lib/CMSIS/CM3/CoreSupport/core_cm3.c ****  */
 322:../stm32f10x_lib/CMSIS/CM3/CoreSupport/core_cm3.c **** uint32_t __REV16(uint16_t value)
 323:../stm32f10x_lib/CMSIS/CM3/CoreSupport/core_cm3.c **** {
 324:../stm32f10x_lib/CMSIS/CM3/CoreSupport/core_cm3.c ****   __ASM("rev16 r0, r0");
 325:../stm32f10x_lib/CMSIS/CM3/CoreSupport/core_cm3.c ****   __ASM("bx lr");
 326:../stm32f10x_lib/CMSIS/CM3/CoreSupport/core_cm3.c **** }
 327:../stm32f10x_lib/CMSIS/CM3/CoreSupport/core_cm3.c **** 
 328:../stm32f10x_lib/CMSIS/CM3/CoreSupport/core_cm3.c **** /**
 329:../stm32f10x_lib/CMSIS/CM3/CoreSupport/core_cm3.c ****  * @brief  Reverse bit order of value
 330:../stm32f10x_lib/CMSIS/CM3/CoreSupport/core_cm3.c ****  *
 331:../stm32f10x_lib/CMSIS/CM3/CoreSupport/core_cm3.c ****  * @param  value  value to reverse
 332:../stm32f10x_lib/CMSIS/CM3/CoreSupport/core_cm3.c ****  * @return        reversed value
 333:../stm32f10x_lib/CMSIS/CM3/CoreSupport/core_cm3.c ****  *
 334:../stm32f10x_lib/CMSIS/CM3/CoreSupport/core_cm3.c ****  * Reverse bit order of value
 335:../stm32f10x_lib/CMSIS/CM3/CoreSupport/core_cm3.c ****  */
 336:../stm32f10x_lib/CMSIS/CM3/CoreSupport/core_cm3.c **** uint32_t __RBIT(uint32_t value)
 337:../stm32f10x_lib/CMSIS/CM3/CoreSupport/core_cm3.c **** {
 338:../stm32f10x_lib/CMSIS/CM3/CoreSupport/core_cm3.c ****   __ASM("rbit r0, r0");
 339:../stm32f10x_lib/CMSIS/CM3/CoreSupport/core_cm3.c ****   __ASM("bx lr");
 340:../stm32f10x_lib/CMSIS/CM3/CoreSupport/core_cm3.c **** }
 341:../stm32f10x_lib/CMSIS/CM3/CoreSupport/core_cm3.c **** 
 342:../stm32f10x_lib/CMSIS/CM3/CoreSupport/core_cm3.c **** /**
 343:../stm32f10x_lib/CMSIS/CM3/CoreSupport/core_cm3.c ****  * @brief  LDR Exclusive (8 bit)
 344:../stm32f10x_lib/CMSIS/CM3/CoreSupport/core_cm3.c ****  *
 345:../stm32f10x_lib/CMSIS/CM3/CoreSupport/core_cm3.c ****  * @param  *addr  address pointer
 346:../stm32f10x_lib/CMSIS/CM3/CoreSupport/core_cm3.c ****  * @return        value of (*address)
 347:../stm32f10x_lib/CMSIS/CM3/CoreSupport/core_cm3.c ****  *
 348:../stm32f10x_lib/CMSIS/CM3/CoreSupport/core_cm3.c ****  * Exclusive LDR command for 8 bit values)
 349:../stm32f10x_lib/CMSIS/CM3/CoreSupport/core_cm3.c ****  */
 350:../stm32f10x_lib/CMSIS/CM3/CoreSupport/core_cm3.c **** uint8_t __LDREXB(uint8_t *addr)
 351:../stm32f10x_lib/CMSIS/CM3/CoreSupport/core_cm3.c **** {
 352:../stm32f10x_lib/CMSIS/CM3/CoreSupport/core_cm3.c ****   __ASM("ldrexb r0, [r0]");
 353:../stm32f10x_lib/CMSIS/CM3/CoreSupport/core_cm3.c ****   __ASM("bx lr"); 
 354:../stm32f10x_lib/CMSIS/CM3/CoreSupport/core_cm3.c **** }
 355:../stm32f10x_lib/CMSIS/CM3/CoreSupport/core_cm3.c **** 
 356:../stm32f10x_lib/CMSIS/CM3/CoreSupport/core_cm3.c **** /**
 357:../stm32f10x_lib/CMSIS/CM3/CoreSupport/core_cm3.c ****  * @brief  LDR Exclusive (16 bit)
 358:../stm32f10x_lib/CMSIS/CM3/CoreSupport/core_cm3.c ****  *
 359:../stm32f10x_lib/CMSIS/CM3/CoreSupport/core_cm3.c ****  * @param  *addr  address pointer
 360:../stm32f10x_lib/CMSIS/CM3/CoreSupport/core_cm3.c ****  * @return        value of (*address)
 361:../stm32f10x_lib/CMSIS/CM3/CoreSupport/core_cm3.c ****  *
 362:../stm32f10x_lib/CMSIS/CM3/CoreSupport/core_cm3.c ****  * Exclusive LDR command for 16 bit values
 363:../stm32f10x_lib/CMSIS/CM3/CoreSupport/core_cm3.c ****  */
 364:../stm32f10x_lib/CMSIS/CM3/CoreSupport/core_cm3.c **** uint16_t __LDREXH(uint16_t *addr)
 365:../stm32f10x_lib/CMSIS/CM3/CoreSupport/core_cm3.c **** {
 366:../stm32f10x_lib/CMSIS/CM3/CoreSupport/core_cm3.c ****   __ASM("ldrexh r0, [r0]");
 367:../stm32f10x_lib/CMSIS/CM3/CoreSupport/core_cm3.c ****   __ASM("bx lr");
 368:../stm32f10x_lib/CMSIS/CM3/CoreSupport/core_cm3.c **** }
ARM GAS  /tmp/cczVt2F9.s 			page 8


 369:../stm32f10x_lib/CMSIS/CM3/CoreSupport/core_cm3.c **** 
 370:../stm32f10x_lib/CMSIS/CM3/CoreSupport/core_cm3.c **** /**
 371:../stm32f10x_lib/CMSIS/CM3/CoreSupport/core_cm3.c ****  * @brief  LDR Exclusive (32 bit)
 372:../stm32f10x_lib/CMSIS/CM3/CoreSupport/core_cm3.c ****  *
 373:../stm32f10x_lib/CMSIS/CM3/CoreSupport/core_cm3.c ****  * @param  *addr  address pointer
 374:../stm32f10x_lib/CMSIS/CM3/CoreSupport/core_cm3.c ****  * @return        value of (*address)
 375:../stm32f10x_lib/CMSIS/CM3/CoreSupport/core_cm3.c ****  *
 376:../stm32f10x_lib/CMSIS/CM3/CoreSupport/core_cm3.c ****  * Exclusive LDR command for 32 bit values
 377:../stm32f10x_lib/CMSIS/CM3/CoreSupport/core_cm3.c ****  */
 378:../stm32f10x_lib/CMSIS/CM3/CoreSupport/core_cm3.c **** uint32_t __LDREXW(uint32_t *addr)
 379:../stm32f10x_lib/CMSIS/CM3/CoreSupport/core_cm3.c **** {
 380:../stm32f10x_lib/CMSIS/CM3/CoreSupport/core_cm3.c ****   __ASM("ldrex r0, [r0]");
 381:../stm32f10x_lib/CMSIS/CM3/CoreSupport/core_cm3.c ****   __ASM("bx lr");
 382:../stm32f10x_lib/CMSIS/CM3/CoreSupport/core_cm3.c **** }
 383:../stm32f10x_lib/CMSIS/CM3/CoreSupport/core_cm3.c **** 
 384:../stm32f10x_lib/CMSIS/CM3/CoreSupport/core_cm3.c **** /**
 385:../stm32f10x_lib/CMSIS/CM3/CoreSupport/core_cm3.c ****  * @brief  STR Exclusive (8 bit)
 386:../stm32f10x_lib/CMSIS/CM3/CoreSupport/core_cm3.c ****  *
 387:../stm32f10x_lib/CMSIS/CM3/CoreSupport/core_cm3.c ****  * @param  value  value to store
 388:../stm32f10x_lib/CMSIS/CM3/CoreSupport/core_cm3.c ****  * @param  *addr  address pointer
 389:../stm32f10x_lib/CMSIS/CM3/CoreSupport/core_cm3.c ****  * @return        successful / failed
 390:../stm32f10x_lib/CMSIS/CM3/CoreSupport/core_cm3.c ****  *
 391:../stm32f10x_lib/CMSIS/CM3/CoreSupport/core_cm3.c ****  * Exclusive STR command for 8 bit values
 392:../stm32f10x_lib/CMSIS/CM3/CoreSupport/core_cm3.c ****  */
 393:../stm32f10x_lib/CMSIS/CM3/CoreSupport/core_cm3.c **** uint32_t __STREXB(uint8_t value, uint8_t *addr)
 394:../stm32f10x_lib/CMSIS/CM3/CoreSupport/core_cm3.c **** {
 395:../stm32f10x_lib/CMSIS/CM3/CoreSupport/core_cm3.c ****   __ASM("strexb r0, r0, [r1]");
 396:../stm32f10x_lib/CMSIS/CM3/CoreSupport/core_cm3.c ****   __ASM("bx lr");
 397:../stm32f10x_lib/CMSIS/CM3/CoreSupport/core_cm3.c **** }
 398:../stm32f10x_lib/CMSIS/CM3/CoreSupport/core_cm3.c **** 
 399:../stm32f10x_lib/CMSIS/CM3/CoreSupport/core_cm3.c **** /**
 400:../stm32f10x_lib/CMSIS/CM3/CoreSupport/core_cm3.c ****  * @brief  STR Exclusive (16 bit)
 401:../stm32f10x_lib/CMSIS/CM3/CoreSupport/core_cm3.c ****  *
 402:../stm32f10x_lib/CMSIS/CM3/CoreSupport/core_cm3.c ****  * @param  value  value to store
 403:../stm32f10x_lib/CMSIS/CM3/CoreSupport/core_cm3.c ****  * @param  *addr  address pointer
 404:../stm32f10x_lib/CMSIS/CM3/CoreSupport/core_cm3.c ****  * @return        successful / failed
 405:../stm32f10x_lib/CMSIS/CM3/CoreSupport/core_cm3.c ****  *
 406:../stm32f10x_lib/CMSIS/CM3/CoreSupport/core_cm3.c ****  * Exclusive STR command for 16 bit values
 407:../stm32f10x_lib/CMSIS/CM3/CoreSupport/core_cm3.c ****  */
 408:../stm32f10x_lib/CMSIS/CM3/CoreSupport/core_cm3.c **** uint32_t __STREXH(uint16_t value, uint16_t *addr)
 409:../stm32f10x_lib/CMSIS/CM3/CoreSupport/core_cm3.c **** {
 410:../stm32f10x_lib/CMSIS/CM3/CoreSupport/core_cm3.c ****   __ASM("strexh r0, r0, [r1]");
 411:../stm32f10x_lib/CMSIS/CM3/CoreSupport/core_cm3.c ****   __ASM("bx lr");
 412:../stm32f10x_lib/CMSIS/CM3/CoreSupport/core_cm3.c **** }
 413:../stm32f10x_lib/CMSIS/CM3/CoreSupport/core_cm3.c **** 
 414:../stm32f10x_lib/CMSIS/CM3/CoreSupport/core_cm3.c **** /**
 415:../stm32f10x_lib/CMSIS/CM3/CoreSupport/core_cm3.c ****  * @brief  STR Exclusive (32 bit)
 416:../stm32f10x_lib/CMSIS/CM3/CoreSupport/core_cm3.c ****  *
 417:../stm32f10x_lib/CMSIS/CM3/CoreSupport/core_cm3.c ****  * @param  value  value to store
 418:../stm32f10x_lib/CMSIS/CM3/CoreSupport/core_cm3.c ****  * @param  *addr  address pointer
 419:../stm32f10x_lib/CMSIS/CM3/CoreSupport/core_cm3.c ****  * @return        successful / failed
 420:../stm32f10x_lib/CMSIS/CM3/CoreSupport/core_cm3.c ****  *
 421:../stm32f10x_lib/CMSIS/CM3/CoreSupport/core_cm3.c ****  * Exclusive STR command for 32 bit values
 422:../stm32f10x_lib/CMSIS/CM3/CoreSupport/core_cm3.c ****  */
 423:../stm32f10x_lib/CMSIS/CM3/CoreSupport/core_cm3.c **** uint32_t __STREXW(uint32_t value, uint32_t *addr)
 424:../stm32f10x_lib/CMSIS/CM3/CoreSupport/core_cm3.c **** {
 425:../stm32f10x_lib/CMSIS/CM3/CoreSupport/core_cm3.c ****   __ASM("strex r0, r0, [r1]");
ARM GAS  /tmp/cczVt2F9.s 			page 9


 426:../stm32f10x_lib/CMSIS/CM3/CoreSupport/core_cm3.c ****   __ASM("bx lr");
 427:../stm32f10x_lib/CMSIS/CM3/CoreSupport/core_cm3.c **** }
 428:../stm32f10x_lib/CMSIS/CM3/CoreSupport/core_cm3.c **** 
 429:../stm32f10x_lib/CMSIS/CM3/CoreSupport/core_cm3.c **** #pragma diag_default=Pe940
 430:../stm32f10x_lib/CMSIS/CM3/CoreSupport/core_cm3.c **** 
 431:../stm32f10x_lib/CMSIS/CM3/CoreSupport/core_cm3.c **** 
 432:../stm32f10x_lib/CMSIS/CM3/CoreSupport/core_cm3.c **** #elif (defined (__GNUC__)) /*------------------ GNU Compiler ---------------------*/
 433:../stm32f10x_lib/CMSIS/CM3/CoreSupport/core_cm3.c **** /* GNU gcc specific functions */
 434:../stm32f10x_lib/CMSIS/CM3/CoreSupport/core_cm3.c **** 
 435:../stm32f10x_lib/CMSIS/CM3/CoreSupport/core_cm3.c **** /**
 436:../stm32f10x_lib/CMSIS/CM3/CoreSupport/core_cm3.c ****  * @brief  Return the Process Stack Pointer
 437:../stm32f10x_lib/CMSIS/CM3/CoreSupport/core_cm3.c ****  *
 438:../stm32f10x_lib/CMSIS/CM3/CoreSupport/core_cm3.c ****  * @return ProcessStackPointer
 439:../stm32f10x_lib/CMSIS/CM3/CoreSupport/core_cm3.c ****  *
 440:../stm32f10x_lib/CMSIS/CM3/CoreSupport/core_cm3.c ****  * Return the actual process stack pointer
 441:../stm32f10x_lib/CMSIS/CM3/CoreSupport/core_cm3.c ****  */
 442:../stm32f10x_lib/CMSIS/CM3/CoreSupport/core_cm3.c **** uint32_t __get_PSP(void) __attribute__( ( naked ) );
 443:../stm32f10x_lib/CMSIS/CM3/CoreSupport/core_cm3.c **** uint32_t __get_PSP(void)
 444:../stm32f10x_lib/CMSIS/CM3/CoreSupport/core_cm3.c **** {
  32              		.loc 1 444 1 view -0
  33              		.cfi_startproc
  34              		@ Naked Function: prologue and epilogue provided by programmer.
  35              		@ args = 0, pretend = 0, frame = 0
  36              		@ frame_needed = 0, uses_anonymous_args = 0
 445:../stm32f10x_lib/CMSIS/CM3/CoreSupport/core_cm3.c ****   uint32_t result=0;
  37              		.loc 1 445 3 view .LVU1
  38              	.LVL0:
 446:../stm32f10x_lib/CMSIS/CM3/CoreSupport/core_cm3.c **** 
 447:../stm32f10x_lib/CMSIS/CM3/CoreSupport/core_cm3.c ****   __ASM volatile ("MRS %0, psp\n\t" 
  39              		.loc 1 447 3 view .LVU2
  40              		.syntax unified
  41              	@ 447 "../stm32f10x_lib/CMSIS/CM3/CoreSupport/core_cm3.c" 1
  42 0000 EFF30980 		MRS r0, psp	@ result
  43 0004 0046     		MOV r0, r0 	@ result
  44 0006 7047     		BX  lr     
  45              		
  46              	@ 0 "" 2
  47              	.LVL1:
 448:../stm32f10x_lib/CMSIS/CM3/CoreSupport/core_cm3.c ****                   "MOV r0, %0 \n\t"
 449:../stm32f10x_lib/CMSIS/CM3/CoreSupport/core_cm3.c ****                   "BX  lr     \n\t"  : "=r" (result) );
 450:../stm32f10x_lib/CMSIS/CM3/CoreSupport/core_cm3.c ****   return(result);
  48              		.loc 1 450 3 view .LVU3
  49              	@ ../stm32f10x_lib/CMSIS/CM3/CoreSupport/core_cm3.c:451: }
 451:../stm32f10x_lib/CMSIS/CM3/CoreSupport/core_cm3.c **** }
  50              		.loc 1 451 1 is_stmt 0 view .LVU4
  51              		.thumb
  52              		.syntax unified
  53              		.cfi_endproc
  54              	.LFE0:
  55              		.size	__get_PSP, .-__get_PSP
  56              		.align	1
  57              		.global	__set_PSP
  58              		.syntax unified
  59              		.thumb
  60              		.thumb_func
  61              		.type	__set_PSP, %function
  62              	__set_PSP:
ARM GAS  /tmp/cczVt2F9.s 			page 10


  63              	.LVL2:
  64              	.LFB1:
 452:../stm32f10x_lib/CMSIS/CM3/CoreSupport/core_cm3.c **** 
 453:../stm32f10x_lib/CMSIS/CM3/CoreSupport/core_cm3.c **** /**
 454:../stm32f10x_lib/CMSIS/CM3/CoreSupport/core_cm3.c ****  * @brief  Set the Process Stack Pointer
 455:../stm32f10x_lib/CMSIS/CM3/CoreSupport/core_cm3.c ****  *
 456:../stm32f10x_lib/CMSIS/CM3/CoreSupport/core_cm3.c ****  * @param  topOfProcStack  Process Stack Pointer
 457:../stm32f10x_lib/CMSIS/CM3/CoreSupport/core_cm3.c ****  *
 458:../stm32f10x_lib/CMSIS/CM3/CoreSupport/core_cm3.c ****  * Assign the value ProcessStackPointer to the MSP 
 459:../stm32f10x_lib/CMSIS/CM3/CoreSupport/core_cm3.c ****  * (process stack pointer) Cortex processor register
 460:../stm32f10x_lib/CMSIS/CM3/CoreSupport/core_cm3.c ****  */
 461:../stm32f10x_lib/CMSIS/CM3/CoreSupport/core_cm3.c **** void __set_PSP(uint32_t topOfProcStack) __attribute__( ( naked ) );
 462:../stm32f10x_lib/CMSIS/CM3/CoreSupport/core_cm3.c **** void __set_PSP(uint32_t topOfProcStack)
 463:../stm32f10x_lib/CMSIS/CM3/CoreSupport/core_cm3.c **** {
  65              		.loc 1 463 1 is_stmt 1 view -0
  66              		.cfi_startproc
  67              		@ Naked Function: prologue and epilogue provided by programmer.
  68              		@ args = 0, pretend = 0, frame = 0
  69              		@ frame_needed = 0, uses_anonymous_args = 0
 464:../stm32f10x_lib/CMSIS/CM3/CoreSupport/core_cm3.c ****   __ASM volatile ("MSR psp, %0\n\t"
  70              		.loc 1 464 3 view .LVU6
  71              		.syntax unified
  72              	@ 464 "../stm32f10x_lib/CMSIS/CM3/CoreSupport/core_cm3.c" 1
  73 0008 80F30988 		MSR psp, r0	@ tmp115
  74 000c 7047     		BX  lr     
  75              		
  76              	@ 0 "" 2
  77              	@ ../stm32f10x_lib/CMSIS/CM3/CoreSupport/core_cm3.c:466: }
 465:../stm32f10x_lib/CMSIS/CM3/CoreSupport/core_cm3.c ****                   "BX  lr     \n\t" : : "r" (topOfProcStack) );
 466:../stm32f10x_lib/CMSIS/CM3/CoreSupport/core_cm3.c **** }
  78              		.loc 1 466 1 is_stmt 0 view .LVU7
  79              		.thumb
  80              		.syntax unified
  81              		.cfi_endproc
  82              	.LFE1:
  83              		.size	__set_PSP, .-__set_PSP
  84              		.align	1
  85              		.global	__get_MSP
  86              		.syntax unified
  87              		.thumb
  88              		.thumb_func
  89              		.type	__get_MSP, %function
  90              	__get_MSP:
  91              	.LFB2:
 467:../stm32f10x_lib/CMSIS/CM3/CoreSupport/core_cm3.c **** 
 468:../stm32f10x_lib/CMSIS/CM3/CoreSupport/core_cm3.c **** /**
 469:../stm32f10x_lib/CMSIS/CM3/CoreSupport/core_cm3.c ****  * @brief  Return the Main Stack Pointer
 470:../stm32f10x_lib/CMSIS/CM3/CoreSupport/core_cm3.c ****  *
 471:../stm32f10x_lib/CMSIS/CM3/CoreSupport/core_cm3.c ****  * @return Main Stack Pointer
 472:../stm32f10x_lib/CMSIS/CM3/CoreSupport/core_cm3.c ****  *
 473:../stm32f10x_lib/CMSIS/CM3/CoreSupport/core_cm3.c ****  * Return the current value of the MSP (main stack pointer)
 474:../stm32f10x_lib/CMSIS/CM3/CoreSupport/core_cm3.c ****  * Cortex processor register
 475:../stm32f10x_lib/CMSIS/CM3/CoreSupport/core_cm3.c ****  */
 476:../stm32f10x_lib/CMSIS/CM3/CoreSupport/core_cm3.c **** uint32_t __get_MSP(void) __attribute__( ( naked ) );
 477:../stm32f10x_lib/CMSIS/CM3/CoreSupport/core_cm3.c **** uint32_t __get_MSP(void)
 478:../stm32f10x_lib/CMSIS/CM3/CoreSupport/core_cm3.c **** {
  92              		.loc 1 478 1 is_stmt 1 view -0
ARM GAS  /tmp/cczVt2F9.s 			page 11


  93              		.cfi_startproc
  94              		@ Naked Function: prologue and epilogue provided by programmer.
  95              		@ args = 0, pretend = 0, frame = 0
  96              		@ frame_needed = 0, uses_anonymous_args = 0
 479:../stm32f10x_lib/CMSIS/CM3/CoreSupport/core_cm3.c ****   uint32_t result=0;
  97              		.loc 1 479 3 view .LVU9
  98              	.LVL3:
 480:../stm32f10x_lib/CMSIS/CM3/CoreSupport/core_cm3.c **** 
 481:../stm32f10x_lib/CMSIS/CM3/CoreSupport/core_cm3.c ****   __ASM volatile ("MRS %0, msp\n\t" 
  99              		.loc 1 481 3 view .LVU10
 100              		.syntax unified
 101              	@ 481 "../stm32f10x_lib/CMSIS/CM3/CoreSupport/core_cm3.c" 1
 102 000e EFF30880 		MRS r0, msp	@ result
 103 0012 0046     		MOV r0, r0 	@ result
 104 0014 7047     		BX  lr     
 105              		
 106              	@ 0 "" 2
 107              	.LVL4:
 482:../stm32f10x_lib/CMSIS/CM3/CoreSupport/core_cm3.c ****                   "MOV r0, %0 \n\t"
 483:../stm32f10x_lib/CMSIS/CM3/CoreSupport/core_cm3.c ****                   "BX  lr     \n\t"  : "=r" (result) );
 484:../stm32f10x_lib/CMSIS/CM3/CoreSupport/core_cm3.c ****   return(result);
 108              		.loc 1 484 3 view .LVU11
 109              	@ ../stm32f10x_lib/CMSIS/CM3/CoreSupport/core_cm3.c:485: }
 485:../stm32f10x_lib/CMSIS/CM3/CoreSupport/core_cm3.c **** }
 110              		.loc 1 485 1 is_stmt 0 view .LVU12
 111              		.thumb
 112              		.syntax unified
 113              		.cfi_endproc
 114              	.LFE2:
 115              		.size	__get_MSP, .-__get_MSP
 116              		.align	1
 117              		.global	__set_MSP
 118              		.syntax unified
 119              		.thumb
 120              		.thumb_func
 121              		.type	__set_MSP, %function
 122              	__set_MSP:
 123              	.LVL5:
 124              	.LFB3:
 486:../stm32f10x_lib/CMSIS/CM3/CoreSupport/core_cm3.c **** 
 487:../stm32f10x_lib/CMSIS/CM3/CoreSupport/core_cm3.c **** /**
 488:../stm32f10x_lib/CMSIS/CM3/CoreSupport/core_cm3.c ****  * @brief  Set the Main Stack Pointer
 489:../stm32f10x_lib/CMSIS/CM3/CoreSupport/core_cm3.c ****  *
 490:../stm32f10x_lib/CMSIS/CM3/CoreSupport/core_cm3.c ****  * @param  topOfMainStack  Main Stack Pointer
 491:../stm32f10x_lib/CMSIS/CM3/CoreSupport/core_cm3.c ****  *
 492:../stm32f10x_lib/CMSIS/CM3/CoreSupport/core_cm3.c ****  * Assign the value mainStackPointer to the MSP 
 493:../stm32f10x_lib/CMSIS/CM3/CoreSupport/core_cm3.c ****  * (main stack pointer) Cortex processor register
 494:../stm32f10x_lib/CMSIS/CM3/CoreSupport/core_cm3.c ****  */
 495:../stm32f10x_lib/CMSIS/CM3/CoreSupport/core_cm3.c **** void __set_MSP(uint32_t topOfMainStack) __attribute__( ( naked ) );
 496:../stm32f10x_lib/CMSIS/CM3/CoreSupport/core_cm3.c **** void __set_MSP(uint32_t topOfMainStack)
 497:../stm32f10x_lib/CMSIS/CM3/CoreSupport/core_cm3.c **** {
 125              		.loc 1 497 1 is_stmt 1 view -0
 126              		.cfi_startproc
 127              		@ Naked Function: prologue and epilogue provided by programmer.
 128              		@ args = 0, pretend = 0, frame = 0
 129              		@ frame_needed = 0, uses_anonymous_args = 0
 498:../stm32f10x_lib/CMSIS/CM3/CoreSupport/core_cm3.c ****   __ASM volatile ("MSR msp, %0\n\t"
ARM GAS  /tmp/cczVt2F9.s 			page 12


 130              		.loc 1 498 3 view .LVU14
 131              		.syntax unified
 132              	@ 498 "../stm32f10x_lib/CMSIS/CM3/CoreSupport/core_cm3.c" 1
 133 0016 80F30888 		MSR msp, r0	@ tmp115
 134 001a 7047     		BX  lr     
 135              		
 136              	@ 0 "" 2
 137              	@ ../stm32f10x_lib/CMSIS/CM3/CoreSupport/core_cm3.c:500: }
 499:../stm32f10x_lib/CMSIS/CM3/CoreSupport/core_cm3.c ****                   "BX  lr     \n\t" : : "r" (topOfMainStack) );
 500:../stm32f10x_lib/CMSIS/CM3/CoreSupport/core_cm3.c **** }
 138              		.loc 1 500 1 is_stmt 0 view .LVU15
 139              		.thumb
 140              		.syntax unified
 141              		.cfi_endproc
 142              	.LFE3:
 143              		.size	__set_MSP, .-__set_MSP
 144              		.align	1
 145              		.global	__get_BASEPRI
 146              		.syntax unified
 147              		.thumb
 148              		.thumb_func
 149              		.type	__get_BASEPRI, %function
 150              	__get_BASEPRI:
 151              	.LFB4:
 501:../stm32f10x_lib/CMSIS/CM3/CoreSupport/core_cm3.c **** 
 502:../stm32f10x_lib/CMSIS/CM3/CoreSupport/core_cm3.c **** /**
 503:../stm32f10x_lib/CMSIS/CM3/CoreSupport/core_cm3.c ****  * @brief  Return the Base Priority value
 504:../stm32f10x_lib/CMSIS/CM3/CoreSupport/core_cm3.c ****  *
 505:../stm32f10x_lib/CMSIS/CM3/CoreSupport/core_cm3.c ****  * @return BasePriority
 506:../stm32f10x_lib/CMSIS/CM3/CoreSupport/core_cm3.c ****  *
 507:../stm32f10x_lib/CMSIS/CM3/CoreSupport/core_cm3.c ****  * Return the content of the base priority register
 508:../stm32f10x_lib/CMSIS/CM3/CoreSupport/core_cm3.c ****  */
 509:../stm32f10x_lib/CMSIS/CM3/CoreSupport/core_cm3.c **** uint32_t __get_BASEPRI(void)
 510:../stm32f10x_lib/CMSIS/CM3/CoreSupport/core_cm3.c **** {
 152              		.loc 1 510 1 is_stmt 1 view -0
 153              		.cfi_startproc
 154              		@ args = 0, pretend = 0, frame = 0
 155              		@ frame_needed = 0, uses_anonymous_args = 0
 156              		@ link register save eliminated.
 511:../stm32f10x_lib/CMSIS/CM3/CoreSupport/core_cm3.c ****   uint32_t result=0;
 157              		.loc 1 511 3 view .LVU17
 158              	.LVL6:
 512:../stm32f10x_lib/CMSIS/CM3/CoreSupport/core_cm3.c ****   
 513:../stm32f10x_lib/CMSIS/CM3/CoreSupport/core_cm3.c ****   __ASM volatile ("MRS %0, basepri_max" : "=r" (result) );
 159              		.loc 1 513 3 view .LVU18
 160              		.syntax unified
 161              	@ 513 "../stm32f10x_lib/CMSIS/CM3/CoreSupport/core_cm3.c" 1
 162 001c EFF31280 		MRS r0, basepri_max	@ result
 163              	@ 0 "" 2
 164              	.LVL7:
 514:../stm32f10x_lib/CMSIS/CM3/CoreSupport/core_cm3.c ****   return(result);
 165              		.loc 1 514 3 view .LVU19
 166              	@ ../stm32f10x_lib/CMSIS/CM3/CoreSupport/core_cm3.c:515: }
 515:../stm32f10x_lib/CMSIS/CM3/CoreSupport/core_cm3.c **** }
 167              		.loc 1 515 1 is_stmt 0 view .LVU20
 168              		.thumb
 169              		.syntax unified
ARM GAS  /tmp/cczVt2F9.s 			page 13


 170 0020 7047     		bx	lr	@
 171              		.cfi_endproc
 172              	.LFE4:
 173              		.size	__get_BASEPRI, .-__get_BASEPRI
 174              		.align	1
 175              		.global	__set_BASEPRI
 176              		.syntax unified
 177              		.thumb
 178              		.thumb_func
 179              		.type	__set_BASEPRI, %function
 180              	__set_BASEPRI:
 181              	.LVL8:
 182              	.LFB5:
 516:../stm32f10x_lib/CMSIS/CM3/CoreSupport/core_cm3.c **** 
 517:../stm32f10x_lib/CMSIS/CM3/CoreSupport/core_cm3.c **** /**
 518:../stm32f10x_lib/CMSIS/CM3/CoreSupport/core_cm3.c ****  * @brief  Set the Base Priority value
 519:../stm32f10x_lib/CMSIS/CM3/CoreSupport/core_cm3.c ****  *
 520:../stm32f10x_lib/CMSIS/CM3/CoreSupport/core_cm3.c ****  * @param  basePri  BasePriority
 521:../stm32f10x_lib/CMSIS/CM3/CoreSupport/core_cm3.c ****  *
 522:../stm32f10x_lib/CMSIS/CM3/CoreSupport/core_cm3.c ****  * Set the base priority register
 523:../stm32f10x_lib/CMSIS/CM3/CoreSupport/core_cm3.c ****  */
 524:../stm32f10x_lib/CMSIS/CM3/CoreSupport/core_cm3.c **** void __set_BASEPRI(uint32_t value)
 525:../stm32f10x_lib/CMSIS/CM3/CoreSupport/core_cm3.c **** {
 183              		.loc 1 525 1 is_stmt 1 view -0
 184              		.cfi_startproc
 185              		@ args = 0, pretend = 0, frame = 0
 186              		@ frame_needed = 0, uses_anonymous_args = 0
 187              		@ link register save eliminated.
 526:../stm32f10x_lib/CMSIS/CM3/CoreSupport/core_cm3.c ****   __ASM volatile ("MSR basepri, %0" : : "r" (value) );
 188              		.loc 1 526 3 view .LVU22
 189              		.syntax unified
 190              	@ 526 "../stm32f10x_lib/CMSIS/CM3/CoreSupport/core_cm3.c" 1
 191 0022 80F31188 		MSR basepri, r0	@ tmp115
 192              	@ 0 "" 2
 193              	@ ../stm32f10x_lib/CMSIS/CM3/CoreSupport/core_cm3.c:527: }
 527:../stm32f10x_lib/CMSIS/CM3/CoreSupport/core_cm3.c **** }
 194              		.loc 1 527 1 is_stmt 0 view .LVU23
 195              		.thumb
 196              		.syntax unified
 197 0026 7047     		bx	lr	@
 198              		.cfi_endproc
 199              	.LFE5:
 200              		.size	__set_BASEPRI, .-__set_BASEPRI
 201              		.align	1
 202              		.global	__get_PRIMASK
 203              		.syntax unified
 204              		.thumb
 205              		.thumb_func
 206              		.type	__get_PRIMASK, %function
 207              	__get_PRIMASK:
 208              	.LFB6:
 528:../stm32f10x_lib/CMSIS/CM3/CoreSupport/core_cm3.c **** 
 529:../stm32f10x_lib/CMSIS/CM3/CoreSupport/core_cm3.c **** /**
 530:../stm32f10x_lib/CMSIS/CM3/CoreSupport/core_cm3.c ****  * @brief  Return the Priority Mask value
 531:../stm32f10x_lib/CMSIS/CM3/CoreSupport/core_cm3.c ****  *
 532:../stm32f10x_lib/CMSIS/CM3/CoreSupport/core_cm3.c ****  * @return PriMask
 533:../stm32f10x_lib/CMSIS/CM3/CoreSupport/core_cm3.c ****  *
ARM GAS  /tmp/cczVt2F9.s 			page 14


 534:../stm32f10x_lib/CMSIS/CM3/CoreSupport/core_cm3.c ****  * Return state of the priority mask bit from the priority mask register
 535:../stm32f10x_lib/CMSIS/CM3/CoreSupport/core_cm3.c ****  */
 536:../stm32f10x_lib/CMSIS/CM3/CoreSupport/core_cm3.c **** uint32_t __get_PRIMASK(void)
 537:../stm32f10x_lib/CMSIS/CM3/CoreSupport/core_cm3.c **** {
 209              		.loc 1 537 1 is_stmt 1 view -0
 210              		.cfi_startproc
 211              		@ args = 0, pretend = 0, frame = 0
 212              		@ frame_needed = 0, uses_anonymous_args = 0
 213              		@ link register save eliminated.
 538:../stm32f10x_lib/CMSIS/CM3/CoreSupport/core_cm3.c ****   uint32_t result=0;
 214              		.loc 1 538 3 view .LVU25
 215              	.LVL9:
 539:../stm32f10x_lib/CMSIS/CM3/CoreSupport/core_cm3.c **** 
 540:../stm32f10x_lib/CMSIS/CM3/CoreSupport/core_cm3.c ****   __ASM volatile ("MRS %0, primask" : "=r" (result) );
 216              		.loc 1 540 3 view .LVU26
 217              		.syntax unified
 218              	@ 540 "../stm32f10x_lib/CMSIS/CM3/CoreSupport/core_cm3.c" 1
 219 0028 EFF31080 		MRS r0, primask	@ result
 220              	@ 0 "" 2
 221              	.LVL10:
 541:../stm32f10x_lib/CMSIS/CM3/CoreSupport/core_cm3.c ****   return(result);
 222              		.loc 1 541 3 view .LVU27
 223              	@ ../stm32f10x_lib/CMSIS/CM3/CoreSupport/core_cm3.c:542: }
 542:../stm32f10x_lib/CMSIS/CM3/CoreSupport/core_cm3.c **** }
 224              		.loc 1 542 1 is_stmt 0 view .LVU28
 225              		.thumb
 226              		.syntax unified
 227 002c 7047     		bx	lr	@
 228              		.cfi_endproc
 229              	.LFE6:
 230              		.size	__get_PRIMASK, .-__get_PRIMASK
 231              		.align	1
 232              		.global	__set_PRIMASK
 233              		.syntax unified
 234              		.thumb
 235              		.thumb_func
 236              		.type	__set_PRIMASK, %function
 237              	__set_PRIMASK:
 238              	.LVL11:
 239              	.LFB7:
 543:../stm32f10x_lib/CMSIS/CM3/CoreSupport/core_cm3.c **** 
 544:../stm32f10x_lib/CMSIS/CM3/CoreSupport/core_cm3.c **** /**
 545:../stm32f10x_lib/CMSIS/CM3/CoreSupport/core_cm3.c ****  * @brief  Set the Priority Mask value
 546:../stm32f10x_lib/CMSIS/CM3/CoreSupport/core_cm3.c ****  *
 547:../stm32f10x_lib/CMSIS/CM3/CoreSupport/core_cm3.c ****  * @param  priMask  PriMask
 548:../stm32f10x_lib/CMSIS/CM3/CoreSupport/core_cm3.c ****  *
 549:../stm32f10x_lib/CMSIS/CM3/CoreSupport/core_cm3.c ****  * Set the priority mask bit in the priority mask register
 550:../stm32f10x_lib/CMSIS/CM3/CoreSupport/core_cm3.c ****  */
 551:../stm32f10x_lib/CMSIS/CM3/CoreSupport/core_cm3.c **** void __set_PRIMASK(uint32_t priMask)
 552:../stm32f10x_lib/CMSIS/CM3/CoreSupport/core_cm3.c **** {
 240              		.loc 1 552 1 is_stmt 1 view -0
 241              		.cfi_startproc
 242              		@ args = 0, pretend = 0, frame = 0
 243              		@ frame_needed = 0, uses_anonymous_args = 0
 244              		@ link register save eliminated.
 553:../stm32f10x_lib/CMSIS/CM3/CoreSupport/core_cm3.c ****   __ASM volatile ("MSR primask, %0" : : "r" (priMask) );
 245              		.loc 1 553 3 view .LVU30
ARM GAS  /tmp/cczVt2F9.s 			page 15


 246              		.syntax unified
 247              	@ 553 "../stm32f10x_lib/CMSIS/CM3/CoreSupport/core_cm3.c" 1
 248 002e 80F31088 		MSR primask, r0	@ tmp115
 249              	@ 0 "" 2
 250              	@ ../stm32f10x_lib/CMSIS/CM3/CoreSupport/core_cm3.c:554: }
 554:../stm32f10x_lib/CMSIS/CM3/CoreSupport/core_cm3.c **** }
 251              		.loc 1 554 1 is_stmt 0 view .LVU31
 252              		.thumb
 253              		.syntax unified
 254 0032 7047     		bx	lr	@
 255              		.cfi_endproc
 256              	.LFE7:
 257              		.size	__set_PRIMASK, .-__set_PRIMASK
 258              		.align	1
 259              		.global	__get_FAULTMASK
 260              		.syntax unified
 261              		.thumb
 262              		.thumb_func
 263              		.type	__get_FAULTMASK, %function
 264              	__get_FAULTMASK:
 265              	.LFB8:
 555:../stm32f10x_lib/CMSIS/CM3/CoreSupport/core_cm3.c **** 
 556:../stm32f10x_lib/CMSIS/CM3/CoreSupport/core_cm3.c **** /**
 557:../stm32f10x_lib/CMSIS/CM3/CoreSupport/core_cm3.c ****  * @brief  Return the Fault Mask value
 558:../stm32f10x_lib/CMSIS/CM3/CoreSupport/core_cm3.c ****  *
 559:../stm32f10x_lib/CMSIS/CM3/CoreSupport/core_cm3.c ****  * @return FaultMask
 560:../stm32f10x_lib/CMSIS/CM3/CoreSupport/core_cm3.c ****  *
 561:../stm32f10x_lib/CMSIS/CM3/CoreSupport/core_cm3.c ****  * Return the content of the fault mask register
 562:../stm32f10x_lib/CMSIS/CM3/CoreSupport/core_cm3.c ****  */
 563:../stm32f10x_lib/CMSIS/CM3/CoreSupport/core_cm3.c **** uint32_t __get_FAULTMASK(void)
 564:../stm32f10x_lib/CMSIS/CM3/CoreSupport/core_cm3.c **** {
 266              		.loc 1 564 1 is_stmt 1 view -0
 267              		.cfi_startproc
 268              		@ args = 0, pretend = 0, frame = 0
 269              		@ frame_needed = 0, uses_anonymous_args = 0
 270              		@ link register save eliminated.
 565:../stm32f10x_lib/CMSIS/CM3/CoreSupport/core_cm3.c ****   uint32_t result=0;
 271              		.loc 1 565 3 view .LVU33
 272              	.LVL12:
 566:../stm32f10x_lib/CMSIS/CM3/CoreSupport/core_cm3.c ****   
 567:../stm32f10x_lib/CMSIS/CM3/CoreSupport/core_cm3.c ****   __ASM volatile ("MRS %0, faultmask" : "=r" (result) );
 273              		.loc 1 567 3 view .LVU34
 274              		.syntax unified
 275              	@ 567 "../stm32f10x_lib/CMSIS/CM3/CoreSupport/core_cm3.c" 1
 276 0034 EFF31380 		MRS r0, faultmask	@ result
 277              	@ 0 "" 2
 278              	.LVL13:
 568:../stm32f10x_lib/CMSIS/CM3/CoreSupport/core_cm3.c ****   return(result);
 279              		.loc 1 568 3 view .LVU35
 280              	@ ../stm32f10x_lib/CMSIS/CM3/CoreSupport/core_cm3.c:569: }
 569:../stm32f10x_lib/CMSIS/CM3/CoreSupport/core_cm3.c **** }
 281              		.loc 1 569 1 is_stmt 0 view .LVU36
 282              		.thumb
 283              		.syntax unified
 284 0038 7047     		bx	lr	@
 285              		.cfi_endproc
 286              	.LFE8:
ARM GAS  /tmp/cczVt2F9.s 			page 16


 287              		.size	__get_FAULTMASK, .-__get_FAULTMASK
 288              		.align	1
 289              		.global	__set_FAULTMASK
 290              		.syntax unified
 291              		.thumb
 292              		.thumb_func
 293              		.type	__set_FAULTMASK, %function
 294              	__set_FAULTMASK:
 295              	.LVL14:
 296              	.LFB9:
 570:../stm32f10x_lib/CMSIS/CM3/CoreSupport/core_cm3.c **** 
 571:../stm32f10x_lib/CMSIS/CM3/CoreSupport/core_cm3.c **** /**
 572:../stm32f10x_lib/CMSIS/CM3/CoreSupport/core_cm3.c ****  * @brief  Set the Fault Mask value
 573:../stm32f10x_lib/CMSIS/CM3/CoreSupport/core_cm3.c ****  *
 574:../stm32f10x_lib/CMSIS/CM3/CoreSupport/core_cm3.c ****  * @param  faultMask  faultMask value
 575:../stm32f10x_lib/CMSIS/CM3/CoreSupport/core_cm3.c ****  *
 576:../stm32f10x_lib/CMSIS/CM3/CoreSupport/core_cm3.c ****  * Set the fault mask register
 577:../stm32f10x_lib/CMSIS/CM3/CoreSupport/core_cm3.c ****  */
 578:../stm32f10x_lib/CMSIS/CM3/CoreSupport/core_cm3.c **** void __set_FAULTMASK(uint32_t faultMask)
 579:../stm32f10x_lib/CMSIS/CM3/CoreSupport/core_cm3.c **** {
 297              		.loc 1 579 1 is_stmt 1 view -0
 298              		.cfi_startproc
 299              		@ args = 0, pretend = 0, frame = 0
 300              		@ frame_needed = 0, uses_anonymous_args = 0
 301              		@ link register save eliminated.
 580:../stm32f10x_lib/CMSIS/CM3/CoreSupport/core_cm3.c ****   __ASM volatile ("MSR faultmask, %0" : : "r" (faultMask) );
 302              		.loc 1 580 3 view .LVU38
 303              		.syntax unified
 304              	@ 580 "../stm32f10x_lib/CMSIS/CM3/CoreSupport/core_cm3.c" 1
 305 003a 80F31388 		MSR faultmask, r0	@ tmp115
 306              	@ 0 "" 2
 307              	@ ../stm32f10x_lib/CMSIS/CM3/CoreSupport/core_cm3.c:581: }
 581:../stm32f10x_lib/CMSIS/CM3/CoreSupport/core_cm3.c **** }
 308              		.loc 1 581 1 is_stmt 0 view .LVU39
 309              		.thumb
 310              		.syntax unified
 311 003e 7047     		bx	lr	@
 312              		.cfi_endproc
 313              	.LFE9:
 314              		.size	__set_FAULTMASK, .-__set_FAULTMASK
 315              		.align	1
 316              		.global	__get_CONTROL
 317              		.syntax unified
 318              		.thumb
 319              		.thumb_func
 320              		.type	__get_CONTROL, %function
 321              	__get_CONTROL:
 322              	.LFB10:
 582:../stm32f10x_lib/CMSIS/CM3/CoreSupport/core_cm3.c **** 
 583:../stm32f10x_lib/CMSIS/CM3/CoreSupport/core_cm3.c **** /**
 584:../stm32f10x_lib/CMSIS/CM3/CoreSupport/core_cm3.c ****  * @brief  Return the Control Register value
 585:../stm32f10x_lib/CMSIS/CM3/CoreSupport/core_cm3.c **** * 
 586:../stm32f10x_lib/CMSIS/CM3/CoreSupport/core_cm3.c **** *  @return Control value
 587:../stm32f10x_lib/CMSIS/CM3/CoreSupport/core_cm3.c ****  *
 588:../stm32f10x_lib/CMSIS/CM3/CoreSupport/core_cm3.c ****  * Return the content of the control register
 589:../stm32f10x_lib/CMSIS/CM3/CoreSupport/core_cm3.c ****  */
 590:../stm32f10x_lib/CMSIS/CM3/CoreSupport/core_cm3.c **** uint32_t __get_CONTROL(void)
ARM GAS  /tmp/cczVt2F9.s 			page 17


 591:../stm32f10x_lib/CMSIS/CM3/CoreSupport/core_cm3.c **** {
 323              		.loc 1 591 1 is_stmt 1 view -0
 324              		.cfi_startproc
 325              		@ args = 0, pretend = 0, frame = 0
 326              		@ frame_needed = 0, uses_anonymous_args = 0
 327              		@ link register save eliminated.
 592:../stm32f10x_lib/CMSIS/CM3/CoreSupport/core_cm3.c ****   uint32_t result=0;
 328              		.loc 1 592 3 view .LVU41
 329              	.LVL15:
 593:../stm32f10x_lib/CMSIS/CM3/CoreSupport/core_cm3.c **** 
 594:../stm32f10x_lib/CMSIS/CM3/CoreSupport/core_cm3.c ****   __ASM volatile ("MRS %0, control" : "=r" (result) );
 330              		.loc 1 594 3 view .LVU42
 331              		.syntax unified
 332              	@ 594 "../stm32f10x_lib/CMSIS/CM3/CoreSupport/core_cm3.c" 1
 333 0040 EFF31480 		MRS r0, control	@ result
 334              	@ 0 "" 2
 335              	.LVL16:
 595:../stm32f10x_lib/CMSIS/CM3/CoreSupport/core_cm3.c ****   return(result);
 336              		.loc 1 595 3 view .LVU43
 337              	@ ../stm32f10x_lib/CMSIS/CM3/CoreSupport/core_cm3.c:596: }
 596:../stm32f10x_lib/CMSIS/CM3/CoreSupport/core_cm3.c **** }
 338              		.loc 1 596 1 is_stmt 0 view .LVU44
 339              		.thumb
 340              		.syntax unified
 341 0044 7047     		bx	lr	@
 342              		.cfi_endproc
 343              	.LFE10:
 344              		.size	__get_CONTROL, .-__get_CONTROL
 345              		.align	1
 346              		.global	__set_CONTROL
 347              		.syntax unified
 348              		.thumb
 349              		.thumb_func
 350              		.type	__set_CONTROL, %function
 351              	__set_CONTROL:
 352              	.LVL17:
 353              	.LFB11:
 597:../stm32f10x_lib/CMSIS/CM3/CoreSupport/core_cm3.c **** 
 598:../stm32f10x_lib/CMSIS/CM3/CoreSupport/core_cm3.c **** /**
 599:../stm32f10x_lib/CMSIS/CM3/CoreSupport/core_cm3.c ****  * @brief  Set the Control Register value
 600:../stm32f10x_lib/CMSIS/CM3/CoreSupport/core_cm3.c ****  *
 601:../stm32f10x_lib/CMSIS/CM3/CoreSupport/core_cm3.c ****  * @param  control  Control value
 602:../stm32f10x_lib/CMSIS/CM3/CoreSupport/core_cm3.c ****  *
 603:../stm32f10x_lib/CMSIS/CM3/CoreSupport/core_cm3.c ****  * Set the control register
 604:../stm32f10x_lib/CMSIS/CM3/CoreSupport/core_cm3.c ****  */
 605:../stm32f10x_lib/CMSIS/CM3/CoreSupport/core_cm3.c **** void __set_CONTROL(uint32_t control)
 606:../stm32f10x_lib/CMSIS/CM3/CoreSupport/core_cm3.c **** {
 354              		.loc 1 606 1 is_stmt 1 view -0
 355              		.cfi_startproc
 356              		@ args = 0, pretend = 0, frame = 0
 357              		@ frame_needed = 0, uses_anonymous_args = 0
 358              		@ link register save eliminated.
 607:../stm32f10x_lib/CMSIS/CM3/CoreSupport/core_cm3.c ****   __ASM volatile ("MSR control, %0" : : "r" (control) );
 359              		.loc 1 607 3 view .LVU46
 360              		.syntax unified
 361              	@ 607 "../stm32f10x_lib/CMSIS/CM3/CoreSupport/core_cm3.c" 1
 362 0046 80F31488 		MSR control, r0	@ tmp115
ARM GAS  /tmp/cczVt2F9.s 			page 18


 363              	@ 0 "" 2
 364              	@ ../stm32f10x_lib/CMSIS/CM3/CoreSupport/core_cm3.c:608: }
 608:../stm32f10x_lib/CMSIS/CM3/CoreSupport/core_cm3.c **** }
 365              		.loc 1 608 1 is_stmt 0 view .LVU47
 366              		.thumb
 367              		.syntax unified
 368 004a 7047     		bx	lr	@
 369              		.cfi_endproc
 370              	.LFE11:
 371              		.size	__set_CONTROL, .-__set_CONTROL
 372              		.align	1
 373              		.global	__REV
 374              		.syntax unified
 375              		.thumb
 376              		.thumb_func
 377              		.type	__REV, %function
 378              	__REV:
 379              	.LVL18:
 380              	.LFB12:
 609:../stm32f10x_lib/CMSIS/CM3/CoreSupport/core_cm3.c **** 
 610:../stm32f10x_lib/CMSIS/CM3/CoreSupport/core_cm3.c **** 
 611:../stm32f10x_lib/CMSIS/CM3/CoreSupport/core_cm3.c **** /**
 612:../stm32f10x_lib/CMSIS/CM3/CoreSupport/core_cm3.c ****  * @brief  Reverse byte order in integer value
 613:../stm32f10x_lib/CMSIS/CM3/CoreSupport/core_cm3.c ****  *
 614:../stm32f10x_lib/CMSIS/CM3/CoreSupport/core_cm3.c ****  * @param  value  value to reverse
 615:../stm32f10x_lib/CMSIS/CM3/CoreSupport/core_cm3.c ****  * @return        reversed value
 616:../stm32f10x_lib/CMSIS/CM3/CoreSupport/core_cm3.c ****  *
 617:../stm32f10x_lib/CMSIS/CM3/CoreSupport/core_cm3.c ****  * Reverse byte order in integer value
 618:../stm32f10x_lib/CMSIS/CM3/CoreSupport/core_cm3.c ****  */
 619:../stm32f10x_lib/CMSIS/CM3/CoreSupport/core_cm3.c **** uint32_t __REV(uint32_t value)
 620:../stm32f10x_lib/CMSIS/CM3/CoreSupport/core_cm3.c **** {
 381              		.loc 1 620 1 is_stmt 1 view -0
 382              		.cfi_startproc
 383              		@ args = 0, pretend = 0, frame = 0
 384              		@ frame_needed = 0, uses_anonymous_args = 0
 385              		@ link register save eliminated.
 621:../stm32f10x_lib/CMSIS/CM3/CoreSupport/core_cm3.c ****   uint32_t result=0;
 386              		.loc 1 621 3 view .LVU49
 622:../stm32f10x_lib/CMSIS/CM3/CoreSupport/core_cm3.c ****   
 623:../stm32f10x_lib/CMSIS/CM3/CoreSupport/core_cm3.c ****   __ASM volatile ("rev %0, %1" : "=r" (result) : "r" (value) );
 387              		.loc 1 623 3 view .LVU50
 388              		.syntax unified
 389              	@ 623 "../stm32f10x_lib/CMSIS/CM3/CoreSupport/core_cm3.c" 1
 390 004c 00BA     		rev r0, r0	@ result, tmp118
 391              	@ 0 "" 2
 392              	.LVL19:
 624:../stm32f10x_lib/CMSIS/CM3/CoreSupport/core_cm3.c ****   return(result);
 393              		.loc 1 624 3 view .LVU51
 394              	@ ../stm32f10x_lib/CMSIS/CM3/CoreSupport/core_cm3.c:625: }
 625:../stm32f10x_lib/CMSIS/CM3/CoreSupport/core_cm3.c **** }
 395              		.loc 1 625 1 is_stmt 0 view .LVU52
 396              		.thumb
 397              		.syntax unified
 398 004e 7047     		bx	lr	@
 399              		.cfi_endproc
 400              	.LFE12:
 401              		.size	__REV, .-__REV
ARM GAS  /tmp/cczVt2F9.s 			page 19


 402              		.align	1
 403              		.global	__REV16
 404              		.syntax unified
 405              		.thumb
 406              		.thumb_func
 407              		.type	__REV16, %function
 408              	__REV16:
 409              	.LVL20:
 410              	.LFB13:
 626:../stm32f10x_lib/CMSIS/CM3/CoreSupport/core_cm3.c **** 
 627:../stm32f10x_lib/CMSIS/CM3/CoreSupport/core_cm3.c **** /**
 628:../stm32f10x_lib/CMSIS/CM3/CoreSupport/core_cm3.c ****  * @brief  Reverse byte order in unsigned short value
 629:../stm32f10x_lib/CMSIS/CM3/CoreSupport/core_cm3.c ****  *
 630:../stm32f10x_lib/CMSIS/CM3/CoreSupport/core_cm3.c ****  * @param  value  value to reverse
 631:../stm32f10x_lib/CMSIS/CM3/CoreSupport/core_cm3.c ****  * @return        reversed value
 632:../stm32f10x_lib/CMSIS/CM3/CoreSupport/core_cm3.c ****  *
 633:../stm32f10x_lib/CMSIS/CM3/CoreSupport/core_cm3.c ****  * Reverse byte order in unsigned short value
 634:../stm32f10x_lib/CMSIS/CM3/CoreSupport/core_cm3.c ****  */
 635:../stm32f10x_lib/CMSIS/CM3/CoreSupport/core_cm3.c **** uint32_t __REV16(uint16_t value)
 636:../stm32f10x_lib/CMSIS/CM3/CoreSupport/core_cm3.c **** {
 411              		.loc 1 636 1 is_stmt 1 view -0
 412              		.cfi_startproc
 413              		@ args = 0, pretend = 0, frame = 0
 414              		@ frame_needed = 0, uses_anonymous_args = 0
 415              		@ link register save eliminated.
 637:../stm32f10x_lib/CMSIS/CM3/CoreSupport/core_cm3.c ****   uint32_t result=0;
 416              		.loc 1 637 3 view .LVU54
 638:../stm32f10x_lib/CMSIS/CM3/CoreSupport/core_cm3.c ****   
 639:../stm32f10x_lib/CMSIS/CM3/CoreSupport/core_cm3.c ****   __ASM volatile ("rev16 %0, %1" : "=r" (result) : "r" (value) );
 417              		.loc 1 639 3 view .LVU55
 418              		.syntax unified
 419              	@ 639 "../stm32f10x_lib/CMSIS/CM3/CoreSupport/core_cm3.c" 1
 420 0050 40BA     		rev16 r0, r0	@ result, tmp118
 421              	@ 0 "" 2
 422              	.LVL21:
 640:../stm32f10x_lib/CMSIS/CM3/CoreSupport/core_cm3.c ****   return(result);
 423              		.loc 1 640 3 view .LVU56
 424              	@ ../stm32f10x_lib/CMSIS/CM3/CoreSupport/core_cm3.c:641: }
 641:../stm32f10x_lib/CMSIS/CM3/CoreSupport/core_cm3.c **** }
 425              		.loc 1 641 1 is_stmt 0 view .LVU57
 426              		.thumb
 427              		.syntax unified
 428 0052 7047     		bx	lr	@
 429              		.cfi_endproc
 430              	.LFE13:
 431              		.size	__REV16, .-__REV16
 432              		.align	1
 433              		.global	__REVSH
 434              		.syntax unified
 435              		.thumb
 436              		.thumb_func
 437              		.type	__REVSH, %function
 438              	__REVSH:
 439              	.LVL22:
 440              	.LFB14:
 642:../stm32f10x_lib/CMSIS/CM3/CoreSupport/core_cm3.c **** 
 643:../stm32f10x_lib/CMSIS/CM3/CoreSupport/core_cm3.c **** /**
ARM GAS  /tmp/cczVt2F9.s 			page 20


 644:../stm32f10x_lib/CMSIS/CM3/CoreSupport/core_cm3.c ****  * @brief  Reverse byte order in signed short value with sign extension to integer
 645:../stm32f10x_lib/CMSIS/CM3/CoreSupport/core_cm3.c ****  *
 646:../stm32f10x_lib/CMSIS/CM3/CoreSupport/core_cm3.c ****  * @param  value  value to reverse
 647:../stm32f10x_lib/CMSIS/CM3/CoreSupport/core_cm3.c ****  * @return        reversed value
 648:../stm32f10x_lib/CMSIS/CM3/CoreSupport/core_cm3.c ****  *
 649:../stm32f10x_lib/CMSIS/CM3/CoreSupport/core_cm3.c ****  * Reverse byte order in signed short value with sign extension to integer
 650:../stm32f10x_lib/CMSIS/CM3/CoreSupport/core_cm3.c ****  */
 651:../stm32f10x_lib/CMSIS/CM3/CoreSupport/core_cm3.c **** int32_t __REVSH(int16_t value)
 652:../stm32f10x_lib/CMSIS/CM3/CoreSupport/core_cm3.c **** {
 441              		.loc 1 652 1 is_stmt 1 view -0
 442              		.cfi_startproc
 443              		@ args = 0, pretend = 0, frame = 0
 444              		@ frame_needed = 0, uses_anonymous_args = 0
 445              		@ link register save eliminated.
 653:../stm32f10x_lib/CMSIS/CM3/CoreSupport/core_cm3.c ****   uint32_t result=0;
 446              		.loc 1 653 3 view .LVU59
 654:../stm32f10x_lib/CMSIS/CM3/CoreSupport/core_cm3.c ****   
 655:../stm32f10x_lib/CMSIS/CM3/CoreSupport/core_cm3.c ****   __ASM volatile ("revsh %0, %1" : "=r" (result) : "r" (value) );
 447              		.loc 1 655 3 view .LVU60
 448              		.syntax unified
 449              	@ 655 "../stm32f10x_lib/CMSIS/CM3/CoreSupport/core_cm3.c" 1
 450 0054 C0BA     		revsh r0, r0	@ result, tmp119
 451              	@ 0 "" 2
 452              	.LVL23:
 656:../stm32f10x_lib/CMSIS/CM3/CoreSupport/core_cm3.c ****   return(result);
 453              		.loc 1 656 3 view .LVU61
 454              	@ ../stm32f10x_lib/CMSIS/CM3/CoreSupport/core_cm3.c:657: }
 657:../stm32f10x_lib/CMSIS/CM3/CoreSupport/core_cm3.c **** }
 455              		.loc 1 657 1 is_stmt 0 view .LVU62
 456              		.thumb
 457              		.syntax unified
 458 0056 7047     		bx	lr	@
 459              		.cfi_endproc
 460              	.LFE14:
 461              		.size	__REVSH, .-__REVSH
 462              		.align	1
 463              		.global	__RBIT
 464              		.syntax unified
 465              		.thumb
 466              		.thumb_func
 467              		.type	__RBIT, %function
 468              	__RBIT:
 469              	.LVL24:
 470              	.LFB15:
 658:../stm32f10x_lib/CMSIS/CM3/CoreSupport/core_cm3.c **** 
 659:../stm32f10x_lib/CMSIS/CM3/CoreSupport/core_cm3.c **** /**
 660:../stm32f10x_lib/CMSIS/CM3/CoreSupport/core_cm3.c ****  * @brief  Reverse bit order of value
 661:../stm32f10x_lib/CMSIS/CM3/CoreSupport/core_cm3.c ****  *
 662:../stm32f10x_lib/CMSIS/CM3/CoreSupport/core_cm3.c ****  * @param  value  value to reverse
 663:../stm32f10x_lib/CMSIS/CM3/CoreSupport/core_cm3.c ****  * @return        reversed value
 664:../stm32f10x_lib/CMSIS/CM3/CoreSupport/core_cm3.c ****  *
 665:../stm32f10x_lib/CMSIS/CM3/CoreSupport/core_cm3.c ****  * Reverse bit order of value
 666:../stm32f10x_lib/CMSIS/CM3/CoreSupport/core_cm3.c ****  */
 667:../stm32f10x_lib/CMSIS/CM3/CoreSupport/core_cm3.c **** uint32_t __RBIT(uint32_t value)
 668:../stm32f10x_lib/CMSIS/CM3/CoreSupport/core_cm3.c **** {
 471              		.loc 1 668 1 is_stmt 1 view -0
 472              		.cfi_startproc
ARM GAS  /tmp/cczVt2F9.s 			page 21


 473              		@ args = 0, pretend = 0, frame = 0
 474              		@ frame_needed = 0, uses_anonymous_args = 0
 475              		@ link register save eliminated.
 669:../stm32f10x_lib/CMSIS/CM3/CoreSupport/core_cm3.c ****   uint32_t result=0;
 476              		.loc 1 669 3 view .LVU64
 670:../stm32f10x_lib/CMSIS/CM3/CoreSupport/core_cm3.c ****   
 671:../stm32f10x_lib/CMSIS/CM3/CoreSupport/core_cm3.c ****    __ASM volatile ("rbit %0, %1" : "=r" (result) : "r" (value) );
 477              		.loc 1 671 4 view .LVU65
 478              		.syntax unified
 479              	@ 671 "../stm32f10x_lib/CMSIS/CM3/CoreSupport/core_cm3.c" 1
 480 0058 90FAA0F0 		rbit r0, r0	@ result, tmp118
 481              	@ 0 "" 2
 482              	.LVL25:
 672:../stm32f10x_lib/CMSIS/CM3/CoreSupport/core_cm3.c ****    return(result);
 483              		.loc 1 672 4 view .LVU66
 484              	@ ../stm32f10x_lib/CMSIS/CM3/CoreSupport/core_cm3.c:673: }
 673:../stm32f10x_lib/CMSIS/CM3/CoreSupport/core_cm3.c **** }
 485              		.loc 1 673 1 is_stmt 0 view .LVU67
 486              		.thumb
 487              		.syntax unified
 488 005c 7047     		bx	lr	@
 489              		.cfi_endproc
 490              	.LFE15:
 491              		.size	__RBIT, .-__RBIT
 492              		.align	1
 493              		.global	__LDREXB
 494              		.syntax unified
 495              		.thumb
 496              		.thumb_func
 497              		.type	__LDREXB, %function
 498              	__LDREXB:
 499              	.LVL26:
 500              	.LFB16:
 674:../stm32f10x_lib/CMSIS/CM3/CoreSupport/core_cm3.c **** 
 675:../stm32f10x_lib/CMSIS/CM3/CoreSupport/core_cm3.c **** /**
 676:../stm32f10x_lib/CMSIS/CM3/CoreSupport/core_cm3.c ****  * @brief  LDR Exclusive (8 bit)
 677:../stm32f10x_lib/CMSIS/CM3/CoreSupport/core_cm3.c ****  *
 678:../stm32f10x_lib/CMSIS/CM3/CoreSupport/core_cm3.c ****  * @param  *addr  address pointer
 679:../stm32f10x_lib/CMSIS/CM3/CoreSupport/core_cm3.c ****  * @return        value of (*address)
 680:../stm32f10x_lib/CMSIS/CM3/CoreSupport/core_cm3.c ****  *
 681:../stm32f10x_lib/CMSIS/CM3/CoreSupport/core_cm3.c ****  * Exclusive LDR command for 8 bit value
 682:../stm32f10x_lib/CMSIS/CM3/CoreSupport/core_cm3.c ****  */
 683:../stm32f10x_lib/CMSIS/CM3/CoreSupport/core_cm3.c **** uint8_t __LDREXB(uint8_t *addr)
 684:../stm32f10x_lib/CMSIS/CM3/CoreSupport/core_cm3.c **** {
 501              		.loc 1 684 1 is_stmt 1 view -0
 502              		.cfi_startproc
 503              		@ args = 0, pretend = 0, frame = 0
 504              		@ frame_needed = 0, uses_anonymous_args = 0
 505              		@ link register save eliminated.
 685:../stm32f10x_lib/CMSIS/CM3/CoreSupport/core_cm3.c ****     uint8_t result=0;
 506              		.loc 1 685 5 view .LVU69
 686:../stm32f10x_lib/CMSIS/CM3/CoreSupport/core_cm3.c ****   
 687:../stm32f10x_lib/CMSIS/CM3/CoreSupport/core_cm3.c ****    __ASM volatile ("ldrexb %0, [%1]" : "=r" (result) : "r" (addr) );
 507              		.loc 1 687 4 view .LVU70
 508              		.syntax unified
 509              	@ 687 "../stm32f10x_lib/CMSIS/CM3/CoreSupport/core_cm3.c" 1
 510 005e D0E84F0F 		ldrexb r0, [r0]	@ result, tmp118
ARM GAS  /tmp/cczVt2F9.s 			page 22


 511              	@ 0 "" 2
 512              	.LVL27:
 688:../stm32f10x_lib/CMSIS/CM3/CoreSupport/core_cm3.c ****    return(result);
 513              		.loc 1 688 4 view .LVU71
 514              	@ ../stm32f10x_lib/CMSIS/CM3/CoreSupport/core_cm3.c:689: }
 689:../stm32f10x_lib/CMSIS/CM3/CoreSupport/core_cm3.c **** }
 515              		.loc 1 689 1 is_stmt 0 view .LVU72
 516              		.thumb
 517              		.syntax unified
 518 0062 C0B2     		uxtb	r0, r0	@, result
 519              		.loc 1 689 1 view .LVU73
 520 0064 7047     		bx	lr	@
 521              		.cfi_endproc
 522              	.LFE16:
 523              		.size	__LDREXB, .-__LDREXB
 524              		.align	1
 525              		.global	__LDREXH
 526              		.syntax unified
 527              		.thumb
 528              		.thumb_func
 529              		.type	__LDREXH, %function
 530              	__LDREXH:
 531              	.LVL28:
 532              	.LFB17:
 690:../stm32f10x_lib/CMSIS/CM3/CoreSupport/core_cm3.c **** 
 691:../stm32f10x_lib/CMSIS/CM3/CoreSupport/core_cm3.c **** /**
 692:../stm32f10x_lib/CMSIS/CM3/CoreSupport/core_cm3.c ****  * @brief  LDR Exclusive (16 bit)
 693:../stm32f10x_lib/CMSIS/CM3/CoreSupport/core_cm3.c ****  *
 694:../stm32f10x_lib/CMSIS/CM3/CoreSupport/core_cm3.c ****  * @param  *addr  address pointer
 695:../stm32f10x_lib/CMSIS/CM3/CoreSupport/core_cm3.c ****  * @return        value of (*address)
 696:../stm32f10x_lib/CMSIS/CM3/CoreSupport/core_cm3.c ****  *
 697:../stm32f10x_lib/CMSIS/CM3/CoreSupport/core_cm3.c ****  * Exclusive LDR command for 16 bit values
 698:../stm32f10x_lib/CMSIS/CM3/CoreSupport/core_cm3.c ****  */
 699:../stm32f10x_lib/CMSIS/CM3/CoreSupport/core_cm3.c **** uint16_t __LDREXH(uint16_t *addr)
 700:../stm32f10x_lib/CMSIS/CM3/CoreSupport/core_cm3.c **** {
 533              		.loc 1 700 1 is_stmt 1 view -0
 534              		.cfi_startproc
 535              		@ args = 0, pretend = 0, frame = 0
 536              		@ frame_needed = 0, uses_anonymous_args = 0
 537              		@ link register save eliminated.
 701:../stm32f10x_lib/CMSIS/CM3/CoreSupport/core_cm3.c ****     uint16_t result=0;
 538              		.loc 1 701 5 view .LVU75
 702:../stm32f10x_lib/CMSIS/CM3/CoreSupport/core_cm3.c ****   
 703:../stm32f10x_lib/CMSIS/CM3/CoreSupport/core_cm3.c ****    __ASM volatile ("ldrexh %0, [%1]" : "=r" (result) : "r" (addr) );
 539              		.loc 1 703 4 view .LVU76
 540              		.syntax unified
 541              	@ 703 "../stm32f10x_lib/CMSIS/CM3/CoreSupport/core_cm3.c" 1
 542 0066 D0E85F0F 		ldrexh r0, [r0]	@ result, tmp118
 543              	@ 0 "" 2
 544              	.LVL29:
 704:../stm32f10x_lib/CMSIS/CM3/CoreSupport/core_cm3.c ****    return(result);
 545              		.loc 1 704 4 view .LVU77
 546              	@ ../stm32f10x_lib/CMSIS/CM3/CoreSupport/core_cm3.c:705: }
 705:../stm32f10x_lib/CMSIS/CM3/CoreSupport/core_cm3.c **** }
 547              		.loc 1 705 1 is_stmt 0 view .LVU78
 548              		.thumb
 549              		.syntax unified
ARM GAS  /tmp/cczVt2F9.s 			page 23


 550 006a 80B2     		uxth	r0, r0	@, result
 551              		.loc 1 705 1 view .LVU79
 552 006c 7047     		bx	lr	@
 553              		.cfi_endproc
 554              	.LFE17:
 555              		.size	__LDREXH, .-__LDREXH
 556              		.align	1
 557              		.global	__LDREXW
 558              		.syntax unified
 559              		.thumb
 560              		.thumb_func
 561              		.type	__LDREXW, %function
 562              	__LDREXW:
 563              	.LVL30:
 564              	.LFB18:
 706:../stm32f10x_lib/CMSIS/CM3/CoreSupport/core_cm3.c **** 
 707:../stm32f10x_lib/CMSIS/CM3/CoreSupport/core_cm3.c **** /**
 708:../stm32f10x_lib/CMSIS/CM3/CoreSupport/core_cm3.c ****  * @brief  LDR Exclusive (32 bit)
 709:../stm32f10x_lib/CMSIS/CM3/CoreSupport/core_cm3.c ****  *
 710:../stm32f10x_lib/CMSIS/CM3/CoreSupport/core_cm3.c ****  * @param  *addr  address pointer
 711:../stm32f10x_lib/CMSIS/CM3/CoreSupport/core_cm3.c ****  * @return        value of (*address)
 712:../stm32f10x_lib/CMSIS/CM3/CoreSupport/core_cm3.c ****  *
 713:../stm32f10x_lib/CMSIS/CM3/CoreSupport/core_cm3.c ****  * Exclusive LDR command for 32 bit values
 714:../stm32f10x_lib/CMSIS/CM3/CoreSupport/core_cm3.c ****  */
 715:../stm32f10x_lib/CMSIS/CM3/CoreSupport/core_cm3.c **** uint32_t __LDREXW(uint32_t *addr)
 716:../stm32f10x_lib/CMSIS/CM3/CoreSupport/core_cm3.c **** {
 565              		.loc 1 716 1 is_stmt 1 view -0
 566              		.cfi_startproc
 567              		@ args = 0, pretend = 0, frame = 0
 568              		@ frame_needed = 0, uses_anonymous_args = 0
 569              		@ link register save eliminated.
 717:../stm32f10x_lib/CMSIS/CM3/CoreSupport/core_cm3.c ****     uint32_t result=0;
 570              		.loc 1 717 5 view .LVU81
 718:../stm32f10x_lib/CMSIS/CM3/CoreSupport/core_cm3.c ****   
 719:../stm32f10x_lib/CMSIS/CM3/CoreSupport/core_cm3.c ****    __ASM volatile ("ldrex %0, [%1]" : "=r" (result) : "r" (addr) );
 571              		.loc 1 719 4 view .LVU82
 572              		.syntax unified
 573              	@ 719 "../stm32f10x_lib/CMSIS/CM3/CoreSupport/core_cm3.c" 1
 574 006e 50E8000F 		ldrex r0, [r0]	@ result, tmp118
 575              	@ 0 "" 2
 576              	.LVL31:
 720:../stm32f10x_lib/CMSIS/CM3/CoreSupport/core_cm3.c ****    return(result);
 577              		.loc 1 720 4 view .LVU83
 578              	@ ../stm32f10x_lib/CMSIS/CM3/CoreSupport/core_cm3.c:721: }
 721:../stm32f10x_lib/CMSIS/CM3/CoreSupport/core_cm3.c **** }
 579              		.loc 1 721 1 is_stmt 0 view .LVU84
 580              		.thumb
 581              		.syntax unified
 582 0072 7047     		bx	lr	@
 583              		.cfi_endproc
 584              	.LFE18:
 585              		.size	__LDREXW, .-__LDREXW
 586              		.align	1
 587              		.global	__STREXB
 588              		.syntax unified
 589              		.thumb
 590              		.thumb_func
ARM GAS  /tmp/cczVt2F9.s 			page 24


 591              		.type	__STREXB, %function
 592              	__STREXB:
 593              	.LVL32:
 594              	.LFB19:
 722:../stm32f10x_lib/CMSIS/CM3/CoreSupport/core_cm3.c **** 
 723:../stm32f10x_lib/CMSIS/CM3/CoreSupport/core_cm3.c **** /**
 724:../stm32f10x_lib/CMSIS/CM3/CoreSupport/core_cm3.c ****  * @brief  STR Exclusive (8 bit)
 725:../stm32f10x_lib/CMSIS/CM3/CoreSupport/core_cm3.c ****  *
 726:../stm32f10x_lib/CMSIS/CM3/CoreSupport/core_cm3.c ****  * @param  value  value to store
 727:../stm32f10x_lib/CMSIS/CM3/CoreSupport/core_cm3.c ****  * @param  *addr  address pointer
 728:../stm32f10x_lib/CMSIS/CM3/CoreSupport/core_cm3.c ****  * @return        successful / failed
 729:../stm32f10x_lib/CMSIS/CM3/CoreSupport/core_cm3.c ****  *
 730:../stm32f10x_lib/CMSIS/CM3/CoreSupport/core_cm3.c ****  * Exclusive STR command for 8 bit values
 731:../stm32f10x_lib/CMSIS/CM3/CoreSupport/core_cm3.c ****  */
 732:../stm32f10x_lib/CMSIS/CM3/CoreSupport/core_cm3.c **** uint32_t __STREXB(uint8_t value, uint8_t *addr)
 733:../stm32f10x_lib/CMSIS/CM3/CoreSupport/core_cm3.c **** {
 595              		.loc 1 733 1 is_stmt 1 view -0
 596              		.cfi_startproc
 597              		@ args = 0, pretend = 0, frame = 0
 598              		@ frame_needed = 0, uses_anonymous_args = 0
 599              		@ link register save eliminated.
 734:../stm32f10x_lib/CMSIS/CM3/CoreSupport/core_cm3.c ****    //uint32_t result=0;
 735:../stm32f10x_lib/CMSIS/CM3/CoreSupport/core_cm3.c ****    register uint32_t result asm ("r2");
 600              		.loc 1 735 4 view .LVU86
 736:../stm32f10x_lib/CMSIS/CM3/CoreSupport/core_cm3.c ****    __ASM volatile ("strexb %0, %2, [%1]" : "=r" (result) : "r" (addr), "r" (value) );
 601              		.loc 1 736 4 view .LVU87
 602              		.syntax unified
 603              	@ 736 "../stm32f10x_lib/CMSIS/CM3/CoreSupport/core_cm3.c" 1
 604 0074 C1E8420F 		strexb r2, r0, [r1]	@ result, tmp118, tmp119
 605              	@ 0 "" 2
 737:../stm32f10x_lib/CMSIS/CM3/CoreSupport/core_cm3.c ****    return(result);
 606              		.loc 1 737 4 view .LVU88
 607              	@ ../stm32f10x_lib/CMSIS/CM3/CoreSupport/core_cm3.c:738: }
 738:../stm32f10x_lib/CMSIS/CM3/CoreSupport/core_cm3.c **** }
 608              		.loc 1 738 1 is_stmt 0 view .LVU89
 609              		.thumb
 610              		.syntax unified
 611 0078 1046     		mov	r0, r2	@, tmp120
 612              	.LVL33:
 613              		.loc 1 738 1 view .LVU90
 614 007a 7047     		bx	lr	@
 615              		.cfi_endproc
 616              	.LFE19:
 617              		.size	__STREXB, .-__STREXB
 618              		.align	1
 619              		.global	__STREXH
 620              		.syntax unified
 621              		.thumb
 622              		.thumb_func
 623              		.type	__STREXH, %function
 624              	__STREXH:
 625              	.LVL34:
 626              	.LFB20:
 739:../stm32f10x_lib/CMSIS/CM3/CoreSupport/core_cm3.c **** 
 740:../stm32f10x_lib/CMSIS/CM3/CoreSupport/core_cm3.c **** /**
 741:../stm32f10x_lib/CMSIS/CM3/CoreSupport/core_cm3.c ****  * @brief  STR Exclusive (16 bit)
 742:../stm32f10x_lib/CMSIS/CM3/CoreSupport/core_cm3.c ****  *
ARM GAS  /tmp/cczVt2F9.s 			page 25


 743:../stm32f10x_lib/CMSIS/CM3/CoreSupport/core_cm3.c ****  * @param  value  value to store
 744:../stm32f10x_lib/CMSIS/CM3/CoreSupport/core_cm3.c ****  * @param  *addr  address pointer
 745:../stm32f10x_lib/CMSIS/CM3/CoreSupport/core_cm3.c ****  * @return        successful / failed
 746:../stm32f10x_lib/CMSIS/CM3/CoreSupport/core_cm3.c ****  *
 747:../stm32f10x_lib/CMSIS/CM3/CoreSupport/core_cm3.c ****  * Exclusive STR command for 16 bit values
 748:../stm32f10x_lib/CMSIS/CM3/CoreSupport/core_cm3.c ****  */
 749:../stm32f10x_lib/CMSIS/CM3/CoreSupport/core_cm3.c **** uint32_t __STREXH(uint16_t value, uint16_t *addr)
 750:../stm32f10x_lib/CMSIS/CM3/CoreSupport/core_cm3.c **** {
 627              		.loc 1 750 1 is_stmt 1 view -0
 628              		.cfi_startproc
 629              		@ args = 0, pretend = 0, frame = 0
 630              		@ frame_needed = 0, uses_anonymous_args = 0
 631              		@ link register save eliminated.
 751:../stm32f10x_lib/CMSIS/CM3/CoreSupport/core_cm3.c ****    //uint32_t result=0;
 752:../stm32f10x_lib/CMSIS/CM3/CoreSupport/core_cm3.c ****    register uint32_t result asm ("r2");
 632              		.loc 1 752 4 view .LVU92
 753:../stm32f10x_lib/CMSIS/CM3/CoreSupport/core_cm3.c ****    __ASM volatile ("strexh %0, %2, [%1]" : "=r" (result) : "r" (addr), "r" (value) );
 633              		.loc 1 753 4 view .LVU93
 634              		.syntax unified
 635              	@ 753 "../stm32f10x_lib/CMSIS/CM3/CoreSupport/core_cm3.c" 1
 636 007c C1E8520F 		strexh r2, r0, [r1]	@ result, tmp118, tmp119
 637              	@ 0 "" 2
 754:../stm32f10x_lib/CMSIS/CM3/CoreSupport/core_cm3.c ****    return(result);
 638              		.loc 1 754 4 view .LVU94
 639              	@ ../stm32f10x_lib/CMSIS/CM3/CoreSupport/core_cm3.c:755: }
 755:../stm32f10x_lib/CMSIS/CM3/CoreSupport/core_cm3.c **** }
 640              		.loc 1 755 1 is_stmt 0 view .LVU95
 641              		.thumb
 642              		.syntax unified
 643 0080 1046     		mov	r0, r2	@, tmp120
 644              	.LVL35:
 645              		.loc 1 755 1 view .LVU96
 646 0082 7047     		bx	lr	@
 647              		.cfi_endproc
 648              	.LFE20:
 649              		.size	__STREXH, .-__STREXH
 650              		.align	1
 651              		.global	__STREXW
 652              		.syntax unified
 653              		.thumb
 654              		.thumb_func
 655              		.type	__STREXW, %function
 656              	__STREXW:
 657              	.LVL36:
 658              	.LFB21:
 756:../stm32f10x_lib/CMSIS/CM3/CoreSupport/core_cm3.c **** 
 757:../stm32f10x_lib/CMSIS/CM3/CoreSupport/core_cm3.c **** /**
 758:../stm32f10x_lib/CMSIS/CM3/CoreSupport/core_cm3.c ****  * @brief  STR Exclusive (32 bit)
 759:../stm32f10x_lib/CMSIS/CM3/CoreSupport/core_cm3.c ****  *
 760:../stm32f10x_lib/CMSIS/CM3/CoreSupport/core_cm3.c ****  * @param  value  value to store
 761:../stm32f10x_lib/CMSIS/CM3/CoreSupport/core_cm3.c ****  * @param  *addr  address pointer
 762:../stm32f10x_lib/CMSIS/CM3/CoreSupport/core_cm3.c ****  * @return        successful / failed
 763:../stm32f10x_lib/CMSIS/CM3/CoreSupport/core_cm3.c ****  *
 764:../stm32f10x_lib/CMSIS/CM3/CoreSupport/core_cm3.c ****  * Exclusive STR command for 32 bit values
 765:../stm32f10x_lib/CMSIS/CM3/CoreSupport/core_cm3.c ****  */
 766:../stm32f10x_lib/CMSIS/CM3/CoreSupport/core_cm3.c **** uint32_t __STREXW(uint32_t value, uint32_t *addr)
 767:../stm32f10x_lib/CMSIS/CM3/CoreSupport/core_cm3.c **** {
ARM GAS  /tmp/cczVt2F9.s 			page 26


 659              		.loc 1 767 1 is_stmt 1 view -0
 660              		.cfi_startproc
 661              		@ args = 0, pretend = 0, frame = 0
 662              		@ frame_needed = 0, uses_anonymous_args = 0
 663              		@ link register save eliminated.
 768:../stm32f10x_lib/CMSIS/CM3/CoreSupport/core_cm3.c ****    uint32_t result=0;
 664              		.loc 1 768 4 view .LVU98
 769:../stm32f10x_lib/CMSIS/CM3/CoreSupport/core_cm3.c ****   
 770:../stm32f10x_lib/CMSIS/CM3/CoreSupport/core_cm3.c ****    __ASM volatile ("strex %0, %2, [%1]" : "=r" (result) : "r" (addr), "r" (value) );
 665              		.loc 1 770 4 view .LVU99
 666              		.syntax unified
 667              	@ 770 "../stm32f10x_lib/CMSIS/CM3/CoreSupport/core_cm3.c" 1
 668 0084 41E80000 		strex r0, r0, [r1]	@ result, tmp119, tmp120
 669              	@ 0 "" 2
 670              	.LVL37:
 771:../stm32f10x_lib/CMSIS/CM3/CoreSupport/core_cm3.c ****    return(result);
 671              		.loc 1 771 4 view .LVU100
 672              	@ ../stm32f10x_lib/CMSIS/CM3/CoreSupport/core_cm3.c:772: }
 772:../stm32f10x_lib/CMSIS/CM3/CoreSupport/core_cm3.c **** }
 673              		.loc 1 772 1 is_stmt 0 view .LVU101
 674              		.thumb
 675              		.syntax unified
 676 0088 7047     		bx	lr	@
 677              		.cfi_endproc
 678              	.LFE21:
 679              		.size	__STREXW, .-__STREXW
 680              	.Letext0:
 681              		.file 2 "/usr/arm-none-eabi/include/machine/_default_types.h"
 682              		.file 3 "/usr/arm-none-eabi/include/sys/_stdint.h"
 683              		.section	.debug_info,"",%progbits
 684              	.Ldebug_info0:
 685 0000 37060000 		.4byte	0x637
 686 0004 0200     		.2byte	0x2
 687 0006 00000000 		.4byte	.Ldebug_abbrev0
 688 000a 04       		.byte	0x4
 689 000b 01       		.uleb128 0x1
 690 000c 2D010000 		.4byte	.LASF49
 691 0010 0C       		.byte	0xc
 692 0011 38020000 		.4byte	.LASF50
 693 0015 62000000 		.4byte	.LASF51
 694 0019 00000000 		.4byte	.Ldebug_ranges0+0
 695 001d 00000000 		.4byte	0
 696 0021 00000000 		.4byte	0
 697 0025 00000000 		.4byte	.Ldebug_line0
 698 0029 02       		.uleb128 0x2
 699 002a 08       		.byte	0x8
 700 002b 07       		.byte	0x7
 701 002c CE010000 		.4byte	.LASF0
 702 0030 02       		.uleb128 0x2
 703 0031 04       		.byte	0x4
 704 0032 07       		.byte	0x7
 705 0033 C1010000 		.4byte	.LASF1
 706 0037 02       		.uleb128 0x2
 707 0038 02       		.byte	0x2
 708 0039 07       		.byte	0x7
 709 003a 12010000 		.4byte	.LASF2
 710 003e 02       		.uleb128 0x2
ARM GAS  /tmp/cczVt2F9.s 			page 27


 711 003f 01       		.byte	0x1
 712 0040 08       		.byte	0x8
 713 0041 CC000000 		.4byte	.LASF3
 714 0045 02       		.uleb128 0x2
 715 0046 01       		.byte	0x1
 716 0047 06       		.byte	0x6
 717 0048 BE020000 		.4byte	.LASF4
 718 004c 03       		.uleb128 0x3
 719 004d 18000000 		.4byte	.LASF5
 720 0051 02       		.byte	0x2
 721 0052 2B       		.byte	0x2b
 722 0053 18       		.byte	0x18
 723 0054 3E000000 		.4byte	0x3e
 724 0058 03       		.uleb128 0x3
 725 0059 30000000 		.4byte	.LASF6
 726 005d 02       		.byte	0x2
 727 005e 37       		.byte	0x37
 728 005f 18       		.byte	0x18
 729 0060 64000000 		.4byte	0x64
 730 0064 02       		.uleb128 0x2
 731 0065 02       		.byte	0x2
 732 0066 05       		.byte	0x5
 733 0067 8F020000 		.4byte	.LASF7
 734 006b 03       		.uleb128 0x3
 735 006c 9A010000 		.4byte	.LASF8
 736 0070 02       		.byte	0x2
 737 0071 39       		.byte	0x39
 738 0072 19       		.byte	0x19
 739 0073 37000000 		.4byte	0x37
 740 0077 03       		.uleb128 0x3
 741 0078 40000000 		.4byte	.LASF9
 742 007c 02       		.byte	0x2
 743 007d 4D       		.byte	0x4d
 744 007e 18       		.byte	0x18
 745 007f 83000000 		.4byte	0x83
 746 0083 02       		.uleb128 0x2
 747 0084 04       		.byte	0x4
 748 0085 05       		.byte	0x5
 749 0086 B5020000 		.4byte	.LASF10
 750 008a 03       		.uleb128 0x3
 751 008b AD010000 		.4byte	.LASF11
 752 008f 02       		.byte	0x2
 753 0090 4F       		.byte	0x4f
 754 0091 19       		.byte	0x19
 755 0092 96000000 		.4byte	0x96
 756 0096 02       		.uleb128 0x2
 757 0097 04       		.byte	0x4
 758 0098 07       		.byte	0x7
 759 0099 F8000000 		.4byte	.LASF12
 760 009d 02       		.uleb128 0x2
 761 009e 08       		.byte	0x8
 762 009f 05       		.byte	0x5
 763 00a0 1C020000 		.4byte	.LASF13
 764 00a4 04       		.uleb128 0x4
 765 00a5 04       		.byte	0x4
 766 00a6 05       		.byte	0x5
 767 00a7 696E7400 		.ascii	"int\000"
ARM GAS  /tmp/cczVt2F9.s 			page 28


 768 00ab 03       		.uleb128 0x3
 769 00ac E5010000 		.4byte	.LASF14
 770 00b0 03       		.byte	0x3
 771 00b1 18       		.byte	0x18
 772 00b2 13       		.byte	0x13
 773 00b3 4C000000 		.4byte	0x4c
 774 00b7 03       		.uleb128 0x3
 775 00b8 FE010000 		.4byte	.LASF15
 776 00bc 03       		.byte	0x3
 777 00bd 20       		.byte	0x20
 778 00be 13       		.byte	0x13
 779 00bf 58000000 		.4byte	0x58
 780 00c3 03       		.uleb128 0x3
 781 00c4 99020000 		.4byte	.LASF16
 782 00c8 03       		.byte	0x3
 783 00c9 24       		.byte	0x24
 784 00ca 14       		.byte	0x14
 785 00cb 6B000000 		.4byte	0x6b
 786 00cf 03       		.uleb128 0x3
 787 00d0 06020000 		.4byte	.LASF17
 788 00d4 03       		.byte	0x3
 789 00d5 2C       		.byte	0x2c
 790 00d6 13       		.byte	0x13
 791 00d7 77000000 		.4byte	0x77
 792 00db 03       		.uleb128 0x3
 793 00dc AC020000 		.4byte	.LASF18
 794 00e0 03       		.byte	0x3
 795 00e1 30       		.byte	0x30
 796 00e2 14       		.byte	0x14
 797 00e3 8A000000 		.4byte	0x8a
 798 00e7 05       		.uleb128 0x5
 799 00e8 01       		.byte	0x1
 800 00e9 4A000000 		.4byte	.LASF19
 801 00ed 01       		.byte	0x1
 802 00ee FE02     		.2byte	0x2fe
 803 00f0 0A       		.byte	0xa
 804 00f1 01       		.byte	0x1
 805 00f2 DB000000 		.4byte	0xdb
 806 00f6 84000000 		.4byte	.LFB21
 807 00fa 8A000000 		.4byte	.LFE21
 808 00fe 02       		.byte	0x2
 809 00ff 7D       		.byte	0x7d
 810 0100 00       		.sleb128 0
 811 0101 01       		.byte	0x1
 812 0102 40010000 		.4byte	0x140
 813 0106 06       		.uleb128 0x6
 814 0107 3A000000 		.4byte	.LASF21
 815 010b 01       		.byte	0x1
 816 010c FE02     		.2byte	0x2fe
 817 010e 1C       		.byte	0x1c
 818 010f DB000000 		.4byte	0xdb
 819 0113 04000000 		.4byte	.LLST22
 820 0117 00000000 		.4byte	.LVUS22
 821 011b 07       		.uleb128 0x7
 822 011c BF000000 		.4byte	.LASF22
 823 0120 01       		.byte	0x1
 824 0121 FE02     		.2byte	0x2fe
ARM GAS  /tmp/cczVt2F9.s 			page 29


 825 0123 2D       		.byte	0x2d
 826 0124 40010000 		.4byte	0x140
 827 0128 01       		.byte	0x1
 828 0129 51       		.byte	0x51
 829 012a 08       		.uleb128 0x8
 830 012b ED010000 		.4byte	.LASF24
 831 012f 01       		.byte	0x1
 832 0130 0003     		.2byte	0x300
 833 0132 0D       		.byte	0xd
 834 0133 DB000000 		.4byte	0xdb
 835 0137 2F000000 		.4byte	.LLST23
 836 013b 2B000000 		.4byte	.LVUS23
 837 013f 00       		.byte	0
 838 0140 09       		.uleb128 0x9
 839 0141 04       		.byte	0x4
 840 0142 DB000000 		.4byte	0xdb
 841 0146 05       		.uleb128 0x5
 842 0147 01       		.byte	0x1
 843 0148 00000000 		.4byte	.LASF20
 844 014c 01       		.byte	0x1
 845 014d ED02     		.2byte	0x2ed
 846 014f 0A       		.byte	0xa
 847 0150 01       		.byte	0x1
 848 0151 DB000000 		.4byte	0xdb
 849 0155 7C000000 		.4byte	.LFB20
 850 0159 84000000 		.4byte	.LFE20
 851 015d 02       		.byte	0x2
 852 015e 7D       		.byte	0x7d
 853 015f 00       		.sleb128 0
 854 0160 01       		.byte	0x1
 855 0161 99010000 		.4byte	0x199
 856 0165 06       		.uleb128 0x6
 857 0166 3A000000 		.4byte	.LASF21
 858 016a 01       		.byte	0x1
 859 016b ED02     		.2byte	0x2ed
 860 016d 1C       		.byte	0x1c
 861 016e C3000000 		.4byte	0xc3
 862 0172 52000000 		.4byte	.LLST21
 863 0176 4E000000 		.4byte	.LVUS21
 864 017a 07       		.uleb128 0x7
 865 017b BF000000 		.4byte	.LASF22
 866 017f 01       		.byte	0x1
 867 0180 ED02     		.2byte	0x2ed
 868 0182 2D       		.byte	0x2d
 869 0183 99010000 		.4byte	0x199
 870 0187 01       		.byte	0x1
 871 0188 51       		.byte	0x51
 872 0189 0A       		.uleb128 0xa
 873 018a ED010000 		.4byte	.LASF24
 874 018e 01       		.byte	0x1
 875 018f F002     		.2byte	0x2f0
 876 0191 16       		.byte	0x16
 877 0192 DB000000 		.4byte	0xdb
 878 0196 01       		.byte	0x1
 879 0197 52       		.byte	0x52
 880 0198 00       		.byte	0
 881 0199 09       		.uleb128 0x9
ARM GAS  /tmp/cczVt2F9.s 			page 30


 882 019a 04       		.byte	0x4
 883 019b C3000000 		.4byte	0xc3
 884 019f 05       		.uleb128 0x5
 885 01a0 01       		.byte	0x1
 886 01a1 D3020000 		.4byte	.LASF23
 887 01a5 01       		.byte	0x1
 888 01a6 DC02     		.2byte	0x2dc
 889 01a8 0A       		.byte	0xa
 890 01a9 01       		.byte	0x1
 891 01aa DB000000 		.4byte	0xdb
 892 01ae 74000000 		.4byte	.LFB19
 893 01b2 7C000000 		.4byte	.LFE19
 894 01b6 02       		.byte	0x2
 895 01b7 7D       		.byte	0x7d
 896 01b8 00       		.sleb128 0
 897 01b9 01       		.byte	0x1
 898 01ba F2010000 		.4byte	0x1f2
 899 01be 06       		.uleb128 0x6
 900 01bf 3A000000 		.4byte	.LASF21
 901 01c3 01       		.byte	0x1
 902 01c4 DC02     		.2byte	0x2dc
 903 01c6 1B       		.byte	0x1b
 904 01c7 AB000000 		.4byte	0xab
 905 01cb 7D000000 		.4byte	.LLST20
 906 01cf 79000000 		.4byte	.LVUS20
 907 01d3 07       		.uleb128 0x7
 908 01d4 BF000000 		.4byte	.LASF22
 909 01d8 01       		.byte	0x1
 910 01d9 DC02     		.2byte	0x2dc
 911 01db 2B       		.byte	0x2b
 912 01dc F2010000 		.4byte	0x1f2
 913 01e0 01       		.byte	0x1
 914 01e1 51       		.byte	0x51
 915 01e2 0A       		.uleb128 0xa
 916 01e3 ED010000 		.4byte	.LASF24
 917 01e7 01       		.byte	0x1
 918 01e8 DF02     		.2byte	0x2df
 919 01ea 16       		.byte	0x16
 920 01eb DB000000 		.4byte	0xdb
 921 01ef 01       		.byte	0x1
 922 01f0 52       		.byte	0x52
 923 01f1 00       		.byte	0
 924 01f2 09       		.uleb128 0x9
 925 01f3 04       		.byte	0x4
 926 01f4 AB000000 		.4byte	0xab
 927 01f8 05       		.uleb128 0x5
 928 01f9 01       		.byte	0x1
 929 01fa B8010000 		.4byte	.LASF25
 930 01fe 01       		.byte	0x1
 931 01ff CB02     		.2byte	0x2cb
 932 0201 0A       		.byte	0xa
 933 0202 01       		.byte	0x1
 934 0203 DB000000 		.4byte	0xdb
 935 0207 6E000000 		.4byte	.LFB18
 936 020b 74000000 		.4byte	.LFE18
 937 020f 02       		.byte	0x2
 938 0210 7D       		.byte	0x7d
ARM GAS  /tmp/cczVt2F9.s 			page 31


 939 0211 00       		.sleb128 0
 940 0212 01       		.byte	0x1
 941 0213 42020000 		.4byte	0x242
 942 0217 06       		.uleb128 0x6
 943 0218 BF000000 		.4byte	.LASF22
 944 021c 01       		.byte	0x1
 945 021d CB02     		.2byte	0x2cb
 946 021f 1D       		.byte	0x1d
 947 0220 40010000 		.4byte	0x140
 948 0224 A8000000 		.4byte	.LLST18
 949 0228 A4000000 		.4byte	.LVUS18
 950 022c 08       		.uleb128 0x8
 951 022d ED010000 		.4byte	.LASF24
 952 0231 01       		.byte	0x1
 953 0232 CD02     		.2byte	0x2cd
 954 0234 0E       		.byte	0xe
 955 0235 DB000000 		.4byte	0xdb
 956 0239 D3000000 		.4byte	.LLST19
 957 023d CF000000 		.4byte	.LVUS19
 958 0241 00       		.byte	0
 959 0242 05       		.uleb128 0x5
 960 0243 01       		.byte	0x1
 961 0244 EC020000 		.4byte	.LASF26
 962 0248 01       		.byte	0x1
 963 0249 BB02     		.2byte	0x2bb
 964 024b 0A       		.byte	0xa
 965 024c 01       		.byte	0x1
 966 024d C3000000 		.4byte	0xc3
 967 0251 66000000 		.4byte	.LFB17
 968 0255 6E000000 		.4byte	.LFE17
 969 0259 02       		.byte	0x2
 970 025a 7D       		.byte	0x7d
 971 025b 00       		.sleb128 0
 972 025c 01       		.byte	0x1
 973 025d 8C020000 		.4byte	0x28c
 974 0261 06       		.uleb128 0x6
 975 0262 BF000000 		.4byte	.LASF22
 976 0266 01       		.byte	0x1
 977 0267 BB02     		.2byte	0x2bb
 978 0269 1D       		.byte	0x1d
 979 026a 99010000 		.4byte	0x199
 980 026e F6000000 		.4byte	.LLST16
 981 0272 F2000000 		.4byte	.LVUS16
 982 0276 08       		.uleb128 0x8
 983 0277 ED010000 		.4byte	.LASF24
 984 027b 01       		.byte	0x1
 985 027c BD02     		.2byte	0x2bd
 986 027e 0E       		.byte	0xe
 987 027f C3000000 		.4byte	0xc3
 988 0283 21010000 		.4byte	.LLST17
 989 0287 1D010000 		.4byte	.LVUS17
 990 028b 00       		.byte	0
 991 028c 05       		.uleb128 0x5
 992 028d 01       		.byte	0x1
 993 028e CA020000 		.4byte	.LASF27
 994 0292 01       		.byte	0x1
 995 0293 AB02     		.2byte	0x2ab
ARM GAS  /tmp/cczVt2F9.s 			page 32


 996 0295 09       		.byte	0x9
 997 0296 01       		.byte	0x1
 998 0297 AB000000 		.4byte	0xab
 999 029b 5E000000 		.4byte	.LFB16
 1000 029f 66000000 		.4byte	.LFE16
 1001 02a3 02       		.byte	0x2
 1002 02a4 7D       		.byte	0x7d
 1003 02a5 00       		.sleb128 0
 1004 02a6 01       		.byte	0x1
 1005 02a7 D6020000 		.4byte	0x2d6
 1006 02ab 06       		.uleb128 0x6
 1007 02ac BF000000 		.4byte	.LASF22
 1008 02b0 01       		.byte	0x1
 1009 02b1 AB02     		.2byte	0x2ab
 1010 02b3 1B       		.byte	0x1b
 1011 02b4 F2010000 		.4byte	0x1f2
 1012 02b8 44010000 		.4byte	.LLST14
 1013 02bc 40010000 		.4byte	.LVUS14
 1014 02c0 08       		.uleb128 0x8
 1015 02c1 ED010000 		.4byte	.LASF24
 1016 02c5 01       		.byte	0x1
 1017 02c6 AD02     		.2byte	0x2ad
 1018 02c8 0D       		.byte	0xd
 1019 02c9 AB000000 		.4byte	0xab
 1020 02cd 6F010000 		.4byte	.LLST15
 1021 02d1 6B010000 		.4byte	.LVUS15
 1022 02d5 00       		.byte	0
 1023 02d6 05       		.uleb128 0x5
 1024 02d7 01       		.byte	0x1
 1025 02d8 88020000 		.4byte	.LASF28
 1026 02dc 01       		.byte	0x1
 1027 02dd 9B02     		.2byte	0x29b
 1028 02df 0A       		.byte	0xa
 1029 02e0 01       		.byte	0x1
 1030 02e1 DB000000 		.4byte	0xdb
 1031 02e5 58000000 		.4byte	.LFB15
 1032 02e9 5E000000 		.4byte	.LFE15
 1033 02ed 02       		.byte	0x2
 1034 02ee 7D       		.byte	0x7d
 1035 02ef 00       		.sleb128 0
 1036 02f0 01       		.byte	0x1
 1037 02f1 20030000 		.4byte	0x320
 1038 02f5 06       		.uleb128 0x6
 1039 02f6 3A000000 		.4byte	.LASF21
 1040 02fa 01       		.byte	0x1
 1041 02fb 9B02     		.2byte	0x29b
 1042 02fd 1A       		.byte	0x1a
 1043 02fe DB000000 		.4byte	0xdb
 1044 0302 92010000 		.4byte	.LLST12
 1045 0306 8E010000 		.4byte	.LVUS12
 1046 030a 08       		.uleb128 0x8
 1047 030b ED010000 		.4byte	.LASF24
 1048 030f 01       		.byte	0x1
 1049 0310 9D02     		.2byte	0x29d
 1050 0312 0C       		.byte	0xc
 1051 0313 DB000000 		.4byte	0xdb
 1052 0317 BD010000 		.4byte	.LLST13
ARM GAS  /tmp/cczVt2F9.s 			page 33


 1053 031b B9010000 		.4byte	.LVUS13
 1054 031f 00       		.byte	0
 1055 0320 05       		.uleb128 0x5
 1056 0321 01       		.byte	0x1
 1057 0322 25010000 		.4byte	.LASF29
 1058 0326 01       		.byte	0x1
 1059 0327 8B02     		.2byte	0x28b
 1060 0329 09       		.byte	0x9
 1061 032a 01       		.byte	0x1
 1062 032b CF000000 		.4byte	0xcf
 1063 032f 54000000 		.4byte	.LFB14
 1064 0333 58000000 		.4byte	.LFE14
 1065 0337 02       		.byte	0x2
 1066 0338 7D       		.byte	0x7d
 1067 0339 00       		.sleb128 0
 1068 033a 01       		.byte	0x1
 1069 033b 6A030000 		.4byte	0x36a
 1070 033f 06       		.uleb128 0x6
 1071 0340 3A000000 		.4byte	.LASF21
 1072 0344 01       		.byte	0x1
 1073 0345 8B02     		.2byte	0x28b
 1074 0347 19       		.byte	0x19
 1075 0348 B7000000 		.4byte	0xb7
 1076 034c E0010000 		.4byte	.LLST10
 1077 0350 DC010000 		.4byte	.LVUS10
 1078 0354 08       		.uleb128 0x8
 1079 0355 ED010000 		.4byte	.LASF24
 1080 0359 01       		.byte	0x1
 1081 035a 8D02     		.2byte	0x28d
 1082 035c 0C       		.byte	0xc
 1083 035d DB000000 		.4byte	0xdb
 1084 0361 0B020000 		.4byte	.LLST11
 1085 0365 07020000 		.4byte	.LVUS11
 1086 0369 00       		.byte	0
 1087 036a 05       		.uleb128 0x5
 1088 036b 01       		.byte	0x1
 1089 036c C4000000 		.4byte	.LASF30
 1090 0370 01       		.byte	0x1
 1091 0371 7B02     		.2byte	0x27b
 1092 0373 0A       		.byte	0xa
 1093 0374 01       		.byte	0x1
 1094 0375 DB000000 		.4byte	0xdb
 1095 0379 50000000 		.4byte	.LFB13
 1096 037d 54000000 		.4byte	.LFE13
 1097 0381 02       		.byte	0x2
 1098 0382 7D       		.byte	0x7d
 1099 0383 00       		.sleb128 0
 1100 0384 01       		.byte	0x1
 1101 0385 B4030000 		.4byte	0x3b4
 1102 0389 06       		.uleb128 0x6
 1103 038a 3A000000 		.4byte	.LASF21
 1104 038e 01       		.byte	0x1
 1105 038f 7B02     		.2byte	0x27b
 1106 0391 1B       		.byte	0x1b
 1107 0392 C3000000 		.4byte	0xc3
 1108 0396 2E020000 		.4byte	.LLST8
 1109 039a 2A020000 		.4byte	.LVUS8
ARM GAS  /tmp/cczVt2F9.s 			page 34


 1110 039e 08       		.uleb128 0x8
 1111 039f ED010000 		.4byte	.LASF24
 1112 03a3 01       		.byte	0x1
 1113 03a4 7D02     		.2byte	0x27d
 1114 03a6 0C       		.byte	0xc
 1115 03a7 DB000000 		.4byte	0xdb
 1116 03ab 59020000 		.4byte	.LLST9
 1117 03af 55020000 		.4byte	.LVUS9
 1118 03b3 00       		.byte	0
 1119 03b4 05       		.uleb128 0x5
 1120 03b5 01       		.byte	0x1
 1121 03b6 6A020000 		.4byte	.LASF31
 1122 03ba 01       		.byte	0x1
 1123 03bb 6B02     		.2byte	0x26b
 1124 03bd 0A       		.byte	0xa
 1125 03be 01       		.byte	0x1
 1126 03bf DB000000 		.4byte	0xdb
 1127 03c3 4C000000 		.4byte	.LFB12
 1128 03c7 50000000 		.4byte	.LFE12
 1129 03cb 02       		.byte	0x2
 1130 03cc 7D       		.byte	0x7d
 1131 03cd 00       		.sleb128 0
 1132 03ce 01       		.byte	0x1
 1133 03cf FE030000 		.4byte	0x3fe
 1134 03d3 06       		.uleb128 0x6
 1135 03d4 3A000000 		.4byte	.LASF21
 1136 03d8 01       		.byte	0x1
 1137 03d9 6B02     		.2byte	0x26b
 1138 03db 19       		.byte	0x19
 1139 03dc DB000000 		.4byte	0xdb
 1140 03e0 7C020000 		.4byte	.LLST6
 1141 03e4 78020000 		.4byte	.LVUS6
 1142 03e8 08       		.uleb128 0x8
 1143 03e9 ED010000 		.4byte	.LASF24
 1144 03ed 01       		.byte	0x1
 1145 03ee 6D02     		.2byte	0x26d
 1146 03f0 0C       		.byte	0xc
 1147 03f1 DB000000 		.4byte	0xdb
 1148 03f5 A7020000 		.4byte	.LLST7
 1149 03f9 A3020000 		.4byte	.LVUS7
 1150 03fd 00       		.byte	0
 1151 03fe 0B       		.uleb128 0xb
 1152 03ff 01       		.byte	0x1
 1153 0400 22000000 		.4byte	.LASF34
 1154 0404 01       		.byte	0x1
 1155 0405 5D02     		.2byte	0x25d
 1156 0407 06       		.byte	0x6
 1157 0408 01       		.byte	0x1
 1158 0409 46000000 		.4byte	.LFB11
 1159 040d 4C000000 		.4byte	.LFE11
 1160 0411 02       		.byte	0x2
 1161 0412 7D       		.byte	0x7d
 1162 0413 00       		.sleb128 0
 1163 0414 01       		.byte	0x1
 1164 0415 29040000 		.4byte	0x429
 1165 0419 07       		.uleb128 0x7
 1166 041a 0A010000 		.4byte	.LASF32
ARM GAS  /tmp/cczVt2F9.s 			page 35


 1167 041e 01       		.byte	0x1
 1168 041f 5D02     		.2byte	0x25d
 1169 0421 1D       		.byte	0x1d
 1170 0422 DB000000 		.4byte	0xdb
 1171 0426 01       		.byte	0x1
 1172 0427 50       		.byte	0x50
 1173 0428 00       		.byte	0
 1174 0429 05       		.uleb128 0x5
 1175 042a 01       		.byte	0x1
 1176 042b 7A020000 		.4byte	.LASF33
 1177 042f 01       		.byte	0x1
 1178 0430 4E02     		.2byte	0x24e
 1179 0432 0A       		.byte	0xa
 1180 0433 01       		.byte	0x1
 1181 0434 DB000000 		.4byte	0xdb
 1182 0438 40000000 		.4byte	.LFB10
 1183 043c 46000000 		.4byte	.LFE10
 1184 0440 02       		.byte	0x2
 1185 0441 7D       		.byte	0x7d
 1186 0442 00       		.sleb128 0
 1187 0443 01       		.byte	0x1
 1188 0444 5E040000 		.4byte	0x45e
 1189 0448 08       		.uleb128 0x8
 1190 0449 ED010000 		.4byte	.LASF24
 1191 044d 01       		.byte	0x1
 1192 044e 5002     		.2byte	0x250
 1193 0450 0C       		.byte	0xc
 1194 0451 DB000000 		.4byte	0xdb
 1195 0455 CA020000 		.4byte	.LLST5
 1196 0459 C6020000 		.4byte	.LVUS5
 1197 045d 00       		.byte	0
 1198 045e 0B       		.uleb128 0xb
 1199 045f 01       		.byte	0x1
 1200 0460 E8000000 		.4byte	.LASF35
 1201 0464 01       		.byte	0x1
 1202 0465 4202     		.2byte	0x242
 1203 0467 06       		.byte	0x6
 1204 0468 01       		.byte	0x1
 1205 0469 3A000000 		.4byte	.LFB9
 1206 046d 40000000 		.4byte	.LFE9
 1207 0471 02       		.byte	0x2
 1208 0472 7D       		.byte	0x7d
 1209 0473 00       		.sleb128 0
 1210 0474 01       		.byte	0x1
 1211 0475 89040000 		.4byte	0x489
 1212 0479 07       		.uleb128 0x7
 1213 047a A2020000 		.4byte	.LASF36
 1214 047e 01       		.byte	0x1
 1215 047f 4202     		.2byte	0x242
 1216 0481 1F       		.byte	0x1f
 1217 0482 DB000000 		.4byte	0xdb
 1218 0486 01       		.byte	0x1
 1219 0487 50       		.byte	0x50
 1220 0488 00       		.byte	0
 1221 0489 05       		.uleb128 0x5
 1222 048a 01       		.byte	0x1
 1223 048b DC020000 		.4byte	.LASF37
ARM GAS  /tmp/cczVt2F9.s 			page 36


 1224 048f 01       		.byte	0x1
 1225 0490 3302     		.2byte	0x233
 1226 0492 0A       		.byte	0xa
 1227 0493 01       		.byte	0x1
 1228 0494 DB000000 		.4byte	0xdb
 1229 0498 34000000 		.4byte	.LFB8
 1230 049c 3A000000 		.4byte	.LFE8
 1231 04a0 02       		.byte	0x2
 1232 04a1 7D       		.byte	0x7d
 1233 04a2 00       		.sleb128 0
 1234 04a3 01       		.byte	0x1
 1235 04a4 BE040000 		.4byte	0x4be
 1236 04a8 08       		.uleb128 0x8
 1237 04a9 ED010000 		.4byte	.LASF24
 1238 04ad 01       		.byte	0x1
 1239 04ae 3502     		.2byte	0x235
 1240 04b0 0C       		.byte	0xc
 1241 04b1 DB000000 		.4byte	0xdb
 1242 04b5 ED020000 		.4byte	.LLST4
 1243 04b9 E9020000 		.4byte	.LVUS4
 1244 04bd 00       		.byte	0
 1245 04be 0B       		.uleb128 0xb
 1246 04bf 01       		.byte	0x1
 1247 04c0 2A020000 		.4byte	.LASF38
 1248 04c4 01       		.byte	0x1
 1249 04c5 2702     		.2byte	0x227
 1250 04c7 06       		.byte	0x6
 1251 04c8 01       		.byte	0x1
 1252 04c9 2E000000 		.4byte	.LFB7
 1253 04cd 34000000 		.4byte	.LFE7
 1254 04d1 02       		.byte	0x2
 1255 04d2 7D       		.byte	0x7d
 1256 04d3 00       		.sleb128 0
 1257 04d4 01       		.byte	0x1
 1258 04d5 E9040000 		.4byte	0x4e9
 1259 04d9 07       		.uleb128 0x7
 1260 04da A5010000 		.4byte	.LASF39
 1261 04de 01       		.byte	0x1
 1262 04df 2702     		.2byte	0x227
 1263 04e1 1D       		.byte	0x1d
 1264 04e2 DB000000 		.4byte	0xdb
 1265 04e6 01       		.byte	0x1
 1266 04e7 50       		.byte	0x50
 1267 04e8 00       		.byte	0
 1268 04e9 05       		.uleb128 0x5
 1269 04ea 01       		.byte	0x1
 1270 04eb DA000000 		.4byte	.LASF40
 1271 04ef 01       		.byte	0x1
 1272 04f0 1802     		.2byte	0x218
 1273 04f2 0A       		.byte	0xa
 1274 04f3 01       		.byte	0x1
 1275 04f4 DB000000 		.4byte	0xdb
 1276 04f8 28000000 		.4byte	.LFB6
 1277 04fc 2E000000 		.4byte	.LFE6
 1278 0500 02       		.byte	0x2
 1279 0501 7D       		.byte	0x7d
 1280 0502 00       		.sleb128 0
ARM GAS  /tmp/cczVt2F9.s 			page 37


 1281 0503 01       		.byte	0x1
 1282 0504 1E050000 		.4byte	0x51e
 1283 0508 08       		.uleb128 0x8
 1284 0509 ED010000 		.4byte	.LASF24
 1285 050d 01       		.byte	0x1
 1286 050e 1A02     		.2byte	0x21a
 1287 0510 0C       		.byte	0xc
 1288 0511 DB000000 		.4byte	0xdb
 1289 0515 10030000 		.4byte	.LLST3
 1290 0519 0C030000 		.4byte	.LVUS3
 1291 051d 00       		.byte	0
 1292 051e 0B       		.uleb128 0xb
 1293 051f 01       		.byte	0x1
 1294 0520 0E020000 		.4byte	.LASF41
 1295 0524 01       		.byte	0x1
 1296 0525 0C02     		.2byte	0x20c
 1297 0527 06       		.byte	0x6
 1298 0528 01       		.byte	0x1
 1299 0529 22000000 		.4byte	.LFB5
 1300 052d 28000000 		.4byte	.LFE5
 1301 0531 02       		.byte	0x2
 1302 0532 7D       		.byte	0x7d
 1303 0533 00       		.sleb128 0
 1304 0534 01       		.byte	0x1
 1305 0535 49050000 		.4byte	0x549
 1306 0539 07       		.uleb128 0x7
 1307 053a 3A000000 		.4byte	.LASF21
 1308 053e 01       		.byte	0x1
 1309 053f 0C02     		.2byte	0x20c
 1310 0541 1D       		.byte	0x1d
 1311 0542 DB000000 		.4byte	0xdb
 1312 0546 01       		.byte	0x1
 1313 0547 50       		.byte	0x50
 1314 0548 00       		.byte	0
 1315 0549 05       		.uleb128 0x5
 1316 054a 01       		.byte	0x1
 1317 054b B1000000 		.4byte	.LASF42
 1318 054f 01       		.byte	0x1
 1319 0550 FD01     		.2byte	0x1fd
 1320 0552 0A       		.byte	0xa
 1321 0553 01       		.byte	0x1
 1322 0554 DB000000 		.4byte	0xdb
 1323 0558 1C000000 		.4byte	.LFB4
 1324 055c 22000000 		.4byte	.LFE4
 1325 0560 02       		.byte	0x2
 1326 0561 7D       		.byte	0x7d
 1327 0562 00       		.sleb128 0
 1328 0563 01       		.byte	0x1
 1329 0564 7E050000 		.4byte	0x57e
 1330 0568 08       		.uleb128 0x8
 1331 0569 ED010000 		.4byte	.LASF24
 1332 056d 01       		.byte	0x1
 1333 056e FF01     		.2byte	0x1ff
 1334 0570 0C       		.byte	0xc
 1335 0571 DB000000 		.4byte	0xdb
 1336 0575 33030000 		.4byte	.LLST2
 1337 0579 2F030000 		.4byte	.LVUS2
ARM GAS  /tmp/cczVt2F9.s 			page 38


 1338 057d 00       		.byte	0
 1339 057e 0B       		.uleb128 0xb
 1340 057f 01       		.byte	0x1
 1341 0580 A7000000 		.4byte	.LASF43
 1342 0584 01       		.byte	0x1
 1343 0585 F001     		.2byte	0x1f0
 1344 0587 06       		.byte	0x6
 1345 0588 01       		.byte	0x1
 1346 0589 16000000 		.4byte	.LFB3
 1347 058d 1C000000 		.4byte	.LFE3
 1348 0591 02       		.byte	0x2
 1349 0592 7D       		.byte	0x7d
 1350 0593 00       		.sleb128 0
 1351 0594 01       		.byte	0x1
 1352 0595 A9050000 		.4byte	0x5a9
 1353 0599 07       		.uleb128 0x7
 1354 059a 09000000 		.4byte	.LASF44
 1355 059e 01       		.byte	0x1
 1356 059f F001     		.2byte	0x1f0
 1357 05a1 19       		.byte	0x19
 1358 05a2 DB000000 		.4byte	0xdb
 1359 05a6 01       		.byte	0x1
 1360 05a7 50       		.byte	0x50
 1361 05a8 00       		.byte	0
 1362 05a9 05       		.uleb128 0x5
 1363 05aa 01       		.byte	0x1
 1364 05ab 9D000000 		.4byte	.LASF45
 1365 05af 01       		.byte	0x1
 1366 05b0 DD01     		.2byte	0x1dd
 1367 05b2 0A       		.byte	0xa
 1368 05b3 01       		.byte	0x1
 1369 05b4 DB000000 		.4byte	0xdb
 1370 05b8 0E000000 		.4byte	.LFB2
 1371 05bc 16000000 		.4byte	.LFE2
 1372 05c0 02       		.byte	0x2
 1373 05c1 7D       		.byte	0x7d
 1374 05c2 00       		.sleb128 0
 1375 05c3 01       		.byte	0x1
 1376 05c4 DE050000 		.4byte	0x5de
 1377 05c8 08       		.uleb128 0x8
 1378 05c9 ED010000 		.4byte	.LASF24
 1379 05cd 01       		.byte	0x1
 1380 05ce DF01     		.2byte	0x1df
 1381 05d0 0C       		.byte	0xc
 1382 05d1 DB000000 		.4byte	0xdb
 1383 05d5 56030000 		.4byte	.LLST1
 1384 05d9 52030000 		.4byte	.LVUS1
 1385 05dd 00       		.byte	0
 1386 05de 0B       		.uleb128 0xb
 1387 05df 01       		.byte	0x1
 1388 05e0 70020000 		.4byte	.LASF46
 1389 05e4 01       		.byte	0x1
 1390 05e5 CE01     		.2byte	0x1ce
 1391 05e7 06       		.byte	0x6
 1392 05e8 01       		.byte	0x1
 1393 05e9 08000000 		.4byte	.LFB1
 1394 05ed 0E000000 		.4byte	.LFE1
ARM GAS  /tmp/cczVt2F9.s 			page 39


 1395 05f1 02       		.byte	0x2
 1396 05f2 7D       		.byte	0x7d
 1397 05f3 00       		.sleb128 0
 1398 05f4 01       		.byte	0x1
 1399 05f5 09060000 		.4byte	0x609
 1400 05f9 07       		.uleb128 0x7
 1401 05fa 53000000 		.4byte	.LASF47
 1402 05fe 01       		.byte	0x1
 1403 05ff CE01     		.2byte	0x1ce
 1404 0601 19       		.byte	0x19
 1405 0602 DB000000 		.4byte	0xdb
 1406 0606 01       		.byte	0x1
 1407 0607 50       		.byte	0x50
 1408 0608 00       		.byte	0
 1409 0609 0C       		.uleb128 0xc
 1410 060a 01       		.byte	0x1
 1411 060b F4010000 		.4byte	.LASF48
 1412 060f 01       		.byte	0x1
 1413 0610 BB01     		.2byte	0x1bb
 1414 0612 0A       		.byte	0xa
 1415 0613 01       		.byte	0x1
 1416 0614 DB000000 		.4byte	0xdb
 1417 0618 00000000 		.4byte	.LFB0
 1418 061c 08000000 		.4byte	.LFE0
 1419 0620 02       		.byte	0x2
 1420 0621 7D       		.byte	0x7d
 1421 0622 00       		.sleb128 0
 1422 0623 01       		.byte	0x1
 1423 0624 08       		.uleb128 0x8
 1424 0625 ED010000 		.4byte	.LASF24
 1425 0629 01       		.byte	0x1
 1426 062a BD01     		.2byte	0x1bd
 1427 062c 0C       		.byte	0xc
 1428 062d DB000000 		.4byte	0xdb
 1429 0631 79030000 		.4byte	.LLST0
 1430 0635 75030000 		.4byte	.LVUS0
 1431 0639 00       		.byte	0
 1432 063a 00       		.byte	0
 1433              		.section	.debug_abbrev,"",%progbits
 1434              	.Ldebug_abbrev0:
 1435 0000 01       		.uleb128 0x1
 1436 0001 11       		.uleb128 0x11
 1437 0002 01       		.byte	0x1
 1438 0003 25       		.uleb128 0x25
 1439 0004 0E       		.uleb128 0xe
 1440 0005 13       		.uleb128 0x13
 1441 0006 0B       		.uleb128 0xb
 1442 0007 03       		.uleb128 0x3
 1443 0008 0E       		.uleb128 0xe
 1444 0009 1B       		.uleb128 0x1b
 1445 000a 0E       		.uleb128 0xe
 1446 000b 55       		.uleb128 0x55
 1447 000c 06       		.uleb128 0x6
 1448 000d 11       		.uleb128 0x11
 1449 000e 01       		.uleb128 0x1
 1450 000f 52       		.uleb128 0x52
 1451 0010 01       		.uleb128 0x1
ARM GAS  /tmp/cczVt2F9.s 			page 40


 1452 0011 10       		.uleb128 0x10
 1453 0012 06       		.uleb128 0x6
 1454 0013 00       		.byte	0
 1455 0014 00       		.byte	0
 1456 0015 02       		.uleb128 0x2
 1457 0016 24       		.uleb128 0x24
 1458 0017 00       		.byte	0
 1459 0018 0B       		.uleb128 0xb
 1460 0019 0B       		.uleb128 0xb
 1461 001a 3E       		.uleb128 0x3e
 1462 001b 0B       		.uleb128 0xb
 1463 001c 03       		.uleb128 0x3
 1464 001d 0E       		.uleb128 0xe
 1465 001e 00       		.byte	0
 1466 001f 00       		.byte	0
 1467 0020 03       		.uleb128 0x3
 1468 0021 16       		.uleb128 0x16
 1469 0022 00       		.byte	0
 1470 0023 03       		.uleb128 0x3
 1471 0024 0E       		.uleb128 0xe
 1472 0025 3A       		.uleb128 0x3a
 1473 0026 0B       		.uleb128 0xb
 1474 0027 3B       		.uleb128 0x3b
 1475 0028 0B       		.uleb128 0xb
 1476 0029 39       		.uleb128 0x39
 1477 002a 0B       		.uleb128 0xb
 1478 002b 49       		.uleb128 0x49
 1479 002c 13       		.uleb128 0x13
 1480 002d 00       		.byte	0
 1481 002e 00       		.byte	0
 1482 002f 04       		.uleb128 0x4
 1483 0030 24       		.uleb128 0x24
 1484 0031 00       		.byte	0
 1485 0032 0B       		.uleb128 0xb
 1486 0033 0B       		.uleb128 0xb
 1487 0034 3E       		.uleb128 0x3e
 1488 0035 0B       		.uleb128 0xb
 1489 0036 03       		.uleb128 0x3
 1490 0037 08       		.uleb128 0x8
 1491 0038 00       		.byte	0
 1492 0039 00       		.byte	0
 1493 003a 05       		.uleb128 0x5
 1494 003b 2E       		.uleb128 0x2e
 1495 003c 01       		.byte	0x1
 1496 003d 3F       		.uleb128 0x3f
 1497 003e 0C       		.uleb128 0xc
 1498 003f 03       		.uleb128 0x3
 1499 0040 0E       		.uleb128 0xe
 1500 0041 3A       		.uleb128 0x3a
 1501 0042 0B       		.uleb128 0xb
 1502 0043 3B       		.uleb128 0x3b
 1503 0044 05       		.uleb128 0x5
 1504 0045 39       		.uleb128 0x39
 1505 0046 0B       		.uleb128 0xb
 1506 0047 27       		.uleb128 0x27
 1507 0048 0C       		.uleb128 0xc
 1508 0049 49       		.uleb128 0x49
ARM GAS  /tmp/cczVt2F9.s 			page 41


 1509 004a 13       		.uleb128 0x13
 1510 004b 11       		.uleb128 0x11
 1511 004c 01       		.uleb128 0x1
 1512 004d 12       		.uleb128 0x12
 1513 004e 01       		.uleb128 0x1
 1514 004f 40       		.uleb128 0x40
 1515 0050 0A       		.uleb128 0xa
 1516 0051 9742     		.uleb128 0x2117
 1517 0053 0C       		.uleb128 0xc
 1518 0054 01       		.uleb128 0x1
 1519 0055 13       		.uleb128 0x13
 1520 0056 00       		.byte	0
 1521 0057 00       		.byte	0
 1522 0058 06       		.uleb128 0x6
 1523 0059 05       		.uleb128 0x5
 1524 005a 00       		.byte	0
 1525 005b 03       		.uleb128 0x3
 1526 005c 0E       		.uleb128 0xe
 1527 005d 3A       		.uleb128 0x3a
 1528 005e 0B       		.uleb128 0xb
 1529 005f 3B       		.uleb128 0x3b
 1530 0060 05       		.uleb128 0x5
 1531 0061 39       		.uleb128 0x39
 1532 0062 0B       		.uleb128 0xb
 1533 0063 49       		.uleb128 0x49
 1534 0064 13       		.uleb128 0x13
 1535 0065 02       		.uleb128 0x2
 1536 0066 06       		.uleb128 0x6
 1537 0067 B742     		.uleb128 0x2137
 1538 0069 06       		.uleb128 0x6
 1539 006a 00       		.byte	0
 1540 006b 00       		.byte	0
 1541 006c 07       		.uleb128 0x7
 1542 006d 05       		.uleb128 0x5
 1543 006e 00       		.byte	0
 1544 006f 03       		.uleb128 0x3
 1545 0070 0E       		.uleb128 0xe
 1546 0071 3A       		.uleb128 0x3a
 1547 0072 0B       		.uleb128 0xb
 1548 0073 3B       		.uleb128 0x3b
 1549 0074 05       		.uleb128 0x5
 1550 0075 39       		.uleb128 0x39
 1551 0076 0B       		.uleb128 0xb
 1552 0077 49       		.uleb128 0x49
 1553 0078 13       		.uleb128 0x13
 1554 0079 02       		.uleb128 0x2
 1555 007a 0A       		.uleb128 0xa
 1556 007b 00       		.byte	0
 1557 007c 00       		.byte	0
 1558 007d 08       		.uleb128 0x8
 1559 007e 34       		.uleb128 0x34
 1560 007f 00       		.byte	0
 1561 0080 03       		.uleb128 0x3
 1562 0081 0E       		.uleb128 0xe
 1563 0082 3A       		.uleb128 0x3a
 1564 0083 0B       		.uleb128 0xb
 1565 0084 3B       		.uleb128 0x3b
ARM GAS  /tmp/cczVt2F9.s 			page 42


 1566 0085 05       		.uleb128 0x5
 1567 0086 39       		.uleb128 0x39
 1568 0087 0B       		.uleb128 0xb
 1569 0088 49       		.uleb128 0x49
 1570 0089 13       		.uleb128 0x13
 1571 008a 02       		.uleb128 0x2
 1572 008b 06       		.uleb128 0x6
 1573 008c B742     		.uleb128 0x2137
 1574 008e 06       		.uleb128 0x6
 1575 008f 00       		.byte	0
 1576 0090 00       		.byte	0
 1577 0091 09       		.uleb128 0x9
 1578 0092 0F       		.uleb128 0xf
 1579 0093 00       		.byte	0
 1580 0094 0B       		.uleb128 0xb
 1581 0095 0B       		.uleb128 0xb
 1582 0096 49       		.uleb128 0x49
 1583 0097 13       		.uleb128 0x13
 1584 0098 00       		.byte	0
 1585 0099 00       		.byte	0
 1586 009a 0A       		.uleb128 0xa
 1587 009b 34       		.uleb128 0x34
 1588 009c 00       		.byte	0
 1589 009d 03       		.uleb128 0x3
 1590 009e 0E       		.uleb128 0xe
 1591 009f 3A       		.uleb128 0x3a
 1592 00a0 0B       		.uleb128 0xb
 1593 00a1 3B       		.uleb128 0x3b
 1594 00a2 05       		.uleb128 0x5
 1595 00a3 39       		.uleb128 0x39
 1596 00a4 0B       		.uleb128 0xb
 1597 00a5 49       		.uleb128 0x49
 1598 00a6 13       		.uleb128 0x13
 1599 00a7 02       		.uleb128 0x2
 1600 00a8 0A       		.uleb128 0xa
 1601 00a9 00       		.byte	0
 1602 00aa 00       		.byte	0
 1603 00ab 0B       		.uleb128 0xb
 1604 00ac 2E       		.uleb128 0x2e
 1605 00ad 01       		.byte	0x1
 1606 00ae 3F       		.uleb128 0x3f
 1607 00af 0C       		.uleb128 0xc
 1608 00b0 03       		.uleb128 0x3
 1609 00b1 0E       		.uleb128 0xe
 1610 00b2 3A       		.uleb128 0x3a
 1611 00b3 0B       		.uleb128 0xb
 1612 00b4 3B       		.uleb128 0x3b
 1613 00b5 05       		.uleb128 0x5
 1614 00b6 39       		.uleb128 0x39
 1615 00b7 0B       		.uleb128 0xb
 1616 00b8 27       		.uleb128 0x27
 1617 00b9 0C       		.uleb128 0xc
 1618 00ba 11       		.uleb128 0x11
 1619 00bb 01       		.uleb128 0x1
 1620 00bc 12       		.uleb128 0x12
 1621 00bd 01       		.uleb128 0x1
 1622 00be 40       		.uleb128 0x40
ARM GAS  /tmp/cczVt2F9.s 			page 43


 1623 00bf 0A       		.uleb128 0xa
 1624 00c0 9742     		.uleb128 0x2117
 1625 00c2 0C       		.uleb128 0xc
 1626 00c3 01       		.uleb128 0x1
 1627 00c4 13       		.uleb128 0x13
 1628 00c5 00       		.byte	0
 1629 00c6 00       		.byte	0
 1630 00c7 0C       		.uleb128 0xc
 1631 00c8 2E       		.uleb128 0x2e
 1632 00c9 01       		.byte	0x1
 1633 00ca 3F       		.uleb128 0x3f
 1634 00cb 0C       		.uleb128 0xc
 1635 00cc 03       		.uleb128 0x3
 1636 00cd 0E       		.uleb128 0xe
 1637 00ce 3A       		.uleb128 0x3a
 1638 00cf 0B       		.uleb128 0xb
 1639 00d0 3B       		.uleb128 0x3b
 1640 00d1 05       		.uleb128 0x5
 1641 00d2 39       		.uleb128 0x39
 1642 00d3 0B       		.uleb128 0xb
 1643 00d4 27       		.uleb128 0x27
 1644 00d5 0C       		.uleb128 0xc
 1645 00d6 49       		.uleb128 0x49
 1646 00d7 13       		.uleb128 0x13
 1647 00d8 11       		.uleb128 0x11
 1648 00d9 01       		.uleb128 0x1
 1649 00da 12       		.uleb128 0x12
 1650 00db 01       		.uleb128 0x1
 1651 00dc 40       		.uleb128 0x40
 1652 00dd 0A       		.uleb128 0xa
 1653 00de 9742     		.uleb128 0x2117
 1654 00e0 0C       		.uleb128 0xc
 1655 00e1 00       		.byte	0
 1656 00e2 00       		.byte	0
 1657 00e3 00       		.byte	0
 1658              		.section	.debug_loc,"",%progbits
 1659              	.Ldebug_loc0:
 1660              	.LVUS22:
 1661 0000 00       		.uleb128 0
 1662 0001 00       		.uleb128 .LVU100
 1663 0002 00       		.uleb128 .LVU100
 1664 0003 00       		.uleb128 0
 1665              	.LLST22:
 1666 0004 84000000 		.4byte	.LVL36
 1667 0008 88000000 		.4byte	.LVL37
 1668 000c 0100     		.2byte	0x1
 1669 000e 50       		.byte	0x50
 1670 000f 88000000 		.4byte	.LVL37
 1671 0013 8A000000 		.4byte	.LFE21
 1672 0017 0A00     		.2byte	0xa
 1673 0019 F3       		.byte	0xf3
 1674 001a 03       		.uleb128 0x3
 1675 001b F5       		.byte	0xf5
 1676 001c 00       		.uleb128 0
 1677 001d 29       		.uleb128 0x29
 1678 001e F7       		.byte	0xf7
 1679 001f 30       		.uleb128 0x30
ARM GAS  /tmp/cczVt2F9.s 			page 44


 1680 0020 F7       		.byte	0xf7
 1681 0021 00       		.uleb128 0
 1682 0022 9F       		.byte	0x9f
 1683 0023 00000000 		.4byte	0
 1684 0027 00000000 		.4byte	0
 1685              	.LVUS23:
 1686 002b 02       		.uleb128 .LVU99
 1687 002c 00       		.uleb128 .LVU100
 1688 002d 00       		.uleb128 .LVU100
 1689 002e 00       		.uleb128 0
 1690              	.LLST23:
 1691 002f 84000000 		.4byte	.LVL36
 1692 0033 88000000 		.4byte	.LVL37
 1693 0037 0200     		.2byte	0x2
 1694 0039 30       		.byte	0x30
 1695 003a 9F       		.byte	0x9f
 1696 003b 88000000 		.4byte	.LVL37
 1697 003f 8A000000 		.4byte	.LFE21
 1698 0043 0100     		.2byte	0x1
 1699 0045 50       		.byte	0x50
 1700 0046 00000000 		.4byte	0
 1701 004a 00000000 		.4byte	0
 1702              	.LVUS21:
 1703 004e 00       		.uleb128 0
 1704 004f 00       		.uleb128 .LVU96
 1705 0050 00       		.uleb128 .LVU96
 1706 0051 00       		.uleb128 0
 1707              	.LLST21:
 1708 0052 7C000000 		.4byte	.LVL34
 1709 0056 82000000 		.4byte	.LVL35
 1710 005a 0100     		.2byte	0x1
 1711 005c 50       		.byte	0x50
 1712 005d 82000000 		.4byte	.LVL35
 1713 0061 84000000 		.4byte	.LFE20
 1714 0065 0A00     		.2byte	0xa
 1715 0067 F3       		.byte	0xf3
 1716 0068 03       		.uleb128 0x3
 1717 0069 F5       		.byte	0xf5
 1718 006a 00       		.uleb128 0
 1719 006b 29       		.uleb128 0x29
 1720 006c F7       		.byte	0xf7
 1721 006d 37       		.uleb128 0x37
 1722 006e F7       		.byte	0xf7
 1723 006f 00       		.uleb128 0
 1724 0070 9F       		.byte	0x9f
 1725 0071 00000000 		.4byte	0
 1726 0075 00000000 		.4byte	0
 1727              	.LVUS20:
 1728 0079 00       		.uleb128 0
 1729 007a 00       		.uleb128 .LVU90
 1730 007b 00       		.uleb128 .LVU90
 1731 007c 00       		.uleb128 0
 1732              	.LLST20:
 1733 007d 74000000 		.4byte	.LVL32
 1734 0081 7A000000 		.4byte	.LVL33
 1735 0085 0100     		.2byte	0x1
 1736 0087 50       		.byte	0x50
ARM GAS  /tmp/cczVt2F9.s 			page 45


 1737 0088 7A000000 		.4byte	.LVL33
 1738 008c 7C000000 		.4byte	.LFE19
 1739 0090 0A00     		.2byte	0xa
 1740 0092 F3       		.byte	0xf3
 1741 0093 03       		.uleb128 0x3
 1742 0094 F5       		.byte	0xf5
 1743 0095 00       		.uleb128 0
 1744 0096 29       		.uleb128 0x29
 1745 0097 F7       		.byte	0xf7
 1746 0098 3E       		.uleb128 0x3e
 1747 0099 F7       		.byte	0xf7
 1748 009a 00       		.uleb128 0
 1749 009b 9F       		.byte	0x9f
 1750 009c 00000000 		.4byte	0
 1751 00a0 00000000 		.4byte	0
 1752              	.LVUS18:
 1753 00a4 00       		.uleb128 0
 1754 00a5 00       		.uleb128 .LVU83
 1755 00a6 00       		.uleb128 .LVU83
 1756 00a7 00       		.uleb128 0
 1757              	.LLST18:
 1758 00a8 6E000000 		.4byte	.LVL30
 1759 00ac 72000000 		.4byte	.LVL31
 1760 00b0 0100     		.2byte	0x1
 1761 00b2 50       		.byte	0x50
 1762 00b3 72000000 		.4byte	.LVL31
 1763 00b7 74000000 		.4byte	.LFE18
 1764 00bb 0A00     		.2byte	0xa
 1765 00bd F3       		.byte	0xf3
 1766 00be 03       		.uleb128 0x3
 1767 00bf F5       		.byte	0xf5
 1768 00c0 00       		.uleb128 0
 1769 00c1 29       		.uleb128 0x29
 1770 00c2 F7       		.byte	0xf7
 1771 00c3 30       		.uleb128 0x30
 1772 00c4 F7       		.byte	0xf7
 1773 00c5 00       		.uleb128 0
 1774 00c6 9F       		.byte	0x9f
 1775 00c7 00000000 		.4byte	0
 1776 00cb 00000000 		.4byte	0
 1777              	.LVUS19:
 1778 00cf 02       		.uleb128 .LVU82
 1779 00d0 00       		.uleb128 .LVU83
 1780 00d1 00       		.uleb128 .LVU83
 1781 00d2 00       		.uleb128 0
 1782              	.LLST19:
 1783 00d3 6E000000 		.4byte	.LVL30
 1784 00d7 72000000 		.4byte	.LVL31
 1785 00db 0200     		.2byte	0x2
 1786 00dd 30       		.byte	0x30
 1787 00de 9F       		.byte	0x9f
 1788 00df 72000000 		.4byte	.LVL31
 1789 00e3 74000000 		.4byte	.LFE18
 1790 00e7 0100     		.2byte	0x1
 1791 00e9 50       		.byte	0x50
 1792 00ea 00000000 		.4byte	0
 1793 00ee 00000000 		.4byte	0
ARM GAS  /tmp/cczVt2F9.s 			page 46


 1794              	.LVUS16:
 1795 00f2 00       		.uleb128 0
 1796 00f3 00       		.uleb128 .LVU77
 1797 00f4 00       		.uleb128 .LVU77
 1798 00f5 00       		.uleb128 0
 1799              	.LLST16:
 1800 00f6 66000000 		.4byte	.LVL28
 1801 00fa 6A000000 		.4byte	.LVL29
 1802 00fe 0100     		.2byte	0x1
 1803 0100 50       		.byte	0x50
 1804 0101 6A000000 		.4byte	.LVL29
 1805 0105 6E000000 		.4byte	.LFE17
 1806 0109 0A00     		.2byte	0xa
 1807 010b F3       		.byte	0xf3
 1808 010c 03       		.uleb128 0x3
 1809 010d F5       		.byte	0xf5
 1810 010e 00       		.uleb128 0
 1811 010f 29       		.uleb128 0x29
 1812 0110 F7       		.byte	0xf7
 1813 0111 30       		.uleb128 0x30
 1814 0112 F7       		.byte	0xf7
 1815 0113 00       		.uleb128 0
 1816 0114 9F       		.byte	0x9f
 1817 0115 00000000 		.4byte	0
 1818 0119 00000000 		.4byte	0
 1819              	.LVUS17:
 1820 011d 02       		.uleb128 .LVU76
 1821 011e 00       		.uleb128 .LVU77
 1822 011f 00       		.uleb128 .LVU77
 1823 0120 00       		.uleb128 0
 1824              	.LLST17:
 1825 0121 66000000 		.4byte	.LVL28
 1826 0125 6A000000 		.4byte	.LVL29
 1827 0129 0200     		.2byte	0x2
 1828 012b 30       		.byte	0x30
 1829 012c 9F       		.byte	0x9f
 1830 012d 6A000000 		.4byte	.LVL29
 1831 0131 6E000000 		.4byte	.LFE17
 1832 0135 0100     		.2byte	0x1
 1833 0137 50       		.byte	0x50
 1834 0138 00000000 		.4byte	0
 1835 013c 00000000 		.4byte	0
 1836              	.LVUS14:
 1837 0140 00       		.uleb128 0
 1838 0141 00       		.uleb128 .LVU71
 1839 0142 00       		.uleb128 .LVU71
 1840 0143 00       		.uleb128 0
 1841              	.LLST14:
 1842 0144 5E000000 		.4byte	.LVL26
 1843 0148 62000000 		.4byte	.LVL27
 1844 014c 0100     		.2byte	0x1
 1845 014e 50       		.byte	0x50
 1846 014f 62000000 		.4byte	.LVL27
 1847 0153 66000000 		.4byte	.LFE16
 1848 0157 0A00     		.2byte	0xa
 1849 0159 F3       		.byte	0xf3
 1850 015a 03       		.uleb128 0x3
ARM GAS  /tmp/cczVt2F9.s 			page 47


 1851 015b F5       		.byte	0xf5
 1852 015c 00       		.uleb128 0
 1853 015d 29       		.uleb128 0x29
 1854 015e F7       		.byte	0xf7
 1855 015f 30       		.uleb128 0x30
 1856 0160 F7       		.byte	0xf7
 1857 0161 00       		.uleb128 0
 1858 0162 9F       		.byte	0x9f
 1859 0163 00000000 		.4byte	0
 1860 0167 00000000 		.4byte	0
 1861              	.LVUS15:
 1862 016b 02       		.uleb128 .LVU70
 1863 016c 00       		.uleb128 .LVU71
 1864 016d 00       		.uleb128 .LVU71
 1865 016e 00       		.uleb128 0
 1866              	.LLST15:
 1867 016f 5E000000 		.4byte	.LVL26
 1868 0173 62000000 		.4byte	.LVL27
 1869 0177 0200     		.2byte	0x2
 1870 0179 30       		.byte	0x30
 1871 017a 9F       		.byte	0x9f
 1872 017b 62000000 		.4byte	.LVL27
 1873 017f 66000000 		.4byte	.LFE16
 1874 0183 0100     		.2byte	0x1
 1875 0185 50       		.byte	0x50
 1876 0186 00000000 		.4byte	0
 1877 018a 00000000 		.4byte	0
 1878              	.LVUS12:
 1879 018e 00       		.uleb128 0
 1880 018f 00       		.uleb128 .LVU66
 1881 0190 00       		.uleb128 .LVU66
 1882 0191 00       		.uleb128 0
 1883              	.LLST12:
 1884 0192 58000000 		.4byte	.LVL24
 1885 0196 5C000000 		.4byte	.LVL25
 1886 019a 0100     		.2byte	0x1
 1887 019c 50       		.byte	0x50
 1888 019d 5C000000 		.4byte	.LVL25
 1889 01a1 5E000000 		.4byte	.LFE15
 1890 01a5 0A00     		.2byte	0xa
 1891 01a7 F3       		.byte	0xf3
 1892 01a8 03       		.uleb128 0x3
 1893 01a9 F5       		.byte	0xf5
 1894 01aa 00       		.uleb128 0
 1895 01ab 29       		.uleb128 0x29
 1896 01ac F7       		.byte	0xf7
 1897 01ad 30       		.uleb128 0x30
 1898 01ae F7       		.byte	0xf7
 1899 01af 00       		.uleb128 0
 1900 01b0 9F       		.byte	0x9f
 1901 01b1 00000000 		.4byte	0
 1902 01b5 00000000 		.4byte	0
 1903              	.LVUS13:
 1904 01b9 02       		.uleb128 .LVU65
 1905 01ba 00       		.uleb128 .LVU66
 1906 01bb 00       		.uleb128 .LVU66
 1907 01bc 00       		.uleb128 0
ARM GAS  /tmp/cczVt2F9.s 			page 48


 1908              	.LLST13:
 1909 01bd 58000000 		.4byte	.LVL24
 1910 01c1 5C000000 		.4byte	.LVL25
 1911 01c5 0200     		.2byte	0x2
 1912 01c7 30       		.byte	0x30
 1913 01c8 9F       		.byte	0x9f
 1914 01c9 5C000000 		.4byte	.LVL25
 1915 01cd 5E000000 		.4byte	.LFE15
 1916 01d1 0100     		.2byte	0x1
 1917 01d3 50       		.byte	0x50
 1918 01d4 00000000 		.4byte	0
 1919 01d8 00000000 		.4byte	0
 1920              	.LVUS10:
 1921 01dc 00       		.uleb128 0
 1922 01dd 00       		.uleb128 .LVU61
 1923 01de 00       		.uleb128 .LVU61
 1924 01df 00       		.uleb128 0
 1925              	.LLST10:
 1926 01e0 54000000 		.4byte	.LVL22
 1927 01e4 56000000 		.4byte	.LVL23
 1928 01e8 0100     		.2byte	0x1
 1929 01ea 50       		.byte	0x50
 1930 01eb 56000000 		.4byte	.LVL23
 1931 01ef 58000000 		.4byte	.LFE14
 1932 01f3 0A00     		.2byte	0xa
 1933 01f5 F3       		.byte	0xf3
 1934 01f6 03       		.uleb128 0x3
 1935 01f7 F5       		.byte	0xf5
 1936 01f8 00       		.uleb128 0
 1937 01f9 29       		.uleb128 0x29
 1938 01fa F7       		.byte	0xf7
 1939 01fb 37       		.uleb128 0x37
 1940 01fc F7       		.byte	0xf7
 1941 01fd 00       		.uleb128 0
 1942 01fe 9F       		.byte	0x9f
 1943 01ff 00000000 		.4byte	0
 1944 0203 00000000 		.4byte	0
 1945              	.LVUS11:
 1946 0207 02       		.uleb128 .LVU60
 1947 0208 00       		.uleb128 .LVU61
 1948 0209 00       		.uleb128 .LVU61
 1949 020a 00       		.uleb128 0
 1950              	.LLST11:
 1951 020b 54000000 		.4byte	.LVL22
 1952 020f 56000000 		.4byte	.LVL23
 1953 0213 0200     		.2byte	0x2
 1954 0215 30       		.byte	0x30
 1955 0216 9F       		.byte	0x9f
 1956 0217 56000000 		.4byte	.LVL23
 1957 021b 58000000 		.4byte	.LFE14
 1958 021f 0100     		.2byte	0x1
 1959 0221 50       		.byte	0x50
 1960 0222 00000000 		.4byte	0
 1961 0226 00000000 		.4byte	0
 1962              	.LVUS8:
 1963 022a 00       		.uleb128 0
 1964 022b 00       		.uleb128 .LVU56
ARM GAS  /tmp/cczVt2F9.s 			page 49


 1965 022c 00       		.uleb128 .LVU56
 1966 022d 00       		.uleb128 0
 1967              	.LLST8:
 1968 022e 50000000 		.4byte	.LVL20
 1969 0232 52000000 		.4byte	.LVL21
 1970 0236 0100     		.2byte	0x1
 1971 0238 50       		.byte	0x50
 1972 0239 52000000 		.4byte	.LVL21
 1973 023d 54000000 		.4byte	.LFE13
 1974 0241 0A00     		.2byte	0xa
 1975 0243 F3       		.byte	0xf3
 1976 0244 03       		.uleb128 0x3
 1977 0245 F5       		.byte	0xf5
 1978 0246 00       		.uleb128 0
 1979 0247 29       		.uleb128 0x29
 1980 0248 F7       		.byte	0xf7
 1981 0249 37       		.uleb128 0x37
 1982 024a F7       		.byte	0xf7
 1983 024b 00       		.uleb128 0
 1984 024c 9F       		.byte	0x9f
 1985 024d 00000000 		.4byte	0
 1986 0251 00000000 		.4byte	0
 1987              	.LVUS9:
 1988 0255 02       		.uleb128 .LVU55
 1989 0256 00       		.uleb128 .LVU56
 1990 0257 00       		.uleb128 .LVU56
 1991 0258 00       		.uleb128 0
 1992              	.LLST9:
 1993 0259 50000000 		.4byte	.LVL20
 1994 025d 52000000 		.4byte	.LVL21
 1995 0261 0200     		.2byte	0x2
 1996 0263 30       		.byte	0x30
 1997 0264 9F       		.byte	0x9f
 1998 0265 52000000 		.4byte	.LVL21
 1999 0269 54000000 		.4byte	.LFE13
 2000 026d 0100     		.2byte	0x1
 2001 026f 50       		.byte	0x50
 2002 0270 00000000 		.4byte	0
 2003 0274 00000000 		.4byte	0
 2004              	.LVUS6:
 2005 0278 00       		.uleb128 0
 2006 0279 00       		.uleb128 .LVU51
 2007 027a 00       		.uleb128 .LVU51
 2008 027b 00       		.uleb128 0
 2009              	.LLST6:
 2010 027c 4C000000 		.4byte	.LVL18
 2011 0280 4E000000 		.4byte	.LVL19
 2012 0284 0100     		.2byte	0x1
 2013 0286 50       		.byte	0x50
 2014 0287 4E000000 		.4byte	.LVL19
 2015 028b 50000000 		.4byte	.LFE12
 2016 028f 0A00     		.2byte	0xa
 2017 0291 F3       		.byte	0xf3
 2018 0292 03       		.uleb128 0x3
 2019 0293 F5       		.byte	0xf5
 2020 0294 00       		.uleb128 0
 2021 0295 29       		.uleb128 0x29
ARM GAS  /tmp/cczVt2F9.s 			page 50


 2022 0296 F7       		.byte	0xf7
 2023 0297 30       		.uleb128 0x30
 2024 0298 F7       		.byte	0xf7
 2025 0299 00       		.uleb128 0
 2026 029a 9F       		.byte	0x9f
 2027 029b 00000000 		.4byte	0
 2028 029f 00000000 		.4byte	0
 2029              	.LVUS7:
 2030 02a3 02       		.uleb128 .LVU50
 2031 02a4 00       		.uleb128 .LVU51
 2032 02a5 00       		.uleb128 .LVU51
 2033 02a6 00       		.uleb128 0
 2034              	.LLST7:
 2035 02a7 4C000000 		.4byte	.LVL18
 2036 02ab 4E000000 		.4byte	.LVL19
 2037 02af 0200     		.2byte	0x2
 2038 02b1 30       		.byte	0x30
 2039 02b2 9F       		.byte	0x9f
 2040 02b3 4E000000 		.4byte	.LVL19
 2041 02b7 50000000 		.4byte	.LFE12
 2042 02bb 0100     		.2byte	0x1
 2043 02bd 50       		.byte	0x50
 2044 02be 00000000 		.4byte	0
 2045 02c2 00000000 		.4byte	0
 2046              	.LVUS5:
 2047 02c6 02       		.uleb128 .LVU42
 2048 02c7 00       		.uleb128 .LVU43
 2049 02c8 00       		.uleb128 .LVU43
 2050 02c9 00       		.uleb128 0
 2051              	.LLST5:
 2052 02ca 40000000 		.4byte	.LVL15
 2053 02ce 44000000 		.4byte	.LVL16
 2054 02d2 0200     		.2byte	0x2
 2055 02d4 30       		.byte	0x30
 2056 02d5 9F       		.byte	0x9f
 2057 02d6 44000000 		.4byte	.LVL16
 2058 02da 46000000 		.4byte	.LFE10
 2059 02de 0100     		.2byte	0x1
 2060 02e0 50       		.byte	0x50
 2061 02e1 00000000 		.4byte	0
 2062 02e5 00000000 		.4byte	0
 2063              	.LVUS4:
 2064 02e9 02       		.uleb128 .LVU34
 2065 02ea 00       		.uleb128 .LVU35
 2066 02eb 00       		.uleb128 .LVU35
 2067 02ec 00       		.uleb128 0
 2068              	.LLST4:
 2069 02ed 34000000 		.4byte	.LVL12
 2070 02f1 38000000 		.4byte	.LVL13
 2071 02f5 0200     		.2byte	0x2
 2072 02f7 30       		.byte	0x30
 2073 02f8 9F       		.byte	0x9f
 2074 02f9 38000000 		.4byte	.LVL13
 2075 02fd 3A000000 		.4byte	.LFE8
 2076 0301 0100     		.2byte	0x1
 2077 0303 50       		.byte	0x50
 2078 0304 00000000 		.4byte	0
ARM GAS  /tmp/cczVt2F9.s 			page 51


 2079 0308 00000000 		.4byte	0
 2080              	.LVUS3:
 2081 030c 02       		.uleb128 .LVU26
 2082 030d 00       		.uleb128 .LVU27
 2083 030e 00       		.uleb128 .LVU27
 2084 030f 00       		.uleb128 0
 2085              	.LLST3:
 2086 0310 28000000 		.4byte	.LVL9
 2087 0314 2C000000 		.4byte	.LVL10
 2088 0318 0200     		.2byte	0x2
 2089 031a 30       		.byte	0x30
 2090 031b 9F       		.byte	0x9f
 2091 031c 2C000000 		.4byte	.LVL10
 2092 0320 2E000000 		.4byte	.LFE6
 2093 0324 0100     		.2byte	0x1
 2094 0326 50       		.byte	0x50
 2095 0327 00000000 		.4byte	0
 2096 032b 00000000 		.4byte	0
 2097              	.LVUS2:
 2098 032f 02       		.uleb128 .LVU18
 2099 0330 00       		.uleb128 .LVU19
 2100 0331 00       		.uleb128 .LVU19
 2101 0332 00       		.uleb128 0
 2102              	.LLST2:
 2103 0333 1C000000 		.4byte	.LVL6
 2104 0337 20000000 		.4byte	.LVL7
 2105 033b 0200     		.2byte	0x2
 2106 033d 30       		.byte	0x30
 2107 033e 9F       		.byte	0x9f
 2108 033f 20000000 		.4byte	.LVL7
 2109 0343 22000000 		.4byte	.LFE4
 2110 0347 0100     		.2byte	0x1
 2111 0349 50       		.byte	0x50
 2112 034a 00000000 		.4byte	0
 2113 034e 00000000 		.4byte	0
 2114              	.LVUS1:
 2115 0352 02       		.uleb128 .LVU10
 2116 0353 00       		.uleb128 .LVU11
 2117 0354 00       		.uleb128 .LVU11
 2118 0355 00       		.uleb128 0
 2119              	.LLST1:
 2120 0356 0E000000 		.4byte	.LVL3
 2121 035a 16000000 		.4byte	.LVL4
 2122 035e 0200     		.2byte	0x2
 2123 0360 30       		.byte	0x30
 2124 0361 9F       		.byte	0x9f
 2125 0362 16000000 		.4byte	.LVL4
 2126 0366 16000000 		.4byte	.LFE2
 2127 036a 0100     		.2byte	0x1
 2128 036c 50       		.byte	0x50
 2129 036d 00000000 		.4byte	0
 2130 0371 00000000 		.4byte	0
 2131              	.LVUS0:
 2132 0375 02       		.uleb128 .LVU2
 2133 0376 00       		.uleb128 .LVU3
 2134 0377 00       		.uleb128 .LVU3
 2135 0378 00       		.uleb128 0
ARM GAS  /tmp/cczVt2F9.s 			page 52


 2136              	.LLST0:
 2137 0379 00000000 		.4byte	.LVL0
 2138 037d 08000000 		.4byte	.LVL1
 2139 0381 0200     		.2byte	0x2
 2140 0383 30       		.byte	0x30
 2141 0384 9F       		.byte	0x9f
 2142 0385 08000000 		.4byte	.LVL1
 2143 0389 08000000 		.4byte	.LFE0
 2144 038d 0100     		.2byte	0x1
 2145 038f 50       		.byte	0x50
 2146 0390 00000000 		.4byte	0
 2147 0394 00000000 		.4byte	0
 2148              		.section	.debug_aranges,"",%progbits
 2149 0000 1C000000 		.4byte	0x1c
 2150 0004 0200     		.2byte	0x2
 2151 0006 00000000 		.4byte	.Ldebug_info0
 2152 000a 04       		.byte	0x4
 2153 000b 00       		.byte	0
 2154 000c 0000     		.2byte	0
 2155 000e 0000     		.2byte	0
 2156 0010 00000000 		.4byte	.Ltext0
 2157 0014 8A000000 		.4byte	.Letext0-.Ltext0
 2158 0018 00000000 		.4byte	0
 2159 001c 00000000 		.4byte	0
 2160              		.section	.debug_ranges,"",%progbits
 2161              	.Ldebug_ranges0:
 2162 0000 00000000 		.4byte	.Ltext0
 2163 0004 8A000000 		.4byte	.Letext0
 2164 0008 00000000 		.4byte	0
 2165 000c 00000000 		.4byte	0
 2166              		.section	.debug_line,"",%progbits
 2167              	.Ldebug_line0:
 2168 0000 70020000 		.section	.debug_str,"MS",%progbits,1
 2168      0300AB00 
 2168      00000201 
 2168      FB0E0D00 
 2168      01010101 
 2169              	.LASF20:
 2170 0000 5F5F5354 		.ascii	"__STREXH\000"
 2170      52455848 
 2170      00
 2171              	.LASF44:
 2172 0009 746F704F 		.ascii	"topOfMainStack\000"
 2172      664D6169 
 2172      6E537461 
 2172      636B00
 2173              	.LASF5:
 2174 0018 5F5F7569 		.ascii	"__uint8_t\000"
 2174      6E74385F 
 2174      7400
 2175              	.LASF34:
 2176 0022 5F5F7365 		.ascii	"__set_CONTROL\000"
 2176      745F434F 
 2176      4E54524F 
 2176      4C00
 2177              	.LASF6:
 2178 0030 5F5F696E 		.ascii	"__int16_t\000"
ARM GAS  /tmp/cczVt2F9.s 			page 53


 2178      7431365F 
 2178      7400
 2179              	.LASF21:
 2180 003a 76616C75 		.ascii	"value\000"
 2180      6500
 2181              	.LASF9:
 2182 0040 5F5F696E 		.ascii	"__int32_t\000"
 2182      7433325F 
 2182      7400
 2183              	.LASF19:
 2184 004a 5F5F5354 		.ascii	"__STREXW\000"
 2184      52455857 
 2184      00
 2185              	.LASF47:
 2186 0053 746F704F 		.ascii	"topOfProcStack\000"
 2186      6650726F 
 2186      63537461 
 2186      636B00
 2187              	.LASF51:
 2188 0062 2F686F6D 		.ascii	"/home/me/Codigos/6-Stm32_GCC_FreeRTOS10.2.1/3-ComPr"
 2188      652F6D65 
 2188      2F436F64 
 2188      69676F73 
 2188      2F362D53 
 2189 0095 6F636573 		.ascii	"ocessos\000"
 2189      736F7300 
 2190              	.LASF45:
 2191 009d 5F5F6765 		.ascii	"__get_MSP\000"
 2191      745F4D53 
 2191      5000
 2192              	.LASF43:
 2193 00a7 5F5F7365 		.ascii	"__set_MSP\000"
 2193      745F4D53 
 2193      5000
 2194              	.LASF42:
 2195 00b1 5F5F6765 		.ascii	"__get_BASEPRI\000"
 2195      745F4241 
 2195      53455052 
 2195      4900
 2196              	.LASF22:
 2197 00bf 61646472 		.ascii	"addr\000"
 2197      00
 2198              	.LASF30:
 2199 00c4 5F5F5245 		.ascii	"__REV16\000"
 2199      56313600 
 2200              	.LASF3:
 2201 00cc 756E7369 		.ascii	"unsigned char\000"
 2201      676E6564 
 2201      20636861 
 2201      7200
 2202              	.LASF40:
 2203 00da 5F5F6765 		.ascii	"__get_PRIMASK\000"
 2203      745F5052 
 2203      494D4153 
 2203      4B00
 2204              	.LASF35:
 2205 00e8 5F5F7365 		.ascii	"__set_FAULTMASK\000"
ARM GAS  /tmp/cczVt2F9.s 			page 54


 2205      745F4641 
 2205      554C544D 
 2205      41534B00 
 2206              	.LASF12:
 2207 00f8 6C6F6E67 		.ascii	"long unsigned int\000"
 2207      20756E73 
 2207      69676E65 
 2207      6420696E 
 2207      7400
 2208              	.LASF32:
 2209 010a 636F6E74 		.ascii	"control\000"
 2209      726F6C00 
 2210              	.LASF2:
 2211 0112 73686F72 		.ascii	"short unsigned int\000"
 2211      7420756E 
 2211      7369676E 
 2211      65642069 
 2211      6E7400
 2212              	.LASF29:
 2213 0125 5F5F5245 		.ascii	"__REVSH\000"
 2213      56534800 
 2214              	.LASF49:
 2215 012d 474E5520 		.ascii	"GNU C17 13.2.0 -mcpu=cortex-m3 -mthumb -mfloat-abi="
 2215      43313720 
 2215      31332E32 
 2215      2E30202D 
 2215      6D637075 
 2216 0160 736F6674 		.ascii	"soft -march=armv7-m -g -gdwarf-2 -Os -fomit-frame-p"
 2216      202D6D61 
 2216      7263683D 
 2216      61726D76 
 2216      372D6D20 
 2217 0193 6F696E74 		.ascii	"ointer\000"
 2217      657200
 2218              	.LASF8:
 2219 019a 5F5F7569 		.ascii	"__uint16_t\000"
 2219      6E743136 
 2219      5F7400
 2220              	.LASF39:
 2221 01a5 7072694D 		.ascii	"priMask\000"
 2221      61736B00 
 2222              	.LASF11:
 2223 01ad 5F5F7569 		.ascii	"__uint32_t\000"
 2223      6E743332 
 2223      5F7400
 2224              	.LASF25:
 2225 01b8 5F5F4C44 		.ascii	"__LDREXW\000"
 2225      52455857 
 2225      00
 2226              	.LASF1:
 2227 01c1 756E7369 		.ascii	"unsigned int\000"
 2227      676E6564 
 2227      20696E74 
 2227      00
 2228              	.LASF0:
 2229 01ce 6C6F6E67 		.ascii	"long long unsigned int\000"
 2229      206C6F6E 
ARM GAS  /tmp/cczVt2F9.s 			page 55


 2229      6720756E 
 2229      7369676E 
 2229      65642069 
 2230              	.LASF14:
 2231 01e5 75696E74 		.ascii	"uint8_t\000"
 2231      385F7400 
 2232              	.LASF24:
 2233 01ed 72657375 		.ascii	"result\000"
 2233      6C7400
 2234              	.LASF48:
 2235 01f4 5F5F6765 		.ascii	"__get_PSP\000"
 2235      745F5053 
 2235      5000
 2236              	.LASF15:
 2237 01fe 696E7431 		.ascii	"int16_t\000"
 2237      365F7400 
 2238              	.LASF17:
 2239 0206 696E7433 		.ascii	"int32_t\000"
 2239      325F7400 
 2240              	.LASF41:
 2241 020e 5F5F7365 		.ascii	"__set_BASEPRI\000"
 2241      745F4241 
 2241      53455052 
 2241      4900
 2242              	.LASF13:
 2243 021c 6C6F6E67 		.ascii	"long long int\000"
 2243      206C6F6E 
 2243      6720696E 
 2243      7400
 2244              	.LASF38:
 2245 022a 5F5F7365 		.ascii	"__set_PRIMASK\000"
 2245      745F5052 
 2245      494D4153 
 2245      4B00
 2246              	.LASF50:
 2247 0238 2E2E2F73 		.ascii	"../stm32f10x_lib/CMSIS/CM3/CoreSupport/core_cm3.c\000"
 2247      746D3332 
 2247      66313078 
 2247      5F6C6962 
 2247      2F434D53 
 2248              	.LASF31:
 2249 026a 5F5F5245 		.ascii	"__REV\000"
 2249      5600
 2250              	.LASF46:
 2251 0270 5F5F7365 		.ascii	"__set_PSP\000"
 2251      745F5053 
 2251      5000
 2252              	.LASF33:
 2253 027a 5F5F6765 		.ascii	"__get_CONTROL\000"
 2253      745F434F 
 2253      4E54524F 
 2253      4C00
 2254              	.LASF28:
 2255 0288 5F5F5242 		.ascii	"__RBIT\000"
 2255      495400
 2256              	.LASF7:
 2257 028f 73686F72 		.ascii	"short int\000"
ARM GAS  /tmp/cczVt2F9.s 			page 56


 2257      7420696E 
 2257      7400
 2258              	.LASF16:
 2259 0299 75696E74 		.ascii	"uint16_t\000"
 2259      31365F74 
 2259      00
 2260              	.LASF36:
 2261 02a2 6661756C 		.ascii	"faultMask\000"
 2261      744D6173 
 2261      6B00
 2262              	.LASF18:
 2263 02ac 75696E74 		.ascii	"uint32_t\000"
 2263      33325F74 
 2263      00
 2264              	.LASF10:
 2265 02b5 6C6F6E67 		.ascii	"long int\000"
 2265      20696E74 
 2265      00
 2266              	.LASF4:
 2267 02be 7369676E 		.ascii	"signed char\000"
 2267      65642063 
 2267      68617200 
 2268              	.LASF27:
 2269 02ca 5F5F4C44 		.ascii	"__LDREXB\000"
 2269      52455842 
 2269      00
 2270              	.LASF23:
 2271 02d3 5F5F5354 		.ascii	"__STREXB\000"
 2271      52455842 
 2271      00
 2272              	.LASF37:
 2273 02dc 5F5F6765 		.ascii	"__get_FAULTMASK\000"
 2273      745F4641 
 2273      554C544D 
 2273      41534B00 
 2274              	.LASF26:
 2275 02ec 5F5F4C44 		.ascii	"__LDREXH\000"
 2275      52455848 
 2275      00
 2276              		.ident	"GCC: (Arch Repository) 13.2.0"
ARM GAS  /tmp/cczVt2F9.s 			page 57


DEFINED SYMBOLS
                            *ABS*:00000000 core_cm3.c
     /tmp/cczVt2F9.s:24     .text:00000000 $t
     /tmp/cczVt2F9.s:30     .text:00000000 __get_PSP
     /tmp/cczVt2F9.s:62     .text:00000008 __set_PSP
     /tmp/cczVt2F9.s:90     .text:0000000e __get_MSP
     /tmp/cczVt2F9.s:122    .text:00000016 __set_MSP
     /tmp/cczVt2F9.s:150    .text:0000001c __get_BASEPRI
     /tmp/cczVt2F9.s:180    .text:00000022 __set_BASEPRI
     /tmp/cczVt2F9.s:207    .text:00000028 __get_PRIMASK
     /tmp/cczVt2F9.s:237    .text:0000002e __set_PRIMASK
     /tmp/cczVt2F9.s:264    .text:00000034 __get_FAULTMASK
     /tmp/cczVt2F9.s:294    .text:0000003a __set_FAULTMASK
     /tmp/cczVt2F9.s:321    .text:00000040 __get_CONTROL
     /tmp/cczVt2F9.s:351    .text:00000046 __set_CONTROL
     /tmp/cczVt2F9.s:378    .text:0000004c __REV
     /tmp/cczVt2F9.s:408    .text:00000050 __REV16
     /tmp/cczVt2F9.s:438    .text:00000054 __REVSH
     /tmp/cczVt2F9.s:468    .text:00000058 __RBIT
     /tmp/cczVt2F9.s:498    .text:0000005e __LDREXB
     /tmp/cczVt2F9.s:530    .text:00000066 __LDREXH
     /tmp/cczVt2F9.s:562    .text:0000006e __LDREXW
     /tmp/cczVt2F9.s:592    .text:00000074 __STREXB
     /tmp/cczVt2F9.s:624    .text:0000007c __STREXH
     /tmp/cczVt2F9.s:656    .text:00000084 __STREXW

NO UNDEFINED SYMBOLS
