ARM GAS  /tmp/cczVt2F9.s 			page 1


   1              		.cpu cortex-m3
   2              		.arch armv7-m
   3              		.fpu softvfp
   4              		.eabi_attribute 20, 1	@ Tag_ABI_FP_denormal
   5              		.eabi_attribute 21, 1	@ Tag_ABI_FP_exceptions
   6              		.eabi_attribute 23, 3	@ Tag_ABI_FP_number_model
   7              		.eabi_attribute 24, 1	@ Tag_ABI_align8_needed
   8              		.eabi_attribute 25, 1	@ Tag_ABI_align8_preserved
   9              		.eabi_attribute 26, 1	@ Tag_ABI_enum_size
  10              		.eabi_attribute 30, 4	@ Tag_ABI_optimization_goals
  11              		.eabi_attribute 34, 1	@ Tag_CPU_unaligned_access
  12              		.eabi_attribute 18, 4	@ Tag_ABI_PCS_wchar_t
  13              		.file	"core_cm3.c"
  14              	@ GNU C17 (Arch Repository) version 13.2.0 (arm-none-eabi)
  15              	@	compiled by GNU C version 13.2.1 20230730, GMP version 6.2.1, MPFR version 4.2.0-p12, MPC version
  16              	
  17              	@ warning: GMP header version 6.2.1 differs from library version 6.3.0.
  18              	@ GGC heuristics: --param ggc-min-expand=100 --param ggc-min-heapsize=131072
  19              	@ options passed: -mcpu=cortex-m3 -mthumb -mfloat-abi=soft -march=armv7-m -g -gdwarf-2 -Os -fomit-f
  20              		.text
  21              	.Ltext0:
  22              		.cfi_sections	.debug_frame
  23              		.file 1 "../stm32f10x_lib/CMSIS/CM3/CoreSupport/core_cm3.c"
  24              		.align	1
  25              		.global	__get_PSP
  26              		.syntax unified
  27              		.thumb
  28              		.thumb_func
  29              		.type	__get_PSP, %function
  30              	__get_PSP:
  31              	.LFB0:
   1:../stm32f10x_lib/CMSIS/CM3/CoreSupport/core_cm3.c **** /**************************************************************************//**
   2:../stm32f10x_lib/CMSIS/CM3/CoreSupport/core_cm3.c ****  * @file     core_cm3.c
   3:../stm32f10x_lib/CMSIS/CM3/CoreSupport/core_cm3.c ****  * @brief    CMSIS Cortex-M3 Core Peripheral Access Layer Source File
   4:../stm32f10x_lib/CMSIS/CM3/CoreSupport/core_cm3.c ****  * @version  V1.30
   5:../stm32f10x_lib/CMSIS/CM3/CoreSupport/core_cm3.c ****  * @date     30. October 2009
   6:../stm32f10x_lib/CMSIS/CM3/CoreSupport/core_cm3.c ****  *
   7:../stm32f10x_lib/CMSIS/CM3/CoreSupport/core_cm3.c ****  * @note
   8:../stm32f10x_lib/CMSIS/CM3/CoreSupport/core_cm3.c ****  * Copyright (C) 2009 ARM Limited. All rights reserved.
   9:../stm32f10x_lib/CMSIS/CM3/CoreSupport/core_cm3.c ****  *
  10:../stm32f10x_lib/CMSIS/CM3/CoreSupport/core_cm3.c ****  * @par
  11:../stm32f10x_lib/CMSIS/CM3/CoreSupport/core_cm3.c ****  * ARM Limited (ARM) is supplying this software for use with Cortex-M 
  12:../stm32f10x_lib/CMSIS/CM3/CoreSupport/core_cm3.c ****  * processor based microcontrollers.  This file can be freely distributed 
  13:../stm32f10x_lib/CMSIS/CM3/CoreSupport/core_cm3.c ****  * within development tools that are supporting such ARM based processors. 
  14:../stm32f10x_lib/CMSIS/CM3/CoreSupport/core_cm3.c ****  *
  15:../stm32f10x_lib/CMSIS/CM3/CoreSupport/core_cm3.c ****  * @par
  16:../stm32f10x_lib/CMSIS/CM3/CoreSupport/core_cm3.c ****  * THIS SOFTWARE IS PROVIDED "AS IS".  NO WARRANTIES, WHETHER EXPRESS, IMPLIED
  17:../stm32f10x_lib/CMSIS/CM3/CoreSupport/core_cm3.c ****  * OR STATUTORY, INCLUDING, BUT NOT LIMITED TO, IMPLIED WARRANTIES OF
  18:../stm32f10x_lib/CMSIS/CM3/CoreSupport/core_cm3.c ****  * MERCHANTABILITY AND FITNESS FOR A PARTICULAR PURPOSE APPLY TO THIS SOFTWARE.
  19:../stm32f10x_lib/CMSIS/CM3/CoreSupport/core_cm3.c ****  * ARM SHALL NOT, IN ANY CIRCUMSTANCES, BE LIABLE FOR SPECIAL, INCIDENTAL, OR
  20:../stm32f10x_lib/CMSIS/CM3/CoreSupport/core_cm3.c ****  * CONSEQUENTIAL DAMAGES, FOR ANY REASON WHATSOEVER.
  21:../stm32f10x_lib/CMSIS/CM3/CoreSupport/core_cm3.c ****  *
  22:../stm32f10x_lib/CMSIS/CM3/CoreSupport/core_cm3.c ****  ******************************************************************************/
  23:../stm32f10x_lib/CMSIS/CM3/CoreSupport/core_cm3.c **** 
  24:../stm32f10x_lib/CMSIS/CM3/CoreSupport/core_cm3.c **** #include <stdint.h>
  25:../stm32f10x_lib/CMSIS/CM3/CoreSupport/core_cm3.c **** 
  26:../stm32f10x_lib/CMSIS/CM3/CoreSupport/core_cm3.c **** /* define compiler specific symbols */
ARM GAS  /tmp/cczVt2F9.s 			page 2


  27:../stm32f10x_lib/CMSIS/CM3/CoreSupport/core_cm3.c **** #if defined ( __CC_ARM   )
  28:../stm32f10x_lib/CMSIS/CM3/CoreSupport/core_cm3.c ****   #define __ASM            __asm                                      /*!< asm keyword for ARM Comp
  29:../stm32f10x_lib/CMSIS/CM3/CoreSupport/core_cm3.c ****   #define __INLINE         __inline                                   /*!< inline keyword for ARM C
  30:../stm32f10x_lib/CMSIS/CM3/CoreSupport/core_cm3.c **** 
  31:../stm32f10x_lib/CMSIS/CM3/CoreSupport/core_cm3.c **** #elif defined ( __ICCARM__ )
  32:../stm32f10x_lib/CMSIS/CM3/CoreSupport/core_cm3.c ****   #define __ASM           __asm                                       /*!< asm keyword for IAR Comp
  33:../stm32f10x_lib/CMSIS/CM3/CoreSupport/core_cm3.c ****   #define __INLINE        inline                                      /*!< inline keyword for IAR C
  34:../stm32f10x_lib/CMSIS/CM3/CoreSupport/core_cm3.c **** 
  35:../stm32f10x_lib/CMSIS/CM3/CoreSupport/core_cm3.c **** #elif defined   (  __GNUC__  )
  36:../stm32f10x_lib/CMSIS/CM3/CoreSupport/core_cm3.c ****   #define __ASM            __asm                                      /*!< asm keyword for GNU Comp
  37:../stm32f10x_lib/CMSIS/CM3/CoreSupport/core_cm3.c ****   #define __INLINE         inline                                     /*!< inline keyword for GNU C
  38:../stm32f10x_lib/CMSIS/CM3/CoreSupport/core_cm3.c **** 
  39:../stm32f10x_lib/CMSIS/CM3/CoreSupport/core_cm3.c **** #elif defined   (  __TASKING__  )
  40:../stm32f10x_lib/CMSIS/CM3/CoreSupport/core_cm3.c ****   #define __ASM            __asm                                      /*!< asm keyword for TASKING 
  41:../stm32f10x_lib/CMSIS/CM3/CoreSupport/core_cm3.c ****   #define __INLINE         inline                                     /*!< inline keyword for TASKI
  42:../stm32f10x_lib/CMSIS/CM3/CoreSupport/core_cm3.c **** 
  43:../stm32f10x_lib/CMSIS/CM3/CoreSupport/core_cm3.c **** #endif
  44:../stm32f10x_lib/CMSIS/CM3/CoreSupport/core_cm3.c **** 
  45:../stm32f10x_lib/CMSIS/CM3/CoreSupport/core_cm3.c **** 
  46:../stm32f10x_lib/CMSIS/CM3/CoreSupport/core_cm3.c **** /* ###################  Compiler specific Intrinsics  ########################### */
  47:../stm32f10x_lib/CMSIS/CM3/CoreSupport/core_cm3.c **** 
  48:../stm32f10x_lib/CMSIS/CM3/CoreSupport/core_cm3.c **** #if defined ( __CC_ARM   ) /*------------------RealView Compiler -----------------*/
  49:../stm32f10x_lib/CMSIS/CM3/CoreSupport/core_cm3.c **** /* ARM armcc specific functions */
  50:../stm32f10x_lib/CMSIS/CM3/CoreSupport/core_cm3.c **** 
  51:../stm32f10x_lib/CMSIS/CM3/CoreSupport/core_cm3.c **** /**
  52:../stm32f10x_lib/CMSIS/CM3/CoreSupport/core_cm3.c ****  * @brief  Return the Process Stack Pointer
  53:../stm32f10x_lib/CMSIS/CM3/CoreSupport/core_cm3.c ****  *
  54:../stm32f10x_lib/CMSIS/CM3/CoreSupport/core_cm3.c ****  * @return ProcessStackPointer
  55:../stm32f10x_lib/CMSIS/CM3/CoreSupport/core_cm3.c ****  *
  56:../stm32f10x_lib/CMSIS/CM3/CoreSupport/core_cm3.c ****  * Return the actual process stack pointer
  57:../stm32f10x_lib/CMSIS/CM3/CoreSupport/core_cm3.c ****  */
  58:../stm32f10x_lib/CMSIS/CM3/CoreSupport/core_cm3.c **** __ASM uint32_t __get_PSP(void)
  59:../stm32f10x_lib/CMSIS/CM3/CoreSupport/core_cm3.c **** {
  60:../stm32f10x_lib/CMSIS/CM3/CoreSupport/core_cm3.c ****   mrs r0, psp
  61:../stm32f10x_lib/CMSIS/CM3/CoreSupport/core_cm3.c ****   bx lr
  62:../stm32f10x_lib/CMSIS/CM3/CoreSupport/core_cm3.c **** }
  63:../stm32f10x_lib/CMSIS/CM3/CoreSupport/core_cm3.c **** 
  64:../stm32f10x_lib/CMSIS/CM3/CoreSupport/core_cm3.c **** /**
  65:../stm32f10x_lib/CMSIS/CM3/CoreSupport/core_cm3.c ****  * @brief  Set the Process Stack Pointer
  66:../stm32f10x_lib/CMSIS/CM3/CoreSupport/core_cm3.c ****  *
  67:../stm32f10x_lib/CMSIS/CM3/CoreSupport/core_cm3.c ****  * @param  topOfProcStack  Process Stack Pointer
  68:../stm32f10x_lib/CMSIS/CM3/CoreSupport/core_cm3.c ****  *
  69:../stm32f10x_lib/CMSIS/CM3/CoreSupport/core_cm3.c ****  * Assign the value ProcessStackPointer to the MSP 
  70:../stm32f10x_lib/CMSIS/CM3/CoreSupport/core_cm3.c ****  * (process stack pointer) Cortex processor register
  71:../stm32f10x_lib/CMSIS/CM3/CoreSupport/core_cm3.c ****  */
  72:../stm32f10x_lib/CMSIS/CM3/CoreSupport/core_cm3.c **** __ASM void __set_PSP(uint32_t topOfProcStack)
  73:../stm32f10x_lib/CMSIS/CM3/CoreSupport/core_cm3.c **** {
  74:../stm32f10x_lib/CMSIS/CM3/CoreSupport/core_cm3.c ****   msr psp, r0
  75:../stm32f10x_lib/CMSIS/CM3/CoreSupport/core_cm3.c ****   bx lr
  76:../stm32f10x_lib/CMSIS/CM3/CoreSupport/core_cm3.c **** }
  77:../stm32f10x_lib/CMSIS/CM3/CoreSupport/core_cm3.c **** 
  78:../stm32f10x_lib/CMSIS/CM3/CoreSupport/core_cm3.c **** /**
  79:../stm32f10x_lib/CMSIS/CM3/CoreSupport/core_cm3.c ****  * @brief  Return the Main Stack Pointer
  80:../stm32f10x_lib/CMSIS/CM3/CoreSupport/core_cm3.c ****  *
  81:../stm32f10x_lib/CMSIS/CM3/CoreSupport/core_cm3.c ****  * @return Main Stack Pointer
  82:../stm32f10x_lib/CMSIS/CM3/CoreSupport/core_cm3.c ****  *
  83:../stm32f10x_lib/CMSIS/CM3/CoreSupport/core_cm3.c ****  * Return the current value of the MSP (main stack pointer)
ARM GAS  /tmp/cczVt2F9.s 			page 3


  84:../stm32f10x_lib/CMSIS/CM3/CoreSupport/core_cm3.c ****  * Cortex processor register
  85:../stm32f10x_lib/CMSIS/CM3/CoreSupport/core_cm3.c ****  */
  86:../stm32f10x_lib/CMSIS/CM3/CoreSupport/core_cm3.c **** __ASM uint32_t __get_MSP(void)
  87:../stm32f10x_lib/CMSIS/CM3/CoreSupport/core_cm3.c **** {
  88:../stm32f10x_lib/CMSIS/CM3/CoreSupport/core_cm3.c ****   mrs r0, msp
  89:../stm32f10x_lib/CMSIS/CM3/CoreSupport/core_cm3.c ****   bx lr
  90:../stm32f10x_lib/CMSIS/CM3/CoreSupport/core_cm3.c **** }
  91:../stm32f10x_lib/CMSIS/CM3/CoreSupport/core_cm3.c **** 
  92:../stm32f10x_lib/CMSIS/CM3/CoreSupport/core_cm3.c **** /**
  93:../stm32f10x_lib/CMSIS/CM3/CoreSupport/core_cm3.c ****  * @brief  Set the Main Stack Pointer
  94:../stm32f10x_lib/CMSIS/CM3/CoreSupport/core_cm3.c ****  *
  95:../stm32f10x_lib/CMSIS/CM3/CoreSupport/core_cm3.c ****  * @param  topOfMainStack  Main Stack Pointer
  96:../stm32f10x_lib/CMSIS/CM3/CoreSupport/core_cm3.c ****  *
  97:../stm32f10x_lib/CMSIS/CM3/CoreSupport/core_cm3.c ****  * Assign the value mainStackPointer to the MSP 
  98:../stm32f10x_lib/CMSIS/CM3/CoreSupport/core_cm3.c ****  * (main stack pointer) Cortex processor register
  99:../stm32f10x_lib/CMSIS/CM3/CoreSupport/core_cm3.c ****  */
 100:../stm32f10x_lib/CMSIS/CM3/CoreSupport/core_cm3.c **** __ASM void __set_MSP(uint32_t mainStackPointer)
 101:../stm32f10x_lib/CMSIS/CM3/CoreSupport/core_cm3.c **** {
 102:../stm32f10x_lib/CMSIS/CM3/CoreSupport/core_cm3.c ****   msr msp, r0
 103:../stm32f10x_lib/CMSIS/CM3/CoreSupport/core_cm3.c ****   bx lr
 104:../stm32f10x_lib/CMSIS/CM3/CoreSupport/core_cm3.c **** }
 105:../stm32f10x_lib/CMSIS/CM3/CoreSupport/core_cm3.c **** 
 106:../stm32f10x_lib/CMSIS/CM3/CoreSupport/core_cm3.c **** /**
 107:../stm32f10x_lib/CMSIS/CM3/CoreSupport/core_cm3.c ****  * @brief  Reverse byte order in unsigned short value
 108:../stm32f10x_lib/CMSIS/CM3/CoreSupport/core_cm3.c ****  *
 109:../stm32f10x_lib/CMSIS/CM3/CoreSupport/core_cm3.c ****  * @param   value  value to reverse
 110:../stm32f10x_lib/CMSIS/CM3/CoreSupport/core_cm3.c ****  * @return         reversed value
 111:../stm32f10x_lib/CMSIS/CM3/CoreSupport/core_cm3.c ****  *
 112:../stm32f10x_lib/CMSIS/CM3/CoreSupport/core_cm3.c ****  * Reverse byte order in unsigned short value
 113:../stm32f10x_lib/CMSIS/CM3/CoreSupport/core_cm3.c ****  */
 114:../stm32f10x_lib/CMSIS/CM3/CoreSupport/core_cm3.c **** __ASM uint32_t __REV16(uint16_t value)
 115:../stm32f10x_lib/CMSIS/CM3/CoreSupport/core_cm3.c **** {
 116:../stm32f10x_lib/CMSIS/CM3/CoreSupport/core_cm3.c ****   rev16 r0, r0
 117:../stm32f10x_lib/CMSIS/CM3/CoreSupport/core_cm3.c ****   bx lr
 118:../stm32f10x_lib/CMSIS/CM3/CoreSupport/core_cm3.c **** }
 119:../stm32f10x_lib/CMSIS/CM3/CoreSupport/core_cm3.c **** 
 120:../stm32f10x_lib/CMSIS/CM3/CoreSupport/core_cm3.c **** /**
 121:../stm32f10x_lib/CMSIS/CM3/CoreSupport/core_cm3.c ****  * @brief  Reverse byte order in signed short value with sign extension to integer
 122:../stm32f10x_lib/CMSIS/CM3/CoreSupport/core_cm3.c ****  *
 123:../stm32f10x_lib/CMSIS/CM3/CoreSupport/core_cm3.c ****  * @param   value  value to reverse
 124:../stm32f10x_lib/CMSIS/CM3/CoreSupport/core_cm3.c ****  * @return         reversed value
 125:../stm32f10x_lib/CMSIS/CM3/CoreSupport/core_cm3.c ****  *
 126:../stm32f10x_lib/CMSIS/CM3/CoreSupport/core_cm3.c ****  * Reverse byte order in signed short value with sign extension to integer
 127:../stm32f10x_lib/CMSIS/CM3/CoreSupport/core_cm3.c ****  */
 128:../stm32f10x_lib/CMSIS/CM3/CoreSupport/core_cm3.c **** __ASM int32_t __REVSH(int16_t value)
 129:../stm32f10x_lib/CMSIS/CM3/CoreSupport/core_cm3.c **** {
 130:../stm32f10x_lib/CMSIS/CM3/CoreSupport/core_cm3.c ****   revsh r0, r0
 131:../stm32f10x_lib/CMSIS/CM3/CoreSupport/core_cm3.c ****   bx lr
 132:../stm32f10x_lib/CMSIS/CM3/CoreSupport/core_cm3.c **** }
 133:../stm32f10x_lib/CMSIS/CM3/CoreSupport/core_cm3.c **** 
 134:../stm32f10x_lib/CMSIS/CM3/CoreSupport/core_cm3.c **** 
 135:../stm32f10x_lib/CMSIS/CM3/CoreSupport/core_cm3.c **** #if (__ARMCC_VERSION < 400000)
 136:../stm32f10x_lib/CMSIS/CM3/CoreSupport/core_cm3.c **** 
 137:../stm32f10x_lib/CMSIS/CM3/CoreSupport/core_cm3.c **** /**
 138:../stm32f10x_lib/CMSIS/CM3/CoreSupport/core_cm3.c ****  * @brief  Remove the exclusive lock created by ldrex
 139:../stm32f10x_lib/CMSIS/CM3/CoreSupport/core_cm3.c ****  *
 140:../stm32f10x_lib/CMSIS/CM3/CoreSupport/core_cm3.c ****  * Removes the exclusive lock which is created by ldrex.
ARM GAS  /tmp/cczVt2F9.s 			page 4


 141:../stm32f10x_lib/CMSIS/CM3/CoreSupport/core_cm3.c ****  */
 142:../stm32f10x_lib/CMSIS/CM3/CoreSupport/core_cm3.c **** __ASM void __CLREX(void)
 143:../stm32f10x_lib/CMSIS/CM3/CoreSupport/core_cm3.c **** {
 144:../stm32f10x_lib/CMSIS/CM3/CoreSupport/core_cm3.c ****   clrex
 145:../stm32f10x_lib/CMSIS/CM3/CoreSupport/core_cm3.c **** }
 146:../stm32f10x_lib/CMSIS/CM3/CoreSupport/core_cm3.c **** 
 147:../stm32f10x_lib/CMSIS/CM3/CoreSupport/core_cm3.c **** /**
 148:../stm32f10x_lib/CMSIS/CM3/CoreSupport/core_cm3.c ****  * @brief  Return the Base Priority value
 149:../stm32f10x_lib/CMSIS/CM3/CoreSupport/core_cm3.c ****  *
 150:../stm32f10x_lib/CMSIS/CM3/CoreSupport/core_cm3.c ****  * @return BasePriority
 151:../stm32f10x_lib/CMSIS/CM3/CoreSupport/core_cm3.c ****  *
 152:../stm32f10x_lib/CMSIS/CM3/CoreSupport/core_cm3.c ****  * Return the content of the base priority register
 153:../stm32f10x_lib/CMSIS/CM3/CoreSupport/core_cm3.c ****  */
 154:../stm32f10x_lib/CMSIS/CM3/CoreSupport/core_cm3.c **** __ASM uint32_t  __get_BASEPRI(void)
 155:../stm32f10x_lib/CMSIS/CM3/CoreSupport/core_cm3.c **** {
 156:../stm32f10x_lib/CMSIS/CM3/CoreSupport/core_cm3.c ****   mrs r0, basepri
 157:../stm32f10x_lib/CMSIS/CM3/CoreSupport/core_cm3.c ****   bx lr
 158:../stm32f10x_lib/CMSIS/CM3/CoreSupport/core_cm3.c **** }
 159:../stm32f10x_lib/CMSIS/CM3/CoreSupport/core_cm3.c **** 
 160:../stm32f10x_lib/CMSIS/CM3/CoreSupport/core_cm3.c **** /**
 161:../stm32f10x_lib/CMSIS/CM3/CoreSupport/core_cm3.c ****  * @brief  Set the Base Priority value
 162:../stm32f10x_lib/CMSIS/CM3/CoreSupport/core_cm3.c ****  *
 163:../stm32f10x_lib/CMSIS/CM3/CoreSupport/core_cm3.c ****  * @param  basePri  BasePriority
 164:../stm32f10x_lib/CMSIS/CM3/CoreSupport/core_cm3.c ****  *
 165:../stm32f10x_lib/CMSIS/CM3/CoreSupport/core_cm3.c ****  * Set the base priority register
 166:../stm32f10x_lib/CMSIS/CM3/CoreSupport/core_cm3.c ****  */
 167:../stm32f10x_lib/CMSIS/CM3/CoreSupport/core_cm3.c **** __ASM void __set_BASEPRI(uint32_t basePri)
 168:../stm32f10x_lib/CMSIS/CM3/CoreSupport/core_cm3.c **** {
 169:../stm32f10x_lib/CMSIS/CM3/CoreSupport/core_cm3.c ****   msr basepri, r0
 170:../stm32f10x_lib/CMSIS/CM3/CoreSupport/core_cm3.c ****   bx lr
 171:../stm32f10x_lib/CMSIS/CM3/CoreSupport/core_cm3.c **** }
 172:../stm32f10x_lib/CMSIS/CM3/CoreSupport/core_cm3.c **** 
 173:../stm32f10x_lib/CMSIS/CM3/CoreSupport/core_cm3.c **** /**
 174:../stm32f10x_lib/CMSIS/CM3/CoreSupport/core_cm3.c ****  * @brief  Return the Priority Mask value
 175:../stm32f10x_lib/CMSIS/CM3/CoreSupport/core_cm3.c ****  *
 176:../stm32f10x_lib/CMSIS/CM3/CoreSupport/core_cm3.c ****  * @return PriMask
 177:../stm32f10x_lib/CMSIS/CM3/CoreSupport/core_cm3.c ****  *
 178:../stm32f10x_lib/CMSIS/CM3/CoreSupport/core_cm3.c ****  * Return state of the priority mask bit from the priority mask register
 179:../stm32f10x_lib/CMSIS/CM3/CoreSupport/core_cm3.c ****  */
 180:../stm32f10x_lib/CMSIS/CM3/CoreSupport/core_cm3.c **** __ASM uint32_t __get_PRIMASK(void)
 181:../stm32f10x_lib/CMSIS/CM3/CoreSupport/core_cm3.c **** {
 182:../stm32f10x_lib/CMSIS/CM3/CoreSupport/core_cm3.c ****   mrs r0, primask
 183:../stm32f10x_lib/CMSIS/CM3/CoreSupport/core_cm3.c ****   bx lr
 184:../stm32f10x_lib/CMSIS/CM3/CoreSupport/core_cm3.c **** }
 185:../stm32f10x_lib/CMSIS/CM3/CoreSupport/core_cm3.c **** 
 186:../stm32f10x_lib/CMSIS/CM3/CoreSupport/core_cm3.c **** /**
 187:../stm32f10x_lib/CMSIS/CM3/CoreSupport/core_cm3.c ****  * @brief  Set the Priority Mask value
 188:../stm32f10x_lib/CMSIS/CM3/CoreSupport/core_cm3.c ****  *
 189:../stm32f10x_lib/CMSIS/CM3/CoreSupport/core_cm3.c ****  * @param  priMask  PriMask
 190:../stm32f10x_lib/CMSIS/CM3/CoreSupport/core_cm3.c ****  *
 191:../stm32f10x_lib/CMSIS/CM3/CoreSupport/core_cm3.c ****  * Set the priority mask bit in the priority mask register
 192:../stm32f10x_lib/CMSIS/CM3/CoreSupport/core_cm3.c ****  */
 193:../stm32f10x_lib/CMSIS/CM3/CoreSupport/core_cm3.c **** __ASM void __set_PRIMASK(uint32_t priMask)
 194:../stm32f10x_lib/CMSIS/CM3/CoreSupport/core_cm3.c **** {
 195:../stm32f10x_lib/CMSIS/CM3/CoreSupport/core_cm3.c ****   msr primask, r0
 196:../stm32f10x_lib/CMSIS/CM3/CoreSupport/core_cm3.c ****   bx lr
 197:../stm32f10x_lib/CMSIS/CM3/CoreSupport/core_cm3.c **** }
ARM GAS  /tmp/cczVt2F9.s 			page 5


 198:../stm32f10x_lib/CMSIS/CM3/CoreSupport/core_cm3.c **** 
 199:../stm32f10x_lib/CMSIS/CM3/CoreSupport/core_cm3.c **** /**
 200:../stm32f10x_lib/CMSIS/CM3/CoreSupport/core_cm3.c ****  * @brief  Return the Fault Mask value
 201:../stm32f10x_lib/CMSIS/CM3/CoreSupport/core_cm3.c ****  *
 202:../stm32f10x_lib/CMSIS/CM3/CoreSupport/core_cm3.c ****  * @return FaultMask
 203:../stm32f10x_lib/CMSIS/CM3/CoreSupport/core_cm3.c ****  *
 204:../stm32f10x_lib/CMSIS/CM3/CoreSupport/core_cm3.c ****  * Return the content of the fault mask register
 205:../stm32f10x_lib/CMSIS/CM3/CoreSupport/core_cm3.c ****  */
 206:../stm32f10x_lib/CMSIS/CM3/CoreSupport/core_cm3.c **** __ASM uint32_t  __get_FAULTMASK(void)
 207:../stm32f10x_lib/CMSIS/CM3/CoreSupport/core_cm3.c **** {
 208:../stm32f10x_lib/CMSIS/CM3/CoreSupport/core_cm3.c ****   mrs r0, faultmask
 209:../stm32f10x_lib/CMSIS/CM3/CoreSupport/core_cm3.c ****   bx lr
 210:../stm32f10x_lib/CMSIS/CM3/CoreSupport/core_cm3.c **** }
 211:../stm32f10x_lib/CMSIS/CM3/CoreSupport/core_cm3.c **** 
 212:../stm32f10x_lib/CMSIS/CM3/CoreSupport/core_cm3.c **** /**
 213:../stm32f10x_lib/CMSIS/CM3/CoreSupport/core_cm3.c ****  * @brief  Set the Fault Mask value
 214:../stm32f10x_lib/CMSIS/CM3/CoreSupport/core_cm3.c ****  *
 215:../stm32f10x_lib/CMSIS/CM3/CoreSupport/core_cm3.c ****  * @param  faultMask  faultMask value
 216:../stm32f10x_lib/CMSIS/CM3/CoreSupport/core_cm3.c ****  *
 217:../stm32f10x_lib/CMSIS/CM3/CoreSupport/core_cm3.c ****  * Set the fault mask register
 218:../stm32f10x_lib/CMSIS/CM3/CoreSupport/core_cm3.c ****  */
 219:../stm32f10x_lib/CMSIS/CM3/CoreSupport/core_cm3.c **** __ASM void __set_FAULTMASK(uint32_t faultMask)
 220:../stm32f10x_lib/CMSIS/CM3/CoreSupport/core_cm3.c **** {
 221:../stm32f10x_lib/CMSIS/CM3/CoreSupport/core_cm3.c ****   msr faultmask, r0
 222:../stm32f10x_lib/CMSIS/CM3/CoreSupport/core_cm3.c ****   bx lr
 223:../stm32f10x_lib/CMSIS/CM3/CoreSupport/core_cm3.c **** }
 224:../stm32f10x_lib/CMSIS/CM3/CoreSupport/core_cm3.c **** 
 225:../stm32f10x_lib/CMSIS/CM3/CoreSupport/core_cm3.c **** /**
 226:../stm32f10x_lib/CMSIS/CM3/CoreSupport/core_cm3.c ****  * @brief  Return the Control Register value
 227:../stm32f10x_lib/CMSIS/CM3/CoreSupport/core_cm3.c ****  * 
 228:../stm32f10x_lib/CMSIS/CM3/CoreSupport/core_cm3.c ****  * @return Control value
 229:../stm32f10x_lib/CMSIS/CM3/CoreSupport/core_cm3.c ****  *
 230:../stm32f10x_lib/CMSIS/CM3/CoreSupport/core_cm3.c ****  * Return the content of the control register
 231:../stm32f10x_lib/CMSIS/CM3/CoreSupport/core_cm3.c ****  */
 232:../stm32f10x_lib/CMSIS/CM3/CoreSupport/core_cm3.c **** __ASM uint32_t __get_CONTROL(void)
 233:../stm32f10x_lib/CMSIS/CM3/CoreSupport/core_cm3.c **** {
 234:../stm32f10x_lib/CMSIS/CM3/CoreSupport/core_cm3.c ****   mrs r0, control
 235:../stm32f10x_lib/CMSIS/CM3/CoreSupport/core_cm3.c ****   bx lr
 236:../stm32f10x_lib/CMSIS/CM3/CoreSupport/core_cm3.c **** }
 237:../stm32f10x_lib/CMSIS/CM3/CoreSupport/core_cm3.c **** 
 238:../stm32f10x_lib/CMSIS/CM3/CoreSupport/core_cm3.c **** /**
 239:../stm32f10x_lib/CMSIS/CM3/CoreSupport/core_cm3.c ****  * @brief  Set the Control Register value
 240:../stm32f10x_lib/CMSIS/CM3/CoreSupport/core_cm3.c ****  *
 241:../stm32f10x_lib/CMSIS/CM3/CoreSupport/core_cm3.c ****  * @param  control  Control value
 242:../stm32f10x_lib/CMSIS/CM3/CoreSupport/core_cm3.c ****  *
 243:../stm32f10x_lib/CMSIS/CM3/CoreSupport/core_cm3.c ****  * Set the control register
 244:../stm32f10x_lib/CMSIS/CM3/CoreSupport/core_cm3.c ****  */
 245:../stm32f10x_lib/CMSIS/CM3/CoreSupport/core_cm3.c **** __ASM void __set_CONTROL(uint32_t control)
 246:../stm32f10x_lib/CMSIS/CM3/CoreSupport/core_cm3.c **** {
 247:../stm32f10x_lib/CMSIS/CM3/CoreSupport/core_cm3.c ****   msr control, r0
 248:../stm32f10x_lib/CMSIS/CM3/CoreSupport/core_cm3.c ****   bx lr
 249:../stm32f10x_lib/CMSIS/CM3/CoreSupport/core_cm3.c **** }
 250:../stm32f10x_lib/CMSIS/CM3/CoreSupport/core_cm3.c **** 
 251:../stm32f10x_lib/CMSIS/CM3/CoreSupport/core_cm3.c **** #endif /* __ARMCC_VERSION  */ 
 252:../stm32f10x_lib/CMSIS/CM3/CoreSupport/core_cm3.c **** 
 253:../stm32f10x_lib/CMSIS/CM3/CoreSupport/core_cm3.c **** 
 254:../stm32f10x_lib/CMSIS/CM3/CoreSupport/core_cm3.c **** 
ARM GAS  /tmp/cczVt2F9.s 			page 6


 255:../stm32f10x_lib/CMSIS/CM3/CoreSupport/core_cm3.c **** #elif (defined (__ICCARM__)) /*------------------ ICC Compiler -------------------*/
 256:../stm32f10x_lib/CMSIS/CM3/CoreSupport/core_cm3.c **** /* IAR iccarm specific functions */
 257:../stm32f10x_lib/CMSIS/CM3/CoreSupport/core_cm3.c **** #pragma diag_suppress=Pe940
 258:../stm32f10x_lib/CMSIS/CM3/CoreSupport/core_cm3.c **** 
 259:../stm32f10x_lib/CMSIS/CM3/CoreSupport/core_cm3.c **** /**
 260:../stm32f10x_lib/CMSIS/CM3/CoreSupport/core_cm3.c ****  * @brief  Return the Process Stack Pointer
 261:../stm32f10x_lib/CMSIS/CM3/CoreSupport/core_cm3.c ****  *
 262:../stm32f10x_lib/CMSIS/CM3/CoreSupport/core_cm3.c ****  * @return ProcessStackPointer
 263:../stm32f10x_lib/CMSIS/CM3/CoreSupport/core_cm3.c ****  *
 264:../stm32f10x_lib/CMSIS/CM3/CoreSupport/core_cm3.c ****  * Return the actual process stack pointer
 265:../stm32f10x_lib/CMSIS/CM3/CoreSupport/core_cm3.c ****  */
 266:../stm32f10x_lib/CMSIS/CM3/CoreSupport/core_cm3.c **** uint32_t __get_PSP(void)
 267:../stm32f10x_lib/CMSIS/CM3/CoreSupport/core_cm3.c **** {
 268:../stm32f10x_lib/CMSIS/CM3/CoreSupport/core_cm3.c ****   __ASM("mrs r0, psp");
 269:../stm32f10x_lib/CMSIS/CM3/CoreSupport/core_cm3.c ****   __ASM("bx lr");
 270:../stm32f10x_lib/CMSIS/CM3/CoreSupport/core_cm3.c **** }
 271:../stm32f10x_lib/CMSIS/CM3/CoreSupport/core_cm3.c **** 
 272:../stm32f10x_lib/CMSIS/CM3/CoreSupport/core_cm3.c **** /**
 273:../stm32f10x_lib/CMSIS/CM3/CoreSupport/core_cm3.c ****  * @brief  Set the Process Stack Pointer
 274:../stm32f10x_lib/CMSIS/CM3/CoreSupport/core_cm3.c ****  *
 275:../stm32f10x_lib/CMSIS/CM3/CoreSupport/core_cm3.c ****  * @param  topOfProcStack  Process Stack Pointer
 276:../stm32f10x_lib/CMSIS/CM3/CoreSupport/core_cm3.c ****  *
 277:../stm32f10x_lib/CMSIS/CM3/CoreSupport/core_cm3.c ****  * Assign the value ProcessStackPointer to the MSP 
 278:../stm32f10x_lib/CMSIS/CM3/CoreSupport/core_cm3.c ****  * (process stack pointer) Cortex processor register
 279:../stm32f10x_lib/CMSIS/CM3/CoreSupport/core_cm3.c ****  */
 280:../stm32f10x_lib/CMSIS/CM3/CoreSupport/core_cm3.c **** void __set_PSP(uint32_t topOfProcStack)
 281:../stm32f10x_lib/CMSIS/CM3/CoreSupport/core_cm3.c **** {
 282:../stm32f10x_lib/CMSIS/CM3/CoreSupport/core_cm3.c ****   __ASM("msr psp, r0");
 283:../stm32f10x_lib/CMSIS/CM3/CoreSupport/core_cm3.c ****   __ASM("bx lr");
 284:../stm32f10x_lib/CMSIS/CM3/CoreSupport/core_cm3.c **** }
 285:../stm32f10x_lib/CMSIS/CM3/CoreSupport/core_cm3.c **** 
 286:../stm32f10x_lib/CMSIS/CM3/CoreSupport/core_cm3.c **** /**
 287:../stm32f10x_lib/CMSIS/CM3/CoreSupport/core_cm3.c ****  * @brief  Return the Main Stack Pointer
 288:../stm32f10x_lib/CMSIS/CM3/CoreSupport/core_cm3.c ****  *
 289:../stm32f10x_lib/CMSIS/CM3/CoreSupport/core_cm3.c ****  * @return Main Stack Pointer
 290:../stm32f10x_lib/CMSIS/CM3/CoreSupport/core_cm3.c ****  *
 291:../stm32f10x_lib/CMSIS/CM3/CoreSupport/core_cm3.c ****  * Return the current value of the MSP (main stack pointer)
 292:../stm32f10x_lib/CMSIS/CM3/CoreSupport/core_cm3.c ****  * Cortex processor register
 293:../stm32f10x_lib/CMSIS/CM3/CoreSupport/core_cm3.c ****  */
 294:../stm32f10x_lib/CMSIS/CM3/CoreSupport/core_cm3.c **** uint32_t __get_MSP(void)
 295:../stm32f10x_lib/CMSIS/CM3/CoreSupport/core_cm3.c **** {
 296:../stm32f10x_lib/CMSIS/CM3/CoreSupport/core_cm3.c ****   __ASM("mrs r0, msp");
 297:../stm32f10x_lib/CMSIS/CM3/CoreSupport/core_cm3.c ****   __ASM("bx lr");
 298:../stm32f10x_lib/CMSIS/CM3/CoreSupport/core_cm3.c **** }
 299:../stm32f10x_lib/CMSIS/CM3/CoreSupport/core_cm3.c **** 
 300:../stm32f10x_lib/CMSIS/CM3/CoreSupport/core_cm3.c **** /**
 301:../stm32f10x_lib/CMSIS/CM3/CoreSupport/core_cm3.c ****  * @brief  Set the Main Stack Pointer
 302:../stm32f10x_lib/CMSIS/CM3/CoreSupport/core_cm3.c ****  *
 303:../stm32f10x_lib/CMSIS/CM3/CoreSupport/core_cm3.c ****  * @param  topOfMainStack  Main Stack Pointer
 304:../stm32f10x_lib/CMSIS/CM3/CoreSupport/core_cm3.c ****  *
 305:../stm32f10x_lib/CMSIS/CM3/CoreSupport/core_cm3.c ****  * Assign the value mainStackPointer to the MSP 
 306:../stm32f10x_lib/CMSIS/CM3/CoreSupport/core_cm3.c ****  * (main stack pointer) Cortex processor register
 307:../stm32f10x_lib/CMSIS/CM3/CoreSupport/core_cm3.c ****  */
 308:../stm32f10x_lib/CMSIS/CM3/CoreSupport/core_cm3.c **** void __set_MSP(uint32_t topOfMainStack)
 309:../stm32f10x_lib/CMSIS/CM3/CoreSupport/core_cm3.c **** {
 310:../stm32f10x_lib/CMSIS/CM3/CoreSupport/core_cm3.c ****   __ASM("msr msp, r0");
 311:../stm32f10x_lib/CMSIS/CM3/CoreSupport/core_cm3.c ****   __ASM("bx lr");
ARM GAS  /tmp/cczVt2F9.s 			page 7


 312:../stm32f10x_lib/CMSIS/CM3/CoreSupport/core_cm3.c **** }
 313:../stm32f10x_lib/CMSIS/CM3/CoreSupport/core_cm3.c **** 
 314:../stm32f10x_lib/CMSIS/CM3/CoreSupport/core_cm3.c **** /**
 315:../stm32f10x_lib/CMSIS/CM3/CoreSupport/core_cm3.c ****  * @brief  Reverse byte order in unsigned short value
 316:../stm32f10x_lib/CMSIS/CM3/CoreSupport/core_cm3.c ****  *
 317:../stm32f10x_lib/CMSIS/CM3/CoreSupport/core_cm3.c ****  * @param  value  value to reverse
 318:../stm32f10x_lib/CMSIS/CM3/CoreSupport/core_cm3.c ****  * @return        reversed value
 319:../stm32f10x_lib/CMSIS/CM3/CoreSupport/core_cm3.c ****  *
 320:../stm32f10x_lib/CMSIS/CM3/CoreSupport/core_cm3.c ****  * Reverse byte order in unsigned short value
 321:../stm32f10x_lib/CMSIS/CM3/CoreSupport/core_cm3.c ****  */
 322:../stm32f10x_lib/CMSIS/CM3/CoreSupport/core_cm3.c **** uint32_t __REV16(uint16_t value)
 323:../stm32f10x_lib/CMSIS/CM3/CoreSupport/core_cm3.c **** {
 324:../stm32f10x_lib/CMSIS/CM3/CoreSupport/core_cm3.c ****   __ASM("rev16 r0, r0");
 325:../stm32f10x_lib/CMSIS/CM3/CoreSupport/core_cm3.c ****   __ASM("bx lr");
 326:../stm32f10x_lib/CMSIS/CM3/CoreSupport/core_cm3.c **** }
 327:../stm32f10x_lib/CMSIS/CM3/CoreSupport/core_cm3.c **** 
 328:../stm32f10x_lib/CMSIS/CM3/CoreSupport/core_cm3.c **** /**
 329:../stm32f10x_lib/CMSIS/CM3/CoreSupport/core_cm3.c ****  * @brief  Reverse bit order of value
 330:../stm32f10x_lib/CMSIS/CM3/CoreSupport/core_cm3.c ****  *
 331:../stm32f10x_lib/CMSIS/CM3/CoreSupport/core_cm3.c ****  * @param  value  value to reverse
 332:../stm32f10x_lib/CMSIS/CM3/CoreSupport/core_cm3.c ****  * @return        reversed value
 333:../stm32f10x_lib/CMSIS/CM3/CoreSupport/core_cm3.c ****  *
 334:../stm32f10x_lib/CMSIS/CM3/CoreSupport/core_cm3.c ****  * Reverse bit order of value
 335:../stm32f10x_lib/CMSIS/CM3/CoreSupport/core_cm3.c ****  */
 336:../stm32f10x_lib/CMSIS/CM3/CoreSupport/core_cm3.c **** uint32_t __RBIT(uint32_t value)
 337:../stm32f10x_lib/CMSIS/CM3/CoreSupport/core_cm3.c **** {
 338:../stm32f10x_lib/CMSIS/CM3/CoreSupport/core_cm3.c ****   __ASM("rbit r0, r0");
 339:../stm32f10x_lib/CMSIS/CM3/CoreSupport/core_cm3.c ****   __ASM("bx lr");
 340:../stm32f10x_lib/CMSIS/CM3/CoreSupport/core_cm3.c **** }
 341:../stm32f10x_lib/CMSIS/CM3/CoreSupport/core_cm3.c **** 
 342:../stm32f10x_lib/CMSIS/CM3/CoreSupport/core_cm3.c **** /**
 343:../stm32f10x_lib/CMSIS/CM3/CoreSupport/core_cm3.c ****  * @brief  LDR Exclusive (8 bit)
 344:../stm32f10x_lib/CMSIS/CM3/CoreSupport/core_cm3.c ****  *
 345:../stm32f10x_lib/CMSIS/CM3/CoreSupport/core_cm3.c ****  * @param  *addr  address pointer
 346:../stm32f10x_lib/CMSIS/CM3/CoreSupport/core_cm3.c ****  * @return        value of (*address)
 347:../stm32f10x_lib/CMSIS/CM3/CoreSupport/core_cm3.c ****  *
 348:../stm32f10x_lib/CMSIS/CM3/CoreSupport/core_cm3.c ****  * Exclusive LDR command for 8 bit values)
 349:../stm32f10x_lib/CMSIS/CM3/CoreSupport/core_cm3.c ****  */
 350:../stm32f10x_lib/CMSIS/CM3/CoreSupport/core_cm3.c **** uint8_t __LDREXB(uint8_t *addr)
 351:../stm32f10x_lib/CMSIS/CM3/CoreSupport/core_cm3.c **** {
 352:../stm32f10x_lib/CMSIS/CM3/CoreSupport/core_cm3.c ****   __ASM("ldrexb r0, [r0]");
 353:../stm32f10x_lib/CMSIS/CM3/CoreSupport/core_cm3.c ****   __ASM("bx lr"); 
 354:../stm32f10x_lib/CMSIS/CM3/CoreSupport/core_cm3.c **** }
 355:../stm32f10x_lib/CMSIS/CM3/CoreSupport/core_cm3.c **** 
 356:../stm32f10x_lib/CMSIS/CM3/CoreSupport/core_cm3.c **** /**
 357:../stm32f10x_lib/CMSIS/CM3/CoreSupport/core_cm3.c ****  * @brief  LDR Exclusive (16 bit)
 358:../stm32f10x_lib/CMSIS/CM3/CoreSupport/core_cm3.c ****  *
 359:../stm32f10x_lib/CMSIS/CM3/CoreSupport/core_cm3.c ****  * @param  *addr  address pointer
 360:../stm32f10x_lib/CMSIS/CM3/CoreSupport/core_cm3.c ****  * @return        value of (*address)
 361:../stm32f10x_lib/CMSIS/CM3/CoreSupport/core_cm3.c ****  *
 362:../stm32f10x_lib/CMSIS/CM3/CoreSupport/core_cm3.c ****  * Exclusive LDR command for 16 bit values
 363:../stm32f10x_lib/CMSIS/CM3/CoreSupport/core_cm3.c ****  */
 364:../stm32f10x_lib/CMSIS/CM3/CoreSupport/core_cm3.c **** uint16_t __LDREXH(uint16_t *addr)
 365:../stm32f10x_lib/CMSIS/CM3/CoreSupport/core_cm3.c **** {
 366:../stm32f10x_lib/CMSIS/CM3/CoreSupport/core_cm3.c ****   __ASM("ldrexh r0, [r0]");
 367:../stm32f10x_lib/CMSIS/CM3/CoreSupport/core_cm3.c ****   __ASM("bx lr");
 368:../stm32f10x_lib/CMSIS/CM3/CoreSupport/core_cm3.c **** }
ARM GAS  /tmp/cczVt2F9.s 			page 8


 369:../stm32f10x_lib/CMSIS/CM3/CoreSupport/core_cm3.c **** 
 370:../stm32f10x_lib/CMSIS/CM3/CoreSupport/core_cm3.c **** /**
 371:../stm32f10x_lib/CMSIS/CM3/CoreSupport/core_cm3.c ****  * @brief  LDR Exclusive (32 bit)
 372:../stm32f10x_lib/CMSIS/CM3/CoreSupport/core_cm3.c ****  *
 373:../stm32f10x_lib/CMSIS/CM3/CoreSupport/core_cm3.c ****  * @param  *addr  address pointer
 374:../stm32f10x_lib/CMSIS/CM3/CoreSupport/core_cm3.c ****  * @return        value of (*address)
 375:../stm32f10x_lib/CMSIS/CM3/CoreSupport/core_cm3.c ****  *
 376:../stm32f10x_lib/CMSIS/CM3/CoreSupport/core_cm3.c ****  * Exclusive LDR command for 32 bit values
 377:../stm32f10x_lib/CMSIS/CM3/CoreSupport/core_cm3.c ****  */
 378:../stm32f10x_lib/CMSIS/CM3/CoreSupport/core_cm3.c **** uint32_t __LDREXW(uint32_t *addr)
 379:../stm32f10x_lib/CMSIS/CM3/CoreSupport/core_cm3.c **** {
 380:../stm32f10x_lib/CMSIS/CM3/CoreSupport/core_cm3.c ****   __ASM("ldrex r0, [r0]");
 381:../stm32f10x_lib/CMSIS/CM3/CoreSupport/core_cm3.c ****   __ASM("bx lr");
 382:../stm32f10x_lib/CMSIS/CM3/CoreSupport/core_cm3.c **** }
 383:../stm32f10x_lib/CMSIS/CM3/CoreSupport/core_cm3.c **** 
 384:../stm32f10x_lib/CMSIS/CM3/CoreSupport/core_cm3.c **** /**
 385:../stm32f10x_lib/CMSIS/CM3/CoreSupport/core_cm3.c ****  * @brief  STR Exclusive (8 bit)
 386:../stm32f10x_lib/CMSIS/CM3/CoreSupport/core_cm3.c ****  *
 387:../stm32f10x_lib/CMSIS/CM3/CoreSupport/core_cm3.c ****  * @param  value  value to store
 388:../stm32f10x_lib/CMSIS/CM3/CoreSupport/core_cm3.c ****  * @param  *addr  address pointer
 389:../stm32f10x_lib/CMSIS/CM3/CoreSupport/core_cm3.c ****  * @return        successful / failed
 390:../stm32f10x_lib/CMSIS/CM3/CoreSupport/core_cm3.c ****  *
 391:../stm32f10x_lib/CMSIS/CM3/CoreSupport/core_cm3.c ****  * Exclusive STR command for 8 bit values
 392:../stm32f10x_lib/CMSIS/CM3/CoreSupport/core_cm3.c ****  */
 393:../stm32f10x_lib/CMSIS/CM3/CoreSupport/core_cm3.c **** uint32_t __STREXB(uint8_t value, uint8_t *addr)
 394:../stm32f10x_lib/CMSIS/CM3/CoreSupport/core_cm3.c **** {
 395:../stm32f10x_lib/CMSIS/CM3/CoreSupport/core_cm3.c ****   __ASM("strexb r0, r0, [r1]");
 396:../stm32f10x_lib/CMSIS/CM3/CoreSupport/core_cm3.c ****   __ASM("bx lr");
 397:../stm32f10x_lib/CMSIS/CM3/CoreSupport/core_cm3.c **** }
 398:../stm32f10x_lib/CMSIS/CM3/CoreSupport/core_cm3.c **** 
 399:../stm32f10x_lib/CMSIS/CM3/CoreSupport/core_cm3.c **** /**
 400:../stm32f10x_lib/CMSIS/CM3/CoreSupport/core_cm3.c ****  * @brief  STR Exclusive (16 bit)
 401:../stm32f10x_lib/CMSIS/CM3/CoreSupport/core_cm3.c ****  *
 402:../stm32f10x_lib/CMSIS/CM3/CoreSupport/core_cm3.c ****  * @param  value  value to store
 403:../stm32f10x_lib/CMSIS/CM3/CoreSupport/core_cm3.c ****  * @param  *addr  address pointer
 404:../stm32f10x_lib/CMSIS/CM3/CoreSupport/core_cm3.c ****  * @return        successful / failed
 405:../stm32f10x_lib/CMSIS/CM3/CoreSupport/core_cm3.c ****  *
 406:../stm32f10x_lib/CMSIS/CM3/CoreSupport/core_cm3.c ****  * Exclusive STR command for 16 bit values
 407:../stm32f10x_lib/CMSIS/CM3/CoreSupport/core_cm3.c ****  */
 408:../stm32f10x_lib/CMSIS/CM3/CoreSupport/core_cm3.c **** uint32_t __STREXH(uint16_t value, uint16_t *addr)
 409:../stm32f10x_lib/CMSIS/CM3/CoreSupport/core_cm3.c **** {
 410:../stm32f10x_lib/CMSIS/CM3/CoreSupport/core_cm3.c ****   __ASM("strexh r0, r0, [r1]");
 411:../stm32f10x_lib/CMSIS/CM3/CoreSupport/core_cm3.c ****   __ASM("bx lr");
 412:../stm32f10x_lib/CMSIS/CM3/CoreSupport/core_cm3.c **** }
 413:../stm32f10x_lib/CMSIS/CM3/CoreSupport/core_cm3.c **** 
 414:../stm32f10x_lib/CMSIS/CM3/CoreSupport/core_cm3.c **** /**
 415:../stm32f10x_lib/CMSIS/CM3/CoreSupport/core_cm3.c ****  * @brief  STR Exclusive (32 bit)
 416:../stm32f10x_lib/CMSIS/CM3/CoreSupport/core_cm3.c ****  *
 417:../stm32f10x_lib/CMSIS/CM3/CoreSupport/core_cm3.c ****  * @param  value  value to store
 418:../stm32f10x_lib/CMSIS/CM3/CoreSupport/core_cm3.c ****  * @param  *addr  address pointer
 419:../stm32f10x_lib/CMSIS/CM3/CoreSupport/core_cm3.c ****  * @return        successful / failed
 420:../stm32f10x_lib/CMSIS/CM3/CoreSupport/core_cm3.c ****  *
 421:../stm32f10x_lib/CMSIS/CM3/CoreSupport/core_cm3.c ****  * Exclusive STR command for 32 bit values
 422:../stm32f10x_lib/CMSIS/CM3/CoreSupport/core_cm3.c ****  */
 423:../stm32f10x_lib/CMSIS/CM3/CoreSupport/core_cm3.c **** uint32_t __STREXW(uint32_t value, uint32_t *addr)
 424:../stm32f10x_lib/CMSIS/CM3/CoreSupport/core_cm3.c **** {
 425:../stm32f10x_lib/CMSIS/CM3/CoreSupport/core_cm3.c ****   __ASM("strex r0, r0, [r1]");
ARM GAS  /tmp/cczVt2F9.s 			page 9


 426:../stm32f10x_lib/CMSIS/CM3/CoreSupport/core_cm3.c ****   __ASM("bx lr");
 427:../stm32f10x_lib/CMSIS/CM3/CoreSupport/core_cm3.c **** }
 428:../stm32f10x_lib/CMSIS/CM3/CoreSupport/core_cm3.c **** 
 429:../stm32f10x_lib/CMSIS/CM3/CoreSupport/core_cm3.c **** #pragma diag_default=Pe940
 430:../stm32f10x_lib/CMSIS/CM3/CoreSupport/core_cm3.c **** 
 431:../stm32f10x_lib/CMSIS/CM3/CoreSupport/core_cm3.c **** 
 432:../stm32f10x_lib/CMSIS/CM3/CoreSupport/core_cm3.c **** #elif (defined (__GNUC__)) /*------------------ GNU Compiler ---------------------*/
 433:../stm32f10x_lib/CMSIS/CM3/CoreSupport/core_cm3.c **** /* GNU gcc specific functions */
 434:../stm32f10x_lib/CMSIS/CM3/CoreSupport/core_cm3.c **** 
 435:../stm32f10x_lib/CMSIS/CM3/CoreSupport/core_cm3.c **** /**
 436:../stm32f10x_lib/CMSIS/CM3/CoreSupport/core_cm3.c ****  * @brief  Return the Process Stack Pointer
 437:../stm32f10x_lib/CMSIS/CM3/CoreSupport/core_cm3.c ****  *
 438:../stm32f10x_lib/CMSIS/CM3/CoreSupport/core_cm3.c ****  * @return ProcessStackPointer
 439:../stm32f10x_lib/CMSIS/CM3/CoreSupport/core_cm3.c ****  *
 440:../stm32f10x_lib/CMSIS/CM3/CoreSupport/core_cm3.c ****  * Return the actual process stack pointer
 441:../stm32f10x_lib/CMSIS/CM3/CoreSupport/core_cm3.c ****  */
 442:../stm32f10x_lib/CMSIS/CM3/CoreSupport/core_cm3.c **** uint32_t __get_PSP(void) __attribute__( ( naked ) );
 443:../stm32f10x_lib/CMSIS/CM3/CoreSupport/core_cm3.c **** uint32_t __get_PSP(void)
 444:../stm32f10x_lib/CMSIS/CM3/CoreSupport/core_cm3.c **** {
  32              		.loc 1 444 1 view -0
  33              		.cfi_startproc
  34              		@ Naked Function: prologue and epilogue provided by programmer.
  35              		@ args = 0, pretend = 0, frame = 0
  36              		@ frame_needed = 0, uses_anonymous_args = 0
 445:../stm32f10x_lib/CMSIS/CM3/CoreSupport/core_cm3.c ****   uint32_t result=0;
  37              		.loc 1 445 3 view .LVU1
  38              	.LVL0:
 446:../stm32f10x_lib/CMSIS/CM3/CoreSupport/core_cm3.c **** 
 447:../stm32f10x_lib/CMSIS/CM3/CoreSupport/core_cm3.c ****   __ASM volatile ("MRS %0, psp\n\t" 
  39              		.loc 1 447 3 view .LVU2
  40              		.syntax unified
  41              	@ 447 "../stm32f10x_lib/CMSIS/CM3/CoreSupport/core_cm3.c" 1
  42 0000 EFF30980 		MRS r0, psp	@ result
  43 0004 0046     		MOV r0, r0 	@ result
  44 0006 7047     		BX  lr     
  45              		
  46              	@ 0 "" 2
  47              	.LVL1:
 448:../stm32f10x_lib/CMSIS/CM3/CoreSupport/core_cm3.c ****                   "MOV r0, %0 \n\t"
 449:../stm32f10x_lib/CMSIS/CM3/CoreSupport/core_cm3.c ****                   "BX  lr     \n\t"  : "=r" (result) );
 450:../stm32f10x_lib/CMSIS/CM3/CoreSupport/core_cm3.c ****   return(result);
  48              		.loc 1 450 3 view .LVU3
  49              	@ ../stm32f10x_lib/CMSIS/CM3/CoreSupport/core_cm3.c:451: }
 451:../stm32f10x_lib/CMSIS/CM3/CoreSupport/core_cm3.c **** }
  50              		.loc 1 451 1 is_stmt 0 view .LVU4
  51              		.thumb
  52              		.syntax unified
  53              		.cfi_endproc
  54              	.LFE0:
  55              		.size	__get_PSP, .-__get_PSP
  56              		.align	1
  57              		.global	__set_PSP
  58              		.syntax unified
  59              		.thumb
  60              		.thumb_func
  61              		.type	__set_PSP, %function
  62              	__set_PSP:
ARM GAS  /tmp/cczVt2F9.s 			page 10


  63              	.LVL2:
  64              	.LFB1:
 452:../stm32f10x_lib/CMSIS/CM3/CoreSupport/core_cm3.c **** 
 453:../stm32f10x_lib/CMSIS/CM3/CoreSupport/core_cm3.c **** /**
 454:../stm32f10x_lib/CMSIS/CM3/CoreSupport/core_cm3.c ****  * @brief  Set the Process Stack Pointer
 455:../stm32f10x_lib/CMSIS/CM3/CoreSupport/core_cm3.c ****  *
 456:../stm32f10x_lib/CMSIS/CM3/CoreSupport/core_cm3.c ****  * @param  topOfProcStack  Process Stack Pointer
 457:../stm32f10x_lib/CMSIS/CM3/CoreSupport/core_cm3.c ****  *
 458:../stm32f10x_lib/CMSIS/CM3/CoreSupport/core_cm3.c ****  * Assign the value ProcessStackPointer to the MSP 
 459:../stm32f10x_lib/CMSIS/CM3/CoreSupport/core_cm3.c ****  * (process stack pointer) Cortex processor register
 460:../stm32f10x_lib/CMSIS/CM3/CoreSupport/core_cm3.c ****  */
 461:../stm32f10x_lib/CMSIS/CM3/CoreSupport/core_cm3.c **** void __set_PSP(uint32_t topOfProcStack) __attribute__( ( naked ) );
 462:../stm32f10x_lib/CMSIS/CM3/CoreSupport/core_cm3.c **** void __set_PSP(uint32_t topOfProcStack)
 463:../stm32f10x_lib/CMSIS/CM3/CoreSupport/core_cm3.c **** {
  65              		.loc 1 463 1 is_stmt 1 view -0
  66              		.cfi_startproc
  67              		@ Naked Function: prologue and epilogue provided by programmer.
  68              		@ args = 0, pretend = 0, frame = 0
  69              		@ frame_needed = 0, uses_anonymous_args = 0
 464:../stm32f10x_lib/CMSIS/CM3/CoreSupport/core_cm3.c ****   __ASM volatile ("MSR psp, %0\n\t"
  70              		.loc 1 464 3 view .LVU6
  71              		.syntax unified
  72              	@ 464 "../stm32f10x_lib/CMSIS/CM3/CoreSupport/core_cm3.c" 1
  73 0008 80F30988 		MSR psp, r0	@ tmp115
  74 000c 7047     		BX  lr     
  75              		
  76              	@ 0 "" 2
  77              	@ ../stm32f10x_lib/CMSIS/CM3/CoreSupport/core_cm3.c:466: }
 465:../stm32f10x_lib/CMSIS/CM3/CoreSupport/core_cm3.c ****                   "BX  lr     \n\t" : : "r" (topOfProcStack) );
 466:../stm32f10x_lib/CMSIS/CM3/CoreSupport/core_cm3.c **** }
  78              		.loc 1 466 1 is_stmt 0 view .LVU7
  79              		.thumb
  80              		.syntax unified
  81              		.cfi_endproc
  82              	.LFE1:
  83              		.size	__set_PSP, .-__set_PSP
  84              		.align	1
  85              		.global	__get_MSP
  86              		.syntax unified
  87              		.thumb
  88              		.thumb_func
  89              		.type	__get_MSP, %function
  90              	__get_MSP:
  91              	.LFB2:
 467:../stm32f10x_lib/CMSIS/CM3/CoreSupport/core_cm3.c **** 
 468:../stm32f10x_lib/CMSIS/CM3/CoreSupport/core_cm3.c **** /**
 469:../stm32f10x_lib/CMSIS/CM3/CoreSupport/core_cm3.c ****  * @brief  Return the Main Stack Pointer
 470:../stm32f10x_lib/CMSIS/CM3/CoreSupport/core_cm3.c ****  *
 471:../stm32f10x_lib/CMSIS/CM3/CoreSupport/core_cm3.c ****  * @return Main Stack Pointer
 472:../stm32f10x_lib/CMSIS/CM3/CoreSupport/core_cm3.c ****  *
 473:../stm32f10x_lib/CMSIS/CM3/CoreSupport/core_cm3.c ****  * Return the current value of the MSP (main stack pointer)
 474:../stm32f10x_lib/CMSIS/CM3/CoreSupport/core_cm3.c ****  * Cortex processor register
 475:../stm32f10x_lib/CMSIS/CM3/CoreSupport/core_cm3.c ****  */
 476:../stm32f10x_lib/CMSIS/CM3/CoreSupport/core_cm3.c **** uint32_t __get_MSP(void) __attribute__( ( naked ) );
 477:../stm32f10x_lib/CMSIS/CM3/CoreSupport/core_cm3.c **** uint32_t __get_MSP(void)
 478:../stm32f10x_lib/CMSIS/CM3/CoreSupport/core_cm3.c **** {
  92              		.loc 1 478 1 is_stmt 1 view -0
ARM GAS  /tmp/cczVt2F9.s 			page 11


  93              		.cfi_startproc
  94              		@ Naked Function: prologue and epilogue provided by programmer.
  95              		@ args = 0, pretend = 0, frame = 0
  96              		@ frame_needed = 0, uses_anonymous_args = 0
 479:../stm32f10x_lib/CMSIS/CM3/CoreSupport/core_cm3.c ****   uint32_t result=0;
  97              		.loc 1 479 3 view .LVU9
  98              	.LVL3:
 480:../stm32f10x_lib/CMSIS/CM3/CoreSupport/core_cm3.c **** 
 481:../stm32f10x_lib/CMSIS/CM3/CoreSupport/core_cm3.c ****   __ASM volatile ("MRS %0, msp\n\t" 
  99              		.loc 1 481 3 view .LVU10
 100              		.syntax unified
 101              	@ 481 "../stm32f10x_lib/CMSIS/CM3/CoreSupport/core_cm3.c" 1
 102 000e EFF30880 		MRS r0, msp	@ result
 103 0012 0046     		MOV r0, r0 	@ result
 104 0014 7047     		BX  lr     
 105              		
 106              	@ 0 "" 2
 107              	.LVL4:
 482:../stm32f10x_lib/CMSIS/CM3/CoreSupport/core_cm3.c ****                   "MOV r0, %0 \n\t"
 483:../stm32f10x_lib/CMSIS/CM3/CoreSupport/core_cm3.c ****                   "BX  lr     \n\t"  : "=r" (result) );
 484:../stm32f10x_lib/CMSIS/CM3/CoreSupport/core_cm3.c ****   return(result);
 108              		.loc 1 484 3 view .LVU11
 109              	@ ../stm32f10x_lib/CMSIS/CM3/CoreSupport/core_cm3.c:485: }
 485:../stm32f10x_lib/CMSIS/CM3/CoreSupport/core_cm3.c **** }
 110              		.loc 1 485 1 is_stmt 0 view .LVU12
 111              		.thumb
 112              		.syntax unified
 113              		.cfi_endproc
 114              	.LFE2:
 115              		.size	__get_MSP, .-__get_MSP
 116              		.align	1
 117              		.global	__set_MSP
 118              		.syntax unified
 119              		.thumb
 120              		.thumb_func
 121              		.type	__set_MSP, %function
 122              	__set_MSP:
 123              	.LVL5:
 124              	.LFB3:
 486:../stm32f10x_lib/CMSIS/CM3/CoreSupport/core_cm3.c **** 
 487:../stm32f10x_lib/CMSIS/CM3/CoreSupport/core_cm3.c **** /**
 488:../stm32f10x_lib/CMSIS/CM3/CoreSupport/core_cm3.c ****  * @brief  Set the Main Stack Pointer
 489:../stm32f10x_lib/CMSIS/CM3/CoreSupport/core_cm3.c ****  *
 490:../stm32f10x_lib/CMSIS/CM3/CoreSupport/core_cm3.c ****  * @param  topOfMainStack  Main Stack Pointer
 491:../stm32f10x_lib/CMSIS/CM3/CoreSupport/core_cm3.c ****  *
 492:../stm32f10x_lib/CMSIS/CM3/CoreSupport/core_cm3.c ****  * Assign the value mainStackPointer to the MSP 
 493:../stm32f10x_lib/CMSIS/CM3/CoreSupport/core_cm3.c ****  * (main stack pointer) Cortex processor register
 494:../stm32f10x_lib/CMSIS/CM3/CoreSupport/core_cm3.c ****  */
 495:../stm32f10x_lib/CMSIS/CM3/CoreSupport/core_cm3.c **** void __set_MSP(uint32_t topOfMainStack) __attribute__( ( naked ) );
 496:../stm32f10x_lib/CMSIS/CM3/CoreSupport/core_cm3.c **** void __set_MSP(uint32_t topOfMainStack)
 497:../stm32f10x_lib/CMSIS/CM3/CoreSupport/core_cm3.c **** {
 125              		.loc 1 497 1 is_stmt 1 view -0
 126              		.cfi_startproc
 127              		@ Naked Function: prologue and epilogue provided by programmer.
 128              		@ args = 0, pretend = 0, frame = 0
 129              		@ frame_needed = 0, uses_anonymous_args = 0
 498:../stm32f10x_lib/CMSIS/CM3/CoreSupport/core_cm3.c ****   __ASM volatile ("MSR msp, %0\n\t"
ARM GAS  /tmp/cczVt2F9.s 			page 12


 130              		.loc 1 498 3 view .LVU14
 131              		.syntax unified
 132              	@ 498 "../stm32f10x_lib/CMSIS/CM3/CoreSupport/core_cm3.c" 1
 133 0016 80F30888 		MSR msp, r0	@ tmp115
 134 001a 7047     		BX  lr     
 135              		
 136              	@ 0 "" 2
 137              	@ ../stm32f10x_lib/CMSIS/CM3/CoreSupport/core_cm3.c:500: }
 499:../stm32f10x_lib/CMSIS/CM3/CoreSupport/core_cm3.c ****                   "BX  lr     \n\t" : : "r" (topOfMainStack) );
 500:../stm32f10x_lib/CMSIS/CM3/CoreSupport/core_cm3.c **** }
 138              		.loc 1 500 1 is_stmt 0 view .LVU15
 139              		.thumb
 140              		.syntax unified
 141              		.cfi_endproc
 142              	.LFE3:
 143              		.size	__set_MSP, .-__set_MSP
 144              		.align	1
 145              		.global	__get_BASEPRI
 146              		.syntax unified
 147              		.thumb
 148              		.thumb_func
 149              		.type	__get_BASEPRI, %function
 150              	__get_BASEPRI:
 151              	.LFB4:
 501:../stm32f10x_lib/CMSIS/CM3/CoreSupport/core_cm3.c **** 
 502:../stm32f10x_lib/CMSIS/CM3/CoreSupport/core_cm3.c **** /**
 503:../stm32f10x_lib/CMSIS/CM3/CoreSupport/core_cm3.c ****  * @brief  Return the Base Priority value
 504:../stm32f10x_lib/CMSIS/CM3/CoreSupport/core_cm3.c ****  *
 505:../stm32f10x_lib/CMSIS/CM3/CoreSupport/core_cm3.c ****  * @return BasePriority
 506:../stm32f10x_lib/CMSIS/CM3/CoreSupport/core_cm3.c ****  *
 507:../stm32f10x_lib/CMSIS/CM3/CoreSupport/core_cm3.c ****  * Return the content of the base priority register
 508:../stm32f10x_lib/CMSIS/CM3/CoreSupport/core_cm3.c ****  */
 509:../stm32f10x_lib/CMSIS/CM3/CoreSupport/core_cm3.c **** uint32_t __get_BASEPRI(void)
 510:../stm32f10x_lib/CMSIS/CM3/CoreSupport/core_cm3.c **** {
 152              		.loc 1 510 1 is_stmt 1 view -0
 153              		.cfi_startproc
 154              		@ args = 0, pretend = 0, frame = 0
 155              		@ frame_needed = 0, uses_anonymous_args = 0
 156              		@ link register save eliminated.
 511:../stm32f10x_lib/CMSIS/CM3/CoreSupport/core_cm3.c ****   uint32_t result=0;
 157              		.loc 1 511 3 view .LVU17
 158              	.LVL6:
 512:../stm32f10x_lib/CMSIS/CM3/CoreSupport/core_cm3.c ****   
 513:../stm32f10x_lib/CMSIS/CM3/CoreSupport/core_cm3.c ****   __ASM volatile ("MRS %0, basepri_max" : "=r" (result) );
 159              		.loc 1 513 3 view .LVU18
 160              		.syntax unified
 161              	@ 513 "../stm32f10x_lib/CMSIS/CM3/CoreSupport/core_cm3.c" 1
 162 001c EFF31280 		MRS r0, basepri_max	@ result
 163              	@ 0 "" 2
 164              	.LVL7:
 514:../stm32f10x_lib/CMSIS/CM3/CoreSupport/core_cm3.c ****   return(result);
 165              		.loc 1 514 3 view .LVU19
 166              	@ ../stm32f10x_lib/CMSIS/CM3/CoreSupport/core_cm3.c:515: }
 515:../stm32f10x_lib/CMSIS/CM3/CoreSupport/core_cm3.c **** }
 167              		.loc 1 515 1 is_stmt 0 view .LVU20
 168              		.thumb
 169              		.syntax unified
ARM GAS  /tmp/cczVt2F9.s 			page 13


 170 0020 7047     		bx	lr	@
 171              		.cfi_endproc
 172              	.LFE4:
 173              		.size	__get_BASEPRI, .-__get_BASEPRI
 174              		.align	1
 175              		.global	__set_BASEPRI
 176              		.syntax unified
 177              		.thumb
 178              		.thumb_func
 179              		.type	__set_BASEPRI, %function
 180              	__set_BASEPRI:
 181              	.LVL8:
 182              	.LFB5:
 516:../stm32f10x_lib/CMSIS/CM3/CoreSupport/core_cm3.c **** 
 517:../stm32f10x_lib/CMSIS/CM3/CoreSupport/core_cm3.c **** /**
 518:../stm32f10x_lib/CMSIS/CM3/CoreSupport/core_cm3.c ****  * @brief  Set the Base Priority value
 519:../stm32f10x_lib/CMSIS/CM3/CoreSupport/core_cm3.c ****  *
 520:../stm32f10x_lib/CMSIS/CM3/CoreSupport/core_cm3.c ****  * @param  basePri  BasePriority
 521:../stm32f10x_lib/CMSIS/CM3/CoreSupport/core_cm3.c ****  *
 522:../stm32f10x_lib/CMSIS/CM3/CoreSupport/core_cm3.c ****  * Set the base priority register
 523:../stm32f10x_lib/CMSIS/CM3/CoreSupport/core_cm3.c ****  */
 524:../stm32f10x_lib/CMSIS/CM3/CoreSupport/core_cm3.c **** void __set_BASEPRI(uint32_t value)
 525:../stm32f10x_lib/CMSIS/CM3/CoreSupport/core_cm3.c **** {
 183              		.loc 1 525 1 is_stmt 1 view -0
 184              		.cfi_startproc
 185              		@ args = 0, pretend = 0, frame = 0
 186              		@ frame_needed = 0, uses_anonymous_args = 0
 187              		@ link register save eliminated.
 526:../stm32f10x_lib/CMSIS/CM3/CoreSupport/core_cm3.c ****   __ASM volatile ("MSR basepri, %0" : : "r" (value) );
 188              		.loc 1 526 3 view .LVU22
 189              		.syntax unified
 190              	@ 526 "../stm32f10x_lib/CMSIS/CM3/CoreSupport/core_cm3.c" 1
 191 0022 80F31188 		MSR basepri, r0	@ tmp115
 192              	@ 0 "" 2
 193              	@ ../stm32f10x_lib/CMSIS/CM3/CoreSupport/core_cm3.c:527: }
 527:../stm32f10x_lib/CMSIS/CM3/CoreSupport/core_cm3.c **** }
 194              		.loc 1 527 1 is_stmt 0 view .LVU23
 195              		.thumb
 196              		.syntax unified
 197 0026 7047     		bx	lr	@
 198              		.cfi_endproc
 199              	.LFE5:
 200              		.size	__set_BASEPRI, .-__set_BASEPRI
 201              		.align	1
 202              		.global	__get_PRIMASK
 203              		.syntax unified
 204              		.thumb
 205              		.thumb_func
 206              		.type	__get_PRIMASK, %function
 207              	__get_PRIMASK:
 208              	.LFB6:
 528:../stm32f10x_lib/CMSIS/CM3/CoreSupport/core_cm3.c **** 
 529:../stm32f10x_lib/CMSIS/CM3/CoreSupport/core_cm3.c **** /**
 530:../stm32f10x_lib/CMSIS/CM3/CoreSupport/core_cm3.c ****  * @brief  Return the Priority Mask value
 531:../stm32f10x_lib/CMSIS/CM3/CoreSupport/core_cm3.c ****  *
 532:../stm32f10x_lib/CMSIS/CM3/CoreSupport/core_cm3.c ****  * @return PriMask
 533:../stm32f10x_lib/CMSIS/CM3/CoreSupport/core_cm3.c ****  *
ARM GAS  /tmp/cczVt2F9.s 			page 14


 534:../stm32f10x_lib/CMSIS/CM3/CoreSupport/core_cm3.c ****  * Return state of the priority mask bit from the priority mask register
 535:../stm32f10x_lib/CMSIS/CM3/CoreSupport/core_cm3.c ****  */
 536:../stm32f10x_lib/CMSIS/CM3/CoreSupport/core_cm3.c **** uint32_t __get_PRIMASK(void)
 537:../stm32f10x_lib/CMSIS/CM3/CoreSupport/core_cm3.c **** {
 209              		.loc 1 537 1 is_stmt 1 view -0
 210              		.cfi_startproc
 211              		@ args = 0, pretend = 0, frame = 0
 212              		@ frame_needed = 0, uses_anonymous_args = 0
 213              		@ link register save eliminated.
 538:../stm32f10x_lib/CMSIS/CM3/CoreSupport/core_cm3.c ****   uint32_t result=0;
 214              		.loc 1 538 3 view .LVU25
 215              	.LVL9:
 539:../stm32f10x_lib/CMSIS/CM3/CoreSupport/core_cm3.c **** 
 540:../stm32f10x_lib/CMSIS/CM3/CoreSupport/core_cm3.c ****   __ASM volatile ("MRS %0, primask" : "=r" (result) );
 216              		.loc 1 540 3 view .LVU26
 217              		.syntax unified
 218              	@ 540 "../stm32f10x_lib/CMSIS/CM3/CoreSupport/core_cm3.c" 1
 219 0028 EFF31080 		MRS r0, primask	@ result
 220              	@ 0 "" 2
 221              	.LVL10:
 541:../stm32f10x_lib/CMSIS/CM3/CoreSupport/core_cm3.c ****   return(result);
 222              		.loc 1 541 3 view .LVU27
 223              	@ ../stm32f10x_lib/CMSIS/CM3/CoreSupport/core_cm3.c:542: }
 542:../stm32f10x_lib/CMSIS/CM3/CoreSupport/core_cm3.c **** }
 224              		.loc 1 542 1 is_stmt 0 view .LVU28
 225              		.thumb
 226              		.syntax unified
 227 002c 7047     		bx	lr	@
 228              		.cfi_endproc
 229              	.LFE6:
 230              		.size	__get_PRIMASK, .-__get_PRIMASK
 231              		.align	1
 232              		.global	__set_PRIMASK
 233              		.syntax unified
 234              		.thumb
 235              		.thumb_func
 236              		.type	__set_PRIMASK, %function
 237              	__set_PRIMASK:
 238              	.LVL11:
 239              	.LFB7:
 543:../stm32f10x_lib/CMSIS/CM3/CoreSupport/core_cm3.c **** 
 544:../stm32f10x_lib/CMSIS/CM3/CoreSupport/core_cm3.c **** /**
 545:../stm32f10x_lib/CMSIS/CM3/CoreSupport/core_cm3.c ****  * @brief  Set the Priority Mask value
 546:../stm32f10x_lib/CMSIS/CM3/CoreSupport/core_cm3.c ****  *
 547:../stm32f10x_lib/CMSIS/CM3/CoreSupport/core_cm3.c ****  * @param  priMask  PriMask
 548:../stm32f10x_lib/CMSIS/CM3/CoreSupport/core_cm3.c ****  *
 549:../stm32f10x_lib/CMSIS/CM3/CoreSupport/core_cm3.c ****  * Set the priority mask bit in the priority mask register
 550:../stm32f10x_lib/CMSIS/CM3/CoreSupport/core_cm3.c ****  */
 551:../stm32f10x_lib/CMSIS/CM3/CoreSupport/core_cm3.c **** void __set_PRIMASK(uint32_t priMask)
 552:../stm32f10x_lib/CMSIS/CM3/CoreSupport/core_cm3.c **** {
 240              		.loc 1 552 1 is_stmt 1 view -0
 241              		.cfi_startproc
 242              		@ args = 0, pretend = 0, frame = 0
 243              		@ frame_needed = 0, uses_anonymous_args = 0
 244              		@ link register save eliminated.
 553:../stm32f10x_lib/CMSIS/CM3/CoreSupport/core_cm3.c ****   __ASM volatile ("MSR primask, %0" : : "r" (priMask) );
 245              		.loc 1 553 3 view .LVU30
ARM GAS  /tmp/cczVt2F9.s 			page 15


 246              		.syntax unified
 247              	@ 553 "../stm32f10x_lib/CMSIS/CM3/CoreSupport/core_cm3.c" 1
 248 002e 80F31088 		MSR primask, r0	@ tmp115
 249              	@ 0 "" 2
 250              	@ ../stm32f10x_lib/CMSIS/CM3/CoreSupport/core_cm3.c:554: }
 554:../stm32f10x_lib/CMSIS/CM3/CoreSupport/core_cm3.c **** }
 251              		.loc 1 554 1 is_stmt 0 view .LVU31
 252              		.thumb
 253              		.syntax unified
 254 0032 7047     		bx	lr	@
 255              		.cfi_endproc
 256              	.LFE7:
 257              		.size	__set_PRIMASK, .-__set_PRIMASK
 258              		.align	1
 259              		.global	__get_FAULTMASK
 260              		.syntax unified
 261              		.thumb
 262              		.thumb_func
 263              		.type	__get_FAULTMASK, %function
 264              	__get_FAULTMASK:
 265              	.LFB8:
 555:../stm32f10x_lib/CMSIS/CM3/CoreSupport/core_cm3.c **** 
 556:../stm32f10x_lib/CMSIS/CM3/CoreSupport/core_cm3.c **** /**
 557:../stm32f10x_lib/CMSIS/CM3/CoreSupport/core_cm3.c ****  * @brief  Return the Fault Mask value
 558:../stm32f10x_lib/CMSIS/CM3/CoreSupport/core_cm3.c ****  *
 559:../stm32f10x_lib/CMSIS/CM3/CoreSupport/core_cm3.c ****  * @return FaultMask
 560:../stm32f10x_lib/CMSIS/CM3/CoreSupport/core_cm3.c ****  *
 561:../stm32f10x_lib/CMSIS/CM3/CoreSupport/core_cm3.c ****  * Return the content of the fault mask register
 562:../stm32f10x_lib/CMSIS/CM3/CoreSupport/core_cm3.c ****  */
 563:../stm32f10x_lib/CMSIS/CM3/CoreSupport/core_cm3.c **** uint32_t __get_FAULTMASK(void)
 564:../stm32f10x_lib/CMSIS/CM3/CoreSupport/core_cm3.c **** {
 266              		.loc 1 564 1 is_stmt 1 view -0
 267              		.cfi_startproc
 268              		@ args = 0, pretend = 0, frame = 0
 269              		@ frame_needed = 0, uses_anonymous_args = 0
 270              		@ link register save eliminated.
 565:../stm32f10x_lib/CMSIS/CM3/CoreSupport/core_cm3.c ****   uint32_t result=0;
 271              		.loc 1 565 3 view .LVU33
 272              	.LVL12:
 566:../stm32f10x_lib/CMSIS/CM3/CoreSupport/core_cm3.c ****   
 567:../stm32f10x_lib/CMSIS/CM3/CoreSupport/core_cm3.c ****   __ASM volatile ("MRS %0, faultmask" : "=r" (result) );
 273              		.loc 1 567 3 view .LVU34
 274              		.syntax unified
 275              	@ 567 "../stm32f10x_lib/CMSIS/CM3/CoreSupport/core_cm3.c" 1
 276 0034 EFF31380 		MRS r0, faultmask	@ result
 277              	@ 0 "" 2
 278              	.LVL13:
 568:../stm32f10x_lib/CMSIS/CM3/CoreSupport/core_cm3.c ****   return(result);
 279              		.loc 1 568 3 view .LVU35
 280              	@ ../stm32f10x_lib/CMSIS/CM3/CoreSupport/core_cm3.c:569: }
 569:../stm32f10x_lib/CMSIS/CM3/CoreSupport/core_cm3.c **** }
 281              		.loc 1 569 1 is_stmt 0 view .LVU36
 282              		.thumb
 283              		.syntax unified
 284 0038 7047     		bx	lr	@
 285              		.cfi_endproc
 286              	.LFE8:
ARM GAS  /tmp/cczVt2F9.s 			page 16


 287              		.size	__get_FAULTMASK, .-__get_FAULTMASK
 288              		.align	1
 289              		.global	__set_FAULTMASK
 290              		.syntax unified
 291              		.thumb
 292              		.thumb_func
 293              		.type	__set_FAULTMASK, %function
 294              	__set_FAULTMASK:
 295              	.LVL14:
 296              	.LFB9:
 570:../stm32f10x_lib/CMSIS/CM3/CoreSupport/core_cm3.c **** 
 571:../stm32f10x_lib/CMSIS/CM3/CoreSupport/core_cm3.c **** /**
 572:../stm32f10x_lib/CMSIS/CM3/CoreSupport/core_cm3.c ****  * @brief  Set the Fault Mask value
 573:../stm32f10x_lib/CMSIS/CM3/CoreSupport/core_cm3.c ****  *
 574:../stm32f10x_lib/CMSIS/CM3/CoreSupport/core_cm3.c ****  * @param  faultMask  faultMask value
 575:../stm32f10x_lib/CMSIS/CM3/CoreSupport/core_cm3.c ****  *
 576:../stm32f10x_lib/CMSIS/CM3/CoreSupport/core_cm3.c ****  * Set the fault mask register
 577:../stm32f10x_lib/CMSIS/CM3/CoreSupport/core_cm3.c ****  */
 578:../stm32f10x_lib/CMSIS/CM3/CoreSupport/core_cm3.c **** void __set_FAULTMASK(uint32_t faultMask)
 579:../stm32f10x_lib/CMSIS/CM3/CoreSupport/core_cm3.c **** {
 297              		.loc 1 579 1 is_stmt 1 view -0
 298              		.cfi_startproc
 299              		@ args = 0, pretend = 0, frame = 0
 300              		@ frame_needed = 0, uses_anonymous_args = 0
 301              		@ link register save eliminated.
 580:../stm32f10x_lib/CMSIS/CM3/CoreSupport/core_cm3.c ****   __ASM volatile ("MSR faultmask, %0" : : "r" (faultMask) );
 302              		.loc 1 580 3 view .LVU38
 303              		.syntax unified
 304              	@ 580 "../stm32f10x_lib/CMSIS/CM3/CoreSupport/core_cm3.c" 1
 305 003a 80F31388 		MSR faultmask, r0	@ tmp115
 306              	@ 0 "" 2
 307              	@ ../stm32f10x_lib/CMSIS/CM3/CoreSupport/core_cm3.c:581: }
 581:../stm32f10x_lib/CMSIS/CM3/CoreSupport/core_cm3.c **** }
 308              		.loc 1 581 1 is_stmt 0 view .LVU39
 309              		.thumb
 310              		.syntax unified
 311 003e 7047     		bx	lr	@
 312              		.cfi_endproc
 313              	.LFE9:
 314              		.size	__set_FAULTMASK, .-__set_FAULTMASK
 315              		.align	1
 316              		.global	__get_CONTROL
 317              		.syntax unified
 318              		.thumb
 319              		.thumb_func
 320              		.type	__get_CONTROL, %function
 321              	__get_CONTROL:
 322              	.LFB10:
 582:../stm32f10x_lib/CMSIS/CM3/CoreSupport/core_cm3.c **** 
 583:../stm32f10x_lib/CMSIS/CM3/CoreSupport/core_cm3.c **** /**
 584:../stm32f10x_lib/CMSIS/CM3/CoreSupport/core_cm3.c ****  * @brief  Return the Control Register value
 585:../stm32f10x_lib/CMSIS/CM3/CoreSupport/core_cm3.c **** * 
 586:../stm32f10x_lib/CMSIS/CM3/CoreSupport/core_cm3.c **** *  @return Control value
 587:../stm32f10x_lib/CMSIS/CM3/CoreSupport/core_cm3.c ****  *
 588:../stm32f10x_lib/CMSIS/CM3/CoreSupport/core_cm3.c ****  * Return the content of the control register
 589:../stm32f10x_lib/CMSIS/CM3/CoreSupport/core_cm3.c ****  */
 590:../stm32f10x_lib/CMSIS/CM3/CoreSupport/core_cm3.c **** uint32_t __get_CONTROL(void)
ARM GAS  /tmp/cczVt2F9.s 			page 17


 591:../stm32f10x_lib/CMSIS/CM3/CoreSupport/core_cm3.c **** {
 323              		.loc 1 591 1 is_stmt 1 view -0
 324              		.cfi_startproc
 325              		@ args = 0, pretend = 0, frame = 0
 326              		@ frame_needed = 0, uses_anonymous_args = 0
 327              		@ link register save eliminated.
 592:../stm32f10x_lib/CMSIS/CM3/CoreSupport/core_cm3.c ****   uint32_t result=0;
 328              		.loc 1 592 3 view .LVU41
 329              	.LVL15:
 593:../stm32f10x_lib/CMSIS/CM3/CoreSupport/core_cm3.c **** 
 594:../stm32f10x_lib/CMSIS/CM3/CoreSupport/core_cm3.c ****   __ASM volatile ("MRS %0, control" : "=r" (result) );
 330              		.loc 1 594 3 view .LVU42
 331              		.syntax unified
 332              	@ 594 "../stm32f10x_lib/CMSIS/CM3/CoreSupport/core_cm3.c" 1
 333 0040 EFF31480 		MRS r0, control	@ result
 334              	@ 0 "" 2
 335              	.LVL16:
 595:../stm32f10x_lib/CMSIS/CM3/CoreSupport/core_cm3.c ****   return(result);
 336              		.loc 1 595 3 view .LVU43
 337              	@ ../stm32f10x_lib/CMSIS/CM3/CoreSupport/core_cm3.c:596: }
 596:../stm32f10x_lib/CMSIS/CM3/CoreSupport/core_cm3.c **** }
 338              		.loc 1 596 1 is_stmt 0 view .LVU44
 339              		.thumb
 340              		.syntax unified
 341 0044 7047     		bx	lr	@
 342              		.cfi_endproc
 343              	.LFE10:
 344              		.size	__get_CONTROL, .-__get_CONTROL
 345              		.align	1
 346              		.global	__set_CONTROL
 347              		.syntax unified
 348              		.thumb
 349              		.thumb_func
 350              		.type	__set_CONTROL, %function
 351              	__set_CONTROL:
 352              	.LVL17:
 353              	.LFB11:
 597:../stm32f10x_lib/CMSIS/CM3/CoreSupport/core_cm3.c **** 
 598:../stm32f10x_lib/CMSIS/CM3/CoreSupport/core_cm3.c **** /**
 599:../stm32f10x_lib/CMSIS/CM3/CoreSupport/core_cm3.c ****  * @brief  Set the Control Register value
 600:../stm32f10x_lib/CMSIS/CM3/CoreSupport/core_cm3.c ****  *
 601:../stm32f10x_lib/CMSIS/CM3/CoreSupport/core_cm3.c ****  * @param  control  Control value
 602:../stm32f10x_lib/CMSIS/CM3/CoreSupport/core_cm3.c ****  *
 603:../stm32f10x_lib/CMSIS/CM3/CoreSupport/core_cm3.c ****  * Set the control register
 604:../stm32f10x_lib/CMSIS/CM3/CoreSupport/core_cm3.c ****  */
 605:../stm32f10x_lib/CMSIS/CM3/CoreSupport/core_cm3.c **** void __set_CONTROL(uint32_t control)
 606:../stm32f10x_lib/CMSIS/CM3/CoreSupport/core_cm3.c **** {
 354              		.loc 1 606 1 is_stmt 1 view -0
 355              		.cfi_startproc
 356              		@ args = 0, pretend = 0, frame = 0
 357              		@ frame_needed = 0, uses_anonymous_args = 0
 358              		@ link register save eliminated.
 607:../stm32f10x_lib/CMSIS/CM3/CoreSupport/core_cm3.c ****   __ASM volatile ("MSR control, %0" : : "r" (control) );
 359              		.loc 1 607 3 view .LVU46
 360              		.syntax unified
 361              	@ 607 "../stm32f10x_lib/CMSIS/CM3/CoreSupport/core_cm3.c" 1
 362 0046 80F31488 		MSR control, r0	@ tmp115
ARM GAS  /tmp/cczVt2F9.s 			page 18


 363              	@ 0 "" 2
 364              	@ ../stm32f10x_lib/CMSIS/CM3/CoreSupport/core_cm3.c:608: }
 608:../stm32f10x_lib/CMSIS/CM3/CoreSupport/core_cm3.c **** }
 365              		.loc 1 608 1 is_stmt 0 view .LVU47
 366              		.thumb
 367              		.syntax unified
 368 004a 7047     		bx	lr	@
 369              		.cfi_endproc
 370              	.LFE11:
 371              		.size	__set_CONTROL, .-__set_CONTROL
 372              		.align	1
 373              		.global	__REV
 374              		.syntax unified
 375              		.thumb
 376              		.thumb_func
 377              		.type	__REV, %function
 378              	__REV:
 379              	.LVL18:
 380              	.LFB12:
 609:../stm32f10x_lib/CMSIS/CM3/CoreSupport/core_cm3.c **** 
 610:../stm32f10x_lib/CMSIS/CM3/CoreSupport/core_cm3.c **** 
 611:../stm32f10x_lib/CMSIS/CM3/CoreSupport/core_cm3.c **** /**
 612:../stm32f10x_lib/CMSIS/CM3/CoreSupport/core_cm3.c ****  * @brief  Reverse byte order in integer value
 613:../stm32f10x_lib/CMSIS/CM3/CoreSupport/core_cm3.c ****  *
 614:../stm32f10x_lib/CMSIS/CM3/CoreSupport/core_cm3.c ****  * @param  value  value to reverse
 615:../stm32f10x_lib/CMSIS/CM3/CoreSupport/core_cm3.c ****  * @return        reversed value
 616:../stm32f10x_lib/CMSIS/CM3/CoreSupport/core_cm3.c ****  *
 617:../stm32f10x_lib/CMSIS/CM3/CoreSupport/core_cm3.c ****  * Reverse byte order in integer value
 618:../stm32f10x_lib/CMSIS/CM3/CoreSupport/core_cm3.c ****  */
 619:../stm32f10x_lib/CMSIS/CM3/CoreSupport/core_cm3.c **** uint32_t __REV(uint32_t value)
 620:../stm32f10x_lib/CMSIS/CM3/CoreSupport/core_cm3.c **** {
 381              		.loc 1 620 1 is_stmt 1 view -0
 382              		.cfi_startproc
 383              		@ args = 0, pretend = 0, frame = 0
 384              		@ frame_needed = 0, uses_anonymous_args = 0
 385              		@ link register save eliminated.
 621:../stm32f10x_lib/CMSIS/CM3/CoreSupport/core_cm3.c ****   uint32_t result=0;
 386              		.loc 1 621 3 view .LVU49
 622:../stm32f10x_lib/CMSIS/CM3/CoreSupport/core_cm3.c ****   
 623:../stm32f10x_lib/CMSIS/CM3/CoreSupport/core_cm3.c ****   __ASM volatile ("rev %0, %1" : "=r" (result) : "r" (value) );
 387              		.loc 1 623 3 view .LVU50
 388              		.syntax unified
 389              	@ 623 "../stm32f10x_lib/CMSIS/CM3/CoreSupport/core_cm3.c" 1
 390 004c 00BA     		rev r0, r0	@ result, tmp118
 391              	@ 0 "" 2
 392              	.LVL19:
 624:../stm32f10x_lib/CMSIS/CM3/CoreSupport/core_cm3.c ****   return(result);
 393              		.loc 1 624 3 view .LVU51
 394              	@ ../stm32f10x_lib/CMSIS/CM3/CoreSupport/core_cm3.c:625: }
 625:../stm32f10x_lib/CMSIS/CM3/CoreSupport/core_cm3.c **** }
 395              		.loc 1 625 1 is_stmt 0 view .LVU52
 396              		.thumb
 397              		.syntax unified
 398 004e 7047     		bx	lr	@
 399              		.cfi_endproc
 400              	.LFE12:
 401              		.size	__REV, .-__REV
ARM GAS  /tmp/cczVt2F9.s 			page 19


 402              		.align	1
 403              		.global	__REV16
 404              		.syntax unified
 405              		.thumb
 406              		.thumb_func
 407              		.type	__REV16, %function
 408              	__REV16:
 409              	.LVL20:
 410              	.LFB13:
 626:../stm32f10x_lib/CMSIS/CM3/CoreSupport/core_cm3.c **** 
 627:../stm32f10x_lib/CMSIS/CM3/CoreSupport/core_cm3.c **** /**
 628:../stm32f10x_lib/CMSIS/CM3/CoreSupport/core_cm3.c ****  * @brief  Reverse byte order in unsigned short value
 629:../stm32f10x_lib/CMSIS/CM3/CoreSupport/core_cm3.c ****  *
 630:../stm32f10x_lib/CMSIS/CM3/CoreSupport/core_cm3.c ****  * @param  value  value to reverse
 631:../stm32f10x_lib/CMSIS/CM3/CoreSupport/core_cm3.c ****  * @return        reversed value
 632:../stm32f10x_lib/CMSIS/CM3/CoreSupport/core_cm3.c ****  *
 633:../stm32f10x_lib/CMSIS/CM3/CoreSupport/core_cm3.c ****  * Reverse byte order in unsigned short value
 634:../stm32f10x_lib/CMSIS/CM3/CoreSupport/core_cm3.c ****  */
 635:../stm32f10x_lib/CMSIS/CM3/CoreSupport/core_cm3.c **** uint32_t __REV16(uint16_t value)
 636:../stm32f10x_lib/CMSIS/CM3/CoreSupport/core_cm3.c **** {
 411              		.loc 1 636 1 is_stmt 1 view -0
 412              		.cfi_startproc
 413              		@ args = 0, pretend = 0, frame = 0
 414              		@ frame_needed = 0, uses_anonymous_args = 0
 415              		@ link register save eliminated.
 637:../stm32f10x_lib/CMSIS/CM3/CoreSupport/core_cm3.c ****   uint32_t result=0;
 416              		.loc 1 637 3 view .LVU54
 638:../stm32f10x_lib/CMSIS/CM3/CoreSupport/core_cm3.c ****   
 639:../stm32f10x_lib/CMSIS/CM3/CoreSupport/core_cm3.c ****   __ASM volatile ("rev16 %0, %1" : "=r" (result) : "r" (value) );
 417              		.loc 1 639 3 view .LVU55
 418              		.syntax unified
 419              	@ 639 "../stm32f10x_lib/CMSIS/CM3/CoreSupport/core_cm3.c" 1
 420 0050 40BA     		rev16 r0, r0	@ result, tmp118
 421              	@ 0 "" 2
 422              	.LVL21:
 640:../stm32f10x_lib/CMSIS/CM3/CoreSupport/core_cm3.c ****   return(result);
 423              		.loc 1 640 3 view .LVU56
 424              	@ ../stm32f10x_lib/CMSIS/CM3/CoreSupport/core_cm3.c:641: }
 641:../stm32f10x_lib/CMSIS/CM3/CoreSupport/core_cm3.c **** }
 425              		.loc 1 641 1 is_stmt 0 view .LVU57
 426              		.thumb
 427              		.syntax unified
 428 0052 7047     		bx	lr	@
 429              		.cfi_endproc
 430              	.LFE13:
 431              		.size	__REV16, .-__REV16
 432              		.align	1
 433              		.global	__REVSH
 434              		.syntax unified
 435              		.thumb
 436              		.thumb_func
 437              		.type	__REVSH, %function
 438              	__REVSH:
 439              	.LVL22:
 440              	.LFB14:
 642:../stm32f10x_lib/CMSIS/CM3/CoreSupport/core_cm3.c **** 
 643:../stm32f10x_lib/CMSIS/CM3/CoreSupport/core_cm3.c **** /**
ARM GAS  /tmp/cczVt2F9.s 			page 20


 644:../stm32f10x_lib/CMSIS/CM3/CoreSupport/core_cm3.c ****  * @brief  Reverse byte order in signed short value with sign extension to integer
 645:../stm32f10x_lib/CMSIS/CM3/CoreSupport/core_cm3.c ****  *
 646:../stm32f10x_lib/CMSIS/CM3/CoreSupport/core_cm3.c ****  * @param  value  value to reverse
 647:../stm32f10x_lib/CMSIS/CM3/CoreSupport/core_cm3.c ****  * @return        reversed value
 648:../stm32f10x_lib/CMSIS/CM3/CoreSupport/core_cm3.c ****  *
 649:../stm32f10x_lib/CMSIS/CM3/CoreSupport/core_cm3.c ****  * Reverse byte order in signed short value with sign extension to integer
 650:../stm32f10x_lib/CMSIS/CM3/CoreSupport/core_cm3.c ****  */
 651:../stm32f10x_lib/CMSIS/CM3/CoreSupport/core_cm3.c **** int32_t __REVSH(int16_t value)
 652:../stm32f10x_lib/CMSIS/CM3/CoreSupport/core_cm3.c **** {
 441              		.loc 1 652 1 is_stmt 1 view -0
 442              		.cfi_startproc
 443              		@ args = 0, pretend = 0, frame = 0
 444              		@ frame_needed = 0, uses_anonymous_args = 0
 445              		@ link register save eliminated.
 653:../stm32f10x_lib/CMSIS/CM3/CoreSupport/core_cm3.c ****   uint32_t result=0;
 446              		.loc 1 653 3 view .LVU59
 654:../stm32f10x_lib/CMSIS/CM3/CoreSupport/core_cm3.c ****   
 655:../stm32f10x_lib/CMSIS/CM3/CoreSupport/core_cm3.c ****   __ASM volatile ("revsh %0, %1" : "=r" (result) : "r" (value) );
 447              		.loc 1 655 3 view .LVU60
 448              		.syntax unified
 449              	@ 655 "../stm32f10x_lib/CMSIS/CM3/CoreSupport/core_cm3.c" 1
 450 0054 C0BA     		revsh r0, r0	@ result, tmp119
 451              	@ 0 "" 2
 452              	.LVL23:
 656:../stm32f10x_lib/CMSIS/CM3/CoreSupport/core_cm3.c ****   return(result);
 453              		.loc 1 656 3 view .LVU61
 454              	@ ../stm32f10x_lib/CMSIS/CM3/CoreSupport/core_cm3.c:657: }
 657:../stm32f10x_lib/CMSIS/CM3/CoreSupport/core_cm3.c **** }
 455              		.loc 1 657 1 is_stmt 0 view .LVU62
 456              		.thumb
 457              		.syntax unified
 458 0056 7047     		bx	lr	@
 459              		.cfi_endproc
 460              	.LFE14:
 461              		.size	__REVSH, .-__REVSH
 462              		.align	1
 463              		.global	__RBIT
 464              		.syntax unified
 465              		.thumb
 466              		.thumb_func
 467              		.type	__RBIT, %function
 468              	__RBIT:
 469              	.LVL24:
 470              	.LFB15:
 658:../stm32f10x_lib/CMSIS/CM3/CoreSupport/core_cm3.c **** 
 659:../stm32f10x_lib/CMSIS/CM3/CoreSupport/core_cm3.c **** /**
 660:../stm32f10x_lib/CMSIS/CM3/CoreSupport/core_cm3.c ****  * @brief  Reverse bit order of value
 661:../stm32f10x_lib/CMSIS/CM3/CoreSupport/core_cm3.c ****  *
 662:../stm32f10x_lib/CMSIS/CM3/CoreSupport/core_cm3.c ****  * @param  value  value to reverse
 663:../stm32f10x_lib/CMSIS/CM3/CoreSupport/core_cm3.c ****  * @return        reversed value
 664:../stm32f10x_lib/CMSIS/CM3/CoreSupport/core_cm3.c ****  *
 665:../stm32f10x_lib/CMSIS/CM3/CoreSupport/core_cm3.c ****  * Reverse bit order of value
 666:../stm32f10x_lib/CMSIS/CM3/CoreSupport/core_cm3.c ****  */
 667:../stm32f10x_lib/CMSIS/CM3/CoreSupport/core_cm3.c **** uint32_t __RBIT(uint32_t value)
 668:../stm32f10x_lib/CMSIS/CM3/CoreSupport/core_cm3.c **** {
 471              		.loc 1 668 1 is_stmt 1 view -0
 472              		.cfi_startproc
ARM GAS  /tmp/cczVt2F9.s 			page 21


 473              		@ args = 0, pretend = 0, frame = 0
 474              		@ frame_needed = 0, uses_anonymous_args = 0
 475              		@ link register save eliminated.
 669:../stm32f10x_lib/CMSIS/CM3/CoreSupport/core_cm3.c ****   uint32_t result=0;
 476              		.loc 1 669 3 view .LVU64
 670:../stm32f10x_lib/CMSIS/CM3/CoreSupport/core_cm3.c ****   
 671:../stm32f10x_lib/CMSIS/CM3/CoreSupport/core_cm3.c ****    __ASM volatile ("rbit %0, %1" : "=r" (result) : "r" (value) );
 477              		.loc 1 671 4 view .LVU65
 478              		.syntax unified
 479              	@ 671 "../stm32f10x_lib/CMSIS/CM3/CoreSupport/core_cm3.c" 1
 480 0058 90FAA0F0 		rbit r0, r0	@ result, tmp118
 481              	@ 0 "" 2
 482              	.LVL25:
 672:../stm32f10x_lib/CMSIS/CM3/CoreSupport/core_cm3.c ****    return(result);
 483              		.loc 1 672 4 view .LVU66
 484              	@ ../stm32f10x_lib/CMSIS/CM3/CoreSupport/core_cm3.c:673: }
 673:../stm32f10x_lib/CMSIS/CM3/CoreSupport/core_cm3.c **** }
 485              		.loc 1 673 1 is_stmt 0 view .LVU67
 486              		.thumb
 487              		.syntax unified
 488 005c 7047     		bx	lr	@
 489              		.cfi_endproc
 490              	.LFE15:
 491              		.size	__RBIT, .-__RBIT
 492              		.align	1
 493              		.global	__LDREXB
 494              		.syntax unified
 495              		.thumb
 496              		.thumb_func
 497              		.type	__LDREXB, %function
 498              	__LDREXB:
 499              	.LVL26:
 500              	.LFB16:
 674:../stm32f10x_lib/CMSIS/CM3/CoreSupport/core_cm3.c **** 
 675:../stm32f10x_lib/CMSIS/CM3/CoreSupport/core_cm3.c **** /**
 676:../stm32f10x_lib/CMSIS/CM3/CoreSupport/core_cm3.c ****  * @brief  LDR Exclusive (8 bit)
 677:../stm32f10x_lib/CMSIS/CM3/CoreSupport/core_cm3.c ****  *
 678:../stm32f10x_lib/CMSIS/CM3/CoreSupport/core_cm3.c ****  * @param  *addr  address pointer
 679:../stm32f10x_lib/CMSIS/CM3/CoreSupport/core_cm3.c ****  * @return        value of (*address)
 680:../stm32f10x_lib/CMSIS/CM3/CoreSupport/core_cm3.c ****  *
 681:../stm32f10x_lib/CMSIS/CM3/CoreSupport/core_cm3.c ****  * Exclusive LDR command for 8 bit value
 682:../stm32f10x_lib/CMSIS/CM3/CoreSupport/core_cm3.c ****  */
 683:../stm32f10x_lib/CMSIS/CM3/CoreSupport/core_cm3.c **** uint8_t __LDREXB(uint8_t *addr)
 684:../stm32f10x_lib/CMSIS/CM3/CoreSupport/core_cm3.c **** {
 501              		.loc 1 684 1 is_stmt 1 view -0
 502              		.cfi_startproc
 503              		@ args = 0, pretend = 0, frame = 0
 504              		@ frame_needed = 0, uses_anonymous_args = 0
 505              		@ link register save eliminated.
 685:../stm32f10x_lib/CMSIS/CM3/CoreSupport/core_cm3.c ****     uint8_t result=0;
 506              		.loc 1 685 5 view .LVU69
 686:../stm32f10x_lib/CMSIS/CM3/CoreSupport/core_cm3.c ****   
 687:../stm32f10x_lib/CMSIS/CM3/CoreSupport/core_cm3.c ****    __ASM volatile ("ldrexb %0, [%1]" : "=r" (result) : "r" (addr) );
 507              		.loc 1 687 4 view .LVU70
 508              		.syntax unified
 509              	@ 687 "../stm32f10x_lib/CMSIS/CM3/CoreSupport/core_cm3.c" 1
 510 005e D0E84F0F 		ldrexb r0, [r0]	@ result, tmp118
ARM GAS  /tmp/cczVt2F9.s 			page 22


 511              	@ 0 "" 2
 512              	.LVL27:
 688:../stm32f10x_lib/CMSIS/CM3/CoreSupport/core_cm3.c ****    return(result);
 513              		.loc 1 688 4 view .LVU71
 514              	@ ../stm32f10x_lib/CMSIS/CM3/CoreSupport/core_cm3.c:689: }
 689:../stm32f10x_lib/CMSIS/CM3/CoreSupport/core_cm3.c **** }
 515              		.loc 1 689 1 is_stmt 0 view .LVU72
 516              		.thumb
 517              		.syntax unified
 518 0062 C0B2     		uxtb	r0, r0	@, result
 519              		.loc 1 689 1 view .LVU73
 520 0064 7047     		bx	lr	@
 521              		.cfi_endproc
 522              	.LFE16:
 523              		.size	__LDREXB, .-__LDREXB
 524              		.align	1
 525              		.global	__LDREXH
 526              		.syntax unified
 527              		.thumb
 528              		.thumb_func
 529              		.type	__LDREXH, %function
 530              	__LDREXH:
 531              	.LVL28:
 532              	.LFB17:
 690:../stm32f10x_lib/CMSIS/CM3/CoreSupport/core_cm3.c **** 
 691:../stm32f10x_lib/CMSIS/CM3/CoreSupport/core_cm3.c **** /**
 692:../stm32f10x_lib/CMSIS/CM3/CoreSupport/core_cm3.c ****  * @brief  LDR Exclusive (16 bit)
 693:../stm32f10x_lib/CMSIS/CM3/CoreSupport/core_cm3.c ****  *
 694:../stm32f10x_lib/CMSIS/CM3/CoreSupport/core_cm3.c ****  * @param  *addr  address pointer
 695:../stm32f10x_lib/CMSIS/CM3/CoreSupport/core_cm3.c ****  * @return        value of (*address)
 696:../stm32f10x_lib/CMSIS/CM3/CoreSupport/core_cm3.c ****  *
 697:../stm32f10x_lib/CMSIS/CM3/CoreSupport/core_cm3.c ****  * Exclusive LDR command for 16 bit values
 698:../stm32f10x_lib/CMSIS/CM3/CoreSupport/core_cm3.c ****  */
 699:../stm32f10x_lib/CMSIS/CM3/CoreSupport/core_cm3.c **** uint16_t __LDREXH(uint16_t *addr)
 700:../stm32f10x_lib/CMSIS/CM3/CoreSupport/core_cm3.c **** {
 533              		.loc 1 700 1 is_stmt 1 view -0
 534              		.cfi_startproc
 535              		@ args = 0, pretend = 0, frame = 0
 536              		@ frame_needed = 0, uses_anonymous_args = 0
 537              		@ link register save eliminated.
 701:../stm32f10x_lib/CMSIS/CM3/CoreSupport/core_cm3.c ****     uint16_t result=0;
 538              		.loc 1 701 5 view .LVU75
 702:../stm32f10x_lib/CMSIS/CM3/CoreSupport/core_cm3.c ****   
 703:../stm32f10x_lib/CMSIS/CM3/CoreSupport/core_cm3.c ****    __ASM volatile ("ldrexh %0, [%1]" : "=r" (result) : "r" (addr) );
 539              		.loc 1 703 4 view .LVU76
 540              		.syntax unified
 541              	@ 703 "../stm32f10x_lib/CMSIS/CM3/CoreSupport/core_cm3.c" 1
 542 0066 D0E85F0F 		ldrexh r0, [r0]	@ result, tmp118
 543              	@ 0 "" 2
 544              	.LVL29:
 704:../stm32f10x_lib/CMSIS/CM3/CoreSupport/core_cm3.c ****    return(result);
 545              		.loc 1 704 4 view .LVU77
 546              	@ ../stm32f10x_lib/CMSIS/CM3/CoreSupport/core_cm3.c:705: }
 705:../stm32f10x_lib/CMSIS/CM3/CoreSupport/core_cm3.c **** }
 547              		.loc 1 705 1 is_stmt 0 view .LVU78
 548              		.thumb
 549              		.syntax unified
ARM GAS  /tmp/cczVt2F9.s 			page 23


 550 006a 80B2     		uxth	r0, r0	@, result
 551              		.loc 1 705 1 view .LVU79
 552 006c 7047     		bx	lr	@
 553              		.cfi_endproc
 554              	.LFE17:
 555              		.size	__LDREXH, .-__LDREXH
 556              		.align	1
 557              		.global	__LDREXW
 558              		.syntax unified
 559              		.thumb
 560              		.thumb_func
 561              		.type	__LDREXW, %function
 562              	__LDREXW:
 563              	.LVL30:
 564              	.LFB18:
 706:../stm32f10x_lib/CMSIS/CM3/CoreSupport/core_cm3.c **** 
 707:../stm32f10x_lib/CMSIS/CM3/CoreSupport/core_cm3.c **** /**
 708:../stm32f10x_lib/CMSIS/CM3/CoreSupport/core_cm3.c ****  * @brief  LDR Exclusive (32 bit)
 709:../stm32f10x_lib/CMSIS/CM3/CoreSupport/core_cm3.c ****  *
 710:../stm32f10x_lib/CMSIS/CM3/CoreSupport/core_cm3.c ****  * @param  *addr  address pointer
 711:../stm32f10x_lib/CMSIS/CM3/CoreSupport/core_cm3.c ****  * @return        value of (*address)
 712:../stm32f10x_lib/CMSIS/CM3/CoreSupport/core_cm3.c ****  *
 713:../stm32f10x_lib/CMSIS/CM3/CoreSupport/core_cm3.c ****  * Exclusive LDR command for 32 bit values
 714:../stm32f10x_lib/CMSIS/CM3/CoreSupport/core_cm3.c ****  */
 715:../stm32f10x_lib/CMSIS/CM3/CoreSupport/core_cm3.c **** uint32_t __LDREXW(uint32_t *addr)
 716:../stm32f10x_lib/CMSIS/CM3/CoreSupport/core_cm3.c **** {
 565              		.loc 1 716 1 is_stmt 1 view -0
 566              		.cfi_startproc
 567              		@ args = 0, pretend = 0, frame = 0
 568              		@ frame_needed = 0, uses_anonymous_args = 0
 569              		@ link register save eliminated.
 717:../stm32f10x_lib/CMSIS/CM3/CoreSupport/core_cm3.c ****     uint32_t result=0;
 570              		.loc 1 717 5 view .LVU81
 718:../stm32f10x_lib/CMSIS/CM3/CoreSupport/core_cm3.c ****   
 719:../stm32f10x_lib/CMSIS/CM3/CoreSupport/core_cm3.c ****    __ASM volatile ("ldrex %0, [%1]" : "=r" (result) : "r" (addr) );
 571              		.loc 1 719 4 view .LVU82
 572              		.syntax unified
 573              	@ 719 "../stm32f10x_lib/CMSIS/CM3/CoreSupport/core_cm3.c" 1
 574 006e 50E8000F 		ldrex r0, [r0]	@ result, tmp118
 575              	@ 0 "" 2
 576              	.LVL31:
 720:../stm32f10x_lib/CMSIS/CM3/CoreSupport/core_cm3.c ****    return(result);
 577              		.loc 1 720 4 view .LVU83
 578              	@ ../stm32f10x_lib/CMSIS/CM3/CoreSupport/core_cm3.c:721: }
 721:../stm32f10x_lib/CMSIS/CM3/CoreSupport/core_cm3.c **** }
 579              		.loc 1 721 1 is_stmt 0 view .LVU84
 580              		.thumb
 581              		.syntax unified
 582 0072 7047     		bx	lr	@
 583              		.cfi_endproc
 584              	.LFE18:
 585              		.size	__LDREXW, .-__LDREXW
 586              		.align	1
 587              		.global	__STREXB
 588              		.syntax unified
 589              		.thumb
 590              		.thumb_func
ARM GAS  /tmp/cczVt2F9.s 			page 24


 591              		.type	__STREXB, %function
 592              	__STREXB:
 593              	.LVL32:
 594              	.LFB19:
 722:../stm32f10x_lib/CMSIS/CM3/CoreSupport/core_cm3.c **** 
 723:../stm32f10x_lib/CMSIS/CM3/CoreSupport/core_cm3.c **** /**
 724:../stm32f10x_lib/CMSIS/CM3/CoreSupport/core_cm3.c ****  * @brief  STR Exclusive (8 bit)
 725:../stm32f10x_lib/CMSIS/CM3/CoreSupport/core_cm3.c ****  *
 726:../stm32f10x_lib/CMSIS/CM3/CoreSupport/core_cm3.c ****  * @param  value  value to store
 727:../stm32f10x_lib/CMSIS/CM3/CoreSupport/core_cm3.c ****  * @param  *addr  address pointer
 728:../stm32f10x_lib/CMSIS/CM3/CoreSupport/core_cm3.c ****  * @return        successful / failed
 729:../stm32f10x_lib/CMSIS/CM3/CoreSupport/core_cm3.c ****  *
 730:../stm32f10x_lib/CMSIS/CM3/CoreSupport/core_cm3.c ****  * Exclusive STR command for 8 bit values
 731:../stm32f10x_lib/CMSIS/CM3/CoreSupport/core_cm3.c ****  */
 732:../stm32f10x_lib/CMSIS/CM3/CoreSupport/core_cm3.c **** uint32_t __STREXB(uint8_t value, uint8_t *addr)
 733:../stm32f10x_lib/CMSIS/CM3/CoreSupport/core_cm3.c **** {
 595              		.loc 1 733 1 is_stmt 1 view -0
 596              		.cfi_startproc
 597              		@ args = 0, pretend = 0, frame = 0
 598              		@ frame_needed = 0, uses_anonymous_args = 0
 599              		@ link register save eliminated.
 734:../stm32f10x_lib/CMSIS/CM3/CoreSupport/core_cm3.c ****    //uint32_t result=0;
 735:../stm32f10x_lib/CMSIS/CM3/CoreSupport/core_cm3.c ****    register uint32_t result asm ("r2");
 600              		.loc 1 735 4 view .LVU86
 736:../stm32f10x_lib/CMSIS/CM3/CoreSupport/core_cm3.c ****    __ASM volatile ("strexb %0, %2, [%1]" : "=r" (result) : "r" (addr), "r" (value) );
 601              		.loc 1 736 4 view .LVU87
 602              		.syntax unified
 603              	@ 736 "../stm32f10x_lib/CMSIS/CM3/CoreSupport/core_cm3.c" 1
 604 0074 C1E8420F 		strexb r2, r0, [r1]	@ result, tmp118, tmp119
 605              	@ 0 "" 2
 737:../stm32f10x_lib/CMSIS/CM3/CoreSupport/core_cm3.c ****    return(result);
 606              		.loc 1 737 4 view .LVU88
 607              	@ ../stm32f10x_lib/CMSIS/CM3/CoreSupport/core_cm3.c:738: }
 738:../stm32f10x_lib/CMSIS/CM3/CoreSupport/core_cm3.c **** }
 608              		.loc 1 738 1 is_stmt 0 view .LVU89
 609              		.thumb
 610              		.syntax unified
 611 0078 1046     		mov	r0, r2	@, tmp120
 612              	.LVL33:
 613              		.loc 1 738 1 view .LVU90
 614 007a 7047     		bx	lr	@
 615              		.cfi_endproc
 616              	.LFE19:
 617              		.size	__STREXB, .-__STREXB
 618              		.align	1
 619              		.global	__STREXH
 620              		.syntax unified
 621              		.thumb
 622              		.thumb_func
 623              		.type	__STREXH, %function
 624              	__STREXH:
 625              	.LVL34:
 626              	.LFB20:
 739:../stm32f10x_lib/CMSIS/CM3/CoreSupport/core_cm3.c **** 
 740:../stm32f10x_lib/CMSIS/CM3/CoreSupport/core_cm3.c **** /**
 741:../stm32f10x_lib/CMSIS/CM3/CoreSupport/core_cm3.c ****  * @brief  STR Exclusive (16 bit)
 742:../stm32f10x_lib/CMSIS/CM3/CoreSupport/core_cm3.c ****  *
ARM GAS  /tmp/cczVt2F9.s 			page 25


 743:../stm32f10x_lib/CMSIS/CM3/CoreSupport/core_cm3.c ****  * @param  value  value to store
 744:../stm32f10x_lib/CMSIS/CM3/CoreSupport/core_cm3.c ****  * @param  *addr  address pointer
 745:../stm32f10x_lib/CMSIS/CM3/CoreSupport/core_cm3.c ****  * @return        successful / failed
 746:../stm32f10x_lib/CMSIS/CM3/CoreSupport/core_cm3.c ****  *
 747:../stm32f10x_lib/CMSIS/CM3/CoreSupport/core_cm3.c ****  * Exclusive STR command for 16 bit values
 748:../stm32f10x_lib/CMSIS/CM3/CoreSupport/core_cm3.c ****  */
 749:../stm32f10x_lib/CMSIS/CM3/CoreSupport/core_cm3.c **** uint32_t __STREXH(uint16_t value, uint16_t *addr)
 750:../stm32f10x_lib/CMSIS/CM3/CoreSupport/core_cm3.c **** {
 627              		.loc 1 750 1 is_stmt 1 view -0
 628              		.cfi_startproc
 629              		@ args = 0, pretend = 0, frame = 0
 630              		@ frame_needed = 0, uses_anonymous_args = 0
 631              		@ link register save eliminated.
 751:../stm32f10x_lib/CMSIS/CM3/CoreSupport/core_cm3.c ****    //uint32_t result=0;
 752:../stm32f10x_lib/CMSIS/CM3/CoreSupport/core_cm3.c ****    register uint32_t result asm ("r2");
 632              		.loc 1 752 4 view .LVU92
 753:../stm32f10x_lib/CMSIS/CM3/CoreSupport/core_cm3.c ****    __ASM volatile ("strexh %0, %2, [%1]" : "=r" (result) : "r" (addr), "r" (value) );
 633              		.loc 1 753 4 view .LVU93
 634              		.syntax unified
 635              	@ 753 "../stm32f10x_lib/CMSIS/CM3/CoreSupport/core_cm3.c" 1
 636 007c C1E8520F 		strexh r2, r0, [r1]	@ result, tmp118, tmp119
 637              	@ 0 "" 2
 754:../stm32f10x_lib/CMSIS/CM3/CoreSupport/core_cm3.c ****    return(result);
 638              		.loc 1 754 4 view .LVU94
 639              	@ ../stm32f10x_lib/CMSIS/CM3/CoreSupport/core_cm3.c:755: }
 755:../stm32f10x_lib/CMSIS/CM3/CoreSupport/core_cm3.c **** }
 640              		.loc 1 755 1 is_stmt 0 view .LVU95
 641              		.thumb
 642              		.syntax unified
 643 0080 1046     		mov	r0, r2	@, tmp120
 644              	.LVL35:
 645              		.loc 1 755 1 view .LVU96
 646 0082 7047     		bx	lr	@
 647              		.cfi_endproc
 648              	.LFE20:
 649              		.size	__STREXH, .-__STREXH
 650              		.align	1
 651              		.global	__STREXW
 652              		.syntax unified
 653              		.thumb
 654              		.thumb_func
 655              		.type	__STREXW, %function
 656              	__STREXW:
 657              	.LVL36:
 658              	.LFB21:
 756:../stm32f10x_lib/CMSIS/CM3/CoreSupport/core_cm3.c **** 
 757:../stm32f10x_lib/CMSIS/CM3/CoreSupport/core_cm3.c **** /**
 758:../stm32f10x_lib/CMSIS/CM3/CoreSupport/core_cm3.c ****  * @brief  STR Exclusive (32 bit)
 759:../stm32f10x_lib/CMSIS/CM3/CoreSupport/core_cm3.c ****  *
 760:../stm32f10x_lib/CMSIS/CM3/CoreSupport/core_cm3.c ****  * @param  value  value to store
 761:../stm32f10x_lib/CMSIS/CM3/CoreSupport/core_cm3.c ****  * @param  *addr  address pointer
 762:../stm32f10x_lib/CMSIS/CM3/CoreSupport/core_cm3.c ****  * @return        successful / failed
 763:../stm32f10x_lib/CMSIS/CM3/CoreSupport/core_cm3.c ****  *
 764:../stm32f10x_lib/CMSIS/CM3/CoreSupport/core_cm3.c ****  * Exclusive STR command for 32 bit values
 765:../stm32f10x_lib/CMSIS/CM3/CoreSupport/core_cm3.c ****  */
 766:../stm32f10x_lib/CMSIS/CM3/CoreSupport/core_cm3.c **** uint32_t __STREXW(uint32_t value, uint32_t *addr)
 767:../stm32f10x_lib/CMSIS/CM3/CoreSupport/core_cm3.c **** {
ARM GAS  /tmp/cczVt2F9.s 			page 26


 659              		.loc 1 767 1 is_stmt 1 view -0
 660              		.cfi_startproc
 661              		@ args = 0, pretend = 0, frame = 0
 662              		@ frame_needed = 0, uses_anonymous_args = 0
 663              		@ link register save eliminated.
 768:../stm32f10x_lib/CMSIS/CM3/CoreSupport/core_cm3.c ****    uint32_t result=0;
 664              		.loc 1 768 4 view .LVU98
 769:../stm32f10x_lib/CMSIS/CM3/CoreSupport/core_cm3.c ****   
 770:../stm32f10x_lib/CMSIS/CM3/CoreSupport/core_cm3.c ****    __ASM volatile ("strex %0, %2, [%1]" : "=r" (result) : "r" (addr), "r" (value) );
 665              		.loc 1 770 4 view .LVU99
 666              		.syntax unified
 667              	@ 770 "../stm32f10x_lib/CMSIS/CM3/CoreSupport/core_cm3.c" 1
 668 0084 41E80000 		strex r0, r0, [r1]	@ result, tmp119, tmp120
 669              	@ 0 "" 2
 670              	.LVL37:
 771:../stm32f10x_lib/CMSIS/CM3/CoreSupport/core_cm3.c ****    return(result);
 671              		.loc 1 771 4 view .LVU100
 672              	@ ../stm32f10x_lib/CMSIS/CM3/CoreSupport/core_cm3.c:772: }
 772:../stm32f10x_lib/CMSIS/CM3/CoreSupport/core_cm3.c **** }
 673              		.loc 1 772 1 is_stmt 0 view .LVU101
 674              		.thumb
 675              		.syntax unified
 676 0088 7047     		bx	lr	@
 677              		.cfi_endproc
 678              	.LFE21:
 679              		.size	__STREXW, .-__STREXW
 680              	.Letext0:
 681              		.file 2 "/usr/arm-none-eabi/include/machine/_default_types.h"
 682              		.file 3 "/usr/arm-none-eabi/include/sys/_stdint.h"