ARM GAS  /tmp/cc8bNYNB.s 			page 1


   1              		.cpu cortex-m3
   2              		.arch armv7-m
   3              		.fpu softvfp
   4              		.eabi_attribute 20, 1	@ Tag_ABI_FP_denormal
   5              		.eabi_attribute 21, 1	@ Tag_ABI_FP_exceptions
   6              		.eabi_attribute 23, 3	@ Tag_ABI_FP_number_model
   7              		.eabi_attribute 24, 1	@ Tag_ABI_align8_needed
   8              		.eabi_attribute 25, 1	@ Tag_ABI_align8_preserved
   9              		.eabi_attribute 26, 1	@ Tag_ABI_enum_size
  10              		.eabi_attribute 30, 4	@ Tag_ABI_optimization_goals
  11              		.eabi_attribute 34, 1	@ Tag_CPU_unaligned_access
  12              		.eabi_attribute 18, 4	@ Tag_ABI_PCS_wchar_t
  13              		.file	"main.c"
  14              	@ GNU C17 (GNU Arm Embedded Toolchain 10.3-2021.10) version 10.3.1 20210824 (release) (arm-none-eab
  15              	@	compiled by GNU C version 4.8.4, GMP version 6.1.0, MPFR version 3.1.4, MPC version 1.0.3, isl ve
  16              	
  17              	@ GGC heuristics: --param ggc-min-expand=100 --param ggc-min-heapsize=131072
  18              	@ options passed:  -I . -I ../2-filas
  19              	@ -I ../stm32f10x_lib/CMSIS/CM3/CoreSupport
  20              	@ -I ../stm32f10x_lib/CMSIS/CM3/DeviceSupport/ST/STM32F10x
  21              	@ -I ../stm32f10x_lib/STM32F10x_StdPeriph_Driver/inc
  22              	@ -I ../stm32f10x_lib/STM32F10x_StdPeriph_Driver -I ../freertos/include
  23              	@ -I ../freertos/portable/GCC/ARM_CM3 -imultilib thumb/v7-m/nofp
  24              	@ -iprefix /usr/bin/../lib/gcc/arm-none-eabi/10.3.1/
  25              	@ -isysroot /usr/bin/../arm-none-eabi -D__USES_INITFINI__ -D STM32F10X_MD
  26              	@ -D USE_STDPERIPH_DRIVER -D HSE_VALUE=8000000 -D RUN_FROM_FLASH=1
  27              	@ ../2-filas/main.c -mcpu=cortex-m3 -mthumb -mfloat-abi=soft
  28              	@ -mlibarch=armv7-m -march=armv7-m -auxbase-strip ../2-filas/main.o -g
  29              	@ -gdwarf-2 -Os -Wall -fomit-frame-pointer -fverbose-asm
  30              	@ options enabled:  -faggressive-loop-optimizations -fallocation-dce
  31              	@ -fauto-inc-dec -fbranch-count-reg -fcaller-saves -fcode-hoisting
  32              	@ -fcombine-stack-adjustments -fcompare-elim -fcprop-registers
  33              	@ -fcrossjumping -fcse-follow-jumps -fdefer-pop
  34              	@ -fdelete-null-pointer-checks -fdevirtualize -fdevirtualize-speculatively
  35              	@ -fdwarf2-cfi-asm -fearly-inlining -feliminate-unused-debug-symbols
  36              	@ -feliminate-unused-debug-types -fexpensive-optimizations
  37              	@ -fforward-propagate -ffp-int-builtin-inexact -ffunction-cse -fgcse
  38              	@ -fgcse-lm -fgnu-unique -fguess-branch-probability -fhoist-adjacent-loads
  39              	@ -fident -fif-conversion -fif-conversion2 -findirect-inlining -finline
  40              	@ -finline-atomics -finline-functions -finline-functions-called-once
  41              	@ -finline-small-functions -fipa-bit-cp -fipa-cp -fipa-icf
  42              	@ -fipa-icf-functions -fipa-icf-variables -fipa-profile -fipa-pure-const
  43              	@ -fipa-ra -fipa-reference -fipa-reference-addressable -fipa-sra
  44              	@ -fipa-stack-alignment -fipa-vrp -fira-hoist-pressure
  45              	@ -fira-share-save-slots -fira-share-spill-slots
  46              	@ -fisolate-erroneous-paths-dereference -fivopts -fkeep-static-consts
  47              	@ -fleading-underscore -flifetime-dse -flra-remat -fmath-errno
  48              	@ -fmerge-constants -fmerge-debug-strings -fmove-loop-invariants
  49              	@ -fomit-frame-pointer -foptimize-sibling-calls -fpartial-inlining
  50              	@ -fpeephole -fpeephole2 -fplt -fprefetch-loop-arrays -freg-struct-return
  51              	@ -freorder-blocks -freorder-functions -frerun-cse-after-loop
  52              	@ -fsched-critical-path-heuristic -fsched-dep-count-heuristic
  53              	@ -fsched-group-heuristic -fsched-interblock -fsched-last-insn-heuristic
  54              	@ -fsched-pressure -fsched-rank-heuristic -fsched-spec
  55              	@ -fsched-spec-insn-heuristic -fsched-stalled-insns-dep -fschedule-insns2
  56              	@ -fsection-anchors -fsemantic-interposition -fshow-column
  57              	@ -fshrink-wrap-separate -fsigned-zeros -fsplit-ivs-in-unroller
ARM GAS  /tmp/cc8bNYNB.s 			page 2


  58              	@ -fsplit-wide-types -fssa-backprop -fssa-phiopt -fstdarg-opt
  59              	@ -fstore-merging -fstrict-aliasing -fstrict-volatile-bitfields
  60              	@ -fsync-libcalls -fthread-jumps -ftoplevel-reorder -ftrapping-math
  61              	@ -ftree-bit-ccp -ftree-builtin-call-dce -ftree-ccp -ftree-ch
  62              	@ -ftree-coalesce-vars -ftree-copy-prop -ftree-cselim -ftree-dce
  63              	@ -ftree-dominator-opts -ftree-dse -ftree-forwprop -ftree-fre
  64              	@ -ftree-loop-distribute-patterns -ftree-loop-if-convert -ftree-loop-im
  65              	@ -ftree-loop-ivcanon -ftree-loop-optimize -ftree-parallelize-loops=
  66              	@ -ftree-phiprop -ftree-pre -ftree-pta -ftree-reassoc -ftree-scev-cprop
  67              	@ -ftree-sink -ftree-slsr -ftree-sra -ftree-switch-conversion
  68              	@ -ftree-tail-merge -ftree-ter -ftree-vrp -funit-at-a-time -fvar-tracking
  69              	@ -fvar-tracking-assignments -fverbose-asm -fzero-initialized-in-bss
  70              	@ -masm-syntax-unified -mbe32 -mfix-cortex-m3-ldrd -mlittle-endian
  71              	@ -mpic-data-is-text-relative -msched-prolog -mthumb -munaligned-access
  72              	@ -mvectorize-with-neon-quad
  73              	
  74              		.text
  75              	.Ltext0:
  76              		.cfi_sections	.debug_frame
  77              		.align	1
  78              		.syntax unified
  79              		.thumb
  80              		.thumb_func
  81              		.type	task3, %function
  82              	task3:
  83              	.LVL0:
  84              	.LFB44:
  85              		.file 1 "../2-filas/main.c"
   1:../2-filas/main.c **** /*
   2:../2-filas/main.c ****  *
   3:../2-filas/main.c ****  * Desenvolver exemplos usando buffer de comuniação (Queue)
   4:../2-filas/main.c ****  * com propósito de comunicação entre duas ou mais tarefas.
   5:../2-filas/main.c ****  *
   6:../2-filas/main.c ****  *
   7:../2-filas/main.c ****  * Pinos utilizados: 
   8:../2-filas/main.c ****  *		PA0 -> PWM Ch0 -> TIM2 
   9:../2-filas/main.c ****  *		PA1 -> ADC1 configurado e não utilizado
  10:../2-filas/main.c ****  *
  11:../2-filas/main.c ****  * USART: 
  12:../2-filas/main.c ****  *		A9 -> TX
  13:../2-filas/main.c ****  *		A10 RX
  14:../2-filas/main.c ****  *
  15:../2-filas/main.c ****  *
  16:../2-filas/main.c ****  *		PC13 -> Led Onboard
  17:../2-filas/main.c ****  *
  18:../2-filas/main.c ****  * */
  19:../2-filas/main.c **** 
  20:../2-filas/main.c **** //Lib. Auxiliares:
  21:../2-filas/main.c **** #include "stm32f10x.h"
  22:../2-filas/main.c **** #include <math.h>
  23:../2-filas/main.c **** #include "Me.h"
  24:../2-filas/main.c **** // #include <string.h>
  25:../2-filas/main.c **** /* #include "stm32f10x_adc.h" */
  26:../2-filas/main.c **** 
  27:../2-filas/main.c **** // FreeRTOS: 
  28:../2-filas/main.c **** #include "FreeRTOS.h"
  29:../2-filas/main.c **** #include "queue.h"
ARM GAS  /tmp/cc8bNYNB.s 			page 3


  30:../2-filas/main.c **** #include "task.h"
  31:../2-filas/main.c **** 
  32:../2-filas/main.c **** #define __delay_ms( TEMPO ) vTaskDelay(pdMS_TO_TICKS( TEMPO ))
  33:../2-filas/main.c **** #define __delay( TEMPO ) vTaskDelay( TEMPO )
  34:../2-filas/main.c **** 
  35:../2-filas/main.c **** #define pwm_control(VAR) TIM2->CCR1 = (VAR)
  36:../2-filas/main.c **** #define value_ADC1	ADC1->DR
  37:../2-filas/main.c **** 
  38:../2-filas/main.c **** // void ADC1_configure_lib();
  39:../2-filas/main.c **** void configure_PWM_TIM2();
  40:../2-filas/main.c **** void usart_init(void);
  41:../2-filas/main.c **** void USARTSend(char *pucBuffer);
  42:../2-filas/main.c **** 
  43:../2-filas/main.c **** 
  44:../2-filas/main.c **** static QueueHandle_t xQueue; // Declara a variável com tipo
  45:../2-filas/main.c **** 									  // QueueHandle_t
  46:../2-filas/main.c **** 
  47:../2-filas/main.c **** static void task1(void *args __attribute((unused))) {
  48:../2-filas/main.c **** 	GPIOB->CRH &= ~(0xf << 8 ); // ip analogico PA10
  49:../2-filas/main.c **** 
  50:../2-filas/main.c **** 	u16 vpwm = 0x3ff /2; 
  51:../2-filas/main.c **** 	while(1){
  52:../2-filas/main.c **** 			 if((GPIOA->IDR & (1 << 10)))
  53:../2-filas/main.c **** 				 vpwm +=3;
  54:../2-filas/main.c **** 
  55:../2-filas/main.c **** 		if(vpwm >= 0x3ff)
  56:../2-filas/main.c **** 			vpwm = 0;
  57:../2-filas/main.c **** 		
  58:../2-filas/main.c **** 		TIM2->CCR1 = vpwm; 
  59:../2-filas/main.c **** 		xQueueSend(xQueue, &vpwm, 1);
  60:../2-filas/main.c **** 
  61:../2-filas/main.c **** 		__delay_ms(10);
  62:../2-filas/main.c **** 
  63:../2-filas/main.c **** 
  64:../2-filas/main.c **** 	}
  65:../2-filas/main.c **** }
  66:../2-filas/main.c **** 
  67:../2-filas/main.c **** #define con 0xfff
  68:../2-filas/main.c **** static void task2(void *args __attribute ((unused))){
  69:../2-filas/main.c **** 	u16 dd; 
  70:../2-filas/main.c **** 	char info[10] ;
  71:../2-filas/main.c **** 
  72:../2-filas/main.c **** 	while(1){
  73:../2-filas/main.c **** 		if(xQueueReceive(xQueue, &dd, pdMS_TO_TICKS(10))){
  74:../2-filas/main.c **** 			floatToString((float) dd/con *100, info, 4); 
  75:../2-filas/main.c **** 			USARTSend("%)\r\nValor de Duty Cicle= (");
  76:../2-filas/main.c **** 			USARTSend((char * ) &info);
  77:../2-filas/main.c **** 		}
  78:../2-filas/main.c **** 
  79:../2-filas/main.c **** 	}
  80:../2-filas/main.c **** }
  81:../2-filas/main.c **** 
  82:../2-filas/main.c **** static void task3(void *args __attribute ((unused))){
  86              		.loc 1 82 53 view -0
  87              		.cfi_startproc
  88              		@ Volatile: function does not return.
  89              		@ args = 0, pretend = 0, frame = 0
ARM GAS  /tmp/cc8bNYNB.s 			page 4


  90              		@ frame_needed = 0, uses_anonymous_args = 0
  83:../2-filas/main.c **** 
  84:../2-filas/main.c **** 	GPIOC->CRH |=(0x3<<20);
  91              		.loc 1 84 2 view .LVU1
  92              	@ ../2-filas/main.c:84: 	GPIOC->CRH |=(0x3<<20);
  93              		.loc 1 84 13 is_stmt 0 view .LVU2
  94 0000 064C     		ldr	r4, .L3	@ tmp118,
  95              	@ ../2-filas/main.c:82: static void task3(void *args __attribute ((unused))){
  82:../2-filas/main.c **** 
  96              		.loc 1 82 53 view .LVU3
  97 0002 08B5     		push	{r3, lr}	@
  98              	.LCFI0:
  99              		.cfi_def_cfa_offset 8
 100              		.cfi_offset 3, -8
 101              		.cfi_offset 14, -4
 102              	@ ../2-filas/main.c:84: 	GPIOC->CRH |=(0x3<<20);
 103              		.loc 1 84 13 view .LVU4
 104 0004 6368     		ldr	r3, [r4, #4]	@ _1, MEM[(struct GPIO_TypeDef *)1073811456B].CRH
 105 0006 43F44013 		orr	r3, r3, #3145728	@ _2, _1,
 106 000a 6360     		str	r3, [r4, #4]	@ _2, MEM[(struct GPIO_TypeDef *)1073811456B].CRH
 107              	.LVL1:
 108              	.L2:
  85:../2-filas/main.c **** 	while(1){
 109              		.loc 1 85 2 is_stmt 1 discriminator 1 view .LVU5
  86:../2-filas/main.c **** 		GPIOC->ODR	^= (1<<13);
 110              		.loc 1 86 3 discriminator 1 view .LVU6
 111              	@ ../2-filas/main.c:86: 		GPIOC->ODR	^= (1<<13);
 112              		.loc 1 86 14 is_stmt 0 discriminator 1 view .LVU7
 113 000c E368     		ldr	r3, [r4, #12]	@ _3, MEM[(struct GPIO_TypeDef *)1073811456B].ODR
 114              	@ ../2-filas/main.c:87: 		__delay(50);
  87:../2-filas/main.c **** 		__delay(50);
 115              		.loc 1 87 3 discriminator 1 view .LVU8
 116 000e 3220     		movs	r0, #50	@,
 117              	@ ../2-filas/main.c:86: 		GPIOC->ODR	^= (1<<13);
  86:../2-filas/main.c **** 		GPIOC->ODR	^= (1<<13);
 118              		.loc 1 86 14 discriminator 1 view .LVU9
 119 0010 83F40053 		eor	r3, r3, #8192	@ _4, _3,
 120 0014 E360     		str	r3, [r4, #12]	@ _4, MEM[(struct GPIO_TypeDef *)1073811456B].ODR
 121              		.loc 1 87 3 is_stmt 1 discriminator 1 view .LVU10
 122 0016 FFF7FEFF 		bl	vTaskDelay		@
 123              	.LVL2:
  85:../2-filas/main.c **** 	while(1){
 124              		.loc 1 85 7 discriminator 1 view .LVU11
 125 001a F7E7     		b	.L2		@
 126              	.L4:
 127              		.align	2
 128              	.L3:
 129 001c 00100140 		.word	1073811456
 130              		.cfi_endproc
 131              	.LFE44:
 132              		.size	task3, .-task3
 133              		.align	1
 134              		.syntax unified
 135              		.thumb
 136              		.thumb_func
 137              		.type	task1, %function
 138              	task1:
ARM GAS  /tmp/cc8bNYNB.s 			page 5


 139              	.LVL3:
 140              	.LFB42:
  47:../2-filas/main.c **** 	GPIOB->CRH &= ~(0xf << 8 ); // ip analogico PA10
 141              		.loc 1 47 53 view -0
 142              		.cfi_startproc
 143              		@ Volatile: function does not return.
 144              		@ args = 0, pretend = 0, frame = 8
 145              		@ frame_needed = 0, uses_anonymous_args = 0
  48:../2-filas/main.c **** 
 146              		.loc 1 48 2 view .LVU13
 147              	@ ../2-filas/main.c:47: static void task1(void *args __attribute((unused))) {
  47:../2-filas/main.c **** 	GPIOB->CRH &= ~(0xf << 8 ); // ip analogico PA10
 148              		.loc 1 47 53 is_stmt 0 view .LVU14
 149 0020 07B5     		push	{r0, r1, r2, lr}	@
 150              	.LCFI1:
 151              		.cfi_def_cfa_offset 16
 152              		.cfi_offset 14, -4
 153              	@ ../2-filas/main.c:48: 	GPIOB->CRH &= ~(0xf << 8 ); // ip analogico PA10
  48:../2-filas/main.c **** 
 154              		.loc 1 48 13 view .LVU15
 155 0022 164A     		ldr	r2, .L12	@ tmp123,
 156              	@ ../2-filas/main.c:56: 			vpwm = 0;
  56:../2-filas/main.c **** 		
 157              		.loc 1 56 9 view .LVU16
 158 0024 0026     		movs	r6, #0	@ tmp143,
 159              	@ ../2-filas/main.c:48: 	GPIOB->CRH &= ~(0xf << 8 ); // ip analogico PA10
  48:../2-filas/main.c **** 
 160              		.loc 1 48 13 view .LVU17
 161 0026 5368     		ldr	r3, [r2, #4]	@ _1, MEM[(struct GPIO_TypeDef *)1073810432B].CRH
 162              	@ ../2-filas/main.c:52: 			 if((GPIOA->IDR & (1 << 10)))
  52:../2-filas/main.c **** 				 vpwm +=3;
 163              		.loc 1 52 14 view .LVU18
 164 0028 154D     		ldr	r5, .L12+4	@ tmp127,
 165              	@ ../2-filas/main.c:48: 	GPIOB->CRH &= ~(0xf << 8 ); // ip analogico PA10
  48:../2-filas/main.c **** 
 166              		.loc 1 48 13 view .LVU19
 167 002a 23F47063 		bic	r3, r3, #3840	@ _2, _1,
 168 002e 5360     		str	r3, [r2, #4]	@ _2, MEM[(struct GPIO_TypeDef *)1073810432B].CRH
  50:../2-filas/main.c **** 	while(1){
 169              		.loc 1 50 2 is_stmt 1 view .LVU20
 170              	@ ../2-filas/main.c:50: 	u16 vpwm = 0x3ff /2; 
  50:../2-filas/main.c **** 	while(1){
 171              		.loc 1 50 6 is_stmt 0 view .LVU21
 172 0030 40F2FF13 		movw	r3, #511	@ tmp126,
 173              	@ ../2-filas/main.c:59: 		xQueueSend(xQueue, &vpwm, 1);
  59:../2-filas/main.c **** 
 174              		.loc 1 59 3 view .LVU22
 175 0034 134C     		ldr	r4, .L12+8	@ tmp141,
 176              	@ ../2-filas/main.c:50: 	u16 vpwm = 0x3ff /2; 
  50:../2-filas/main.c **** 	while(1){
 177              		.loc 1 50 6 view .LVU23
 178 0036 ADF80630 		strh	r3, [sp, #6]	@ movhi	@ tmp126, vpwm
 179              	.LVL4:
 180              	.L8:
  51:../2-filas/main.c **** 			 if((GPIOA->IDR & (1 << 10)))
 181              		.loc 1 51 2 is_stmt 1 view .LVU24
  52:../2-filas/main.c **** 				 vpwm +=3;
ARM GAS  /tmp/cc8bNYNB.s 			page 6


 182              		.loc 1 52 5 view .LVU25
 183              	@ ../2-filas/main.c:52: 			 if((GPIOA->IDR & (1 << 10)))
  52:../2-filas/main.c **** 				 vpwm +=3;
 184              		.loc 1 52 14 is_stmt 0 view .LVU26
 185 003a AB68     		ldr	r3, [r5, #8]	@ _3, MEM[(struct GPIO_TypeDef *)1073809408B].IDR
 186              	@ ../2-filas/main.c:59: 		xQueueSend(xQueue, &vpwm, 1);
  59:../2-filas/main.c **** 
 187              		.loc 1 59 3 view .LVU27
 188 003c 2068     		ldr	r0, [r4]	@, xQueue
 189              	@ ../2-filas/main.c:52: 			 if((GPIOA->IDR & (1 << 10)))
  52:../2-filas/main.c **** 				 vpwm +=3;
 190              		.loc 1 52 7 view .LVU28
 191 003e 5B05     		lsls	r3, r3, #21	@, _3,
  53:../2-filas/main.c **** 
 192              		.loc 1 53 6 is_stmt 1 view .LVU29
 193              	@ ../2-filas/main.c:53: 				 vpwm +=3;
  53:../2-filas/main.c **** 
 194              		.loc 1 53 11 is_stmt 0 view .LVU30
 195 0040 48BF     		it	mi
 196 0042 BDF80630 		ldrhmi	r3, [sp, #6]	@, vpwm
 197              	@ ../2-filas/main.c:59: 		xQueueSend(xQueue, &vpwm, 1);
  59:../2-filas/main.c **** 
 198              		.loc 1 59 3 view .LVU31
 199 0046 0DF10601 		add	r1, sp, #6	@,,
 200              	@ ../2-filas/main.c:53: 				 vpwm +=3;
  53:../2-filas/main.c **** 
 201              		.loc 1 53 11 view .LVU32
 202 004a 44BF     		itt	mi
 203 004c 0333     		addmi	r3, r3, #3	@ tmp130, vpwm,
 204 004e ADF80630 		strhmi	r3, [sp, #6]	@ movhi	@ tmp130, vpwm
  55:../2-filas/main.c **** 			vpwm = 0;
 205              		.loc 1 55 3 is_stmt 1 view .LVU33
 206              	@ ../2-filas/main.c:55: 		if(vpwm >= 0x3ff)
  55:../2-filas/main.c **** 			vpwm = 0;
 207              		.loc 1 55 5 is_stmt 0 view .LVU34
 208 0052 40F2FE33 		movw	r3, #1022	@ tmp135,
 209 0056 BDF80620 		ldrh	r2, [sp, #6]	@ vpwm, vpwm
 210 005a 9A42     		cmp	r2, r3	@ vpwm, tmp135
  56:../2-filas/main.c **** 		
 211              		.loc 1 56 4 is_stmt 1 view .LVU35
 212              	@ ../2-filas/main.c:58: 		TIM2->CCR1 = vpwm; 
  58:../2-filas/main.c **** 		xQueueSend(xQueue, &vpwm, 1);
 213              		.loc 1 58 14 is_stmt 0 view .LVU36
 214 005c 4FF08043 		mov	r3, #1073741824	@ tmp138,
 215              	@ ../2-filas/main.c:56: 			vpwm = 0;
  56:../2-filas/main.c **** 		
 216              		.loc 1 56 9 view .LVU37
 217 0060 88BF     		it	hi
 218 0062 ADF80660 		strhhi	r6, [sp, #6]	@ movhi	@ tmp143, vpwm
  58:../2-filas/main.c **** 		xQueueSend(xQueue, &vpwm, 1);
 219              		.loc 1 58 3 is_stmt 1 view .LVU38
 220              	@ ../2-filas/main.c:58: 		TIM2->CCR1 = vpwm; 
  58:../2-filas/main.c **** 		xQueueSend(xQueue, &vpwm, 1);
 221              		.loc 1 58 14 is_stmt 0 view .LVU39
 222 0066 BDF80620 		ldrh	r2, [sp, #6]	@ vpwm.14_8, vpwm
 223 006a 9A86     		strh	r2, [r3, #52]	@ movhi	@ vpwm.14_8, MEM[(struct TIM_TypeDef *)1073741824B].CCR1
  59:../2-filas/main.c **** 
ARM GAS  /tmp/cc8bNYNB.s 			page 7


 224              		.loc 1 59 3 is_stmt 1 view .LVU40
 225 006c 0023     		movs	r3, #0	@,
 226 006e 0122     		movs	r2, #1	@,
 227 0070 FFF7FEFF 		bl	xQueueGenericSend		@
 228              	.LVL5:
  61:../2-filas/main.c **** 
 229              		.loc 1 61 3 view .LVU41
 230 0074 0A20     		movs	r0, #10	@,
 231 0076 FFF7FEFF 		bl	vTaskDelay		@
 232              	.LVL6:
  51:../2-filas/main.c **** 			 if((GPIOA->IDR & (1 << 10)))
 233              		.loc 1 51 7 view .LVU42
 234              	@ ../2-filas/main.c:52: 			 if((GPIOA->IDR & (1 << 10)))
  52:../2-filas/main.c **** 				 vpwm +=3;
 235              		.loc 1 52 7 is_stmt 0 view .LVU43
 236 007a DEE7     		b	.L8		@
 237              	.L13:
 238              		.align	2
 239              	.L12:
 240 007c 000C0140 		.word	1073810432
 241 0080 00080140 		.word	1073809408
 242 0084 00000000 		.word	.LANCHOR0
 243              		.cfi_endproc
 244              	.LFE42:
 245              		.size	task1, .-task1
 246              		.align	1
 247              		.global	ADC1_configure
 248              		.syntax unified
 249              		.thumb
 250              		.thumb_func
 251              		.type	ADC1_configure, %function
 252              	ADC1_configure:
 253              	.LFB29:
 254              		.file 2 "../2-filas/Me.h"
   1:../2-filas/Me.h **** #include <math.h>
   2:../2-filas/Me.h **** #define __IO volatile
   3:../2-filas/Me.h **** 
   4:../2-filas/Me.h **** void SystemInit (void);
   5:../2-filas/Me.h **** void nvic_IntDisble(u8 IRQn);
   6:../2-filas/Me.h **** void nvic_intEnable(u8 IRQn);
   7:../2-filas/Me.h **** void set_system_clock_to_25Mhz (void);
   8:../2-filas/Me.h **** void set_system_clock_to_72Mhz(void);
   9:../2-filas/Me.h **** void Delay ( __IO u32 T );
  10:../2-filas/Me.h **** void enable_TIM3_delay (void);
  11:../2-filas/Me.h **** void ADC1_configure();
  12:../2-filas/Me.h **** 
  13:../2-filas/Me.h **** void ADC1_configure(){
 255              		.loc 2 13 22 is_stmt 1 view -0
 256              		.cfi_startproc
 257              		@ args = 0, pretend = 0, frame = 0
 258              		@ frame_needed = 0, uses_anonymous_args = 0
 259              		@ link register save eliminated.
  14:../2-filas/Me.h **** 	RCC->APB2ENR |= 1UL<<2 ; // Hab. GPIOA
 260              		.loc 2 14 2 view .LVU45
 261              	@ ../2-filas/Me.h:14: 	RCC->APB2ENR |= 1UL<<2 ; // Hab. GPIOA
 262              		.loc 2 14 15 is_stmt 0 view .LVU46
 263 0088 1F4B     		ldr	r3, .L19	@ tmp141,
ARM GAS  /tmp/cc8bNYNB.s 			page 8


 264              	@ ../2-filas/Me.h:15: 	GPIOA->CRL &= ~(0x0F << 4); // Define A1 Input Analogic
  15:../2-filas/Me.h **** 	GPIOA->CRL &= ~(0x0F << 4); // Define A1 Input Analogic
 265              		.loc 2 15 13 view .LVU47
 266 008a 2049     		ldr	r1, .L19+4	@ tmp143,
 267              	@ ../2-filas/Me.h:14: 	RCC->APB2ENR |= 1UL<<2 ; // Hab. GPIOA
  14:../2-filas/Me.h **** 	RCC->APB2ENR |= 1UL<<2 ; // Hab. GPIOA
 268              		.loc 2 14 15 view .LVU48
 269 008c 9A69     		ldr	r2, [r3, #24]	@ _1, MEM[(struct RCC_TypeDef *)1073876992B].APB2ENR
 270 008e 42F00402 		orr	r2, r2, #4	@ _2, _1,
 271 0092 9A61     		str	r2, [r3, #24]	@ _2, MEM[(struct RCC_TypeDef *)1073876992B].APB2ENR
 272              		.loc 2 15 2 is_stmt 1 view .LVU49
 273              	@ ../2-filas/Me.h:15: 	GPIOA->CRL &= ~(0x0F << 4); // Define A1 Input Analogic
 274              		.loc 2 15 13 is_stmt 0 view .LVU50
 275 0094 0A68     		ldr	r2, [r1]	@ _3, MEM[(struct GPIO_TypeDef *)1073809408B].CRL
 276 0096 22F0F002 		bic	r2, r2, #240	@ _4, _3,
 277 009a 0A60     		str	r2, [r1]	@ _4, MEM[(struct GPIO_TypeDef *)1073809408B].CRL
  16:../2-filas/Me.h **** 	
  17:../2-filas/Me.h **** 	RCC->APB2ENR |= (1<<9); // Bit 9 ADC1EN: ADC 1 
 278              		.loc 2 17 2 is_stmt 1 view .LVU51
 279              	@ ../2-filas/Me.h:17: 	RCC->APB2ENR |= (1<<9); // Bit 9 ADC1EN: ADC 1 
 280              		.loc 2 17 15 is_stmt 0 view .LVU52
 281 009c 9A69     		ldr	r2, [r3, #24]	@ _5, MEM[(struct RCC_TypeDef *)1073876992B].APB2ENR
 282 009e 42F40072 		orr	r2, r2, #512	@ _6, _5,
 283 00a2 9A61     		str	r2, [r3, #24]	@ _6, MEM[(struct RCC_TypeDef *)1073876992B].APB2ENR
  18:../2-filas/Me.h **** 									// interface clock enable
  19:../2-filas/Me.h **** 
  20:../2-filas/Me.h **** 	RCC->CFGR	|= (0b10 << 14); // Bits 15:14 ADCPRE:
 284              		.loc 2 20 2 is_stmt 1 view .LVU53
 285              	@ ../2-filas/Me.h:20: 	RCC->CFGR	|= (0b10 << 14); // Bits 15:14 ADCPRE:
 286              		.loc 2 20 12 is_stmt 0 view .LVU54
 287 00a4 5A68     		ldr	r2, [r3, #4]	@ _7, MEM[(struct RCC_TypeDef *)1073876992B].CFGR
 288 00a6 42F40042 		orr	r2, r2, #32768	@ _8, _7,
 289 00aa 5A60     		str	r2, [r3, #4]	@ _8, MEM[(struct RCC_TypeDef *)1073876992B].CFGR
  21:../2-filas/Me.h **** 										  // ADC prescaler 10:
  22:../2-filas/Me.h **** 										  //    PCLK2 divided by 6
  23:../2-filas/Me.h **** 	// Enable End of Conversion (EOC) interrupt
  24:../2-filas/Me.h **** 	ADC1->CR1 |= (1 << 5);
 290              		.loc 2 24 2 is_stmt 1 view .LVU55
 291              	@ ../2-filas/Me.h:24: 	ADC1->CR1 |= (1 << 5);
 292              		.loc 2 24 12 is_stmt 0 view .LVU56
 293 00ac A3F56C43 		sub	r3, r3, #60416	@ tmp149, tmp149,
 294 00b0 5A68     		ldr	r2, [r3, #4]	@ _9, MEM[(struct ADC_TypeDef *)1073816576B].CR1
 295 00b2 42F02002 		orr	r2, r2, #32	@ _10, _9,
 296 00b6 5A60     		str	r2, [r3, #4]	@ _10, MEM[(struct ADC_TypeDef *)1073816576B].CR1
  25:../2-filas/Me.h **** 
  26:../2-filas/Me.h **** 	// One conversion
  27:../2-filas/Me.h **** 	ADC1->SQR1 = 0x00000000;
 297              		.loc 2 27 2 is_stmt 1 view .LVU57
 298              	@ ../2-filas/Me.h:27: 	ADC1->SQR1 = 0x00000000;
 299              		.loc 2 27 13 is_stmt 0 view .LVU58
 300 00b8 0022     		movs	r2, #0	@ tmp152,
 301 00ba DA62     		str	r2, [r3, #44]	@ tmp152, MEM[(struct ADC_TypeDef *)1073816576B].SQR1
  28:../2-filas/Me.h **** 
  29:../2-filas/Me.h **** 	// Choose the analog channel to read
  30:../2-filas/Me.h **** 	// Since we want channel 10 to be the first
  31:../2-filas/Me.h **** 	//   conversion we write 10 to SQ1 bits (3:0)
  32:../2-filas/Me.h **** 	//   which is in SQR3 register. For multiple conversions
ARM GAS  /tmp/cc8bNYNB.s 			page 9


  33:../2-filas/Me.h **** 	//   keep writing the channel numbers to SQx bits.
  34:../2-filas/Me.h **** 	 ADC1->SQR3 = (10 << 0);
 302              		.loc 2 34 3 is_stmt 1 view .LVU59
 303              	@ ../2-filas/Me.h:34: 	 ADC1->SQR3 = (10 << 0);
 304              		.loc 2 34 14 is_stmt 0 view .LVU60
 305 00bc 0A22     		movs	r2, #10	@ tmp154,
 306 00be 5A63     		str	r2, [r3, #52]	@ tmp154, MEM[(struct ADC_TypeDef *)1073816576B].SQR3
  35:../2-filas/Me.h **** 
  36:../2-filas/Me.h **** 	// Set up software trigger to start conversion
  37:../2-filas/Me.h **** 	ADC1->CR2 |= (7 << 17);  // Select SWSTART as trigger
 307              		.loc 2 37 2 is_stmt 1 view .LVU61
 308              	@ ../2-filas/Me.h:37: 	ADC1->CR2 |= (7 << 17);  // Select SWSTART as trigger
 309              		.loc 2 37 12 is_stmt 0 view .LVU62
 310 00c0 9A68     		ldr	r2, [r3, #8]	@ _11, MEM[(struct ADC_TypeDef *)1073816576B].CR2
 311 00c2 42F46022 		orr	r2, r2, #917504	@ _12, _11,
 312 00c6 9A60     		str	r2, [r3, #8]	@ _12, MEM[(struct ADC_TypeDef *)1073816576B].CR2
  38:../2-filas/Me.h **** 	ADC1->CR2 |= (1 << 20);  // Enable external trigger
 313              		.loc 2 38 2 is_stmt 1 view .LVU63
 314              	@ ../2-filas/Me.h:38: 	ADC1->CR2 |= (1 << 20);  // Enable external trigger
 315              		.loc 2 38 12 is_stmt 0 view .LVU64
 316 00c8 9A68     		ldr	r2, [r3, #8]	@ _13, MEM[(struct ADC_TypeDef *)1073816576B].CR2
 317 00ca 42F48012 		orr	r2, r2, #1048576	@ _14, _13,
 318 00ce 9A60     		str	r2, [r3, #8]	@ _14, MEM[(struct ADC_TypeDef *)1073816576B].CR2
  39:../2-filas/Me.h **** 
  40:../2-filas/Me.h **** 	// Enable continuous conversion
  41:../2-filas/Me.h **** 	ADC1->CR2 |= (1 << 1);
 319              		.loc 2 41 2 is_stmt 1 view .LVU65
 320              	@ ../2-filas/Me.h:41: 	ADC1->CR2 |= (1 << 1);
 321              		.loc 2 41 12 is_stmt 0 view .LVU66
 322 00d0 9A68     		ldr	r2, [r3, #8]	@ _15, MEM[(struct ADC_TypeDef *)1073816576B].CR2
 323 00d2 42F00202 		orr	r2, r2, #2	@ _16, _15,
 324 00d6 9A60     		str	r2, [r3, #8]	@ _16, MEM[(struct ADC_TypeDef *)1073816576B].CR2
  42:../2-filas/Me.h **** 
  43:../2-filas/Me.h **** 	// enable_interrupt(ADC1_2_IRQn);
  44:../2-filas/Me.h **** 
  45:../2-filas/Me.h **** 	// Enable A/D conversion
  46:../2-filas/Me.h **** 	ADC1->CR2 |= (1 << 0);
 325              		.loc 2 46 2 is_stmt 1 view .LVU67
 326              	@ ../2-filas/Me.h:46: 	ADC1->CR2 |= (1 << 0);
 327              		.loc 2 46 12 is_stmt 0 view .LVU68
 328 00d8 9A68     		ldr	r2, [r3, #8]	@ _17, MEM[(struct ADC_TypeDef *)1073816576B].CR2
 329 00da 42F00102 		orr	r2, r2, #1	@ _18, _17,
 330 00de 9A60     		str	r2, [r3, #8]	@ _18, MEM[(struct ADC_TypeDef *)1073816576B].CR2
  47:../2-filas/Me.h **** 
  48:../2-filas/Me.h **** 	// Calibration reset and start
  49:../2-filas/Me.h **** 	//    Optional for better accuracy.
  50:../2-filas/Me.h **** 	ADC1->CR2 |= (1 << 3);
 331              		.loc 2 50 2 is_stmt 1 view .LVU69
 332              	@ ../2-filas/Me.h:50: 	ADC1->CR2 |= (1 << 3);
 333              		.loc 2 50 12 is_stmt 0 view .LVU70
 334 00e0 9A68     		ldr	r2, [r3, #8]	@ _19, MEM[(struct ADC_TypeDef *)1073816576B].CR2
 335 00e2 42F00802 		orr	r2, r2, #8	@ _20, _19,
 336 00e6 9A60     		str	r2, [r3, #8]	@ _20, MEM[(struct ADC_TypeDef *)1073816576B].CR2
  51:../2-filas/Me.h **** 	while((ADC1->CR2 & (1 << 3)));
 337              		.loc 2 51 2 is_stmt 1 view .LVU71
 338              	.L15:
 339              		.loc 2 51 31 discriminator 1 view .LVU72
ARM GAS  /tmp/cc8bNYNB.s 			page 10


 340              		.loc 2 51 7 discriminator 1 view .LVU73
 341              	@ ../2-filas/Me.h:51: 	while((ADC1->CR2 & (1 << 3)));
 342              		.loc 2 51 13 is_stmt 0 discriminator 1 view .LVU74
 343 00e8 9A68     		ldr	r2, [r3, #8]	@ _21, MEM[(struct ADC_TypeDef *)1073816576B].CR2
 344              	@ ../2-filas/Me.h:51: 	while((ADC1->CR2 & (1 << 3)));
 345              		.loc 2 51 7 discriminator 1 view .LVU75
 346 00ea 1107     		lsls	r1, r2, #28	@, _21,
 347 00ec FCD4     		bmi	.L15		@,
  52:../2-filas/Me.h **** 	ADC1->CR2 |= (1 << 2);
 348              		.loc 2 52 2 is_stmt 1 view .LVU76
 349              	@ ../2-filas/Me.h:52: 	ADC1->CR2 |= (1 << 2);
 350              		.loc 2 52 12 is_stmt 0 view .LVU77
 351 00ee 9A68     		ldr	r2, [r3, #8]	@ _23, MEM[(struct ADC_TypeDef *)1073816576B].CR2
 352 00f0 42F00402 		orr	r2, r2, #4	@ _24, _23,
 353 00f4 9A60     		str	r2, [r3, #8]	@ _24, MEM[(struct ADC_TypeDef *)1073816576B].CR2
  53:../2-filas/Me.h **** 	while((ADC1->CR2 & (1 << 2)));
 354              		.loc 2 53 2 is_stmt 1 view .LVU78
 355              	@ ../2-filas/Me.h:53: 	while((ADC1->CR2 & (1 << 2)));
 356              		.loc 2 53 13 is_stmt 0 view .LVU79
 357 00f6 064B     		ldr	r3, .L19+8	@ tmp169,
 358              	.L16:
 359              		.loc 2 53 31 is_stmt 1 discriminator 1 view .LVU80
 360              		.loc 2 53 7 discriminator 1 view .LVU81
 361              	@ ../2-filas/Me.h:53: 	while((ADC1->CR2 & (1 << 2)));
 362              		.loc 2 53 13 is_stmt 0 discriminator 1 view .LVU82
 363 00f8 9A68     		ldr	r2, [r3, #8]	@ _25, MEM[(struct ADC_TypeDef *)1073816576B].CR2
 364              	@ ../2-filas/Me.h:53: 	while((ADC1->CR2 & (1 << 2)));
 365              		.loc 2 53 7 discriminator 1 view .LVU83
 366 00fa 5207     		lsls	r2, r2, #29	@, _25,
 367 00fc FCD4     		bmi	.L16		@,
  54:../2-filas/Me.h **** 
  55:../2-filas/Me.h **** 	// Start conversion with software trigger
  56:../2-filas/Me.h **** 	ADC1->CR2 |= (1<<22);
 368              		.loc 2 56 2 is_stmt 1 view .LVU84
 369              	@ ../2-filas/Me.h:56: 	ADC1->CR2 |= (1<<22);
 370              		.loc 2 56 12 is_stmt 0 view .LVU85
 371 00fe 9A68     		ldr	r2, [r3, #8]	@ _27, MEM[(struct ADC_TypeDef *)1073816576B].CR2
 372 0100 42F48002 		orr	r2, r2, #4194304	@ _28, _27,
 373 0104 9A60     		str	r2, [r3, #8]	@ _28, MEM[(struct ADC_TypeDef *)1073816576B].CR2
 374              	@ ../2-filas/Me.h:59: }
  57:../2-filas/Me.h **** 	//
  58:../2-filas/Me.h **** 	// Leitura  ADC1->DR  -> Data Register
  59:../2-filas/Me.h **** }
 375              		.loc 2 59 1 view .LVU86
 376 0106 7047     		bx	lr	@
 377              	.L20:
 378              		.align	2
 379              	.L19:
 380 0108 00100240 		.word	1073876992
 381 010c 00080140 		.word	1073809408
 382 0110 00240140 		.word	1073816576
 383              		.cfi_endproc
 384              	.LFE29:
 385              		.size	ADC1_configure, .-ADC1_configure
 386              		.align	1
 387              		.global	set_system_clock_to_72Mhz
 388              		.syntax unified
ARM GAS  /tmp/cc8bNYNB.s 			page 11


 389              		.thumb
 390              		.thumb_func
 391              		.type	set_system_clock_to_72Mhz, %function
 392              	set_system_clock_to_72Mhz:
 393              	.LFB30:
  60:../2-filas/Me.h **** 
  61:../2-filas/Me.h **** void set_system_clock_to_72Mhz(void)
  62:../2-filas/Me.h **** {
 394              		.loc 2 62 1 is_stmt 1 view -0
 395              		.cfi_startproc
 396              		@ args = 0, pretend = 0, frame = 0
 397              		@ frame_needed = 0, uses_anonymous_args = 0
 398              		@ link register save eliminated.
  63:../2-filas/Me.h ****    // Necessary wait states for Flash for high speeds
  64:../2-filas/Me.h ****    FLASH->ACR = 0x12;
 399              		.loc 2 64 4 view .LVU88
 400              	@ ../2-filas/Me.h:64:    FLASH->ACR = 0x12;
 401              		.loc 2 64 15 is_stmt 0 view .LVU89
 402 0114 1222     		movs	r2, #18	@ tmp140,
 403 0116 1B4B     		ldr	r3, .L28	@ tmp139,
 404 0118 1A60     		str	r2, [r3]	@ tmp140, MEM[(struct FLASH_TypeDef *)1073881088B].ACR
  65:../2-filas/Me.h ****    // Enable HSE
  66:../2-filas/Me.h ****    RCC->CR |= (1 << 16);
 405              		.loc 2 66 4 is_stmt 1 view .LVU90
 406              	@ ../2-filas/Me.h:66:    RCC->CR |= (1 << 16);
 407              		.loc 2 66 12 is_stmt 0 view .LVU91
 408 011a A3F58053 		sub	r3, r3, #4096	@ tmp141, tmp141,
 409 011e 1A68     		ldr	r2, [r3]	@ _1, MEM[(struct RCC_TypeDef *)1073876992B].CR
 410 0120 42F48032 		orr	r2, r2, #65536	@ _2, _1,
 411 0124 1A60     		str	r2, [r3]	@ _2, MEM[(struct RCC_TypeDef *)1073876992B].CR
  67:../2-filas/Me.h ****    // Wait untill HSE settles down
  68:../2-filas/Me.h ****    while (!(RCC->CR & (1 << 17)));
 412              		.loc 2 68 4 is_stmt 1 view .LVU92
 413              	.L22:
 414              		.loc 2 68 34 discriminator 1 view .LVU93
 415              		.loc 2 68 10 discriminator 1 view .LVU94
 416              	@ ../2-filas/Me.h:68:    while (!(RCC->CR & (1 << 17)));
 417              		.loc 2 68 16 is_stmt 0 discriminator 1 view .LVU95
 418 0126 1A68     		ldr	r2, [r3]	@ _3, MEM[(struct RCC_TypeDef *)1073876992B].CR
 419              	@ ../2-filas/Me.h:68:    while (!(RCC->CR & (1 << 17)));
 420              		.loc 2 68 10 discriminator 1 view .LVU96
 421 0128 9103     		lsls	r1, r2, #14	@, _3,
 422 012a FCD5     		bpl	.L22		@,
  69:../2-filas/Me.h ****    // Set PREDIV2 division factor to 5
  70:../2-filas/Me.h ****    RCC->CFGR2 |= (0b0100 << 4);
 423              		.loc 2 70 4 is_stmt 1 view .LVU97
 424              	@ ../2-filas/Me.h:70:    RCC->CFGR2 |= (0b0100 << 4);
 425              		.loc 2 70 15 is_stmt 0 view .LVU98
 426 012c DA6A     		ldr	r2, [r3, #44]	@ _5, MEM[(struct RCC_TypeDef *)1073876992B].CFGR2
 427 012e 42F04002 		orr	r2, r2, #64	@ _6, _5,
 428 0132 DA62     		str	r2, [r3, #44]	@ _6, MEM[(struct RCC_TypeDef *)1073876992B].CFGR2
  71:../2-filas/Me.h ****    // Set PLL2 multiplication factor to 8
  72:../2-filas/Me.h ****    RCC->CFGR2 |= (0b0110 << 8);
 429              		.loc 2 72 4 is_stmt 1 view .LVU99
 430              	@ ../2-filas/Me.h:72:    RCC->CFGR2 |= (0b0110 << 8);
 431              		.loc 2 72 15 is_stmt 0 view .LVU100
 432 0134 DA6A     		ldr	r2, [r3, #44]	@ _7, MEM[(struct RCC_TypeDef *)1073876992B].CFGR2
ARM GAS  /tmp/cc8bNYNB.s 			page 12


 433 0136 42F4C062 		orr	r2, r2, #1536	@ _8, _7,
 434 013a DA62     		str	r2, [r3, #44]	@ _8, MEM[(struct RCC_TypeDef *)1073876992B].CFGR2
  73:../2-filas/Me.h ****    // Enable PLL2
  74:../2-filas/Me.h ****    RCC->CR |= (1 << 26);
 435              		.loc 2 74 4 is_stmt 1 view .LVU101
 436              	@ ../2-filas/Me.h:74:    RCC->CR |= (1 << 26);
 437              		.loc 2 74 12 is_stmt 0 view .LVU102
 438 013c 1A68     		ldr	r2, [r3]	@ _9, MEM[(struct RCC_TypeDef *)1073876992B].CR
 439 013e 42F08062 		orr	r2, r2, #67108864	@ _10, _9,
 440 0142 1A60     		str	r2, [r3]	@ _10, MEM[(struct RCC_TypeDef *)1073876992B].CR
  75:../2-filas/Me.h ****    // Wait untill PLL2 settles down
  76:../2-filas/Me.h **** 	// while (!(RCC->CR & (1 << 27)));
  77:../2-filas/Me.h ****    // Set PLL2 as PREDIV1 clock source
  78:../2-filas/Me.h ****    RCC->CFGR2 |= (1 << 16);
 441              		.loc 2 78 4 is_stmt 1 view .LVU103
 442              	@ ../2-filas/Me.h:78:    RCC->CFGR2 |= (1 << 16);
 443              		.loc 2 78 15 is_stmt 0 view .LVU104
 444 0144 DA6A     		ldr	r2, [r3, #44]	@ _11, MEM[(struct RCC_TypeDef *)1073876992B].CFGR2
 445 0146 42F48032 		orr	r2, r2, #65536	@ _12, _11,
 446 014a DA62     		str	r2, [r3, #44]	@ _12, MEM[(struct RCC_TypeDef *)1073876992B].CFGR2
  79:../2-filas/Me.h ****    // Set PREDIV1 division factor to 5
  80:../2-filas/Me.h ****    RCC->CFGR2 |= (0b0100 << 0);
 447              		.loc 2 80 4 is_stmt 1 view .LVU105
 448              	@ ../2-filas/Me.h:80:    RCC->CFGR2 |= (0b0100 << 0);
 449              		.loc 2 80 15 is_stmt 0 view .LVU106
 450 014c DA6A     		ldr	r2, [r3, #44]	@ _13, MEM[(struct RCC_TypeDef *)1073876992B].CFGR2
 451 014e 42F00402 		orr	r2, r2, #4	@ _14, _13,
 452 0152 DA62     		str	r2, [r3, #44]	@ _14, MEM[(struct RCC_TypeDef *)1073876992B].CFGR2
  81:../2-filas/Me.h ****    // Select Prediv1 as PLL source
  82:../2-filas/Me.h ****    RCC->CFGR |= (1 << 16);
 453              		.loc 2 82 4 is_stmt 1 view .LVU107
 454              	@ ../2-filas/Me.h:82:    RCC->CFGR |= (1 << 16);
 455              		.loc 2 82 14 is_stmt 0 view .LVU108
 456 0154 5A68     		ldr	r2, [r3, #4]	@ _15, MEM[(struct RCC_TypeDef *)1073876992B].CFGR
 457 0156 42F48032 		orr	r2, r2, #65536	@ _16, _15,
 458 015a 5A60     		str	r2, [r3, #4]	@ _16, MEM[(struct RCC_TypeDef *)1073876992B].CFGR
  83:../2-filas/Me.h ****    // Set PLL1 multiplication factor to 9
  84:../2-filas/Me.h ****    RCC->CFGR |= (0b0111 << 18);
 459              		.loc 2 84 4 is_stmt 1 view .LVU109
 460              	@ ../2-filas/Me.h:84:    RCC->CFGR |= (0b0111 << 18);
 461              		.loc 2 84 14 is_stmt 0 view .LVU110
 462 015c 5A68     		ldr	r2, [r3, #4]	@ _17, MEM[(struct RCC_TypeDef *)1073876992B].CFGR
 463 015e 42F4E012 		orr	r2, r2, #1835008	@ _18, _17,
 464 0162 5A60     		str	r2, [r3, #4]	@ _18, MEM[(struct RCC_TypeDef *)1073876992B].CFGR
  85:../2-filas/Me.h ****    // Set APB1 to 36MHz
  86:../2-filas/Me.h ****    RCC->CFGR |= 1 << 10;
 465              		.loc 2 86 4 is_stmt 1 view .LVU111
 466              	@ ../2-filas/Me.h:86:    RCC->CFGR |= 1 << 10;
 467              		.loc 2 86 14 is_stmt 0 view .LVU112
 468 0164 5A68     		ldr	r2, [r3, #4]	@ _19, MEM[(struct RCC_TypeDef *)1073876992B].CFGR
 469 0166 42F48062 		orr	r2, r2, #1024	@ _20, _19,
 470 016a 5A60     		str	r2, [r3, #4]	@ _20, MEM[(struct RCC_TypeDef *)1073876992B].CFGR
  87:../2-filas/Me.h ****    // Enable PLL
  88:../2-filas/Me.h ****    RCC->CR |= (1 << 24);
 471              		.loc 2 88 4 is_stmt 1 view .LVU113
 472              	@ ../2-filas/Me.h:88:    RCC->CR |= (1 << 24);
 473              		.loc 2 88 12 is_stmt 0 view .LVU114
ARM GAS  /tmp/cc8bNYNB.s 			page 13


 474 016c 1A68     		ldr	r2, [r3]	@ _21, MEM[(struct RCC_TypeDef *)1073876992B].CR
 475 016e 42F08072 		orr	r2, r2, #16777216	@ _22, _21,
 476 0172 1A60     		str	r2, [r3]	@ _22, MEM[(struct RCC_TypeDef *)1073876992B].CR
  89:../2-filas/Me.h ****    // Wait untill PLL settles down
  90:../2-filas/Me.h ****    while (!(RCC->CR & (1 << 25)));
 477              		.loc 2 90 4 is_stmt 1 view .LVU115
 478              	.L23:
 479              		.loc 2 90 34 discriminator 1 view .LVU116
 480              		.loc 2 90 10 discriminator 1 view .LVU117
 481              	@ ../2-filas/Me.h:90:    while (!(RCC->CR & (1 << 25)));
 482              		.loc 2 90 16 is_stmt 0 discriminator 1 view .LVU118
 483 0174 1A68     		ldr	r2, [r3]	@ _23, MEM[(struct RCC_TypeDef *)1073876992B].CR
 484              	@ ../2-filas/Me.h:90:    while (!(RCC->CR & (1 << 25)));
 485              		.loc 2 90 10 discriminator 1 view .LVU119
 486 0176 9201     		lsls	r2, r2, #6	@, _23,
 487 0178 FCD5     		bpl	.L23		@,
  91:../2-filas/Me.h ****    // Finally, choose PLL as the system clock
  92:../2-filas/Me.h ****    RCC->CFGR |= (0b10 << 0);
 488              		.loc 2 92 4 is_stmt 1 view .LVU120
 489              	@ ../2-filas/Me.h:92:    RCC->CFGR |= (0b10 << 0);
 490              		.loc 2 92 14 is_stmt 0 view .LVU121
 491 017a 5A68     		ldr	r2, [r3, #4]	@ _25, MEM[(struct RCC_TypeDef *)1073876992B].CFGR
 492 017c 42F00202 		orr	r2, r2, #2	@ _26, _25,
 493 0180 5A60     		str	r2, [r3, #4]	@ _26, MEM[(struct RCC_TypeDef *)1073876992B].CFGR
 494              	@ ../2-filas/Me.h:93: } 
  93:../2-filas/Me.h **** } 
 495              		.loc 2 93 1 view .LVU122
 496 0182 7047     		bx	lr	@
 497              	.L29:
 498              		.align	2
 499              	.L28:
 500 0184 00200240 		.word	1073881088
 501              		.cfi_endproc
 502              	.LFE30:
 503              		.size	set_system_clock_to_72Mhz, .-set_system_clock_to_72Mhz
 504              		.align	1
 505              		.global	Delay
 506              		.syntax unified
 507              		.thumb
 508              		.thumb_func
 509              		.type	Delay, %function
 510              	Delay:
 511              	.LVL7:
 512              	.LFB31:
  94:../2-filas/Me.h **** 
  95:../2-filas/Me.h **** void Delay ( __IO u32 T ) { // T=1 ;  868µs -> T=1 ~ 526µs
 513              		.loc 2 95 27 is_stmt 1 view -0
 514              		.cfi_startproc
 515              		@ args = 0, pretend = 0, frame = 8
 516              		@ frame_needed = 0, uses_anonymous_args = 0
 517              		@ link register save eliminated.
  96:../2-filas/Me.h ****   for ( T ; T > 0 ; T-- ){
 518              		.loc 2 96 3 view .LVU124
 519              	@ ../2-filas/Me.h:95: void Delay ( __IO u32 T ) { // T=1 ;  868µs -> T=1 ~ 526µs
  95:../2-filas/Me.h ****   for ( T ; T > 0 ; T-- ){
 520              		.loc 2 95 27 is_stmt 0 view .LVU125
 521 0188 82B0     		sub	sp, sp, #8	@,,
ARM GAS  /tmp/cc8bNYNB.s 			page 14


 522              	.LCFI2:
 523              		.cfi_def_cfa_offset 8
 524              	@ ../2-filas/Me.h:95: void Delay ( __IO u32 T ) { // T=1 ;  868µs -> T=1 ~ 526µs
  95:../2-filas/Me.h ****   for ( T ; T > 0 ; T-- ){
 525              		.loc 2 95 27 view .LVU126
 526 018a 0190     		str	r0, [sp, #4]	@ T, T
 527              	@ ../2-filas/Me.h:96:   for ( T ; T > 0 ; T-- ){
 528              		.loc 2 96 3 view .LVU127
 529 018c 019B     		ldr	r3, [sp, #4]	@ vol.0_9, T
 530              	@ ../2-filas/Me.h:97:    TIM3->EGR |= ( 1 << 0 );
  97:../2-filas/Me.h ****    TIM3->EGR |= ( 1 << 0 );
 531              		.loc 2 97 14 view .LVU128
 532 018e 094A     		ldr	r2, .L35	@ tmp132,
 533              	.L31:
  96:../2-filas/Me.h ****   for ( T ; T > 0 ; T-- ){
 534              		.loc 2 96 13 is_stmt 1 discriminator 1 view .LVU129
 535              	@ ../2-filas/Me.h:96:   for ( T ; T > 0 ; T-- ){
  96:../2-filas/Me.h ****   for ( T ; T > 0 ; T-- ){
 536              		.loc 2 96 15 is_stmt 0 discriminator 1 view .LVU130
 537 0190 019B     		ldr	r3, [sp, #4]	@ T.2_6, T
 538              	@ ../2-filas/Me.h:96:   for ( T ; T > 0 ; T-- ){
  96:../2-filas/Me.h ****   for ( T ; T > 0 ; T-- ){
 539              		.loc 2 96 3 discriminator 1 view .LVU131
 540 0192 0BB9     		cbnz	r3, .L33	@ T.2_6,
 541              	@ ../2-filas/Me.h:100: }
  98:../2-filas/Me.h ****    while ( TIM3->CNT < 5 ) ; /* 5 * 10-- Configurar para IR */
  99:../2-filas/Me.h ****   }
 100:../2-filas/Me.h **** }
 542              		.loc 2 100 1 view .LVU132
 543 0194 02B0     		add	sp, sp, #8	@,,
 544              	.LCFI3:
 545              		.cfi_remember_state
 546              		.cfi_def_cfa_offset 0
 547              		@ sp needed	@
 548 0196 7047     		bx	lr	@
 549              	.L33:
 550              	.LCFI4:
 551              		.cfi_restore_state
  97:../2-filas/Me.h ****    TIM3->EGR |= ( 1 << 0 );
 552              		.loc 2 97 4 is_stmt 1 view .LVU133
 553              	@ ../2-filas/Me.h:97:    TIM3->EGR |= ( 1 << 0 );
  97:../2-filas/Me.h ****    TIM3->EGR |= ( 1 << 0 );
 554              		.loc 2 97 14 is_stmt 0 view .LVU134
 555 0198 938A     		ldrh	r3, [r2, #20]	@, MEM[(struct TIM_TypeDef *)1073742848B].EGR
 556 019a 9BB2     		uxth	r3, r3	@ _1, MEM[(struct TIM_TypeDef *)1073742848B].EGR
 557 019c 43F00103 		orr	r3, r3, #1	@ _2, _1,
 558 01a0 9382     		strh	r3, [r2, #20]	@ movhi	@ _2, MEM[(struct TIM_TypeDef *)1073742848B].EGR
  98:../2-filas/Me.h ****    while ( TIM3->CNT < 5 ) ; /* 5 * 10-- Configurar para IR */
 559              		.loc 2 98 4 is_stmt 1 view .LVU135
 560              	.L32:
  98:../2-filas/Me.h ****    while ( TIM3->CNT < 5 ) ; /* 5 * 10-- Configurar para IR */
 561              		.loc 2 98 28 discriminator 1 view .LVU136
  98:../2-filas/Me.h ****    while ( TIM3->CNT < 5 ) ; /* 5 * 10-- Configurar para IR */
 562              		.loc 2 98 10 discriminator 1 view .LVU137
 563              	@ ../2-filas/Me.h:98:    while ( TIM3->CNT < 5 ) ; /* 5 * 10-- Configurar para IR */
  98:../2-filas/Me.h ****    while ( TIM3->CNT < 5 ) ; /* 5 * 10-- Configurar para IR */
 564              		.loc 2 98 16 is_stmt 0 discriminator 1 view .LVU138
ARM GAS  /tmp/cc8bNYNB.s 			page 15


 565 01a2 938C     		ldrh	r3, [r2, #36]	@, MEM[(struct TIM_TypeDef *)1073742848B].CNT
 566 01a4 9BB2     		uxth	r3, r3	@ _3, MEM[(struct TIM_TypeDef *)1073742848B].CNT
 567              	@ ../2-filas/Me.h:98:    while ( TIM3->CNT < 5 ) ; /* 5 * 10-- Configurar para IR */
  98:../2-filas/Me.h ****    while ( TIM3->CNT < 5 ) ; /* 5 * 10-- Configurar para IR */
 568              		.loc 2 98 10 discriminator 1 view .LVU139
 569 01a6 042B     		cmp	r3, #4	@ _3,
 570 01a8 FBD9     		bls	.L32		@,
  96:../2-filas/Me.h ****    TIM3->EGR |= ( 1 << 0 );
 571              		.loc 2 96 21 is_stmt 1 discriminator 2 view .LVU140
 572              	@ ../2-filas/Me.h:96:   for ( T ; T > 0 ; T-- ){
  96:../2-filas/Me.h ****    TIM3->EGR |= ( 1 << 0 );
 573              		.loc 2 96 22 is_stmt 0 discriminator 2 view .LVU141
 574 01aa 019B     		ldr	r3, [sp, #4]	@ T.1_4, T
 575 01ac 013B     		subs	r3, r3, #1	@ _5, T.1_4,
 576 01ae 0193     		str	r3, [sp, #4]	@ _5, T
 577 01b0 EEE7     		b	.L31		@
 578              	.L36:
 579 01b2 00BF     		.align	2
 580              	.L35:
 581 01b4 00040040 		.word	1073742848
 582              		.cfi_endproc
 583              	.LFE31:
 584              		.size	Delay, .-Delay
 585              		.align	1
 586              		.global	enable_TIM3_delay
 587              		.syntax unified
 588              		.thumb
 589              		.thumb_func
 590              		.type	enable_TIM3_delay, %function
 591              	enable_TIM3_delay:
 592              	.LFB32:
 101:../2-filas/Me.h **** 
 102:../2-filas/Me.h **** void enable_TIM3_delay (void) {
 593              		.loc 2 102 31 is_stmt 1 view -0
 594              		.cfi_startproc
 595              		@ args = 0, pretend = 0, frame = 0
 596              		@ frame_needed = 0, uses_anonymous_args = 0
 597              		@ link register save eliminated.
 103:../2-filas/Me.h ****    RCC->APB1ENR |= 1<<1 ;
 598              		.loc 2 103 4 view .LVU143
 599              	@ ../2-filas/Me.h:103:    RCC->APB1ENR |= 1<<1 ;
 600              		.loc 2 103 17 is_stmt 0 view .LVU144
 601 01b8 084A     		ldr	r2, .L38	@ tmp117,
 602 01ba D369     		ldr	r3, [r2, #28]	@ _1, MEM[(struct RCC_TypeDef *)1073876992B].APB1ENR
 603 01bc 43F00203 		orr	r3, r3, #2	@ _2, _1,
 604 01c0 D361     		str	r3, [r2, #28]	@ _2, MEM[(struct RCC_TypeDef *)1073876992B].APB1ENR
 104:../2-filas/Me.h ****    TIM3->CR1 = 0x0000;
 605              		.loc 2 104 4 is_stmt 1 view .LVU145
 606              	@ ../2-filas/Me.h:104:    TIM3->CR1 = 0x0000;
 607              		.loc 2 104 14 is_stmt 0 view .LVU146
 608 01c2 0023     		movs	r3, #0	@ tmp121,
 609 01c4 A2F50332 		sub	r2, r2, #134144	@ tmp119, tmp119,
 610 01c8 1380     		strh	r3, [r2]	@ movhi	@ tmp121, MEM[(struct TIM_TypeDef *)1073742848B].CR1
 105:../2-filas/Me.h ****    //TIM3->ARR = 21699;
 106:../2-filas/Me.h ****    TIM3->ARR = 250-1; // 10µs
 611              		.loc 2 106 4 is_stmt 1 view .LVU147
 612              	@ ../2-filas/Me.h:106:    TIM3->ARR = 250-1; // 10µs
ARM GAS  /tmp/cc8bNYNB.s 			page 16


 613              		.loc 2 106 14 is_stmt 0 view .LVU148
 614 01ca F923     		movs	r3, #249	@ tmp124,
 615 01cc 9385     		strh	r3, [r2, #44]	@ movhi	@ tmp124, MEM[(struct TIM_TypeDef *)1073742848B].ARR
 107:../2-filas/Me.h ****    // para obter o período de 868µs
 108:../2-filas/Me.h **** /*https://www.vishay.com/docs/80071/dataform.pdf PAG 2
 109:../2-filas/Me.h ****  * https://controllerstech.com/ir-remote-with-stm32/
 110:../2-filas/Me.h ****  * Per=(1+ARR)/Clock_system */
 111:../2-filas/Me.h ****    TIM3->CR1 |= 1<<0;
 616              		.loc 2 111 4 is_stmt 1 view .LVU149
 617              	@ ../2-filas/Me.h:111:    TIM3->CR1 |= 1<<0;
 618              		.loc 2 111 14 is_stmt 0 view .LVU150
 619 01ce 1388     		ldrh	r3, [r2]	@, MEM[(struct TIM_TypeDef *)1073742848B].CR1
 620 01d0 9BB2     		uxth	r3, r3	@ _3, MEM[(struct TIM_TypeDef *)1073742848B].CR1
 621 01d2 43F00103 		orr	r3, r3, #1	@ _4, _3,
 622 01d6 1380     		strh	r3, [r2]	@ movhi	@ _4, MEM[(struct TIM_TypeDef *)1073742848B].CR1
 623              	@ ../2-filas/Me.h:112: }
 112:../2-filas/Me.h **** }
 624              		.loc 2 112 1 view .LVU151
 625 01d8 7047     		bx	lr	@
 626              	.L39:
 627 01da 00BF     		.align	2
 628              	.L38:
 629 01dc 00100240 		.word	1073876992
 630              		.cfi_endproc
 631              	.LFE32:
 632              		.size	enable_TIM3_delay, .-enable_TIM3_delay
 633              		.align	1
 634              		.global	enable_interrupt
 635              		.syntax unified
 636              		.thumb
 637              		.thumb_func
 638              		.type	enable_interrupt, %function
 639              	enable_interrupt:
 640              	.LVL8:
 641              	.LFB33:
 113:../2-filas/Me.h **** 
 114:../2-filas/Me.h **** void enable_interrupt(IRQn_Type IRQn)
 115:../2-filas/Me.h **** {
 642              		.loc 2 115 1 is_stmt 1 view -0
 643              		.cfi_startproc
 644              		@ args = 0, pretend = 0, frame = 0
 645              		@ frame_needed = 0, uses_anonymous_args = 0
 646              		@ link register save eliminated.
 116:../2-filas/Me.h ****    NVIC->ISER[((uint32_t)(IRQn) >> 5)] = (1 << ((uint32_t)(IRQn) & 0x1F));
 647              		.loc 2 116 4 view .LVU153
 648              	@ ../2-filas/Me.h:116:    NVIC->ISER[((uint32_t)(IRQn) >> 5)] = (1 << ((uint32_t)(IRQn) & 0x1F));
 649              		.loc 2 116 45 is_stmt 0 view .LVU154
 650 01e0 0123     		movs	r3, #1	@ tmp124,
 651              	@ ../2-filas/Me.h:116:    NVIC->ISER[((uint32_t)(IRQn) >> 5)] = (1 << ((uint32_t)(IRQn) & 0x1F));
 652              		.loc 2 116 33 view .LVU155
 653 01e2 4209     		lsrs	r2, r0, #5	@ _6, IRQn,
 654              	@ ../2-filas/Me.h:116:    NVIC->ISER[((uint32_t)(IRQn) >> 5)] = (1 << ((uint32_t)(IRQn) & 0x1F));
 655              		.loc 2 116 66 view .LVU156
 656 01e4 00F01F00 		and	r0, r0, #31	@ tmp123, IRQn,
 657              	.LVL9:
 658              	@ ../2-filas/Me.h:116:    NVIC->ISER[((uint32_t)(IRQn) >> 5)] = (1 << ((uint32_t)(IRQn) & 0x1F));
 659              		.loc 2 116 45 view .LVU157
ARM GAS  /tmp/cc8bNYNB.s 			page 17


 660 01e8 03FA00F0 		lsl	r0, r3, r0	@ _7, tmp124, tmp123
 661              	@ ../2-filas/Me.h:116:    NVIC->ISER[((uint32_t)(IRQn) >> 5)] = (1 << ((uint32_t)(IRQn) & 0x1F));
 662              		.loc 2 116 40 view .LVU158
 663 01ec 014B     		ldr	r3, .L41	@ tmp125,
 664 01ee 43F82200 		str	r0, [r3, r2, lsl #2]	@ _7, MEM[(struct NVIC_Type *)3758153984B].ISER[_6]
 665              	@ ../2-filas/Me.h:117: }  
 117:../2-filas/Me.h **** }  
 666              		.loc 2 117 1 view .LVU159
 667 01f2 7047     		bx	lr	@
 668              	.L42:
 669              		.align	2
 670              	.L41:
 671 01f4 00E100E0 		.word	-536813312
 672              		.cfi_endproc
 673              	.LFE33:
 674              		.size	enable_interrupt, .-enable_interrupt
 675              		.align	1
 676              		.global	disable_interrupt
 677              		.syntax unified
 678              		.thumb
 679              		.thumb_func
 680              		.type	disable_interrupt, %function
 681              	disable_interrupt:
 682              	.LVL10:
 683              	.LFB34:
 118:../2-filas/Me.h ****    
 119:../2-filas/Me.h **** /* 
 120:../2-filas/Me.h ****  * Disable given interrupt
 121:../2-filas/Me.h ****  */
 122:../2-filas/Me.h **** void disable_interrupt(IRQn_Type IRQn)
 123:../2-filas/Me.h **** {
 684              		.loc 2 123 1 is_stmt 1 view -0
 685              		.cfi_startproc
 686              		@ args = 0, pretend = 0, frame = 0
 687              		@ frame_needed = 0, uses_anonymous_args = 0
 688              		@ link register save eliminated.
 124:../2-filas/Me.h ****    NVIC->ICER[((uint32_t)(IRQn) >> 5)] = (1 << ((uint32_t)(IRQn) & 0x1F));
 689              		.loc 2 124 4 view .LVU161
 690              	@ ../2-filas/Me.h:124:    NVIC->ICER[((uint32_t)(IRQn) >> 5)] = (1 << ((uint32_t)(IRQn) & 0x1F));
 691              		.loc 2 124 45 is_stmt 0 view .LVU162
 692 01f8 0122     		movs	r2, #1	@ tmp124,
 693              	@ ../2-filas/Me.h:124:    NVIC->ICER[((uint32_t)(IRQn) >> 5)] = (1 << ((uint32_t)(IRQn) & 0x1F));
 694              		.loc 2 124 33 view .LVU163
 695 01fa 4309     		lsrs	r3, r0, #5	@ _6, IRQn,
 696              	@ ../2-filas/Me.h:124:    NVIC->ICER[((uint32_t)(IRQn) >> 5)] = (1 << ((uint32_t)(IRQn) & 0x1F));
 697              		.loc 2 124 66 view .LVU164
 698 01fc 00F01F00 		and	r0, r0, #31	@ tmp123, IRQn,
 699              	.LVL11:
 700              	@ ../2-filas/Me.h:124:    NVIC->ICER[((uint32_t)(IRQn) >> 5)] = (1 << ((uint32_t)(IRQn) & 0x1F));
 701              		.loc 2 124 45 view .LVU165
 702 0200 02FA00F0 		lsl	r0, r2, r0	@ _7, tmp124, tmp123
 703              	@ ../2-filas/Me.h:124:    NVIC->ICER[((uint32_t)(IRQn) >> 5)] = (1 << ((uint32_t)(IRQn) & 0x1F));
 704              		.loc 2 124 40 view .LVU166
 705 0204 024A     		ldr	r2, .L44	@ tmp125,
 706 0206 2033     		adds	r3, r3, #32	@ tmp126, _6,
 707 0208 42F82300 		str	r0, [r2, r3, lsl #2]	@ _7, MEM[(struct NVIC_Type *)3758153984B].ICER[_6]
 708              	@ ../2-filas/Me.h:125: }
ARM GAS  /tmp/cc8bNYNB.s 			page 18


 125:../2-filas/Me.h **** }
 709              		.loc 2 125 1 view .LVU167
 710 020c 7047     		bx	lr	@
 711              	.L45:
 712 020e 00BF     		.align	2
 713              	.L44:
 714 0210 00E100E0 		.word	-536813312
 715              		.cfi_endproc
 716              	.LFE34:
 717              		.size	disable_interrupt, .-disable_interrupt
 718              		.align	1
 719              		.global	intToStr
 720              		.syntax unified
 721              		.thumb
 722              		.thumb_func
 723              		.type	intToStr, %function
 724              	intToStr:
 725              	.LVL12:
 726              	.LFB36:
 126:../2-filas/Me.h **** 
 127:../2-filas/Me.h **** void floatToString(float num, char *str, int precision) {
 128:../2-filas/Me.h ****     // Lida com números negativos
 129:../2-filas/Me.h ****     if (num < 0) {
 130:../2-filas/Me.h ****         num = -num;
 131:../2-filas/Me.h ****         *str++ = '-';
 132:../2-filas/Me.h ****     }
 133:../2-filas/Me.h **** 
 134:../2-filas/Me.h ****     // Extrai a parte inteira do número
 135:../2-filas/Me.h ****     int inteira = (int)num;
 136:../2-filas/Me.h ****     intToStr(inteira, str);
 137:../2-filas/Me.h ****     while (*str != '\0') {
 138:../2-filas/Me.h ****         str++;
 139:../2-filas/Me.h ****     }
 140:../2-filas/Me.h **** 
 141:../2-filas/Me.h ****     // Adiciona o ponto decimal
 142:../2-filas/Me.h ****     *str++ = '.';
 143:../2-filas/Me.h **** 
 144:../2-filas/Me.h ****     // Calcula e adiciona a parte fracionária
 145:../2-filas/Me.h ****     float fracionaria = num - inteira;
 146:../2-filas/Me.h ****     for (int i = 0; i < precision; i++) {
 147:../2-filas/Me.h ****         fracionaria *= 10;
 148:../2-filas/Me.h ****         int digito = (int)fracionaria;
 149:../2-filas/Me.h ****         *str++ = '0' + digito;
 150:../2-filas/Me.h ****         fracionaria -= digito;
 151:../2-filas/Me.h ****     }
 152:../2-filas/Me.h **** 
 153:../2-filas/Me.h ****     // Adiciona o terminador nulo
 154:../2-filas/Me.h ****     *str = '\0';
 155:../2-filas/Me.h **** }
 156:../2-filas/Me.h **** 
 157:../2-filas/Me.h **** void intToStr(int num, char *str) {
 727              		.loc 2 157 35 is_stmt 1 view -0
 728              		.cfi_startproc
 729              		@ args = 0, pretend = 0, frame = 0
 730              		@ frame_needed = 0, uses_anonymous_args = 0
 158:../2-filas/Me.h ****     // Converte um número inteiro para uma string
 159:../2-filas/Me.h ****     if (num == 0) {
ARM GAS  /tmp/cc8bNYNB.s 			page 19


 731              		.loc 2 159 5 view .LVU169
 732              	@ ../2-filas/Me.h:157: void intToStr(int num, char *str) {
 157:../2-filas/Me.h ****     // Converte um número inteiro para uma string
 733              		.loc 2 157 35 is_stmt 0 view .LVU170
 734 0214 10B5     		push	{r4, lr}	@
 735              	.LCFI5:
 736              		.cfi_def_cfa_offset 8
 737              		.cfi_offset 4, -8
 738              		.cfi_offset 14, -4
 739              	@ ../2-filas/Me.h:159:     if (num == 0) {
 740              		.loc 2 159 8 view .LVU171
 741 0216 B8B9     		cbnz	r0, .L52	@ num,
 160:../2-filas/Me.h ****         *str++ = '0';
 742              		.loc 2 160 9 is_stmt 1 view .LVU172
 743              	.LVL13:
 744              	@ ../2-filas/Me.h:160:         *str++ = '0';
 745              		.loc 2 160 16 is_stmt 0 view .LVU173
 746 0218 3023     		movs	r3, #48	@ tmp122,
 747              	@ ../2-filas/Me.h:161:         *str = '\0';
 161:../2-filas/Me.h ****         *str = '\0';
 748              		.loc 2 161 14 view .LVU174
 749 021a 4870     		strb	r0, [r1, #1]	@ num, MEM[(char *)str_6(D) + 1B]
 750              	@ ../2-filas/Me.h:160:         *str++ = '0';
 160:../2-filas/Me.h ****         *str++ = '0';
 751              		.loc 2 160 16 view .LVU175
 752 021c 0B70     		strb	r3, [r1]	@ tmp122, *str_6(D)
 753              		.loc 2 161 9 is_stmt 1 view .LVU176
 162:../2-filas/Me.h ****         return;
 754              		.loc 2 162 9 view .LVU177
 755              	.LVL14:
 756              	.L46:
 757              	@ ../2-filas/Me.h:180: }
 163:../2-filas/Me.h ****     }
 164:../2-filas/Me.h **** 
 165:../2-filas/Me.h ****     int len = 0;
 166:../2-filas/Me.h ****     int temp = num;
 167:../2-filas/Me.h ****     while (temp > 0) {
 168:../2-filas/Me.h ****         temp /= 10;
 169:../2-filas/Me.h ****         len++;
 170:../2-filas/Me.h ****     }
 171:../2-filas/Me.h **** 
 172:../2-filas/Me.h ****     str += len;
 173:../2-filas/Me.h ****     *str = '\0';
 174:../2-filas/Me.h **** 
 175:../2-filas/Me.h ****     while (num > 0) {
 176:../2-filas/Me.h ****         int digito = num % 10;
 177:../2-filas/Me.h ****         *(--str) = '0' + digito;
 178:../2-filas/Me.h ****         num /= 10;
 179:../2-filas/Me.h ****     }
 180:../2-filas/Me.h **** }
 758              		.loc 2 180 1 is_stmt 0 view .LVU178
 759 021e 10BD     		pop	{r4, pc}	@
 760              	.LVL15:
 761              	.L49:
 762              	.LBB6:
 763              	.LBB7:
 168:../2-filas/Me.h ****         len++;
ARM GAS  /tmp/cc8bNYNB.s 			page 20


 764              		.loc 2 168 9 is_stmt 1 view .LVU179
 765              	@ ../2-filas/Me.h:168:         temp /= 10;
 168:../2-filas/Me.h ****         len++;
 766              		.loc 2 168 14 is_stmt 0 view .LVU180
 767 0220 92FBF4F2 		sdiv	r2, r2, r4	@ temp, temp, tmp147
 768              	.LVL16:
 169:../2-filas/Me.h ****     }
 769              		.loc 2 169 9 is_stmt 1 view .LVU181
 770              	@ ../2-filas/Me.h:169:         len++;
 169:../2-filas/Me.h ****     }
 771              		.loc 2 169 12 is_stmt 0 view .LVU182
 772 0224 0133     		adds	r3, r3, #1	@ len, len,
 773              	.LVL17:
 774              	.L47:
 167:../2-filas/Me.h ****         temp /= 10;
 775              		.loc 2 167 11 is_stmt 1 view .LVU183
 776 0226 002A     		cmp	r2, #0	@ temp,
 777 0228 FADC     		bgt	.L49		@,
 172:../2-filas/Me.h ****     *str = '\0';
 778              		.loc 2 172 5 view .LVU184
 779              	@ ../2-filas/Me.h:173:     *str = '\0';
 173:../2-filas/Me.h **** 
 780              		.loc 2 173 10 is_stmt 0 view .LVU185
 781 022a 0024     		movs	r4, #0	@ tmp129,
 782              	@ ../2-filas/Me.h:172:     str += len;
 172:../2-filas/Me.h ****     *str = '\0';
 783              		.loc 2 172 9 view .LVU186
 784 022c CA18     		adds	r2, r1, r3	@ str, str, len
 785              	.LVL18:
 173:../2-filas/Me.h **** 
 786              		.loc 2 173 5 is_stmt 1 view .LVU187
 787              	@ ../2-filas/Me.h:173:     *str = '\0';
 173:../2-filas/Me.h **** 
 788              		.loc 2 173 10 is_stmt 0 view .LVU188
 789 022e CC54     		strb	r4, [r1, r3]	@ tmp129, *str_16
 175:../2-filas/Me.h ****         int digito = num % 10;
 790              		.loc 2 175 5 is_stmt 1 view .LVU189
 791              	.LBB8:
 792              	@ ../2-filas/Me.h:176:         int digito = num % 10;
 176:../2-filas/Me.h ****         *(--str) = '0' + digito;
 793              		.loc 2 176 13 is_stmt 0 view .LVU190
 794 0230 0A23     		movs	r3, #10	@ tmp146,
 795              	.LVL19:
 796              	.L50:
 176:../2-filas/Me.h ****         *(--str) = '0' + digito;
 797              		.loc 2 176 13 view .LVU191
 798              	.LBE8:
 175:../2-filas/Me.h ****         int digito = num % 10;
 799              		.loc 2 175 11 is_stmt 1 view .LVU192
 800 0232 0028     		cmp	r0, #0	@ num,
 801 0234 F3DD     		ble	.L46		@,
 802              	.LBB9:
 176:../2-filas/Me.h ****         *(--str) = '0' + digito;
 803              		.loc 2 176 9 view .LVU193
 804              	.LVL20:
 177:../2-filas/Me.h ****         num /= 10;
 805              		.loc 2 177 9 view .LVU194
ARM GAS  /tmp/cc8bNYNB.s 			page 21


 806              	@ ../2-filas/Me.h:176:         int digito = num % 10;
 176:../2-filas/Me.h ****         *(--str) = '0' + digito;
 807              		.loc 2 176 13 is_stmt 0 view .LVU195
 808 0236 90FBF3F1 		sdiv	r1, r0, r3	@ tmp135, num, tmp146
 809 023a 03FB1100 		mls	r0, r3, r1, r0	@ digito, tmp146, tmp135, num
 810              	.LVL21:
 811              	@ ../2-filas/Me.h:177:         *(--str) = '0' + digito;
 177:../2-filas/Me.h ****         num /= 10;
 812              		.loc 2 177 24 view .LVU196
 813 023e 3030     		adds	r0, r0, #48	@ tmp141, digito,
 814              	@ ../2-filas/Me.h:177:         *(--str) = '0' + digito;
 177:../2-filas/Me.h ****         num /= 10;
 815              		.loc 2 177 18 view .LVU197
 816 0240 02F8010D 		strb	r0, [r2, #-1]!	@ tmp141, MEM[base: str_21, offset: 0B]
 817              	.LVL22:
 178:../2-filas/Me.h ****     }
 818              		.loc 2 178 9 is_stmt 1 view .LVU198
 819              	@ ../2-filas/Me.h:178:         num /= 10;
 178:../2-filas/Me.h ****     }
 820              		.loc 2 178 13 is_stmt 0 view .LVU199
 821 0244 0846     		mov	r0, r1	@ num, tmp135
 822              	.LVL23:
 178:../2-filas/Me.h ****     }
 823              		.loc 2 178 13 view .LVU200
 824 0246 F4E7     		b	.L50		@
 825              	.LVL24:
 826              	.L52:
 178:../2-filas/Me.h ****     }
 827              		.loc 2 178 13 view .LVU201
 828              	.LBE9:
 829              	.LBE7:
 830              	.LBE6:
 831 0248 0246     		mov	r2, r0	@ temp, num
 832              	.LBB11:
 833              	.LBB10:
 834              	@ ../2-filas/Me.h:165:     int len = 0;
 165:../2-filas/Me.h ****     int temp = num;
 835              		.loc 2 165 9 view .LVU202
 836 024a 0023     		movs	r3, #0	@ len,
 837              	@ ../2-filas/Me.h:168:         temp /= 10;
 168:../2-filas/Me.h ****         len++;
 838              		.loc 2 168 14 view .LVU203
 839 024c 0A24     		movs	r4, #10	@ tmp147,
 840 024e EAE7     		b	.L47		@
 841              	.LBE10:
 842              	.LBE11:
 843              		.cfi_endproc
 844              	.LFE36:
 845              		.size	intToStr, .-intToStr
 846              		.global	__aeabi_fcmplt
 847              		.global	__aeabi_f2iz
 848              		.global	__aeabi_i2f
 849              		.global	__aeabi_fsub
 850              		.global	__aeabi_fmul
 851              		.align	1
 852              		.global	floatToString
 853              		.syntax unified
ARM GAS  /tmp/cc8bNYNB.s 			page 22


 854              		.thumb
 855              		.thumb_func
 856              		.type	floatToString, %function
 857              	floatToString:
 858              	.LVL25:
 859              	.LFB35:
 127:../2-filas/Me.h ****     // Lida com números negativos
 860              		.loc 2 127 57 is_stmt 1 view -0
 861              		.cfi_startproc
 862              		@ args = 0, pretend = 0, frame = 0
 863              		@ frame_needed = 0, uses_anonymous_args = 0
 129:../2-filas/Me.h ****         num = -num;
 864              		.loc 2 129 5 view .LVU205
 865              	@ ../2-filas/Me.h:127: void floatToString(float num, char *str, int precision) {
 127:../2-filas/Me.h ****     // Lida com números negativos
 866              		.loc 2 127 57 is_stmt 0 view .LVU206
 867 0250 2DE9F041 		push	{r4, r5, r6, r7, r8, lr}	@
 868              	.LCFI6:
 869              		.cfi_def_cfa_offset 24
 870              		.cfi_offset 4, -24
 871              		.cfi_offset 5, -20
 872              		.cfi_offset 6, -16
 873              		.cfi_offset 7, -12
 874              		.cfi_offset 8, -8
 875              		.cfi_offset 14, -4
 876              	@ ../2-filas/Me.h:127: void floatToString(float num, char *str, int precision) {
 127:../2-filas/Me.h ****     // Lida com números negativos
 877              		.loc 2 127 57 view .LVU207
 878 0254 0C46     		mov	r4, r1	@ str, tmp158
 879              	@ ../2-filas/Me.h:129:     if (num < 0) {
 129:../2-filas/Me.h ****         num = -num;
 880              		.loc 2 129 8 view .LVU208
 881 0256 0021     		movs	r1, #0	@,
 882              	.LVL26:
 883              	@ ../2-filas/Me.h:127: void floatToString(float num, char *str, int precision) {
 127:../2-filas/Me.h ****     // Lida com números negativos
 884              		.loc 2 127 57 view .LVU209
 885 0258 0546     		mov	r5, r0	@ num, tmp157
 886 025a 1646     		mov	r6, r2	@ precision, tmp159
 887              	@ ../2-filas/Me.h:129:     if (num < 0) {
 129:../2-filas/Me.h ****         num = -num;
 888              		.loc 2 129 8 view .LVU210
 889 025c FFF7FEFF 		bl	__aeabi_fcmplt		@
 890              	.LVL27:
 129:../2-filas/Me.h ****         num = -num;
 891              		.loc 2 129 8 view .LVU211
 892 0260 20B1     		cbz	r0, .L54	@ tmp160,
 130:../2-filas/Me.h ****         *str++ = '-';
 893              		.loc 2 130 9 is_stmt 1 view .LVU212
 894              	@ ../2-filas/Me.h:131:         *str++ = '-';
 131:../2-filas/Me.h ****     }
 895              		.loc 2 131 16 is_stmt 0 view .LVU213
 896 0262 2D23     		movs	r3, #45	@ tmp138,
 897              	@ ../2-filas/Me.h:130:         num = -num;
 130:../2-filas/Me.h ****         *str++ = '-';
 898              		.loc 2 130 13 view .LVU214
 899 0264 05F10045 		add	r5, r5, #-2147483648	@ tmp137, num,
ARM GAS  /tmp/cc8bNYNB.s 			page 23


 900              	.LVL28:
 131:../2-filas/Me.h ****     }
 901              		.loc 2 131 9 is_stmt 1 view .LVU215
 902              	@ ../2-filas/Me.h:131:         *str++ = '-';
 131:../2-filas/Me.h ****     }
 903              		.loc 2 131 16 is_stmt 0 view .LVU216
 904 0268 04F8013B 		strb	r3, [r4], #1	@ tmp138, *str_17(D)
 905              	.LVL29:
 906              	.L54:
 135:../2-filas/Me.h ****     intToStr(inteira, str);
 907              		.loc 2 135 5 is_stmt 1 view .LVU217
 908              	@ ../2-filas/Me.h:135:     int inteira = (int)num;
 135:../2-filas/Me.h ****     intToStr(inteira, str);
 909              		.loc 2 135 9 is_stmt 0 view .LVU218
 910 026c 2846     		mov	r0, r5	@, num
 911 026e FFF7FEFF 		bl	__aeabi_f2iz		@
 912              	.LVL30:
 913              	@ ../2-filas/Me.h:136:     intToStr(inteira, str);
 136:../2-filas/Me.h ****     while (*str != '\0') {
 914              		.loc 2 136 5 view .LVU219
 915 0272 2146     		mov	r1, r4	@, str
 916              	@ ../2-filas/Me.h:135:     int inteira = (int)num;
 135:../2-filas/Me.h ****     intToStr(inteira, str);
 917              		.loc 2 135 9 view .LVU220
 918 0274 0746     		mov	r7, r0	@ inteira, tmp161
 919              	.LVL31:
 136:../2-filas/Me.h ****     while (*str != '\0') {
 920              		.loc 2 136 5 is_stmt 1 view .LVU221
 921 0276 FFF7FEFF 		bl	intToStr		@
 922              	.LVL32:
 137:../2-filas/Me.h ****         str++;
 923              		.loc 2 137 5 view .LVU222
 924              	.L56:
 137:../2-filas/Me.h ****         str++;
 925              		.loc 2 137 11 view .LVU223
 926              	@ ../2-filas/Me.h:137:     while (*str != '\0') {
 137:../2-filas/Me.h ****         str++;
 927              		.loc 2 137 12 is_stmt 0 view .LVU224
 928 027a 2278     		ldrb	r2, [r4]	@ zero_extendqisi2	@ _1, MEM[base: str_10, offset: 0B]
 929 027c 2346     		mov	r3, r4	@ str, str
 930              	@ ../2-filas/Me.h:138:         str++;
 138:../2-filas/Me.h ****     }
 931              		.loc 2 138 12 view .LVU225
 932 027e 0134     		adds	r4, r4, #1	@ str, str,
 933              	.LVL33:
 934              	@ ../2-filas/Me.h:137:     while (*str != '\0') {
 137:../2-filas/Me.h ****         str++;
 935              		.loc 2 137 11 view .LVU226
 936 0280 002A     		cmp	r2, #0	@ _1
 937 0282 FAD1     		bne	.L56	@
 142:../2-filas/Me.h **** 
 938              		.loc 2 142 5 is_stmt 1 view .LVU227
 939              	.LVL34:
 940              	@ ../2-filas/Me.h:142:     *str++ = '.';
 142:../2-filas/Me.h **** 
 941              		.loc 2 142 12 is_stmt 0 view .LVU228
 942 0284 2E22     		movs	r2, #46	@ tmp141,
ARM GAS  /tmp/cc8bNYNB.s 			page 24


 943              	@ ../2-filas/Me.h:145:     float fracionaria = num - inteira;
 145:../2-filas/Me.h ****     for (int i = 0; i < precision; i++) {
 944              		.loc 2 145 29 view .LVU229
 945 0286 3846     		mov	r0, r7	@, inteira
 946              	@ ../2-filas/Me.h:142:     *str++ = '.';
 142:../2-filas/Me.h **** 
 947              		.loc 2 142 12 view .LVU230
 948 0288 1A70     		strb	r2, [r3]	@ tmp141, *str_20
 145:../2-filas/Me.h ****     for (int i = 0; i < precision; i++) {
 949              		.loc 2 145 5 is_stmt 1 view .LVU231
 950              	@ ../2-filas/Me.h:145:     float fracionaria = num - inteira;
 145:../2-filas/Me.h ****     for (int i = 0; i < precision; i++) {
 951              		.loc 2 145 29 is_stmt 0 view .LVU232
 952 028a FFF7FEFF 		bl	__aeabi_i2f		@
 953              	.LVL35:
 954 028e 0146     		mov	r1, r0	@ tmp162,
 955              	@ ../2-filas/Me.h:145:     float fracionaria = num - inteira;
 145:../2-filas/Me.h ****     for (int i = 0; i < precision; i++) {
 956              		.loc 2 145 11 view .LVU233
 957 0290 2846     		mov	r0, r5	@, num
 958 0292 FFF7FEFF 		bl	__aeabi_fsub		@
 959              	.LVL36:
 146:../2-filas/Me.h ****         fracionaria *= 10;
 960              		.loc 2 146 5 is_stmt 1 view .LVU234
 961              	.LBB12:
 146:../2-filas/Me.h ****         fracionaria *= 10;
 962              		.loc 2 146 10 view .LVU235
 146:../2-filas/Me.h ****         fracionaria *= 10;
 963              		.loc 2 146 10 is_stmt 0 view .LVU236
 964              	.LBE12:
 965              	@ ../2-filas/Me.h:138:         str++;
 138:../2-filas/Me.h ****     }
 966              		.loc 2 138 12 view .LVU237
 967 0296 2546     		mov	r5, r4	@ str, str
 968              	.LVL37:
 969              	.LBB15:
 970              	.LBB13:
 971              	@ ../2-filas/Me.h:147:         fracionaria *= 10;
 147:../2-filas/Me.h ****         int digito = (int)fracionaria;
 972              		.loc 2 147 21 view .LVU238
 973 0298 DFF83480 		ldr	r8, .L61	@ tmp156,
 974              	.LVL38:
 975              	.L57:
 147:../2-filas/Me.h ****         int digito = (int)fracionaria;
 976              		.loc 2 147 21 view .LVU239
 977              	.LBE13:
 146:../2-filas/Me.h ****         fracionaria *= 10;
 978              		.loc 2 146 21 is_stmt 1 discriminator 1 view .LVU240
 979              	@ ../2-filas/Me.h:146:     for (int i = 0; i < precision; i++) {
 146:../2-filas/Me.h ****         fracionaria *= 10;
 980              		.loc 2 146 5 is_stmt 0 discriminator 1 view .LVU241
 981 029c 2B1B     		subs	r3, r5, r4	@ i, str, str
 982              	.LVL39:
 146:../2-filas/Me.h ****         fracionaria *= 10;
 983              		.loc 2 146 5 discriminator 1 view .LVU242
 984 029e 9E42     		cmp	r6, r3	@ precision, i
 985 02a0 05DC     		bgt	.L58		@,
ARM GAS  /tmp/cc8bNYNB.s 			page 25


 146:../2-filas/Me.h ****         fracionaria *= 10;
 986              		.loc 2 146 5 discriminator 1 view .LVU243
 987              	.LBE15:
 154:../2-filas/Me.h **** }
 988              		.loc 2 154 5 is_stmt 1 view .LVU244
 989              	@ ../2-filas/Me.h:154:     *str = '\0';
 154:../2-filas/Me.h **** }
 990              		.loc 2 154 10 is_stmt 0 view .LVU245
 991 02a2 0023     		movs	r3, #0	@ tmp154,
 992              	.LVL40:
 154:../2-filas/Me.h **** }
 993              		.loc 2 154 10 view .LVU246
 994 02a4 26EAE676 		bic	r6, r6, r6, asr #31	@ tmp153, precision
 995              	.LVL41:
 154:../2-filas/Me.h **** }
 996              		.loc 2 154 10 view .LVU247
 997 02a8 A355     		strb	r3, [r4, r6]	@ tmp154, *str_35
 998              	@ ../2-filas/Me.h:155: }
 155:../2-filas/Me.h **** 
 999              		.loc 2 155 1 view .LVU248
 1000 02aa BDE8F081 		pop	{r4, r5, r6, r7, r8, pc}	@
 1001              	.LVL42:
 1002              	.L58:
 1003              	.LBB16:
 1004              	.LBB14:
 147:../2-filas/Me.h ****         int digito = (int)fracionaria;
 1005              		.loc 2 147 9 is_stmt 1 discriminator 3 view .LVU249
 1006              	@ ../2-filas/Me.h:147:         fracionaria *= 10;
 147:../2-filas/Me.h ****         int digito = (int)fracionaria;
 1007              		.loc 2 147 21 is_stmt 0 discriminator 3 view .LVU250
 1008 02ae 4146     		mov	r1, r8	@, tmp156
 1009 02b0 FFF7FEFF 		bl	__aeabi_fmul		@
 1010              	.LVL43:
 147:../2-filas/Me.h ****         int digito = (int)fracionaria;
 1011              		.loc 2 147 21 discriminator 3 view .LVU251
 1012 02b4 0746     		mov	r7, r0	@ tmp145, tmp164
 1013              	.LVL44:
 148:../2-filas/Me.h ****         *str++ = '0' + digito;
 1014              		.loc 2 148 9 is_stmt 1 discriminator 3 view .LVU252
 1015              	@ ../2-filas/Me.h:148:         int digito = (int)fracionaria;
 148:../2-filas/Me.h ****         *str++ = '0' + digito;
 1016              		.loc 2 148 13 is_stmt 0 discriminator 3 view .LVU253
 1017 02b6 FFF7FEFF 		bl	__aeabi_f2iz		@
 1018              	.LVL45:
 149:../2-filas/Me.h ****         fracionaria -= digito;
 1019              		.loc 2 149 9 is_stmt 1 discriminator 3 view .LVU254
 1020              	@ ../2-filas/Me.h:149:         *str++ = '0' + digito;
 149:../2-filas/Me.h ****         fracionaria -= digito;
 1021              		.loc 2 149 22 is_stmt 0 discriminator 3 view .LVU255
 1022 02ba 00F13003 		add	r3, r0, #48	@ tmp148, tmp165,
 1023              	@ ../2-filas/Me.h:149:         *str++ = '0' + digito;
 149:../2-filas/Me.h ****         fracionaria -= digito;
 1024              		.loc 2 149 16 discriminator 3 view .LVU256
 1025 02be 05F8013B 		strb	r3, [r5], #1	@ tmp148, MEM[base: str_31, offset: 4294967295B]
 1026              	.LVL46:
 150:../2-filas/Me.h ****     }
 1027              		.loc 2 150 9 is_stmt 1 discriminator 3 view .LVU257
ARM GAS  /tmp/cc8bNYNB.s 			page 26


 1028              	@ ../2-filas/Me.h:150:         fracionaria -= digito;
 150:../2-filas/Me.h ****     }
 1029              		.loc 2 150 21 is_stmt 0 discriminator 3 view .LVU258
 1030 02c2 FFF7FEFF 		bl	__aeabi_i2f		@
 1031              	.LVL47:
 150:../2-filas/Me.h ****     }
 1032              		.loc 2 150 21 discriminator 3 view .LVU259
 1033 02c6 0146     		mov	r1, r0	@ tmp166,
 1034 02c8 3846     		mov	r0, r7	@, tmp145
 1035 02ca FFF7FEFF 		bl	__aeabi_fsub		@
 1036              	.LVL48:
 1037              	.LBE14:
 146:../2-filas/Me.h ****         fracionaria *= 10;
 1038              		.loc 2 146 36 is_stmt 1 discriminator 3 view .LVU260
 146:../2-filas/Me.h ****         fracionaria *= 10;
 1039              		.loc 2 146 36 is_stmt 0 discriminator 3 view .LVU261
 1040 02ce E5E7     		b	.L57		@
 1041              	.L62:
 1042              		.align	2
 1043              	.L61:
 1044 02d0 00002041 		.word	1092616192
 1045              	.LBE16:
 1046              		.cfi_endproc
 1047              	.LFE35:
 1048              		.size	floatToString, .-floatToString
 1049              		.align	1
 1050              		.global	configure_PWM_TIM2
 1051              		.syntax unified
 1052              		.thumb
 1053              		.thumb_func
 1054              		.type	configure_PWM_TIM2, %function
 1055              	configure_PWM_TIM2:
 1056              	.LFB46:
  88:../2-filas/main.c **** 	}
  89:../2-filas/main.c **** }
  90:../2-filas/main.c **** 
  91:../2-filas/main.c **** 
  92:../2-filas/main.c **** 
  93:../2-filas/main.c **** /*
  94:../2-filas/main.c ****  * ----
  95:../2-filas/main.c ****  *  1 -> Usar uma tarefa para capturar dados e atuar no PWM
  96:../2-filas/main.c ****  *  (por enquanto tudo junto) e enviar para o buffer e
  97:../2-filas/main.c ****  *  mostrar a faixa do atual valor.
  98:../2-filas/main.c ****  *
  99:../2-filas/main.c ****  *  2 -> a tarefa receberá e mostrará com pouca precisão o
 100:../2-filas/main.c ****  *  valor do duty cicle atual via UART
 101:../2-filas/main.c ****  *
 102:../2-filas/main.c ****  * */
 103:../2-filas/main.c **** 
 104:../2-filas/main.c **** 
 105:../2-filas/main.c **** int main(void) {
 106:../2-filas/main.c **** 	xQueue = xQueueCreate(5 /* Tamanho máximo da fila. */,
 107:../2-filas/main.c **** 								sizeof(u32) /* Largura máxima da fila. */);
 108:../2-filas/main.c **** 
 109:../2-filas/main.c **** 	set_system_clock_to_72Mhz();
 110:../2-filas/main.c **** 
 111:../2-filas/main.c **** 	RCC->APB2ENR |= 0x7<<2 ; // Hab. GPIO A,B,C
ARM GAS  /tmp/cc8bNYNB.s 			page 27


 112:../2-filas/main.c **** 	GPIOC->CRH |= 0b11 << 20;
 113:../2-filas/main.c **** 
 114:../2-filas/main.c **** 	RCC->APB2ENR |= 0b1<<4 ;
 115:../2-filas/main.c **** 	GPIOC->CRH |= 0b11 << 20;
 116:../2-filas/main.c **** 
 117:../2-filas/main.c **** 	configure_PWM_TIM2();
 118:../2-filas/main.c **** 	 usart_init();
 119:../2-filas/main.c **** 
 120:../2-filas/main.c **** 	xTaskCreate(task1,"PWM_Control", 100 ,NULL, 4 ,NULL);
 121:../2-filas/main.c **** 	xTaskCreate(task2, "ADC_Read", 200 , NULL, 4 , NULL);
 122:../2-filas/main.c **** 	xTaskCreate(task3, "Led_C13", 100 , NULL, 4 , NULL);
 123:../2-filas/main.c **** 
 124:../2-filas/main.c **** 	vTaskStartScheduler(); // inicia o escalonador de
 125:../2-filas/main.c **** 								  // processos.
 126:../2-filas/main.c **** 	while(1);
 127:../2-filas/main.c **** 	return 0;
 128:../2-filas/main.c **** }
 129:../2-filas/main.c **** 
 130:../2-filas/main.c **** 
 131:../2-filas/main.c **** void configure_PWM_TIM2(){
 1057              		.loc 1 131 26 is_stmt 1 view -0
 1058              		.cfi_startproc
 1059              		@ args = 0, pretend = 0, frame = 0
 1060              		@ frame_needed = 0, uses_anonymous_args = 0
 1061              		@ link register save eliminated.
 132:../2-filas/main.c **** /* Configurado com o exemplo do datasheet pag "387 / 1136" */
 133:../2-filas/main.c **** 
 134:../2-filas/main.c ****    RCC->APB2ENR |= 0b101 << 0 ; /*Habilita o AFIO GPIOA */
 1062              		.loc 1 134 4 view .LVU263
 1063              	@ ../2-filas/main.c:134:    RCC->APB2ENR |= 0b101 << 0 ; /*Habilita o AFIO GPIOA */
 1064              		.loc 1 134 17 is_stmt 0 view .LVU264
 1065 02d4 284B     		ldr	r3, .L64	@ tmp141,
 1066 02d6 9A69     		ldr	r2, [r3, #24]	@ _1, MEM[(struct RCC_TypeDef *)1073876992B].APB2ENR
 1067 02d8 42F00502 		orr	r2, r2, #5	@ _2, _1,
 1068 02dc 9A61     		str	r2, [r3, #24]	@ _2, MEM[(struct RCC_TypeDef *)1073876992B].APB2ENR
 135:../2-filas/main.c ****    RCC->APB1ENR |= 1 << 0; /*Habilita o TIMER 2 - CH na GPIO_A */
 1069              		.loc 1 135 4 is_stmt 1 view .LVU265
 1070              	@ ../2-filas/main.c:135:    RCC->APB1ENR |= 1 << 0; /*Habilita o TIMER 2 - CH na GPIO_A */
 1071              		.loc 1 135 17 is_stmt 0 view .LVU266
 1072 02de DA69     		ldr	r2, [r3, #28]	@ _3, MEM[(struct RCC_TypeDef *)1073876992B].APB1ENR
 1073 02e0 42F00102 		orr	r2, r2, #1	@ _4, _3,
 1074 02e4 DA61     		str	r2, [r3, #28]	@ _4, MEM[(struct RCC_TypeDef *)1073876992B].APB1ENR
 136:../2-filas/main.c **** 
 137:../2-filas/main.c ****    GPIOA->CRL |= (0x0B << 0) ; /* AF O_PP pino PA0 */
 1075              		.loc 1 137 4 is_stmt 1 view .LVU267
 1076              	@ ../2-filas/main.c:137:    GPIOA->CRL |= (0x0B << 0) ; /* AF O_PP pino PA0 */
 1077              		.loc 1 137 15 is_stmt 0 view .LVU268
 1078 02e6 254A     		ldr	r2, .L64+4	@ tmp145,
 1079 02e8 1368     		ldr	r3, [r2]	@ _5, MEM[(struct GPIO_TypeDef *)1073809408B].CRL
 1080 02ea 43F00B03 		orr	r3, r3, #11	@ _6, _5,
 1081 02ee 1360     		str	r3, [r2]	@ _6, MEM[(struct GPIO_TypeDef *)1073809408B].CRL
 138:../2-filas/main.c **** 	AFIO->MAPR &= ~( 0b11 << 6);
 1082              		.loc 1 138 2 is_stmt 1 view .LVU269
 1083              	@ ../2-filas/main.c:138: 	AFIO->MAPR &= ~( 0b11 << 6);
 1084              		.loc 1 138 13 is_stmt 0 view .LVU270
 1085 02f0 234B     		ldr	r3, .L64+8	@ tmp147,
 1086 02f2 5A68     		ldr	r2, [r3, #4]	@ _7, MEM[(struct AFIO_TypeDef *)1073807360B].MAPR
ARM GAS  /tmp/cc8bNYNB.s 			page 28


 1087 02f4 22F0C002 		bic	r2, r2, #192	@ _8, _7,
 1088 02f8 5A60     		str	r2, [r3, #4]	@ _8, MEM[(struct AFIO_TypeDef *)1073807360B].MAPR
 139:../2-filas/main.c ****    AFIO->MAPR &= ~( 0b11 << 8); /* [bit 26:24] SWJ_CFG [nota_2]
 1089              		.loc 1 139 4 is_stmt 1 view .LVU271
 1090              	@ ../2-filas/main.c:139:    AFIO->MAPR &= ~( 0b11 << 8); /* [bit 26:24] SWJ_CFG [nota_2]
 1091              		.loc 1 139 15 is_stmt 0 view .LVU272
 1092 02fa 5A68     		ldr	r2, [r3, #4]	@ _9, MEM[(struct AFIO_TypeDef *)1073807360B].MAPR
 1093 02fc 22F44072 		bic	r2, r2, #768	@ _10, _9,
 1094 0300 5A60     		str	r2, [r3, #4]	@ _10, MEM[(struct AFIO_TypeDef *)1073807360B].MAPR
 140:../2-filas/main.c ****                  [bit 8] TIM3_REMAP[1:0]: TIM2 remapping [nota_3]*/ 
 141:../2-filas/main.c **** 
 142:../2-filas/main.c **** 	TIM2->CCMR1 |= 0b110 << 4; /*Bits 6:4 OC1M: Output compare 1 mode
 1095              		.loc 1 142 2 is_stmt 1 view .LVU273
 1096              	@ ../2-filas/main.c:142: 	TIM2->CCMR1 |= 0b110 << 4; /*Bits 6:4 OC1M: Output compare 1 mode
 1097              		.loc 1 142 14 is_stmt 0 view .LVU274
 1098 0302 4FF08043 		mov	r3, #1073741824	@ tmp151,
 1099 0306 1A8B     		ldrh	r2, [r3, #24]	@, MEM[(struct TIM_TypeDef *)1073741824B].CCMR1
 1100 0308 92B2     		uxth	r2, r2	@ _11, MEM[(struct TIM_TypeDef *)1073741824B].CCMR1
 1101 030a 42F06002 		orr	r2, r2, #96	@ _12, _11,
 1102 030e 1A83     		strh	r2, [r3, #24]	@ movhi	@ _12, MEM[(struct TIM_TypeDef *)1073741824B].CCMR1
 143:../2-filas/main.c ****                                   110: PWM mode 1 */
 144:../2-filas/main.c ****    TIM2->CCMR1 |= 1UL << 3; /* Bit 3 OC1PE: Output compare 1 preload enable**/
 1103              		.loc 1 144 4 is_stmt 1 view .LVU275
 1104              	@ ../2-filas/main.c:144:    TIM2->CCMR1 |= 1UL << 3; /* Bit 3 OC1PE: Output compare 1 preload enabl
 1105              		.loc 1 144 16 is_stmt 0 view .LVU276
 1106 0310 1A8B     		ldrh	r2, [r3, #24]	@, MEM[(struct TIM_TypeDef *)1073741824B].CCMR1
 1107 0312 92B2     		uxth	r2, r2	@ _13, MEM[(struct TIM_TypeDef *)1073741824B].CCMR1
 1108 0314 42F00802 		orr	r2, r2, #8	@ _14, _13,
 1109 0318 1A83     		strh	r2, [r3, #24]	@ movhi	@ _14, MEM[(struct TIM_TypeDef *)1073741824B].CCMR1
 145:../2-filas/main.c **** 
 146:../2-filas/main.c **** 
 147:../2-filas/main.c ****    TIM2->PSC = 709; /* 249;  25/250 - 1 => 0.1KHz  */
 1110              		.loc 1 147 4 is_stmt 1 view .LVU277
 1111              	@ ../2-filas/main.c:147:    TIM2->PSC = 709; /* 249;  25/250 - 1 => 0.1KHz  */
 1112              		.loc 1 147 14 is_stmt 0 view .LVU278
 1113 031a 40F2C522 		movw	r2, #709	@ tmp165,
 1114 031e 1A85     		strh	r2, [r3, #40]	@ movhi	@ tmp165, MEM[(struct TIM_TypeDef *)1073741824B].PSC
 148:../2-filas/main.c ****    TIM2->ARR = 999; /* PWM period = (999 + 1) * 100KHz = 0.01 */
 1115              		.loc 1 148 4 is_stmt 1 view .LVU279
 1116              	@ ../2-filas/main.c:148:    TIM2->ARR = 999; /* PWM period = (999 + 1) * 100KHz = 0.01 */
 1117              		.loc 1 148 14 is_stmt 0 view .LVU280
 1118 0320 40F2E732 		movw	r2, #999	@ tmp168,
 1119 0324 9A85     		strh	r2, [r3, #44]	@ movhi	@ tmp168, MEM[(struct TIM_TypeDef *)1073741824B].ARR
 149:../2-filas/main.c ****    TIM2->CR1 &= ~(1<<4);
 1120              		.loc 1 149 4 is_stmt 1 view .LVU281
 1121              	@ ../2-filas/main.c:149:    TIM2->CR1 &= ~(1<<4);
 1122              		.loc 1 149 14 is_stmt 0 view .LVU282
 1123 0326 1A88     		ldrh	r2, [r3]	@, MEM[(struct TIM_TypeDef *)1073741824B].CR1
 1124 0328 22F01002 		bic	r2, r2, #16	@ _16, MEM[(struct TIM_TypeDef *)1073741824B].CR1,
 1125 032c 1204     		lsls	r2, r2, #16	@ _16, _16,
 1126 032e 120C     		lsrs	r2, r2, #16	@ _16, _16,
 1127 0330 1A80     		strh	r2, [r3]	@ movhi	@ _16, MEM[(struct TIM_TypeDef *)1073741824B].CR1
 150:../2-filas/main.c ****    TIM2->CR1 |= 1<<7;/*Bit 7 ARPE: Auto-reload preload enable */
 1128              		.loc 1 150 4 is_stmt 1 view .LVU283
 1129              	@ ../2-filas/main.c:150:    TIM2->CR1 |= 1<<7;/*Bit 7 ARPE: Auto-reload preload enable */
 1130              		.loc 1 150 14 is_stmt 0 view .LVU284
 1131 0332 1A88     		ldrh	r2, [r3]	@, MEM[(struct TIM_TypeDef *)1073741824B].CR1
ARM GAS  /tmp/cc8bNYNB.s 			page 29


 1132 0334 92B2     		uxth	r2, r2	@ _17, MEM[(struct TIM_TypeDef *)1073741824B].CR1
 1133 0336 42F08002 		orr	r2, r2, #128	@ _18, _17,
 1134 033a 1A80     		strh	r2, [r3]	@ movhi	@ _18, MEM[(struct TIM_TypeDef *)1073741824B].CR1
 151:../2-filas/main.c ****    TIM2->CCMR1 |= 1UL << 3; /* Bit 3 OC1PE: Output compare 1 preload enable - ---- CONSEGUIIIIIII *
 1135              		.loc 1 151 4 is_stmt 1 view .LVU285
 1136              	@ ../2-filas/main.c:151:    TIM2->CCMR1 |= 1UL << 3; /* Bit 3 OC1PE: Output compare 1 preload enabl
 1137              		.loc 1 151 16 is_stmt 0 view .LVU286
 1138 033c 1A8B     		ldrh	r2, [r3, #24]	@, MEM[(struct TIM_TypeDef *)1073741824B].CCMR1
 1139 033e 92B2     		uxth	r2, r2	@ _19, MEM[(struct TIM_TypeDef *)1073741824B].CCMR1
 1140 0340 42F00802 		orr	r2, r2, #8	@ _20, _19,
 1141 0344 1A83     		strh	r2, [r3, #24]	@ movhi	@ _20, MEM[(struct TIM_TypeDef *)1073741824B].CCMR1
 152:../2-filas/main.c ****    TIM2->EGR |=1<<0;
 1142              		.loc 1 152 4 is_stmt 1 view .LVU287
 1143              	@ ../2-filas/main.c:152:    TIM2->EGR |=1<<0;
 1144              		.loc 1 152 14 is_stmt 0 view .LVU288
 1145 0346 9A8A     		ldrh	r2, [r3, #20]	@, MEM[(struct TIM_TypeDef *)1073741824B].EGR
 1146 0348 92B2     		uxth	r2, r2	@ _21, MEM[(struct TIM_TypeDef *)1073741824B].EGR
 1147 034a 42F00102 		orr	r2, r2, #1	@ _22, _21,
 1148 034e 9A82     		strh	r2, [r3, #20]	@ movhi	@ _22, MEM[(struct TIM_TypeDef *)1073741824B].EGR
 153:../2-filas/main.c **** 
 154:../2-filas/main.c ****    TIM2->CCER |= 1<<0; /*Bit 0 CC1E: Capture/Compare 1 output enable*/
 1149              		.loc 1 154 4 is_stmt 1 view .LVU289
 1150              	@ ../2-filas/main.c:154:    TIM2->CCER |= 1<<0; /*Bit 0 CC1E: Capture/Compare 1 output enable*/
 1151              		.loc 1 154 15 is_stmt 0 view .LVU290
 1152 0350 1A8C     		ldrh	r2, [r3, #32]	@, MEM[(struct TIM_TypeDef *)1073741824B].CCER
 1153 0352 92B2     		uxth	r2, r2	@ _23, MEM[(struct TIM_TypeDef *)1073741824B].CCER
 1154 0354 42F00102 		orr	r2, r2, #1	@ _24, _23,
 1155 0358 1A84     		strh	r2, [r3, #32]	@ movhi	@ _24, MEM[(struct TIM_TypeDef *)1073741824B].CCER
 155:../2-filas/main.c ****    TIM2->CCER &= ~(1<<1); /*Bit 1 CC1P: Capture/Compare 1 output polarity
 1156              		.loc 1 155 4 is_stmt 1 view .LVU291
 1157              	@ ../2-filas/main.c:155:    TIM2->CCER &= ~(1<<1); /*Bit 1 CC1P: Capture/Compare 1 output polarity
 1158              		.loc 1 155 15 is_stmt 0 view .LVU292
 1159 035a 1A8C     		ldrh	r2, [r3, #32]	@, MEM[(struct TIM_TypeDef *)1073741824B].CCER
 1160 035c 22F00202 		bic	r2, r2, #2	@ _26, MEM[(struct TIM_TypeDef *)1073741824B].CCER,
 1161 0360 1204     		lsls	r2, r2, #16	@ _26, _26,
 1162 0362 120C     		lsrs	r2, r2, #16	@ _26, _26,
 1163 0364 1A84     		strh	r2, [r3, #32]	@ movhi	@ _26, MEM[(struct TIM_TypeDef *)1073741824B].CCER
 156:../2-filas/main.c ****                             0: OC1 active high. */
 157:../2-filas/main.c **** 
 158:../2-filas/main.c ****    TIM2->CR1 |= 1<<0; //Habilita o clock
 1164              		.loc 1 158 4 is_stmt 1 view .LVU293
 1165              	@ ../2-filas/main.c:158:    TIM2->CR1 |= 1<<0; //Habilita o clock
 1166              		.loc 1 158 14 is_stmt 0 view .LVU294
 1167 0366 1A88     		ldrh	r2, [r3]	@, MEM[(struct TIM_TypeDef *)1073741824B].CR1
 1168 0368 92B2     		uxth	r2, r2	@ _27, MEM[(struct TIM_TypeDef *)1073741824B].CR1
 1169 036a 42F00102 		orr	r2, r2, #1	@ _28, _27,
 1170 036e 1A80     		strh	r2, [r3]	@ movhi	@ _28, MEM[(struct TIM_TypeDef *)1073741824B].CR1
 159:../2-filas/main.c ****    TIM2->CCR1 = 00;
 1171              		.loc 1 159 4 is_stmt 1 view .LVU295
 1172              	@ ../2-filas/main.c:159:    TIM2->CCR1 = 00;
 1173              		.loc 1 159 15 is_stmt 0 view .LVU296
 1174 0370 0022     		movs	r2, #0	@ tmp210,
 1175 0372 9A86     		strh	r2, [r3, #52]	@ movhi	@ tmp210, MEM[(struct TIM_TypeDef *)1073741824B].CCR1
 1176              	@ ../2-filas/main.c:160: }
 160:../2-filas/main.c **** }
 1177              		.loc 1 160 1 view .LVU297
 1178 0374 7047     		bx	lr	@
ARM GAS  /tmp/cc8bNYNB.s 			page 30


 1179              	.L65:
 1180 0376 00BF     		.align	2
 1181              	.L64:
 1182 0378 00100240 		.word	1073876992
 1183 037c 00080140 		.word	1073809408
 1184 0380 00000140 		.word	1073807360
 1185              		.cfi_endproc
 1186              	.LFE46:
 1187              		.size	configure_PWM_TIM2, .-configure_PWM_TIM2
 1188              		.align	1
 1189              		.global	usart_init
 1190              		.syntax unified
 1191              		.thumb
 1192              		.thumb_func
 1193              		.type	usart_init, %function
 1194              	usart_init:
 1195              	.LFB47:
 161:../2-filas/main.c **** 
 162:../2-filas/main.c **** 
 163:../2-filas/main.c **** void usart_init(void) {
 1196              		.loc 1 163 23 is_stmt 1 view -0
 1197              		.cfi_startproc
 1198              		@ args = 0, pretend = 0, frame = 24
 1199              		@ frame_needed = 0, uses_anonymous_args = 0
 164:../2-filas/main.c **** 	/* Enable USART1 and GPIOA clock */
 165:../2-filas/main.c **** 	RCC_APB2PeriphClockCmd(RCC_APB2Periph_USART1 | RCC_APB2Periph_GPIOA, ENABLE);
 1200              		.loc 1 165 2 view .LVU299
 1201              	@ ../2-filas/main.c:163: void usart_init(void) {
 163:../2-filas/main.c **** 	/* Enable USART1 and GPIOA clock */
 1202              		.loc 1 163 23 is_stmt 0 view .LVU300
 1203 0384 10B5     		push	{r4, lr}	@
 1204              	.LCFI7:
 1205              		.cfi_def_cfa_offset 8
 1206              		.cfi_offset 4, -8
 1207              		.cfi_offset 14, -4
 1208              	@ ../2-filas/main.c:165: 	RCC_APB2PeriphClockCmd(RCC_APB2Periph_USART1 | RCC_APB2Periph_GPIOA, ENAB
 1209              		.loc 1 165 2 view .LVU301
 1210 0386 0121     		movs	r1, #1	@,
 1211              	@ ../2-filas/main.c:163: void usart_init(void) {
 163:../2-filas/main.c **** 	/* Enable USART1 and GPIOA clock */
 1212              		.loc 1 163 23 view .LVU302
 1213 0388 86B0     		sub	sp, sp, #24	@,,
 1214              	.LCFI8:
 1215              		.cfi_def_cfa_offset 32
 1216              	@ ../2-filas/main.c:165: 	RCC_APB2PeriphClockCmd(RCC_APB2Periph_USART1 | RCC_APB2Periph_GPIOA, ENAB
 1217              		.loc 1 165 2 view .LVU303
 1218 038a 44F20400 		movw	r0, #16388	@,
 1219 038e FFF7FEFF 		bl	RCC_APB2PeriphClockCmd		@
 1220              	.LVL49:
 166:../2-filas/main.c **** 
 167:../2-filas/main.c **** 	/* Configure the GPIOs */
 168:../2-filas/main.c **** 	//GPIO_Configuration();
 169:../2-filas/main.c **** 	GPIO_InitTypeDef GPIO_InitStructure;
 1221              		.loc 1 169 2 is_stmt 1 view .LVU304
 170:../2-filas/main.c **** 
 171:../2-filas/main.c **** 	/* Configure USART1 Tx (PA.09) as alternate function push-pull */
 172:../2-filas/main.c **** 	GPIO_InitStructure.GPIO_Pin = GPIO_Pin_9;
ARM GAS  /tmp/cc8bNYNB.s 			page 31


 1222              		.loc 1 172 2 view .LVU305
 173:../2-filas/main.c **** 	GPIO_InitStructure.GPIO_Mode = GPIO_Mode_AF_PP;
 1223              		.loc 1 173 2 view .LVU306
 174:../2-filas/main.c **** 	GPIO_InitStructure.GPIO_Speed = GPIO_Speed_50MHz;
 1224              		.loc 1 174 2 view .LVU307
 1225              	@ ../2-filas/main.c:172: 	GPIO_InitStructure.GPIO_Pin = GPIO_Pin_9;
 172:../2-filas/main.c **** 	GPIO_InitStructure.GPIO_Mode = GPIO_Mode_AF_PP;
 1226              		.loc 1 172 30 is_stmt 0 view .LVU308
 1227 0392 4FF40073 		mov	r3, #512	@ tmp114,
 1228 0396 ADF80430 		strh	r3, [sp, #4]	@ movhi	@ tmp114, GPIO_InitStructure.GPIO_Pin
 1229              	@ ../2-filas/main.c:174: 	GPIO_InitStructure.GPIO_Speed = GPIO_Speed_50MHz;
 1230              		.loc 1 174 32 view .LVU309
 1231 039a 41F60303 		movw	r3, #6147	@ tmp116,
 1232              	@ ../2-filas/main.c:175: 	GPIO_Init(GPIOA, &GPIO_InitStructure);
 175:../2-filas/main.c **** 	GPIO_Init(GPIOA, &GPIO_InitStructure);
 1233              		.loc 1 175 2 view .LVU310
 1234 039e 144C     		ldr	r4, .L67	@ tmp118,
 1235 03a0 01A9     		add	r1, sp, #4	@ tmp134,,
 1236 03a2 2046     		mov	r0, r4	@, tmp118
 1237              	@ ../2-filas/main.c:174: 	GPIO_InitStructure.GPIO_Speed = GPIO_Speed_50MHz;
 174:../2-filas/main.c **** 	GPIO_InitStructure.GPIO_Speed = GPIO_Speed_50MHz;
 1238              		.loc 1 174 32 view .LVU311
 1239 03a4 ADF80630 		strh	r3, [sp, #6]	@ movhi	@ tmp116, MEM <unsigned short> [(void *)&GPIO_InitStructure + 2B]
 1240              		.loc 1 175 2 is_stmt 1 view .LVU312
 1241 03a8 FFF7FEFF 		bl	GPIO_Init		@
 1242              	.LVL50:
 176:../2-filas/main.c **** 
 177:../2-filas/main.c **** 	/* Configure USART1 Rx (PA.10) as input floating */
 178:../2-filas/main.c **** 	GPIO_InitStructure.GPIO_Pin = GPIO_Pin_10;
 1243              		.loc 1 178 2 view .LVU313
 1244              	@ ../2-filas/main.c:178: 	GPIO_InitStructure.GPIO_Pin = GPIO_Pin_10;
 1245              		.loc 1 178 30 is_stmt 0 view .LVU314
 1246 03ac 4FF48063 		mov	r3, #1024	@ tmp120,
 1247 03b0 ADF80430 		strh	r3, [sp, #4]	@ movhi	@ tmp120, GPIO_InitStructure.GPIO_Pin
 179:../2-filas/main.c **** 	GPIO_InitStructure.GPIO_Mode = GPIO_Mode_IN_FLOATING;
 1248              		.loc 1 179 2 is_stmt 1 view .LVU315
 1249              	@ ../2-filas/main.c:179: 	GPIO_InitStructure.GPIO_Mode = GPIO_Mode_IN_FLOATING;
 1250              		.loc 1 179 31 is_stmt 0 view .LVU316
 1251 03b4 0423     		movs	r3, #4	@ tmp121,
 1252              	@ ../2-filas/main.c:180: 	GPIO_Init(GPIOA, &GPIO_InitStructure);
 180:../2-filas/main.c **** 	GPIO_Init(GPIOA, &GPIO_InitStructure);
 1253              		.loc 1 180 2 view .LVU317
 1254 03b6 2046     		mov	r0, r4	@, tmp118
 1255 03b8 0DEB0301 		add	r1, sp, r3	@ tmp135,,
 1256              	@ ../2-filas/main.c:179: 	GPIO_InitStructure.GPIO_Mode = GPIO_Mode_IN_FLOATING;
 179:../2-filas/main.c **** 	GPIO_InitStructure.GPIO_Mode = GPIO_Mode_IN_FLOATING;
 1257              		.loc 1 179 31 view .LVU318
 1258 03bc 8DF80730 		strb	r3, [sp, #7]	@ tmp121, GPIO_InitStructure.GPIO_Mode
 1259              		.loc 1 180 2 is_stmt 1 view .LVU319
 1260 03c0 FFF7FEFF 		bl	GPIO_Init		@
 1261              	.LVL51:
 181:../2-filas/main.c **** 
 182:../2-filas/main.c **** 	/* Configure the USART1 */
 183:../2-filas/main.c **** 	//USART_Configuration();
 184:../2-filas/main.c **** 	USART_InitTypeDef USART_InitStructure;
 1262              		.loc 1 184 2 view .LVU320
 185:../2-filas/main.c **** 
ARM GAS  /tmp/cc8bNYNB.s 			page 32


 186:../2-filas/main.c **** 	/* USART1 configuration ------------------------------------------------------*/
 187:../2-filas/main.c **** 	/* USART1 configured as follow:
 188:../2-filas/main.c **** 	          - BaudRate = 115200 baud
 189:../2-filas/main.c **** 	          - Word Length = 8 Bits
 190:../2-filas/main.c **** 	          - One Stop Bit
 191:../2-filas/main.c **** 	          - No parity
 192:../2-filas/main.c **** 	          - Hardware flow control disabled (RTS and CTS signals)
 193:../2-filas/main.c **** 	          - Receive and transmit enabled
 194:../2-filas/main.c **** 	          - USART Clock disabled
 195:../2-filas/main.c **** 	          - USART CPOL: Clock is active low
 196:../2-filas/main.c **** 	          - USART CPHA: Data is captured on the middle
 197:../2-filas/main.c **** 	          - USART LastBit: The clock pulse of the last data bit is not output to
 198:../2-filas/main.c **** 	                           the SCLK pin
 199:../2-filas/main.c **** 	 */
 200:../2-filas/main.c **** 	USART_InitStructure.USART_BaudRate = 115200;
 1263              		.loc 1 200 2 view .LVU321
 201:../2-filas/main.c **** 	USART_InitStructure.USART_WordLength = USART_WordLength_8b;
 1264              		.loc 1 201 2 view .LVU322
 202:../2-filas/main.c **** 	USART_InitStructure.USART_StopBits = USART_StopBits_1;
 1265              		.loc 1 202 2 view .LVU323
 203:../2-filas/main.c **** 	USART_InitStructure.USART_Parity = USART_Parity_No;
 1266              		.loc 1 203 2 view .LVU324
 204:../2-filas/main.c **** 	USART_InitStructure.USART_HardwareFlowControl = USART_HardwareFlowControl_None;
 1267              		.loc 1 204 2 view .LVU325
 205:../2-filas/main.c **** 	USART_InitStructure.USART_Mode = USART_Mode_Rx | USART_Mode_Tx;
 1268              		.loc 1 205 2 view .LVU326
 1269              	@ ../2-filas/main.c:201: 	USART_InitStructure.USART_WordLength = USART_WordLength_8b;
 201:../2-filas/main.c **** 	USART_InitStructure.USART_StopBits = USART_StopBits_1;
 1270              		.loc 1 201 39 is_stmt 0 view .LVU327
 1271 03c4 0023     		movs	r3, #0	@ tmp126,
 1272 03c6 4FF4E132 		mov	r2, #115200	@,
 1273 03ca CDE90223 		strd	r2, r3, [sp, #8]	@, tmp126,,
 1274              	@ ../2-filas/main.c:203: 	USART_InitStructure.USART_Parity = USART_Parity_No;
 203:../2-filas/main.c **** 	USART_InitStructure.USART_HardwareFlowControl = USART_HardwareFlowControl_None;
 1275              		.loc 1 203 35 view .LVU328
 1276 03ce 4FF44022 		mov	r2, #786432	@ tmp127,
 1277              	@ ../2-filas/main.c:207: 	USART_Init(USART1, &USART_InitStructure);
 206:../2-filas/main.c **** 
 207:../2-filas/main.c **** 	USART_Init(USART1, &USART_InitStructure);
 1278              		.loc 1 207 2 view .LVU329
 1279 03d2 04F54054 		add	r4, r4, #12288	@ tmp131, tmp131,
 1280 03d6 2046     		mov	r0, r4	@, tmp131
 1281 03d8 02A9     		add	r1, sp, #8	@,,
 1282              	@ ../2-filas/main.c:203: 	USART_InitStructure.USART_Parity = USART_Parity_No;
 203:../2-filas/main.c **** 	USART_InitStructure.USART_HardwareFlowControl = USART_HardwareFlowControl_None;
 1283              		.loc 1 203 35 view .LVU330
 1284 03da 0492     		str	r2, [sp, #16]	@ tmp127, MEM <unsigned int> [(short unsigned int *)&USART_InitStructure + 8B]
 1285              	@ ../2-filas/main.c:204: 	USART_InitStructure.USART_HardwareFlowControl = USART_HardwareFlowControl
 204:../2-filas/main.c **** 	USART_InitStructure.USART_Mode = USART_Mode_Rx | USART_Mode_Tx;
 1286              		.loc 1 204 48 view .LVU331
 1287 03dc ADF81430 		strh	r3, [sp, #20]	@ movhi	@ tmp126, USART_InitStructure.USART_HardwareFlowControl
 1288              		.loc 1 207 2 is_stmt 1 view .LVU332
 1289 03e0 FFF7FEFF 		bl	USART_Init		@
 1290              	.LVL52:
 208:../2-filas/main.c **** 
 209:../2-filas/main.c **** 	/* Enable USART1 */
 210:../2-filas/main.c **** 	USART_Cmd(USART1, ENABLE);
ARM GAS  /tmp/cc8bNYNB.s 			page 33


 1291              		.loc 1 210 2 view .LVU333
 1292 03e4 0121     		movs	r1, #1	@,
 1293 03e6 2046     		mov	r0, r4	@, tmp131
 1294 03e8 FFF7FEFF 		bl	USART_Cmd		@
 1295              	.LVL53:
 1296              	@ ../2-filas/main.c:215: }
 211:../2-filas/main.c **** 
 212:../2-filas/main.c **** 	/* Enable the USART1 Receive interrupt: this interrupt is generated when the
 213:../2-filas/main.c **** 		USART1 receive data register is not empty */
 214:../2-filas/main.c **** 	//USART_ITConfig(USART1, USART_IT_RXNE, ENABLE);
 215:../2-filas/main.c **** }
 1297              		.loc 1 215 1 is_stmt 0 view .LVU334
 1298 03ec 06B0     		add	sp, sp, #24	@,,
 1299              	.LCFI9:
 1300              		.cfi_def_cfa_offset 8
 1301              		@ sp needed	@
 1302 03ee 10BD     		pop	{r4, pc}	@
 1303              	.L68:
 1304              		.align	2
 1305              	.L67:
 1306 03f0 00080140 		.word	1073809408
 1307              		.cfi_endproc
 1308              	.LFE47:
 1309              		.size	usart_init, .-usart_init
 1310              		.section	.rodata.str1.1,"aMS",%progbits,1
 1311              	.LC0:
 1312 0000 50574D5F 		.ascii	"PWM_Control\000"
 1312      436F6E74 
 1312      726F6C00 
 1313              	.LC1:
 1314 000c 4144435F 		.ascii	"ADC_Read\000"
 1314      52656164 
 1314      00
 1315              	.LC2:
 1316 0015 4C65645F 		.ascii	"Led_C13\000"
 1316      43313300 
 1317              		.section	.text.startup,"ax",%progbits
 1318              		.align	1
 1319              		.global	main
 1320              		.syntax unified
 1321              		.thumb
 1322              		.thumb_func
 1323              		.type	main, %function
 1324              	main:
 1325              	.LFB45:
 105:../2-filas/main.c **** 	xQueue = xQueueCreate(5 /* Tamanho máximo da fila. */,
 1326              		.loc 1 105 16 is_stmt 1 view -0
 1327              		.cfi_startproc
 1328              		@ Volatile: function does not return.
 1329              		@ args = 0, pretend = 0, frame = 0
 1330              		@ frame_needed = 0, uses_anonymous_args = 0
 106:../2-filas/main.c **** 								sizeof(u32) /* Largura máxima da fila. */);
 1331              		.loc 1 106 2 view .LVU336
 1332              	@ ../2-filas/main.c:105: int main(void) {
 105:../2-filas/main.c **** 	xQueue = xQueueCreate(5 /* Tamanho máximo da fila. */,
 1333              		.loc 1 105 16 is_stmt 0 view .LVU337
 1334 0000 07B5     		push	{r0, r1, r2, lr}	@
ARM GAS  /tmp/cc8bNYNB.s 			page 34


 1335              	.LCFI10:
 1336              		.cfi_def_cfa_offset 16
 1337              		.cfi_offset 14, -4
 1338              	@ ../2-filas/main.c:106: 	xQueue = xQueueCreate(5 /* Tamanho máximo da fila. */,
 106:../2-filas/main.c **** 								sizeof(u32) /* Largura máxima da fila. */);
 1339              		.loc 1 106 11 view .LVU338
 1340 0002 0022     		movs	r2, #0	@,
 1341 0004 0421     		movs	r1, #4	@,
 1342 0006 0520     		movs	r0, #5	@,
 1343 0008 FFF7FEFF 		bl	xQueueGenericCreate		@
 1344              	.LVL54:
 1345              	@ ../2-filas/main.c:120: 	xTaskCreate(task1,"PWM_Control", 100 ,NULL, 4 ,NULL);
 120:../2-filas/main.c **** 	xTaskCreate(task2, "ADC_Read", 200 , NULL, 4 , NULL);
 1346              		.loc 1 120 2 view .LVU339
 1347 000c 0024     		movs	r4, #0	@ tmp134,
 1348 000e 0425     		movs	r5, #4	@ tmp135,
 1349              	@ ../2-filas/main.c:106: 	xQueue = xQueueCreate(5 /* Tamanho máximo da fila. */,
 106:../2-filas/main.c **** 								sizeof(u32) /* Largura máxima da fila. */);
 1350              		.loc 1 106 9 view .LVU340
 1351 0010 1A4B     		ldr	r3, .L71	@ tmp123,
 1352 0012 1860     		str	r0, [r3]	@ tmp144, xQueue
 109:../2-filas/main.c **** 
 1353              		.loc 1 109 2 is_stmt 1 view .LVU341
 1354 0014 FFF7FEFF 		bl	set_system_clock_to_72Mhz		@
 1355              	.LVL55:
 111:../2-filas/main.c **** 	GPIOC->CRH |= 0b11 << 20;
 1356              		.loc 1 111 2 view .LVU342
 1357              	@ ../2-filas/main.c:111: 	RCC->APB2ENR |= 0x7<<2 ; // Hab. GPIO A,B,C
 111:../2-filas/main.c **** 	GPIOC->CRH |= 0b11 << 20;
 1358              		.loc 1 111 15 is_stmt 0 view .LVU343
 1359 0018 194A     		ldr	r2, .L71+4	@ tmp124,
 1360 001a 9369     		ldr	r3, [r2, #24]	@ _2, MEM[(struct RCC_TypeDef *)1073876992B].APB2ENR
 1361 001c 43F01C03 		orr	r3, r3, #28	@ _3, _2,
 1362 0020 9361     		str	r3, [r2, #24]	@ _3, MEM[(struct RCC_TypeDef *)1073876992B].APB2ENR
 112:../2-filas/main.c **** 
 1363              		.loc 1 112 2 is_stmt 1 view .LVU344
 1364              	@ ../2-filas/main.c:112: 	GPIOC->CRH |= 0b11 << 20;
 112:../2-filas/main.c **** 
 1365              		.loc 1 112 13 is_stmt 0 view .LVU345
 1366 0022 184B     		ldr	r3, .L71+8	@ tmp126,
 1367 0024 5968     		ldr	r1, [r3, #4]	@ _4, MEM[(struct GPIO_TypeDef *)1073811456B].CRH
 1368 0026 41F44011 		orr	r1, r1, #3145728	@ _5, _4,
 1369 002a 5960     		str	r1, [r3, #4]	@ _5, MEM[(struct GPIO_TypeDef *)1073811456B].CRH
 114:../2-filas/main.c **** 	GPIOC->CRH |= 0b11 << 20;
 1370              		.loc 1 114 2 is_stmt 1 view .LVU346
 1371              	@ ../2-filas/main.c:114: 	RCC->APB2ENR |= 0b1<<4 ;
 114:../2-filas/main.c **** 	GPIOC->CRH |= 0b11 << 20;
 1372              		.loc 1 114 15 is_stmt 0 view .LVU347
 1373 002c 9169     		ldr	r1, [r2, #24]	@ _6, MEM[(struct RCC_TypeDef *)1073876992B].APB2ENR
 1374 002e 41F01001 		orr	r1, r1, #16	@ _7, _6,
 1375 0032 9161     		str	r1, [r2, #24]	@ _7, MEM[(struct RCC_TypeDef *)1073876992B].APB2ENR
 115:../2-filas/main.c **** 
 1376              		.loc 1 115 2 is_stmt 1 view .LVU348
 1377              	@ ../2-filas/main.c:115: 	GPIOC->CRH |= 0b11 << 20;
 115:../2-filas/main.c **** 
 1378              		.loc 1 115 13 is_stmt 0 view .LVU349
 1379 0034 5A68     		ldr	r2, [r3, #4]	@ _8, MEM[(struct GPIO_TypeDef *)1073811456B].CRH
ARM GAS  /tmp/cc8bNYNB.s 			page 35


 1380 0036 42F44012 		orr	r2, r2, #3145728	@ _9, _8,
 1381 003a 5A60     		str	r2, [r3, #4]	@ _9, MEM[(struct GPIO_TypeDef *)1073811456B].CRH
 117:../2-filas/main.c **** 	 usart_init();
 1382              		.loc 1 117 2 is_stmt 1 view .LVU350
 1383 003c FFF7FEFF 		bl	configure_PWM_TIM2		@
 1384              	.LVL56:
 118:../2-filas/main.c **** 
 1385              		.loc 1 118 3 view .LVU351
 1386 0040 FFF7FEFF 		bl	usart_init		@
 1387              	.LVL57:
 120:../2-filas/main.c **** 	xTaskCreate(task2, "ADC_Read", 200 , NULL, 4 , NULL);
 1388              		.loc 1 120 2 view .LVU352
 1389 0044 2346     		mov	r3, r4	@, tmp134
 1390 0046 6422     		movs	r2, #100	@,
 1391 0048 0F49     		ldr	r1, .L71+12	@,
 1392 004a CDE90054 		strd	r5, r4, [sp]	@ tmp135, tmp134,
 1393 004e 0F48     		ldr	r0, .L71+16	@,
 1394 0050 FFF7FEFF 		bl	xTaskCreate		@
 1395              	.LVL58:
 121:../2-filas/main.c **** 	xTaskCreate(task3, "Led_C13", 100 , NULL, 4 , NULL);
 1396              		.loc 1 121 2 view .LVU353
 1397 0054 2346     		mov	r3, r4	@, tmp134
 1398 0056 C822     		movs	r2, #200	@,
 1399 0058 0D49     		ldr	r1, .L71+20	@,
 1400 005a CDE90054 		strd	r5, r4, [sp]	@ tmp135, tmp134,
 1401 005e 0D48     		ldr	r0, .L71+24	@,
 1402 0060 FFF7FEFF 		bl	xTaskCreate		@
 1403              	.LVL59:
 122:../2-filas/main.c **** 
 1404              		.loc 1 122 2 view .LVU354
 1405 0064 2346     		mov	r3, r4	@, tmp134
 1406 0066 6422     		movs	r2, #100	@,
 1407 0068 0B49     		ldr	r1, .L71+28	@,
 1408 006a CDE90054 		strd	r5, r4, [sp]	@ tmp135, tmp134,
 1409 006e 0B48     		ldr	r0, .L71+32	@,
 1410 0070 FFF7FEFF 		bl	xTaskCreate		@
 1411              	.LVL60:
 124:../2-filas/main.c **** 								  // processos.
 1412              		.loc 1 124 2 view .LVU355
 1413 0074 FFF7FEFF 		bl	vTaskStartScheduler		@
 1414              	.LVL61:
 1415              	.L70:
 126:../2-filas/main.c **** 	return 0;
 1416              		.loc 1 126 2 discriminator 1 view .LVU356
 126:../2-filas/main.c **** 	return 0;
 1417              		.loc 1 126 10 discriminator 1 view .LVU357
 126:../2-filas/main.c **** 	return 0;
 1418              		.loc 1 126 7 discriminator 1 view .LVU358
 1419 0078 FEE7     		b	.L70		@
 1420              	.L72:
 1421 007a 00BF     		.align	2
 1422              	.L71:
 1423 007c 00000000 		.word	.LANCHOR0
 1424 0080 00100240 		.word	1073876992
 1425 0084 00100140 		.word	1073811456
 1426 0088 00000000 		.word	.LC0
 1427 008c 00000000 		.word	task1
ARM GAS  /tmp/cc8bNYNB.s 			page 36


 1428 0090 0C000000 		.word	.LC1
 1429 0094 00000000 		.word	task2
 1430 0098 15000000 		.word	.LC2
 1431 009c 00000000 		.word	task3
 1432              		.cfi_endproc
 1433              	.LFE45:
 1434              		.size	main, .-main
 1435              		.text
 1436              		.align	1
 1437              		.global	USARTSend
 1438              		.syntax unified
 1439              		.thumb
 1440              		.thumb_func
 1441              		.type	USARTSend, %function
 1442              	USARTSend:
 1443              	.LVL62:
 1444              	.LFB48:
 216:../2-filas/main.c **** 
 217:../2-filas/main.c **** void USARTSend(char *pucBuffer) {
 1445              		.loc 1 217 33 view -0
 1446              		.cfi_startproc
 1447              		@ args = 0, pretend = 0, frame = 0
 1448              		@ frame_needed = 0, uses_anonymous_args = 0
 218:../2-filas/main.c ****     while (*pucBuffer)
 1449              		.loc 1 218 5 view .LVU360
 1450              	@ ../2-filas/main.c:217: void USARTSend(char *pucBuffer) {
 217:../2-filas/main.c ****     while (*pucBuffer)
 1451              		.loc 1 217 33 is_stmt 0 view .LVU361
 1452 03f4 38B5     		push	{r3, r4, r5, lr}	@
 1453              	.LCFI11:
 1454              		.cfi_def_cfa_offset 16
 1455              		.cfi_offset 3, -16
 1456              		.cfi_offset 4, -12
 1457              		.cfi_offset 5, -8
 1458              		.cfi_offset 14, -4
 1459              	@ ../2-filas/main.c:220:         USART_SendData(USART1, *pucBuffer++);
 219:../2-filas/main.c ****     {
 220:../2-filas/main.c ****         USART_SendData(USART1, *pucBuffer++);
 1460              		.loc 1 220 9 view .LVU362
 1461 03f6 084D     		ldr	r5, .L79	@ tmp126,
 1462 03f8 441E     		subs	r4, r0, #1	@ ivtmp.106, tmp128,
 1463              	.LVL63:
 1464              	.L74:
 218:../2-filas/main.c ****     {
 1465              		.loc 1 218 11 is_stmt 1 view .LVU363
 1466              	@ ../2-filas/main.c:218:     while (*pucBuffer)
 218:../2-filas/main.c ****     {
 1467              		.loc 1 218 12 is_stmt 0 view .LVU364
 1468 03fa 14F8011F 		ldrb	r1, [r4, #1]!	@ zero_extendqisi2	@ _3, MEM[base: _16, offset: 0B]
 1469              	.LVL64:
 1470              	@ ../2-filas/main.c:218:     while (*pucBuffer)
 218:../2-filas/main.c ****     {
 1471              		.loc 1 218 11 view .LVU365
 1472 03fe 01B9     		cbnz	r1, .L76	@ _3,
 1473              	@ ../2-filas/main.c:225: }
 221:../2-filas/main.c ****         while(USART_GetFlagStatus(USART1, USART_FLAG_TC) == RESET)
 222:../2-filas/main.c ****         {
ARM GAS  /tmp/cc8bNYNB.s 			page 37


 223:../2-filas/main.c ****         }
 224:../2-filas/main.c ****     }
 225:../2-filas/main.c **** }
 1474              		.loc 1 225 1 view .LVU366
 1475 0400 38BD     		pop	{r3, r4, r5, pc}	@
 1476              	.LVL65:
 1477              	.L76:
 220:../2-filas/main.c ****         while(USART_GetFlagStatus(USART1, USART_FLAG_TC) == RESET)
 1478              		.loc 1 220 9 is_stmt 1 view .LVU367
 220:../2-filas/main.c ****         while(USART_GetFlagStatus(USART1, USART_FLAG_TC) == RESET)
 1479              		.loc 1 220 9 is_stmt 0 view .LVU368
 1480 0402 2846     		mov	r0, r5	@, tmp126
 1481 0404 FFF7FEFF 		bl	USART_SendData		@
 1482              	.LVL66:
 221:../2-filas/main.c ****         while(USART_GetFlagStatus(USART1, USART_FLAG_TC) == RESET)
 1483              		.loc 1 221 9 is_stmt 1 view .LVU369
 1484              	.L75:
 223:../2-filas/main.c ****     }
 1485              		.loc 1 223 9 discriminator 1 view .LVU370
 221:../2-filas/main.c ****         while(USART_GetFlagStatus(USART1, USART_FLAG_TC) == RESET)
 1486              		.loc 1 221 14 discriminator 1 view .LVU371
 1487              	@ ../2-filas/main.c:221:         while(USART_GetFlagStatus(USART1, USART_FLAG_TC) == RESET)
 221:../2-filas/main.c ****         while(USART_GetFlagStatus(USART1, USART_FLAG_TC) == RESET)
 1488              		.loc 1 221 15 is_stmt 0 discriminator 1 view .LVU372
 1489 0408 4021     		movs	r1, #64	@,
 1490 040a 2846     		mov	r0, r5	@, tmp126
 1491 040c FFF7FEFF 		bl	USART_GetFlagStatus		@
 1492              	.LVL67:
 1493              	@ ../2-filas/main.c:221:         while(USART_GetFlagStatus(USART1, USART_FLAG_TC) == RESET)
 221:../2-filas/main.c ****         while(USART_GetFlagStatus(USART1, USART_FLAG_TC) == RESET)
 1494              		.loc 1 221 14 discriminator 1 view .LVU373
 1495 0410 0028     		cmp	r0, #0	@ tmp129
 1496 0412 F9D0     		beq	.L75	@
 1497 0414 F1E7     		b	.L74		@
 1498              	.L80:
 1499 0416 00BF     		.align	2
 1500              	.L79:
 1501 0418 00380140 		.word	1073821696
 1502              		.cfi_endproc
 1503              	.LFE48:
 1504              		.size	USARTSend, .-USARTSend
 1505              		.global	__aeabi_ui2f
 1506              		.global	__aeabi_fdiv
 1507              		.section	.rodata.str1.1
 1508              	.LC3:
 1509 001d 25290D0A 		.ascii	"%)\015\012Valor de Duty Cicle= (\000"
 1509      56616C6F 
 1509      72206465 
 1509      20447574 
 1509      79204369 
 1510              		.text
 1511              		.align	1
 1512              		.syntax unified
 1513              		.thumb
 1514              		.thumb_func
 1515              		.type	task2, %function
 1516              	task2:
ARM GAS  /tmp/cc8bNYNB.s 			page 38


 1517              	.LVL68:
 1518              	.LFB43:
  68:../2-filas/main.c **** 	u16 dd; 
 1519              		.loc 1 68 53 is_stmt 1 view -0
 1520              		.cfi_startproc
 1521              		@ Volatile: function does not return.
 1522              		@ args = 0, pretend = 0, frame = 16
 1523              		@ frame_needed = 0, uses_anonymous_args = 0
  68:../2-filas/main.c **** 	u16 dd; 
 1524              		.loc 1 68 53 is_stmt 0 view .LVU375
 1525 041c 1FB5     		push	{r0, r1, r2, r3, r4, lr}	@
 1526              	.LCFI12:
 1527              		.cfi_def_cfa_offset 24
 1528              		.cfi_offset 14, -4
 1529              	@ ../2-filas/main.c:73: 		if(xQueueReceive(xQueue, &dd, pdMS_TO_TICKS(10))){
  73:../2-filas/main.c **** 			floatToString((float) dd/con *100, info, 4); 
 1530              		.loc 1 73 6 view .LVU376
 1531 041e 104E     		ldr	r6, .L86	@ tmp121,
 1532              	@ ../2-filas/main.c:74: 			floatToString((float) dd/con *100, info, 4); 
  74:../2-filas/main.c **** 			USARTSend("%)\r\nValor de Duty Cicle= (");
 1533              		.loc 1 74 28 view .LVU377
 1534 0420 104D     		ldr	r5, .L86+4	@ tmp130,
 1535              	@ ../2-filas/main.c:74: 			floatToString((float) dd/con *100, info, 4); 
  74:../2-filas/main.c **** 			USARTSend("%)\r\nValor de Duty Cicle= (");
 1536              		.loc 1 74 4 view .LVU378
 1537 0422 114C     		ldr	r4, .L86+8	@ tmp131,
 1538              	.LVL69:
 1539              	.L82:
  69:../2-filas/main.c **** 	char info[10] ;
 1540              		.loc 1 69 2 is_stmt 1 view .LVU379
  70:../2-filas/main.c **** 
 1541              		.loc 1 70 2 view .LVU380
  72:../2-filas/main.c **** 		if(xQueueReceive(xQueue, &dd, pdMS_TO_TICKS(10))){
 1542              		.loc 1 72 2 view .LVU381
  73:../2-filas/main.c **** 			floatToString((float) dd/con *100, info, 4); 
 1543              		.loc 1 73 3 view .LVU382
 1544              	@ ../2-filas/main.c:73: 		if(xQueueReceive(xQueue, &dd, pdMS_TO_TICKS(10))){
  73:../2-filas/main.c **** 			floatToString((float) dd/con *100, info, 4); 
 1545              		.loc 1 73 6 is_stmt 0 view .LVU383
 1546 0424 0A22     		movs	r2, #10	@,
 1547 0426 3068     		ldr	r0, [r6]	@, xQueue
 1548 0428 0DF10201 		add	r1, sp, #2	@ tmp134,,
 1549 042c FFF7FEFF 		bl	xQueueReceive		@
 1550              	.LVL70:
 1551              	@ ../2-filas/main.c:73: 		if(xQueueReceive(xQueue, &dd, pdMS_TO_TICKS(10))){
  73:../2-filas/main.c **** 			floatToString((float) dd/con *100, info, 4); 
 1552              		.loc 1 73 5 view .LVU384
 1553 0430 0028     		cmp	r0, #0	@ tmp132
 1554 0432 F7D0     		beq	.L82	@
  74:../2-filas/main.c **** 			USARTSend("%)\r\nValor de Duty Cicle= (");
 1555              		.loc 1 74 4 is_stmt 1 view .LVU385
 1556              	@ ../2-filas/main.c:74: 			floatToString((float) dd/con *100, info, 4); 
  74:../2-filas/main.c **** 			USARTSend("%)\r\nValor de Duty Cicle= (");
 1557              		.loc 1 74 18 is_stmt 0 view .LVU386
 1558 0434 BDF80200 		ldrh	r0, [sp, #2]	@, dd
 1559 0438 FFF7FEFF 		bl	__aeabi_ui2f		@
 1560              	.LVL71:
ARM GAS  /tmp/cc8bNYNB.s 			page 39


 1561              	@ ../2-filas/main.c:74: 			floatToString((float) dd/con *100, info, 4); 
  74:../2-filas/main.c **** 			USARTSend("%)\r\nValor de Duty Cicle= (");
 1562              		.loc 1 74 28 view .LVU387
 1563 043c 2946     		mov	r1, r5	@, tmp130
 1564 043e FFF7FEFF 		bl	__aeabi_fdiv		@
 1565              	.LVL72:
 1566              	@ ../2-filas/main.c:74: 			floatToString((float) dd/con *100, info, 4); 
  74:../2-filas/main.c **** 			USARTSend("%)\r\nValor de Duty Cicle= (");
 1567              		.loc 1 74 4 view .LVU388
 1568 0442 2146     		mov	r1, r4	@, tmp131
 1569 0444 FFF7FEFF 		bl	__aeabi_fmul		@
 1570              	.LVL73:
 1571 0448 0422     		movs	r2, #4	@,
 1572 044a 0DEB0201 		add	r1, sp, r2	@ tmp135,,
 1573 044e FFF7FEFF 		bl	floatToString		@
 1574              	.LVL74:
  75:../2-filas/main.c **** 			USARTSend((char * ) &info);
 1575              		.loc 1 75 4 is_stmt 1 view .LVU389
 1576 0452 0648     		ldr	r0, .L86+12	@,
 1577 0454 FFF7FEFF 		bl	USARTSend		@
 1578              	.LVL75:
  76:../2-filas/main.c **** 		}
 1579              		.loc 1 76 4 view .LVU390
 1580 0458 01A8     		add	r0, sp, #4	@ tmp136,,
 1581 045a FFF7FEFF 		bl	USARTSend		@
 1582              	.LVL76:
 1583 045e E1E7     		b	.L82		@
 1584              	.L87:
 1585              		.align	2
 1586              	.L86:
 1587 0460 00000000 		.word	.LANCHOR0
 1588 0464 00F07F45 		.word	1166012416
 1589 0468 0000C842 		.word	1120403456
 1590 046c 1D000000 		.word	.LC3
 1591              		.cfi_endproc
 1592              	.LFE43:
 1593              		.size	task2, .-task2
 1594              		.bss
 1595              		.align	2
 1596              		.set	.LANCHOR0,. + 0
 1597              		.type	xQueue, %object
 1598              		.size	xQueue, 4
 1599              	xQueue:
 1600 0000 00000000 		.space	4
 1601              		.text
 1602              	.Letext0:
 1603              		.file 3 "../stm32f10x_lib/CMSIS/CM3/DeviceSupport/ST/STM32F10x/stm32f10x.h"
 1604              		.file 4 "/usr/arm-none-eabi/include/machine/_default_types.h"
 1605              		.file 5 "/usr/arm-none-eabi/include/sys/_stdint.h"
 1606              		.file 6 "../stm32f10x_lib/CMSIS/CM3/CoreSupport/core_cm3.h"
 1607              		.file 7 "../stm32f10x_lib/STM32F10x_StdPeriph_Driver/inc/stm32f10x_gpio.h"
 1608              		.file 8 "../stm32f10x_lib/STM32F10x_StdPeriph_Driver/inc/stm32f10x_usart.h"
 1609              		.file 9 "../freertos/portable/GCC/ARM_CM3/portmacro.h"
 1610              		.file 10 "../freertos/include/queue.h"
 1611              		.file 11 "../stm32f10x_lib/STM32F10x_StdPeriph_Driver/inc/stm32f10x_rcc.h"
 1612              		.file 12 "../freertos/include/task.h"
 1613              		.section	.debug_info,"",%progbits
ARM GAS  /tmp/cc8bNYNB.s 			page 40


 1614              	.Ldebug_info0:
 1615 0000 2B140000 		.4byte	0x142b
 1616 0004 0200     		.2byte	0x2
 1617 0006 00000000 		.4byte	.Ldebug_abbrev0
 1618 000a 04       		.byte	0x4
 1619 000b 01       		.uleb128 0x1
 1620 000c F3080000 		.4byte	.LASF227
 1621 0010 0C       		.byte	0xc
 1622 0011 A3020000 		.4byte	.LASF228
 1623 0015 96010000 		.4byte	.LASF229
 1624 0019 68000000 		.4byte	.Ldebug_ranges0+0x68
 1625 001d 00000000 		.4byte	0
 1626 0021 00000000 		.4byte	0
 1627 0025 00000000 		.4byte	.Ldebug_line0
 1628 0029 02       		.uleb128 0x2
 1629 002a 5A010000 		.4byte	.LASF201
 1630 002e 05       		.byte	0x5
 1631 002f 01       		.byte	0x1
 1632 0030 6E010000 		.4byte	0x16e
 1633 0034 03       		.byte	0x3
 1634 0035 A7       		.byte	0xa7
 1635 0036 0E       		.byte	0xe
 1636 0037 6E010000 		.4byte	0x16e
 1637 003b 03       		.uleb128 0x3
 1638 003c 9A040000 		.4byte	.LASF0
 1639 0040 72       		.sleb128 -14
 1640 0041 03       		.uleb128 0x3
 1641 0042 D2040000 		.4byte	.LASF1
 1642 0046 74       		.sleb128 -12
 1643 0047 03       		.uleb128 0x3
 1644 0048 60050000 		.4byte	.LASF2
 1645 004c 75       		.sleb128 -11
 1646 004d 03       		.uleb128 0x3
 1647 004e 24030000 		.4byte	.LASF3
 1648 0052 76       		.sleb128 -10
 1649 0053 03       		.uleb128 0x3
 1650 0054 C1050000 		.4byte	.LASF4
 1651 0058 7B       		.sleb128 -5
 1652 0059 03       		.uleb128 0x3
 1653 005a 2D080000 		.4byte	.LASF5
 1654 005e 7C       		.sleb128 -4
 1655 005f 03       		.uleb128 0x3
 1656 0060 820A0000 		.4byte	.LASF6
 1657 0064 7E       		.sleb128 -2
 1658 0065 03       		.uleb128 0x3
 1659 0066 CE010000 		.4byte	.LASF7
 1660 006a 7F       		.sleb128 -1
 1661 006b 04       		.uleb128 0x4
 1662 006c AE040000 		.4byte	.LASF8
 1663 0070 00       		.byte	0
 1664 0071 04       		.uleb128 0x4
 1665 0072 EA070000 		.4byte	.LASF9
 1666 0076 01       		.byte	0x1
 1667 0077 04       		.uleb128 0x4
 1668 0078 35010000 		.4byte	.LASF10
 1669 007c 02       		.byte	0x2
 1670 007d 04       		.uleb128 0x4
ARM GAS  /tmp/cc8bNYNB.s 			page 41


 1671 007e C00A0000 		.4byte	.LASF11
 1672 0082 03       		.byte	0x3
 1673 0083 04       		.uleb128 0x4
 1674 0084 95000000 		.4byte	.LASF12
 1675 0088 04       		.byte	0x4
 1676 0089 04       		.uleb128 0x4
 1677 008a 8B080000 		.4byte	.LASF13
 1678 008e 05       		.byte	0x5
 1679 008f 04       		.uleb128 0x4
 1680 0090 F3070000 		.4byte	.LASF14
 1681 0094 06       		.byte	0x6
 1682 0095 04       		.uleb128 0x4
 1683 0096 64040000 		.4byte	.LASF15
 1684 009a 07       		.byte	0x7
 1685 009b 04       		.uleb128 0x4
 1686 009c 09000000 		.4byte	.LASF16
 1687 00a0 08       		.byte	0x8
 1688 00a1 04       		.uleb128 0x4
 1689 00a2 770A0000 		.4byte	.LASF17
 1690 00a6 09       		.byte	0x9
 1691 00a7 04       		.uleb128 0x4
 1692 00a8 0D060000 		.4byte	.LASF18
 1693 00ac 0A       		.byte	0xa
 1694 00ad 04       		.uleb128 0x4
 1695 00ae EC020000 		.4byte	.LASF19
 1696 00b2 0B       		.byte	0xb
 1697 00b3 04       		.uleb128 0x4
 1698 00b4 B8090000 		.4byte	.LASF20
 1699 00b8 0C       		.byte	0xc
 1700 00b9 04       		.uleb128 0x4
 1701 00ba 5D080000 		.4byte	.LASF21
 1702 00be 0D       		.byte	0xd
 1703 00bf 04       		.uleb128 0x4
 1704 00c0 E8040000 		.4byte	.LASF22
 1705 00c4 0E       		.byte	0xe
 1706 00c5 04       		.uleb128 0x4
 1707 00c6 6A000000 		.4byte	.LASF23
 1708 00ca 0F       		.byte	0xf
 1709 00cb 04       		.uleb128 0x4
 1710 00cc A10A0000 		.4byte	.LASF24
 1711 00d0 10       		.byte	0x10
 1712 00d1 04       		.uleb128 0x4
 1713 00d2 4B060000 		.4byte	.LASF25
 1714 00d6 11       		.byte	0x11
 1715 00d7 04       		.uleb128 0x4
 1716 00d8 D9080000 		.4byte	.LASF26
 1717 00dc 12       		.byte	0x12
 1718 00dd 04       		.uleb128 0x4
 1719 00de 3A030000 		.4byte	.LASF27
 1720 00e2 13       		.byte	0x13
 1721 00e3 04       		.uleb128 0x4
 1722 00e4 48080000 		.4byte	.LASF28
 1723 00e8 14       		.byte	0x14
 1724 00e9 04       		.uleb128 0x4
 1725 00ea F4090000 		.4byte	.LASF29
 1726 00ee 15       		.byte	0x15
 1727 00ef 04       		.uleb128 0x4
ARM GAS  /tmp/cc8bNYNB.s 			page 42


 1728 00f0 00050000 		.4byte	.LASF30
 1729 00f4 16       		.byte	0x16
 1730 00f5 04       		.uleb128 0x4
 1731 00f6 2B0A0000 		.4byte	.LASF31
 1732 00fa 17       		.byte	0x17
 1733 00fb 04       		.uleb128 0x4
 1734 00fc FF020000 		.4byte	.LASF32
 1735 0100 18       		.byte	0x18
 1736 0101 04       		.uleb128 0x4
 1737 0102 E7090000 		.4byte	.LASF33
 1738 0106 19       		.byte	0x19
 1739 0107 04       		.uleb128 0x4
 1740 0108 A5060000 		.4byte	.LASF34
 1741 010c 1A       		.byte	0x1a
 1742 010d 04       		.uleb128 0x4
 1743 010e 57040000 		.4byte	.LASF35
 1744 0112 1B       		.byte	0x1b
 1745 0113 04       		.uleb128 0x4
 1746 0114 AF000000 		.4byte	.LASF36
 1747 0118 1C       		.byte	0x1c
 1748 0119 04       		.uleb128 0x4
 1749 011a 0E070000 		.4byte	.LASF37
 1750 011e 1D       		.byte	0x1d
 1751 011f 04       		.uleb128 0x4
 1752 0120 D9030000 		.4byte	.LASF38
 1753 0124 1E       		.byte	0x1e
 1754 0125 04       		.uleb128 0x4
 1755 0126 09040000 		.4byte	.LASF39
 1756 012a 1F       		.byte	0x1f
 1757 012b 04       		.uleb128 0x4
 1758 012c CB020000 		.4byte	.LASF40
 1759 0130 20       		.byte	0x20
 1760 0131 04       		.uleb128 0x4
 1761 0132 1E060000 		.4byte	.LASF41
 1762 0136 21       		.byte	0x21
 1763 0137 04       		.uleb128 0x4
 1764 0138 46050000 		.4byte	.LASF42
 1765 013c 22       		.byte	0x22
 1766 013d 04       		.uleb128 0x4
 1767 013e B0050000 		.4byte	.LASF43
 1768 0142 23       		.byte	0x23
 1769 0143 04       		.uleb128 0x4
 1770 0144 E1000000 		.4byte	.LASF44
 1771 0148 24       		.byte	0x24
 1772 0149 04       		.uleb128 0x4
 1773 014a 28070000 		.4byte	.LASF45
 1774 014e 25       		.byte	0x25
 1775 014f 04       		.uleb128 0x4
 1776 0150 E3030000 		.4byte	.LASF46
 1777 0154 26       		.byte	0x26
 1778 0155 04       		.uleb128 0x4
 1779 0156 E0010000 		.4byte	.LASF47
 1780 015a 27       		.byte	0x27
 1781 015b 04       		.uleb128 0x4
 1782 015c DF060000 		.4byte	.LASF48
 1783 0160 28       		.byte	0x28
 1784 0161 04       		.uleb128 0x4
ARM GAS  /tmp/cc8bNYNB.s 			page 43


 1785 0162 DB050000 		.4byte	.LASF49
 1786 0166 29       		.byte	0x29
 1787 0167 04       		.uleb128 0x4
 1788 0168 CA030000 		.4byte	.LASF50
 1789 016c 2A       		.byte	0x2a
 1790 016d 00       		.byte	0
 1791 016e 05       		.uleb128 0x5
 1792 016f 01       		.byte	0x1
 1793 0170 06       		.byte	0x6
 1794 0171 FA010000 		.4byte	.LASF53
 1795 0175 06       		.uleb128 0x6
 1796 0176 0E050000 		.4byte	.LASF51
 1797 017a 03       		.byte	0x3
 1798 017b D801     		.2byte	0x1d8
 1799 017d 03       		.byte	0x3
 1800 017e 29000000 		.4byte	0x29
 1801 0182 07       		.uleb128 0x7
 1802 0183 D7000000 		.4byte	.LASF52
 1803 0187 04       		.byte	0x4
 1804 0188 2B       		.byte	0x2b
 1805 0189 18       		.byte	0x18
 1806 018a 8E010000 		.4byte	0x18e
 1807 018e 05       		.uleb128 0x5
 1808 018f 01       		.byte	0x1
 1809 0190 08       		.byte	0x8
 1810 0191 3F020000 		.4byte	.LASF54
 1811 0195 05       		.uleb128 0x5
 1812 0196 02       		.byte	0x2
 1813 0197 05       		.byte	0x5
 1814 0198 81080000 		.4byte	.LASF55
 1815 019c 07       		.uleb128 0x7
 1816 019d 7B030000 		.4byte	.LASF56
 1817 01a1 04       		.byte	0x4
 1818 01a2 39       		.byte	0x39
 1819 01a3 19       		.byte	0x19
 1820 01a4 A8010000 		.4byte	0x1a8
 1821 01a8 05       		.uleb128 0x5
 1822 01a9 02       		.byte	0x2
 1823 01aa 07       		.byte	0x7
 1824 01ab 490A0000 		.4byte	.LASF57
 1825 01af 05       		.uleb128 0x5
 1826 01b0 04       		.byte	0x4
 1827 01b1 05       		.byte	0x5
 1828 01b2 0E010000 		.4byte	.LASF58
 1829 01b6 07       		.uleb128 0x7
 1830 01b7 73050000 		.4byte	.LASF59
 1831 01bb 04       		.byte	0x4
 1832 01bc 4F       		.byte	0x4f
 1833 01bd 19       		.byte	0x19
 1834 01be C2010000 		.4byte	0x1c2
 1835 01c2 05       		.uleb128 0x5
 1836 01c3 04       		.byte	0x4
 1837 01c4 07       		.byte	0x7
 1838 01c5 B8040000 		.4byte	.LASF60
 1839 01c9 05       		.uleb128 0x5
 1840 01ca 08       		.byte	0x8
 1841 01cb 05       		.byte	0x5
ARM GAS  /tmp/cc8bNYNB.s 			page 44


 1842 01cc 7E050000 		.4byte	.LASF61
 1843 01d0 05       		.uleb128 0x5
 1844 01d1 08       		.byte	0x8
 1845 01d2 07       		.byte	0x7
 1846 01d3 EE060000 		.4byte	.LASF62
 1847 01d7 08       		.uleb128 0x8
 1848 01d8 04       		.byte	0x4
 1849 01d9 05       		.byte	0x5
 1850 01da 696E7400 		.ascii	"int\000"
 1851 01de 05       		.uleb128 0x5
 1852 01df 04       		.byte	0x4
 1853 01e0 07       		.byte	0x7
 1854 01e1 2B060000 		.4byte	.LASF63
 1855 01e5 07       		.uleb128 0x7
 1856 01e6 06020000 		.4byte	.LASF64
 1857 01ea 05       		.byte	0x5
 1858 01eb 18       		.byte	0x18
 1859 01ec 13       		.byte	0x13
 1860 01ed 82010000 		.4byte	0x182
 1861 01f1 09       		.uleb128 0x9
 1862 01f2 E5010000 		.4byte	0x1e5
 1863 01f6 07       		.uleb128 0x7
 1864 01f7 05070000 		.4byte	.LASF65
 1865 01fb 05       		.byte	0x5
 1866 01fc 24       		.byte	0x24
 1867 01fd 14       		.byte	0x14
 1868 01fe 9C010000 		.4byte	0x19c
 1869 0202 09       		.uleb128 0x9
 1870 0203 F6010000 		.4byte	0x1f6
 1871 0207 07       		.uleb128 0x7
 1872 0208 DE090000 		.4byte	.LASF66
 1873 020c 05       		.byte	0x5
 1874 020d 30       		.byte	0x30
 1875 020e 14       		.byte	0x14
 1876 020f B6010000 		.4byte	0x1b6
 1877 0213 09       		.uleb128 0x9
 1878 0214 07020000 		.4byte	0x207
 1879 0218 0A       		.uleb128 0xa
 1880 0219 040E     		.2byte	0xe04
 1881 021b 06       		.byte	0x6
 1882 021c 84       		.byte	0x84
 1883 021d 09       		.byte	0x9
 1884 021e F0020000 		.4byte	0x2f0
 1885 0222 0B       		.uleb128 0xb
 1886 0223 9C0A0000 		.4byte	.LASF67
 1887 0227 06       		.byte	0x6
 1888 0228 86       		.byte	0x86
 1889 0229 11       		.byte	0x11
 1890 022a 00030000 		.4byte	0x300
 1891 022e 02       		.byte	0x2
 1892 022f 23       		.byte	0x23
 1893 0230 00       		.uleb128 0
 1894 0231 0B       		.uleb128 0xb
 1895 0232 2B020000 		.4byte	.LASF68
 1896 0236 06       		.byte	0x6
 1897 0237 87       		.byte	0x87
 1898 0238 11       		.byte	0x11
ARM GAS  /tmp/cc8bNYNB.s 			page 45


 1899 0239 05030000 		.4byte	0x305
 1900 023d 02       		.byte	0x2
 1901 023e 23       		.byte	0x23
 1902 023f 20       		.uleb128 0x20
 1903 0240 0B       		.uleb128 0xb
 1904 0241 B7070000 		.4byte	.LASF69
 1905 0245 06       		.byte	0x6
 1906 0246 88       		.byte	0x88
 1907 0247 11       		.byte	0x11
 1908 0248 00030000 		.4byte	0x300
 1909 024c 03       		.byte	0x3
 1910 024d 23       		.byte	0x23
 1911 024e 8001     		.uleb128 0x80
 1912 0250 0B       		.uleb128 0xb
 1913 0251 00000000 		.4byte	.LASF70
 1914 0255 06       		.byte	0x6
 1915 0256 89       		.byte	0x89
 1916 0257 11       		.byte	0x11
 1917 0258 05030000 		.4byte	0x305
 1918 025c 03       		.byte	0x3
 1919 025d 23       		.byte	0x23
 1920 025e A001     		.uleb128 0xa0
 1921 0260 0B       		.uleb128 0xb
 1922 0261 720A0000 		.4byte	.LASF71
 1923 0265 06       		.byte	0x6
 1924 0266 8A       		.byte	0x8a
 1925 0267 11       		.byte	0x11
 1926 0268 00030000 		.4byte	0x300
 1927 026c 03       		.byte	0x3
 1928 026d 23       		.byte	0x23
 1929 026e 8002     		.uleb128 0x100
 1930 0270 0B       		.uleb128 0xb
 1931 0271 0D030000 		.4byte	.LASF72
 1932 0275 06       		.byte	0x6
 1933 0276 8B       		.byte	0x8b
 1934 0277 11       		.byte	0x11
 1935 0278 05030000 		.4byte	0x305
 1936 027c 03       		.byte	0x3
 1937 027d 23       		.byte	0x23
 1938 027e A002     		.uleb128 0x120
 1939 0280 0B       		.uleb128 0xb
 1940 0281 BE000000 		.4byte	.LASF73
 1941 0285 06       		.byte	0x6
 1942 0286 8C       		.byte	0x8c
 1943 0287 11       		.byte	0x11
 1944 0288 00030000 		.4byte	0x300
 1945 028c 03       		.byte	0x3
 1946 028d 23       		.byte	0x23
 1947 028e 8003     		.uleb128 0x180
 1948 0290 0B       		.uleb128 0xb
 1949 0291 4D020000 		.4byte	.LASF74
 1950 0295 06       		.byte	0x6
 1951 0296 8D       		.byte	0x8d
 1952 0297 11       		.byte	0x11
 1953 0298 05030000 		.4byte	0x305
 1954 029c 03       		.byte	0x3
 1955 029d 23       		.byte	0x23
ARM GAS  /tmp/cc8bNYNB.s 			page 46


 1956 029e A003     		.uleb128 0x1a0
 1957 02a0 0B       		.uleb128 0xb
 1958 02a1 B5020000 		.4byte	.LASF75
 1959 02a5 06       		.byte	0x6
 1960 02a6 8E       		.byte	0x8e
 1961 02a7 11       		.byte	0x11
 1962 02a8 00030000 		.4byte	0x300
 1963 02ac 03       		.byte	0x3
 1964 02ad 23       		.byte	0x23
 1965 02ae 8004     		.uleb128 0x200
 1966 02b0 0B       		.uleb128 0xb
 1967 02b1 57020000 		.4byte	.LASF76
 1968 02b5 06       		.byte	0x6
 1969 02b6 8F       		.byte	0x8f
 1970 02b7 11       		.byte	0x11
 1971 02b8 15030000 		.4byte	0x315
 1972 02bc 03       		.byte	0x3
 1973 02bd 23       		.byte	0x23
 1974 02be A004     		.uleb128 0x220
 1975 02c0 0C       		.uleb128 0xc
 1976 02c1 495000   		.ascii	"IP\000"
 1977 02c4 06       		.byte	0x6
 1978 02c5 90       		.byte	0x90
 1979 02c6 11       		.byte	0x11
 1980 02c7 35030000 		.4byte	0x335
 1981 02cb 03       		.byte	0x3
 1982 02cc 23       		.byte	0x23
 1983 02cd 8006     		.uleb128 0x300
 1984 02cf 0B       		.uleb128 0xb
 1985 02d0 61020000 		.4byte	.LASF77
 1986 02d4 06       		.byte	0x6
 1987 02d5 91       		.byte	0x91
 1988 02d6 11       		.byte	0x11
 1989 02d7 3A030000 		.4byte	0x33a
 1990 02db 03       		.byte	0x3
 1991 02dc 23       		.byte	0x23
 1992 02dd F007     		.uleb128 0x3f0
 1993 02df 0B       		.uleb128 0xb
 1994 02e0 04040000 		.4byte	.LASF78
 1995 02e4 06       		.byte	0x6
 1996 02e5 92       		.byte	0x92
 1997 02e6 11       		.byte	0x11
 1998 02e7 13020000 		.4byte	0x213
 1999 02eb 03       		.byte	0x3
 2000 02ec 23       		.byte	0x23
 2001 02ed 801C     		.uleb128 0xe00
 2002 02ef 00       		.byte	0
 2003 02f0 0D       		.uleb128 0xd
 2004 02f1 13020000 		.4byte	0x213
 2005 02f5 00030000 		.4byte	0x300
 2006 02f9 0E       		.uleb128 0xe
 2007 02fa DE010000 		.4byte	0x1de
 2008 02fe 07       		.byte	0x7
 2009 02ff 00       		.byte	0
 2010 0300 09       		.uleb128 0x9
 2011 0301 F0020000 		.4byte	0x2f0
 2012 0305 0D       		.uleb128 0xd
ARM GAS  /tmp/cc8bNYNB.s 			page 47


 2013 0306 07020000 		.4byte	0x207
 2014 030a 15030000 		.4byte	0x315
 2015 030e 0E       		.uleb128 0xe
 2016 030f DE010000 		.4byte	0x1de
 2017 0313 17       		.byte	0x17
 2018 0314 00       		.byte	0
 2019 0315 0D       		.uleb128 0xd
 2020 0316 07020000 		.4byte	0x207
 2021 031a 25030000 		.4byte	0x325
 2022 031e 0E       		.uleb128 0xe
 2023 031f DE010000 		.4byte	0x1de
 2024 0323 37       		.byte	0x37
 2025 0324 00       		.byte	0
 2026 0325 0D       		.uleb128 0xd
 2027 0326 F1010000 		.4byte	0x1f1
 2028 032a 35030000 		.4byte	0x335
 2029 032e 0E       		.uleb128 0xe
 2030 032f DE010000 		.4byte	0x1de
 2031 0333 EF       		.byte	0xef
 2032 0334 00       		.byte	0
 2033 0335 09       		.uleb128 0x9
 2034 0336 25030000 		.4byte	0x325
 2035 033a 0D       		.uleb128 0xd
 2036 033b 07020000 		.4byte	0x207
 2037 033f 4B030000 		.4byte	0x34b
 2038 0343 0F       		.uleb128 0xf
 2039 0344 DE010000 		.4byte	0x1de
 2040 0348 8302     		.2byte	0x283
 2041 034a 00       		.byte	0
 2042 034b 07       		.uleb128 0x7
 2043 034c D5060000 		.4byte	.LASF79
 2044 0350 06       		.byte	0x6
 2045 0351 93       		.byte	0x93
 2046 0352 04       		.byte	0x4
 2047 0353 18020000 		.4byte	0x218
 2048 0357 10       		.uleb128 0x10
 2049 0358 75333200 		.ascii	"u32\000"
 2050 035c 03       		.byte	0x3
 2051 035d F701     		.2byte	0x1f7
 2052 035f 13       		.byte	0x13
 2053 0360 07020000 		.4byte	0x207
 2054 0364 09       		.uleb128 0x9
 2055 0365 57030000 		.4byte	0x357
 2056 0369 10       		.uleb128 0x10
 2057 036a 75313600 		.ascii	"u16\000"
 2058 036e 03       		.byte	0x3
 2059 036f F801     		.2byte	0x1f8
 2060 0371 12       		.byte	0x12
 2061 0372 F6010000 		.4byte	0x1f6
 2062 0376 11       		.uleb128 0x11
 2063 0377 07       		.byte	0x7
 2064 0378 01       		.byte	0x1
 2065 0379 8E010000 		.4byte	0x18e
 2066 037d 03       		.byte	0x3
 2067 037e 0702     		.2byte	0x207
 2068 0380 0E       		.byte	0xe
 2069 0381 92030000 		.4byte	0x392
ARM GAS  /tmp/cc8bNYNB.s 			page 48


 2070 0385 04       		.uleb128 0x4
 2071 0386 D2070000 		.4byte	.LASF80
 2072 038a 00       		.byte	0
 2073 038b 12       		.uleb128 0x12
 2074 038c 53455400 		.ascii	"SET\000"
 2075 0390 01       		.byte	0x1
 2076 0391 00       		.byte	0
 2077 0392 11       		.uleb128 0x11
 2078 0393 07       		.byte	0x7
 2079 0394 01       		.byte	0x1
 2080 0395 8E010000 		.4byte	0x18e
 2081 0399 03       		.byte	0x3
 2082 039a 0902     		.2byte	0x209
 2083 039c 0E       		.byte	0xe
 2084 039d AE030000 		.4byte	0x3ae
 2085 03a1 04       		.uleb128 0x4
 2086 03a2 85060000 		.4byte	.LASF81
 2087 03a6 00       		.byte	0
 2088 03a7 04       		.uleb128 0x4
 2089 03a8 E5080000 		.4byte	.LASF82
 2090 03ac 01       		.byte	0x1
 2091 03ad 00       		.byte	0
 2092 03ae 13       		.uleb128 0x13
 2093 03af 50       		.byte	0x50
 2094 03b0 03       		.byte	0x3
 2095 03b1 1E02     		.2byte	0x21e
 2096 03b3 09       		.byte	0x9
 2097 03b4 F7040000 		.4byte	0x4f7
 2098 03b8 14       		.uleb128 0x14
 2099 03b9 535200   		.ascii	"SR\000"
 2100 03bc 03       		.byte	0x3
 2101 03bd 2002     		.2byte	0x220
 2102 03bf 11       		.byte	0x11
 2103 03c0 13020000 		.4byte	0x213
 2104 03c4 02       		.byte	0x2
 2105 03c5 23       		.byte	0x23
 2106 03c6 00       		.uleb128 0
 2107 03c7 14       		.uleb128 0x14
 2108 03c8 43523100 		.ascii	"CR1\000"
 2109 03cc 03       		.byte	0x3
 2110 03cd 2102     		.2byte	0x221
 2111 03cf 11       		.byte	0x11
 2112 03d0 13020000 		.4byte	0x213
 2113 03d4 02       		.byte	0x2
 2114 03d5 23       		.byte	0x23
 2115 03d6 04       		.uleb128 0x4
 2116 03d7 14       		.uleb128 0x14
 2117 03d8 43523200 		.ascii	"CR2\000"
 2118 03dc 03       		.byte	0x3
 2119 03dd 2202     		.2byte	0x222
 2120 03df 11       		.byte	0x11
 2121 03e0 13020000 		.4byte	0x213
 2122 03e4 02       		.byte	0x2
 2123 03e5 23       		.byte	0x23
 2124 03e6 08       		.uleb128 0x8
 2125 03e7 15       		.uleb128 0x15
 2126 03e8 18050000 		.4byte	.LASF83
ARM GAS  /tmp/cc8bNYNB.s 			page 49


 2127 03ec 03       		.byte	0x3
 2128 03ed 2302     		.2byte	0x223
 2129 03ef 11       		.byte	0x11
 2130 03f0 13020000 		.4byte	0x213
 2131 03f4 02       		.byte	0x2
 2132 03f5 23       		.byte	0x23
 2133 03f6 0C       		.uleb128 0xc
 2134 03f7 15       		.uleb128 0x15
 2135 03f8 1E050000 		.4byte	.LASF84
 2136 03fc 03       		.byte	0x3
 2137 03fd 2402     		.2byte	0x224
 2138 03ff 11       		.byte	0x11
 2139 0400 13020000 		.4byte	0x213
 2140 0404 02       		.byte	0x2
 2141 0405 23       		.byte	0x23
 2142 0406 10       		.uleb128 0x10
 2143 0407 15       		.uleb128 0x15
 2144 0408 C1080000 		.4byte	.LASF85
 2145 040c 03       		.byte	0x3
 2146 040d 2502     		.2byte	0x225
 2147 040f 11       		.byte	0x11
 2148 0410 13020000 		.4byte	0x213
 2149 0414 02       		.byte	0x2
 2150 0415 23       		.byte	0x23
 2151 0416 14       		.uleb128 0x14
 2152 0417 15       		.uleb128 0x15
 2153 0418 C7080000 		.4byte	.LASF86
 2154 041c 03       		.byte	0x3
 2155 041d 2602     		.2byte	0x226
 2156 041f 11       		.byte	0x11
 2157 0420 13020000 		.4byte	0x213
 2158 0424 02       		.byte	0x2
 2159 0425 23       		.byte	0x23
 2160 0426 18       		.uleb128 0x18
 2161 0427 15       		.uleb128 0x15
 2162 0428 CD080000 		.4byte	.LASF87
 2163 042c 03       		.byte	0x3
 2164 042d 2702     		.2byte	0x227
 2165 042f 11       		.byte	0x11
 2166 0430 13020000 		.4byte	0x213
 2167 0434 02       		.byte	0x2
 2168 0435 23       		.byte	0x23
 2169 0436 1C       		.uleb128 0x1c
 2170 0437 15       		.uleb128 0x15
 2171 0438 D3080000 		.4byte	.LASF88
 2172 043c 03       		.byte	0x3
 2173 043d 2802     		.2byte	0x228
 2174 043f 11       		.byte	0x11
 2175 0440 13020000 		.4byte	0x213
 2176 0444 02       		.byte	0x2
 2177 0445 23       		.byte	0x23
 2178 0446 20       		.uleb128 0x20
 2179 0447 14       		.uleb128 0x14
 2180 0448 48545200 		.ascii	"HTR\000"
 2181 044c 03       		.byte	0x3
 2182 044d 2902     		.2byte	0x229
 2183 044f 11       		.byte	0x11
ARM GAS  /tmp/cc8bNYNB.s 			page 50


 2184 0450 13020000 		.4byte	0x213
 2185 0454 02       		.byte	0x2
 2186 0455 23       		.byte	0x23
 2187 0456 24       		.uleb128 0x24
 2188 0457 14       		.uleb128 0x14
 2189 0458 4C545200 		.ascii	"LTR\000"
 2190 045c 03       		.byte	0x3
 2191 045d 2A02     		.2byte	0x22a
 2192 045f 11       		.byte	0x11
 2193 0460 13020000 		.4byte	0x213
 2194 0464 02       		.byte	0x2
 2195 0465 23       		.byte	0x23
 2196 0466 28       		.uleb128 0x28
 2197 0467 15       		.uleb128 0x15
 2198 0468 44000000 		.4byte	.LASF89
 2199 046c 03       		.byte	0x3
 2200 046d 2B02     		.2byte	0x22b
 2201 046f 11       		.byte	0x11
 2202 0470 13020000 		.4byte	0x213
 2203 0474 02       		.byte	0x2
 2204 0475 23       		.byte	0x23
 2205 0476 2C       		.uleb128 0x2c
 2206 0477 15       		.uleb128 0x15
 2207 0478 49000000 		.4byte	.LASF90
 2208 047c 03       		.byte	0x3
 2209 047d 2C02     		.2byte	0x22c
 2210 047f 11       		.byte	0x11
 2211 0480 13020000 		.4byte	0x213
 2212 0484 02       		.byte	0x2
 2213 0485 23       		.byte	0x23
 2214 0486 30       		.uleb128 0x30
 2215 0487 15       		.uleb128 0x15
 2216 0488 4E000000 		.4byte	.LASF91
 2217 048c 03       		.byte	0x3
 2218 048d 2D02     		.2byte	0x22d
 2219 048f 11       		.byte	0x11
 2220 0490 13020000 		.4byte	0x213
 2221 0494 02       		.byte	0x2
 2222 0495 23       		.byte	0x23
 2223 0496 34       		.uleb128 0x34
 2224 0497 15       		.uleb128 0x15
 2225 0498 A6090000 		.4byte	.LASF92
 2226 049c 03       		.byte	0x3
 2227 049d 2E02     		.2byte	0x22e
 2228 049f 11       		.byte	0x11
 2229 04a0 13020000 		.4byte	0x213
 2230 04a4 02       		.byte	0x2
 2231 04a5 23       		.byte	0x23
 2232 04a6 38       		.uleb128 0x38
 2233 04a7 15       		.uleb128 0x15
 2234 04a8 78090000 		.4byte	.LASF93
 2235 04ac 03       		.byte	0x3
 2236 04ad 2F02     		.2byte	0x22f
 2237 04af 11       		.byte	0x11
 2238 04b0 13020000 		.4byte	0x213
 2239 04b4 02       		.byte	0x2
 2240 04b5 23       		.byte	0x23
ARM GAS  /tmp/cc8bNYNB.s 			page 51


 2241 04b6 3C       		.uleb128 0x3c
 2242 04b7 15       		.uleb128 0x15
 2243 04b8 7D090000 		.4byte	.LASF94
 2244 04bc 03       		.byte	0x3
 2245 04bd 3002     		.2byte	0x230
 2246 04bf 11       		.byte	0x11
 2247 04c0 13020000 		.4byte	0x213
 2248 04c4 02       		.byte	0x2
 2249 04c5 23       		.byte	0x23
 2250 04c6 40       		.uleb128 0x40
 2251 04c7 15       		.uleb128 0x15
 2252 04c8 82090000 		.4byte	.LASF95
 2253 04cc 03       		.byte	0x3
 2254 04cd 3102     		.2byte	0x231
 2255 04cf 11       		.byte	0x11
 2256 04d0 13020000 		.4byte	0x213
 2257 04d4 02       		.byte	0x2
 2258 04d5 23       		.byte	0x23
 2259 04d6 44       		.uleb128 0x44
 2260 04d7 15       		.uleb128 0x15
 2261 04d8 87090000 		.4byte	.LASF96
 2262 04dc 03       		.byte	0x3
 2263 04dd 3202     		.2byte	0x232
 2264 04df 11       		.byte	0x11
 2265 04e0 13020000 		.4byte	0x213
 2266 04e4 02       		.byte	0x2
 2267 04e5 23       		.byte	0x23
 2268 04e6 48       		.uleb128 0x48
 2269 04e7 14       		.uleb128 0x14
 2270 04e8 445200   		.ascii	"DR\000"
 2271 04eb 03       		.byte	0x3
 2272 04ec 3302     		.2byte	0x233
 2273 04ee 11       		.byte	0x11
 2274 04ef 13020000 		.4byte	0x213
 2275 04f3 02       		.byte	0x2
 2276 04f4 23       		.byte	0x23
 2277 04f5 4C       		.uleb128 0x4c
 2278 04f6 00       		.byte	0
 2279 04f7 06       		.uleb128 0x6
 2280 04f8 16040000 		.4byte	.LASF97
 2281 04fc 03       		.byte	0x3
 2282 04fd 3402     		.2byte	0x234
 2283 04ff 03       		.byte	0x3
 2284 0500 AE030000 		.4byte	0x3ae
 2285 0504 13       		.uleb128 0x13
 2286 0505 24       		.byte	0x24
 2287 0506 03       		.byte	0x3
 2288 0507 8503     		.2byte	0x385
 2289 0509 09       		.byte	0x9
 2290 050a 9C050000 		.4byte	0x59c
 2291 050e 14       		.uleb128 0x14
 2292 050f 41435200 		.ascii	"ACR\000"
 2293 0513 03       		.byte	0x3
 2294 0514 8703     		.2byte	0x387
 2295 0516 11       		.byte	0x11
 2296 0517 13020000 		.4byte	0x213
 2297 051b 02       		.byte	0x2
ARM GAS  /tmp/cc8bNYNB.s 			page 52


 2298 051c 23       		.byte	0x23
 2299 051d 00       		.uleb128 0
 2300 051e 15       		.uleb128 0x15
 2301 051f 70080000 		.4byte	.LASF98
 2302 0523 03       		.byte	0x3
 2303 0524 8803     		.2byte	0x388
 2304 0526 11       		.byte	0x11
 2305 0527 13020000 		.4byte	0x213
 2306 052b 02       		.byte	0x2
 2307 052c 23       		.byte	0x23
 2308 052d 04       		.uleb128 0x4
 2309 052e 15       		.uleb128 0x15
 2310 052f 92040000 		.4byte	.LASF99
 2311 0533 03       		.byte	0x3
 2312 0534 8903     		.2byte	0x389
 2313 0536 11       		.byte	0x11
 2314 0537 13020000 		.4byte	0x213
 2315 053b 02       		.byte	0x2
 2316 053c 23       		.byte	0x23
 2317 053d 08       		.uleb128 0x8
 2318 053e 14       		.uleb128 0x14
 2319 053f 535200   		.ascii	"SR\000"
 2320 0542 03       		.byte	0x3
 2321 0543 8A03     		.2byte	0x38a
 2322 0545 11       		.byte	0x11
 2323 0546 13020000 		.4byte	0x213
 2324 054a 02       		.byte	0x2
 2325 054b 23       		.byte	0x23
 2326 054c 0C       		.uleb128 0xc
 2327 054d 14       		.uleb128 0x14
 2328 054e 435200   		.ascii	"CR\000"
 2329 0551 03       		.byte	0x3
 2330 0552 8B03     		.2byte	0x38b
 2331 0554 11       		.byte	0x11
 2332 0555 13020000 		.4byte	0x213
 2333 0559 02       		.byte	0x2
 2334 055a 23       		.byte	0x23
 2335 055b 10       		.uleb128 0x10
 2336 055c 14       		.uleb128 0x14
 2337 055d 415200   		.ascii	"AR\000"
 2338 0560 03       		.byte	0x3
 2339 0561 8C03     		.2byte	0x38c
 2340 0563 11       		.byte	0x11
 2341 0564 13020000 		.4byte	0x213
 2342 0568 02       		.byte	0x2
 2343 0569 23       		.byte	0x23
 2344 056a 14       		.uleb128 0x14
 2345 056b 15       		.uleb128 0x15
 2346 056c 22040000 		.4byte	.LASF100
 2347 0570 03       		.byte	0x3
 2348 0571 8D03     		.2byte	0x38d
 2349 0573 11       		.byte	0x11
 2350 0574 13020000 		.4byte	0x213
 2351 0578 02       		.byte	0x2
 2352 0579 23       		.byte	0x23
 2353 057a 18       		.uleb128 0x18
 2354 057b 14       		.uleb128 0x14
ARM GAS  /tmp/cc8bNYNB.s 			page 53


 2355 057c 4F425200 		.ascii	"OBR\000"
 2356 0580 03       		.byte	0x3
 2357 0581 8E03     		.2byte	0x38e
 2358 0583 11       		.byte	0x11
 2359 0584 13020000 		.4byte	0x213
 2360 0588 02       		.byte	0x2
 2361 0589 23       		.byte	0x23
 2362 058a 1C       		.uleb128 0x1c
 2363 058b 15       		.uleb128 0x15
 2364 058c DB010000 		.4byte	.LASF101
 2365 0590 03       		.byte	0x3
 2366 0591 8F03     		.2byte	0x38f
 2367 0593 11       		.byte	0x11
 2368 0594 13020000 		.4byte	0x213
 2369 0598 02       		.byte	0x2
 2370 0599 23       		.byte	0x23
 2371 059a 20       		.uleb128 0x20
 2372 059b 00       		.byte	0
 2373 059c 06       		.uleb128 0x6
 2374 059d CB090000 		.4byte	.LASF102
 2375 05a1 03       		.byte	0x3
 2376 05a2 9803     		.2byte	0x398
 2377 05a4 03       		.byte	0x3
 2378 05a5 04050000 		.4byte	0x504
 2379 05a9 13       		.uleb128 0x13
 2380 05aa 1C       		.byte	0x1c
 2381 05ab 03       		.byte	0x3
 2382 05ac E903     		.2byte	0x3e9
 2383 05ae 09       		.byte	0x9
 2384 05af 24060000 		.4byte	0x624
 2385 05b3 14       		.uleb128 0x14
 2386 05b4 43524C00 		.ascii	"CRL\000"
 2387 05b8 03       		.byte	0x3
 2388 05b9 EB03     		.2byte	0x3eb
 2389 05bb 11       		.byte	0x11
 2390 05bc 13020000 		.4byte	0x213
 2391 05c0 02       		.byte	0x2
 2392 05c1 23       		.byte	0x23
 2393 05c2 00       		.uleb128 0
 2394 05c3 14       		.uleb128 0x14
 2395 05c4 43524800 		.ascii	"CRH\000"
 2396 05c8 03       		.byte	0x3
 2397 05c9 EC03     		.2byte	0x3ec
 2398 05cb 11       		.byte	0x11
 2399 05cc 13020000 		.4byte	0x213
 2400 05d0 02       		.byte	0x2
 2401 05d1 23       		.byte	0x23
 2402 05d2 04       		.uleb128 0x4
 2403 05d3 14       		.uleb128 0x14
 2404 05d4 49445200 		.ascii	"IDR\000"
 2405 05d8 03       		.byte	0x3
 2406 05d9 ED03     		.2byte	0x3ed
 2407 05db 11       		.byte	0x11
 2408 05dc 13020000 		.4byte	0x213
 2409 05e0 02       		.byte	0x2
 2410 05e1 23       		.byte	0x23
 2411 05e2 08       		.uleb128 0x8
ARM GAS  /tmp/cc8bNYNB.s 			page 54


 2412 05e3 14       		.uleb128 0x14
 2413 05e4 4F445200 		.ascii	"ODR\000"
 2414 05e8 03       		.byte	0x3
 2415 05e9 EE03     		.2byte	0x3ee
 2416 05eb 11       		.byte	0x11
 2417 05ec 13020000 		.4byte	0x213
 2418 05f0 02       		.byte	0x2
 2419 05f1 23       		.byte	0x23
 2420 05f2 0C       		.uleb128 0xc
 2421 05f3 15       		.uleb128 0x15
 2422 05f4 73090000 		.4byte	.LASF103
 2423 05f8 03       		.byte	0x3
 2424 05f9 EF03     		.2byte	0x3ef
 2425 05fb 11       		.byte	0x11
 2426 05fc 13020000 		.4byte	0x213
 2427 0600 02       		.byte	0x2
 2428 0601 23       		.byte	0x23
 2429 0602 10       		.uleb128 0x10
 2430 0603 14       		.uleb128 0x14
 2431 0604 42525200 		.ascii	"BRR\000"
 2432 0608 03       		.byte	0x3
 2433 0609 F003     		.2byte	0x3f0
 2434 060b 11       		.byte	0x11
 2435 060c 13020000 		.4byte	0x213
 2436 0610 02       		.byte	0x2
 2437 0611 23       		.byte	0x23
 2438 0612 14       		.uleb128 0x14
 2439 0613 15       		.uleb128 0x15
 2440 0614 41050000 		.4byte	.LASF104
 2441 0618 03       		.byte	0x3
 2442 0619 F103     		.2byte	0x3f1
 2443 061b 11       		.byte	0x11
 2444 061c 13020000 		.4byte	0x213
 2445 0620 02       		.byte	0x2
 2446 0621 23       		.byte	0x23
 2447 0622 18       		.uleb128 0x18
 2448 0623 00       		.byte	0
 2449 0624 06       		.uleb128 0x6
 2450 0625 AB090000 		.4byte	.LASF105
 2451 0629 03       		.byte	0x3
 2452 062a F203     		.2byte	0x3f2
 2453 062c 03       		.byte	0x3
 2454 062d A9050000 		.4byte	0x5a9
 2455 0631 13       		.uleb128 0x13
 2456 0632 20       		.byte	0x20
 2457 0633 03       		.byte	0x3
 2458 0634 F803     		.2byte	0x3f8
 2459 0636 09       		.byte	0x9
 2460 0637 8C060000 		.4byte	0x68c
 2461 063b 15       		.uleb128 0x15
 2462 063c 6E050000 		.4byte	.LASF106
 2463 0640 03       		.byte	0x3
 2464 0641 FA03     		.2byte	0x3fa
 2465 0643 11       		.byte	0x11
 2466 0644 13020000 		.4byte	0x213
 2467 0648 02       		.byte	0x2
 2468 0649 23       		.byte	0x23
ARM GAS  /tmp/cc8bNYNB.s 			page 55


 2469 064a 00       		.uleb128 0
 2470 064b 15       		.uleb128 0x15
 2471 064c 76070000 		.4byte	.LASF107
 2472 0650 03       		.byte	0x3
 2473 0651 FB03     		.2byte	0x3fb
 2474 0653 11       		.byte	0x11
 2475 0654 13020000 		.4byte	0x213
 2476 0658 02       		.byte	0x2
 2477 0659 23       		.byte	0x23
 2478 065a 04       		.uleb128 0x4
 2479 065b 15       		.uleb128 0x15
 2480 065c 31000000 		.4byte	.LASF108
 2481 0660 03       		.byte	0x3
 2482 0661 FC03     		.2byte	0x3fc
 2483 0663 11       		.byte	0x11
 2484 0664 9C060000 		.4byte	0x69c
 2485 0668 02       		.byte	0x2
 2486 0669 23       		.byte	0x23
 2487 066a 08       		.uleb128 0x8
 2488 066b 15       		.uleb128 0x15
 2489 066c 2B020000 		.4byte	.LASF68
 2490 0670 03       		.byte	0x3
 2491 0671 FD03     		.2byte	0x3fd
 2492 0673 0C       		.byte	0xc
 2493 0674 07020000 		.4byte	0x207
 2494 0678 02       		.byte	0x2
 2495 0679 23       		.byte	0x23
 2496 067a 18       		.uleb128 0x18
 2497 067b 15       		.uleb128 0x15
 2498 067c B6030000 		.4byte	.LASF109
 2499 0680 03       		.byte	0x3
 2500 0681 FE03     		.2byte	0x3fe
 2501 0683 11       		.byte	0x11
 2502 0684 13020000 		.4byte	0x213
 2503 0688 02       		.byte	0x2
 2504 0689 23       		.byte	0x23
 2505 068a 1C       		.uleb128 0x1c
 2506 068b 00       		.byte	0
 2507 068c 0D       		.uleb128 0xd
 2508 068d 13020000 		.4byte	0x213
 2509 0691 9C060000 		.4byte	0x69c
 2510 0695 0E       		.uleb128 0xe
 2511 0696 DE010000 		.4byte	0x1de
 2512 069a 03       		.byte	0x3
 2513 069b 00       		.byte	0
 2514 069c 09       		.uleb128 0x9
 2515 069d 8C060000 		.4byte	0x68c
 2516 06a1 06       		.uleb128 0x6
 2517 06a2 B4080000 		.4byte	.LASF110
 2518 06a6 03       		.byte	0x3
 2519 06a7 FF03     		.2byte	0x3ff
 2520 06a9 03       		.byte	0x3
 2521 06aa 31060000 		.4byte	0x631
 2522 06ae 13       		.uleb128 0x13
 2523 06af 30       		.byte	0x30
 2524 06b0 03       		.byte	0x3
 2525 06b1 3404     		.2byte	0x434
ARM GAS  /tmp/cc8bNYNB.s 			page 56


 2526 06b3 09       		.byte	0x9
 2527 06b4 78070000 		.4byte	0x778
 2528 06b8 14       		.uleb128 0x14
 2529 06b9 435200   		.ascii	"CR\000"
 2530 06bc 03       		.byte	0x3
 2531 06bd 3604     		.2byte	0x436
 2532 06bf 11       		.byte	0x11
 2533 06c0 13020000 		.4byte	0x213
 2534 06c4 02       		.byte	0x2
 2535 06c5 23       		.byte	0x23
 2536 06c6 00       		.uleb128 0
 2537 06c7 15       		.uleb128 0x15
 2538 06c8 47040000 		.4byte	.LASF111
 2539 06cc 03       		.byte	0x3
 2540 06cd 3704     		.2byte	0x437
 2541 06cf 11       		.byte	0x11
 2542 06d0 13020000 		.4byte	0x213
 2543 06d4 02       		.byte	0x2
 2544 06d5 23       		.byte	0x23
 2545 06d6 04       		.uleb128 0x4
 2546 06d7 14       		.uleb128 0x14
 2547 06d8 43495200 		.ascii	"CIR\000"
 2548 06dc 03       		.byte	0x3
 2549 06dd 3804     		.2byte	0x438
 2550 06df 11       		.byte	0x11
 2551 06e0 13020000 		.4byte	0x213
 2552 06e4 02       		.byte	0x2
 2553 06e5 23       		.byte	0x23
 2554 06e6 08       		.uleb128 0x8
 2555 06e7 15       		.uleb128 0x15
 2556 06e8 CD050000 		.4byte	.LASF112
 2557 06ec 03       		.byte	0x3
 2558 06ed 3904     		.2byte	0x439
 2559 06ef 11       		.byte	0x11
 2560 06f0 13020000 		.4byte	0x213
 2561 06f4 02       		.byte	0x2
 2562 06f5 23       		.byte	0x23
 2563 06f6 0C       		.uleb128 0xc
 2564 06f7 15       		.uleb128 0x15
 2565 06f8 B7060000 		.4byte	.LASF113
 2566 06fc 03       		.byte	0x3
 2567 06fd 3A04     		.2byte	0x43a
 2568 06ff 11       		.byte	0x11
 2569 0700 13020000 		.4byte	0x213
 2570 0704 02       		.byte	0x2
 2571 0705 23       		.byte	0x23
 2572 0706 10       		.uleb128 0x10
 2573 0707 15       		.uleb128 0x15
 2574 0708 EC080000 		.4byte	.LASF114
 2575 070c 03       		.byte	0x3
 2576 070d 3B04     		.2byte	0x43b
 2577 070f 11       		.byte	0x11
 2578 0710 13020000 		.4byte	0x213
 2579 0714 02       		.byte	0x2
 2580 0715 23       		.byte	0x23
 2581 0716 14       		.uleb128 0x14
 2582 0717 15       		.uleb128 0x15
ARM GAS  /tmp/cc8bNYNB.s 			page 57


 2583 0718 6A010000 		.4byte	.LASF115
 2584 071c 03       		.byte	0x3
 2585 071d 3C04     		.2byte	0x43c
 2586 071f 11       		.byte	0x11
 2587 0720 13020000 		.4byte	0x213
 2588 0724 02       		.byte	0x2
 2589 0725 23       		.byte	0x23
 2590 0726 18       		.uleb128 0x18
 2591 0727 15       		.uleb128 0x15
 2592 0728 CA040000 		.4byte	.LASF116
 2593 072c 03       		.byte	0x3
 2594 072d 3D04     		.2byte	0x43d
 2595 072f 11       		.byte	0x11
 2596 0730 13020000 		.4byte	0x213
 2597 0734 02       		.byte	0x2
 2598 0735 23       		.byte	0x23
 2599 0736 1C       		.uleb128 0x1c
 2600 0737 15       		.uleb128 0x15
 2601 0738 FF030000 		.4byte	.LASF117
 2602 073c 03       		.byte	0x3
 2603 073d 3E04     		.2byte	0x43e
 2604 073f 11       		.byte	0x11
 2605 0740 13020000 		.4byte	0x213
 2606 0744 02       		.byte	0x2
 2607 0745 23       		.byte	0x23
 2608 0746 20       		.uleb128 0x20
 2609 0747 14       		.uleb128 0x14
 2610 0748 43535200 		.ascii	"CSR\000"
 2611 074c 03       		.byte	0x3
 2612 074d 3F04     		.2byte	0x43f
 2613 074f 11       		.byte	0x11
 2614 0750 13020000 		.4byte	0x213
 2615 0754 02       		.byte	0x2
 2616 0755 23       		.byte	0x23
 2617 0756 24       		.uleb128 0x24
 2618 0757 15       		.uleb128 0x15
 2619 0758 58050000 		.4byte	.LASF118
 2620 075c 03       		.byte	0x3
 2621 075d 4004     		.2byte	0x440
 2622 075f 11       		.byte	0x11
 2623 0760 13020000 		.4byte	0x213
 2624 0764 02       		.byte	0x2
 2625 0765 23       		.byte	0x23
 2626 0766 28       		.uleb128 0x28
 2627 0767 15       		.uleb128 0x15
 2628 0768 18060000 		.4byte	.LASF119
 2629 076c 03       		.byte	0x3
 2630 076d 4104     		.2byte	0x441
 2631 076f 11       		.byte	0x11
 2632 0770 13020000 		.4byte	0x213
 2633 0774 02       		.byte	0x2
 2634 0775 23       		.byte	0x23
 2635 0776 2C       		.uleb128 0x2c
 2636 0777 00       		.byte	0
 2637 0778 06       		.uleb128 0x6
 2638 0779 75080000 		.4byte	.LASF120
 2639 077d 03       		.byte	0x3
ARM GAS  /tmp/cc8bNYNB.s 			page 58


 2640 077e 4204     		.2byte	0x442
 2641 0780 03       		.byte	0x3
 2642 0781 AE060000 		.4byte	0x6ae
 2643 0785 13       		.uleb128 0x13
 2644 0786 50       		.byte	0x50
 2645 0787 03       		.byte	0x3
 2646 0788 9A04     		.2byte	0x49a
 2647 078a 09       		.byte	0x9
 2648 078b 0F0A0000 		.4byte	0xa0f
 2649 078f 14       		.uleb128 0x14
 2650 0790 43523100 		.ascii	"CR1\000"
 2651 0794 03       		.byte	0x3
 2652 0795 9C04     		.2byte	0x49c
 2653 0797 11       		.byte	0x11
 2654 0798 02020000 		.4byte	0x202
 2655 079c 02       		.byte	0x2
 2656 079d 23       		.byte	0x23
 2657 079e 00       		.uleb128 0
 2658 079f 15       		.uleb128 0x15
 2659 07a0 2B020000 		.4byte	.LASF68
 2660 07a4 03       		.byte	0x3
 2661 07a5 9D04     		.2byte	0x49d
 2662 07a7 0D       		.byte	0xd
 2663 07a8 F6010000 		.4byte	0x1f6
 2664 07ac 02       		.byte	0x2
 2665 07ad 23       		.byte	0x23
 2666 07ae 02       		.uleb128 0x2
 2667 07af 14       		.uleb128 0x14
 2668 07b0 43523200 		.ascii	"CR2\000"
 2669 07b4 03       		.byte	0x3
 2670 07b5 9E04     		.2byte	0x49e
 2671 07b7 11       		.byte	0x11
 2672 07b8 02020000 		.4byte	0x202
 2673 07bc 02       		.byte	0x2
 2674 07bd 23       		.byte	0x23
 2675 07be 04       		.uleb128 0x4
 2676 07bf 15       		.uleb128 0x15
 2677 07c0 35020000 		.4byte	.LASF121
 2678 07c4 03       		.byte	0x3
 2679 07c5 9F04     		.2byte	0x49f
 2680 07c7 0D       		.byte	0xd
 2681 07c8 F6010000 		.4byte	0x1f6
 2682 07cc 02       		.byte	0x2
 2683 07cd 23       		.byte	0x23
 2684 07ce 06       		.uleb128 0x6
 2685 07cf 15       		.uleb128 0x15
 2686 07d0 BC070000 		.4byte	.LASF122
 2687 07d4 03       		.byte	0x3
 2688 07d5 A004     		.2byte	0x4a0
 2689 07d7 11       		.byte	0x11
 2690 07d8 02020000 		.4byte	0x202
 2691 07dc 02       		.byte	0x2
 2692 07dd 23       		.byte	0x23
 2693 07de 08       		.uleb128 0x8
 2694 07df 15       		.uleb128 0x15
 2695 07e0 0D030000 		.4byte	.LASF72
 2696 07e4 03       		.byte	0x3
ARM GAS  /tmp/cc8bNYNB.s 			page 59


 2697 07e5 A104     		.2byte	0x4a1
 2698 07e7 0D       		.byte	0xd
 2699 07e8 F6010000 		.4byte	0x1f6
 2700 07ec 02       		.byte	0x2
 2701 07ed 23       		.byte	0x23
 2702 07ee 0A       		.uleb128 0xa
 2703 07ef 15       		.uleb128 0x15
 2704 07f0 FB040000 		.4byte	.LASF123
 2705 07f4 03       		.byte	0x3
 2706 07f5 A204     		.2byte	0x4a2
 2707 07f7 11       		.byte	0x11
 2708 07f8 02020000 		.4byte	0x202
 2709 07fc 02       		.byte	0x2
 2710 07fd 23       		.byte	0x23
 2711 07fe 0C       		.uleb128 0xc
 2712 07ff 15       		.uleb128 0x15
 2713 0800 4D020000 		.4byte	.LASF74
 2714 0804 03       		.byte	0x3
 2715 0805 A304     		.2byte	0x4a3
 2716 0807 0D       		.byte	0xd
 2717 0808 F6010000 		.4byte	0x1f6
 2718 080c 02       		.byte	0x2
 2719 080d 23       		.byte	0x23
 2720 080e 0E       		.uleb128 0xe
 2721 080f 14       		.uleb128 0x14
 2722 0810 535200   		.ascii	"SR\000"
 2723 0813 03       		.byte	0x3
 2724 0814 A404     		.2byte	0x4a4
 2725 0816 11       		.byte	0x11
 2726 0817 02020000 		.4byte	0x202
 2727 081b 02       		.byte	0x2
 2728 081c 23       		.byte	0x23
 2729 081d 10       		.uleb128 0x10
 2730 081e 15       		.uleb128 0x15
 2731 081f 57020000 		.4byte	.LASF76
 2732 0823 03       		.byte	0x3
 2733 0824 A504     		.2byte	0x4a5
 2734 0826 0D       		.byte	0xd
 2735 0827 F6010000 		.4byte	0x1f6
 2736 082b 02       		.byte	0x2
 2737 082c 23       		.byte	0x23
 2738 082d 12       		.uleb128 0x12
 2739 082e 14       		.uleb128 0x14
 2740 082f 45475200 		.ascii	"EGR\000"
 2741 0833 03       		.byte	0x3
 2742 0834 A604     		.2byte	0x4a6
 2743 0836 11       		.byte	0x11
 2744 0837 02020000 		.4byte	0x202
 2745 083b 02       		.byte	0x2
 2746 083c 23       		.byte	0x23
 2747 083d 14       		.uleb128 0x14
 2748 083e 15       		.uleb128 0x15
 2749 083f 61020000 		.4byte	.LASF77
 2750 0843 03       		.byte	0x3
 2751 0844 A704     		.2byte	0x4a7
 2752 0846 0D       		.byte	0xd
 2753 0847 F6010000 		.4byte	0x1f6
ARM GAS  /tmp/cc8bNYNB.s 			page 60


 2754 084b 02       		.byte	0x2
 2755 084c 23       		.byte	0x23
 2756 084d 16       		.uleb128 0x16
 2757 084e 15       		.uleb128 0x15
 2758 084f 34030000 		.4byte	.LASF124
 2759 0853 03       		.byte	0x3
 2760 0854 A804     		.2byte	0x4a8
 2761 0856 11       		.byte	0x11
 2762 0857 02020000 		.4byte	0x202
 2763 085b 02       		.byte	0x2
 2764 085c 23       		.byte	0x23
 2765 085d 18       		.uleb128 0x18
 2766 085e 15       		.uleb128 0x15
 2767 085f 6B020000 		.4byte	.LASF125
 2768 0863 03       		.byte	0x3
 2769 0864 A904     		.2byte	0x4a9
 2770 0866 0D       		.byte	0xd
 2771 0867 F6010000 		.4byte	0x1f6
 2772 086b 02       		.byte	0x2
 2773 086c 23       		.byte	0x23
 2774 086d 1A       		.uleb128 0x1a
 2775 086e 15       		.uleb128 0x15
 2776 086f 45060000 		.4byte	.LASF126
 2777 0873 03       		.byte	0x3
 2778 0874 AA04     		.2byte	0x4aa
 2779 0876 11       		.byte	0x11
 2780 0877 02020000 		.4byte	0x202
 2781 087b 02       		.byte	0x2
 2782 087c 23       		.byte	0x23
 2783 087d 1C       		.uleb128 0x1c
 2784 087e 15       		.uleb128 0x15
 2785 087f 75020000 		.4byte	.LASF127
 2786 0883 03       		.byte	0x3
 2787 0884 AB04     		.2byte	0x4ab
 2788 0886 0D       		.byte	0xd
 2789 0887 F6010000 		.4byte	0x1f6
 2790 088b 02       		.byte	0x2
 2791 088c 23       		.byte	0x23
 2792 088d 1E       		.uleb128 0x1e
 2793 088e 15       		.uleb128 0x15
 2794 088f 18070000 		.4byte	.LASF128
 2795 0893 03       		.byte	0x3
 2796 0894 AC04     		.2byte	0x4ac
 2797 0896 11       		.byte	0x11
 2798 0897 02020000 		.4byte	0x202
 2799 089b 02       		.byte	0x2
 2800 089c 23       		.byte	0x23
 2801 089d 20       		.uleb128 0x20
 2802 089e 15       		.uleb128 0x15
 2803 089f 7F020000 		.4byte	.LASF129
 2804 08a3 03       		.byte	0x3
 2805 08a4 AD04     		.2byte	0x4ad
 2806 08a6 0D       		.byte	0xd
 2807 08a7 F6010000 		.4byte	0x1f6
 2808 08ab 02       		.byte	0x2
 2809 08ac 23       		.byte	0x23
 2810 08ad 22       		.uleb128 0x22
ARM GAS  /tmp/cc8bNYNB.s 			page 61


 2811 08ae 14       		.uleb128 0x14
 2812 08af 434E5400 		.ascii	"CNT\000"
 2813 08b3 03       		.byte	0x3
 2814 08b4 AE04     		.2byte	0x4ae
 2815 08b6 11       		.byte	0x11
 2816 08b7 02020000 		.4byte	0x202
 2817 08bb 02       		.byte	0x2
 2818 08bc 23       		.byte	0x23
 2819 08bd 24       		.uleb128 0x24
 2820 08be 15       		.uleb128 0x15
 2821 08bf 89020000 		.4byte	.LASF130
 2822 08c3 03       		.byte	0x3
 2823 08c4 AF04     		.2byte	0x4af
 2824 08c6 0D       		.byte	0xd
 2825 08c7 F6010000 		.4byte	0x1f6
 2826 08cb 02       		.byte	0x2
 2827 08cc 23       		.byte	0x23
 2828 08cd 26       		.uleb128 0x26
 2829 08ce 14       		.uleb128 0x14
 2830 08cf 50534300 		.ascii	"PSC\000"
 2831 08d3 03       		.byte	0x3
 2832 08d4 B004     		.2byte	0x4b0
 2833 08d6 11       		.byte	0x11
 2834 08d7 02020000 		.4byte	0x202
 2835 08db 02       		.byte	0x2
 2836 08dc 23       		.byte	0x23
 2837 08dd 28       		.uleb128 0x28
 2838 08de 15       		.uleb128 0x15
 2839 08df 5C0A0000 		.4byte	.LASF131
 2840 08e3 03       		.byte	0x3
 2841 08e4 B104     		.2byte	0x4b1
 2842 08e6 0D       		.byte	0xd
 2843 08e7 F6010000 		.4byte	0x1f6
 2844 08eb 02       		.byte	0x2
 2845 08ec 23       		.byte	0x23
 2846 08ed 2A       		.uleb128 0x2a
 2847 08ee 14       		.uleb128 0x14
 2848 08ef 41525200 		.ascii	"ARR\000"
 2849 08f3 03       		.byte	0x3
 2850 08f4 B204     		.2byte	0x4b2
 2851 08f6 11       		.byte	0x11
 2852 08f7 02020000 		.4byte	0x202
 2853 08fb 02       		.byte	0x2
 2854 08fc 23       		.byte	0x23
 2855 08fd 2C       		.uleb128 0x2c
 2856 08fe 15       		.uleb128 0x15
 2857 08ff 670A0000 		.4byte	.LASF132
 2858 0903 03       		.byte	0x3
 2859 0904 B304     		.2byte	0x4b3
 2860 0906 0D       		.byte	0xd
 2861 0907 F6010000 		.4byte	0x1f6
 2862 090b 02       		.byte	0x2
 2863 090c 23       		.byte	0x23
 2864 090d 2E       		.uleb128 0x2e
 2865 090e 14       		.uleb128 0x14
 2866 090f 52435200 		.ascii	"RCR\000"
 2867 0913 03       		.byte	0x3
ARM GAS  /tmp/cc8bNYNB.s 			page 62


 2868 0914 B404     		.2byte	0x4b4
 2869 0916 11       		.byte	0x11
 2870 0917 02020000 		.4byte	0x202
 2871 091b 02       		.byte	0x2
 2872 091c 23       		.byte	0x23
 2873 091d 30       		.uleb128 0x30
 2874 091e 15       		.uleb128 0x15
 2875 091f 1D070000 		.4byte	.LASF133
 2876 0923 03       		.byte	0x3
 2877 0924 B504     		.2byte	0x4b5
 2878 0926 0D       		.byte	0xd
 2879 0927 F6010000 		.4byte	0x1f6
 2880 092b 02       		.byte	0x2
 2881 092c 23       		.byte	0x23
 2882 092d 32       		.uleb128 0x32
 2883 092e 15       		.uleb128 0x15
 2884 092f C3000000 		.4byte	.LASF134
 2885 0933 03       		.byte	0x3
 2886 0934 B604     		.2byte	0x4b6
 2887 0936 11       		.byte	0x11
 2888 0937 02020000 		.4byte	0x202
 2889 093b 02       		.byte	0x2
 2890 093c 23       		.byte	0x23
 2891 093d 34       		.uleb128 0x34
 2892 093e 15       		.uleb128 0x15
 2893 093f 5F010000 		.4byte	.LASF135
 2894 0943 03       		.byte	0x3
 2895 0944 B704     		.2byte	0x4b7
 2896 0946 0D       		.byte	0xd
 2897 0947 F6010000 		.4byte	0x1f6
 2898 094b 02       		.byte	0x2
 2899 094c 23       		.byte	0x23
 2900 094d 36       		.uleb128 0x36
 2901 094e 15       		.uleb128 0x15
 2902 094f C8000000 		.4byte	.LASF136
 2903 0953 03       		.byte	0x3
 2904 0954 B804     		.2byte	0x4b8
 2905 0956 11       		.byte	0x11
 2906 0957 02020000 		.4byte	0x202
 2907 095b 02       		.byte	0x2
 2908 095c 23       		.byte	0x23
 2909 095d 38       		.uleb128 0x38
 2910 095e 15       		.uleb128 0x15
 2911 095f 34070000 		.4byte	.LASF137
 2912 0963 03       		.byte	0x3
 2913 0964 B904     		.2byte	0x4b9
 2914 0966 0D       		.byte	0xd
 2915 0967 F6010000 		.4byte	0x1f6
 2916 096b 02       		.byte	0x2
 2917 096c 23       		.byte	0x23
 2918 096d 3A       		.uleb128 0x3a
 2919 096e 15       		.uleb128 0x15
 2920 096f CD000000 		.4byte	.LASF138
 2921 0973 03       		.byte	0x3
 2922 0974 BA04     		.2byte	0x4ba
 2923 0976 11       		.byte	0x11
 2924 0977 02020000 		.4byte	0x202
ARM GAS  /tmp/cc8bNYNB.s 			page 63


 2925 097b 02       		.byte	0x2
 2926 097c 23       		.byte	0x23
 2927 097d 3C       		.uleb128 0x3c
 2928 097e 15       		.uleb128 0x15
 2929 097f 3F070000 		.4byte	.LASF139
 2930 0983 03       		.byte	0x3
 2931 0984 BB04     		.2byte	0x4bb
 2932 0986 0D       		.byte	0xd
 2933 0987 F6010000 		.4byte	0x1f6
 2934 098b 02       		.byte	0x2
 2935 098c 23       		.byte	0x23
 2936 098d 3E       		.uleb128 0x3e
 2937 098e 15       		.uleb128 0x15
 2938 098f D2000000 		.4byte	.LASF140
 2939 0993 03       		.byte	0x3
 2940 0994 BC04     		.2byte	0x4bc
 2941 0996 11       		.byte	0x11
 2942 0997 02020000 		.4byte	0x202
 2943 099b 02       		.byte	0x2
 2944 099c 23       		.byte	0x23
 2945 099d 40       		.uleb128 0x40
 2946 099e 15       		.uleb128 0x15
 2947 099f 4A070000 		.4byte	.LASF141
 2948 09a3 03       		.byte	0x3
 2949 09a4 BD04     		.2byte	0x4bd
 2950 09a6 0D       		.byte	0xd
 2951 09a7 F6010000 		.4byte	0x1f6
 2952 09ab 02       		.byte	0x2
 2953 09ac 23       		.byte	0x23
 2954 09ad 42       		.uleb128 0x42
 2955 09ae 15       		.uleb128 0x15
 2956 09af D9090000 		.4byte	.LASF142
 2957 09b3 03       		.byte	0x3
 2958 09b4 BE04     		.2byte	0x4be
 2959 09b6 11       		.byte	0x11
 2960 09b7 02020000 		.4byte	0x202
 2961 09bb 02       		.byte	0x2
 2962 09bc 23       		.byte	0x23
 2963 09bd 44       		.uleb128 0x44
 2964 09be 15       		.uleb128 0x15
 2965 09bf 55070000 		.4byte	.LASF143
 2966 09c3 03       		.byte	0x3
 2967 09c4 BF04     		.2byte	0x4bf
 2968 09c6 0D       		.byte	0xd
 2969 09c7 F6010000 		.4byte	0x1f6
 2970 09cb 02       		.byte	0x2
 2971 09cc 23       		.byte	0x23
 2972 09cd 46       		.uleb128 0x46
 2973 09ce 14       		.uleb128 0x14
 2974 09cf 44435200 		.ascii	"DCR\000"
 2975 09d3 03       		.byte	0x3
 2976 09d4 C004     		.2byte	0x4c0
 2977 09d6 11       		.byte	0x11
 2978 09d7 02020000 		.4byte	0x202
 2979 09db 02       		.byte	0x2
 2980 09dc 23       		.byte	0x23
 2981 09dd 48       		.uleb128 0x48
ARM GAS  /tmp/cc8bNYNB.s 			page 64


 2982 09de 15       		.uleb128 0x15
 2983 09df 60070000 		.4byte	.LASF144
 2984 09e3 03       		.byte	0x3
 2985 09e4 C104     		.2byte	0x4c1
 2986 09e6 0D       		.byte	0xd
 2987 09e7 F6010000 		.4byte	0x1f6
 2988 09eb 02       		.byte	0x2
 2989 09ec 23       		.byte	0x23
 2990 09ed 4A       		.uleb128 0x4a
 2991 09ee 15       		.uleb128 0x15
 2992 09ef B9000000 		.4byte	.LASF145
 2993 09f3 03       		.byte	0x3
 2994 09f4 C204     		.2byte	0x4c2
 2995 09f6 11       		.byte	0x11
 2996 09f7 02020000 		.4byte	0x202
 2997 09fb 02       		.byte	0x2
 2998 09fc 23       		.byte	0x23
 2999 09fd 4C       		.uleb128 0x4c
 3000 09fe 15       		.uleb128 0x15
 3001 09ff 6B070000 		.4byte	.LASF146
 3002 0a03 03       		.byte	0x3
 3003 0a04 C304     		.2byte	0x4c3
 3004 0a06 0D       		.byte	0xd
 3005 0a07 F6010000 		.4byte	0x1f6
 3006 0a0b 02       		.byte	0x2
 3007 0a0c 23       		.byte	0x23
 3008 0a0d 4E       		.uleb128 0x4e
 3009 0a0e 00       		.byte	0
 3010 0a0f 06       		.uleb128 0x6
 3011 0a10 1F020000 		.4byte	.LASF147
 3012 0a14 03       		.byte	0x3
 3013 0a15 C404     		.2byte	0x4c4
 3014 0a17 03       		.byte	0x3
 3015 0a18 85070000 		.4byte	0x785
 3016 0a1c 13       		.uleb128 0x13
 3017 0a1d 1C       		.byte	0x1c
 3018 0a1e 03       		.byte	0x3
 3019 0a1f CA04     		.2byte	0x4ca
 3020 0a21 09       		.byte	0x9
 3021 0a22 050B0000 		.4byte	0xb05
 3022 0a26 14       		.uleb128 0x14
 3023 0a27 535200   		.ascii	"SR\000"
 3024 0a2a 03       		.byte	0x3
 3025 0a2b CC04     		.2byte	0x4cc
 3026 0a2d 11       		.byte	0x11
 3027 0a2e 02020000 		.4byte	0x202
 3028 0a32 02       		.byte	0x2
 3029 0a33 23       		.byte	0x23
 3030 0a34 00       		.uleb128 0
 3031 0a35 15       		.uleb128 0x15
 3032 0a36 2B020000 		.4byte	.LASF68
 3033 0a3a 03       		.byte	0x3
 3034 0a3b CD04     		.2byte	0x4cd
 3035 0a3d 0D       		.byte	0xd
 3036 0a3e F6010000 		.4byte	0x1f6
 3037 0a42 02       		.byte	0x2
 3038 0a43 23       		.byte	0x23
ARM GAS  /tmp/cc8bNYNB.s 			page 65


 3039 0a44 02       		.uleb128 0x2
 3040 0a45 14       		.uleb128 0x14
 3041 0a46 445200   		.ascii	"DR\000"
 3042 0a49 03       		.byte	0x3
 3043 0a4a CE04     		.2byte	0x4ce
 3044 0a4c 11       		.byte	0x11
 3045 0a4d 02020000 		.4byte	0x202
 3046 0a51 02       		.byte	0x2
 3047 0a52 23       		.byte	0x23
 3048 0a53 04       		.uleb128 0x4
 3049 0a54 15       		.uleb128 0x15
 3050 0a55 35020000 		.4byte	.LASF121
 3051 0a59 03       		.byte	0x3
 3052 0a5a CF04     		.2byte	0x4cf
 3053 0a5c 0D       		.byte	0xd
 3054 0a5d F6010000 		.4byte	0x1f6
 3055 0a61 02       		.byte	0x2
 3056 0a62 23       		.byte	0x23
 3057 0a63 06       		.uleb128 0x6
 3058 0a64 14       		.uleb128 0x14
 3059 0a65 42525200 		.ascii	"BRR\000"
 3060 0a69 03       		.byte	0x3
 3061 0a6a D004     		.2byte	0x4d0
 3062 0a6c 11       		.byte	0x11
 3063 0a6d 02020000 		.4byte	0x202
 3064 0a71 02       		.byte	0x2
 3065 0a72 23       		.byte	0x23
 3066 0a73 08       		.uleb128 0x8
 3067 0a74 15       		.uleb128 0x15
 3068 0a75 0D030000 		.4byte	.LASF72
 3069 0a79 03       		.byte	0x3
 3070 0a7a D104     		.2byte	0x4d1
 3071 0a7c 0D       		.byte	0xd
 3072 0a7d F6010000 		.4byte	0x1f6
 3073 0a81 02       		.byte	0x2
 3074 0a82 23       		.byte	0x23
 3075 0a83 0A       		.uleb128 0xa
 3076 0a84 14       		.uleb128 0x14
 3077 0a85 43523100 		.ascii	"CR1\000"
 3078 0a89 03       		.byte	0x3
 3079 0a8a D204     		.2byte	0x4d2
 3080 0a8c 11       		.byte	0x11
 3081 0a8d 02020000 		.4byte	0x202
 3082 0a91 02       		.byte	0x2
 3083 0a92 23       		.byte	0x23
 3084 0a93 0C       		.uleb128 0xc
 3085 0a94 15       		.uleb128 0x15
 3086 0a95 4D020000 		.4byte	.LASF74
 3087 0a99 03       		.byte	0x3
 3088 0a9a D304     		.2byte	0x4d3
 3089 0a9c 0D       		.byte	0xd
 3090 0a9d F6010000 		.4byte	0x1f6
 3091 0aa1 02       		.byte	0x2
 3092 0aa2 23       		.byte	0x23
 3093 0aa3 0E       		.uleb128 0xe
 3094 0aa4 14       		.uleb128 0x14
 3095 0aa5 43523200 		.ascii	"CR2\000"
ARM GAS  /tmp/cc8bNYNB.s 			page 66


 3096 0aa9 03       		.byte	0x3
 3097 0aaa D404     		.2byte	0x4d4
 3098 0aac 11       		.byte	0x11
 3099 0aad 02020000 		.4byte	0x202
 3100 0ab1 02       		.byte	0x2
 3101 0ab2 23       		.byte	0x23
 3102 0ab3 10       		.uleb128 0x10
 3103 0ab4 15       		.uleb128 0x15
 3104 0ab5 57020000 		.4byte	.LASF76
 3105 0ab9 03       		.byte	0x3
 3106 0aba D504     		.2byte	0x4d5
 3107 0abc 0D       		.byte	0xd
 3108 0abd F6010000 		.4byte	0x1f6
 3109 0ac1 02       		.byte	0x2
 3110 0ac2 23       		.byte	0x23
 3111 0ac3 12       		.uleb128 0x12
 3112 0ac4 14       		.uleb128 0x14
 3113 0ac5 43523300 		.ascii	"CR3\000"
 3114 0ac9 03       		.byte	0x3
 3115 0aca D604     		.2byte	0x4d6
 3116 0acc 11       		.byte	0x11
 3117 0acd 02020000 		.4byte	0x202
 3118 0ad1 02       		.byte	0x2
 3119 0ad2 23       		.byte	0x23
 3120 0ad3 14       		.uleb128 0x14
 3121 0ad4 15       		.uleb128 0x15
 3122 0ad5 61020000 		.4byte	.LASF77
 3123 0ad9 03       		.byte	0x3
 3124 0ada D704     		.2byte	0x4d7
 3125 0adc 0D       		.byte	0xd
 3126 0add F6010000 		.4byte	0x1f6
 3127 0ae1 02       		.byte	0x2
 3128 0ae2 23       		.byte	0x23
 3129 0ae3 16       		.uleb128 0x16
 3130 0ae4 15       		.uleb128 0x15
 3131 0ae5 65000000 		.4byte	.LASF148
 3132 0ae9 03       		.byte	0x3
 3133 0aea D804     		.2byte	0x4d8
 3134 0aec 11       		.byte	0x11
 3135 0aed 02020000 		.4byte	0x202
 3136 0af1 02       		.byte	0x2
 3137 0af2 23       		.byte	0x23
 3138 0af3 18       		.uleb128 0x18
 3139 0af4 15       		.uleb128 0x15
 3140 0af5 6B020000 		.4byte	.LASF125
 3141 0af9 03       		.byte	0x3
 3142 0afa D904     		.2byte	0x4d9
 3143 0afc 0D       		.byte	0xd
 3144 0afd F6010000 		.4byte	0x1f6
 3145 0b01 02       		.byte	0x2
 3146 0b02 23       		.byte	0x23
 3147 0b03 1A       		.uleb128 0x1a
 3148 0b04 00       		.byte	0
 3149 0b05 06       		.uleb128 0x6
 3150 0b06 BC030000 		.4byte	.LASF149
 3151 0b0a 03       		.byte	0x3
 3152 0b0b DA04     		.2byte	0x4da
ARM GAS  /tmp/cc8bNYNB.s 			page 67


 3153 0b0d 03       		.byte	0x3
 3154 0b0e 1C0A0000 		.4byte	0xa1c
 3155 0b12 16       		.uleb128 0x16
 3156 0b13 07       		.byte	0x7
 3157 0b14 01       		.byte	0x1
 3158 0b15 8E010000 		.4byte	0x18e
 3159 0b19 07       		.byte	0x7
 3160 0b1a 3B       		.byte	0x3b
 3161 0b1b 01       		.byte	0x1
 3162 0b1c 330B0000 		.4byte	0xb33
 3163 0b20 04       		.uleb128 0x4
 3164 0b21 380A0000 		.4byte	.LASF150
 3165 0b25 01       		.byte	0x1
 3166 0b26 04       		.uleb128 0x4
 3167 0b27 0B080000 		.4byte	.LASF151
 3168 0b2b 02       		.byte	0x2
 3169 0b2c 04       		.uleb128 0x4
 3170 0b2d A5030000 		.4byte	.LASF152
 3171 0b31 03       		.byte	0x3
 3172 0b32 00       		.byte	0
 3173 0b33 07       		.uleb128 0x7
 3174 0b34 1B080000 		.4byte	.LASF153
 3175 0b38 07       		.byte	0x7
 3176 0b39 3F       		.byte	0x3f
 3177 0b3a 02       		.byte	0x2
 3178 0b3b 120B0000 		.4byte	0xb12
 3179 0b3f 16       		.uleb128 0x16
 3180 0b40 07       		.byte	0x7
 3181 0b41 01       		.byte	0x1
 3182 0b42 8E010000 		.4byte	0x18e
 3183 0b46 07       		.byte	0x7
 3184 0b47 48       		.byte	0x48
 3185 0b48 01       		.byte	0x1
 3186 0b49 7E0B0000 		.4byte	0xb7e
 3187 0b4d 04       		.uleb128 0x4
 3188 0b4e 27010000 		.4byte	.LASF154
 3189 0b52 00       		.byte	0
 3190 0b53 04       		.uleb128 0x4
 3191 0b54 94080000 		.4byte	.LASF155
 3192 0b58 04       		.byte	0x4
 3193 0b59 04       		.uleb128 0x4
 3194 0b5a D10A0000 		.4byte	.LASF156
 3195 0b5e 28       		.byte	0x28
 3196 0b5f 04       		.uleb128 0x4
 3197 0b60 14000000 		.4byte	.LASF157
 3198 0b64 48       		.byte	0x48
 3199 0b65 04       		.uleb128 0x4
 3200 0b66 6A030000 		.4byte	.LASF158
 3201 0b6a 14       		.byte	0x14
 3202 0b6b 04       		.uleb128 0x4
 3203 0b6c 6F040000 		.4byte	.LASF159
 3204 0b70 10       		.byte	0x10
 3205 0b71 04       		.uleb128 0x4
 3206 0b72 86010000 		.4byte	.LASF160
 3207 0b76 1C       		.byte	0x1c
 3208 0b77 04       		.uleb128 0x4
 3209 0b78 93020000 		.4byte	.LASF161
ARM GAS  /tmp/cc8bNYNB.s 			page 68


 3210 0b7c 18       		.byte	0x18
 3211 0b7d 00       		.byte	0
 3212 0b7e 07       		.uleb128 0x7
 3213 0b7f C1070000 		.4byte	.LASF162
 3214 0b83 07       		.byte	0x7
 3215 0b84 50       		.byte	0x50
 3216 0b85 02       		.byte	0x2
 3217 0b86 3F0B0000 		.4byte	0xb3f
 3218 0b8a 17       		.uleb128 0x17
 3219 0b8b 04       		.byte	0x4
 3220 0b8c 07       		.byte	0x7
 3221 0b8d 5B       		.byte	0x5b
 3222 0b8e 09       		.byte	0x9
 3223 0b8f C10B0000 		.4byte	0xbc1
 3224 0b93 0B       		.uleb128 0xb
 3225 0b94 3F080000 		.4byte	.LASF163
 3226 0b98 07       		.byte	0x7
 3227 0b99 5D       		.byte	0x5d
 3228 0b9a 0C       		.byte	0xc
 3229 0b9b F6010000 		.4byte	0x1f6
 3230 0b9f 02       		.byte	0x2
 3231 0ba0 23       		.byte	0x23
 3232 0ba1 00       		.uleb128 0
 3233 0ba2 0B       		.uleb128 0xb
 3234 0ba3 EB000000 		.4byte	.LASF164
 3235 0ba7 07       		.byte	0x7
 3236 0ba8 60       		.byte	0x60
 3237 0ba9 15       		.byte	0x15
 3238 0baa 330B0000 		.4byte	0xb33
 3239 0bae 02       		.byte	0x2
 3240 0baf 23       		.byte	0x23
 3241 0bb0 02       		.uleb128 0x2
 3242 0bb1 0B       		.uleb128 0xb
 3243 0bb2 98070000 		.4byte	.LASF165
 3244 0bb6 07       		.byte	0x7
 3245 0bb7 63       		.byte	0x63
 3246 0bb8 14       		.byte	0x14
 3247 0bb9 7E0B0000 		.4byte	0xb7e
 3248 0bbd 02       		.byte	0x2
 3249 0bbe 23       		.byte	0x23
 3250 0bbf 03       		.uleb128 0x3
 3251 0bc0 00       		.byte	0
 3252 0bc1 07       		.uleb128 0x7
 3253 0bc2 0E020000 		.4byte	.LASF166
 3254 0bc6 07       		.byte	0x7
 3255 0bc7 65       		.byte	0x65
 3256 0bc8 02       		.byte	0x2
 3257 0bc9 8A0B0000 		.4byte	0xb8a
 3258 0bcd 17       		.uleb128 0x17
 3259 0bce 10       		.byte	0x10
 3260 0bcf 08       		.byte	0x8
 3261 0bd0 32       		.byte	0x32
 3262 0bd1 09       		.byte	0x9
 3263 0bd2 310C0000 		.4byte	0xc31
 3264 0bd6 0B       		.uleb128 0xb
 3265 0bd7 38040000 		.4byte	.LASF167
 3266 0bdb 08       		.byte	0x8
ARM GAS  /tmp/cc8bNYNB.s 			page 69


 3267 0bdc 34       		.byte	0x34
 3268 0bdd 0C       		.byte	0xc
 3269 0bde 07020000 		.4byte	0x207
 3270 0be2 02       		.byte	0x2
 3271 0be3 23       		.byte	0x23
 3272 0be4 00       		.uleb128 0
 3273 0be5 0B       		.uleb128 0xb
 3274 0be6 BA020000 		.4byte	.LASF168
 3275 0bea 08       		.byte	0x8
 3276 0beb 39       		.byte	0x39
 3277 0bec 0C       		.byte	0xc
 3278 0bed F6010000 		.4byte	0x1f6
 3279 0bf1 02       		.byte	0x2
 3280 0bf2 23       		.byte	0x23
 3281 0bf3 04       		.uleb128 0x4
 3282 0bf4 0B       		.uleb128 0xb
 3283 0bf5 32050000 		.4byte	.LASF169
 3284 0bf9 08       		.byte	0x8
 3285 0bfa 3C       		.byte	0x3c
 3286 0bfb 0C       		.byte	0xc
 3287 0bfc F6010000 		.4byte	0x1f6
 3288 0c00 02       		.byte	0x2
 3289 0c01 23       		.byte	0x23
 3290 0c02 06       		.uleb128 0x6
 3291 0c03 0B       		.uleb128 0xb
 3292 0c04 17030000 		.4byte	.LASF170
 3293 0c08 08       		.byte	0x8
 3294 0c09 3F       		.byte	0x3f
 3295 0c0a 0C       		.byte	0xc
 3296 0c0b F6010000 		.4byte	0x1f6
 3297 0c0f 02       		.byte	0x2
 3298 0c10 23       		.byte	0x23
 3299 0c11 08       		.uleb128 0x8
 3300 0c12 0B       		.uleb128 0xb
 3301 0c13 4C040000 		.4byte	.LASF171
 3302 0c17 08       		.byte	0x8
 3303 0c18 46       		.byte	0x46
 3304 0c19 0C       		.byte	0xc
 3305 0c1a F6010000 		.4byte	0x1f6
 3306 0c1e 02       		.byte	0x2
 3307 0c1f 23       		.byte	0x23
 3308 0c20 0A       		.uleb128 0xa
 3309 0c21 0B       		.uleb128 0xb
 3310 0c22 020A0000 		.4byte	.LASF172
 3311 0c26 08       		.byte	0x8
 3312 0c27 49       		.byte	0x49
 3313 0c28 0C       		.byte	0xc
 3314 0c29 F6010000 		.4byte	0x1f6
 3315 0c2d 02       		.byte	0x2
 3316 0c2e 23       		.byte	0x23
 3317 0c2f 0C       		.uleb128 0xc
 3318 0c30 00       		.byte	0
 3319 0c31 07       		.uleb128 0x7
 3320 0c32 D8070000 		.4byte	.LASF173
 3321 0c36 08       		.byte	0x8
 3322 0c37 4C       		.byte	0x4c
 3323 0c38 03       		.byte	0x3
ARM GAS  /tmp/cc8bNYNB.s 			page 70


 3324 0c39 CD0B0000 		.4byte	0xbcd
 3325 0c3d 05       		.uleb128 0x5
 3326 0c3e 08       		.byte	0x8
 3327 0c3f 04       		.byte	0x4
 3328 0c40 94060000 		.4byte	.LASF174
 3329 0c44 18       		.uleb128 0x18
 3330 0c45 04       		.byte	0x4
 3331 0c46 19       		.uleb128 0x19
 3332 0c47 04       		.byte	0x4
 3333 0c48 4C0C0000 		.4byte	0xc4c
 3334 0c4c 05       		.uleb128 0x5
 3335 0c4d 01       		.byte	0x1
 3336 0c4e 08       		.byte	0x8
 3337 0c4f 4E030000 		.4byte	.LASF175
 3338 0c53 05       		.uleb128 0x5
 3339 0c54 04       		.byte	0x4
 3340 0c55 04       		.byte	0x4
 3341 0c56 FD050000 		.4byte	.LASF176
 3342 0c5a 05       		.uleb128 0x5
 3343 0c5b 08       		.byte	0x8
 3344 0c5c 04       		.byte	0x4
 3345 0c5d BA050000 		.4byte	.LASF177
 3346 0c61 07       		.uleb128 0x7
 3347 0c62 84000000 		.4byte	.LASF178
 3348 0c66 09       		.byte	0x9
 3349 0c67 38       		.byte	0x38
 3350 0c68 0E       		.byte	0xe
 3351 0c69 AF010000 		.4byte	0x1af
 3352 0c6d 07       		.uleb128 0x7
 3353 0c6e AC070000 		.4byte	.LASF179
 3354 0c72 09       		.byte	0x9
 3355 0c73 3F       		.byte	0x3f
 3356 0c74 13       		.byte	0x13
 3357 0c75 07020000 		.4byte	0x207
 3358 0c79 07       		.uleb128 0x7
 3359 0c7a EC010000 		.4byte	.LASF180
 3360 0c7e 0A       		.byte	0xa
 3361 0c7f 30       		.byte	0x30
 3362 0c80 22       		.byte	0x22
 3363 0c81 850C0000 		.4byte	0xc85
 3364 0c85 19       		.uleb128 0x19
 3365 0c86 04       		.byte	0x4
 3366 0c87 8B0C0000 		.4byte	0xc8b
 3367 0c8b 1A       		.uleb128 0x1a
 3368 0c8c 17010000 		.4byte	.LASF230
 3369 0c90 01       		.byte	0x1
 3370 0c91 1B       		.uleb128 0x1b
 3371 0c92 8D060000 		.4byte	.LASF183
 3372 0c96 01       		.byte	0x1
 3373 0c97 2C       		.byte	0x2c
 3374 0c98 16       		.byte	0x16
 3375 0c99 790C0000 		.4byte	0xc79
 3376 0c9d 05       		.byte	0x5
 3377 0c9e 03       		.byte	0x3
 3378 0c9f 00000000 		.4byte	xQueue
 3379 0ca3 1C       		.uleb128 0x1c
 3380 0ca4 01       		.byte	0x1
ARM GAS  /tmp/cc8bNYNB.s 			page 71


 3381 0ca5 03060000 		.4byte	.LASF181
 3382 0ca9 01       		.byte	0x1
 3383 0caa D9       		.byte	0xd9
 3384 0cab 06       		.byte	0x6
 3385 0cac 01       		.byte	0x1
 3386 0cad F4030000 		.4byte	.LFB48
 3387 0cb1 1C040000 		.4byte	.LFE48
 3388 0cb5 00000000 		.4byte	.LLST25
 3389 0cb9 01       		.byte	0x1
 3390 0cba FD0C0000 		.4byte	0xcfd
 3391 0cbe 1D       		.uleb128 0x1d
 3392 0cbf 7B070000 		.4byte	.LASF186
 3393 0cc3 01       		.byte	0x1
 3394 0cc4 D9       		.byte	0xd9
 3395 0cc5 16       		.byte	0x16
 3396 0cc6 460C0000 		.4byte	0xc46
 3397 0cca 28000000 		.4byte	.LLST26
 3398 0cce 20000000 		.4byte	.LVUS26
 3399 0cd2 1E       		.uleb128 0x1e
 3400 0cd3 08040000 		.4byte	.LVL66
 3401 0cd7 2D130000 		.4byte	0x132d
 3402 0cdb E60C0000 		.4byte	0xce6
 3403 0cdf 1F       		.uleb128 0x1f
 3404 0ce0 01       		.byte	0x1
 3405 0ce1 50       		.byte	0x50
 3406 0ce2 02       		.byte	0x2
 3407 0ce3 75       		.byte	0x75
 3408 0ce4 00       		.sleb128 0
 3409 0ce5 00       		.byte	0
 3410 0ce6 20       		.uleb128 0x20
 3411 0ce7 10040000 		.4byte	.LVL67
 3412 0ceb 3C130000 		.4byte	0x133c
 3413 0cef 1F       		.uleb128 0x1f
 3414 0cf0 01       		.byte	0x1
 3415 0cf1 50       		.byte	0x50
 3416 0cf2 02       		.byte	0x2
 3417 0cf3 75       		.byte	0x75
 3418 0cf4 00       		.sleb128 0
 3419 0cf5 1F       		.uleb128 0x1f
 3420 0cf6 01       		.byte	0x1
 3421 0cf7 51       		.byte	0x51
 3422 0cf8 02       		.byte	0x2
 3423 0cf9 08       		.byte	0x8
 3424 0cfa 40       		.byte	0x40
 3425 0cfb 00       		.byte	0
 3426 0cfc 00       		.byte	0
 3427 0cfd 1C       		.uleb128 0x1c
 3428 0cfe 01       		.byte	0x1
 3429 0cff F6000000 		.4byte	.LASF182
 3430 0d03 01       		.byte	0x1
 3431 0d04 A3       		.byte	0xa3
 3432 0d05 06       		.byte	0x6
 3433 0d06 01       		.byte	0x1
 3434 0d07 84030000 		.4byte	.LFB47
 3435 0d0b F4030000 		.4byte	.LFE47
 3436 0d0f 60000000 		.4byte	.LLST23
 3437 0d13 01       		.byte	0x1
ARM GAS  /tmp/cc8bNYNB.s 			page 72


 3438 0d14 B40D0000 		.4byte	0xdb4
 3439 0d18 1B       		.uleb128 0x1b
 3440 0d19 85070000 		.4byte	.LASF184
 3441 0d1d 01       		.byte	0x1
 3442 0d1e A9       		.byte	0xa9
 3443 0d1f 13       		.byte	0x13
 3444 0d20 C10B0000 		.4byte	0xbc1
 3445 0d24 02       		.byte	0x2
 3446 0d25 91       		.byte	0x91
 3447 0d26 64       		.sleb128 -28
 3448 0d27 1B       		.uleb128 0x1b
 3449 0d28 72010000 		.4byte	.LASF185
 3450 0d2c 01       		.byte	0x1
 3451 0d2d B8       		.byte	0xb8
 3452 0d2e 14       		.byte	0x14
 3453 0d2f 310C0000 		.4byte	0xc31
 3454 0d33 02       		.byte	0x2
 3455 0d34 91       		.byte	0x91
 3456 0d35 68       		.sleb128 -24
 3457 0d36 1E       		.uleb128 0x1e
 3458 0d37 92030000 		.4byte	.LVL49
 3459 0d3b 4B130000 		.4byte	0x134b
 3460 0d3f 500D0000 		.4byte	0xd50
 3461 0d43 1F       		.uleb128 0x1f
 3462 0d44 01       		.byte	0x1
 3463 0d45 50       		.byte	0x50
 3464 0d46 03       		.byte	0x3
 3465 0d47 0A       		.byte	0xa
 3466 0d48 0440     		.2byte	0x4004
 3467 0d4a 1F       		.uleb128 0x1f
 3468 0d4b 01       		.byte	0x1
 3469 0d4c 51       		.byte	0x51
 3470 0d4d 01       		.byte	0x1
 3471 0d4e 31       		.byte	0x31
 3472 0d4f 00       		.byte	0
 3473 0d50 1E       		.uleb128 0x1e
 3474 0d51 AC030000 		.4byte	.LVL50
 3475 0d55 5A130000 		.4byte	0x135a
 3476 0d59 6A0D0000 		.4byte	0xd6a
 3477 0d5d 1F       		.uleb128 0x1f
 3478 0d5e 01       		.byte	0x1
 3479 0d5f 50       		.byte	0x50
 3480 0d60 02       		.byte	0x2
 3481 0d61 74       		.byte	0x74
 3482 0d62 00       		.sleb128 0
 3483 0d63 1F       		.uleb128 0x1f
 3484 0d64 01       		.byte	0x1
 3485 0d65 51       		.byte	0x51
 3486 0d66 02       		.byte	0x2
 3487 0d67 91       		.byte	0x91
 3488 0d68 64       		.sleb128 -28
 3489 0d69 00       		.byte	0
 3490 0d6a 1E       		.uleb128 0x1e
 3491 0d6b C4030000 		.4byte	.LVL51
 3492 0d6f 5A130000 		.4byte	0x135a
 3493 0d73 840D0000 		.4byte	0xd84
 3494 0d77 1F       		.uleb128 0x1f
ARM GAS  /tmp/cc8bNYNB.s 			page 73


 3495 0d78 01       		.byte	0x1
 3496 0d79 50       		.byte	0x50
 3497 0d7a 02       		.byte	0x2
 3498 0d7b 74       		.byte	0x74
 3499 0d7c 00       		.sleb128 0
 3500 0d7d 1F       		.uleb128 0x1f
 3501 0d7e 01       		.byte	0x1
 3502 0d7f 51       		.byte	0x51
 3503 0d80 02       		.byte	0x2
 3504 0d81 91       		.byte	0x91
 3505 0d82 64       		.sleb128 -28
 3506 0d83 00       		.byte	0
 3507 0d84 1E       		.uleb128 0x1e
 3508 0d85 E4030000 		.4byte	.LVL52
 3509 0d89 69130000 		.4byte	0x1369
 3510 0d8d 9E0D0000 		.4byte	0xd9e
 3511 0d91 1F       		.uleb128 0x1f
 3512 0d92 01       		.byte	0x1
 3513 0d93 50       		.byte	0x50
 3514 0d94 02       		.byte	0x2
 3515 0d95 74       		.byte	0x74
 3516 0d96 00       		.sleb128 0
 3517 0d97 1F       		.uleb128 0x1f
 3518 0d98 01       		.byte	0x1
 3519 0d99 51       		.byte	0x51
 3520 0d9a 02       		.byte	0x2
 3521 0d9b 91       		.byte	0x91
 3522 0d9c 68       		.sleb128 -24
 3523 0d9d 00       		.byte	0
 3524 0d9e 20       		.uleb128 0x20
 3525 0d9f EC030000 		.4byte	.LVL53
 3526 0da3 78130000 		.4byte	0x1378
 3527 0da7 1F       		.uleb128 0x1f
 3528 0da8 01       		.byte	0x1
 3529 0da9 50       		.byte	0x50
 3530 0daa 02       		.byte	0x2
 3531 0dab 74       		.byte	0x74
 3532 0dac 00       		.sleb128 0
 3533 0dad 1F       		.uleb128 0x1f
 3534 0dae 01       		.byte	0x1
 3535 0daf 51       		.byte	0x51
 3536 0db0 01       		.byte	0x1
 3537 0db1 31       		.byte	0x31
 3538 0db2 00       		.byte	0
 3539 0db3 00       		.byte	0
 3540 0db4 21       		.uleb128 0x21
 3541 0db5 01       		.byte	0x1
 3542 0db6 8C050000 		.4byte	.LASF206
 3543 0dba 01       		.byte	0x1
 3544 0dbb 83       		.byte	0x83
 3545 0dbc 06       		.byte	0x6
 3546 0dbd D4020000 		.4byte	.LFB46
 3547 0dc1 84030000 		.4byte	.LFE46
 3548 0dc5 02       		.byte	0x2
 3549 0dc6 7D       		.byte	0x7d
 3550 0dc7 00       		.sleb128 0
 3551 0dc8 01       		.byte	0x1
ARM GAS  /tmp/cc8bNYNB.s 			page 74


 3552 0dc9 22       		.uleb128 0x22
 3553 0dca 01       		.byte	0x1
 3554 0dcb 55010000 		.4byte	.LASF231
 3555 0dcf 01       		.byte	0x1
 3556 0dd0 69       		.byte	0x69
 3557 0dd1 05       		.byte	0x5
 3558 0dd2 01       		.byte	0x1
 3559 0dd3 D7010000 		.4byte	0x1d7
 3560 0dd7 00000000 		.4byte	.LFB45
 3561 0ddb A0000000 		.4byte	.LFE45
 3562 0ddf 98000000 		.4byte	.LLST24
 3563 0de3 01       		.byte	0x1
 3564 0de4 D80E0000 		.4byte	0xed8
 3565 0de8 1E       		.uleb128 0x1e
 3566 0de9 0C000000 		.4byte	.LVL54
 3567 0ded 87130000 		.4byte	0x1387
 3568 0df1 050E0000 		.4byte	0xe05
 3569 0df5 1F       		.uleb128 0x1f
 3570 0df6 01       		.byte	0x1
 3571 0df7 50       		.byte	0x50
 3572 0df8 01       		.byte	0x1
 3573 0df9 35       		.byte	0x35
 3574 0dfa 1F       		.uleb128 0x1f
 3575 0dfb 01       		.byte	0x1
 3576 0dfc 51       		.byte	0x51
 3577 0dfd 01       		.byte	0x1
 3578 0dfe 34       		.byte	0x34
 3579 0dff 1F       		.uleb128 0x1f
 3580 0e00 01       		.byte	0x1
 3581 0e01 52       		.byte	0x52
 3582 0e02 01       		.byte	0x1
 3583 0e03 30       		.byte	0x30
 3584 0e04 00       		.byte	0
 3585 0e05 23       		.uleb128 0x23
 3586 0e06 18000000 		.4byte	.LVL55
 3587 0e0a 69120000 		.4byte	0x1269
 3588 0e0e 23       		.uleb128 0x23
 3589 0e0f 40000000 		.4byte	.LVL56
 3590 0e13 B40D0000 		.4byte	0xdb4
 3591 0e17 23       		.uleb128 0x23
 3592 0e18 44000000 		.4byte	.LVL57
 3593 0e1c FD0C0000 		.4byte	0xcfd
 3594 0e20 1E       		.uleb128 0x1e
 3595 0e21 54000000 		.4byte	.LVL58
 3596 0e25 96130000 		.4byte	0x1396
 3597 0e29 5A0E0000 		.4byte	0xe5a
 3598 0e2d 1F       		.uleb128 0x1f
 3599 0e2e 01       		.byte	0x1
 3600 0e2f 50       		.byte	0x50
 3601 0e30 05       		.byte	0x5
 3602 0e31 03       		.byte	0x3
 3603 0e32 00000000 		.4byte	task1
 3604 0e36 1F       		.uleb128 0x1f
 3605 0e37 01       		.byte	0x1
 3606 0e38 51       		.byte	0x51
 3607 0e39 05       		.byte	0x5
 3608 0e3a 03       		.byte	0x3
ARM GAS  /tmp/cc8bNYNB.s 			page 75


 3609 0e3b 00000000 		.4byte	.LC0
 3610 0e3f 1F       		.uleb128 0x1f
 3611 0e40 01       		.byte	0x1
 3612 0e41 52       		.byte	0x52
 3613 0e42 02       		.byte	0x2
 3614 0e43 08       		.byte	0x8
 3615 0e44 64       		.byte	0x64
 3616 0e45 1F       		.uleb128 0x1f
 3617 0e46 01       		.byte	0x1
 3618 0e47 53       		.byte	0x53
 3619 0e48 02       		.byte	0x2
 3620 0e49 74       		.byte	0x74
 3621 0e4a 00       		.sleb128 0
 3622 0e4b 1F       		.uleb128 0x1f
 3623 0e4c 02       		.byte	0x2
 3624 0e4d 7D       		.byte	0x7d
 3625 0e4e 00       		.sleb128 0
 3626 0e4f 02       		.byte	0x2
 3627 0e50 75       		.byte	0x75
 3628 0e51 00       		.sleb128 0
 3629 0e52 1F       		.uleb128 0x1f
 3630 0e53 02       		.byte	0x2
 3631 0e54 7D       		.byte	0x7d
 3632 0e55 04       		.sleb128 4
 3633 0e56 02       		.byte	0x2
 3634 0e57 74       		.byte	0x74
 3635 0e58 00       		.sleb128 0
 3636 0e59 00       		.byte	0
 3637 0e5a 1E       		.uleb128 0x1e
 3638 0e5b 64000000 		.4byte	.LVL59
 3639 0e5f 96130000 		.4byte	0x1396
 3640 0e63 940E0000 		.4byte	0xe94
 3641 0e67 1F       		.uleb128 0x1f
 3642 0e68 01       		.byte	0x1
 3643 0e69 50       		.byte	0x50
 3644 0e6a 05       		.byte	0x5
 3645 0e6b 03       		.byte	0x3
 3646 0e6c 00000000 		.4byte	task2
 3647 0e70 1F       		.uleb128 0x1f
 3648 0e71 01       		.byte	0x1
 3649 0e72 51       		.byte	0x51
 3650 0e73 05       		.byte	0x5
 3651 0e74 03       		.byte	0x3
 3652 0e75 0C000000 		.4byte	.LC1
 3653 0e79 1F       		.uleb128 0x1f
 3654 0e7a 01       		.byte	0x1
 3655 0e7b 52       		.byte	0x52
 3656 0e7c 02       		.byte	0x2
 3657 0e7d 08       		.byte	0x8
 3658 0e7e C8       		.byte	0xc8
 3659 0e7f 1F       		.uleb128 0x1f
 3660 0e80 01       		.byte	0x1
 3661 0e81 53       		.byte	0x53
 3662 0e82 02       		.byte	0x2
 3663 0e83 74       		.byte	0x74
 3664 0e84 00       		.sleb128 0
 3665 0e85 1F       		.uleb128 0x1f
ARM GAS  /tmp/cc8bNYNB.s 			page 76


 3666 0e86 02       		.byte	0x2
 3667 0e87 7D       		.byte	0x7d
 3668 0e88 00       		.sleb128 0
 3669 0e89 02       		.byte	0x2
 3670 0e8a 75       		.byte	0x75
 3671 0e8b 00       		.sleb128 0
 3672 0e8c 1F       		.uleb128 0x1f
 3673 0e8d 02       		.byte	0x2
 3674 0e8e 7D       		.byte	0x7d
 3675 0e8f 04       		.sleb128 4
 3676 0e90 02       		.byte	0x2
 3677 0e91 74       		.byte	0x74
 3678 0e92 00       		.sleb128 0
 3679 0e93 00       		.byte	0
 3680 0e94 1E       		.uleb128 0x1e
 3681 0e95 74000000 		.4byte	.LVL60
 3682 0e99 96130000 		.4byte	0x1396
 3683 0e9d CE0E0000 		.4byte	0xece
 3684 0ea1 1F       		.uleb128 0x1f
 3685 0ea2 01       		.byte	0x1
 3686 0ea3 50       		.byte	0x50
 3687 0ea4 05       		.byte	0x5
 3688 0ea5 03       		.byte	0x3
 3689 0ea6 00000000 		.4byte	task3
 3690 0eaa 1F       		.uleb128 0x1f
 3691 0eab 01       		.byte	0x1
 3692 0eac 51       		.byte	0x51
 3693 0ead 05       		.byte	0x5
 3694 0eae 03       		.byte	0x3
 3695 0eaf 15000000 		.4byte	.LC2
 3696 0eb3 1F       		.uleb128 0x1f
 3697 0eb4 01       		.byte	0x1
 3698 0eb5 52       		.byte	0x52
 3699 0eb6 02       		.byte	0x2
 3700 0eb7 08       		.byte	0x8
 3701 0eb8 64       		.byte	0x64
 3702 0eb9 1F       		.uleb128 0x1f
 3703 0eba 01       		.byte	0x1
 3704 0ebb 53       		.byte	0x53
 3705 0ebc 02       		.byte	0x2
 3706 0ebd 74       		.byte	0x74
 3707 0ebe 00       		.sleb128 0
 3708 0ebf 1F       		.uleb128 0x1f
 3709 0ec0 02       		.byte	0x2
 3710 0ec1 7D       		.byte	0x7d
 3711 0ec2 00       		.sleb128 0
 3712 0ec3 02       		.byte	0x2
 3713 0ec4 75       		.byte	0x75
 3714 0ec5 00       		.sleb128 0
 3715 0ec6 1F       		.uleb128 0x1f
 3716 0ec7 02       		.byte	0x2
 3717 0ec8 7D       		.byte	0x7d
 3718 0ec9 04       		.sleb128 4
 3719 0eca 02       		.byte	0x2
 3720 0ecb 74       		.byte	0x74
 3721 0ecc 00       		.sleb128 0
 3722 0ecd 00       		.byte	0
ARM GAS  /tmp/cc8bNYNB.s 			page 77


 3723 0ece 23       		.uleb128 0x23
 3724 0ecf 78000000 		.4byte	.LVL61
 3725 0ed3 A5130000 		.4byte	0x13a5
 3726 0ed7 00       		.byte	0
 3727 0ed8 24       		.uleb128 0x24
 3728 0ed9 7F060000 		.4byte	.LASF188
 3729 0edd 01       		.byte	0x1
 3730 0ede 52       		.byte	0x52
 3731 0edf 0D       		.byte	0xd
 3732 0ee0 01       		.byte	0x1
 3733 0ee1 00000000 		.4byte	.LFB44
 3734 0ee5 20000000 		.4byte	.LFE44
 3735 0ee9 B8000000 		.4byte	.LLST0
 3736 0eed 01       		.byte	0x1
 3737 0eee 170F0000 		.4byte	0xf17
 3738 0ef2 1D       		.uleb128 0x1d
 3739 0ef3 53050000 		.4byte	.LASF187
 3740 0ef7 01       		.byte	0x1
 3741 0ef8 52       		.byte	0x52
 3742 0ef9 19       		.byte	0x19
 3743 0efa 440C0000 		.4byte	0xc44
 3744 0efe DC000000 		.4byte	.LLST1
 3745 0f02 D8000000 		.4byte	.LVUS1
 3746 0f06 20       		.uleb128 0x20
 3747 0f07 1A000000 		.4byte	.LVL2
 3748 0f0b B4130000 		.4byte	0x13b4
 3749 0f0f 1F       		.uleb128 0x1f
 3750 0f10 01       		.byte	0x1
 3751 0f11 50       		.byte	0x50
 3752 0f12 02       		.byte	0x2
 3753 0f13 08       		.byte	0x8
 3754 0f14 32       		.byte	0x32
 3755 0f15 00       		.byte	0
 3756 0f16 00       		.byte	0
 3757 0f17 24       		.uleb128 0x24
 3758 0f18 79060000 		.4byte	.LASF189
 3759 0f1c 01       		.byte	0x1
 3760 0f1d 44       		.byte	0x44
 3761 0f1e 0D       		.byte	0xd
 3762 0f1f 01       		.byte	0x1
 3763 0f20 1C040000 		.4byte	.LFB43
 3764 0f24 70040000 		.4byte	.LFE43
 3765 0f28 FD000000 		.4byte	.LLST27
 3766 0f2c 01       		.byte	0x1
 3767 0f2d D70F0000 		.4byte	0xfd7
 3768 0f31 1D       		.uleb128 0x1d
 3769 0f32 53050000 		.4byte	.LASF187
 3770 0f36 01       		.byte	0x1
 3771 0f37 44       		.byte	0x44
 3772 0f38 19       		.byte	0x19
 3773 0f39 440C0000 		.4byte	0xc44
 3774 0f3d 21010000 		.4byte	.LLST28
 3775 0f41 1D010000 		.4byte	.LVUS28
 3776 0f45 25       		.uleb128 0x25
 3777 0f46 646400   		.ascii	"dd\000"
 3778 0f49 01       		.byte	0x1
 3779 0f4a 45       		.byte	0x45
ARM GAS  /tmp/cc8bNYNB.s 			page 78


 3780 0f4b 06       		.byte	0x6
 3781 0f4c 69030000 		.4byte	0x369
 3782 0f50 02       		.byte	0x2
 3783 0f51 91       		.byte	0x91
 3784 0f52 6A       		.sleb128 -22
 3785 0f53 1B       		.uleb128 0x1b
 3786 0f54 A0060000 		.4byte	.LASF190
 3787 0f58 01       		.byte	0x1
 3788 0f59 46       		.byte	0x46
 3789 0f5a 07       		.byte	0x7
 3790 0f5b D70F0000 		.4byte	0xfd7
 3791 0f5f 02       		.byte	0x2
 3792 0f60 91       		.byte	0x91
 3793 0f61 6C       		.sleb128 -20
 3794 0f62 1E       		.uleb128 0x1e
 3795 0f63 30040000 		.4byte	.LVL70
 3796 0f67 C3130000 		.4byte	0x13c3
 3797 0f6b 7B0F0000 		.4byte	0xf7b
 3798 0f6f 1F       		.uleb128 0x1f
 3799 0f70 01       		.byte	0x1
 3800 0f71 51       		.byte	0x51
 3801 0f72 02       		.byte	0x2
 3802 0f73 91       		.byte	0x91
 3803 0f74 6A       		.sleb128 -22
 3804 0f75 1F       		.uleb128 0x1f
 3805 0f76 01       		.byte	0x1
 3806 0f77 52       		.byte	0x52
 3807 0f78 01       		.byte	0x1
 3808 0f79 3A       		.byte	0x3a
 3809 0f7a 00       		.byte	0
 3810 0f7b 23       		.uleb128 0x23
 3811 0f7c 3C040000 		.4byte	.LVL71
 3812 0f80 D2130000 		.4byte	0x13d2
 3813 0f84 23       		.uleb128 0x23
 3814 0f85 42040000 		.4byte	.LVL72
 3815 0f89 DD130000 		.4byte	0x13dd
 3816 0f8d 23       		.uleb128 0x23
 3817 0f8e 48040000 		.4byte	.LVL73
 3818 0f92 E8130000 		.4byte	0x13e8
 3819 0f96 1E       		.uleb128 0x1e
 3820 0f97 52040000 		.4byte	.LVL74
 3821 0f9b A1100000 		.4byte	0x10a1
 3822 0f9f AF0F0000 		.4byte	0xfaf
 3823 0fa3 1F       		.uleb128 0x1f
 3824 0fa4 01       		.byte	0x1
 3825 0fa5 51       		.byte	0x51
 3826 0fa6 02       		.byte	0x2
 3827 0fa7 91       		.byte	0x91
 3828 0fa8 6C       		.sleb128 -20
 3829 0fa9 1F       		.uleb128 0x1f
 3830 0faa 01       		.byte	0x1
 3831 0fab 52       		.byte	0x52
 3832 0fac 01       		.byte	0x1
 3833 0fad 34       		.byte	0x34
 3834 0fae 00       		.byte	0
 3835 0faf 1E       		.uleb128 0x1e
 3836 0fb0 58040000 		.4byte	.LVL75
ARM GAS  /tmp/cc8bNYNB.s 			page 79


 3837 0fb4 A30C0000 		.4byte	0xca3
 3838 0fb8 C60F0000 		.4byte	0xfc6
 3839 0fbc 1F       		.uleb128 0x1f
 3840 0fbd 01       		.byte	0x1
 3841 0fbe 50       		.byte	0x50
 3842 0fbf 05       		.byte	0x5
 3843 0fc0 03       		.byte	0x3
 3844 0fc1 1D000000 		.4byte	.LC3
 3845 0fc5 00       		.byte	0
 3846 0fc6 20       		.uleb128 0x20
 3847 0fc7 5E040000 		.4byte	.LVL76
 3848 0fcb A30C0000 		.4byte	0xca3
 3849 0fcf 1F       		.uleb128 0x1f
 3850 0fd0 01       		.byte	0x1
 3851 0fd1 50       		.byte	0x50
 3852 0fd2 02       		.byte	0x2
 3853 0fd3 91       		.byte	0x91
 3854 0fd4 6C       		.sleb128 -20
 3855 0fd5 00       		.byte	0
 3856 0fd6 00       		.byte	0
 3857 0fd7 0D       		.uleb128 0xd
 3858 0fd8 4C0C0000 		.4byte	0xc4c
 3859 0fdc E70F0000 		.4byte	0xfe7
 3860 0fe0 0E       		.uleb128 0xe
 3861 0fe1 DE010000 		.4byte	0x1de
 3862 0fe5 09       		.byte	0x9
 3863 0fe6 00       		.byte	0
 3864 0fe7 24       		.uleb128 0x24
 3865 0fe8 73060000 		.4byte	.LASF191
 3866 0fec 01       		.byte	0x1
 3867 0fed 2F       		.byte	0x2f
 3868 0fee 0D       		.byte	0xd
 3869 0fef 01       		.byte	0x1
 3870 0ff0 20000000 		.4byte	.LFB42
 3871 0ff4 88000000 		.4byte	.LFE42
 3872 0ff8 42010000 		.4byte	.LLST2
 3873 0ffc 01       		.byte	0x1
 3874 0ffd 53100000 		.4byte	0x1053
 3875 1001 1D       		.uleb128 0x1d
 3876 1002 53050000 		.4byte	.LASF187
 3877 1006 01       		.byte	0x1
 3878 1007 2F       		.byte	0x2f
 3879 1008 19       		.byte	0x19
 3880 1009 440C0000 		.4byte	0xc44
 3881 100d 66010000 		.4byte	.LLST3
 3882 1011 62010000 		.4byte	.LVUS3
 3883 1015 1B       		.uleb128 0x1b
 3884 1016 D6050000 		.4byte	.LASF192
 3885 101a 01       		.byte	0x1
 3886 101b 32       		.byte	0x32
 3887 101c 06       		.byte	0x6
 3888 101d 69030000 		.4byte	0x369
 3889 1021 02       		.byte	0x2
 3890 1022 91       		.byte	0x91
 3891 1023 76       		.sleb128 -10
 3892 1024 1E       		.uleb128 0x1e
 3893 1025 74000000 		.4byte	.LVL5
ARM GAS  /tmp/cc8bNYNB.s 			page 80


 3894 1029 F3130000 		.4byte	0x13f3
 3895 102d 43100000 		.4byte	0x1043
 3896 1031 1F       		.uleb128 0x1f
 3897 1032 01       		.byte	0x1
 3898 1033 51       		.byte	0x51
 3899 1034 02       		.byte	0x2
 3900 1035 91       		.byte	0x91
 3901 1036 76       		.sleb128 -10
 3902 1037 1F       		.uleb128 0x1f
 3903 1038 01       		.byte	0x1
 3904 1039 52       		.byte	0x52
 3905 103a 01       		.byte	0x1
 3906 103b 31       		.byte	0x31
 3907 103c 1F       		.uleb128 0x1f
 3908 103d 01       		.byte	0x1
 3909 103e 53       		.byte	0x53
 3910 103f 02       		.byte	0x2
 3911 1040 76       		.byte	0x76
 3912 1041 00       		.sleb128 0
 3913 1042 00       		.byte	0
 3914 1043 20       		.uleb128 0x20
 3915 1044 7A000000 		.4byte	.LVL6
 3916 1048 B4130000 		.4byte	0x13b4
 3917 104c 1F       		.uleb128 0x1f
 3918 104d 01       		.byte	0x1
 3919 104e 50       		.byte	0x50
 3920 104f 01       		.byte	0x1
 3921 1050 3A       		.byte	0x3a
 3922 1051 00       		.byte	0
 3923 1052 00       		.byte	0
 3924 1053 26       		.uleb128 0x26
 3925 1054 01       		.byte	0x1
 3926 1055 5E060000 		.4byte	.LASF197
 3927 1059 02       		.byte	0x2
 3928 105a 9D       		.byte	0x9d
 3929 105b 06       		.byte	0x6
 3930 105c 01       		.byte	0x1
 3931 105d 01       		.byte	0x1
 3932 105e A1100000 		.4byte	0x10a1
 3933 1062 27       		.uleb128 0x27
 3934 1063 6E756D00 		.ascii	"num\000"
 3935 1067 02       		.byte	0x2
 3936 1068 9D       		.byte	0x9d
 3937 1069 13       		.byte	0x13
 3938 106a D7010000 		.4byte	0x1d7
 3939 106e 27       		.uleb128 0x27
 3940 106f 73747200 		.ascii	"str\000"
 3941 1073 02       		.byte	0x2
 3942 1074 9D       		.byte	0x9d
 3943 1075 1E       		.byte	0x1e
 3944 1076 460C0000 		.4byte	0xc46
 3945 107a 28       		.uleb128 0x28
 3946 107b 6C656E00 		.ascii	"len\000"
 3947 107f 02       		.byte	0x2
 3948 1080 A5       		.byte	0xa5
 3949 1081 09       		.byte	0x9
 3950 1082 D7010000 		.4byte	0x1d7
ARM GAS  /tmp/cc8bNYNB.s 			page 81


 3951 1086 29       		.uleb128 0x29
 3952 1087 FA030000 		.4byte	.LASF193
 3953 108b 02       		.byte	0x2
 3954 108c A6       		.byte	0xa6
 3955 108d 09       		.byte	0x9
 3956 108e D7010000 		.4byte	0x1d7
 3957 1092 2A       		.uleb128 0x2a
 3958 1093 29       		.uleb128 0x29
 3959 1094 7D000000 		.4byte	.LASF194
 3960 1098 02       		.byte	0x2
 3961 1099 B0       		.byte	0xb0
 3962 109a 0D       		.byte	0xd
 3963 109b D7010000 		.4byte	0x1d7
 3964 109f 00       		.byte	0
 3965 10a0 00       		.byte	0
 3966 10a1 1C       		.uleb128 0x1c
 3967 10a2 01       		.byte	0x1
 3968 10a3 8E0A0000 		.4byte	.LASF195
 3969 10a7 02       		.byte	0x2
 3970 10a8 7F       		.byte	0x7f
 3971 10a9 06       		.byte	0x6
 3972 10aa 01       		.byte	0x1
 3973 10ab 50020000 		.4byte	.LFB35
 3974 10af D4020000 		.4byte	.LFE35
 3975 10b3 87010000 		.4byte	.LLST15
 3976 10b7 01       		.byte	0x1
 3977 10b8 CD110000 		.4byte	0x11cd
 3978 10bc 2B       		.uleb128 0x2b
 3979 10bd 6E756D00 		.ascii	"num\000"
 3980 10c1 02       		.byte	0x2
 3981 10c2 7F       		.byte	0x7f
 3982 10c3 1A       		.byte	0x1a
 3983 10c4 530C0000 		.4byte	0xc53
 3984 10c8 AB010000 		.4byte	.LLST16
 3985 10cc A7010000 		.4byte	.LVUS16
 3986 10d0 2B       		.uleb128 0x2b
 3987 10d1 73747200 		.ascii	"str\000"
 3988 10d5 02       		.byte	0x2
 3989 10d6 7F       		.byte	0x7f
 3990 10d7 25       		.byte	0x25
 3991 10d8 460C0000 		.4byte	0xc46
 3992 10dc DB010000 		.4byte	.LLST17
 3993 10e0 C9010000 		.4byte	.LVUS17
 3994 10e4 1D       		.uleb128 0x1d
 3995 10e5 AA080000 		.4byte	.LASF196
 3996 10e9 02       		.byte	0x2
 3997 10ea 7F       		.byte	0x7f
 3998 10eb 2E       		.byte	0x2e
 3999 10ec D7010000 		.4byte	0x1d7
 4000 10f0 52020000 		.4byte	.LLST18
 4001 10f4 4A020000 		.4byte	.LVUS18
 4002 10f8 2C       		.uleb128 0x2c
 4003 10f9 C90A0000 		.4byte	.LASF198
 4004 10fd 02       		.byte	0x2
 4005 10fe 87       		.byte	0x87
 4006 10ff 09       		.byte	0x9
 4007 1100 D7010000 		.4byte	0x1d7
ARM GAS  /tmp/cc8bNYNB.s 			page 82


 4008 1104 8D020000 		.4byte	.LLST19
 4009 1108 89020000 		.4byte	.LVUS19
 4010 110c 2D       		.uleb128 0x2d
 4011 110d 01       		.byte	0x1
 4012 110e 5E060000 		.4byte	.LASF197
 4013 1112 02       		.byte	0x2
 4014 1113 88       		.byte	0x88
 4015 1114 05       		.byte	0x5
 4016 1115 D7010000 		.4byte	0x1d7
 4017 1119 01       		.byte	0x1
 4018 111a 20110000 		.4byte	0x1120
 4019 111e 2E       		.uleb128 0x2e
 4020 111f 00       		.byte	0
 4021 1120 2C       		.uleb128 0x2c
 4022 1121 38000000 		.4byte	.LASF199
 4023 1125 02       		.byte	0x2
 4024 1126 91       		.byte	0x91
 4025 1127 0B       		.byte	0xb
 4026 1128 530C0000 		.4byte	0xc53
 4027 112c B1020000 		.4byte	.LLST20
 4028 1130 AB020000 		.4byte	.LVUS20
 4029 1134 2F       		.uleb128 0x2f
 4030 1135 30000000 		.4byte	.Ldebug_ranges0+0x30
 4031 1139 8E110000 		.4byte	0x118e
 4032 113d 30       		.uleb128 0x30
 4033 113e 6900     		.ascii	"i\000"
 4034 1140 02       		.byte	0x2
 4035 1141 92       		.byte	0x92
 4036 1142 0E       		.byte	0xe
 4037 1143 D7010000 		.4byte	0x1d7
 4038 1147 E8020000 		.4byte	.LLST21
 4039 114b DA020000 		.4byte	.LVUS21
 4040 114f 31       		.uleb128 0x31
 4041 1150 50000000 		.4byte	.Ldebug_ranges0+0x50
 4042 1154 2C       		.uleb128 0x2c
 4043 1155 7D000000 		.4byte	.LASF194
 4044 1159 02       		.byte	0x2
 4045 115a 94       		.byte	0x94
 4046 115b 0D       		.byte	0xd
 4047 115c D7010000 		.4byte	0x1d7
 4048 1160 55030000 		.4byte	.LLST22
 4049 1164 53030000 		.4byte	.LVUS22
 4050 1168 23       		.uleb128 0x23
 4051 1169 B4020000 		.4byte	.LVL43
 4052 116d E8130000 		.4byte	0x13e8
 4053 1171 23       		.uleb128 0x23
 4054 1172 BA020000 		.4byte	.LVL45
 4055 1176 02140000 		.4byte	0x1402
 4056 117a 23       		.uleb128 0x23
 4057 117b C6020000 		.4byte	.LVL47
 4058 117f 0D140000 		.4byte	0x140d
 4059 1183 23       		.uleb128 0x23
 4060 1184 CE020000 		.4byte	.LVL48
 4061 1188 18140000 		.4byte	0x1418
 4062 118c 00       		.byte	0
 4063 118d 00       		.byte	0
 4064 118e 23       		.uleb128 0x23
ARM GAS  /tmp/cc8bNYNB.s 			page 83


 4065 118f 60020000 		.4byte	.LVL27
 4066 1193 23140000 		.4byte	0x1423
 4067 1197 23       		.uleb128 0x23
 4068 1198 72020000 		.4byte	.LVL30
 4069 119c 02140000 		.4byte	0x1402
 4070 11a0 1E       		.uleb128 0x1e
 4071 11a1 7A020000 		.4byte	.LVL32
 4072 11a5 53100000 		.4byte	0x1053
 4073 11a9 BA110000 		.4byte	0x11ba
 4074 11ad 1F       		.uleb128 0x1f
 4075 11ae 01       		.byte	0x1
 4076 11af 50       		.byte	0x50
 4077 11b0 02       		.byte	0x2
 4078 11b1 77       		.byte	0x77
 4079 11b2 00       		.sleb128 0
 4080 11b3 1F       		.uleb128 0x1f
 4081 11b4 01       		.byte	0x1
 4082 11b5 51       		.byte	0x51
 4083 11b6 02       		.byte	0x2
 4084 11b7 74       		.byte	0x74
 4085 11b8 00       		.sleb128 0
 4086 11b9 00       		.byte	0
 4087 11ba 23       		.uleb128 0x23
 4088 11bb 8E020000 		.4byte	.LVL35
 4089 11bf 0D140000 		.4byte	0x140d
 4090 11c3 23       		.uleb128 0x23
 4091 11c4 96020000 		.4byte	.LVL36
 4092 11c8 18140000 		.4byte	0x1418
 4093 11cc 00       		.byte	0
 4094 11cd 32       		.uleb128 0x32
 4095 11ce 01       		.byte	0x1
 4096 11cf 86030000 		.4byte	.LASF200
 4097 11d3 02       		.byte	0x2
 4098 11d4 7A       		.byte	0x7a
 4099 11d5 06       		.byte	0x6
 4100 11d6 01       		.byte	0x1
 4101 11d7 F8010000 		.4byte	.LFB34
 4102 11db 14020000 		.4byte	.LFE34
 4103 11df 02       		.byte	0x2
 4104 11e0 7D       		.byte	0x7d
 4105 11e1 00       		.sleb128 0
 4106 11e2 01       		.byte	0x1
 4107 11e3 FC110000 		.4byte	0x11fc
 4108 11e7 1D       		.uleb128 0x1d
 4109 11e8 5A010000 		.4byte	.LASF201
 4110 11ec 02       		.byte	0x2
 4111 11ed 7A       		.byte	0x7a
 4112 11ee 22       		.byte	0x22
 4113 11ef 75010000 		.4byte	0x175
 4114 11f3 6C030000 		.4byte	.LLST6
 4115 11f7 68030000 		.4byte	.LVUS6
 4116 11fb 00       		.byte	0
 4117 11fc 32       		.uleb128 0x32
 4118 11fd 01       		.byte	0x1
 4119 11fe 9F050000 		.4byte	.LASF202
 4120 1202 02       		.byte	0x2
 4121 1203 72       		.byte	0x72
ARM GAS  /tmp/cc8bNYNB.s 			page 84


 4122 1204 06       		.byte	0x6
 4123 1205 01       		.byte	0x1
 4124 1206 E0010000 		.4byte	.LFB33
 4125 120a F8010000 		.4byte	.LFE33
 4126 120e 02       		.byte	0x2
 4127 120f 7D       		.byte	0x7d
 4128 1210 00       		.sleb128 0
 4129 1211 01       		.byte	0x1
 4130 1212 2B120000 		.4byte	0x122b
 4131 1216 1D       		.uleb128 0x1d
 4132 1217 5A010000 		.4byte	.LASF201
 4133 121b 02       		.byte	0x2
 4134 121c 72       		.byte	0x72
 4135 121d 21       		.byte	0x21
 4136 121e 75010000 		.4byte	0x175
 4137 1222 91030000 		.4byte	.LLST5
 4138 1226 8D030000 		.4byte	.LVUS5
 4139 122a 00       		.byte	0
 4140 122b 33       		.uleb128 0x33
 4141 122c 01       		.byte	0x1
 4142 122d 53000000 		.4byte	.LASF204
 4143 1231 02       		.byte	0x2
 4144 1232 66       		.byte	0x66
 4145 1233 06       		.byte	0x6
 4146 1234 01       		.byte	0x1
 4147 1235 B8010000 		.4byte	.LFB32
 4148 1239 E0010000 		.4byte	.LFE32
 4149 123d 02       		.byte	0x2
 4150 123e 7D       		.byte	0x7d
 4151 123f 00       		.sleb128 0
 4152 1240 01       		.byte	0x1
 4153 1241 1C       		.uleb128 0x1c
 4154 1242 01       		.byte	0x1
 4155 1243 8F000000 		.4byte	.LASF203
 4156 1247 02       		.byte	0x2
 4157 1248 5F       		.byte	0x5f
 4158 1249 06       		.byte	0x6
 4159 124a 01       		.byte	0x1
 4160 124b 88010000 		.4byte	.LFB31
 4161 124f B8010000 		.4byte	.LFE31
 4162 1253 B2030000 		.4byte	.LLST4
 4163 1257 01       		.byte	0x1
 4164 1258 69120000 		.4byte	0x1269
 4165 125c 34       		.uleb128 0x34
 4166 125d 5400     		.ascii	"T\000"
 4167 125f 02       		.byte	0x2
 4168 1260 5F       		.byte	0x5f
 4169 1261 17       		.byte	0x17
 4170 1262 64030000 		.4byte	0x364
 4171 1266 01       		.byte	0x1
 4172 1267 50       		.byte	0x50
 4173 1268 00       		.byte	0
 4174 1269 33       		.uleb128 0x33
 4175 126a 01       		.byte	0x1
 4176 126b 8C090000 		.4byte	.LASF205
 4177 126f 02       		.byte	0x2
 4178 1270 3D       		.byte	0x3d
ARM GAS  /tmp/cc8bNYNB.s 			page 85


 4179 1271 06       		.byte	0x6
 4180 1272 01       		.byte	0x1
 4181 1273 14010000 		.4byte	.LFB30
 4182 1277 88010000 		.4byte	.LFE30
 4183 127b 02       		.byte	0x2
 4184 127c 7D       		.byte	0x7d
 4185 127d 00       		.sleb128 0
 4186 127e 01       		.byte	0x1
 4187 127f 21       		.uleb128 0x21
 4188 1280 01       		.byte	0x1
 4189 1281 A0000000 		.4byte	.LASF207
 4190 1285 02       		.byte	0x2
 4191 1286 0D       		.byte	0xd
 4192 1287 06       		.byte	0x6
 4193 1288 88000000 		.4byte	.LFB29
 4194 128c 14010000 		.4byte	.LFE29
 4195 1290 02       		.byte	0x2
 4196 1291 7D       		.byte	0x7d
 4197 1292 00       		.sleb128 0
 4198 1293 01       		.byte	0x1
 4199 1294 35       		.uleb128 0x35
 4200 1295 53100000 		.4byte	0x1053
 4201 1299 14020000 		.4byte	.LFB36
 4202 129d 50020000 		.4byte	.LFE36
 4203 12a1 EA030000 		.4byte	.LLST7
 4204 12a5 01       		.byte	0x1
 4205 12a6 2D130000 		.4byte	0x132d
 4206 12aa 36       		.uleb128 0x36
 4207 12ab 62100000 		.4byte	0x1062
 4208 12af 14040000 		.4byte	.LLST8
 4209 12b3 0A040000 		.4byte	.LVUS8
 4210 12b7 36       		.uleb128 0x36
 4211 12b8 6E100000 		.4byte	0x106e
 4212 12bc 63040000 		.4byte	.LLST9
 4213 12c0 59040000 		.4byte	.LVUS9
 4214 12c4 37       		.uleb128 0x37
 4215 12c5 7A100000 		.4byte	0x107a
 4216 12c9 37       		.uleb128 0x37
 4217 12ca 86100000 		.4byte	0x1086
 4218 12ce 38       		.uleb128 0x38
 4219 12cf 53100000 		.4byte	0x1053
 4220 12d3 00000000 		.4byte	.Ldebug_ranges0+0
 4221 12d7 02       		.byte	0x2
 4222 12d8 9D       		.byte	0x9d
 4223 12d9 06       		.byte	0x6
 4224 12da 36       		.uleb128 0x36
 4225 12db 6E100000 		.4byte	0x106e
 4226 12df AD040000 		.4byte	.LLST10
 4227 12e3 A7040000 		.4byte	.LVUS10
 4228 12e7 36       		.uleb128 0x36
 4229 12e8 62100000 		.4byte	0x1062
 4230 12ec DC040000 		.4byte	.LLST11
 4231 12f0 D8040000 		.4byte	.LVUS11
 4232 12f4 31       		.uleb128 0x31
 4233 12f5 00000000 		.4byte	.Ldebug_ranges0+0
 4234 12f9 39       		.uleb128 0x39
 4235 12fa 7A100000 		.4byte	0x107a
ARM GAS  /tmp/cc8bNYNB.s 			page 86


 4236 12fe FC040000 		.4byte	.LLST12
 4237 1302 FA040000 		.4byte	.LVUS12
 4238 1306 39       		.uleb128 0x39
 4239 1307 86100000 		.4byte	0x1086
 4240 130b 11050000 		.4byte	.LLST13
 4241 130f 0F050000 		.4byte	.LVUS13
 4242 1313 3A       		.uleb128 0x3a
 4243 1314 92100000 		.4byte	0x1092
 4244 1318 18000000 		.4byte	.Ldebug_ranges0+0x18
 4245 131c 39       		.uleb128 0x39
 4246 131d 93100000 		.4byte	0x1093
 4247 1321 26050000 		.4byte	.LLST14
 4248 1325 24050000 		.4byte	.LVUS14
 4249 1329 00       		.byte	0
 4250 132a 00       		.byte	0
 4251 132b 00       		.byte	0
 4252 132c 00       		.byte	0
 4253 132d 3B       		.uleb128 0x3b
 4254 132e 01       		.byte	0x1
 4255 132f 01       		.byte	0x1
 4256 1330 22000000 		.4byte	.LASF208
 4257 1334 22000000 		.4byte	.LASF208
 4258 1338 08       		.byte	0x8
 4259 1339 7A01     		.2byte	0x17a
 4260 133b 06       		.byte	0x6
 4261 133c 3B       		.uleb128 0x3b
 4262 133d 01       		.byte	0x1
 4263 133e 01       		.byte	0x1
 4264 133f E9050000 		.4byte	.LASF209
 4265 1343 E9050000 		.4byte	.LASF209
 4266 1347 08       		.byte	0x8
 4267 1348 8601     		.2byte	0x186
 4268 134a 0C       		.byte	0xc
 4269 134b 3B       		.uleb128 0x3b
 4270 134c 01       		.byte	0x1
 4271 134d 01       		.byte	0x1
 4272 134e 53030000 		.4byte	.LASF210
 4273 1352 53030000 		.4byte	.LASF210
 4274 1356 0B       		.byte	0xb
 4275 1357 B502     		.2byte	0x2b5
 4276 1359 06       		.byte	0x6
 4277 135a 3B       		.uleb128 0x3b
 4278 135b 01       		.byte	0x1
 4279 135c 01       		.byte	0x1
 4280 135d CB060000 		.4byte	.LASF211
 4281 1361 CB060000 		.4byte	.LASF211
 4282 1365 07       		.byte	0x7
 4283 1366 5F01     		.2byte	0x15f
 4284 1368 06       		.byte	0x6
 4285 1369 3B       		.uleb128 0x3b
 4286 136a 01       		.byte	0x1
 4287 136b 01       		.byte	0x1
 4288 136c EF030000 		.4byte	.LASF212
 4289 1370 EF030000 		.4byte	.LASF212
 4290 1374 08       		.byte	0x8
 4291 1375 6E01     		.2byte	0x16e
 4292 1377 06       		.byte	0x6
ARM GAS  /tmp/cc8bNYNB.s 			page 87


 4293 1378 3B       		.uleb128 0x3b
 4294 1379 01       		.byte	0x1
 4295 137a 01       		.byte	0x1
 4296 137b A2070000 		.4byte	.LASF213
 4297 137f A2070000 		.4byte	.LASF213
 4298 1383 08       		.byte	0x8
 4299 1384 7201     		.2byte	0x172
 4300 1386 06       		.byte	0x6
 4301 1387 3B       		.uleb128 0x3b
 4302 1388 01       		.byte	0x1
 4303 1389 01       		.byte	0x1
 4304 138a D8020000 		.4byte	.LASF214
 4305 138e D8020000 		.4byte	.LASF214
 4306 1392 0A       		.byte	0xa
 4307 1393 D805     		.2byte	0x5d8
 4308 1395 10       		.byte	0x10
 4309 1396 3B       		.uleb128 0x3b
 4310 1397 01       		.byte	0x1
 4311 1398 01       		.byte	0x1
 4312 1399 67060000 		.4byte	.LASF215
 4313 139d 67060000 		.4byte	.LASF215
 4314 13a1 0C       		.byte	0xc
 4315 13a2 4A01     		.2byte	0x14a
 4316 13a4 0D       		.byte	0xd
 4317 13a5 3B       		.uleb128 0x3b
 4318 13a6 01       		.byte	0x1
 4319 13a7 01       		.byte	0x1
 4320 13a8 41010000 		.4byte	.LASF216
 4321 13ac 41010000 		.4byte	.LASF216
 4322 13b0 0C       		.byte	0xc
 4323 13b1 9704     		.2byte	0x497
 4324 13b3 06       		.byte	0x6
 4325 13b4 3B       		.uleb128 0x3b
 4326 13b5 01       		.byte	0x1
 4327 13b6 01       		.byte	0x1
 4328 13b7 C0060000 		.4byte	.LASF217
 4329 13bb C0060000 		.4byte	.LASF217
 4330 13bf 0C       		.byte	0xc
 4331 13c0 F602     		.2byte	0x2f6
 4332 13c2 06       		.byte	0x6
 4333 13c3 3B       		.uleb128 0x3b
 4334 13c4 01       		.byte	0x1
 4335 13c5 01       		.byte	0x1
 4336 13c6 24050000 		.4byte	.LASF218
 4337 13ca 24050000 		.4byte	.LASF218
 4338 13ce 0A       		.byte	0xa
 4339 13cf 6403     		.2byte	0x364
 4340 13d1 0C       		.byte	0xc
 4341 13d2 3C       		.uleb128 0x3c
 4342 13d3 01       		.byte	0x1
 4343 13d4 01       		.byte	0x1
 4344 13d5 01010000 		.4byte	.LASF219
 4345 13d9 01010000 		.4byte	.LASF219
 4346 13dd 3C       		.uleb128 0x3c
 4347 13de 01       		.byte	0x1
 4348 13df 01       		.byte	0x1
 4349 13e0 2B040000 		.4byte	.LASF220
ARM GAS  /tmp/cc8bNYNB.s 			page 88


 4350 13e4 2B040000 		.4byte	.LASF220
 4351 13e8 3C       		.uleb128 0x3c
 4352 13e9 01       		.byte	0x1
 4353 13ea 01       		.byte	0x1
 4354 13eb 38060000 		.4byte	.LASF221
 4355 13ef 38060000 		.4byte	.LASF221
 4356 13f3 3B       		.uleb128 0x3b
 4357 13f4 01       		.byte	0x1
 4358 13f5 01       		.byte	0x1
 4359 13f6 80040000 		.4byte	.LASF222
 4360 13fa 80040000 		.4byte	.LASF222
 4361 13fe 0A       		.byte	0xa
 4362 13ff 8A02     		.2byte	0x28a
 4363 1401 0C       		.byte	0xc
 4364 1402 3C       		.uleb128 0x3c
 4365 1403 01       		.byte	0x1
 4366 1404 01       		.byte	0x1
 4367 1405 98030000 		.4byte	.LASF223
 4368 1409 98030000 		.4byte	.LASF223
 4369 140d 3C       		.uleb128 0x3c
 4370 140e 01       		.byte	0x1
 4371 140f 01       		.byte	0x1
 4372 1410 B40A0000 		.4byte	.LASF224
 4373 1414 B40A0000 		.4byte	.LASF224
 4374 1418 3C       		.uleb128 0x3c
 4375 1419 01       		.byte	0x1
 4376 141a 01       		.byte	0x1
 4377 141b FE070000 		.4byte	.LASF225
 4378 141f FE070000 		.4byte	.LASF225
 4379 1423 3C       		.uleb128 0x3c
 4380 1424 01       		.byte	0x1
 4381 1425 01       		.byte	0x1
 4382 1426 1C0A0000 		.4byte	.LASF226
 4383 142a 1C0A0000 		.4byte	.LASF226
 4384 142e 00       		.byte	0
 4385              		.section	.debug_abbrev,"",%progbits
 4386              	.Ldebug_abbrev0:
 4387 0000 01       		.uleb128 0x1
 4388 0001 11       		.uleb128 0x11
 4389 0002 01       		.byte	0x1
 4390 0003 25       		.uleb128 0x25
 4391 0004 0E       		.uleb128 0xe
 4392 0005 13       		.uleb128 0x13
 4393 0006 0B       		.uleb128 0xb
 4394 0007 03       		.uleb128 0x3
 4395 0008 0E       		.uleb128 0xe
 4396 0009 1B       		.uleb128 0x1b
 4397 000a 0E       		.uleb128 0xe
 4398 000b 55       		.uleb128 0x55
 4399 000c 06       		.uleb128 0x6
 4400 000d 11       		.uleb128 0x11
 4401 000e 01       		.uleb128 0x1
 4402 000f 52       		.uleb128 0x52
 4403 0010 01       		.uleb128 0x1
 4404 0011 10       		.uleb128 0x10
 4405 0012 06       		.uleb128 0x6
 4406 0013 00       		.byte	0
ARM GAS  /tmp/cc8bNYNB.s 			page 89


 4407 0014 00       		.byte	0
 4408 0015 02       		.uleb128 0x2
 4409 0016 04       		.uleb128 0x4
 4410 0017 01       		.byte	0x1
 4411 0018 03       		.uleb128 0x3
 4412 0019 0E       		.uleb128 0xe
 4413 001a 3E       		.uleb128 0x3e
 4414 001b 0B       		.uleb128 0xb
 4415 001c 0B       		.uleb128 0xb
 4416 001d 0B       		.uleb128 0xb
 4417 001e 49       		.uleb128 0x49
 4418 001f 13       		.uleb128 0x13
 4419 0020 3A       		.uleb128 0x3a
 4420 0021 0B       		.uleb128 0xb
 4421 0022 3B       		.uleb128 0x3b
 4422 0023 0B       		.uleb128 0xb
 4423 0024 39       		.uleb128 0x39
 4424 0025 0B       		.uleb128 0xb
 4425 0026 01       		.uleb128 0x1
 4426 0027 13       		.uleb128 0x13
 4427 0028 00       		.byte	0
 4428 0029 00       		.byte	0
 4429 002a 03       		.uleb128 0x3
 4430 002b 28       		.uleb128 0x28
 4431 002c 00       		.byte	0
 4432 002d 03       		.uleb128 0x3
 4433 002e 0E       		.uleb128 0xe
 4434 002f 1C       		.uleb128 0x1c
 4435 0030 0D       		.uleb128 0xd
 4436 0031 00       		.byte	0
 4437 0032 00       		.byte	0
 4438 0033 04       		.uleb128 0x4
 4439 0034 28       		.uleb128 0x28
 4440 0035 00       		.byte	0
 4441 0036 03       		.uleb128 0x3
 4442 0037 0E       		.uleb128 0xe
 4443 0038 1C       		.uleb128 0x1c
 4444 0039 0B       		.uleb128 0xb
 4445 003a 00       		.byte	0
 4446 003b 00       		.byte	0
 4447 003c 05       		.uleb128 0x5
 4448 003d 24       		.uleb128 0x24
 4449 003e 00       		.byte	0
 4450 003f 0B       		.uleb128 0xb
 4451 0040 0B       		.uleb128 0xb
 4452 0041 3E       		.uleb128 0x3e
 4453 0042 0B       		.uleb128 0xb
 4454 0043 03       		.uleb128 0x3
 4455 0044 0E       		.uleb128 0xe
 4456 0045 00       		.byte	0
 4457 0046 00       		.byte	0
 4458 0047 06       		.uleb128 0x6
 4459 0048 16       		.uleb128 0x16
 4460 0049 00       		.byte	0
 4461 004a 03       		.uleb128 0x3
 4462 004b 0E       		.uleb128 0xe
 4463 004c 3A       		.uleb128 0x3a
ARM GAS  /tmp/cc8bNYNB.s 			page 90


 4464 004d 0B       		.uleb128 0xb
 4465 004e 3B       		.uleb128 0x3b
 4466 004f 05       		.uleb128 0x5
 4467 0050 39       		.uleb128 0x39
 4468 0051 0B       		.uleb128 0xb
 4469 0052 49       		.uleb128 0x49
 4470 0053 13       		.uleb128 0x13
 4471 0054 00       		.byte	0
 4472 0055 00       		.byte	0
 4473 0056 07       		.uleb128 0x7
 4474 0057 16       		.uleb128 0x16
 4475 0058 00       		.byte	0
 4476 0059 03       		.uleb128 0x3
 4477 005a 0E       		.uleb128 0xe
 4478 005b 3A       		.uleb128 0x3a
 4479 005c 0B       		.uleb128 0xb
 4480 005d 3B       		.uleb128 0x3b
 4481 005e 0B       		.uleb128 0xb
 4482 005f 39       		.uleb128 0x39
 4483 0060 0B       		.uleb128 0xb
 4484 0061 49       		.uleb128 0x49
 4485 0062 13       		.uleb128 0x13
 4486 0063 00       		.byte	0
 4487 0064 00       		.byte	0
 4488 0065 08       		.uleb128 0x8
 4489 0066 24       		.uleb128 0x24
 4490 0067 00       		.byte	0
 4491 0068 0B       		.uleb128 0xb
 4492 0069 0B       		.uleb128 0xb
 4493 006a 3E       		.uleb128 0x3e
 4494 006b 0B       		.uleb128 0xb
 4495 006c 03       		.uleb128 0x3
 4496 006d 08       		.uleb128 0x8
 4497 006e 00       		.byte	0
 4498 006f 00       		.byte	0
 4499 0070 09       		.uleb128 0x9
 4500 0071 35       		.uleb128 0x35
 4501 0072 00       		.byte	0
 4502 0073 49       		.uleb128 0x49
 4503 0074 13       		.uleb128 0x13
 4504 0075 00       		.byte	0
 4505 0076 00       		.byte	0
 4506 0077 0A       		.uleb128 0xa
 4507 0078 13       		.uleb128 0x13
 4508 0079 01       		.byte	0x1
 4509 007a 0B       		.uleb128 0xb
 4510 007b 05       		.uleb128 0x5
 4511 007c 3A       		.uleb128 0x3a
 4512 007d 0B       		.uleb128 0xb
 4513 007e 3B       		.uleb128 0x3b
 4514 007f 0B       		.uleb128 0xb
 4515 0080 39       		.uleb128 0x39
 4516 0081 0B       		.uleb128 0xb
 4517 0082 01       		.uleb128 0x1
 4518 0083 13       		.uleb128 0x13
 4519 0084 00       		.byte	0
 4520 0085 00       		.byte	0
ARM GAS  /tmp/cc8bNYNB.s 			page 91


 4521 0086 0B       		.uleb128 0xb
 4522 0087 0D       		.uleb128 0xd
 4523 0088 00       		.byte	0
 4524 0089 03       		.uleb128 0x3
 4525 008a 0E       		.uleb128 0xe
 4526 008b 3A       		.uleb128 0x3a
 4527 008c 0B       		.uleb128 0xb
 4528 008d 3B       		.uleb128 0x3b
 4529 008e 0B       		.uleb128 0xb
 4530 008f 39       		.uleb128 0x39
 4531 0090 0B       		.uleb128 0xb
 4532 0091 49       		.uleb128 0x49
 4533 0092 13       		.uleb128 0x13
 4534 0093 38       		.uleb128 0x38
 4535 0094 0A       		.uleb128 0xa
 4536 0095 00       		.byte	0
 4537 0096 00       		.byte	0
 4538 0097 0C       		.uleb128 0xc
 4539 0098 0D       		.uleb128 0xd
 4540 0099 00       		.byte	0
 4541 009a 03       		.uleb128 0x3
 4542 009b 08       		.uleb128 0x8
 4543 009c 3A       		.uleb128 0x3a
 4544 009d 0B       		.uleb128 0xb
 4545 009e 3B       		.uleb128 0x3b
 4546 009f 0B       		.uleb128 0xb
 4547 00a0 39       		.uleb128 0x39
 4548 00a1 0B       		.uleb128 0xb
 4549 00a2 49       		.uleb128 0x49
 4550 00a3 13       		.uleb128 0x13
 4551 00a4 38       		.uleb128 0x38
 4552 00a5 0A       		.uleb128 0xa
 4553 00a6 00       		.byte	0
 4554 00a7 00       		.byte	0
 4555 00a8 0D       		.uleb128 0xd
 4556 00a9 01       		.uleb128 0x1
 4557 00aa 01       		.byte	0x1
 4558 00ab 49       		.uleb128 0x49
 4559 00ac 13       		.uleb128 0x13
 4560 00ad 01       		.uleb128 0x1
 4561 00ae 13       		.uleb128 0x13
 4562 00af 00       		.byte	0
 4563 00b0 00       		.byte	0
 4564 00b1 0E       		.uleb128 0xe
 4565 00b2 21       		.uleb128 0x21
 4566 00b3 00       		.byte	0
 4567 00b4 49       		.uleb128 0x49
 4568 00b5 13       		.uleb128 0x13
 4569 00b6 2F       		.uleb128 0x2f
 4570 00b7 0B       		.uleb128 0xb
 4571 00b8 00       		.byte	0
 4572 00b9 00       		.byte	0
 4573 00ba 0F       		.uleb128 0xf
 4574 00bb 21       		.uleb128 0x21
 4575 00bc 00       		.byte	0
 4576 00bd 49       		.uleb128 0x49
 4577 00be 13       		.uleb128 0x13
ARM GAS  /tmp/cc8bNYNB.s 			page 92


 4578 00bf 2F       		.uleb128 0x2f
 4579 00c0 05       		.uleb128 0x5
 4580 00c1 00       		.byte	0
 4581 00c2 00       		.byte	0
 4582 00c3 10       		.uleb128 0x10
 4583 00c4 16       		.uleb128 0x16
 4584 00c5 00       		.byte	0
 4585 00c6 03       		.uleb128 0x3
 4586 00c7 08       		.uleb128 0x8
 4587 00c8 3A       		.uleb128 0x3a
 4588 00c9 0B       		.uleb128 0xb
 4589 00ca 3B       		.uleb128 0x3b
 4590 00cb 05       		.uleb128 0x5
 4591 00cc 39       		.uleb128 0x39
 4592 00cd 0B       		.uleb128 0xb
 4593 00ce 49       		.uleb128 0x49
 4594 00cf 13       		.uleb128 0x13
 4595 00d0 00       		.byte	0
 4596 00d1 00       		.byte	0
 4597 00d2 11       		.uleb128 0x11
 4598 00d3 04       		.uleb128 0x4
 4599 00d4 01       		.byte	0x1
 4600 00d5 3E       		.uleb128 0x3e
 4601 00d6 0B       		.uleb128 0xb
 4602 00d7 0B       		.uleb128 0xb
 4603 00d8 0B       		.uleb128 0xb
 4604 00d9 49       		.uleb128 0x49
 4605 00da 13       		.uleb128 0x13
 4606 00db 3A       		.uleb128 0x3a
 4607 00dc 0B       		.uleb128 0xb
 4608 00dd 3B       		.uleb128 0x3b
 4609 00de 05       		.uleb128 0x5
 4610 00df 39       		.uleb128 0x39
 4611 00e0 0B       		.uleb128 0xb
 4612 00e1 01       		.uleb128 0x1
 4613 00e2 13       		.uleb128 0x13
 4614 00e3 00       		.byte	0
 4615 00e4 00       		.byte	0
 4616 00e5 12       		.uleb128 0x12
 4617 00e6 28       		.uleb128 0x28
 4618 00e7 00       		.byte	0
 4619 00e8 03       		.uleb128 0x3
 4620 00e9 08       		.uleb128 0x8
 4621 00ea 1C       		.uleb128 0x1c
 4622 00eb 0B       		.uleb128 0xb
 4623 00ec 00       		.byte	0
 4624 00ed 00       		.byte	0
 4625 00ee 13       		.uleb128 0x13
 4626 00ef 13       		.uleb128 0x13
 4627 00f0 01       		.byte	0x1
 4628 00f1 0B       		.uleb128 0xb
 4629 00f2 0B       		.uleb128 0xb
 4630 00f3 3A       		.uleb128 0x3a
 4631 00f4 0B       		.uleb128 0xb
 4632 00f5 3B       		.uleb128 0x3b
 4633 00f6 05       		.uleb128 0x5
 4634 00f7 39       		.uleb128 0x39
ARM GAS  /tmp/cc8bNYNB.s 			page 93


 4635 00f8 0B       		.uleb128 0xb
 4636 00f9 01       		.uleb128 0x1
 4637 00fa 13       		.uleb128 0x13
 4638 00fb 00       		.byte	0
 4639 00fc 00       		.byte	0
 4640 00fd 14       		.uleb128 0x14
 4641 00fe 0D       		.uleb128 0xd
 4642 00ff 00       		.byte	0
 4643 0100 03       		.uleb128 0x3
 4644 0101 08       		.uleb128 0x8
 4645 0102 3A       		.uleb128 0x3a
 4646 0103 0B       		.uleb128 0xb
 4647 0104 3B       		.uleb128 0x3b
 4648 0105 05       		.uleb128 0x5
 4649 0106 39       		.uleb128 0x39
 4650 0107 0B       		.uleb128 0xb
 4651 0108 49       		.uleb128 0x49
 4652 0109 13       		.uleb128 0x13
 4653 010a 38       		.uleb128 0x38
 4654 010b 0A       		.uleb128 0xa
 4655 010c 00       		.byte	0
 4656 010d 00       		.byte	0
 4657 010e 15       		.uleb128 0x15
 4658 010f 0D       		.uleb128 0xd
 4659 0110 00       		.byte	0
 4660 0111 03       		.uleb128 0x3
 4661 0112 0E       		.uleb128 0xe
 4662 0113 3A       		.uleb128 0x3a
 4663 0114 0B       		.uleb128 0xb
 4664 0115 3B       		.uleb128 0x3b
 4665 0116 05       		.uleb128 0x5
 4666 0117 39       		.uleb128 0x39
 4667 0118 0B       		.uleb128 0xb
 4668 0119 49       		.uleb128 0x49
 4669 011a 13       		.uleb128 0x13
 4670 011b 38       		.uleb128 0x38
 4671 011c 0A       		.uleb128 0xa
 4672 011d 00       		.byte	0
 4673 011e 00       		.byte	0
 4674 011f 16       		.uleb128 0x16
 4675 0120 04       		.uleb128 0x4
 4676 0121 01       		.byte	0x1
 4677 0122 3E       		.uleb128 0x3e
 4678 0123 0B       		.uleb128 0xb
 4679 0124 0B       		.uleb128 0xb
 4680 0125 0B       		.uleb128 0xb
 4681 0126 49       		.uleb128 0x49
 4682 0127 13       		.uleb128 0x13
 4683 0128 3A       		.uleb128 0x3a
 4684 0129 0B       		.uleb128 0xb
 4685 012a 3B       		.uleb128 0x3b
 4686 012b 0B       		.uleb128 0xb
 4687 012c 39       		.uleb128 0x39
 4688 012d 0B       		.uleb128 0xb
 4689 012e 01       		.uleb128 0x1
 4690 012f 13       		.uleb128 0x13
 4691 0130 00       		.byte	0
ARM GAS  /tmp/cc8bNYNB.s 			page 94


 4692 0131 00       		.byte	0
 4693 0132 17       		.uleb128 0x17
 4694 0133 13       		.uleb128 0x13
 4695 0134 01       		.byte	0x1
 4696 0135 0B       		.uleb128 0xb
 4697 0136 0B       		.uleb128 0xb
 4698 0137 3A       		.uleb128 0x3a
 4699 0138 0B       		.uleb128 0xb
 4700 0139 3B       		.uleb128 0x3b
 4701 013a 0B       		.uleb128 0xb
 4702 013b 39       		.uleb128 0x39
 4703 013c 0B       		.uleb128 0xb
 4704 013d 01       		.uleb128 0x1
 4705 013e 13       		.uleb128 0x13
 4706 013f 00       		.byte	0
 4707 0140 00       		.byte	0
 4708 0141 18       		.uleb128 0x18
 4709 0142 0F       		.uleb128 0xf
 4710 0143 00       		.byte	0
 4711 0144 0B       		.uleb128 0xb
 4712 0145 0B       		.uleb128 0xb
 4713 0146 00       		.byte	0
 4714 0147 00       		.byte	0
 4715 0148 19       		.uleb128 0x19
 4716 0149 0F       		.uleb128 0xf
 4717 014a 00       		.byte	0
 4718 014b 0B       		.uleb128 0xb
 4719 014c 0B       		.uleb128 0xb
 4720 014d 49       		.uleb128 0x49
 4721 014e 13       		.uleb128 0x13
 4722 014f 00       		.byte	0
 4723 0150 00       		.byte	0
 4724 0151 1A       		.uleb128 0x1a
 4725 0152 13       		.uleb128 0x13
 4726 0153 00       		.byte	0
 4727 0154 03       		.uleb128 0x3
 4728 0155 0E       		.uleb128 0xe
 4729 0156 3C       		.uleb128 0x3c
 4730 0157 0C       		.uleb128 0xc
 4731 0158 00       		.byte	0
 4732 0159 00       		.byte	0
 4733 015a 1B       		.uleb128 0x1b
 4734 015b 34       		.uleb128 0x34
 4735 015c 00       		.byte	0
 4736 015d 03       		.uleb128 0x3
 4737 015e 0E       		.uleb128 0xe
 4738 015f 3A       		.uleb128 0x3a
 4739 0160 0B       		.uleb128 0xb
 4740 0161 3B       		.uleb128 0x3b
 4741 0162 0B       		.uleb128 0xb
 4742 0163 39       		.uleb128 0x39
 4743 0164 0B       		.uleb128 0xb
 4744 0165 49       		.uleb128 0x49
 4745 0166 13       		.uleb128 0x13
 4746 0167 02       		.uleb128 0x2
 4747 0168 0A       		.uleb128 0xa
 4748 0169 00       		.byte	0
ARM GAS  /tmp/cc8bNYNB.s 			page 95


 4749 016a 00       		.byte	0
 4750 016b 1C       		.uleb128 0x1c
 4751 016c 2E       		.uleb128 0x2e
 4752 016d 01       		.byte	0x1
 4753 016e 3F       		.uleb128 0x3f
 4754 016f 0C       		.uleb128 0xc
 4755 0170 03       		.uleb128 0x3
 4756 0171 0E       		.uleb128 0xe
 4757 0172 3A       		.uleb128 0x3a
 4758 0173 0B       		.uleb128 0xb
 4759 0174 3B       		.uleb128 0x3b
 4760 0175 0B       		.uleb128 0xb
 4761 0176 39       		.uleb128 0x39
 4762 0177 0B       		.uleb128 0xb
 4763 0178 27       		.uleb128 0x27
 4764 0179 0C       		.uleb128 0xc
 4765 017a 11       		.uleb128 0x11
 4766 017b 01       		.uleb128 0x1
 4767 017c 12       		.uleb128 0x12
 4768 017d 01       		.uleb128 0x1
 4769 017e 40       		.uleb128 0x40
 4770 017f 06       		.uleb128 0x6
 4771 0180 9742     		.uleb128 0x2117
 4772 0182 0C       		.uleb128 0xc
 4773 0183 01       		.uleb128 0x1
 4774 0184 13       		.uleb128 0x13
 4775 0185 00       		.byte	0
 4776 0186 00       		.byte	0
 4777 0187 1D       		.uleb128 0x1d
 4778 0188 05       		.uleb128 0x5
 4779 0189 00       		.byte	0
 4780 018a 03       		.uleb128 0x3
 4781 018b 0E       		.uleb128 0xe
 4782 018c 3A       		.uleb128 0x3a
 4783 018d 0B       		.uleb128 0xb
 4784 018e 3B       		.uleb128 0x3b
 4785 018f 0B       		.uleb128 0xb
 4786 0190 39       		.uleb128 0x39
 4787 0191 0B       		.uleb128 0xb
 4788 0192 49       		.uleb128 0x49
 4789 0193 13       		.uleb128 0x13
 4790 0194 02       		.uleb128 0x2
 4791 0195 06       		.uleb128 0x6
 4792 0196 B742     		.uleb128 0x2137
 4793 0198 06       		.uleb128 0x6
 4794 0199 00       		.byte	0
 4795 019a 00       		.byte	0
 4796 019b 1E       		.uleb128 0x1e
 4797 019c 898201   		.uleb128 0x4109
 4798 019f 01       		.byte	0x1
 4799 01a0 11       		.uleb128 0x11
 4800 01a1 01       		.uleb128 0x1
 4801 01a2 31       		.uleb128 0x31
 4802 01a3 13       		.uleb128 0x13
 4803 01a4 01       		.uleb128 0x1
 4804 01a5 13       		.uleb128 0x13
 4805 01a6 00       		.byte	0
ARM GAS  /tmp/cc8bNYNB.s 			page 96


 4806 01a7 00       		.byte	0
 4807 01a8 1F       		.uleb128 0x1f
 4808 01a9 8A8201   		.uleb128 0x410a
 4809 01ac 00       		.byte	0
 4810 01ad 02       		.uleb128 0x2
 4811 01ae 0A       		.uleb128 0xa
 4812 01af 9142     		.uleb128 0x2111
 4813 01b1 0A       		.uleb128 0xa
 4814 01b2 00       		.byte	0
 4815 01b3 00       		.byte	0
 4816 01b4 20       		.uleb128 0x20
 4817 01b5 898201   		.uleb128 0x4109
 4818 01b8 01       		.byte	0x1
 4819 01b9 11       		.uleb128 0x11
 4820 01ba 01       		.uleb128 0x1
 4821 01bb 31       		.uleb128 0x31
 4822 01bc 13       		.uleb128 0x13
 4823 01bd 00       		.byte	0
 4824 01be 00       		.byte	0
 4825 01bf 21       		.uleb128 0x21
 4826 01c0 2E       		.uleb128 0x2e
 4827 01c1 00       		.byte	0
 4828 01c2 3F       		.uleb128 0x3f
 4829 01c3 0C       		.uleb128 0xc
 4830 01c4 03       		.uleb128 0x3
 4831 01c5 0E       		.uleb128 0xe
 4832 01c6 3A       		.uleb128 0x3a
 4833 01c7 0B       		.uleb128 0xb
 4834 01c8 3B       		.uleb128 0x3b
 4835 01c9 0B       		.uleb128 0xb
 4836 01ca 39       		.uleb128 0x39
 4837 01cb 0B       		.uleb128 0xb
 4838 01cc 11       		.uleb128 0x11
 4839 01cd 01       		.uleb128 0x1
 4840 01ce 12       		.uleb128 0x12
 4841 01cf 01       		.uleb128 0x1
 4842 01d0 40       		.uleb128 0x40
 4843 01d1 0A       		.uleb128 0xa
 4844 01d2 9742     		.uleb128 0x2117
 4845 01d4 0C       		.uleb128 0xc
 4846 01d5 00       		.byte	0
 4847 01d6 00       		.byte	0
 4848 01d7 22       		.uleb128 0x22
 4849 01d8 2E       		.uleb128 0x2e
 4850 01d9 01       		.byte	0x1
 4851 01da 3F       		.uleb128 0x3f
 4852 01db 0C       		.uleb128 0xc
 4853 01dc 03       		.uleb128 0x3
 4854 01dd 0E       		.uleb128 0xe
 4855 01de 3A       		.uleb128 0x3a
 4856 01df 0B       		.uleb128 0xb
 4857 01e0 3B       		.uleb128 0x3b
 4858 01e1 0B       		.uleb128 0xb
 4859 01e2 39       		.uleb128 0x39
 4860 01e3 0B       		.uleb128 0xb
 4861 01e4 27       		.uleb128 0x27
 4862 01e5 0C       		.uleb128 0xc
ARM GAS  /tmp/cc8bNYNB.s 			page 97


 4863 01e6 49       		.uleb128 0x49
 4864 01e7 13       		.uleb128 0x13
 4865 01e8 11       		.uleb128 0x11
 4866 01e9 01       		.uleb128 0x1
 4867 01ea 12       		.uleb128 0x12
 4868 01eb 01       		.uleb128 0x1
 4869 01ec 40       		.uleb128 0x40
 4870 01ed 06       		.uleb128 0x6
 4871 01ee 9742     		.uleb128 0x2117
 4872 01f0 0C       		.uleb128 0xc
 4873 01f1 01       		.uleb128 0x1
 4874 01f2 13       		.uleb128 0x13
 4875 01f3 00       		.byte	0
 4876 01f4 00       		.byte	0
 4877 01f5 23       		.uleb128 0x23
 4878 01f6 898201   		.uleb128 0x4109
 4879 01f9 00       		.byte	0
 4880 01fa 11       		.uleb128 0x11
 4881 01fb 01       		.uleb128 0x1
 4882 01fc 31       		.uleb128 0x31
 4883 01fd 13       		.uleb128 0x13
 4884 01fe 00       		.byte	0
 4885 01ff 00       		.byte	0
 4886 0200 24       		.uleb128 0x24
 4887 0201 2E       		.uleb128 0x2e
 4888 0202 01       		.byte	0x1
 4889 0203 03       		.uleb128 0x3
 4890 0204 0E       		.uleb128 0xe
 4891 0205 3A       		.uleb128 0x3a
 4892 0206 0B       		.uleb128 0xb
 4893 0207 3B       		.uleb128 0x3b
 4894 0208 0B       		.uleb128 0xb
 4895 0209 39       		.uleb128 0x39
 4896 020a 0B       		.uleb128 0xb
 4897 020b 27       		.uleb128 0x27
 4898 020c 0C       		.uleb128 0xc
 4899 020d 11       		.uleb128 0x11
 4900 020e 01       		.uleb128 0x1
 4901 020f 12       		.uleb128 0x12
 4902 0210 01       		.uleb128 0x1
 4903 0211 40       		.uleb128 0x40
 4904 0212 06       		.uleb128 0x6
 4905 0213 9742     		.uleb128 0x2117
 4906 0215 0C       		.uleb128 0xc
 4907 0216 01       		.uleb128 0x1
 4908 0217 13       		.uleb128 0x13
 4909 0218 00       		.byte	0
 4910 0219 00       		.byte	0
 4911 021a 25       		.uleb128 0x25
 4912 021b 34       		.uleb128 0x34
 4913 021c 00       		.byte	0
 4914 021d 03       		.uleb128 0x3
 4915 021e 08       		.uleb128 0x8
 4916 021f 3A       		.uleb128 0x3a
 4917 0220 0B       		.uleb128 0xb
 4918 0221 3B       		.uleb128 0x3b
 4919 0222 0B       		.uleb128 0xb
ARM GAS  /tmp/cc8bNYNB.s 			page 98


 4920 0223 39       		.uleb128 0x39
 4921 0224 0B       		.uleb128 0xb
 4922 0225 49       		.uleb128 0x49
 4923 0226 13       		.uleb128 0x13
 4924 0227 02       		.uleb128 0x2
 4925 0228 0A       		.uleb128 0xa
 4926 0229 00       		.byte	0
 4927 022a 00       		.byte	0
 4928 022b 26       		.uleb128 0x26
 4929 022c 2E       		.uleb128 0x2e
 4930 022d 01       		.byte	0x1
 4931 022e 3F       		.uleb128 0x3f
 4932 022f 0C       		.uleb128 0xc
 4933 0230 03       		.uleb128 0x3
 4934 0231 0E       		.uleb128 0xe
 4935 0232 3A       		.uleb128 0x3a
 4936 0233 0B       		.uleb128 0xb
 4937 0234 3B       		.uleb128 0x3b
 4938 0235 0B       		.uleb128 0xb
 4939 0236 39       		.uleb128 0x39
 4940 0237 0B       		.uleb128 0xb
 4941 0238 27       		.uleb128 0x27
 4942 0239 0C       		.uleb128 0xc
 4943 023a 20       		.uleb128 0x20
 4944 023b 0B       		.uleb128 0xb
 4945 023c 01       		.uleb128 0x1
 4946 023d 13       		.uleb128 0x13
 4947 023e 00       		.byte	0
 4948 023f 00       		.byte	0
 4949 0240 27       		.uleb128 0x27
 4950 0241 05       		.uleb128 0x5
 4951 0242 00       		.byte	0
 4952 0243 03       		.uleb128 0x3
 4953 0244 08       		.uleb128 0x8
 4954 0245 3A       		.uleb128 0x3a
 4955 0246 0B       		.uleb128 0xb
 4956 0247 3B       		.uleb128 0x3b
 4957 0248 0B       		.uleb128 0xb
 4958 0249 39       		.uleb128 0x39
 4959 024a 0B       		.uleb128 0xb
 4960 024b 49       		.uleb128 0x49
 4961 024c 13       		.uleb128 0x13
 4962 024d 00       		.byte	0
 4963 024e 00       		.byte	0
 4964 024f 28       		.uleb128 0x28
 4965 0250 34       		.uleb128 0x34
 4966 0251 00       		.byte	0
 4967 0252 03       		.uleb128 0x3
 4968 0253 08       		.uleb128 0x8
 4969 0254 3A       		.uleb128 0x3a
 4970 0255 0B       		.uleb128 0xb
 4971 0256 3B       		.uleb128 0x3b
 4972 0257 0B       		.uleb128 0xb
 4973 0258 39       		.uleb128 0x39
 4974 0259 0B       		.uleb128 0xb
 4975 025a 49       		.uleb128 0x49
 4976 025b 13       		.uleb128 0x13
ARM GAS  /tmp/cc8bNYNB.s 			page 99


 4977 025c 00       		.byte	0
 4978 025d 00       		.byte	0
 4979 025e 29       		.uleb128 0x29
 4980 025f 34       		.uleb128 0x34
 4981 0260 00       		.byte	0
 4982 0261 03       		.uleb128 0x3
 4983 0262 0E       		.uleb128 0xe
 4984 0263 3A       		.uleb128 0x3a
 4985 0264 0B       		.uleb128 0xb
 4986 0265 3B       		.uleb128 0x3b
 4987 0266 0B       		.uleb128 0xb
 4988 0267 39       		.uleb128 0x39
 4989 0268 0B       		.uleb128 0xb
 4990 0269 49       		.uleb128 0x49
 4991 026a 13       		.uleb128 0x13
 4992 026b 00       		.byte	0
 4993 026c 00       		.byte	0
 4994 026d 2A       		.uleb128 0x2a
 4995 026e 0B       		.uleb128 0xb
 4996 026f 01       		.byte	0x1
 4997 0270 00       		.byte	0
 4998 0271 00       		.byte	0
 4999 0272 2B       		.uleb128 0x2b
 5000 0273 05       		.uleb128 0x5
 5001 0274 00       		.byte	0
 5002 0275 03       		.uleb128 0x3
 5003 0276 08       		.uleb128 0x8
 5004 0277 3A       		.uleb128 0x3a
 5005 0278 0B       		.uleb128 0xb
 5006 0279 3B       		.uleb128 0x3b
 5007 027a 0B       		.uleb128 0xb
 5008 027b 39       		.uleb128 0x39
 5009 027c 0B       		.uleb128 0xb
 5010 027d 49       		.uleb128 0x49
 5011 027e 13       		.uleb128 0x13
 5012 027f 02       		.uleb128 0x2
 5013 0280 06       		.uleb128 0x6
 5014 0281 B742     		.uleb128 0x2137
 5015 0283 06       		.uleb128 0x6
 5016 0284 00       		.byte	0
 5017 0285 00       		.byte	0
 5018 0286 2C       		.uleb128 0x2c
 5019 0287 34       		.uleb128 0x34
 5020 0288 00       		.byte	0
 5021 0289 03       		.uleb128 0x3
 5022 028a 0E       		.uleb128 0xe
 5023 028b 3A       		.uleb128 0x3a
 5024 028c 0B       		.uleb128 0xb
 5025 028d 3B       		.uleb128 0x3b
 5026 028e 0B       		.uleb128 0xb
 5027 028f 39       		.uleb128 0x39
 5028 0290 0B       		.uleb128 0xb
 5029 0291 49       		.uleb128 0x49
 5030 0292 13       		.uleb128 0x13
 5031 0293 02       		.uleb128 0x2
 5032 0294 06       		.uleb128 0x6
 5033 0295 B742     		.uleb128 0x2137
ARM GAS  /tmp/cc8bNYNB.s 			page 100


 5034 0297 06       		.uleb128 0x6
 5035 0298 00       		.byte	0
 5036 0299 00       		.byte	0
 5037 029a 2D       		.uleb128 0x2d
 5038 029b 2E       		.uleb128 0x2e
 5039 029c 01       		.byte	0x1
 5040 029d 3F       		.uleb128 0x3f
 5041 029e 0C       		.uleb128 0xc
 5042 029f 03       		.uleb128 0x3
 5043 02a0 0E       		.uleb128 0xe
 5044 02a1 3A       		.uleb128 0x3a
 5045 02a2 0B       		.uleb128 0xb
 5046 02a3 3B       		.uleb128 0x3b
 5047 02a4 0B       		.uleb128 0xb
 5048 02a5 39       		.uleb128 0x39
 5049 02a6 0B       		.uleb128 0xb
 5050 02a7 49       		.uleb128 0x49
 5051 02a8 13       		.uleb128 0x13
 5052 02a9 3C       		.uleb128 0x3c
 5053 02aa 0C       		.uleb128 0xc
 5054 02ab 01       		.uleb128 0x1
 5055 02ac 13       		.uleb128 0x13
 5056 02ad 00       		.byte	0
 5057 02ae 00       		.byte	0
 5058 02af 2E       		.uleb128 0x2e
 5059 02b0 18       		.uleb128 0x18
 5060 02b1 00       		.byte	0
 5061 02b2 00       		.byte	0
 5062 02b3 00       		.byte	0
 5063 02b4 2F       		.uleb128 0x2f
 5064 02b5 0B       		.uleb128 0xb
 5065 02b6 01       		.byte	0x1
 5066 02b7 55       		.uleb128 0x55
 5067 02b8 06       		.uleb128 0x6
 5068 02b9 01       		.uleb128 0x1
 5069 02ba 13       		.uleb128 0x13
 5070 02bb 00       		.byte	0
 5071 02bc 00       		.byte	0
 5072 02bd 30       		.uleb128 0x30
 5073 02be 34       		.uleb128 0x34
 5074 02bf 00       		.byte	0
 5075 02c0 03       		.uleb128 0x3
 5076 02c1 08       		.uleb128 0x8
 5077 02c2 3A       		.uleb128 0x3a
 5078 02c3 0B       		.uleb128 0xb
 5079 02c4 3B       		.uleb128 0x3b
 5080 02c5 0B       		.uleb128 0xb
 5081 02c6 39       		.uleb128 0x39
 5082 02c7 0B       		.uleb128 0xb
 5083 02c8 49       		.uleb128 0x49
 5084 02c9 13       		.uleb128 0x13
 5085 02ca 02       		.uleb128 0x2
 5086 02cb 06       		.uleb128 0x6
 5087 02cc B742     		.uleb128 0x2137
 5088 02ce 06       		.uleb128 0x6
 5089 02cf 00       		.byte	0
 5090 02d0 00       		.byte	0
ARM GAS  /tmp/cc8bNYNB.s 			page 101


 5091 02d1 31       		.uleb128 0x31
 5092 02d2 0B       		.uleb128 0xb
 5093 02d3 01       		.byte	0x1
 5094 02d4 55       		.uleb128 0x55
 5095 02d5 06       		.uleb128 0x6
 5096 02d6 00       		.byte	0
 5097 02d7 00       		.byte	0
 5098 02d8 32       		.uleb128 0x32
 5099 02d9 2E       		.uleb128 0x2e
 5100 02da 01       		.byte	0x1
 5101 02db 3F       		.uleb128 0x3f
 5102 02dc 0C       		.uleb128 0xc
 5103 02dd 03       		.uleb128 0x3
 5104 02de 0E       		.uleb128 0xe
 5105 02df 3A       		.uleb128 0x3a
 5106 02e0 0B       		.uleb128 0xb
 5107 02e1 3B       		.uleb128 0x3b
 5108 02e2 0B       		.uleb128 0xb
 5109 02e3 39       		.uleb128 0x39
 5110 02e4 0B       		.uleb128 0xb
 5111 02e5 27       		.uleb128 0x27
 5112 02e6 0C       		.uleb128 0xc
 5113 02e7 11       		.uleb128 0x11
 5114 02e8 01       		.uleb128 0x1
 5115 02e9 12       		.uleb128 0x12
 5116 02ea 01       		.uleb128 0x1
 5117 02eb 40       		.uleb128 0x40
 5118 02ec 0A       		.uleb128 0xa
 5119 02ed 9742     		.uleb128 0x2117
 5120 02ef 0C       		.uleb128 0xc
 5121 02f0 01       		.uleb128 0x1
 5122 02f1 13       		.uleb128 0x13
 5123 02f2 00       		.byte	0
 5124 02f3 00       		.byte	0
 5125 02f4 33       		.uleb128 0x33
 5126 02f5 2E       		.uleb128 0x2e
 5127 02f6 00       		.byte	0
 5128 02f7 3F       		.uleb128 0x3f
 5129 02f8 0C       		.uleb128 0xc
 5130 02f9 03       		.uleb128 0x3
 5131 02fa 0E       		.uleb128 0xe
 5132 02fb 3A       		.uleb128 0x3a
 5133 02fc 0B       		.uleb128 0xb
 5134 02fd 3B       		.uleb128 0x3b
 5135 02fe 0B       		.uleb128 0xb
 5136 02ff 39       		.uleb128 0x39
 5137 0300 0B       		.uleb128 0xb
 5138 0301 27       		.uleb128 0x27
 5139 0302 0C       		.uleb128 0xc
 5140 0303 11       		.uleb128 0x11
 5141 0304 01       		.uleb128 0x1
 5142 0305 12       		.uleb128 0x12
 5143 0306 01       		.uleb128 0x1
 5144 0307 40       		.uleb128 0x40
 5145 0308 0A       		.uleb128 0xa
 5146 0309 9742     		.uleb128 0x2117
 5147 030b 0C       		.uleb128 0xc
ARM GAS  /tmp/cc8bNYNB.s 			page 102


 5148 030c 00       		.byte	0
 5149 030d 00       		.byte	0
 5150 030e 34       		.uleb128 0x34
 5151 030f 05       		.uleb128 0x5
 5152 0310 00       		.byte	0
 5153 0311 03       		.uleb128 0x3
 5154 0312 08       		.uleb128 0x8
 5155 0313 3A       		.uleb128 0x3a
 5156 0314 0B       		.uleb128 0xb
 5157 0315 3B       		.uleb128 0x3b
 5158 0316 0B       		.uleb128 0xb
 5159 0317 39       		.uleb128 0x39
 5160 0318 0B       		.uleb128 0xb
 5161 0319 49       		.uleb128 0x49
 5162 031a 13       		.uleb128 0x13
 5163 031b 02       		.uleb128 0x2
 5164 031c 0A       		.uleb128 0xa
 5165 031d 00       		.byte	0
 5166 031e 00       		.byte	0
 5167 031f 35       		.uleb128 0x35
 5168 0320 2E       		.uleb128 0x2e
 5169 0321 01       		.byte	0x1
 5170 0322 31       		.uleb128 0x31
 5171 0323 13       		.uleb128 0x13
 5172 0324 11       		.uleb128 0x11
 5173 0325 01       		.uleb128 0x1
 5174 0326 12       		.uleb128 0x12
 5175 0327 01       		.uleb128 0x1
 5176 0328 40       		.uleb128 0x40
 5177 0329 06       		.uleb128 0x6
 5178 032a 9742     		.uleb128 0x2117
 5179 032c 0C       		.uleb128 0xc
 5180 032d 01       		.uleb128 0x1
 5181 032e 13       		.uleb128 0x13
 5182 032f 00       		.byte	0
 5183 0330 00       		.byte	0
 5184 0331 36       		.uleb128 0x36
 5185 0332 05       		.uleb128 0x5
 5186 0333 00       		.byte	0
 5187 0334 31       		.uleb128 0x31
 5188 0335 13       		.uleb128 0x13
 5189 0336 02       		.uleb128 0x2
 5190 0337 06       		.uleb128 0x6
 5191 0338 B742     		.uleb128 0x2137
 5192 033a 06       		.uleb128 0x6
 5193 033b 00       		.byte	0
 5194 033c 00       		.byte	0
 5195 033d 37       		.uleb128 0x37
 5196 033e 34       		.uleb128 0x34
 5197 033f 00       		.byte	0
 5198 0340 31       		.uleb128 0x31
 5199 0341 13       		.uleb128 0x13
 5200 0342 00       		.byte	0
 5201 0343 00       		.byte	0
 5202 0344 38       		.uleb128 0x38
 5203 0345 1D       		.uleb128 0x1d
 5204 0346 01       		.byte	0x1
ARM GAS  /tmp/cc8bNYNB.s 			page 103


 5205 0347 31       		.uleb128 0x31
 5206 0348 13       		.uleb128 0x13
 5207 0349 55       		.uleb128 0x55
 5208 034a 06       		.uleb128 0x6
 5209 034b 58       		.uleb128 0x58
 5210 034c 0B       		.uleb128 0xb
 5211 034d 59       		.uleb128 0x59
 5212 034e 0B       		.uleb128 0xb
 5213 034f 57       		.uleb128 0x57
 5214 0350 0B       		.uleb128 0xb
 5215 0351 00       		.byte	0
 5216 0352 00       		.byte	0
 5217 0353 39       		.uleb128 0x39
 5218 0354 34       		.uleb128 0x34
 5219 0355 00       		.byte	0
 5220 0356 31       		.uleb128 0x31
 5221 0357 13       		.uleb128 0x13
 5222 0358 02       		.uleb128 0x2
 5223 0359 06       		.uleb128 0x6
 5224 035a B742     		.uleb128 0x2137
 5225 035c 06       		.uleb128 0x6
 5226 035d 00       		.byte	0
 5227 035e 00       		.byte	0
 5228 035f 3A       		.uleb128 0x3a
 5229 0360 0B       		.uleb128 0xb
 5230 0361 01       		.byte	0x1
 5231 0362 31       		.uleb128 0x31
 5232 0363 13       		.uleb128 0x13
 5233 0364 55       		.uleb128 0x55
 5234 0365 06       		.uleb128 0x6
 5235 0366 00       		.byte	0
 5236 0367 00       		.byte	0
 5237 0368 3B       		.uleb128 0x3b
 5238 0369 2E       		.uleb128 0x2e
 5239 036a 00       		.byte	0
 5240 036b 3F       		.uleb128 0x3f
 5241 036c 0C       		.uleb128 0xc
 5242 036d 3C       		.uleb128 0x3c
 5243 036e 0C       		.uleb128 0xc
 5244 036f 8740     		.uleb128 0x2007
 5245 0371 0E       		.uleb128 0xe
 5246 0372 03       		.uleb128 0x3
 5247 0373 0E       		.uleb128 0xe
 5248 0374 3A       		.uleb128 0x3a
 5249 0375 0B       		.uleb128 0xb
 5250 0376 3B       		.uleb128 0x3b
 5251 0377 05       		.uleb128 0x5
 5252 0378 39       		.uleb128 0x39
 5253 0379 0B       		.uleb128 0xb
 5254 037a 00       		.byte	0
 5255 037b 00       		.byte	0
 5256 037c 3C       		.uleb128 0x3c
 5257 037d 2E       		.uleb128 0x2e
 5258 037e 00       		.byte	0
 5259 037f 3F       		.uleb128 0x3f
 5260 0380 0C       		.uleb128 0xc
 5261 0381 3C       		.uleb128 0x3c
ARM GAS  /tmp/cc8bNYNB.s 			page 104


 5262 0382 0C       		.uleb128 0xc
 5263 0383 8740     		.uleb128 0x2007
 5264 0385 0E       		.uleb128 0xe
 5265 0386 03       		.uleb128 0x3
 5266 0387 0E       		.uleb128 0xe
 5267 0388 00       		.byte	0
 5268 0389 00       		.byte	0
 5269 038a 00       		.byte	0
 5270              		.section	.debug_loc,"",%progbits
 5271              	.Ldebug_loc0:
 5272              	.LLST25:
 5273 0000 F4030000 		.4byte	.LFB48
 5274 0004 F6030000 		.4byte	.LCFI11
 5275 0008 0200     		.2byte	0x2
 5276 000a 7D       		.byte	0x7d
 5277 000b 00       		.sleb128 0
 5278 000c F6030000 		.4byte	.LCFI11
 5279 0010 1C040000 		.4byte	.LFE48
 5280 0014 0200     		.2byte	0x2
 5281 0016 7D       		.byte	0x7d
 5282 0017 10       		.sleb128 16
 5283 0018 00000000 		.4byte	0
 5284 001c 00000000 		.4byte	0
 5285              	.LVUS26:
 5286 0020 00       		.uleb128 0
 5287 0021 00       		.uleb128 .LVU363
 5288 0022 00       		.uleb128 .LVU363
 5289 0023 00       		.uleb128 .LVU365
 5290 0024 00       		.uleb128 .LVU365
 5291 0025 01       		.uleb128 .LVU368
 5292 0026 01       		.uleb128 .LVU368
 5293 0027 00       		.uleb128 0
 5294              	.LLST26:
 5295 0028 F4030000 		.4byte	.LVL62
 5296 002c FA030000 		.4byte	.LVL63
 5297 0030 0100     		.2byte	0x1
 5298 0032 50       		.byte	0x50
 5299 0033 FA030000 		.4byte	.LVL63
 5300 0037 FE030000 		.4byte	.LVL64
 5301 003b 0300     		.2byte	0x3
 5302 003d 74       		.byte	0x74
 5303 003e 01       		.sleb128 1
 5304 003f 9F       		.byte	0x9f
 5305 0040 FE030000 		.4byte	.LVL64
 5306 0044 02040000 		.4byte	.LVL65
 5307 0048 0100     		.2byte	0x1
 5308 004a 54       		.byte	0x54
 5309 004b 02040000 		.4byte	.LVL65
 5310 004f 1C040000 		.4byte	.LFE48
 5311 0053 0300     		.2byte	0x3
 5312 0055 74       		.byte	0x74
 5313 0056 01       		.sleb128 1
 5314 0057 9F       		.byte	0x9f
 5315 0058 00000000 		.4byte	0
 5316 005c 00000000 		.4byte	0
 5317              	.LLST23:
 5318 0060 84030000 		.4byte	.LFB47
ARM GAS  /tmp/cc8bNYNB.s 			page 105


 5319 0064 86030000 		.4byte	.LCFI7
 5320 0068 0200     		.2byte	0x2
 5321 006a 7D       		.byte	0x7d
 5322 006b 00       		.sleb128 0
 5323 006c 86030000 		.4byte	.LCFI7
 5324 0070 8A030000 		.4byte	.LCFI8
 5325 0074 0200     		.2byte	0x2
 5326 0076 7D       		.byte	0x7d
 5327 0077 08       		.sleb128 8
 5328 0078 8A030000 		.4byte	.LCFI8
 5329 007c EE030000 		.4byte	.LCFI9
 5330 0080 0200     		.2byte	0x2
 5331 0082 7D       		.byte	0x7d
 5332 0083 20       		.sleb128 32
 5333 0084 EE030000 		.4byte	.LCFI9
 5334 0088 F4030000 		.4byte	.LFE47
 5335 008c 0200     		.2byte	0x2
 5336 008e 7D       		.byte	0x7d
 5337 008f 08       		.sleb128 8
 5338 0090 00000000 		.4byte	0
 5339 0094 00000000 		.4byte	0
 5340              	.LLST24:
 5341 0098 00000000 		.4byte	.LFB45
 5342 009c 02000000 		.4byte	.LCFI10
 5343 00a0 0200     		.2byte	0x2
 5344 00a2 7D       		.byte	0x7d
 5345 00a3 00       		.sleb128 0
 5346 00a4 02000000 		.4byte	.LCFI10
 5347 00a8 A0000000 		.4byte	.LFE45
 5348 00ac 0200     		.2byte	0x2
 5349 00ae 7D       		.byte	0x7d
 5350 00af 10       		.sleb128 16
 5351 00b0 00000000 		.4byte	0
 5352 00b4 00000000 		.4byte	0
 5353              	.LLST0:
 5354 00b8 00000000 		.4byte	.LFB44
 5355 00bc 04000000 		.4byte	.LCFI0
 5356 00c0 0200     		.2byte	0x2
 5357 00c2 7D       		.byte	0x7d
 5358 00c3 00       		.sleb128 0
 5359 00c4 04000000 		.4byte	.LCFI0
 5360 00c8 20000000 		.4byte	.LFE44
 5361 00cc 0200     		.2byte	0x2
 5362 00ce 7D       		.byte	0x7d
 5363 00cf 08       		.sleb128 8
 5364 00d0 00000000 		.4byte	0
 5365 00d4 00000000 		.4byte	0
 5366              	.LVUS1:
 5367 00d8 00       		.uleb128 0
 5368 00d9 00       		.uleb128 .LVU5
 5369 00da 00       		.uleb128 .LVU5
 5370 00db 00       		.uleb128 0
 5371              	.LLST1:
 5372 00dc 00000000 		.4byte	.LVL0
 5373 00e0 0C000000 		.4byte	.LVL1
 5374 00e4 0100     		.2byte	0x1
 5375 00e6 50       		.byte	0x50
ARM GAS  /tmp/cc8bNYNB.s 			page 106


 5376 00e7 0C000000 		.4byte	.LVL1
 5377 00eb 20000000 		.4byte	.LFE44
 5378 00ef 0400     		.2byte	0x4
 5379 00f1 F3       		.byte	0xf3
 5380 00f2 01       		.uleb128 0x1
 5381 00f3 50       		.byte	0x50
 5382 00f4 9F       		.byte	0x9f
 5383 00f5 00000000 		.4byte	0
 5384 00f9 00000000 		.4byte	0
 5385              	.LLST27:
 5386 00fd 1C040000 		.4byte	.LFB43
 5387 0101 1E040000 		.4byte	.LCFI12
 5388 0105 0200     		.2byte	0x2
 5389 0107 7D       		.byte	0x7d
 5390 0108 00       		.sleb128 0
 5391 0109 1E040000 		.4byte	.LCFI12
 5392 010d 70040000 		.4byte	.LFE43
 5393 0111 0200     		.2byte	0x2
 5394 0113 7D       		.byte	0x7d
 5395 0114 18       		.sleb128 24
 5396 0115 00000000 		.4byte	0
 5397 0119 00000000 		.4byte	0
 5398              	.LVUS28:
 5399 011d 00       		.uleb128 0
 5400 011e 00       		.uleb128 .LVU379
 5401 011f 00       		.uleb128 .LVU379
 5402 0120 00       		.uleb128 0
 5403              	.LLST28:
 5404 0121 1C040000 		.4byte	.LVL68
 5405 0125 24040000 		.4byte	.LVL69
 5406 0129 0100     		.2byte	0x1
 5407 012b 50       		.byte	0x50
 5408 012c 24040000 		.4byte	.LVL69
 5409 0130 70040000 		.4byte	.LFE43
 5410 0134 0400     		.2byte	0x4
 5411 0136 F3       		.byte	0xf3
 5412 0137 01       		.uleb128 0x1
 5413 0138 50       		.byte	0x50
 5414 0139 9F       		.byte	0x9f
 5415 013a 00000000 		.4byte	0
 5416 013e 00000000 		.4byte	0
 5417              	.LLST2:
 5418 0142 20000000 		.4byte	.LFB42
 5419 0146 22000000 		.4byte	.LCFI1
 5420 014a 0200     		.2byte	0x2
 5421 014c 7D       		.byte	0x7d
 5422 014d 00       		.sleb128 0
 5423 014e 22000000 		.4byte	.LCFI1
 5424 0152 88000000 		.4byte	.LFE42
 5425 0156 0200     		.2byte	0x2
 5426 0158 7D       		.byte	0x7d
 5427 0159 10       		.sleb128 16
 5428 015a 00000000 		.4byte	0
 5429 015e 00000000 		.4byte	0
 5430              	.LVUS3:
 5431 0162 00       		.uleb128 0
 5432 0163 00       		.uleb128 .LVU24
ARM GAS  /tmp/cc8bNYNB.s 			page 107


 5433 0164 00       		.uleb128 .LVU24
 5434 0165 00       		.uleb128 0
 5435              	.LLST3:
 5436 0166 20000000 		.4byte	.LVL3
 5437 016a 3A000000 		.4byte	.LVL4
 5438 016e 0100     		.2byte	0x1
 5439 0170 50       		.byte	0x50
 5440 0171 3A000000 		.4byte	.LVL4
 5441 0175 88000000 		.4byte	.LFE42
 5442 0179 0400     		.2byte	0x4
 5443 017b F3       		.byte	0xf3
 5444 017c 01       		.uleb128 0x1
 5445 017d 50       		.byte	0x50
 5446 017e 9F       		.byte	0x9f
 5447 017f 00000000 		.4byte	0
 5448 0183 00000000 		.4byte	0
 5449              	.LLST15:
 5450 0187 50020000 		.4byte	.LFB35
 5451 018b 54020000 		.4byte	.LCFI6
 5452 018f 0200     		.2byte	0x2
 5453 0191 7D       		.byte	0x7d
 5454 0192 00       		.sleb128 0
 5455 0193 54020000 		.4byte	.LCFI6
 5456 0197 D4020000 		.4byte	.LFE35
 5457 019b 0200     		.2byte	0x2
 5458 019d 7D       		.byte	0x7d
 5459 019e 18       		.sleb128 24
 5460 019f 00000000 		.4byte	0
 5461 01a3 00000000 		.4byte	0
 5462              	.LVUS16:
 5463 01a7 00       		.uleb128 0
 5464 01a8 00       		.uleb128 .LVU211
 5465 01a9 00       		.uleb128 .LVU211
 5466 01aa 00       		.uleb128 .LVU238
 5467              	.LLST16:
 5468 01ab 50020000 		.4byte	.LVL25
 5469 01af 5F020000 		.4byte	.LVL27-1
 5470 01b3 0100     		.2byte	0x1
 5471 01b5 50       		.byte	0x50
 5472 01b6 5F020000 		.4byte	.LVL27-1
 5473 01ba 98020000 		.4byte	.LVL37
 5474 01be 0100     		.2byte	0x1
 5475 01c0 55       		.byte	0x55
 5476 01c1 00000000 		.4byte	0
 5477 01c5 00000000 		.4byte	0
 5478              	.LVUS17:
 5479 01c9 00       		.uleb128 0
 5480 01ca 00       		.uleb128 .LVU209
 5481 01cb 00       		.uleb128 .LVU209
 5482 01cc 01       		.uleb128 .LVU216
 5483 01cd 01       		.uleb128 .LVU216
 5484 01ce 00       		.uleb128 .LVU217
 5485 01cf 00       		.uleb128 .LVU217
 5486 01d0 00       		.uleb128 .LVU226
 5487 01d1 00       		.uleb128 .LVU226
 5488 01d2 01       		.uleb128 .LVU228
 5489 01d3 01       		.uleb128 .LVU228
ARM GAS  /tmp/cc8bNYNB.s 			page 108


 5490 01d4 00       		.uleb128 .LVU239
 5491 01d5 00       		.uleb128 .LVU239
 5492 01d6 01       		.uleb128 .LVU255
 5493 01d7 01       		.uleb128 .LVU255
 5494 01d8 00       		.uleb128 .LVU257
 5495 01d9 00       		.uleb128 .LVU257
 5496 01da 00       		.uleb128 0
 5497              	.LLST17:
 5498 01db 50020000 		.4byte	.LVL25
 5499 01df 58020000 		.4byte	.LVL26
 5500 01e3 0100     		.2byte	0x1
 5501 01e5 51       		.byte	0x51
 5502 01e6 58020000 		.4byte	.LVL26
 5503 01ea 68020000 		.4byte	.LVL28
 5504 01ee 0100     		.2byte	0x1
 5505 01f0 54       		.byte	0x54
 5506 01f1 68020000 		.4byte	.LVL28
 5507 01f5 6C020000 		.4byte	.LVL29
 5508 01f9 0300     		.2byte	0x3
 5509 01fb 74       		.byte	0x74
 5510 01fc 01       		.sleb128 1
 5511 01fd 9F       		.byte	0x9f
 5512 01fe 6C020000 		.4byte	.LVL29
 5513 0202 80020000 		.4byte	.LVL33
 5514 0206 0100     		.2byte	0x1
 5515 0208 54       		.byte	0x54
 5516 0209 80020000 		.4byte	.LVL33
 5517 020d 84020000 		.4byte	.LVL34
 5518 0211 0100     		.2byte	0x1
 5519 0213 53       		.byte	0x53
 5520 0214 84020000 		.4byte	.LVL34
 5521 0218 9C020000 		.4byte	.LVL38
 5522 021c 0100     		.2byte	0x1
 5523 021e 54       		.byte	0x54
 5524 021f 9C020000 		.4byte	.LVL38
 5525 0223 BA020000 		.4byte	.LVL45
 5526 0227 0100     		.2byte	0x1
 5527 0229 55       		.byte	0x55
 5528 022a BA020000 		.4byte	.LVL45
 5529 022e C2020000 		.4byte	.LVL46
 5530 0232 0300     		.2byte	0x3
 5531 0234 75       		.byte	0x75
 5532 0235 01       		.sleb128 1
 5533 0236 9F       		.byte	0x9f
 5534 0237 C2020000 		.4byte	.LVL46
 5535 023b D4020000 		.4byte	.LFE35
 5536 023f 0100     		.2byte	0x1
 5537 0241 55       		.byte	0x55
 5538 0242 00000000 		.4byte	0
 5539 0246 00000000 		.4byte	0
 5540              	.LVUS18:
 5541 024a 00       		.uleb128 0
 5542 024b 00       		.uleb128 .LVU211
 5543 024c 00       		.uleb128 .LVU211
 5544 024d 00       		.uleb128 .LVU247
 5545 024e 00       		.uleb128 .LVU247
 5546 024f 00       		.uleb128 .LVU249
ARM GAS  /tmp/cc8bNYNB.s 			page 109


 5547 0250 00       		.uleb128 .LVU249
 5548 0251 00       		.uleb128 0
 5549              	.LLST18:
 5550 0252 50020000 		.4byte	.LVL25
 5551 0256 5F020000 		.4byte	.LVL27-1
 5552 025a 0100     		.2byte	0x1
 5553 025c 52       		.byte	0x52
 5554 025d 5F020000 		.4byte	.LVL27-1
 5555 0261 A8020000 		.4byte	.LVL41
 5556 0265 0100     		.2byte	0x1
 5557 0267 56       		.byte	0x56
 5558 0268 A8020000 		.4byte	.LVL41
 5559 026c AE020000 		.4byte	.LVL42
 5560 0270 0400     		.2byte	0x4
 5561 0272 F3       		.byte	0xf3
 5562 0273 01       		.uleb128 0x1
 5563 0274 52       		.byte	0x52
 5564 0275 9F       		.byte	0x9f
 5565 0276 AE020000 		.4byte	.LVL42
 5566 027a D4020000 		.4byte	.LFE35
 5567 027e 0100     		.2byte	0x1
 5568 0280 56       		.byte	0x56
 5569 0281 00000000 		.4byte	0
 5570 0285 00000000 		.4byte	0
 5571              	.LVUS19:
 5572 0289 00       		.uleb128 .LVU221
 5573 028a 00       		.uleb128 .LVU222
 5574 028b 00       		.uleb128 .LVU222
 5575 028c 00       		.uleb128 .LVU239
 5576              	.LLST19:
 5577 028d 76020000 		.4byte	.LVL31
 5578 0291 79020000 		.4byte	.LVL32-1
 5579 0295 0100     		.2byte	0x1
 5580 0297 50       		.byte	0x50
 5581 0298 79020000 		.4byte	.LVL32-1
 5582 029c 9C020000 		.4byte	.LVL38
 5583 02a0 0100     		.2byte	0x1
 5584 02a2 57       		.byte	0x57
 5585 02a3 00000000 		.4byte	0
 5586 02a7 00000000 		.4byte	0
 5587              	.LVUS20:
 5588 02ab 00       		.uleb128 .LVU234
 5589 02ac 00       		.uleb128 .LVU239
 5590 02ad 00       		.uleb128 .LVU252
 5591 02ae 00       		.uleb128 .LVU254
 5592 02af 00       		.uleb128 .LVU254
 5593 02b0 00       		.uleb128 0
 5594              	.LLST20:
 5595 02b1 96020000 		.4byte	.LVL36
 5596 02b5 9C020000 		.4byte	.LVL38
 5597 02b9 0100     		.2byte	0x1
 5598 02bb 50       		.byte	0x50
 5599 02bc B6020000 		.4byte	.LVL44
 5600 02c0 B9020000 		.4byte	.LVL45-1
 5601 02c4 0100     		.2byte	0x1
 5602 02c6 50       		.byte	0x50
 5603 02c7 B9020000 		.4byte	.LVL45-1
ARM GAS  /tmp/cc8bNYNB.s 			page 110


 5604 02cb D4020000 		.4byte	.LFE35
 5605 02cf 0100     		.2byte	0x1
 5606 02d1 57       		.byte	0x57
 5607 02d2 00000000 		.4byte	0
 5608 02d6 00000000 		.4byte	0
 5609              	.LVUS21:
 5610 02da 02       		.uleb128 .LVU236
 5611 02db 00       		.uleb128 .LVU239
 5612 02dc 00       		.uleb128 .LVU239
 5613 02dd 00       		.uleb128 .LVU242
 5614 02de 00       		.uleb128 .LVU242
 5615 02df 00       		.uleb128 .LVU246
 5616 02e0 00       		.uleb128 .LVU246
 5617 02e1 00       		.uleb128 .LVU249
 5618 02e2 00       		.uleb128 .LVU249
 5619 02e3 00       		.uleb128 .LVU251
 5620 02e4 00       		.uleb128 .LVU251
 5621 02e5 00       		.uleb128 .LVU257
 5622 02e6 00       		.uleb128 .LVU257
 5623 02e7 01       		.uleb128 .LVU261
 5624              	.LLST21:
 5625 02e8 96020000 		.4byte	.LVL36
 5626 02ec 9C020000 		.4byte	.LVL38
 5627 02f0 0200     		.2byte	0x2
 5628 02f2 30       		.byte	0x30
 5629 02f3 9F       		.byte	0x9f
 5630 02f4 9C020000 		.4byte	.LVL38
 5631 02f8 9E020000 		.4byte	.LVL39
 5632 02fc 0600     		.2byte	0x6
 5633 02fe 75       		.byte	0x75
 5634 02ff 00       		.sleb128 0
 5635 0300 74       		.byte	0x74
 5636 0301 00       		.sleb128 0
 5637 0302 1C       		.byte	0x1c
 5638 0303 9F       		.byte	0x9f
 5639 0304 9E020000 		.4byte	.LVL39
 5640 0308 A4020000 		.4byte	.LVL40
 5641 030c 0100     		.2byte	0x1
 5642 030e 53       		.byte	0x53
 5643 030f A4020000 		.4byte	.LVL40
 5644 0313 AE020000 		.4byte	.LVL42
 5645 0317 0600     		.2byte	0x6
 5646 0319 75       		.byte	0x75
 5647 031a 00       		.sleb128 0
 5648 031b 74       		.byte	0x74
 5649 031c 00       		.sleb128 0
 5650 031d 1C       		.byte	0x1c
 5651 031e 9F       		.byte	0x9f
 5652 031f AE020000 		.4byte	.LVL42
 5653 0323 B3020000 		.4byte	.LVL43-1
 5654 0327 0100     		.2byte	0x1
 5655 0329 53       		.byte	0x53
 5656 032a B3020000 		.4byte	.LVL43-1
 5657 032e C2020000 		.4byte	.LVL46
 5658 0332 0600     		.2byte	0x6
 5659 0334 75       		.byte	0x75
 5660 0335 00       		.sleb128 0
ARM GAS  /tmp/cc8bNYNB.s 			page 111


 5661 0336 74       		.byte	0x74
 5662 0337 00       		.sleb128 0
 5663 0338 1C       		.byte	0x1c
 5664 0339 9F       		.byte	0x9f
 5665 033a C2020000 		.4byte	.LVL46
 5666 033e CE020000 		.4byte	.LVL48
 5667 0342 0700     		.2byte	0x7
 5668 0344 74       		.byte	0x74
 5669 0345 00       		.sleb128 0
 5670 0346 20       		.byte	0x20
 5671 0347 75       		.byte	0x75
 5672 0348 00       		.sleb128 0
 5673 0349 22       		.byte	0x22
 5674 034a 9F       		.byte	0x9f
 5675 034b 00000000 		.4byte	0
 5676 034f 00000000 		.4byte	0
 5677              	.LVUS22:
 5678 0353 00       		.uleb128 .LVU254
 5679 0354 00       		.uleb128 .LVU259
 5680              	.LLST22:
 5681 0355 BA020000 		.4byte	.LVL45
 5682 0359 C5020000 		.4byte	.LVL47-1
 5683 035d 0100     		.2byte	0x1
 5684 035f 50       		.byte	0x50
 5685 0360 00000000 		.4byte	0
 5686 0364 00000000 		.4byte	0
 5687              	.LVUS6:
 5688 0368 00       		.uleb128 0
 5689 0369 00       		.uleb128 .LVU165
 5690 036a 00       		.uleb128 .LVU165
 5691 036b 00       		.uleb128 0
 5692              	.LLST6:
 5693 036c F8010000 		.4byte	.LVL10
 5694 0370 00020000 		.4byte	.LVL11
 5695 0374 0100     		.2byte	0x1
 5696 0376 50       		.byte	0x50
 5697 0377 00020000 		.4byte	.LVL11
 5698 037b 14020000 		.4byte	.LFE34
 5699 037f 0400     		.2byte	0x4
 5700 0381 F3       		.byte	0xf3
 5701 0382 01       		.uleb128 0x1
 5702 0383 50       		.byte	0x50
 5703 0384 9F       		.byte	0x9f
 5704 0385 00000000 		.4byte	0
 5705 0389 00000000 		.4byte	0
 5706              	.LVUS5:
 5707 038d 00       		.uleb128 0
 5708 038e 00       		.uleb128 .LVU157
 5709 038f 00       		.uleb128 .LVU157
 5710 0390 00       		.uleb128 0
 5711              	.LLST5:
 5712 0391 E0010000 		.4byte	.LVL8
 5713 0395 E8010000 		.4byte	.LVL9
 5714 0399 0100     		.2byte	0x1
 5715 039b 50       		.byte	0x50
 5716 039c E8010000 		.4byte	.LVL9
 5717 03a0 F8010000 		.4byte	.LFE33
ARM GAS  /tmp/cc8bNYNB.s 			page 112


 5718 03a4 0400     		.2byte	0x4
 5719 03a6 F3       		.byte	0xf3
 5720 03a7 01       		.uleb128 0x1
 5721 03a8 50       		.byte	0x50
 5722 03a9 9F       		.byte	0x9f
 5723 03aa 00000000 		.4byte	0
 5724 03ae 00000000 		.4byte	0
 5725              	.LLST4:
 5726 03b2 88010000 		.4byte	.LFB31
 5727 03b6 8A010000 		.4byte	.LCFI2
 5728 03ba 0200     		.2byte	0x2
 5729 03bc 7D       		.byte	0x7d
 5730 03bd 00       		.sleb128 0
 5731 03be 8A010000 		.4byte	.LCFI2
 5732 03c2 96010000 		.4byte	.LCFI3
 5733 03c6 0200     		.2byte	0x2
 5734 03c8 7D       		.byte	0x7d
 5735 03c9 08       		.sleb128 8
 5736 03ca 96010000 		.4byte	.LCFI3
 5737 03ce 98010000 		.4byte	.LCFI4
 5738 03d2 0200     		.2byte	0x2
 5739 03d4 7D       		.byte	0x7d
 5740 03d5 00       		.sleb128 0
 5741 03d6 98010000 		.4byte	.LCFI4
 5742 03da B8010000 		.4byte	.LFE31
 5743 03de 0200     		.2byte	0x2
 5744 03e0 7D       		.byte	0x7d
 5745 03e1 08       		.sleb128 8
 5746 03e2 00000000 		.4byte	0
 5747 03e6 00000000 		.4byte	0
 5748              	.LLST7:
 5749 03ea 14020000 		.4byte	.LFB36
 5750 03ee 16020000 		.4byte	.LCFI5
 5751 03f2 0200     		.2byte	0x2
 5752 03f4 7D       		.byte	0x7d
 5753 03f5 00       		.sleb128 0
 5754 03f6 16020000 		.4byte	.LCFI5
 5755 03fa 50020000 		.4byte	.LFE36
 5756 03fe 0200     		.2byte	0x2
 5757 0400 7D       		.byte	0x7d
 5758 0401 08       		.sleb128 8
 5759 0402 00000000 		.4byte	0
 5760 0406 00000000 		.4byte	0
 5761              	.LVUS8:
 5762 040a 00       		.uleb128 0
 5763 040b 02       		.uleb128 .LVU178
 5764 040c 02       		.uleb128 .LVU178
 5765 040d 00       		.uleb128 .LVU179
 5766 040e 00       		.uleb128 .LVU179
 5767 040f 00       		.uleb128 .LVU191
 5768 0410 00       		.uleb128 .LVU191
 5769 0411 00       		.uleb128 .LVU201
 5770 0412 00       		.uleb128 .LVU201
 5771 0413 00       		.uleb128 0
 5772              	.LLST8:
 5773 0414 14020000 		.4byte	.LVL12
 5774 0418 1E020000 		.4byte	.LVL14
ARM GAS  /tmp/cc8bNYNB.s 			page 113


 5775 041c 0100     		.2byte	0x1
 5776 041e 50       		.byte	0x50
 5777 041f 1E020000 		.4byte	.LVL14
 5778 0423 20020000 		.4byte	.LVL15
 5779 0427 0400     		.2byte	0x4
 5780 0429 F3       		.byte	0xf3
 5781 042a 01       		.uleb128 0x1
 5782 042b 50       		.byte	0x50
 5783 042c 9F       		.byte	0x9f
 5784 042d 20020000 		.4byte	.LVL15
 5785 0431 32020000 		.4byte	.LVL19
 5786 0435 0100     		.2byte	0x1
 5787 0437 50       		.byte	0x50
 5788 0438 32020000 		.4byte	.LVL19
 5789 043c 48020000 		.4byte	.LVL24
 5790 0440 0400     		.2byte	0x4
 5791 0442 F3       		.byte	0xf3
 5792 0443 01       		.uleb128 0x1
 5793 0444 50       		.byte	0x50
 5794 0445 9F       		.byte	0x9f
 5795 0446 48020000 		.4byte	.LVL24
 5796 044a 50020000 		.4byte	.LFE36
 5797 044e 0100     		.2byte	0x1
 5798 0450 50       		.byte	0x50
 5799 0451 00000000 		.4byte	0
 5800 0455 00000000 		.4byte	0
 5801              	.LVUS9:
 5802 0459 00       		.uleb128 0
 5803 045a 01       		.uleb128 .LVU173
 5804 045b 01       		.uleb128 .LVU173
 5805 045c 02       		.uleb128 .LVU178
 5806 045d 00       		.uleb128 .LVU179
 5807 045e 00       		.uleb128 .LVU191
 5808 045f 00       		.uleb128 .LVU191
 5809 0460 00       		.uleb128 .LVU201
 5810 0461 00       		.uleb128 .LVU201
 5811 0462 00       		.uleb128 0
 5812              	.LLST9:
 5813 0463 14020000 		.4byte	.LVL12
 5814 0467 18020000 		.4byte	.LVL13
 5815 046b 0100     		.2byte	0x1
 5816 046d 51       		.byte	0x51
 5817 046e 18020000 		.4byte	.LVL13
 5818 0472 1E020000 		.4byte	.LVL14
 5819 0476 0300     		.2byte	0x3
 5820 0478 71       		.byte	0x71
 5821 0479 01       		.sleb128 1
 5822 047a 9F       		.byte	0x9f
 5823 047b 20020000 		.4byte	.LVL15
 5824 047f 32020000 		.4byte	.LVL19
 5825 0483 0100     		.2byte	0x1
 5826 0485 51       		.byte	0x51
 5827 0486 32020000 		.4byte	.LVL19
 5828 048a 48020000 		.4byte	.LVL24
 5829 048e 0400     		.2byte	0x4
 5830 0490 F3       		.byte	0xf3
 5831 0491 01       		.uleb128 0x1
ARM GAS  /tmp/cc8bNYNB.s 			page 114


 5832 0492 51       		.byte	0x51
 5833 0493 9F       		.byte	0x9f
 5834 0494 48020000 		.4byte	.LVL24
 5835 0498 50020000 		.4byte	.LFE36
 5836 049c 0100     		.2byte	0x1
 5837 049e 51       		.byte	0x51
 5838 049f 00000000 		.4byte	0
 5839 04a3 00000000 		.4byte	0
 5840              	.LVUS10:
 5841 04a7 00       		.uleb128 .LVU187
 5842 04a8 02       		.uleb128 .LVU195
 5843 04a9 02       		.uleb128 .LVU195
 5844 04aa 00       		.uleb128 .LVU198
 5845 04ab 00       		.uleb128 .LVU198
 5846 04ac 00       		.uleb128 .LVU201
 5847              	.LLST10:
 5848 04ad 2E020000 		.4byte	.LVL18
 5849 04b1 36020000 		.4byte	.LVL20
 5850 04b5 0100     		.2byte	0x1
 5851 04b7 52       		.byte	0x52
 5852 04b8 36020000 		.4byte	.LVL20
 5853 04bc 44020000 		.4byte	.LVL22
 5854 04c0 0300     		.2byte	0x3
 5855 04c2 72       		.byte	0x72
 5856 04c3 7F       		.sleb128 -1
 5857 04c4 9F       		.byte	0x9f
 5858 04c5 44020000 		.4byte	.LVL22
 5859 04c9 48020000 		.4byte	.LVL24
 5860 04cd 0100     		.2byte	0x1
 5861 04cf 52       		.byte	0x52
 5862 04d0 00000000 		.4byte	0
 5863 04d4 00000000 		.4byte	0
 5864              	.LVUS11:
 5865 04d8 00       		.uleb128 .LVU191
 5866 04d9 00       		.uleb128 .LVU196
 5867 04da 00       		.uleb128 .LVU200
 5868 04db 00       		.uleb128 .LVU201
 5869              	.LLST11:
 5870 04dc 32020000 		.4byte	.LVL19
 5871 04e0 3E020000 		.4byte	.LVL21
 5872 04e4 0100     		.2byte	0x1
 5873 04e6 50       		.byte	0x50
 5874 04e7 46020000 		.4byte	.LVL23
 5875 04eb 48020000 		.4byte	.LVL24
 5876 04ef 0100     		.2byte	0x1
 5877 04f1 50       		.byte	0x50
 5878 04f2 00000000 		.4byte	0
 5879 04f6 00000000 		.4byte	0
 5880              	.LVUS12:
 5881 04fa 00       		.uleb128 .LVU179
 5882 04fb 00       		.uleb128 .LVU191
 5883              	.LLST12:
 5884 04fc 20020000 		.4byte	.LVL15
 5885 0500 32020000 		.4byte	.LVL19
 5886 0504 0100     		.2byte	0x1
 5887 0506 53       		.byte	0x53
 5888 0507 00000000 		.4byte	0
ARM GAS  /tmp/cc8bNYNB.s 			page 115


 5889 050b 00000000 		.4byte	0
 5890              	.LVUS13:
 5891 050f 00       		.uleb128 .LVU179
 5892 0510 00       		.uleb128 .LVU187
 5893              	.LLST13:
 5894 0511 20020000 		.4byte	.LVL15
 5895 0515 2E020000 		.4byte	.LVL18
 5896 0519 0100     		.2byte	0x1
 5897 051b 52       		.byte	0x52
 5898 051c 00000000 		.4byte	0
 5899 0520 00000000 		.4byte	0
 5900              	.LVUS14:
 5901 0524 01       		.uleb128 .LVU194
 5902 0525 00       		.uleb128 .LVU196
 5903              	.LLST14:
 5904 0526 36020000 		.4byte	.LVL20
 5905 052a 3E020000 		.4byte	.LVL21
 5906 052e 0900     		.2byte	0x9
 5907 0530 70       		.byte	0x70
 5908 0531 00       		.sleb128 0
 5909 0532 3A       		.byte	0x3a
 5910 0533 14       		.byte	0x14
 5911 0534 14       		.byte	0x14
 5912 0535 1B       		.byte	0x1b
 5913 0536 1E       		.byte	0x1e
 5914 0537 1C       		.byte	0x1c
 5915 0538 9F       		.byte	0x9f
 5916 0539 00000000 		.4byte	0
 5917 053d 00000000 		.4byte	0
 5918              		.section	.debug_aranges,"",%progbits
 5919 0000 24000000 		.4byte	0x24
 5920 0004 0200     		.2byte	0x2
 5921 0006 00000000 		.4byte	.Ldebug_info0
 5922 000a 04       		.byte	0x4
 5923 000b 00       		.byte	0
 5924 000c 0000     		.2byte	0
 5925 000e 0000     		.2byte	0
 5926 0010 00000000 		.4byte	.Ltext0
 5927 0014 70040000 		.4byte	.Letext0-.Ltext0
 5928 0018 00000000 		.4byte	.LFB45
 5929 001c A0000000 		.4byte	.LFE45-.LFB45
 5930 0020 00000000 		.4byte	0
 5931 0024 00000000 		.4byte	0
 5932              		.section	.debug_ranges,"",%progbits
 5933              	.Ldebug_ranges0:
 5934 0000 20020000 		.4byte	.LBB6
 5935 0004 48020000 		.4byte	.LBE6
 5936 0008 4A020000 		.4byte	.LBB11
 5937 000c 50020000 		.4byte	.LBE11
 5938 0010 00000000 		.4byte	0
 5939 0014 00000000 		.4byte	0
 5940 0018 30020000 		.4byte	.LBB8
 5941 001c 32020000 		.4byte	.LBE8
 5942 0020 36020000 		.4byte	.LBB9
 5943 0024 48020000 		.4byte	.LBE9
 5944 0028 00000000 		.4byte	0
 5945 002c 00000000 		.4byte	0
ARM GAS  /tmp/cc8bNYNB.s 			page 116


 5946 0030 96020000 		.4byte	.LBB12
 5947 0034 96020000 		.4byte	.LBE12
 5948 0038 98020000 		.4byte	.LBB15
 5949 003c A2020000 		.4byte	.LBE15
 5950 0040 AE020000 		.4byte	.LBB16
 5951 0044 D4020000 		.4byte	.LBE16
 5952 0048 00000000 		.4byte	0
 5953 004c 00000000 		.4byte	0
 5954 0050 98020000 		.4byte	.LBB13
 5955 0054 9C020000 		.4byte	.LBE13
 5956 0058 AE020000 		.4byte	.LBB14
 5957 005c CE020000 		.4byte	.LBE14
 5958 0060 00000000 		.4byte	0
 5959 0064 00000000 		.4byte	0
 5960 0068 00000000 		.4byte	.Ltext0
 5961 006c 70040000 		.4byte	.Letext0
 5962 0070 00000000 		.4byte	.LFB45
 5963 0074 A0000000 		.4byte	.LFE45
 5964 0078 00000000 		.4byte	0
 5965 007c 00000000 		.4byte	0
 5966              		.section	.debug_line,"",%progbits
 5967              	.Ldebug_line0:
 5968 0000 6D080000 		.section	.debug_str,"MS",%progbits,1
 5968      0300D201 
 5968      00000201 
 5968      FB0E0D00 
 5968      01010101 
 5969              	.LASF70:
 5970 0000 52534552 		.ascii	"RSERVED1\000"
 5970      56454431 
 5970      00
 5971              	.LASF16:
 5972 0009 45585449 		.ascii	"EXTI2_IRQn\000"
 5972      325F4952 
 5972      516E00
 5973              	.LASF157:
 5974 0014 4750494F 		.ascii	"GPIO_Mode_IPU\000"
 5974      5F4D6F64 
 5974      655F4950 
 5974      5500
 5975              	.LASF208:
 5976 0022 55534152 		.ascii	"USART_SendData\000"
 5976      545F5365 
 5976      6E644461 
 5976      746100
 5977              	.LASF108:
 5978 0031 45585449 		.ascii	"EXTICR\000"
 5978      435200
 5979              	.LASF199:
 5980 0038 66726163 		.ascii	"fracionaria\000"
 5980      696F6E61 
 5980      72696100 
 5981              	.LASF89:
 5982 0044 53515231 		.ascii	"SQR1\000"
 5982      00
 5983              	.LASF90:
 5984 0049 53515232 		.ascii	"SQR2\000"
ARM GAS  /tmp/cc8bNYNB.s 			page 117


 5984      00
 5985              	.LASF91:
 5986 004e 53515233 		.ascii	"SQR3\000"
 5986      00
 5987              	.LASF204:
 5988 0053 656E6162 		.ascii	"enable_TIM3_delay\000"
 5988      6C655F54 
 5988      494D335F 
 5988      64656C61 
 5988      7900
 5989              	.LASF148:
 5990 0065 47545052 		.ascii	"GTPR\000"
 5990      00
 5991              	.LASF23:
 5992 006a 444D4131 		.ascii	"DMA1_Channel5_IRQn\000"
 5992      5F436861 
 5992      6E6E656C 
 5992      355F4952 
 5992      516E00
 5993              	.LASF194:
 5994 007d 64696769 		.ascii	"digito\000"
 5994      746F00
 5995              	.LASF178:
 5996 0084 42617365 		.ascii	"BaseType_t\000"
 5996      54797065 
 5996      5F7400
 5997              	.LASF203:
 5998 008f 44656C61 		.ascii	"Delay\000"
 5998      7900
 5999              	.LASF12:
 6000 0095 464C4153 		.ascii	"FLASH_IRQn\000"
 6000      485F4952 
 6000      516E00
 6001              	.LASF207:
 6002 00a0 41444331 		.ascii	"ADC1_configure\000"
 6002      5F636F6E 
 6002      66696775 
 6002      726500
 6003              	.LASF36:
 6004 00af 54494D32 		.ascii	"TIM2_IRQn\000"
 6004      5F495251 
 6004      6E00
 6005              	.LASF145:
 6006 00b9 444D4152 		.ascii	"DMAR\000"
 6006      00
 6007              	.LASF73:
 6008 00be 49435052 		.ascii	"ICPR\000"
 6008      00
 6009              	.LASF134:
 6010 00c3 43435231 		.ascii	"CCR1\000"
 6010      00
 6011              	.LASF136:
 6012 00c8 43435232 		.ascii	"CCR2\000"
 6012      00
 6013              	.LASF138:
 6014 00cd 43435233 		.ascii	"CCR3\000"
 6014      00
ARM GAS  /tmp/cc8bNYNB.s 			page 118


 6015              	.LASF140:
 6016 00d2 43435234 		.ascii	"CCR4\000"
 6016      00
 6017              	.LASF52:
 6018 00d7 5F5F7569 		.ascii	"__uint8_t\000"
 6018      6E74385F 
 6018      7400
 6019              	.LASF44:
 6020 00e1 53504932 		.ascii	"SPI2_IRQn\000"
 6020      5F495251 
 6020      6E00
 6021              	.LASF164:
 6022 00eb 4750494F 		.ascii	"GPIO_Speed\000"
 6022      5F537065 
 6022      656400
 6023              	.LASF182:
 6024 00f6 75736172 		.ascii	"usart_init\000"
 6024      745F696E 
 6024      697400
 6025              	.LASF219:
 6026 0101 5F5F6165 		.ascii	"__aeabi_ui2f\000"
 6026      6162695F 
 6026      75693266 
 6026      00
 6027              	.LASF58:
 6028 010e 6C6F6E67 		.ascii	"long int\000"
 6028      20696E74 
 6028      00
 6029              	.LASF230:
 6030 0117 51756575 		.ascii	"QueueDefinition\000"
 6030      65446566 
 6030      696E6974 
 6030      696F6E00 
 6031              	.LASF154:
 6032 0127 4750494F 		.ascii	"GPIO_Mode_AIN\000"
 6032      5F4D6F64 
 6032      655F4149 
 6032      4E00
 6033              	.LASF10:
 6034 0135 54414D50 		.ascii	"TAMPER_IRQn\000"
 6034      45525F49 
 6034      52516E00 
 6035              	.LASF216:
 6036 0141 76546173 		.ascii	"vTaskStartScheduler\000"
 6036      6B537461 
 6036      72745363 
 6036      68656475 
 6036      6C657200 
 6037              	.LASF231:
 6038 0155 6D61696E 		.ascii	"main\000"
 6038      00
 6039              	.LASF201:
 6040 015a 4952516E 		.ascii	"IRQn\000"
 6040      00
 6041              	.LASF135:
 6042 015f 52455345 		.ascii	"RESERVED13\000"
 6042      52564544 
ARM GAS  /tmp/cc8bNYNB.s 			page 119


 6042      313300
 6043              	.LASF115:
 6044 016a 41504232 		.ascii	"APB2ENR\000"
 6044      454E5200 
 6045              	.LASF185:
 6046 0172 55534152 		.ascii	"USART_InitStructure\000"
 6046      545F496E 
 6046      69745374 
 6046      72756374 
 6046      75726500 
 6047              	.LASF160:
 6048 0186 4750494F 		.ascii	"GPIO_Mode_AF_OD\000"
 6048      5F4D6F64 
 6048      655F4146 
 6048      5F4F4400 
 6049              	.LASF229:
 6050 0196 2F686F6D 		.ascii	"/home/junior/Codigos/6-Stm32_GCC_FreeRTOS10.2.1/2-f"
 6050      652F6A75 
 6050      6E696F72 
 6050      2F436F64 
 6050      69676F73 
 6051 01c9 696C6173 		.ascii	"ilas\000"
 6051      00
 6052              	.LASF7:
 6053 01ce 53797354 		.ascii	"SysTick_IRQn\000"
 6053      69636B5F 
 6053      4952516E 
 6053      00
 6054              	.LASF101:
 6055 01db 57525052 		.ascii	"WRPR\000"
 6055      00
 6056              	.LASF47:
 6057 01e0 55534152 		.ascii	"USART3_IRQn\000"
 6057      54335F49 
 6057      52516E00 
 6058              	.LASF180:
 6059 01ec 51756575 		.ascii	"QueueHandle_t\000"
 6059      6548616E 
 6059      646C655F 
 6059      7400
 6060              	.LASF53:
 6061 01fa 7369676E 		.ascii	"signed char\000"
 6061      65642063 
 6061      68617200 
 6062              	.LASF64:
 6063 0206 75696E74 		.ascii	"uint8_t\000"
 6063      385F7400 
 6064              	.LASF166:
 6065 020e 4750494F 		.ascii	"GPIO_InitTypeDef\000"
 6065      5F496E69 
 6065      74547970 
 6065      65446566 
 6065      00
 6066              	.LASF147:
 6067 021f 54494D5F 		.ascii	"TIM_TypeDef\000"
 6067      54797065 
 6067      44656600 
ARM GAS  /tmp/cc8bNYNB.s 			page 120


 6068              	.LASF68:
 6069 022b 52455345 		.ascii	"RESERVED0\000"
 6069      52564544 
 6069      3000
 6070              	.LASF121:
 6071 0235 52455345 		.ascii	"RESERVED1\000"
 6071      52564544 
 6071      3100
 6072              	.LASF54:
 6073 023f 756E7369 		.ascii	"unsigned char\000"
 6073      676E6564 
 6073      20636861 
 6073      7200
 6074              	.LASF74:
 6075 024d 52455345 		.ascii	"RESERVED3\000"
 6075      52564544 
 6075      3300
 6076              	.LASF76:
 6077 0257 52455345 		.ascii	"RESERVED4\000"
 6077      52564544 
 6077      3400
 6078              	.LASF77:
 6079 0261 52455345 		.ascii	"RESERVED5\000"
 6079      52564544 
 6079      3500
 6080              	.LASF125:
 6081 026b 52455345 		.ascii	"RESERVED6\000"
 6081      52564544 
 6081      3600
 6082              	.LASF127:
 6083 0275 52455345 		.ascii	"RESERVED7\000"
 6083      52564544 
 6083      3700
 6084              	.LASF129:
 6085 027f 52455345 		.ascii	"RESERVED8\000"
 6085      52564544 
 6085      3800
 6086              	.LASF130:
 6087 0289 52455345 		.ascii	"RESERVED9\000"
 6087      52564544 
 6087      3900
 6088              	.LASF161:
 6089 0293 4750494F 		.ascii	"GPIO_Mode_AF_PP\000"
 6089      5F4D6F64 
 6089      655F4146 
 6089      5F505000 
 6090              	.LASF228:
 6091 02a3 2E2E2F32 		.ascii	"../2-filas/main.c\000"
 6091      2D66696C 
 6091      61732F6D 
 6091      61696E2E 
 6091      6300
 6092              	.LASF75:
 6093 02b5 49414252 		.ascii	"IABR\000"
 6093      00
 6094              	.LASF168:
 6095 02ba 55534152 		.ascii	"USART_WordLength\000"
ARM GAS  /tmp/cc8bNYNB.s 			page 121


 6095      545F576F 
 6095      72644C65 
 6095      6E677468 
 6095      00
 6096              	.LASF40:
 6097 02cb 49324331 		.ascii	"I2C1_ER_IRQn\000"
 6097      5F45525F 
 6097      4952516E 
 6097      00
 6098              	.LASF214:
 6099 02d8 78517565 		.ascii	"xQueueGenericCreate\000"
 6099      75654765 
 6099      6E657269 
 6099      63437265 
 6099      61746500 
 6100              	.LASF19:
 6101 02ec 444D4131 		.ascii	"DMA1_Channel1_IRQn\000"
 6101      5F436861 
 6101      6E6E656C 
 6101      315F4952 
 6101      516E00
 6102              	.LASF32:
 6103 02ff 54494D31 		.ascii	"TIM1_BRK_IRQn\000"
 6103      5F42524B 
 6103      5F495251 
 6103      6E00
 6104              	.LASF72:
 6105 030d 52455345 		.ascii	"RESERVED2\000"
 6105      52564544 
 6105      3200
 6106              	.LASF170:
 6107 0317 55534152 		.ascii	"USART_Parity\000"
 6107      545F5061 
 6107      72697479 
 6107      00
 6108              	.LASF3:
 6109 0324 55736167 		.ascii	"UsageFault_IRQn\000"
 6109      65466175 
 6109      6C745F49 
 6109      52516E00 
 6110              	.LASF124:
 6111 0334 43434D52 		.ascii	"CCMR1\000"
 6111      3100
 6112              	.LASF27:
 6113 033a 5553425F 		.ascii	"USB_HP_CAN1_TX_IRQn\000"
 6113      48505F43 
 6113      414E315F 
 6113      54585F49 
 6113      52516E00 
 6114              	.LASF175:
 6115 034e 63686172 		.ascii	"char\000"
 6115      00
 6116              	.LASF210:
 6117 0353 5243435F 		.ascii	"RCC_APB2PeriphClockCmd\000"
 6117      41504232 
 6117      50657269 
 6117      7068436C 
ARM GAS  /tmp/cc8bNYNB.s 			page 122


 6117      6F636B43 
 6118              	.LASF158:
 6119 036a 4750494F 		.ascii	"GPIO_Mode_Out_OD\000"
 6119      5F4D6F64 
 6119      655F4F75 
 6119      745F4F44 
 6119      00
 6120              	.LASF56:
 6121 037b 5F5F7569 		.ascii	"__uint16_t\000"
 6121      6E743136 
 6121      5F7400
 6122              	.LASF200:
 6123 0386 64697361 		.ascii	"disable_interrupt\000"
 6123      626C655F 
 6123      696E7465 
 6123      72727570 
 6123      7400
 6124              	.LASF223:
 6125 0398 5F5F6165 		.ascii	"__aeabi_f2iz\000"
 6125      6162695F 
 6125      6632697A 
 6125      00
 6126              	.LASF152:
 6127 03a5 4750494F 		.ascii	"GPIO_Speed_50MHz\000"
 6127      5F537065 
 6127      65645F35 
 6127      304D487A 
 6127      00
 6128              	.LASF109:
 6129 03b6 4D415052 		.ascii	"MAPR2\000"
 6129      3200
 6130              	.LASF149:
 6131 03bc 55534152 		.ascii	"USART_TypeDef\000"
 6131      545F5479 
 6131      70654465 
 6131      6600
 6132              	.LASF50:
 6133 03ca 55534257 		.ascii	"USBWakeUp_IRQn\000"
 6133      616B6555 
 6133      705F4952 
 6133      516E00
 6134              	.LASF38:
 6135 03d9 54494D34 		.ascii	"TIM4_IRQn\000"
 6135      5F495251 
 6135      6E00
 6136              	.LASF46:
 6137 03e3 55534152 		.ascii	"USART2_IRQn\000"
 6137      54325F49 
 6137      52516E00 
 6138              	.LASF212:
 6139 03ef 55534152 		.ascii	"USART_Init\000"
 6139      545F496E 
 6139      697400
 6140              	.LASF193:
 6141 03fa 74656D70 		.ascii	"temp\000"
 6141      00
 6142              	.LASF117:
ARM GAS  /tmp/cc8bNYNB.s 			page 123


 6143 03ff 42444352 		.ascii	"BDCR\000"
 6143      00
 6144              	.LASF78:
 6145 0404 53544952 		.ascii	"STIR\000"
 6145      00
 6146              	.LASF39:
 6147 0409 49324331 		.ascii	"I2C1_EV_IRQn\000"
 6147      5F45565F 
 6147      4952516E 
 6147      00
 6148              	.LASF97:
 6149 0416 4144435F 		.ascii	"ADC_TypeDef\000"
 6149      54797065 
 6149      44656600 
 6150              	.LASF100:
 6151 0422 52455345 		.ascii	"RESERVED\000"
 6151      52564544 
 6151      00
 6152              	.LASF220:
 6153 042b 5F5F6165 		.ascii	"__aeabi_fdiv\000"
 6153      6162695F 
 6153      66646976 
 6153      00
 6154              	.LASF167:
 6155 0438 55534152 		.ascii	"USART_BaudRate\000"
 6155      545F4261 
 6155      75645261 
 6155      746500
 6156              	.LASF111:
 6157 0447 43464752 		.ascii	"CFGR\000"
 6157      00
 6158              	.LASF171:
 6159 044c 55534152 		.ascii	"USART_Mode\000"
 6159      545F4D6F 
 6159      646500
 6160              	.LASF35:
 6161 0457 54494D31 		.ascii	"TIM1_CC_IRQn\000"
 6161      5F43435F 
 6161      4952516E 
 6161      00
 6162              	.LASF15:
 6163 0464 45585449 		.ascii	"EXTI1_IRQn\000"
 6163      315F4952 
 6163      516E00
 6164              	.LASF159:
 6165 046f 4750494F 		.ascii	"GPIO_Mode_Out_PP\000"
 6165      5F4D6F64 
 6165      655F4F75 
 6165      745F5050 
 6165      00
 6166              	.LASF222:
 6167 0480 78517565 		.ascii	"xQueueGenericSend\000"
 6167      75654765 
 6167      6E657269 
 6167      6353656E 
 6167      6400
 6168              	.LASF99:
ARM GAS  /tmp/cc8bNYNB.s 			page 124


 6169 0492 4F50544B 		.ascii	"OPTKEYR\000"
 6169      45595200 
 6170              	.LASF0:
 6171 049a 4E6F6E4D 		.ascii	"NonMaskableInt_IRQn\000"
 6171      61736B61 
 6171      626C6549 
 6171      6E745F49 
 6171      52516E00 
 6172              	.LASF8:
 6173 04ae 57574447 		.ascii	"WWDG_IRQn\000"
 6173      5F495251 
 6173      6E00
 6174              	.LASF60:
 6175 04b8 6C6F6E67 		.ascii	"long unsigned int\000"
 6175      20756E73 
 6175      69676E65 
 6175      6420696E 
 6175      7400
 6176              	.LASF116:
 6177 04ca 41504231 		.ascii	"APB1ENR\000"
 6177      454E5200 
 6178              	.LASF1:
 6179 04d2 4D656D6F 		.ascii	"MemoryManagement_IRQn\000"
 6179      72794D61 
 6179      6E616765 
 6179      6D656E74 
 6179      5F495251 
 6180              	.LASF22:
 6181 04e8 444D4131 		.ascii	"DMA1_Channel4_IRQn\000"
 6181      5F436861 
 6181      6E6E656C 
 6181      345F4952 
 6181      516E00
 6182              	.LASF123:
 6183 04fb 44494552 		.ascii	"DIER\000"
 6183      00
 6184              	.LASF30:
 6185 0500 43414E31 		.ascii	"CAN1_SCE_IRQn\000"
 6185      5F534345 
 6185      5F495251 
 6185      6E00
 6186              	.LASF51:
 6187 050e 4952516E 		.ascii	"IRQn_Type\000"
 6187      5F547970 
 6187      6500
 6188              	.LASF83:
 6189 0518 534D5052 		.ascii	"SMPR1\000"
 6189      3100
 6190              	.LASF84:
 6191 051e 534D5052 		.ascii	"SMPR2\000"
 6191      3200
 6192              	.LASF218:
 6193 0524 78517565 		.ascii	"xQueueReceive\000"
 6193      75655265 
 6193      63656976 
 6193      6500
 6194              	.LASF169:
ARM GAS  /tmp/cc8bNYNB.s 			page 125


 6195 0532 55534152 		.ascii	"USART_StopBits\000"
 6195      545F5374 
 6195      6F704269 
 6195      747300
 6196              	.LASF104:
 6197 0541 4C434B52 		.ascii	"LCKR\000"
 6197      00
 6198              	.LASF42:
 6199 0546 49324332 		.ascii	"I2C2_ER_IRQn\000"
 6199      5F45525F 
 6199      4952516E 
 6199      00
 6200              	.LASF187:
 6201 0553 61726773 		.ascii	"args\000"
 6201      00
 6202              	.LASF118:
 6203 0558 41484252 		.ascii	"AHBRSTR\000"
 6203      53545200 
 6204              	.LASF2:
 6205 0560 42757346 		.ascii	"BusFault_IRQn\000"
 6205      61756C74 
 6205      5F495251 
 6205      6E00
 6206              	.LASF106:
 6207 056e 45564352 		.ascii	"EVCR\000"
 6207      00
 6208              	.LASF59:
 6209 0573 5F5F7569 		.ascii	"__uint32_t\000"
 6209      6E743332 
 6209      5F7400
 6210              	.LASF61:
 6211 057e 6C6F6E67 		.ascii	"long long int\000"
 6211      206C6F6E 
 6211      6720696E 
 6211      7400
 6212              	.LASF206:
 6213 058c 636F6E66 		.ascii	"configure_PWM_TIM2\000"
 6213      69677572 
 6213      655F5057 
 6213      4D5F5449 
 6213      4D3200
 6214              	.LASF202:
 6215 059f 656E6162 		.ascii	"enable_interrupt\000"
 6215      6C655F69 
 6215      6E746572 
 6215      72757074 
 6215      00
 6216              	.LASF43:
 6217 05b0 53504931 		.ascii	"SPI1_IRQn\000"
 6217      5F495251 
 6217      6E00
 6218              	.LASF177:
 6219 05ba 646F7562 		.ascii	"double\000"
 6219      6C6500
 6220              	.LASF4:
 6221 05c1 53564361 		.ascii	"SVCall_IRQn\000"
 6221      6C6C5F49 
ARM GAS  /tmp/cc8bNYNB.s 			page 126


 6221      52516E00 
 6222              	.LASF112:
 6223 05cd 41504232 		.ascii	"APB2RSTR\000"
 6223      52535452 
 6223      00
 6224              	.LASF192:
 6225 05d6 7670776D 		.ascii	"vpwm\000"
 6225      00
 6226              	.LASF49:
 6227 05db 52544341 		.ascii	"RTCAlarm_IRQn\000"
 6227      6C61726D 
 6227      5F495251 
 6227      6E00
 6228              	.LASF209:
 6229 05e9 55534152 		.ascii	"USART_GetFlagStatus\000"
 6229      545F4765 
 6229      74466C61 
 6229      67537461 
 6229      74757300 
 6230              	.LASF176:
 6231 05fd 666C6F61 		.ascii	"float\000"
 6231      7400
 6232              	.LASF181:
 6233 0603 55534152 		.ascii	"USARTSend\000"
 6233      5453656E 
 6233      6400
 6234              	.LASF18:
 6235 060d 45585449 		.ascii	"EXTI4_IRQn\000"
 6235      345F4952 
 6235      516E00
 6236              	.LASF119:
 6237 0618 43464752 		.ascii	"CFGR2\000"
 6237      3200
 6238              	.LASF41:
 6239 061e 49324332 		.ascii	"I2C2_EV_IRQn\000"
 6239      5F45565F 
 6239      4952516E 
 6239      00
 6240              	.LASF63:
 6241 062b 756E7369 		.ascii	"unsigned int\000"
 6241      676E6564 
 6241      20696E74 
 6241      00
 6242              	.LASF221:
 6243 0638 5F5F6165 		.ascii	"__aeabi_fmul\000"
 6243      6162695F 
 6243      666D756C 
 6243      00
 6244              	.LASF126:
 6245 0645 43434D52 		.ascii	"CCMR2\000"
 6245      3200
 6246              	.LASF25:
 6247 064b 444D4131 		.ascii	"DMA1_Channel7_IRQn\000"
 6247      5F436861 
 6247      6E6E656C 
 6247      375F4952 
 6247      516E00
ARM GAS  /tmp/cc8bNYNB.s 			page 127


 6248              	.LASF197:
 6249 065e 696E7454 		.ascii	"intToStr\000"
 6249      6F537472 
 6249      00
 6250              	.LASF215:
 6251 0667 78546173 		.ascii	"xTaskCreate\000"
 6251      6B437265 
 6251      61746500 
 6252              	.LASF191:
 6253 0673 7461736B 		.ascii	"task1\000"
 6253      3100
 6254              	.LASF189:
 6255 0679 7461736B 		.ascii	"task2\000"
 6255      3200
 6256              	.LASF188:
 6257 067f 7461736B 		.ascii	"task3\000"
 6257      3300
 6258              	.LASF81:
 6259 0685 44495341 		.ascii	"DISABLE\000"
 6259      424C4500 
 6260              	.LASF183:
 6261 068d 78517565 		.ascii	"xQueue\000"
 6261      756500
 6262              	.LASF174:
 6263 0694 6C6F6E67 		.ascii	"long double\000"
 6263      20646F75 
 6263      626C6500 
 6264              	.LASF190:
 6265 06a0 696E666F 		.ascii	"info\000"
 6265      00
 6266              	.LASF34:
 6267 06a5 54494D31 		.ascii	"TIM1_TRG_COM_IRQn\000"
 6267      5F545247 
 6267      5F434F4D 
 6267      5F495251 
 6267      6E00
 6268              	.LASF113:
 6269 06b7 41504231 		.ascii	"APB1RSTR\000"
 6269      52535452 
 6269      00
 6270              	.LASF217:
 6271 06c0 76546173 		.ascii	"vTaskDelay\000"
 6271      6B44656C 
 6271      617900
 6272              	.LASF211:
 6273 06cb 4750494F 		.ascii	"GPIO_Init\000"
 6273      5F496E69 
 6273      7400
 6274              	.LASF79:
 6275 06d5 4E564943 		.ascii	"NVIC_Type\000"
 6275      5F547970 
 6275      6500
 6276              	.LASF48:
 6277 06df 45585449 		.ascii	"EXTI15_10_IRQn\000"
 6277      31355F31 
 6277      305F4952 
 6277      516E00
ARM GAS  /tmp/cc8bNYNB.s 			page 128


 6278              	.LASF62:
 6279 06ee 6C6F6E67 		.ascii	"long long unsigned int\000"
 6279      206C6F6E 
 6279      6720756E 
 6279      7369676E 
 6279      65642069 
 6280              	.LASF65:
 6281 0705 75696E74 		.ascii	"uint16_t\000"
 6281      31365F74 
 6281      00
 6282              	.LASF37:
 6283 070e 54494D33 		.ascii	"TIM3_IRQn\000"
 6283      5F495251 
 6283      6E00
 6284              	.LASF128:
 6285 0718 43434552 		.ascii	"CCER\000"
 6285      00
 6286              	.LASF133:
 6287 071d 52455345 		.ascii	"RESERVED12\000"
 6287      52564544 
 6287      313200
 6288              	.LASF45:
 6289 0728 55534152 		.ascii	"USART1_IRQn\000"
 6289      54315F49 
 6289      52516E00 
 6290              	.LASF137:
 6291 0734 52455345 		.ascii	"RESERVED14\000"
 6291      52564544 
 6291      313400
 6292              	.LASF139:
 6293 073f 52455345 		.ascii	"RESERVED15\000"
 6293      52564544 
 6293      313500
 6294              	.LASF141:
 6295 074a 52455345 		.ascii	"RESERVED16\000"
 6295      52564544 
 6295      313600
 6296              	.LASF143:
 6297 0755 52455345 		.ascii	"RESERVED17\000"
 6297      52564544 
 6297      313700
 6298              	.LASF144:
 6299 0760 52455345 		.ascii	"RESERVED18\000"
 6299      52564544 
 6299      313800
 6300              	.LASF146:
 6301 076b 52455345 		.ascii	"RESERVED19\000"
 6301      52564544 
 6301      313900
 6302              	.LASF107:
 6303 0776 4D415052 		.ascii	"MAPR\000"
 6303      00
 6304              	.LASF186:
 6305 077b 70756342 		.ascii	"pucBuffer\000"
 6305      75666665 
 6305      7200
 6306              	.LASF184:
ARM GAS  /tmp/cc8bNYNB.s 			page 129


 6307 0785 4750494F 		.ascii	"GPIO_InitStructure\000"
 6307      5F496E69 
 6307      74537472 
 6307      75637475 
 6307      726500
 6308              	.LASF165:
 6309 0798 4750494F 		.ascii	"GPIO_Mode\000"
 6309      5F4D6F64 
 6309      6500
 6310              	.LASF213:
 6311 07a2 55534152 		.ascii	"USART_Cmd\000"
 6311      545F436D 
 6311      6400
 6312              	.LASF179:
 6313 07ac 5469636B 		.ascii	"TickType_t\000"
 6313      54797065 
 6313      5F7400
 6314              	.LASF69:
 6315 07b7 49434552 		.ascii	"ICER\000"
 6315      00
 6316              	.LASF122:
 6317 07bc 534D4352 		.ascii	"SMCR\000"
 6317      00
 6318              	.LASF162:
 6319 07c1 4750494F 		.ascii	"GPIOMode_TypeDef\000"
 6319      4D6F6465 
 6319      5F547970 
 6319      65446566 
 6319      00
 6320              	.LASF80:
 6321 07d2 52455345 		.ascii	"RESET\000"
 6321      5400
 6322              	.LASF173:
 6323 07d8 55534152 		.ascii	"USART_InitTypeDef\000"
 6323      545F496E 
 6323      69745479 
 6323      70654465 
 6323      6600
 6324              	.LASF9:
 6325 07ea 5056445F 		.ascii	"PVD_IRQn\000"
 6325      4952516E 
 6325      00
 6326              	.LASF14:
 6327 07f3 45585449 		.ascii	"EXTI0_IRQn\000"
 6327      305F4952 
 6327      516E00
 6328              	.LASF225:
 6329 07fe 5F5F6165 		.ascii	"__aeabi_fsub\000"
 6329      6162695F 
 6329      66737562 
 6329      00
 6330              	.LASF151:
 6331 080b 4750494F 		.ascii	"GPIO_Speed_2MHz\000"
 6331      5F537065 
 6331      65645F32 
 6331      4D487A00 
 6332              	.LASF153:
ARM GAS  /tmp/cc8bNYNB.s 			page 130


 6333 081b 4750494F 		.ascii	"GPIOSpeed_TypeDef\000"
 6333      53706565 
 6333      645F5479 
 6333      70654465 
 6333      6600
 6334              	.LASF5:
 6335 082d 44656275 		.ascii	"DebugMonitor_IRQn\000"
 6335      674D6F6E 
 6335      69746F72 
 6335      5F495251 
 6335      6E00
 6336              	.LASF163:
 6337 083f 4750494F 		.ascii	"GPIO_Pin\000"
 6337      5F50696E 
 6337      00
 6338              	.LASF28:
 6339 0848 5553425F 		.ascii	"USB_LP_CAN1_RX0_IRQn\000"
 6339      4C505F43 
 6339      414E315F 
 6339      5258305F 
 6339      4952516E 
 6340              	.LASF21:
 6341 085d 444D4131 		.ascii	"DMA1_Channel3_IRQn\000"
 6341      5F436861 
 6341      6E6E656C 
 6341      335F4952 
 6341      516E00
 6342              	.LASF98:
 6343 0870 4B455952 		.ascii	"KEYR\000"
 6343      00
 6344              	.LASF120:
 6345 0875 5243435F 		.ascii	"RCC_TypeDef\000"
 6345      54797065 
 6345      44656600 
 6346              	.LASF55:
 6347 0881 73686F72 		.ascii	"short int\000"
 6347      7420696E 
 6347      7400
 6348              	.LASF13:
 6349 088b 5243435F 		.ascii	"RCC_IRQn\000"
 6349      4952516E 
 6349      00
 6350              	.LASF155:
 6351 0894 4750494F 		.ascii	"GPIO_Mode_IN_FLOATING\000"
 6351      5F4D6F64 
 6351      655F494E 
 6351      5F464C4F 
 6351      4154494E 
 6352              	.LASF196:
 6353 08aa 70726563 		.ascii	"precision\000"
 6353      6973696F 
 6353      6E00
 6354              	.LASF110:
 6355 08b4 4146494F 		.ascii	"AFIO_TypeDef\000"
 6355      5F547970 
 6355      65446566 
 6355      00
ARM GAS  /tmp/cc8bNYNB.s 			page 131


 6356              	.LASF85:
 6357 08c1 4A4F4652 		.ascii	"JOFR1\000"
 6357      3100
 6358              	.LASF86:
 6359 08c7 4A4F4652 		.ascii	"JOFR2\000"
 6359      3200
 6360              	.LASF87:
 6361 08cd 4A4F4652 		.ascii	"JOFR3\000"
 6361      3300
 6362              	.LASF88:
 6363 08d3 4A4F4652 		.ascii	"JOFR4\000"
 6363      3400
 6364              	.LASF26:
 6365 08d9 41444331 		.ascii	"ADC1_2_IRQn\000"
 6365      5F325F49 
 6365      52516E00 
 6366              	.LASF82:
 6367 08e5 454E4142 		.ascii	"ENABLE\000"
 6367      4C4500
 6368              	.LASF114:
 6369 08ec 41484245 		.ascii	"AHBENR\000"
 6369      4E5200
 6370              	.LASF227:
 6371 08f3 474E5520 		.ascii	"GNU C17 10.3.1 20210824 (release) -mcpu=cortex-m3 -"
 6371      43313720 
 6371      31302E33 
 6371      2E312032 
 6371      30323130 
 6372 0926 6D746875 		.ascii	"mthumb -mfloat-abi=soft -march=armv7-m -g -gdwarf-2"
 6372      6D62202D 
 6372      6D666C6F 
 6372      61742D61 
 6372      62693D73 
 6373 0959 202D4F73 		.ascii	" -Os -fomit-frame-pointer\000"
 6373      202D666F 
 6373      6D69742D 
 6373      6672616D 
 6373      652D706F 
 6374              	.LASF103:
 6375 0973 42535252 		.ascii	"BSRR\000"
 6375      00
 6376              	.LASF93:
 6377 0978 4A445231 		.ascii	"JDR1\000"
 6377      00
 6378              	.LASF94:
 6379 097d 4A445232 		.ascii	"JDR2\000"
 6379      00
 6380              	.LASF95:
 6381 0982 4A445233 		.ascii	"JDR3\000"
 6381      00
 6382              	.LASF96:
 6383 0987 4A445234 		.ascii	"JDR4\000"
 6383      00
 6384              	.LASF205:
 6385 098c 7365745F 		.ascii	"set_system_clock_to_72Mhz\000"
 6385      73797374 
 6385      656D5F63 
ARM GAS  /tmp/cc8bNYNB.s 			page 132


 6385      6C6F636B 
 6385      5F746F5F 
 6386              	.LASF92:
 6387 09a6 4A535152 		.ascii	"JSQR\000"
 6387      00
 6388              	.LASF105:
 6389 09ab 4750494F 		.ascii	"GPIO_TypeDef\000"
 6389      5F547970 
 6389      65446566 
 6389      00
 6390              	.LASF20:
 6391 09b8 444D4131 		.ascii	"DMA1_Channel2_IRQn\000"
 6391      5F436861 
 6391      6E6E656C 
 6391      325F4952 
 6391      516E00
 6392              	.LASF102:
 6393 09cb 464C4153 		.ascii	"FLASH_TypeDef\000"
 6393      485F5479 
 6393      70654465 
 6393      6600
 6394              	.LASF142:
 6395 09d9 42445452 		.ascii	"BDTR\000"
 6395      00
 6396              	.LASF66:
 6397 09de 75696E74 		.ascii	"uint32_t\000"
 6397      33325F74 
 6397      00
 6398              	.LASF33:
 6399 09e7 54494D31 		.ascii	"TIM1_UP_IRQn\000"
 6399      5F55505F 
 6399      4952516E 
 6399      00
 6400              	.LASF29:
 6401 09f4 43414E31 		.ascii	"CAN1_RX1_IRQn\000"
 6401      5F525831 
 6401      5F495251 
 6401      6E00
 6402              	.LASF172:
 6403 0a02 55534152 		.ascii	"USART_HardwareFlowControl\000"
 6403      545F4861 
 6403      72647761 
 6403      7265466C 
 6403      6F77436F 
 6404              	.LASF226:
 6405 0a1c 5F5F6165 		.ascii	"__aeabi_fcmplt\000"
 6405      6162695F 
 6405      66636D70 
 6405      6C7400
 6406              	.LASF31:
 6407 0a2b 45585449 		.ascii	"EXTI9_5_IRQn\000"
 6407      395F355F 
 6407      4952516E 
 6407      00
 6408              	.LASF150:
 6409 0a38 4750494F 		.ascii	"GPIO_Speed_10MHz\000"
 6409      5F537065 
ARM GAS  /tmp/cc8bNYNB.s 			page 133


 6409      65645F31 
 6409      304D487A 
 6409      00
 6410              	.LASF57:
 6411 0a49 73686F72 		.ascii	"short unsigned int\000"
 6411      7420756E 
 6411      7369676E 
 6411      65642069 
 6411      6E7400
 6412              	.LASF131:
 6413 0a5c 52455345 		.ascii	"RESERVED10\000"
 6413      52564544 
 6413      313000
 6414              	.LASF132:
 6415 0a67 52455345 		.ascii	"RESERVED11\000"
 6415      52564544 
 6415      313100
 6416              	.LASF71:
 6417 0a72 49535052 		.ascii	"ISPR\000"
 6417      00
 6418              	.LASF17:
 6419 0a77 45585449 		.ascii	"EXTI3_IRQn\000"
 6419      335F4952 
 6419      516E00
 6420              	.LASF6:
 6421 0a82 50656E64 		.ascii	"PendSV_IRQn\000"
 6421      53565F49 
 6421      52516E00 
 6422              	.LASF195:
 6423 0a8e 666C6F61 		.ascii	"floatToString\000"
 6423      74546F53 
 6423      7472696E 
 6423      6700
 6424              	.LASF67:
 6425 0a9c 49534552 		.ascii	"ISER\000"
 6425      00
 6426              	.LASF24:
 6427 0aa1 444D4131 		.ascii	"DMA1_Channel6_IRQn\000"
 6427      5F436861 
 6427      6E6E656C 
 6427      365F4952 
 6427      516E00
 6428              	.LASF224:
 6429 0ab4 5F5F6165 		.ascii	"__aeabi_i2f\000"
 6429      6162695F 
 6429      69326600 
 6430              	.LASF11:
 6431 0ac0 5254435F 		.ascii	"RTC_IRQn\000"
 6431      4952516E 
 6431      00
 6432              	.LASF198:
 6433 0ac9 696E7465 		.ascii	"inteira\000"
 6433      69726100 
 6434              	.LASF156:
 6435 0ad1 4750494F 		.ascii	"GPIO_Mode_IPD\000"
 6435      5F4D6F64 
 6435      655F4950 
ARM GAS  /tmp/cc8bNYNB.s 			page 134


 6435      4400
 6436              		.ident	"GCC: (GNU Arm Embedded Toolchain 10.3-2021.10) 10.3.1 20210824 (release)"
ARM GAS  /tmp/cc8bNYNB.s 			page 135


DEFINED SYMBOLS
                            *ABS*:0000000000000000 main.c
     /tmp/cc8bNYNB.s:77     .text:0000000000000000 $t
     /tmp/cc8bNYNB.s:82     .text:0000000000000000 task3
     /tmp/cc8bNYNB.s:129    .text:000000000000001c $d
     /tmp/cc8bNYNB.s:133    .text:0000000000000020 $t
     /tmp/cc8bNYNB.s:138    .text:0000000000000020 task1
     /tmp/cc8bNYNB.s:240    .text:000000000000007c $d
     /tmp/cc8bNYNB.s:246    .text:0000000000000088 $t
     /tmp/cc8bNYNB.s:252    .text:0000000000000088 ADC1_configure
     /tmp/cc8bNYNB.s:380    .text:0000000000000108 $d
     /tmp/cc8bNYNB.s:386    .text:0000000000000114 $t
     /tmp/cc8bNYNB.s:392    .text:0000000000000114 set_system_clock_to_72Mhz
     /tmp/cc8bNYNB.s:500    .text:0000000000000184 $d
     /tmp/cc8bNYNB.s:504    .text:0000000000000188 $t
     /tmp/cc8bNYNB.s:510    .text:0000000000000188 Delay
     /tmp/cc8bNYNB.s:581    .text:00000000000001b4 $d
     /tmp/cc8bNYNB.s:585    .text:00000000000001b8 $t
     /tmp/cc8bNYNB.s:591    .text:00000000000001b8 enable_TIM3_delay
     /tmp/cc8bNYNB.s:629    .text:00000000000001dc $d
     /tmp/cc8bNYNB.s:633    .text:00000000000001e0 $t
     /tmp/cc8bNYNB.s:639    .text:00000000000001e0 enable_interrupt
     /tmp/cc8bNYNB.s:671    .text:00000000000001f4 $d
     /tmp/cc8bNYNB.s:675    .text:00000000000001f8 $t
     /tmp/cc8bNYNB.s:681    .text:00000000000001f8 disable_interrupt
     /tmp/cc8bNYNB.s:714    .text:0000000000000210 $d
     /tmp/cc8bNYNB.s:718    .text:0000000000000214 $t
     /tmp/cc8bNYNB.s:724    .text:0000000000000214 intToStr
     /tmp/cc8bNYNB.s:857    .text:0000000000000250 floatToString
     /tmp/cc8bNYNB.s:1044   .text:00000000000002d0 $d
     /tmp/cc8bNYNB.s:1049   .text:00000000000002d4 $t
     /tmp/cc8bNYNB.s:1055   .text:00000000000002d4 configure_PWM_TIM2
     /tmp/cc8bNYNB.s:1182   .text:0000000000000378 $d
     /tmp/cc8bNYNB.s:1188   .text:0000000000000384 $t
     /tmp/cc8bNYNB.s:1194   .text:0000000000000384 usart_init
     /tmp/cc8bNYNB.s:1306   .text:00000000000003f0 $d
     /tmp/cc8bNYNB.s:1318   .text.startup:0000000000000000 $t
     /tmp/cc8bNYNB.s:1324   .text.startup:0000000000000000 main
     /tmp/cc8bNYNB.s:1423   .text.startup:000000000000007c $d
     /tmp/cc8bNYNB.s:1516   .text:000000000000041c task2
     /tmp/cc8bNYNB.s:1436   .text:00000000000003f4 $t
     /tmp/cc8bNYNB.s:1442   .text:00000000000003f4 USARTSend
     /tmp/cc8bNYNB.s:1501   .text:0000000000000418 $d
     /tmp/cc8bNYNB.s:1511   .text:000000000000041c $t
     /tmp/cc8bNYNB.s:1587   .text:0000000000000460 $d
     /tmp/cc8bNYNB.s:1595   .bss:0000000000000000 $d
     /tmp/cc8bNYNB.s:1599   .bss:0000000000000000 xQueue

UNDEFINED SYMBOLS
vTaskDelay
xQueueGenericSend
__aeabi_fcmplt
__aeabi_f2iz
__aeabi_i2f
__aeabi_fsub
__aeabi_fmul
RCC_APB2PeriphClockCmd
ARM GAS  /tmp/cc8bNYNB.s 			page 136


GPIO_Init
USART_Init
USART_Cmd
xQueueGenericCreate
xTaskCreate
vTaskStartScheduler
USART_SendData
USART_GetFlagStatus
__aeabi_ui2f
__aeabi_fdiv
xQueueReceive
