ARM GAS  /tmp/cc8bNYNB.s 			page 1


   1              		.cpu cortex-m3
   2              		.arch armv7-m
   3              		.fpu softvfp
   4              		.eabi_attribute 20, 1	@ Tag_ABI_FP_denormal
   5              		.eabi_attribute 21, 1	@ Tag_ABI_FP_exceptions
   6              		.eabi_attribute 23, 3	@ Tag_ABI_FP_number_model
   7              		.eabi_attribute 24, 1	@ Tag_ABI_align8_needed
   8              		.eabi_attribute 25, 1	@ Tag_ABI_align8_preserved
   9              		.eabi_attribute 26, 1	@ Tag_ABI_enum_size
  10              		.eabi_attribute 30, 4	@ Tag_ABI_optimization_goals
  11              		.eabi_attribute 34, 1	@ Tag_CPU_unaligned_access
  12              		.eabi_attribute 18, 4	@ Tag_ABI_PCS_wchar_t
  13              		.file	"main.c"
  14              	@ GNU C17 (GNU Arm Embedded Toolchain 10.3-2021.10) version 10.3.1 20210824 (release) (arm-none-eab
  15              	@	compiled by GNU C version 4.8.4, GMP version 6.1.0, MPFR version 3.1.4, MPC version 1.0.3, isl ve
  16              	
  17              	@ GGC heuristics: --param ggc-min-expand=100 --param ggc-min-heapsize=131072
  18              	@ options passed:  -I . -I ../2-filas
  19              	@ -I ../stm32f10x_lib/CMSIS/CM3/CoreSupport
  20              	@ -I ../stm32f10x_lib/CMSIS/CM3/DeviceSupport/ST/STM32F10x
  21              	@ -I ../stm32f10x_lib/STM32F10x_StdPeriph_Driver/inc
  22              	@ -I ../stm32f10x_lib/STM32F10x_StdPeriph_Driver -I ../freertos/include
  23              	@ -I ../freertos/portable/GCC/ARM_CM3 -imultilib thumb/v7-m/nofp
  24              	@ -iprefix /usr/bin/../lib/gcc/arm-none-eabi/10.3.1/
  25              	@ -isysroot /usr/bin/../arm-none-eabi -D__USES_INITFINI__ -D STM32F10X_MD
  26              	@ -D USE_STDPERIPH_DRIVER -D HSE_VALUE=8000000 -D RUN_FROM_FLASH=1
  27              	@ ../2-filas/main.c -mcpu=cortex-m3 -mthumb -mfloat-abi=soft
  28              	@ -mlibarch=armv7-m -march=armv7-m -auxbase-strip ../2-filas/main.o -g
  29              	@ -gdwarf-2 -Os -Wall -fomit-frame-pointer -fverbose-asm
  30              	@ options enabled:  -faggressive-loop-optimizations -fallocation-dce
  31              	@ -fauto-inc-dec -fbranch-count-reg -fcaller-saves -fcode-hoisting
  32              	@ -fcombine-stack-adjustments -fcompare-elim -fcprop-registers
  33              	@ -fcrossjumping -fcse-follow-jumps -fdefer-pop
  34              	@ -fdelete-null-pointer-checks -fdevirtualize -fdevirtualize-speculatively
  35              	@ -fdwarf2-cfi-asm -fearly-inlining -feliminate-unused-debug-symbols
  36              	@ -feliminate-unused-debug-types -fexpensive-optimizations
  37              	@ -fforward-propagate -ffp-int-builtin-inexact -ffunction-cse -fgcse
  38              	@ -fgcse-lm -fgnu-unique -fguess-branch-probability -fhoist-adjacent-loads
  39              	@ -fident -fif-conversion -fif-conversion2 -findirect-inlining -finline
  40              	@ -finline-atomics -finline-functions -finline-functions-called-once
  41              	@ -finline-small-functions -fipa-bit-cp -fipa-cp -fipa-icf
  42              	@ -fipa-icf-functions -fipa-icf-variables -fipa-profile -fipa-pure-const
  43              	@ -fipa-ra -fipa-reference -fipa-reference-addressable -fipa-sra
  44              	@ -fipa-stack-alignment -fipa-vrp -fira-hoist-pressure
  45              	@ -fira-share-save-slots -fira-share-spill-slots
  46              	@ -fisolate-erroneous-paths-dereference -fivopts -fkeep-static-consts
  47              	@ -fleading-underscore -flifetime-dse -flra-remat -fmath-errno
  48              	@ -fmerge-constants -fmerge-debug-strings -fmove-loop-invariants
  49              	@ -fomit-frame-pointer -foptimize-sibling-calls -fpartial-inlining
  50              	@ -fpeephole -fpeephole2 -fplt -fprefetch-loop-arrays -freg-struct-return
  51              	@ -freorder-blocks -freorder-functions -frerun-cse-after-loop
  52              	@ -fsched-critical-path-heuristic -fsched-dep-count-heuristic
  53              	@ -fsched-group-heuristic -fsched-interblock -fsched-last-insn-heuristic
  54              	@ -fsched-pressure -fsched-rank-heuristic -fsched-spec
  55              	@ -fsched-spec-insn-heuristic -fsched-stalled-insns-dep -fschedule-insns2
  56              	@ -fsection-anchors -fsemantic-interposition -fshow-column
  57              	@ -fshrink-wrap-separate -fsigned-zeros -fsplit-ivs-in-unroller
ARM GAS  /tmp/cc8bNYNB.s 			page 2


  58              	@ -fsplit-wide-types -fssa-backprop -fssa-phiopt -fstdarg-opt
  59              	@ -fstore-merging -fstrict-aliasing -fstrict-volatile-bitfields
  60              	@ -fsync-libcalls -fthread-jumps -ftoplevel-reorder -ftrapping-math
  61              	@ -ftree-bit-ccp -ftree-builtin-call-dce -ftree-ccp -ftree-ch
  62              	@ -ftree-coalesce-vars -ftree-copy-prop -ftree-cselim -ftree-dce
  63              	@ -ftree-dominator-opts -ftree-dse -ftree-forwprop -ftree-fre
  64              	@ -ftree-loop-distribute-patterns -ftree-loop-if-convert -ftree-loop-im
  65              	@ -ftree-loop-ivcanon -ftree-loop-optimize -ftree-parallelize-loops=
  66              	@ -ftree-phiprop -ftree-pre -ftree-pta -ftree-reassoc -ftree-scev-cprop
  67              	@ -ftree-sink -ftree-slsr -ftree-sra -ftree-switch-conversion
  68              	@ -ftree-tail-merge -ftree-ter -ftree-vrp -funit-at-a-time -fvar-tracking
  69              	@ -fvar-tracking-assignments -fverbose-asm -fzero-initialized-in-bss
  70              	@ -masm-syntax-unified -mbe32 -mfix-cortex-m3-ldrd -mlittle-endian
  71              	@ -mpic-data-is-text-relative -msched-prolog -mthumb -munaligned-access
  72              	@ -mvectorize-with-neon-quad
  73              	
  74              		.text
  75              	.Ltext0:
  76              		.cfi_sections	.debug_frame
  77              		.align	1
  78              		.syntax unified
  79              		.thumb
  80              		.thumb_func
  81              		.type	task3, %function
  82              	task3:
  83              	.LVL0:
  84              	.LFB44:
  85              		.file 1 "../2-filas/main.c"
   1:../2-filas/main.c **** /*
   2:../2-filas/main.c ****  *
   3:../2-filas/main.c ****  * Desenvolver exemplos usando buffer de comuniação (Queue)
   4:../2-filas/main.c ****  * com propósito de comunicação entre duas ou mais tarefas.
   5:../2-filas/main.c ****  *
   6:../2-filas/main.c ****  *
   7:../2-filas/main.c ****  * Pinos utilizados: 
   8:../2-filas/main.c ****  *		PA0 -> PWM Ch0 -> TIM2 
   9:../2-filas/main.c ****  *		PA1 -> ADC1 configurado e não utilizado
  10:../2-filas/main.c ****  *
  11:../2-filas/main.c ****  * USART: 
  12:../2-filas/main.c ****  *		A9 -> TX
  13:../2-filas/main.c ****  *		A10 RX
  14:../2-filas/main.c ****  *
  15:../2-filas/main.c ****  *
  16:../2-filas/main.c ****  *		PC13 -> Led Onboard
  17:../2-filas/main.c ****  *
  18:../2-filas/main.c ****  * */
  19:../2-filas/main.c **** 
  20:../2-filas/main.c **** //Lib. Auxiliares:
  21:../2-filas/main.c **** #include "stm32f10x.h"
  22:../2-filas/main.c **** #include <math.h>
  23:../2-filas/main.c **** #include "Me.h"
  24:../2-filas/main.c **** // #include <string.h>
  25:../2-filas/main.c **** /* #include "stm32f10x_adc.h" */
  26:../2-filas/main.c **** 
  27:../2-filas/main.c **** // FreeRTOS: 
  28:../2-filas/main.c **** #include "FreeRTOS.h"
  29:../2-filas/main.c **** #include "queue.h"
ARM GAS  /tmp/cc8bNYNB.s 			page 3


  30:../2-filas/main.c **** #include "task.h"
  31:../2-filas/main.c **** 
  32:../2-filas/main.c **** #define __delay_ms( TEMPO ) vTaskDelay(pdMS_TO_TICKS( TEMPO ))
  33:../2-filas/main.c **** #define __delay( TEMPO ) vTaskDelay( TEMPO )
  34:../2-filas/main.c **** 
  35:../2-filas/main.c **** #define pwm_control(VAR) TIM2->CCR1 = (VAR)
  36:../2-filas/main.c **** #define value_ADC1	ADC1->DR
  37:../2-filas/main.c **** 
  38:../2-filas/main.c **** // void ADC1_configure_lib();
  39:../2-filas/main.c **** void configure_PWM_TIM2();
  40:../2-filas/main.c **** void usart_init(void);
  41:../2-filas/main.c **** void USARTSend(char *pucBuffer);
  42:../2-filas/main.c **** 
  43:../2-filas/main.c **** 
  44:../2-filas/main.c **** static QueueHandle_t xQueue; // Declara a variável com tipo
  45:../2-filas/main.c **** 									  // QueueHandle_t
  46:../2-filas/main.c **** 
  47:../2-filas/main.c **** static void task1(void *args __attribute((unused))) {
  48:../2-filas/main.c **** 	GPIOB->CRH &= ~(0xf << 8 ); // ip analogico PA10
  49:../2-filas/main.c **** 
  50:../2-filas/main.c **** 	u16 vpwm = 0x3ff /2; 
  51:../2-filas/main.c **** 	while(1){
  52:../2-filas/main.c **** 			 if((GPIOA->IDR & (1 << 10)))
  53:../2-filas/main.c **** 				 vpwm +=3;
  54:../2-filas/main.c **** 
  55:../2-filas/main.c **** 		if(vpwm >= 0x3ff)
  56:../2-filas/main.c **** 			vpwm = 0;
  57:../2-filas/main.c **** 		
  58:../2-filas/main.c **** 		TIM2->CCR1 = vpwm; 
  59:../2-filas/main.c **** 		xQueueSend(xQueue, &vpwm, 1);
  60:../2-filas/main.c **** 
  61:../2-filas/main.c **** 		__delay_ms(10);
  62:../2-filas/main.c **** 
  63:../2-filas/main.c **** 
  64:../2-filas/main.c **** 	}
  65:../2-filas/main.c **** }
  66:../2-filas/main.c **** 
  67:../2-filas/main.c **** #define con 0xfff
  68:../2-filas/main.c **** static void task2(void *args __attribute ((unused))){
  69:../2-filas/main.c **** 	u16 dd; 
  70:../2-filas/main.c **** 	char info[10] ;
  71:../2-filas/main.c **** 
  72:../2-filas/main.c **** 	while(1){
  73:../2-filas/main.c **** 		if(xQueueReceive(xQueue, &dd, pdMS_TO_TICKS(10))){
  74:../2-filas/main.c **** 			floatToString((float) dd/con *100, info, 4); 
  75:../2-filas/main.c **** 			USARTSend("%)\r\nValor de Duty Cicle= (");
  76:../2-filas/main.c **** 			USARTSend((char * ) &info);
  77:../2-filas/main.c **** 		}
  78:../2-filas/main.c **** 
  79:../2-filas/main.c **** 	}
  80:../2-filas/main.c **** }
  81:../2-filas/main.c **** 
  82:../2-filas/main.c **** static void task3(void *args __attribute ((unused))){
  86              		.loc 1 82 53 view -0
  87              		.cfi_startproc
  88              		@ Volatile: function does not return.
  89              		@ args = 0, pretend = 0, frame = 0
ARM GAS  /tmp/cc8bNYNB.s 			page 4


  90              		@ frame_needed = 0, uses_anonymous_args = 0
  83:../2-filas/main.c **** 
  84:../2-filas/main.c **** 	GPIOC->CRH |=(0x3<<20);
  91              		.loc 1 84 2 view .LVU1
  92              	@ ../2-filas/main.c:84: 	GPIOC->CRH |=(0x3<<20);
  93              		.loc 1 84 13 is_stmt 0 view .LVU2
  94 0000 064C     		ldr	r4, .L3	@ tmp118,
  95              	@ ../2-filas/main.c:82: static void task3(void *args __attribute ((unused))){
  82:../2-filas/main.c **** 
  96              		.loc 1 82 53 view .LVU3
  97 0002 08B5     		push	{r3, lr}	@
  98              	.LCFI0:
  99              		.cfi_def_cfa_offset 8
 100              		.cfi_offset 3, -8
 101              		.cfi_offset 14, -4
 102              	@ ../2-filas/main.c:84: 	GPIOC->CRH |=(0x3<<20);
 103              		.loc 1 84 13 view .LVU4
 104 0004 6368     		ldr	r3, [r4, #4]	@ _1, MEM[(struct GPIO_TypeDef *)1073811456B].CRH
 105 0006 43F44013 		orr	r3, r3, #3145728	@ _2, _1,
 106 000a 6360     		str	r3, [r4, #4]	@ _2, MEM[(struct GPIO_TypeDef *)1073811456B].CRH
 107              	.LVL1:
 108              	.L2:
  85:../2-filas/main.c **** 	while(1){
 109              		.loc 1 85 2 is_stmt 1 discriminator 1 view .LVU5
  86:../2-filas/main.c **** 		GPIOC->ODR	^= (1<<13);
 110              		.loc 1 86 3 discriminator 1 view .LVU6
 111              	@ ../2-filas/main.c:86: 		GPIOC->ODR	^= (1<<13);
 112              		.loc 1 86 14 is_stmt 0 discriminator 1 view .LVU7
 113 000c E368     		ldr	r3, [r4, #12]	@ _3, MEM[(struct GPIO_TypeDef *)1073811456B].ODR
 114              	@ ../2-filas/main.c:87: 		__delay(50);
  87:../2-filas/main.c **** 		__delay(50);
 115              		.loc 1 87 3 discriminator 1 view .LVU8
 116 000e 3220     		movs	r0, #50	@,
 117              	@ ../2-filas/main.c:86: 		GPIOC->ODR	^= (1<<13);
  86:../2-filas/main.c **** 		GPIOC->ODR	^= (1<<13);
 118              		.loc 1 86 14 discriminator 1 view .LVU9
 119 0010 83F40053 		eor	r3, r3, #8192	@ _4, _3,
 120 0014 E360     		str	r3, [r4, #12]	@ _4, MEM[(struct GPIO_TypeDef *)1073811456B].ODR
 121              		.loc 1 87 3 is_stmt 1 discriminator 1 view .LVU10
 122 0016 FFF7FEFF 		bl	vTaskDelay		@
 123              	.LVL2:
  85:../2-filas/main.c **** 	while(1){
 124              		.loc 1 85 7 discriminator 1 view .LVU11
 125 001a F7E7     		b	.L2		@
 126              	.L4:
 127              		.align	2
 128              	.L3:
 129 001c 00100140 		.word	1073811456
 130              		.cfi_endproc
 131              	.LFE44:
 132              		.size	task3, .-task3
 133              		.align	1
 134              		.syntax unified
 135              		.thumb
 136              		.thumb_func
 137              		.type	task1, %function
 138              	task1:
ARM GAS  /tmp/cc8bNYNB.s 			page 5


 139              	.LVL3:
 140              	.LFB42:
  47:../2-filas/main.c **** 	GPIOB->CRH &= ~(0xf << 8 ); // ip analogico PA10
 141              		.loc 1 47 53 view -0
 142              		.cfi_startproc
 143              		@ Volatile: function does not return.
 144              		@ args = 0, pretend = 0, frame = 8
 145              		@ frame_needed = 0, uses_anonymous_args = 0
  48:../2-filas/main.c **** 
 146              		.loc 1 48 2 view .LVU13
 147              	@ ../2-filas/main.c:47: static void task1(void *args __attribute((unused))) {
  47:../2-filas/main.c **** 	GPIOB->CRH &= ~(0xf << 8 ); // ip analogico PA10
 148              		.loc 1 47 53 is_stmt 0 view .LVU14
 149 0020 07B5     		push	{r0, r1, r2, lr}	@
 150              	.LCFI1:
 151              		.cfi_def_cfa_offset 16
 152              		.cfi_offset 14, -4
 153              	@ ../2-filas/main.c:48: 	GPIOB->CRH &= ~(0xf << 8 ); // ip analogico PA10
  48:../2-filas/main.c **** 
 154              		.loc 1 48 13 view .LVU15
 155 0022 164A     		ldr	r2, .L12	@ tmp123,
 156              	@ ../2-filas/main.c:56: 			vpwm = 0;
  56:../2-filas/main.c **** 		
 157              		.loc 1 56 9 view .LVU16
 158 0024 0026     		movs	r6, #0	@ tmp143,
 159              	@ ../2-filas/main.c:48: 	GPIOB->CRH &= ~(0xf << 8 ); // ip analogico PA10
  48:../2-filas/main.c **** 
 160              		.loc 1 48 13 view .LVU17
 161 0026 5368     		ldr	r3, [r2, #4]	@ _1, MEM[(struct GPIO_TypeDef *)1073810432B].CRH
 162              	@ ../2-filas/main.c:52: 			 if((GPIOA->IDR & (1 << 10)))
  52:../2-filas/main.c **** 				 vpwm +=3;
 163              		.loc 1 52 14 view .LVU18
 164 0028 154D     		ldr	r5, .L12+4	@ tmp127,
 165              	@ ../2-filas/main.c:48: 	GPIOB->CRH &= ~(0xf << 8 ); // ip analogico PA10
  48:../2-filas/main.c **** 
 166              		.loc 1 48 13 view .LVU19
 167 002a 23F47063 		bic	r3, r3, #3840	@ _2, _1,
 168 002e 5360     		str	r3, [r2, #4]	@ _2, MEM[(struct GPIO_TypeDef *)1073810432B].CRH
  50:../2-filas/main.c **** 	while(1){
 169              		.loc 1 50 2 is_stmt 1 view .LVU20
 170              	@ ../2-filas/main.c:50: 	u16 vpwm = 0x3ff /2; 
  50:../2-filas/main.c **** 	while(1){
 171              		.loc 1 50 6 is_stmt 0 view .LVU21
 172 0030 40F2FF13 		movw	r3, #511	@ tmp126,
 173              	@ ../2-filas/main.c:59: 		xQueueSend(xQueue, &vpwm, 1);
  59:../2-filas/main.c **** 
 174              		.loc 1 59 3 view .LVU22
 175 0034 134C     		ldr	r4, .L12+8	@ tmp141,
 176              	@ ../2-filas/main.c:50: 	u16 vpwm = 0x3ff /2; 
  50:../2-filas/main.c **** 	while(1){
 177              		.loc 1 50 6 view .LVU23
 178 0036 ADF80630 		strh	r3, [sp, #6]	@ movhi	@ tmp126, vpwm
 179              	.LVL4:
 180              	.L8:
  51:../2-filas/main.c **** 			 if((GPIOA->IDR & (1 << 10)))
 181              		.loc 1 51 2 is_stmt 1 view .LVU24
  52:../2-filas/main.c **** 				 vpwm +=3;
ARM GAS  /tmp/cc8bNYNB.s 			page 6


 182              		.loc 1 52 5 view .LVU25
 183              	@ ../2-filas/main.c:52: 			 if((GPIOA->IDR & (1 << 10)))
  52:../2-filas/main.c **** 				 vpwm +=3;
 184              		.loc 1 52 14 is_stmt 0 view .LVU26
 185 003a AB68     		ldr	r3, [r5, #8]	@ _3, MEM[(struct GPIO_TypeDef *)1073809408B].IDR
 186              	@ ../2-filas/main.c:59: 		xQueueSend(xQueue, &vpwm, 1);
  59:../2-filas/main.c **** 
 187              		.loc 1 59 3 view .LVU27
 188 003c 2068     		ldr	r0, [r4]	@, xQueue
 189              	@ ../2-filas/main.c:52: 			 if((GPIOA->IDR & (1 << 10)))
  52:../2-filas/main.c **** 				 vpwm +=3;
 190              		.loc 1 52 7 view .LVU28
 191 003e 5B05     		lsls	r3, r3, #21	@, _3,
  53:../2-filas/main.c **** 
 192              		.loc 1 53 6 is_stmt 1 view .LVU29
 193              	@ ../2-filas/main.c:53: 				 vpwm +=3;
  53:../2-filas/main.c **** 
 194              		.loc 1 53 11 is_stmt 0 view .LVU30
 195 0040 48BF     		it	mi
 196 0042 BDF80630 		ldrhmi	r3, [sp, #6]	@, vpwm
 197              	@ ../2-filas/main.c:59: 		xQueueSend(xQueue, &vpwm, 1);
  59:../2-filas/main.c **** 
 198              		.loc 1 59 3 view .LVU31
 199 0046 0DF10601 		add	r1, sp, #6	@,,
 200              	@ ../2-filas/main.c:53: 				 vpwm +=3;
  53:../2-filas/main.c **** 
 201              		.loc 1 53 11 view .LVU32
 202 004a 44BF     		itt	mi
 203 004c 0333     		addmi	r3, r3, #3	@ tmp130, vpwm,
 204 004e ADF80630 		strhmi	r3, [sp, #6]	@ movhi	@ tmp130, vpwm
  55:../2-filas/main.c **** 			vpwm = 0;
 205              		.loc 1 55 3 is_stmt 1 view .LVU33
 206              	@ ../2-filas/main.c:55: 		if(vpwm >= 0x3ff)
  55:../2-filas/main.c **** 			vpwm = 0;
 207              		.loc 1 55 5 is_stmt 0 view .LVU34
 208 0052 40F2FE33 		movw	r3, #1022	@ tmp135,
 209 0056 BDF80620 		ldrh	r2, [sp, #6]	@ vpwm, vpwm
 210 005a 9A42     		cmp	r2, r3	@ vpwm, tmp135
  56:../2-filas/main.c **** 		
 211              		.loc 1 56 4 is_stmt 1 view .LVU35
 212              	@ ../2-filas/main.c:58: 		TIM2->CCR1 = vpwm; 
  58:../2-filas/main.c **** 		xQueueSend(xQueue, &vpwm, 1);
 213              		.loc 1 58 14 is_stmt 0 view .LVU36
 214 005c 4FF08043 		mov	r3, #1073741824	@ tmp138,
 215              	@ ../2-filas/main.c:56: 			vpwm = 0;
  56:../2-filas/main.c **** 		
 216              		.loc 1 56 9 view .LVU37
 217 0060 88BF     		it	hi
 218 0062 ADF80660 		strhhi	r6, [sp, #6]	@ movhi	@ tmp143, vpwm
  58:../2-filas/main.c **** 		xQueueSend(xQueue, &vpwm, 1);
 219              		.loc 1 58 3 is_stmt 1 view .LVU38
 220              	@ ../2-filas/main.c:58: 		TIM2->CCR1 = vpwm; 
  58:../2-filas/main.c **** 		xQueueSend(xQueue, &vpwm, 1);
 221              		.loc 1 58 14 is_stmt 0 view .LVU39
 222 0066 BDF80620 		ldrh	r2, [sp, #6]	@ vpwm.14_8, vpwm
 223 006a 9A86     		strh	r2, [r3, #52]	@ movhi	@ vpwm.14_8, MEM[(struct TIM_TypeDef *)1073741824B].CCR1
  59:../2-filas/main.c **** 
ARM GAS  /tmp/cc8bNYNB.s 			page 7


 224              		.loc 1 59 3 is_stmt 1 view .LVU40
 225 006c 0023     		movs	r3, #0	@,
 226 006e 0122     		movs	r2, #1	@,
 227 0070 FFF7FEFF 		bl	xQueueGenericSend		@
 228              	.LVL5:
  61:../2-filas/main.c **** 
 229              		.loc 1 61 3 view .LVU41
 230 0074 0A20     		movs	r0, #10	@,
 231 0076 FFF7FEFF 		bl	vTaskDelay		@
 232              	.LVL6:
  51:../2-filas/main.c **** 			 if((GPIOA->IDR & (1 << 10)))
 233              		.loc 1 51 7 view .LVU42
 234              	@ ../2-filas/main.c:52: 			 if((GPIOA->IDR & (1 << 10)))
  52:../2-filas/main.c **** 				 vpwm +=3;
 235              		.loc 1 52 7 is_stmt 0 view .LVU43
 236 007a DEE7     		b	.L8		@
 237              	.L13:
 238              		.align	2
 239              	.L12:
 240 007c 000C0140 		.word	1073810432
 241 0080 00080140 		.word	1073809408
 242 0084 00000000 		.word	.LANCHOR0
 243              		.cfi_endproc
 244              	.LFE42:
 245              		.size	task1, .-task1
 246              		.align	1
 247              		.global	ADC1_configure
 248              		.syntax unified
 249              		.thumb
 250              		.thumb_func
 251              		.type	ADC1_configure, %function
 252              	ADC1_configure:
 253              	.LFB29:
 254              		.file 2 "../2-filas/Me.h"
   1:../2-filas/Me.h **** #include <math.h>
   2:../2-filas/Me.h **** #define __IO volatile
   3:../2-filas/Me.h **** 
   4:../2-filas/Me.h **** void SystemInit (void);
   5:../2-filas/Me.h **** void nvic_IntDisble(u8 IRQn);
   6:../2-filas/Me.h **** void nvic_intEnable(u8 IRQn);
   7:../2-filas/Me.h **** void set_system_clock_to_25Mhz (void);
   8:../2-filas/Me.h **** void set_system_clock_to_72Mhz(void);
   9:../2-filas/Me.h **** void Delay ( __IO u32 T );
  10:../2-filas/Me.h **** void enable_TIM3_delay (void);
  11:../2-filas/Me.h **** void ADC1_configure();
  12:../2-filas/Me.h **** 
  13:../2-filas/Me.h **** void ADC1_configure(){
 255              		.loc 2 13 22 is_stmt 1 view -0
 256              		.cfi_startproc
 257              		@ args = 0, pretend = 0, frame = 0
 258              		@ frame_needed = 0, uses_anonymous_args = 0
 259              		@ link register save eliminated.
  14:../2-filas/Me.h **** 	RCC->APB2ENR |= 1UL<<2 ; // Hab. GPIOA
 260              		.loc 2 14 2 view .LVU45
 261              	@ ../2-filas/Me.h:14: 	RCC->APB2ENR |= 1UL<<2 ; // Hab. GPIOA
 262              		.loc 2 14 15 is_stmt 0 view .LVU46
 263 0088 1F4B     		ldr	r3, .L19	@ tmp141,
ARM GAS  /tmp/cc8bNYNB.s 			page 8


 264              	@ ../2-filas/Me.h:15: 	GPIOA->CRL &= ~(0x0F << 4); // Define A1 Input Analogic
  15:../2-filas/Me.h **** 	GPIOA->CRL &= ~(0x0F << 4); // Define A1 Input Analogic
 265              		.loc 2 15 13 view .LVU47
 266 008a 2049     		ldr	r1, .L19+4	@ tmp143,
 267              	@ ../2-filas/Me.h:14: 	RCC->APB2ENR |= 1UL<<2 ; // Hab. GPIOA
  14:../2-filas/Me.h **** 	RCC->APB2ENR |= 1UL<<2 ; // Hab. GPIOA
 268              		.loc 2 14 15 view .LVU48
 269 008c 9A69     		ldr	r2, [r3, #24]	@ _1, MEM[(struct RCC_TypeDef *)1073876992B].APB2ENR
 270 008e 42F00402 		orr	r2, r2, #4	@ _2, _1,
 271 0092 9A61     		str	r2, [r3, #24]	@ _2, MEM[(struct RCC_TypeDef *)1073876992B].APB2ENR
 272              		.loc 2 15 2 is_stmt 1 view .LVU49
 273              	@ ../2-filas/Me.h:15: 	GPIOA->CRL &= ~(0x0F << 4); // Define A1 Input Analogic
 274              		.loc 2 15 13 is_stmt 0 view .LVU50
 275 0094 0A68     		ldr	r2, [r1]	@ _3, MEM[(struct GPIO_TypeDef *)1073809408B].CRL
 276 0096 22F0F002 		bic	r2, r2, #240	@ _4, _3,
 277 009a 0A60     		str	r2, [r1]	@ _4, MEM[(struct GPIO_TypeDef *)1073809408B].CRL
  16:../2-filas/Me.h **** 	
  17:../2-filas/Me.h **** 	RCC->APB2ENR |= (1<<9); // Bit 9 ADC1EN: ADC 1 
 278              		.loc 2 17 2 is_stmt 1 view .LVU51
 279              	@ ../2-filas/Me.h:17: 	RCC->APB2ENR |= (1<<9); // Bit 9 ADC1EN: ADC 1 
 280              		.loc 2 17 15 is_stmt 0 view .LVU52
 281 009c 9A69     		ldr	r2, [r3, #24]	@ _5, MEM[(struct RCC_TypeDef *)1073876992B].APB2ENR
 282 009e 42F40072 		orr	r2, r2, #512	@ _6, _5,
 283 00a2 9A61     		str	r2, [r3, #24]	@ _6, MEM[(struct RCC_TypeDef *)1073876992B].APB2ENR
  18:../2-filas/Me.h **** 									// interface clock enable
  19:../2-filas/Me.h **** 
  20:../2-filas/Me.h **** 	RCC->CFGR	|= (0b10 << 14); // Bits 15:14 ADCPRE:
 284              		.loc 2 20 2 is_stmt 1 view .LVU53
 285              	@ ../2-filas/Me.h:20: 	RCC->CFGR	|= (0b10 << 14); // Bits 15:14 ADCPRE:
 286              		.loc 2 20 12 is_stmt 0 view .LVU54
 287 00a4 5A68     		ldr	r2, [r3, #4]	@ _7, MEM[(struct RCC_TypeDef *)1073876992B].CFGR
 288 00a6 42F40042 		orr	r2, r2, #32768	@ _8, _7,
 289 00aa 5A60     		str	r2, [r3, #4]	@ _8, MEM[(struct RCC_TypeDef *)1073876992B].CFGR
  21:../2-filas/Me.h **** 										  // ADC prescaler 10:
  22:../2-filas/Me.h **** 										  //    PCLK2 divided by 6
  23:../2-filas/Me.h **** 	// Enable End of Conversion (EOC) interrupt
  24:../2-filas/Me.h **** 	ADC1->CR1 |= (1 << 5);
 290              		.loc 2 24 2 is_stmt 1 view .LVU55
 291              	@ ../2-filas/Me.h:24: 	ADC1->CR1 |= (1 << 5);
 292              		.loc 2 24 12 is_stmt 0 view .LVU56
 293 00ac A3F56C43 		sub	r3, r3, #60416	@ tmp149, tmp149,
 294 00b0 5A68     		ldr	r2, [r3, #4]	@ _9, MEM[(struct ADC_TypeDef *)1073816576B].CR1
 295 00b2 42F02002 		orr	r2, r2, #32	@ _10, _9,
 296 00b6 5A60     		str	r2, [r3, #4]	@ _10, MEM[(struct ADC_TypeDef *)1073816576B].CR1
  25:../2-filas/Me.h **** 
  26:../2-filas/Me.h **** 	// One conversion
  27:../2-filas/Me.h **** 	ADC1->SQR1 = 0x00000000;
 297              		.loc 2 27 2 is_stmt 1 view .LVU57
 298              	@ ../2-filas/Me.h:27: 	ADC1->SQR1 = 0x00000000;
 299              		.loc 2 27 13 is_stmt 0 view .LVU58
 300 00b8 0022     		movs	r2, #0	@ tmp152,
 301 00ba DA62     		str	r2, [r3, #44]	@ tmp152, MEM[(struct ADC_TypeDef *)1073816576B].SQR1
  28:../2-filas/Me.h **** 
  29:../2-filas/Me.h **** 	// Choose the analog channel to read
  30:../2-filas/Me.h **** 	// Since we want channel 10 to be the first
  31:../2-filas/Me.h **** 	//   conversion we write 10 to SQ1 bits (3:0)
  32:../2-filas/Me.h **** 	//   which is in SQR3 register. For multiple conversions
ARM GAS  /tmp/cc8bNYNB.s 			page 9


  33:../2-filas/Me.h **** 	//   keep writing the channel numbers to SQx bits.
  34:../2-filas/Me.h **** 	 ADC1->SQR3 = (10 << 0);
 302              		.loc 2 34 3 is_stmt 1 view .LVU59
 303              	@ ../2-filas/Me.h:34: 	 ADC1->SQR3 = (10 << 0);
 304              		.loc 2 34 14 is_stmt 0 view .LVU60
 305 00bc 0A22     		movs	r2, #10	@ tmp154,
 306 00be 5A63     		str	r2, [r3, #52]	@ tmp154, MEM[(struct ADC_TypeDef *)1073816576B].SQR3
  35:../2-filas/Me.h **** 
  36:../2-filas/Me.h **** 	// Set up software trigger to start conversion
  37:../2-filas/Me.h **** 	ADC1->CR2 |= (7 << 17);  // Select SWSTART as trigger
 307              		.loc 2 37 2 is_stmt 1 view .LVU61
 308              	@ ../2-filas/Me.h:37: 	ADC1->CR2 |= (7 << 17);  // Select SWSTART as trigger
 309              		.loc 2 37 12 is_stmt 0 view .LVU62
 310 00c0 9A68     		ldr	r2, [r3, #8]	@ _11, MEM[(struct ADC_TypeDef *)1073816576B].CR2
 311 00c2 42F46022 		orr	r2, r2, #917504	@ _12, _11,
 312 00c6 9A60     		str	r2, [r3, #8]	@ _12, MEM[(struct ADC_TypeDef *)1073816576B].CR2
  38:../2-filas/Me.h **** 	ADC1->CR2 |= (1 << 20);  // Enable external trigger
 313              		.loc 2 38 2 is_stmt 1 view .LVU63
 314              	@ ../2-filas/Me.h:38: 	ADC1->CR2 |= (1 << 20);  // Enable external trigger
 315              		.loc 2 38 12 is_stmt 0 view .LVU64
 316 00c8 9A68     		ldr	r2, [r3, #8]	@ _13, MEM[(struct ADC_TypeDef *)1073816576B].CR2
 317 00ca 42F48012 		orr	r2, r2, #1048576	@ _14, _13,
 318 00ce 9A60     		str	r2, [r3, #8]	@ _14, MEM[(struct ADC_TypeDef *)1073816576B].CR2
  39:../2-filas/Me.h **** 
  40:../2-filas/Me.h **** 	// Enable continuous conversion
  41:../2-filas/Me.h **** 	ADC1->CR2 |= (1 << 1);
 319              		.loc 2 41 2 is_stmt 1 view .LVU65
 320              	@ ../2-filas/Me.h:41: 	ADC1->CR2 |= (1 << 1);
 321              		.loc 2 41 12 is_stmt 0 view .LVU66
 322 00d0 9A68     		ldr	r2, [r3, #8]	@ _15, MEM[(struct ADC_TypeDef *)1073816576B].CR2
 323 00d2 42F00202 		orr	r2, r2, #2	@ _16, _15,
 324 00d6 9A60     		str	r2, [r3, #8]	@ _16, MEM[(struct ADC_TypeDef *)1073816576B].CR2
  42:../2-filas/Me.h **** 
  43:../2-filas/Me.h **** 	// enable_interrupt(ADC1_2_IRQn);
  44:../2-filas/Me.h **** 
  45:../2-filas/Me.h **** 	// Enable A/D conversion
  46:../2-filas/Me.h **** 	ADC1->CR2 |= (1 << 0);
 325              		.loc 2 46 2 is_stmt 1 view .LVU67
 326              	@ ../2-filas/Me.h:46: 	ADC1->CR2 |= (1 << 0);
 327              		.loc 2 46 12 is_stmt 0 view .LVU68
 328 00d8 9A68     		ldr	r2, [r3, #8]	@ _17, MEM[(struct ADC_TypeDef *)1073816576B].CR2
 329 00da 42F00102 		orr	r2, r2, #1	@ _18, _17,
 330 00de 9A60     		str	r2, [r3, #8]	@ _18, MEM[(struct ADC_TypeDef *)1073816576B].CR2
  47:../2-filas/Me.h **** 
  48:../2-filas/Me.h **** 	// Calibration reset and start
  49:../2-filas/Me.h **** 	//    Optional for better accuracy.
  50:../2-filas/Me.h **** 	ADC1->CR2 |= (1 << 3);
 331              		.loc 2 50 2 is_stmt 1 view .LVU69
 332              	@ ../2-filas/Me.h:50: 	ADC1->CR2 |= (1 << 3);
 333              		.loc 2 50 12 is_stmt 0 view .LVU70
 334 00e0 9A68     		ldr	r2, [r3, #8]	@ _19, MEM[(struct ADC_TypeDef *)1073816576B].CR2
 335 00e2 42F00802 		orr	r2, r2, #8	@ _20, _19,
 336 00e6 9A60     		str	r2, [r3, #8]	@ _20, MEM[(struct ADC_TypeDef *)1073816576B].CR2
  51:../2-filas/Me.h **** 	while((ADC1->CR2 & (1 << 3)));
 337              		.loc 2 51 2 is_stmt 1 view .LVU71
 338              	.L15:
 339              		.loc 2 51 31 discriminator 1 view .LVU72
ARM GAS  /tmp/cc8bNYNB.s 			page 10


 340              		.loc 2 51 7 discriminator 1 view .LVU73
 341              	@ ../2-filas/Me.h:51: 	while((ADC1->CR2 & (1 << 3)));
 342              		.loc 2 51 13 is_stmt 0 discriminator 1 view .LVU74
 343 00e8 9A68     		ldr	r2, [r3, #8]	@ _21, MEM[(struct ADC_TypeDef *)1073816576B].CR2
 344              	@ ../2-filas/Me.h:51: 	while((ADC1->CR2 & (1 << 3)));
 345              		.loc 2 51 7 discriminator 1 view .LVU75
 346 00ea 1107     		lsls	r1, r2, #28	@, _21,
 347 00ec FCD4     		bmi	.L15		@,
  52:../2-filas/Me.h **** 	ADC1->CR2 |= (1 << 2);
 348              		.loc 2 52 2 is_stmt 1 view .LVU76
 349              	@ ../2-filas/Me.h:52: 	ADC1->CR2 |= (1 << 2);
 350              		.loc 2 52 12 is_stmt 0 view .LVU77
 351 00ee 9A68     		ldr	r2, [r3, #8]	@ _23, MEM[(struct ADC_TypeDef *)1073816576B].CR2
 352 00f0 42F00402 		orr	r2, r2, #4	@ _24, _23,
 353 00f4 9A60     		str	r2, [r3, #8]	@ _24, MEM[(struct ADC_TypeDef *)1073816576B].CR2
  53:../2-filas/Me.h **** 	while((ADC1->CR2 & (1 << 2)));
 354              		.loc 2 53 2 is_stmt 1 view .LVU78
 355              	@ ../2-filas/Me.h:53: 	while((ADC1->CR2 & (1 << 2)));
 356              		.loc 2 53 13 is_stmt 0 view .LVU79
 357 00f6 064B     		ldr	r3, .L19+8	@ tmp169,
 358              	.L16:
 359              		.loc 2 53 31 is_stmt 1 discriminator 1 view .LVU80
 360              		.loc 2 53 7 discriminator 1 view .LVU81
 361              	@ ../2-filas/Me.h:53: 	while((ADC1->CR2 & (1 << 2)));
 362              		.loc 2 53 13 is_stmt 0 discriminator 1 view .LVU82
 363 00f8 9A68     		ldr	r2, [r3, #8]	@ _25, MEM[(struct ADC_TypeDef *)1073816576B].CR2
 364              	@ ../2-filas/Me.h:53: 	while((ADC1->CR2 & (1 << 2)));
 365              		.loc 2 53 7 discriminator 1 view .LVU83
 366 00fa 5207     		lsls	r2, r2, #29	@, _25,
 367 00fc FCD4     		bmi	.L16		@,
  54:../2-filas/Me.h **** 
  55:../2-filas/Me.h **** 	// Start conversion with software trigger
  56:../2-filas/Me.h **** 	ADC1->CR2 |= (1<<22);
 368              		.loc 2 56 2 is_stmt 1 view .LVU84
 369              	@ ../2-filas/Me.h:56: 	ADC1->CR2 |= (1<<22);
 370              		.loc 2 56 12 is_stmt 0 view .LVU85
 371 00fe 9A68     		ldr	r2, [r3, #8]	@ _27, MEM[(struct ADC_TypeDef *)1073816576B].CR2
 372 0100 42F48002 		orr	r2, r2, #4194304	@ _28, _27,
 373 0104 9A60     		str	r2, [r3, #8]	@ _28, MEM[(struct ADC_TypeDef *)1073816576B].CR2
 374              	@ ../2-filas/Me.h:59: }
  57:../2-filas/Me.h **** 	//
  58:../2-filas/Me.h **** 	// Leitura  ADC1->DR  -> Data Register
  59:../2-filas/Me.h **** }
 375              		.loc 2 59 1 view .LVU86
 376 0106 7047     		bx	lr	@
 377              	.L20:
 378              		.align	2
 379              	.L19:
 380 0108 00100240 		.word	1073876992
 381 010c 00080140 		.word	1073809408
 382 0110 00240140 		.word	1073816576
 383              		.cfi_endproc
 384              	.LFE29:
 385              		.size	ADC1_configure, .-ADC1_configure
 386              		.align	1
 387              		.global	set_system_clock_to_72Mhz
 388              		.syntax unified
ARM GAS  /tmp/cc8bNYNB.s 			page 11


 389              		.thumb
 390              		.thumb_func
 391              		.type	set_system_clock_to_72Mhz, %function
 392              	set_system_clock_to_72Mhz:
 393              	.LFB30:
  60:../2-filas/Me.h **** 
  61:../2-filas/Me.h **** void set_system_clock_to_72Mhz(void)
  62:../2-filas/Me.h **** {
 394              		.loc 2 62 1 is_stmt 1 view -0
 395              		.cfi_startproc
 396              		@ args = 0, pretend = 0, frame = 0
 397              		@ frame_needed = 0, uses_anonymous_args = 0
 398              		@ link register save eliminated.
  63:../2-filas/Me.h ****    // Necessary wait states for Flash for high speeds
  64:../2-filas/Me.h ****    FLASH->ACR = 0x12;
 399              		.loc 2 64 4 view .LVU88
 400              	@ ../2-filas/Me.h:64:    FLASH->ACR = 0x12;
 401              		.loc 2 64 15 is_stmt 0 view .LVU89
 402 0114 1222     		movs	r2, #18	@ tmp140,
 403 0116 1B4B     		ldr	r3, .L28	@ tmp139,
 404 0118 1A60     		str	r2, [r3]	@ tmp140, MEM[(struct FLASH_TypeDef *)1073881088B].ACR
  65:../2-filas/Me.h ****    // Enable HSE
  66:../2-filas/Me.h ****    RCC->CR |= (1 << 16);
 405              		.loc 2 66 4 is_stmt 1 view .LVU90
 406              	@ ../2-filas/Me.h:66:    RCC->CR |= (1 << 16);
 407              		.loc 2 66 12 is_stmt 0 view .LVU91
 408 011a A3F58053 		sub	r3, r3, #4096	@ tmp141, tmp141,
 409 011e 1A68     		ldr	r2, [r3]	@ _1, MEM[(struct RCC_TypeDef *)1073876992B].CR
 410 0120 42F48032 		orr	r2, r2, #65536	@ _2, _1,
 411 0124 1A60     		str	r2, [r3]	@ _2, MEM[(struct RCC_TypeDef *)1073876992B].CR
  67:../2-filas/Me.h ****    // Wait untill HSE settles down
  68:../2-filas/Me.h ****    while (!(RCC->CR & (1 << 17)));
 412              		.loc 2 68 4 is_stmt 1 view .LVU92
 413              	.L22:
 414              		.loc 2 68 34 discriminator 1 view .LVU93
 415              		.loc 2 68 10 discriminator 1 view .LVU94
 416              	@ ../2-filas/Me.h:68:    while (!(RCC->CR & (1 << 17)));
 417              		.loc 2 68 16 is_stmt 0 discriminator 1 view .LVU95
 418 0126 1A68     		ldr	r2, [r3]	@ _3, MEM[(struct RCC_TypeDef *)1073876992B].CR
 419              	@ ../2-filas/Me.h:68:    while (!(RCC->CR & (1 << 17)));
 420              		.loc 2 68 10 discriminator 1 view .LVU96
 421 0128 9103     		lsls	r1, r2, #14	@, _3,
 422 012a FCD5     		bpl	.L22		@,
  69:../2-filas/Me.h ****    // Set PREDIV2 division factor to 5
  70:../2-filas/Me.h ****    RCC->CFGR2 |= (0b0100 << 4);
 423              		.loc 2 70 4 is_stmt 1 view .LVU97
 424              	@ ../2-filas/Me.h:70:    RCC->CFGR2 |= (0b0100 << 4);
 425              		.loc 2 70 15 is_stmt 0 view .LVU98
 426 012c DA6A     		ldr	r2, [r3, #44]	@ _5, MEM[(struct RCC_TypeDef *)1073876992B].CFGR2
 427 012e 42F04002 		orr	r2, r2, #64	@ _6, _5,
 428 0132 DA62     		str	r2, [r3, #44]	@ _6, MEM[(struct RCC_TypeDef *)1073876992B].CFGR2
  71:../2-filas/Me.h ****    // Set PLL2 multiplication factor to 8
  72:../2-filas/Me.h ****    RCC->CFGR2 |= (0b0110 << 8);
 429              		.loc 2 72 4 is_stmt 1 view .LVU99
 430              	@ ../2-filas/Me.h:72:    RCC->CFGR2 |= (0b0110 << 8);
 431              		.loc 2 72 15 is_stmt 0 view .LVU100
 432 0134 DA6A     		ldr	r2, [r3, #44]	@ _7, MEM[(struct RCC_TypeDef *)1073876992B].CFGR2
ARM GAS  /tmp/cc8bNYNB.s 			page 12


 433 0136 42F4C062 		orr	r2, r2, #1536	@ _8, _7,
 434 013a DA62     		str	r2, [r3, #44]	@ _8, MEM[(struct RCC_TypeDef *)1073876992B].CFGR2
  73:../2-filas/Me.h ****    // Enable PLL2
  74:../2-filas/Me.h ****    RCC->CR |= (1 << 26);
 435              		.loc 2 74 4 is_stmt 1 view .LVU101
 436              	@ ../2-filas/Me.h:74:    RCC->CR |= (1 << 26);
 437              		.loc 2 74 12 is_stmt 0 view .LVU102
 438 013c 1A68     		ldr	r2, [r3]	@ _9, MEM[(struct RCC_TypeDef *)1073876992B].CR
 439 013e 42F08062 		orr	r2, r2, #67108864	@ _10, _9,
 440 0142 1A60     		str	r2, [r3]	@ _10, MEM[(struct RCC_TypeDef *)1073876992B].CR
  75:../2-filas/Me.h ****    // Wait untill PLL2 settles down
  76:../2-filas/Me.h **** 	// while (!(RCC->CR & (1 << 27)));
  77:../2-filas/Me.h ****    // Set PLL2 as PREDIV1 clock source
  78:../2-filas/Me.h ****    RCC->CFGR2 |= (1 << 16);
 441              		.loc 2 78 4 is_stmt 1 view .LVU103
 442              	@ ../2-filas/Me.h:78:    RCC->CFGR2 |= (1 << 16);
 443              		.loc 2 78 15 is_stmt 0 view .LVU104
 444 0144 DA6A     		ldr	r2, [r3, #44]	@ _11, MEM[(struct RCC_TypeDef *)1073876992B].CFGR2
 445 0146 42F48032 		orr	r2, r2, #65536	@ _12, _11,
 446 014a DA62     		str	r2, [r3, #44]	@ _12, MEM[(struct RCC_TypeDef *)1073876992B].CFGR2
  79:../2-filas/Me.h ****    // Set PREDIV1 division factor to 5
  80:../2-filas/Me.h ****    RCC->CFGR2 |= (0b0100 << 0);
 447              		.loc 2 80 4 is_stmt 1 view .LVU105
 448              	@ ../2-filas/Me.h:80:    RCC->CFGR2 |= (0b0100 << 0);
 449              		.loc 2 80 15 is_stmt 0 view .LVU106
 450 014c DA6A     		ldr	r2, [r3, #44]	@ _13, MEM[(struct RCC_TypeDef *)1073876992B].CFGR2
 451 014e 42F00402 		orr	r2, r2, #4	@ _14, _13,
 452 0152 DA62     		str	r2, [r3, #44]	@ _14, MEM[(struct RCC_TypeDef *)1073876992B].CFGR2
  81:../2-filas/Me.h ****    // Select Prediv1 as PLL source
  82:../2-filas/Me.h ****    RCC->CFGR |= (1 << 16);
 453              		.loc 2 82 4 is_stmt 1 view .LVU107
 454              	@ ../2-filas/Me.h:82:    RCC->CFGR |= (1 << 16);
 455              		.loc 2 82 14 is_stmt 0 view .LVU108
 456 0154 5A68     		ldr	r2, [r3, #4]	@ _15, MEM[(struct RCC_TypeDef *)1073876992B].CFGR
 457 0156 42F48032 		orr	r2, r2, #65536	@ _16, _15,
 458 015a 5A60     		str	r2, [r3, #4]	@ _16, MEM[(struct RCC_TypeDef *)1073876992B].CFGR
  83:../2-filas/Me.h ****    // Set PLL1 multiplication factor to 9
  84:../2-filas/Me.h ****    RCC->CFGR |= (0b0111 << 18);
 459              		.loc 2 84 4 is_stmt 1 view .LVU109
 460              	@ ../2-filas/Me.h:84:    RCC->CFGR |= (0b0111 << 18);
 461              		.loc 2 84 14 is_stmt 0 view .LVU110
 462 015c 5A68     		ldr	r2, [r3, #4]	@ _17, MEM[(struct RCC_TypeDef *)1073876992B].CFGR
 463 015e 42F4E012 		orr	r2, r2, #1835008	@ _18, _17,
 464 0162 5A60     		str	r2, [r3, #4]	@ _18, MEM[(struct RCC_TypeDef *)1073876992B].CFGR
  85:../2-filas/Me.h ****    // Set APB1 to 36MHz
  86:../2-filas/Me.h ****    RCC->CFGR |= 1 << 10;
 465              		.loc 2 86 4 is_stmt 1 view .LVU111
 466              	@ ../2-filas/Me.h:86:    RCC->CFGR |= 1 << 10;
 467              		.loc 2 86 14 is_stmt 0 view .LVU112
 468 0164 5A68     		ldr	r2, [r3, #4]	@ _19, MEM[(struct RCC_TypeDef *)1073876992B].CFGR
 469 0166 42F48062 		orr	r2, r2, #1024	@ _20, _19,
 470 016a 5A60     		str	r2, [r3, #4]	@ _20, MEM[(struct RCC_TypeDef *)1073876992B].CFGR
  87:../2-filas/Me.h ****    // Enable PLL
  88:../2-filas/Me.h ****    RCC->CR |= (1 << 24);
 471              		.loc 2 88 4 is_stmt 1 view .LVU113
 472              	@ ../2-filas/Me.h:88:    RCC->CR |= (1 << 24);
 473              		.loc 2 88 12 is_stmt 0 view .LVU114
ARM GAS  /tmp/cc8bNYNB.s 			page 13


 474 016c 1A68     		ldr	r2, [r3]	@ _21, MEM[(struct RCC_TypeDef *)1073876992B].CR
 475 016e 42F08072 		orr	r2, r2, #16777216	@ _22, _21,
 476 0172 1A60     		str	r2, [r3]	@ _22, MEM[(struct RCC_TypeDef *)1073876992B].CR
  89:../2-filas/Me.h ****    // Wait untill PLL settles down
  90:../2-filas/Me.h ****    while (!(RCC->CR & (1 << 25)));
 477              		.loc 2 90 4 is_stmt 1 view .LVU115
 478              	.L23:
 479              		.loc 2 90 34 discriminator 1 view .LVU116
 480              		.loc 2 90 10 discriminator 1 view .LVU117
 481              	@ ../2-filas/Me.h:90:    while (!(RCC->CR & (1 << 25)));
 482              		.loc 2 90 16 is_stmt 0 discriminator 1 view .LVU118
 483 0174 1A68     		ldr	r2, [r3]	@ _23, MEM[(struct RCC_TypeDef *)1073876992B].CR
 484              	@ ../2-filas/Me.h:90:    while (!(RCC->CR & (1 << 25)));
 485              		.loc 2 90 10 discriminator 1 view .LVU119
 486 0176 9201     		lsls	r2, r2, #6	@, _23,
 487 0178 FCD5     		bpl	.L23		@,
  91:../2-filas/Me.h ****    // Finally, choose PLL as the system clock
  92:../2-filas/Me.h ****    RCC->CFGR |= (0b10 << 0);
 488              		.loc 2 92 4 is_stmt 1 view .LVU120
 489              	@ ../2-filas/Me.h:92:    RCC->CFGR |= (0b10 << 0);
 490              		.loc 2 92 14 is_stmt 0 view .LVU121
 491 017a 5A68     		ldr	r2, [r3, #4]	@ _25, MEM[(struct RCC_TypeDef *)1073876992B].CFGR
 492 017c 42F00202 		orr	r2, r2, #2	@ _26, _25,
 493 0180 5A60     		str	r2, [r3, #4]	@ _26, MEM[(struct RCC_TypeDef *)1073876992B].CFGR
 494              	@ ../2-filas/Me.h:93: } 
  93:../2-filas/Me.h **** } 
 495              		.loc 2 93 1 view .LVU122
 496 0182 7047     		bx	lr	@
 497              	.L29:
 498              		.align	2
 499              	.L28:
 500 0184 00200240 		.word	1073881088
 501              		.cfi_endproc
 502              	.LFE30:
 503              		.size	set_system_clock_to_72Mhz, .-set_system_clock_to_72Mhz
 504              		.align	1
 505              		.global	Delay
 506              		.syntax unified
 507              		.thumb
 508              		.thumb_func
 509              		.type	Delay, %function
 510              	Delay:
 511              	.LVL7:
 512              	.LFB31:
  94:../2-filas/Me.h **** 
  95:../2-filas/Me.h **** void Delay ( __IO u32 T ) { // T=1 ;  868µs -> T=1 ~ 526µs
 513              		.loc 2 95 27 is_stmt 1 view -0
 514              		.cfi_startproc
 515              		@ args = 0, pretend = 0, frame = 8
 516              		@ frame_needed = 0, uses_anonymous_args = 0
 517              		@ link register save eliminated.
  96:../2-filas/Me.h ****   for ( T ; T > 0 ; T-- ){
 518              		.loc 2 96 3 view .LVU124
 519              	@ ../2-filas/Me.h:95: void Delay ( __IO u32 T ) { // T=1 ;  868µs -> T=1 ~ 526µs
  95:../2-filas/Me.h ****   for ( T ; T > 0 ; T-- ){
 520              		.loc 2 95 27 is_stmt 0 view .LVU125
 521 0188 82B0     		sub	sp, sp, #8	@,,
ARM GAS  /tmp/cc8bNYNB.s 			page 14


 522              	.LCFI2:
 523              		.cfi_def_cfa_offset 8
 524              	@ ../2-filas/Me.h:95: void Delay ( __IO u32 T ) { // T=1 ;  868µs -> T=1 ~ 526µs
  95:../2-filas/Me.h ****   for ( T ; T > 0 ; T-- ){
 525              		.loc 2 95 27 view .LVU126
 526 018a 0190     		str	r0, [sp, #4]	@ T, T
 527              	@ ../2-filas/Me.h:96:   for ( T ; T > 0 ; T-- ){
 528              		.loc 2 96 3 view .LVU127
 529 018c 019B     		ldr	r3, [sp, #4]	@ vol.0_9, T
 530              	@ ../2-filas/Me.h:97:    TIM3->EGR |= ( 1 << 0 );
  97:../2-filas/Me.h ****    TIM3->EGR |= ( 1 << 0 );
 531              		.loc 2 97 14 view .LVU128
 532 018e 094A     		ldr	r2, .L35	@ tmp132,
 533              	.L31:
  96:../2-filas/Me.h ****   for ( T ; T > 0 ; T-- ){
 534              		.loc 2 96 13 is_stmt 1 discriminator 1 view .LVU129
 535              	@ ../2-filas/Me.h:96:   for ( T ; T > 0 ; T-- ){
  96:../2-filas/Me.h ****   for ( T ; T > 0 ; T-- ){
 536              		.loc 2 96 15 is_stmt 0 discriminator 1 view .LVU130
 537 0190 019B     		ldr	r3, [sp, #4]	@ T.2_6, T
 538              	@ ../2-filas/Me.h:96:   for ( T ; T > 0 ; T-- ){
  96:../2-filas/Me.h ****   for ( T ; T > 0 ; T-- ){
 539              		.loc 2 96 3 discriminator 1 view .LVU131
 540 0192 0BB9     		cbnz	r3, .L33	@ T.2_6,
 541              	@ ../2-filas/Me.h:100: }
  98:../2-filas/Me.h ****    while ( TIM3->CNT < 5 ) ; /* 5 * 10-- Configurar para IR */
  99:../2-filas/Me.h ****   }
 100:../2-filas/Me.h **** }
 542              		.loc 2 100 1 view .LVU132
 543 0194 02B0     		add	sp, sp, #8	@,,
 544              	.LCFI3:
 545              		.cfi_remember_state
 546              		.cfi_def_cfa_offset 0
 547              		@ sp needed	@
 548 0196 7047     		bx	lr	@
 549              	.L33:
 550              	.LCFI4:
 551              		.cfi_restore_state
  97:../2-filas/Me.h ****    TIM3->EGR |= ( 1 << 0 );
 552              		.loc 2 97 4 is_stmt 1 view .LVU133
 553              	@ ../2-filas/Me.h:97:    TIM3->EGR |= ( 1 << 0 );
  97:../2-filas/Me.h ****    TIM3->EGR |= ( 1 << 0 );
 554              		.loc 2 97 14 is_stmt 0 view .LVU134
 555 0198 938A     		ldrh	r3, [r2, #20]	@, MEM[(struct TIM_TypeDef *)1073742848B].EGR
 556 019a 9BB2     		uxth	r3, r3	@ _1, MEM[(struct TIM_TypeDef *)1073742848B].EGR
 557 019c 43F00103 		orr	r3, r3, #1	@ _2, _1,
 558 01a0 9382     		strh	r3, [r2, #20]	@ movhi	@ _2, MEM[(struct TIM_TypeDef *)1073742848B].EGR
  98:../2-filas/Me.h ****    while ( TIM3->CNT < 5 ) ; /* 5 * 10-- Configurar para IR */
 559              		.loc 2 98 4 is_stmt 1 view .LVU135
 560              	.L32:
  98:../2-filas/Me.h ****    while ( TIM3->CNT < 5 ) ; /* 5 * 10-- Configurar para IR */
 561              		.loc 2 98 28 discriminator 1 view .LVU136
  98:../2-filas/Me.h ****    while ( TIM3->CNT < 5 ) ; /* 5 * 10-- Configurar para IR */
 562              		.loc 2 98 10 discriminator 1 view .LVU137
 563              	@ ../2-filas/Me.h:98:    while ( TIM3->CNT < 5 ) ; /* 5 * 10-- Configurar para IR */
  98:../2-filas/Me.h ****    while ( TIM3->CNT < 5 ) ; /* 5 * 10-- Configurar para IR */
 564              		.loc 2 98 16 is_stmt 0 discriminator 1 view .LVU138
ARM GAS  /tmp/cc8bNYNB.s 			page 15


 565 01a2 938C     		ldrh	r3, [r2, #36]	@, MEM[(struct TIM_TypeDef *)1073742848B].CNT
 566 01a4 9BB2     		uxth	r3, r3	@ _3, MEM[(struct TIM_TypeDef *)1073742848B].CNT
 567              	@ ../2-filas/Me.h:98:    while ( TIM3->CNT < 5 ) ; /* 5 * 10-- Configurar para IR */
  98:../2-filas/Me.h ****    while ( TIM3->CNT < 5 ) ; /* 5 * 10-- Configurar para IR */
 568              		.loc 2 98 10 discriminator 1 view .LVU139
 569 01a6 042B     		cmp	r3, #4	@ _3,
 570 01a8 FBD9     		bls	.L32		@,
  96:../2-filas/Me.h ****    TIM3->EGR |= ( 1 << 0 );
 571              		.loc 2 96 21 is_stmt 1 discriminator 2 view .LVU140
 572              	@ ../2-filas/Me.h:96:   for ( T ; T > 0 ; T-- ){
  96:../2-filas/Me.h ****    TIM3->EGR |= ( 1 << 0 );
 573              		.loc 2 96 22 is_stmt 0 discriminator 2 view .LVU141
 574 01aa 019B     		ldr	r3, [sp, #4]	@ T.1_4, T
 575 01ac 013B     		subs	r3, r3, #1	@ _5, T.1_4,
 576 01ae 0193     		str	r3, [sp, #4]	@ _5, T
 577 01b0 EEE7     		b	.L31		@
 578              	.L36:
 579 01b2 00BF     		.align	2
 580              	.L35:
 581 01b4 00040040 		.word	1073742848
 582              		.cfi_endproc
 583              	.LFE31:
 584              		.size	Delay, .-Delay
 585              		.align	1
 586              		.global	enable_TIM3_delay
 587              		.syntax unified
 588              		.thumb
 589              		.thumb_func
 590              		.type	enable_TIM3_delay, %function
 591              	enable_TIM3_delay:
 592              	.LFB32:
 101:../2-filas/Me.h **** 
 102:../2-filas/Me.h **** void enable_TIM3_delay (void) {
 593              		.loc 2 102 31 is_stmt 1 view -0
 594              		.cfi_startproc
 595              		@ args = 0, pretend = 0, frame = 0
 596              		@ frame_needed = 0, uses_anonymous_args = 0
 597              		@ link register save eliminated.
 103:../2-filas/Me.h ****    RCC->APB1ENR |= 1<<1 ;
 598              		.loc 2 103 4 view .LVU143
 599              	@ ../2-filas/Me.h:103:    RCC->APB1ENR |= 1<<1 ;
 600              		.loc 2 103 17 is_stmt 0 view .LVU144
 601 01b8 084A     		ldr	r2, .L38	@ tmp117,
 602 01ba D369     		ldr	r3, [r2, #28]	@ _1, MEM[(struct RCC_TypeDef *)1073876992B].APB1ENR
 603 01bc 43F00203 		orr	r3, r3, #2	@ _2, _1,
 604 01c0 D361     		str	r3, [r2, #28]	@ _2, MEM[(struct RCC_TypeDef *)1073876992B].APB1ENR
 104:../2-filas/Me.h ****    TIM3->CR1 = 0x0000;
 605              		.loc 2 104 4 is_stmt 1 view .LVU145
 606              	@ ../2-filas/Me.h:104:    TIM3->CR1 = 0x0000;
 607              		.loc 2 104 14 is_stmt 0 view .LVU146
 608 01c2 0023     		movs	r3, #0	@ tmp121,
 609 01c4 A2F50332 		sub	r2, r2, #134144	@ tmp119, tmp119,
 610 01c8 1380     		strh	r3, [r2]	@ movhi	@ tmp121, MEM[(struct TIM_TypeDef *)1073742848B].CR1
 105:../2-filas/Me.h ****    //TIM3->ARR = 21699;
 106:../2-filas/Me.h ****    TIM3->ARR = 250-1; // 10µs
 611              		.loc 2 106 4 is_stmt 1 view .LVU147
 612              	@ ../2-filas/Me.h:106:    TIM3->ARR = 250-1; // 10µs
ARM GAS  /tmp/cc8bNYNB.s 			page 16


 613              		.loc 2 106 14 is_stmt 0 view .LVU148
 614 01ca F923     		movs	r3, #249	@ tmp124,
 615 01cc 9385     		strh	r3, [r2, #44]	@ movhi	@ tmp124, MEM[(struct TIM_TypeDef *)1073742848B].ARR
 107:../2-filas/Me.h ****    // para obter o período de 868µs
 108:../2-filas/Me.h **** /*https://www.vishay.com/docs/80071/dataform.pdf PAG 2
 109:../2-filas/Me.h ****  * https://controllerstech.com/ir-remote-with-stm32/
 110:../2-filas/Me.h ****  * Per=(1+ARR)/Clock_system */
 111:../2-filas/Me.h ****    TIM3->CR1 |= 1<<0;
 616              		.loc 2 111 4 is_stmt 1 view .LVU149
 617              	@ ../2-filas/Me.h:111:    TIM3->CR1 |= 1<<0;
 618              		.loc 2 111 14 is_stmt 0 view .LVU150
 619 01ce 1388     		ldrh	r3, [r2]	@, MEM[(struct TIM_TypeDef *)1073742848B].CR1
 620 01d0 9BB2     		uxth	r3, r3	@ _3, MEM[(struct TIM_TypeDef *)1073742848B].CR1
 621 01d2 43F00103 		orr	r3, r3, #1	@ _4, _3,
 622 01d6 1380     		strh	r3, [r2]	@ movhi	@ _4, MEM[(struct TIM_TypeDef *)1073742848B].CR1
 623              	@ ../2-filas/Me.h:112: }
 112:../2-filas/Me.h **** }
 624              		.loc 2 112 1 view .LVU151
 625 01d8 7047     		bx	lr	@
 626              	.L39:
 627 01da 00BF     		.align	2
 628              	.L38:
 629 01dc 00100240 		.word	1073876992
 630              		.cfi_endproc
 631              	.LFE32:
 632              		.size	enable_TIM3_delay, .-enable_TIM3_delay
 633              		.align	1
 634              		.global	enable_interrupt
 635              		.syntax unified
 636              		.thumb
 637              		.thumb_func
 638              		.type	enable_interrupt, %function
 639              	enable_interrupt:
 640              	.LVL8:
 641              	.LFB33:
 113:../2-filas/Me.h **** 
 114:../2-filas/Me.h **** void enable_interrupt(IRQn_Type IRQn)
 115:../2-filas/Me.h **** {
 642              		.loc 2 115 1 is_stmt 1 view -0
 643              		.cfi_startproc
 644              		@ args = 0, pretend = 0, frame = 0
 645              		@ frame_needed = 0, uses_anonymous_args = 0
 646              		@ link register save eliminated.
 116:../2-filas/Me.h ****    NVIC->ISER[((uint32_t)(IRQn) >> 5)] = (1 << ((uint32_t)(IRQn) & 0x1F));
 647              		.loc 2 116 4 view .LVU153
 648              	@ ../2-filas/Me.h:116:    NVIC->ISER[((uint32_t)(IRQn) >> 5)] = (1 << ((uint32_t)(IRQn) & 0x1F));
 649              		.loc 2 116 45 is_stmt 0 view .LVU154
 650 01e0 0123     		movs	r3, #1	@ tmp124,
 651              	@ ../2-filas/Me.h:116:    NVIC->ISER[((uint32_t)(IRQn) >> 5)] = (1 << ((uint32_t)(IRQn) & 0x1F));
 652              		.loc 2 116 33 view .LVU155
 653 01e2 4209     		lsrs	r2, r0, #5	@ _6, IRQn,
 654              	@ ../2-filas/Me.h:116:    NVIC->ISER[((uint32_t)(IRQn) >> 5)] = (1 << ((uint32_t)(IRQn) & 0x1F));
 655              		.loc 2 116 66 view .LVU156
 656 01e4 00F01F00 		and	r0, r0, #31	@ tmp123, IRQn,
 657              	.LVL9:
 658              	@ ../2-filas/Me.h:116:    NVIC->ISER[((uint32_t)(IRQn) >> 5)] = (1 << ((uint32_t)(IRQn) & 0x1F));
 659              		.loc 2 116 45 view .LVU157
ARM GAS  /tmp/cc8bNYNB.s 			page 17


 660 01e8 03FA00F0 		lsl	r0, r3, r0	@ _7, tmp124, tmp123
 661              	@ ../2-filas/Me.h:116:    NVIC->ISER[((uint32_t)(IRQn) >> 5)] = (1 << ((uint32_t)(IRQn) & 0x1F));
 662              		.loc 2 116 40 view .LVU158
 663 01ec 014B     		ldr	r3, .L41	@ tmp125,
 664 01ee 43F82200 		str	r0, [r3, r2, lsl #2]	@ _7, MEM[(struct NVIC_Type *)3758153984B].ISER[_6]
 665              	@ ../2-filas/Me.h:117: }  
 117:../2-filas/Me.h **** }  
 666              		.loc 2 117 1 view .LVU159
 667 01f2 7047     		bx	lr	@
 668              	.L42:
 669              		.align	2
 670              	.L41:
 671 01f4 00E100E0 		.word	-536813312
 672              		.cfi_endproc
 673              	.LFE33:
 674              		.size	enable_interrupt, .-enable_interrupt
 675              		.align	1
 676              		.global	disable_interrupt
 677              		.syntax unified
 678              		.thumb
 679              		.thumb_func
 680              		.type	disable_interrupt, %function
 681              	disable_interrupt:
 682              	.LVL10:
 683              	.LFB34:
 118:../2-filas/Me.h ****    
 119:../2-filas/Me.h **** /* 
 120:../2-filas/Me.h ****  * Disable given interrupt
 121:../2-filas/Me.h ****  */
 122:../2-filas/Me.h **** void disable_interrupt(IRQn_Type IRQn)
 123:../2-filas/Me.h **** {
 684              		.loc 2 123 1 is_stmt 1 view -0
 685              		.cfi_startproc
 686              		@ args = 0, pretend = 0, frame = 0
 687              		@ frame_needed = 0, uses_anonymous_args = 0
 688              		@ link register save eliminated.
 124:../2-filas/Me.h ****    NVIC->ICER[((uint32_t)(IRQn) >> 5)] = (1 << ((uint32_t)(IRQn) & 0x1F));
 689              		.loc 2 124 4 view .LVU161
 690              	@ ../2-filas/Me.h:124:    NVIC->ICER[((uint32_t)(IRQn) >> 5)] = (1 << ((uint32_t)(IRQn) & 0x1F));
 691              		.loc 2 124 45 is_stmt 0 view .LVU162
 692 01f8 0122     		movs	r2, #1	@ tmp124,
 693              	@ ../2-filas/Me.h:124:    NVIC->ICER[((uint32_t)(IRQn) >> 5)] = (1 << ((uint32_t)(IRQn) & 0x1F));
 694              		.loc 2 124 33 view .LVU163
 695 01fa 4309     		lsrs	r3, r0, #5	@ _6, IRQn,
 696              	@ ../2-filas/Me.h:124:    NVIC->ICER[((uint32_t)(IRQn) >> 5)] = (1 << ((uint32_t)(IRQn) & 0x1F));
 697              		.loc 2 124 66 view .LVU164
 698 01fc 00F01F00 		and	r0, r0, #31	@ tmp123, IRQn,
 699              	.LVL11:
 700              	@ ../2-filas/Me.h:124:    NVIC->ICER[((uint32_t)(IRQn) >> 5)] = (1 << ((uint32_t)(IRQn) & 0x1F));
 701              		.loc 2 124 45 view .LVU165
 702 0200 02FA00F0 		lsl	r0, r2, r0	@ _7, tmp124, tmp123
 703              	@ ../2-filas/Me.h:124:    NVIC->ICER[((uint32_t)(IRQn) >> 5)] = (1 << ((uint32_t)(IRQn) & 0x1F));
 704              		.loc 2 124 40 view .LVU166
 705 0204 024A     		ldr	r2, .L44	@ tmp125,
 706 0206 2033     		adds	r3, r3, #32	@ tmp126, _6,
 707 0208 42F82300 		str	r0, [r2, r3, lsl #2]	@ _7, MEM[(struct NVIC_Type *)3758153984B].ICER[_6]
 708              	@ ../2-filas/Me.h:125: }
ARM GAS  /tmp/cc8bNYNB.s 			page 18


 125:../2-filas/Me.h **** }
 709              		.loc 2 125 1 view .LVU167
 710 020c 7047     		bx	lr	@
 711              	.L45:
 712 020e 00BF     		.align	2
 713              	.L44:
 714 0210 00E100E0 		.word	-536813312
 715              		.cfi_endproc
 716              	.LFE34:
 717              		.size	disable_interrupt, .-disable_interrupt
 718              		.align	1
 719              		.global	intToStr
 720              		.syntax unified
 721              		.thumb
 722              		.thumb_func
 723              		.type	intToStr, %function
 724              	intToStr:
 725              	.LVL12:
 726              	.LFB36:
 126:../2-filas/Me.h **** 
 127:../2-filas/Me.h **** void floatToString(float num, char *str, int precision) {
 128:../2-filas/Me.h ****     // Lida com números negativos
 129:../2-filas/Me.h ****     if (num < 0) {
 130:../2-filas/Me.h ****         num = -num;
 131:../2-filas/Me.h ****         *str++ = '-';
 132:../2-filas/Me.h ****     }
 133:../2-filas/Me.h **** 
 134:../2-filas/Me.h ****     // Extrai a parte inteira do número
 135:../2-filas/Me.h ****     int inteira = (int)num;
 136:../2-filas/Me.h ****     intToStr(inteira, str);
 137:../2-filas/Me.h ****     while (*str != '\0') {
 138:../2-filas/Me.h ****         str++;
 139:../2-filas/Me.h ****     }
 140:../2-filas/Me.h **** 
 141:../2-filas/Me.h ****     // Adiciona o ponto decimal
 142:../2-filas/Me.h ****     *str++ = '.';
 143:../2-filas/Me.h **** 
 144:../2-filas/Me.h ****     // Calcula e adiciona a parte fracionária
 145:../2-filas/Me.h ****     float fracionaria = num - inteira;
 146:../2-filas/Me.h ****     for (int i = 0; i < precision; i++) {
 147:../2-filas/Me.h ****         fracionaria *= 10;
 148:../2-filas/Me.h ****         int digito = (int)fracionaria;
 149:../2-filas/Me.h ****         *str++ = '0' + digito;
 150:../2-filas/Me.h ****         fracionaria -= digito;
 151:../2-filas/Me.h ****     }
 152:../2-filas/Me.h **** 
 153:../2-filas/Me.h ****     // Adiciona o terminador nulo
 154:../2-filas/Me.h ****     *str = '\0';
 155:../2-filas/Me.h **** }
 156:../2-filas/Me.h **** 
 157:../2-filas/Me.h **** void intToStr(int num, char *str) {
 727              		.loc 2 157 35 is_stmt 1 view -0
 728              		.cfi_startproc
 729              		@ args = 0, pretend = 0, frame = 0
 730              		@ frame_needed = 0, uses_anonymous_args = 0
 158:../2-filas/Me.h ****     // Converte um número inteiro para uma string
 159:../2-filas/Me.h ****     if (num == 0) {
ARM GAS  /tmp/cc8bNYNB.s 			page 19


 731              		.loc 2 159 5 view .LVU169
 732              	@ ../2-filas/Me.h:157: void intToStr(int num, char *str) {
 157:../2-filas/Me.h ****     // Converte um número inteiro para uma string
 733              		.loc 2 157 35 is_stmt 0 view .LVU170
 734 0214 10B5     		push	{r4, lr}	@
 735              	.LCFI5:
 736              		.cfi_def_cfa_offset 8
 737              		.cfi_offset 4, -8
 738              		.cfi_offset 14, -4
 739              	@ ../2-filas/Me.h:159:     if (num == 0) {
 740              		.loc 2 159 8 view .LVU171
 741 0216 B8B9     		cbnz	r0, .L52	@ num,
 160:../2-filas/Me.h ****         *str++ = '0';
 742              		.loc 2 160 9 is_stmt 1 view .LVU172
 743              	.LVL13:
 744              	@ ../2-filas/Me.h:160:         *str++ = '0';
 745              		.loc 2 160 16 is_stmt 0 view .LVU173
 746 0218 3023     		movs	r3, #48	@ tmp122,
 747              	@ ../2-filas/Me.h:161:         *str = '\0';
 161:../2-filas/Me.h ****         *str = '\0';
 748              		.loc 2 161 14 view .LVU174
 749 021a 4870     		strb	r0, [r1, #1]	@ num, MEM[(char *)str_6(D) + 1B]
 750              	@ ../2-filas/Me.h:160:         *str++ = '0';
 160:../2-filas/Me.h ****         *str++ = '0';
 751              		.loc 2 160 16 view .LVU175
 752 021c 0B70     		strb	r3, [r1]	@ tmp122, *str_6(D)
 753              		.loc 2 161 9 is_stmt 1 view .LVU176
 162:../2-filas/Me.h ****         return;
 754              		.loc 2 162 9 view .LVU177
 755              	.LVL14:
 756              	.L46:
 757              	@ ../2-filas/Me.h:180: }
 163:../2-filas/Me.h ****     }
 164:../2-filas/Me.h **** 
 165:../2-filas/Me.h ****     int len = 0;
 166:../2-filas/Me.h ****     int temp = num;
 167:../2-filas/Me.h ****     while (temp > 0) {
 168:../2-filas/Me.h ****         temp /= 10;
 169:../2-filas/Me.h ****         len++;
 170:../2-filas/Me.h ****     }
 171:../2-filas/Me.h **** 
 172:../2-filas/Me.h ****     str += len;
 173:../2-filas/Me.h ****     *str = '\0';
 174:../2-filas/Me.h **** 
 175:../2-filas/Me.h ****     while (num > 0) {
 176:../2-filas/Me.h ****         int digito = num % 10;
 177:../2-filas/Me.h ****         *(--str) = '0' + digito;
 178:../2-filas/Me.h ****         num /= 10;
 179:../2-filas/Me.h ****     }
 180:../2-filas/Me.h **** }
 758              		.loc 2 180 1 is_stmt 0 view .LVU178
 759 021e 10BD     		pop	{r4, pc}	@
 760              	.LVL15:
 761              	.L49:
 762              	.LBB6:
 763              	.LBB7:
 168:../2-filas/Me.h ****         len++;
ARM GAS  /tmp/cc8bNYNB.s 			page 20


 764              		.loc 2 168 9 is_stmt 1 view .LVU179
 765              	@ ../2-filas/Me.h:168:         temp /= 10;
 168:../2-filas/Me.h ****         len++;
 766              		.loc 2 168 14 is_stmt 0 view .LVU180
 767 0220 92FBF4F2 		sdiv	r2, r2, r4	@ temp, temp, tmp147
 768              	.LVL16:
 169:../2-filas/Me.h ****     }
 769              		.loc 2 169 9 is_stmt 1 view .LVU181
 770              	@ ../2-filas/Me.h:169:         len++;
 169:../2-filas/Me.h ****     }
 771              		.loc 2 169 12 is_stmt 0 view .LVU182
 772 0224 0133     		adds	r3, r3, #1	@ len, len,
 773              	.LVL17:
 774              	.L47:
 167:../2-filas/Me.h ****         temp /= 10;
 775              		.loc 2 167 11 is_stmt 1 view .LVU183
 776 0226 002A     		cmp	r2, #0	@ temp,
 777 0228 FADC     		bgt	.L49		@,
 172:../2-filas/Me.h ****     *str = '\0';
 778              		.loc 2 172 5 view .LVU184
 779              	@ ../2-filas/Me.h:173:     *str = '\0';
 173:../2-filas/Me.h **** 
 780              		.loc 2 173 10 is_stmt 0 view .LVU185
 781 022a 0024     		movs	r4, #0	@ tmp129,
 782              	@ ../2-filas/Me.h:172:     str += len;
 172:../2-filas/Me.h ****     *str = '\0';
 783              		.loc 2 172 9 view .LVU186
 784 022c CA18     		adds	r2, r1, r3	@ str, str, len
 785              	.LVL18:
 173:../2-filas/Me.h **** 
 786              		.loc 2 173 5 is_stmt 1 view .LVU187
 787              	@ ../2-filas/Me.h:173:     *str = '\0';
 173:../2-filas/Me.h **** 
 788              		.loc 2 173 10 is_stmt 0 view .LVU188
 789 022e CC54     		strb	r4, [r1, r3]	@ tmp129, *str_16
 175:../2-filas/Me.h ****         int digito = num % 10;
 790              		.loc 2 175 5 is_stmt 1 view .LVU189
 791              	.LBB8:
 792              	@ ../2-filas/Me.h:176:         int digito = num % 10;
 176:../2-filas/Me.h ****         *(--str) = '0' + digito;
 793              		.loc 2 176 13 is_stmt 0 view .LVU190
 794 0230 0A23     		movs	r3, #10	@ tmp146,
 795              	.LVL19:
 796              	.L50:
 176:../2-filas/Me.h ****         *(--str) = '0' + digito;
 797              		.loc 2 176 13 view .LVU191
 798              	.LBE8:
 175:../2-filas/Me.h ****         int digito = num % 10;
 799              		.loc 2 175 11 is_stmt 1 view .LVU192
 800 0232 0028     		cmp	r0, #0	@ num,
 801 0234 F3DD     		ble	.L46		@,
 802              	.LBB9:
 176:../2-filas/Me.h ****         *(--str) = '0' + digito;
 803              		.loc 2 176 9 view .LVU193
 804              	.LVL20:
 177:../2-filas/Me.h ****         num /= 10;
 805              		.loc 2 177 9 view .LVU194
ARM GAS  /tmp/cc8bNYNB.s 			page 21


 806              	@ ../2-filas/Me.h:176:         int digito = num % 10;
 176:../2-filas/Me.h ****         *(--str) = '0' + digito;
 807              		.loc 2 176 13 is_stmt 0 view .LVU195
 808 0236 90FBF3F1 		sdiv	r1, r0, r3	@ tmp135, num, tmp146
 809 023a 03FB1100 		mls	r0, r3, r1, r0	@ digito, tmp146, tmp135, num
 810              	.LVL21:
 811              	@ ../2-filas/Me.h:177:         *(--str) = '0' + digito;
 177:../2-filas/Me.h ****         num /= 10;
 812              		.loc 2 177 24 view .LVU196
 813 023e 3030     		adds	r0, r0, #48	@ tmp141, digito,
 814              	@ ../2-filas/Me.h:177:         *(--str) = '0' + digito;
 177:../2-filas/Me.h ****         num /= 10;
 815              		.loc 2 177 18 view .LVU197
 816 0240 02F8010D 		strb	r0, [r2, #-1]!	@ tmp141, MEM[base: str_21, offset: 0B]
 817              	.LVL22:
 178:../2-filas/Me.h ****     }
 818              		.loc 2 178 9 is_stmt 1 view .LVU198
 819              	@ ../2-filas/Me.h:178:         num /= 10;
 178:../2-filas/Me.h ****     }
 820              		.loc 2 178 13 is_stmt 0 view .LVU199
 821 0244 0846     		mov	r0, r1	@ num, tmp135
 822              	.LVL23:
 178:../2-filas/Me.h ****     }
 823              		.loc 2 178 13 view .LVU200
 824 0246 F4E7     		b	.L50		@
 825              	.LVL24:
 826              	.L52:
 178:../2-filas/Me.h ****     }
 827              		.loc 2 178 13 view .LVU201
 828              	.LBE9:
 829              	.LBE7:
 830              	.LBE6:
 831 0248 0246     		mov	r2, r0	@ temp, num
 832              	.LBB11:
 833              	.LBB10:
 834              	@ ../2-filas/Me.h:165:     int len = 0;
 165:../2-filas/Me.h ****     int temp = num;
 835              		.loc 2 165 9 view .LVU202
 836 024a 0023     		movs	r3, #0	@ len,
 837              	@ ../2-filas/Me.h:168:         temp /= 10;
 168:../2-filas/Me.h ****         len++;
 838              		.loc 2 168 14 view .LVU203
 839 024c 0A24     		movs	r4, #10	@ tmp147,
 840 024e EAE7     		b	.L47		@
 841              	.LBE10:
 842              	.LBE11:
 843              		.cfi_endproc
 844              	.LFE36:
 845              		.size	intToStr, .-intToStr
 846              		.global	__aeabi_fcmplt
 847              		.global	__aeabi_f2iz
 848              		.global	__aeabi_i2f
 849              		.global	__aeabi_fsub
 850              		.global	__aeabi_fmul
 851              		.align	1
 852              		.global	floatToString
 853              		.syntax unified
ARM GAS  /tmp/cc8bNYNB.s 			page 22


 854              		.thumb
 855              		.thumb_func
 856              		.type	floatToString, %function
 857              	floatToString:
 858              	.LVL25:
 859              	.LFB35:
 127:../2-filas/Me.h ****     // Lida com números negativos
 860              		.loc 2 127 57 is_stmt 1 view -0
 861              		.cfi_startproc
 862              		@ args = 0, pretend = 0, frame = 0
 863              		@ frame_needed = 0, uses_anonymous_args = 0
 129:../2-filas/Me.h ****         num = -num;
 864              		.loc 2 129 5 view .LVU205
 865              	@ ../2-filas/Me.h:127: void floatToString(float num, char *str, int precision) {
 127:../2-filas/Me.h ****     // Lida com números negativos
 866              		.loc 2 127 57 is_stmt 0 view .LVU206
 867 0250 2DE9F041 		push	{r4, r5, r6, r7, r8, lr}	@
 868              	.LCFI6:
 869              		.cfi_def_cfa_offset 24
 870              		.cfi_offset 4, -24
 871              		.cfi_offset 5, -20
 872              		.cfi_offset 6, -16
 873              		.cfi_offset 7, -12
 874              		.cfi_offset 8, -8
 875              		.cfi_offset 14, -4
 876              	@ ../2-filas/Me.h:127: void floatToString(float num, char *str, int precision) {
 127:../2-filas/Me.h ****     // Lida com números negativos
 877              		.loc 2 127 57 view .LVU207
 878 0254 0C46     		mov	r4, r1	@ str, tmp158
 879              	@ ../2-filas/Me.h:129:     if (num < 0) {
 129:../2-filas/Me.h ****         num = -num;
 880              		.loc 2 129 8 view .LVU208
 881 0256 0021     		movs	r1, #0	@,
 882              	.LVL26:
 883              	@ ../2-filas/Me.h:127: void floatToString(float num, char *str, int precision) {
 127:../2-filas/Me.h ****     // Lida com números negativos
 884              		.loc 2 127 57 view .LVU209
 885 0258 0546     		mov	r5, r0	@ num, tmp157
 886 025a 1646     		mov	r6, r2	@ precision, tmp159
 887              	@ ../2-filas/Me.h:129:     if (num < 0) {
 129:../2-filas/Me.h ****         num = -num;
 888              		.loc 2 129 8 view .LVU210
 889 025c FFF7FEFF 		bl	__aeabi_fcmplt		@
 890              	.LVL27:
 129:../2-filas/Me.h ****         num = -num;
 891              		.loc 2 129 8 view .LVU211
 892 0260 20B1     		cbz	r0, .L54	@ tmp160,
 130:../2-filas/Me.h ****         *str++ = '-';
 893              		.loc 2 130 9 is_stmt 1 view .LVU212
 894              	@ ../2-filas/Me.h:131:         *str++ = '-';
 131:../2-filas/Me.h ****     }
 895              		.loc 2 131 16 is_stmt 0 view .LVU213
 896 0262 2D23     		movs	r3, #45	@ tmp138,
 897              	@ ../2-filas/Me.h:130:         num = -num;
 130:../2-filas/Me.h ****         *str++ = '-';
 898              		.loc 2 130 13 view .LVU214
 899 0264 05F10045 		add	r5, r5, #-2147483648	@ tmp137, num,
ARM GAS  /tmp/cc8bNYNB.s 			page 23


 900              	.LVL28:
 131:../2-filas/Me.h ****     }
 901              		.loc 2 131 9 is_stmt 1 view .LVU215
 902              	@ ../2-filas/Me.h:131:         *str++ = '-';
 131:../2-filas/Me.h ****     }
 903              		.loc 2 131 16 is_stmt 0 view .LVU216
 904 0268 04F8013B 		strb	r3, [r4], #1	@ tmp138, *str_17(D)
 905              	.LVL29:
 906              	.L54:
 135:../2-filas/Me.h ****     intToStr(inteira, str);
 907              		.loc 2 135 5 is_stmt 1 view .LVU217
 908              	@ ../2-filas/Me.h:135:     int inteira = (int)num;
 135:../2-filas/Me.h ****     intToStr(inteira, str);
 909              		.loc 2 135 9 is_stmt 0 view .LVU218
 910 026c 2846     		mov	r0, r5	@, num
 911 026e FFF7FEFF 		bl	__aeabi_f2iz		@
 912              	.LVL30:
 913              	@ ../2-filas/Me.h:136:     intToStr(inteira, str);
 136:../2-filas/Me.h ****     while (*str != '\0') {
 914              		.loc 2 136 5 view .LVU219
 915 0272 2146     		mov	r1, r4	@, str
 916              	@ ../2-filas/Me.h:135:     int inteira = (int)num;
 135:../2-filas/Me.h ****     intToStr(inteira, str);
 917              		.loc 2 135 9 view .LVU220
 918 0274 0746     		mov	r7, r0	@ inteira, tmp161
 919              	.LVL31:
 136:../2-filas/Me.h ****     while (*str != '\0') {
 920              		.loc 2 136 5 is_stmt 1 view .LVU221
 921 0276 FFF7FEFF 		bl	intToStr		@
 922              	.LVL32:
 137:../2-filas/Me.h ****         str++;
 923              		.loc 2 137 5 view .LVU222
 924              	.L56:
 137:../2-filas/Me.h ****         str++;
 925              		.loc 2 137 11 view .LVU223
 926              	@ ../2-filas/Me.h:137:     while (*str != '\0') {
 137:../2-filas/Me.h ****         str++;
 927              		.loc 2 137 12 is_stmt 0 view .LVU224
 928 027a 2278     		ldrb	r2, [r4]	@ zero_extendqisi2	@ _1, MEM[base: str_10, offset: 0B]
 929 027c 2346     		mov	r3, r4	@ str, str
 930              	@ ../2-filas/Me.h:138:         str++;
 138:../2-filas/Me.h ****     }
 931              		.loc 2 138 12 view .LVU225
 932 027e 0134     		adds	r4, r4, #1	@ str, str,
 933              	.LVL33:
 934              	@ ../2-filas/Me.h:137:     while (*str != '\0') {
 137:../2-filas/Me.h ****         str++;
 935              		.loc 2 137 11 view .LVU226
 936 0280 002A     		cmp	r2, #0	@ _1
 937 0282 FAD1     		bne	.L56	@
 142:../2-filas/Me.h **** 
 938              		.loc 2 142 5 is_stmt 1 view .LVU227
 939              	.LVL34:
 940              	@ ../2-filas/Me.h:142:     *str++ = '.';
 142:../2-filas/Me.h **** 
 941              		.loc 2 142 12 is_stmt 0 view .LVU228
 942 0284 2E22     		movs	r2, #46	@ tmp141,
ARM GAS  /tmp/cc8bNYNB.s 			page 24


 943              	@ ../2-filas/Me.h:145:     float fracionaria = num - inteira;
 145:../2-filas/Me.h ****     for (int i = 0; i < precision; i++) {
 944              		.loc 2 145 29 view .LVU229
 945 0286 3846     		mov	r0, r7	@, inteira
 946              	@ ../2-filas/Me.h:142:     *str++ = '.';
 142:../2-filas/Me.h **** 
 947              		.loc 2 142 12 view .LVU230
 948 0288 1A70     		strb	r2, [r3]	@ tmp141, *str_20
 145:../2-filas/Me.h ****     for (int i = 0; i < precision; i++) {
 949              		.loc 2 145 5 is_stmt 1 view .LVU231
 950              	@ ../2-filas/Me.h:145:     float fracionaria = num - inteira;
 145:../2-filas/Me.h ****     for (int i = 0; i < precision; i++) {
 951              		.loc 2 145 29 is_stmt 0 view .LVU232
 952 028a FFF7FEFF 		bl	__aeabi_i2f		@
 953              	.LVL35:
 954 028e 0146     		mov	r1, r0	@ tmp162,
 955              	@ ../2-filas/Me.h:145:     float fracionaria = num - inteira;
 145:../2-filas/Me.h ****     for (int i = 0; i < precision; i++) {
 956              		.loc 2 145 11 view .LVU233
 957 0290 2846     		mov	r0, r5	@, num
 958 0292 FFF7FEFF 		bl	__aeabi_fsub		@
 959              	.LVL36:
 146:../2-filas/Me.h ****         fracionaria *= 10;
 960              		.loc 2 146 5 is_stmt 1 view .LVU234
 961              	.LBB12:
 146:../2-filas/Me.h ****         fracionaria *= 10;
 962              		.loc 2 146 10 view .LVU235
 146:../2-filas/Me.h ****         fracionaria *= 10;
 963              		.loc 2 146 10 is_stmt 0 view .LVU236
 964              	.LBE12:
 965              	@ ../2-filas/Me.h:138:         str++;
 138:../2-filas/Me.h ****     }
 966              		.loc 2 138 12 view .LVU237
 967 0296 2546     		mov	r5, r4	@ str, str
 968              	.LVL37:
 969              	.LBB15:
 970              	.LBB13:
 971              	@ ../2-filas/Me.h:147:         fracionaria *= 10;
 147:../2-filas/Me.h ****         int digito = (int)fracionaria;
 972              		.loc 2 147 21 view .LVU238
 973 0298 DFF83480 		ldr	r8, .L61	@ tmp156,
 974              	.LVL38:
 975              	.L57:
 147:../2-filas/Me.h ****         int digito = (int)fracionaria;
 976              		.loc 2 147 21 view .LVU239
 977              	.LBE13:
 146:../2-filas/Me.h ****         fracionaria *= 10;
 978              		.loc 2 146 21 is_stmt 1 discriminator 1 view .LVU240
 979              	@ ../2-filas/Me.h:146:     for (int i = 0; i < precision; i++) {
 146:../2-filas/Me.h ****         fracionaria *= 10;
 980              		.loc 2 146 5 is_stmt 0 discriminator 1 view .LVU241
 981 029c 2B1B     		subs	r3, r5, r4	@ i, str, str
 982              	.LVL39:
 146:../2-filas/Me.h ****         fracionaria *= 10;
 983              		.loc 2 146 5 discriminator 1 view .LVU242
 984 029e 9E42     		cmp	r6, r3	@ precision, i
 985 02a0 05DC     		bgt	.L58		@,
ARM GAS  /tmp/cc8bNYNB.s 			page 25


 146:../2-filas/Me.h ****         fracionaria *= 10;
 986              		.loc 2 146 5 discriminator 1 view .LVU243
 987              	.LBE15:
 154:../2-filas/Me.h **** }
 988              		.loc 2 154 5 is_stmt 1 view .LVU244
 989              	@ ../2-filas/Me.h:154:     *str = '\0';
 154:../2-filas/Me.h **** }
 990              		.loc 2 154 10 is_stmt 0 view .LVU245
 991 02a2 0023     		movs	r3, #0	@ tmp154,
 992              	.LVL40:
 154:../2-filas/Me.h **** }
 993              		.loc 2 154 10 view .LVU246
 994 02a4 26EAE676 		bic	r6, r6, r6, asr #31	@ tmp153, precision
 995              	.LVL41:
 154:../2-filas/Me.h **** }
 996              		.loc 2 154 10 view .LVU247
 997 02a8 A355     		strb	r3, [r4, r6]	@ tmp154, *str_35
 998              	@ ../2-filas/Me.h:155: }
 155:../2-filas/Me.h **** 
 999              		.loc 2 155 1 view .LVU248
 1000 02aa BDE8F081 		pop	{r4, r5, r6, r7, r8, pc}	@
 1001              	.LVL42:
 1002              	.L58:
 1003              	.LBB16:
 1004              	.LBB14:
 147:../2-filas/Me.h ****         int digito = (int)fracionaria;
 1005              		.loc 2 147 9 is_stmt 1 discriminator 3 view .LVU249
 1006              	@ ../2-filas/Me.h:147:         fracionaria *= 10;
 147:../2-filas/Me.h ****         int digito = (int)fracionaria;
 1007              		.loc 2 147 21 is_stmt 0 discriminator 3 view .LVU250
 1008 02ae 4146     		mov	r1, r8	@, tmp156
 1009 02b0 FFF7FEFF 		bl	__aeabi_fmul		@
 1010              	.LVL43:
 147:../2-filas/Me.h ****         int digito = (int)fracionaria;
 1011              		.loc 2 147 21 discriminator 3 view .LVU251
 1012 02b4 0746     		mov	r7, r0	@ tmp145, tmp164
 1013              	.LVL44:
 148:../2-filas/Me.h ****         *str++ = '0' + digito;
 1014              		.loc 2 148 9 is_stmt 1 discriminator 3 view .LVU252
 1015              	@ ../2-filas/Me.h:148:         int digito = (int)fracionaria;
 148:../2-filas/Me.h ****         *str++ = '0' + digito;
 1016              		.loc 2 148 13 is_stmt 0 discriminator 3 view .LVU253
 1017 02b6 FFF7FEFF 		bl	__aeabi_f2iz		@
 1018              	.LVL45:
 149:../2-filas/Me.h ****         fracionaria -= digito;
 1019              		.loc 2 149 9 is_stmt 1 discriminator 3 view .LVU254
 1020              	@ ../2-filas/Me.h:149:         *str++ = '0' + digito;
 149:../2-filas/Me.h ****         fracionaria -= digito;
 1021              		.loc 2 149 22 is_stmt 0 discriminator 3 view .LVU255
 1022 02ba 00F13003 		add	r3, r0, #48	@ tmp148, tmp165,
 1023              	@ ../2-filas/Me.h:149:         *str++ = '0' + digito;
 149:../2-filas/Me.h ****         fracionaria -= digito;
 1024              		.loc 2 149 16 discriminator 3 view .LVU256
 1025 02be 05F8013B 		strb	r3, [r5], #1	@ tmp148, MEM[base: str_31, offset: 4294967295B]
 1026              	.LVL46:
 150:../2-filas/Me.h ****     }
 1027              		.loc 2 150 9 is_stmt 1 discriminator 3 view .LVU257
ARM GAS  /tmp/cc8bNYNB.s 			page 26


 1028              	@ ../2-filas/Me.h:150:         fracionaria -= digito;
 150:../2-filas/Me.h ****     }
 1029              		.loc 2 150 21 is_stmt 0 discriminator 3 view .LVU258
 1030 02c2 FFF7FEFF 		bl	__aeabi_i2f		@
 1031              	.LVL47:
 150:../2-filas/Me.h ****     }
 1032              		.loc 2 150 21 discriminator 3 view .LVU259
 1033 02c6 0146     		mov	r1, r0	@ tmp166,
 1034 02c8 3846     		mov	r0, r7	@, tmp145
 1035 02ca FFF7FEFF 		bl	__aeabi_fsub		@
 1036              	.LVL48:
 1037              	.LBE14:
 146:../2-filas/Me.h ****         fracionaria *= 10;
 1038              		.loc 2 146 36 is_stmt 1 discriminator 3 view .LVU260
 146:../2-filas/Me.h ****         fracionaria *= 10;
 1039              		.loc 2 146 36 is_stmt 0 discriminator 3 view .LVU261
 1040 02ce E5E7     		b	.L57		@
 1041              	.L62:
 1042              		.align	2
 1043              	.L61:
 1044 02d0 00002041 		.word	1092616192
 1045              	.LBE16:
 1046              		.cfi_endproc
 1047              	.LFE35:
 1048              		.size	floatToString, .-floatToString
 1049              		.align	1
 1050              		.global	configure_PWM_TIM2
 1051              		.syntax unified
 1052              		.thumb
 1053              		.thumb_func
 1054              		.type	configure_PWM_TIM2, %function
 1055              	configure_PWM_TIM2:
 1056              	.LFB46:
  88:../2-filas/main.c **** 	}
  89:../2-filas/main.c **** }
  90:../2-filas/main.c **** 
  91:../2-filas/main.c **** 
  92:../2-filas/main.c **** 
  93:../2-filas/main.c **** /*
  94:../2-filas/main.c ****  * ----
  95:../2-filas/main.c ****  *  1 -> Usar uma tarefa para capturar dados e atuar no PWM
  96:../2-filas/main.c ****  *  (por enquanto tudo junto) e enviar para o buffer e
  97:../2-filas/main.c ****  *  mostrar a faixa do atual valor.
  98:../2-filas/main.c ****  *
  99:../2-filas/main.c ****  *  2 -> a tarefa receberá e mostrará com pouca precisão o
 100:../2-filas/main.c ****  *  valor do duty cicle atual via UART
 101:../2-filas/main.c ****  *
 102:../2-filas/main.c ****  * */
 103:../2-filas/main.c **** 
 104:../2-filas/main.c **** 
 105:../2-filas/main.c **** int main(void) {
 106:../2-filas/main.c **** 	xQueue = xQueueCreate(5 /* Tamanho máximo da fila. */,
 107:../2-filas/main.c **** 								sizeof(u32) /* Largura máxima da fila. */);
 108:../2-filas/main.c **** 
 109:../2-filas/main.c **** 	set_system_clock_to_72Mhz();
 110:../2-filas/main.c **** 
 111:../2-filas/main.c **** 	RCC->APB2ENR |= 0x7<<2 ; // Hab. GPIO A,B,C
ARM GAS  /tmp/cc8bNYNB.s 			page 27


 112:../2-filas/main.c **** 	GPIOC->CRH |= 0b11 << 20;
 113:../2-filas/main.c **** 
 114:../2-filas/main.c **** 	RCC->APB2ENR |= 0b1<<4 ;
 115:../2-filas/main.c **** 	GPIOC->CRH |= 0b11 << 20;
 116:../2-filas/main.c **** 
 117:../2-filas/main.c **** 	configure_PWM_TIM2();
 118:../2-filas/main.c **** 	 usart_init();
 119:../2-filas/main.c **** 
 120:../2-filas/main.c **** 	xTaskCreate(task1,"PWM_Control", 100 ,NULL, 4 ,NULL);
 121:../2-filas/main.c **** 	xTaskCreate(task2, "ADC_Read", 200 , NULL, 4 , NULL);
 122:../2-filas/main.c **** 	xTaskCreate(task3, "Led_C13", 100 , NULL, 4 , NULL);
 123:../2-filas/main.c **** 
 124:../2-filas/main.c **** 	vTaskStartScheduler(); // inicia o escalonador de
 125:../2-filas/main.c **** 								  // processos.
 126:../2-filas/main.c **** 	while(1);
 127:../2-filas/main.c **** 	return 0;
 128:../2-filas/main.c **** }
 129:../2-filas/main.c **** 
 130:../2-filas/main.c **** 
 131:../2-filas/main.c **** void configure_PWM_TIM2(){
 1057              		.loc 1 131 26 is_stmt 1 view -0
 1058              		.cfi_startproc
 1059              		@ args = 0, pretend = 0, frame = 0
 1060              		@ frame_needed = 0, uses_anonymous_args = 0
 1061              		@ link register save eliminated.
 132:../2-filas/main.c **** /* Configurado com o exemplo do datasheet pag "387 / 1136" */
 133:../2-filas/main.c **** 
 134:../2-filas/main.c ****    RCC->APB2ENR |= 0b101 << 0 ; /*Habilita o AFIO GPIOA */
 1062              		.loc 1 134 4 view .LVU263
 1063              	@ ../2-filas/main.c:134:    RCC->APB2ENR |= 0b101 << 0 ; /*Habilita o AFIO GPIOA */
 1064              		.loc 1 134 17 is_stmt 0 view .LVU264
 1065 02d4 284B     		ldr	r3, .L64	@ tmp141,
 1066 02d6 9A69     		ldr	r2, [r3, #24]	@ _1, MEM[(struct RCC_TypeDef *)1073876992B].APB2ENR
 1067 02d8 42F00502 		orr	r2, r2, #5	@ _2, _1,
 1068 02dc 9A61     		str	r2, [r3, #24]	@ _2, MEM[(struct RCC_TypeDef *)1073876992B].APB2ENR
 135:../2-filas/main.c ****    RCC->APB1ENR |= 1 << 0; /*Habilita o TIMER 2 - CH na GPIO_A */
 1069              		.loc 1 135 4 is_stmt 1 view .LVU265
 1070              	@ ../2-filas/main.c:135:    RCC->APB1ENR |= 1 << 0; /*Habilita o TIMER 2 - CH na GPIO_A */
 1071              		.loc 1 135 17 is_stmt 0 view .LVU266
 1072 02de DA69     		ldr	r2, [r3, #28]	@ _3, MEM[(struct RCC_TypeDef *)1073876992B].APB1ENR
 1073 02e0 42F00102 		orr	r2, r2, #1	@ _4, _3,
 1074 02e4 DA61     		str	r2, [r3, #28]	@ _4, MEM[(struct RCC_TypeDef *)1073876992B].APB1ENR
 136:../2-filas/main.c **** 
 137:../2-filas/main.c ****    GPIOA->CRL |= (0x0B << 0) ; /* AF O_PP pino PA0 */
 1075              		.loc 1 137 4 is_stmt 1 view .LVU267
 1076              	@ ../2-filas/main.c:137:    GPIOA->CRL |= (0x0B << 0) ; /* AF O_PP pino PA0 */
 1077              		.loc 1 137 15 is_stmt 0 view .LVU268
 1078 02e6 254A     		ldr	r2, .L64+4	@ tmp145,
 1079 02e8 1368     		ldr	r3, [r2]	@ _5, MEM[(struct GPIO_TypeDef *)1073809408B].CRL
 1080 02ea 43F00B03 		orr	r3, r3, #11	@ _6, _5,
 1081 02ee 1360     		str	r3, [r2]	@ _6, MEM[(struct GPIO_TypeDef *)1073809408B].CRL
 138:../2-filas/main.c **** 	AFIO->MAPR &= ~( 0b11 << 6);
 1082              		.loc 1 138 2 is_stmt 1 view .LVU269
 1083              	@ ../2-filas/main.c:138: 	AFIO->MAPR &= ~( 0b11 << 6);
 1084              		.loc 1 138 13 is_stmt 0 view .LVU270
 1085 02f0 234B     		ldr	r3, .L64+8	@ tmp147,
 1086 02f2 5A68     		ldr	r2, [r3, #4]	@ _7, MEM[(struct AFIO_TypeDef *)1073807360B].MAPR
ARM GAS  /tmp/cc8bNYNB.s 			page 28


 1087 02f4 22F0C002 		bic	r2, r2, #192	@ _8, _7,
 1088 02f8 5A60     		str	r2, [r3, #4]	@ _8, MEM[(struct AFIO_TypeDef *)1073807360B].MAPR
 139:../2-filas/main.c ****    AFIO->MAPR &= ~( 0b11 << 8); /* [bit 26:24] SWJ_CFG [nota_2]
 1089              		.loc 1 139 4 is_stmt 1 view .LVU271
 1090              	@ ../2-filas/main.c:139:    AFIO->MAPR &= ~( 0b11 << 8); /* [bit 26:24] SWJ_CFG [nota_2]
 1091              		.loc 1 139 15 is_stmt 0 view .LVU272
 1092 02fa 5A68     		ldr	r2, [r3, #4]	@ _9, MEM[(struct AFIO_TypeDef *)1073807360B].MAPR
 1093 02fc 22F44072 		bic	r2, r2, #768	@ _10, _9,
 1094 0300 5A60     		str	r2, [r3, #4]	@ _10, MEM[(struct AFIO_TypeDef *)1073807360B].MAPR
 140:../2-filas/main.c ****                  [bit 8] TIM3_REMAP[1:0]: TIM2 remapping [nota_3]*/ 
 141:../2-filas/main.c **** 
 142:../2-filas/main.c **** 	TIM2->CCMR1 |= 0b110 << 4; /*Bits 6:4 OC1M: Output compare 1 mode
 1095              		.loc 1 142 2 is_stmt 1 view .LVU273
 1096              	@ ../2-filas/main.c:142: 	TIM2->CCMR1 |= 0b110 << 4; /*Bits 6:4 OC1M: Output compare 1 mode
 1097              		.loc 1 142 14 is_stmt 0 view .LVU274
 1098 0302 4FF08043 		mov	r3, #1073741824	@ tmp151,
 1099 0306 1A8B     		ldrh	r2, [r3, #24]	@, MEM[(struct TIM_TypeDef *)1073741824B].CCMR1
 1100 0308 92B2     		uxth	r2, r2	@ _11, MEM[(struct TIM_TypeDef *)1073741824B].CCMR1
 1101 030a 42F06002 		orr	r2, r2, #96	@ _12, _11,
 1102 030e 1A83     		strh	r2, [r3, #24]	@ movhi	@ _12, MEM[(struct TIM_TypeDef *)1073741824B].CCMR1
 143:../2-filas/main.c ****                                   110: PWM mode 1 */
 144:../2-filas/main.c ****    TIM2->CCMR1 |= 1UL << 3; /* Bit 3 OC1PE: Output compare 1 preload enable**/
 1103              		.loc 1 144 4 is_stmt 1 view .LVU275
 1104              	@ ../2-filas/main.c:144:    TIM2->CCMR1 |= 1UL << 3; /* Bit 3 OC1PE: Output compare 1 preload enabl
 1105              		.loc 1 144 16 is_stmt 0 view .LVU276
 1106 0310 1A8B     		ldrh	r2, [r3, #24]	@, MEM[(struct TIM_TypeDef *)1073741824B].CCMR1
 1107 0312 92B2     		uxth	r2, r2	@ _13, MEM[(struct TIM_TypeDef *)1073741824B].CCMR1
 1108 0314 42F00802 		orr	r2, r2, #8	@ _14, _13,
 1109 0318 1A83     		strh	r2, [r3, #24]	@ movhi	@ _14, MEM[(struct TIM_TypeDef *)1073741824B].CCMR1
 145:../2-filas/main.c **** 
 146:../2-filas/main.c **** 
 147:../2-filas/main.c ****    TIM2->PSC = 709; /* 249;  25/250 - 1 => 0.1KHz  */
 1110              		.loc 1 147 4 is_stmt 1 view .LVU277
 1111              	@ ../2-filas/main.c:147:    TIM2->PSC = 709; /* 249;  25/250 - 1 => 0.1KHz  */
 1112              		.loc 1 147 14 is_stmt 0 view .LVU278
 1113 031a 40F2C522 		movw	r2, #709	@ tmp165,
 1114 031e 1A85     		strh	r2, [r3, #40]	@ movhi	@ tmp165, MEM[(struct TIM_TypeDef *)1073741824B].PSC
 148:../2-filas/main.c ****    TIM2->ARR = 999; /* PWM period = (999 + 1) * 100KHz = 0.01 */
 1115              		.loc 1 148 4 is_stmt 1 view .LVU279
 1116              	@ ../2-filas/main.c:148:    TIM2->ARR = 999; /* PWM period = (999 + 1) * 100KHz = 0.01 */
 1117              		.loc 1 148 14 is_stmt 0 view .LVU280
 1118 0320 40F2E732 		movw	r2, #999	@ tmp168,
 1119 0324 9A85     		strh	r2, [r3, #44]	@ movhi	@ tmp168, MEM[(struct TIM_TypeDef *)1073741824B].ARR
 149:../2-filas/main.c ****    TIM2->CR1 &= ~(1<<4);
 1120              		.loc 1 149 4 is_stmt 1 view .LVU281
 1121              	@ ../2-filas/main.c:149:    TIM2->CR1 &= ~(1<<4);
 1122              		.loc 1 149 14 is_stmt 0 view .LVU282
 1123 0326 1A88     		ldrh	r2, [r3]	@, MEM[(struct TIM_TypeDef *)1073741824B].CR1
 1124 0328 22F01002 		bic	r2, r2, #16	@ _16, MEM[(struct TIM_TypeDef *)1073741824B].CR1,
 1125 032c 1204     		lsls	r2, r2, #16	@ _16, _16,
 1126 032e 120C     		lsrs	r2, r2, #16	@ _16, _16,
 1127 0330 1A80     		strh	r2, [r3]	@ movhi	@ _16, MEM[(struct TIM_TypeDef *)1073741824B].CR1
 150:../2-filas/main.c ****    TIM2->CR1 |= 1<<7;/*Bit 7 ARPE: Auto-reload preload enable */
 1128              		.loc 1 150 4 is_stmt 1 view .LVU283
 1129              	@ ../2-filas/main.c:150:    TIM2->CR1 |= 1<<7;/*Bit 7 ARPE: Auto-reload preload enable */
 1130              		.loc 1 150 14 is_stmt 0 view .LVU284
 1131 0332 1A88     		ldrh	r2, [r3]	@, MEM[(struct TIM_TypeDef *)1073741824B].CR1
ARM GAS  /tmp/cc8bNYNB.s 			page 29


 1132 0334 92B2     		uxth	r2, r2	@ _17, MEM[(struct TIM_TypeDef *)1073741824B].CR1
 1133 0336 42F08002 		orr	r2, r2, #128	@ _18, _17,
 1134 033a 1A80     		strh	r2, [r3]	@ movhi	@ _18, MEM[(struct TIM_TypeDef *)1073741824B].CR1
 151:../2-filas/main.c ****    TIM2->CCMR1 |= 1UL << 3; /* Bit 3 OC1PE: Output compare 1 preload enable - ---- CONSEGUIIIIIII *
 1135              		.loc 1 151 4 is_stmt 1 view .LVU285
 1136              	@ ../2-filas/main.c:151:    TIM2->CCMR1 |= 1UL << 3; /* Bit 3 OC1PE: Output compare 1 preload enabl
 1137              		.loc 1 151 16 is_stmt 0 view .LVU286
 1138 033c 1A8B     		ldrh	r2, [r3, #24]	@, MEM[(struct TIM_TypeDef *)1073741824B].CCMR1
 1139 033e 92B2     		uxth	r2, r2	@ _19, MEM[(struct TIM_TypeDef *)1073741824B].CCMR1
 1140 0340 42F00802 		orr	r2, r2, #8	@ _20, _19,
 1141 0344 1A83     		strh	r2, [r3, #24]	@ movhi	@ _20, MEM[(struct TIM_TypeDef *)1073741824B].CCMR1
 152:../2-filas/main.c ****    TIM2->EGR |=1<<0;
 1142              		.loc 1 152 4 is_stmt 1 view .LVU287
 1143              	@ ../2-filas/main.c:152:    TIM2->EGR |=1<<0;
 1144              		.loc 1 152 14 is_stmt 0 view .LVU288
 1145 0346 9A8A     		ldrh	r2, [r3, #20]	@, MEM[(struct TIM_TypeDef *)1073741824B].EGR
 1146 0348 92B2     		uxth	r2, r2	@ _21, MEM[(struct TIM_TypeDef *)1073741824B].EGR
 1147 034a 42F00102 		orr	r2, r2, #1	@ _22, _21,
 1148 034e 9A82     		strh	r2, [r3, #20]	@ movhi	@ _22, MEM[(struct TIM_TypeDef *)1073741824B].EGR
 153:../2-filas/main.c **** 
 154:../2-filas/main.c ****    TIM2->CCER |= 1<<0; /*Bit 0 CC1E: Capture/Compare 1 output enable*/
 1149              		.loc 1 154 4 is_stmt 1 view .LVU289
 1150              	@ ../2-filas/main.c:154:    TIM2->CCER |= 1<<0; /*Bit 0 CC1E: Capture/Compare 1 output enable*/
 1151              		.loc 1 154 15 is_stmt 0 view .LVU290
 1152 0350 1A8C     		ldrh	r2, [r3, #32]	@, MEM[(struct TIM_TypeDef *)1073741824B].CCER
 1153 0352 92B2     		uxth	r2, r2	@ _23, MEM[(struct TIM_TypeDef *)1073741824B].CCER
 1154 0354 42F00102 		orr	r2, r2, #1	@ _24, _23,
 1155 0358 1A84     		strh	r2, [r3, #32]	@ movhi	@ _24, MEM[(struct TIM_TypeDef *)1073741824B].CCER
 155:../2-filas/main.c ****    TIM2->CCER &= ~(1<<1); /*Bit 1 CC1P: Capture/Compare 1 output polarity
 1156              		.loc 1 155 4 is_stmt 1 view .LVU291
 1157              	@ ../2-filas/main.c:155:    TIM2->CCER &= ~(1<<1); /*Bit 1 CC1P: Capture/Compare 1 output polarity
 1158              		.loc 1 155 15 is_stmt 0 view .LVU292
 1159 035a 1A8C     		ldrh	r2, [r3, #32]	@, MEM[(struct TIM_TypeDef *)1073741824B].CCER
 1160 035c 22F00202 		bic	r2, r2, #2	@ _26, MEM[(struct TIM_TypeDef *)1073741824B].CCER,
 1161 0360 1204     		lsls	r2, r2, #16	@ _26, _26,
 1162 0362 120C     		lsrs	r2, r2, #16	@ _26, _26,
 1163 0364 1A84     		strh	r2, [r3, #32]	@ movhi	@ _26, MEM[(struct TIM_TypeDef *)1073741824B].CCER
 156:../2-filas/main.c ****                             0: OC1 active high. */
 157:../2-filas/main.c **** 
 158:../2-filas/main.c ****    TIM2->CR1 |= 1<<0; //Habilita o clock
 1164              		.loc 1 158 4 is_stmt 1 view .LVU293
 1165              	@ ../2-filas/main.c:158:    TIM2->CR1 |= 1<<0; //Habilita o clock
 1166              		.loc 1 158 14 is_stmt 0 view .LVU294
 1167 0366 1A88     		ldrh	r2, [r3]	@, MEM[(struct TIM_TypeDef *)1073741824B].CR1
 1168 0368 92B2     		uxth	r2, r2	@ _27, MEM[(struct TIM_TypeDef *)1073741824B].CR1
 1169 036a 42F00102 		orr	r2, r2, #1	@ _28, _27,
 1170 036e 1A80     		strh	r2, [r3]	@ movhi	@ _28, MEM[(struct TIM_TypeDef *)1073741824B].CR1
 159:../2-filas/main.c ****    TIM2->CCR1 = 00;
 1171              		.loc 1 159 4 is_stmt 1 view .LVU295
 1172              	@ ../2-filas/main.c:159:    TIM2->CCR1 = 00;
 1173              		.loc 1 159 15 is_stmt 0 view .LVU296
 1174 0370 0022     		movs	r2, #0	@ tmp210,
 1175 0372 9A86     		strh	r2, [r3, #52]	@ movhi	@ tmp210, MEM[(struct TIM_TypeDef *)1073741824B].CCR1
 1176              	@ ../2-filas/main.c:160: }
 160:../2-filas/main.c **** }
 1177              		.loc 1 160 1 view .LVU297
 1178 0374 7047     		bx	lr	@
ARM GAS  /tmp/cc8bNYNB.s 			page 30


 1179              	.L65:
 1180 0376 00BF     		.align	2
 1181              	.L64:
 1182 0378 00100240 		.word	1073876992
 1183 037c 00080140 		.word	1073809408
 1184 0380 00000140 		.word	1073807360
 1185              		.cfi_endproc
 1186              	.LFE46:
 1187              		.size	configure_PWM_TIM2, .-configure_PWM_TIM2
 1188              		.align	1
 1189              		.global	usart_init
 1190              		.syntax unified
 1191              		.thumb
 1192              		.thumb_func
 1193              		.type	usart_init, %function
 1194              	usart_init:
 1195              	.LFB47:
 161:../2-filas/main.c **** 
 162:../2-filas/main.c **** 
 163:../2-filas/main.c **** void usart_init(void) {
 1196              		.loc 1 163 23 is_stmt 1 view -0
 1197              		.cfi_startproc
 1198              		@ args = 0, pretend = 0, frame = 24
 1199              		@ frame_needed = 0, uses_anonymous_args = 0
 164:../2-filas/main.c **** 	/* Enable USART1 and GPIOA clock */
 165:../2-filas/main.c **** 	RCC_APB2PeriphClockCmd(RCC_APB2Periph_USART1 | RCC_APB2Periph_GPIOA, ENABLE);
 1200              		.loc 1 165 2 view .LVU299
 1201              	@ ../2-filas/main.c:163: void usart_init(void) {
 163:../2-filas/main.c **** 	/* Enable USART1 and GPIOA clock */
 1202              		.loc 1 163 23 is_stmt 0 view .LVU300
 1203 0384 10B5     		push	{r4, lr}	@
 1204              	.LCFI7:
 1205              		.cfi_def_cfa_offset 8
 1206              		.cfi_offset 4, -8
 1207              		.cfi_offset 14, -4
 1208              	@ ../2-filas/main.c:165: 	RCC_APB2PeriphClockCmd(RCC_APB2Periph_USART1 | RCC_APB2Periph_GPIOA, ENAB
 1209              		.loc 1 165 2 view .LVU301
 1210 0386 0121     		movs	r1, #1	@,
 1211              	@ ../2-filas/main.c:163: void usart_init(void) {
 163:../2-filas/main.c **** 	/* Enable USART1 and GPIOA clock */
 1212              		.loc 1 163 23 view .LVU302
 1213 0388 86B0     		sub	sp, sp, #24	@,,
 1214              	.LCFI8:
 1215              		.cfi_def_cfa_offset 32
 1216              	@ ../2-filas/main.c:165: 	RCC_APB2PeriphClockCmd(RCC_APB2Periph_USART1 | RCC_APB2Periph_GPIOA, ENAB
 1217              		.loc 1 165 2 view .LVU303
 1218 038a 44F20400 		movw	r0, #16388	@,
 1219 038e FFF7FEFF 		bl	RCC_APB2PeriphClockCmd		@
 1220              	.LVL49:
 166:../2-filas/main.c **** 
 167:../2-filas/main.c **** 	/* Configure the GPIOs */
 168:../2-filas/main.c **** 	//GPIO_Configuration();
 169:../2-filas/main.c **** 	GPIO_InitTypeDef GPIO_InitStructure;
 1221              		.loc 1 169 2 is_stmt 1 view .LVU304
 170:../2-filas/main.c **** 
 171:../2-filas/main.c **** 	/* Configure USART1 Tx (PA.09) as alternate function push-pull */
 172:../2-filas/main.c **** 	GPIO_InitStructure.GPIO_Pin = GPIO_Pin_9;
ARM GAS  /tmp/cc8bNYNB.s 			page 31


 1222              		.loc 1 172 2 view .LVU305
 173:../2-filas/main.c **** 	GPIO_InitStructure.GPIO_Mode = GPIO_Mode_AF_PP;
 1223              		.loc 1 173 2 view .LVU306
 174:../2-filas/main.c **** 	GPIO_InitStructure.GPIO_Speed = GPIO_Speed_50MHz;
 1224              		.loc 1 174 2 view .LVU307
 1225              	@ ../2-filas/main.c:172: 	GPIO_InitStructure.GPIO_Pin = GPIO_Pin_9;
 172:../2-filas/main.c **** 	GPIO_InitStructure.GPIO_Mode = GPIO_Mode_AF_PP;
 1226              		.loc 1 172 30 is_stmt 0 view .LVU308
 1227 0392 4FF40073 		mov	r3, #512	@ tmp114,
 1228 0396 ADF80430 		strh	r3, [sp, #4]	@ movhi	@ tmp114, GPIO_InitStructure.GPIO_Pin
 1229              	@ ../2-filas/main.c:174: 	GPIO_InitStructure.GPIO_Speed = GPIO_Speed_50MHz;
 1230              		.loc 1 174 32 view .LVU309
 1231 039a 41F60303 		movw	r3, #6147	@ tmp116,
 1232              	@ ../2-filas/main.c:175: 	GPIO_Init(GPIOA, &GPIO_InitStructure);
 175:../2-filas/main.c **** 	GPIO_Init(GPIOA, &GPIO_InitStructure);
 1233              		.loc 1 175 2 view .LVU310
 1234 039e 144C     		ldr	r4, .L67	@ tmp118,
 1235 03a0 01A9     		add	r1, sp, #4	@ tmp134,,
 1236 03a2 2046     		mov	r0, r4	@, tmp118
 1237              	@ ../2-filas/main.c:174: 	GPIO_InitStructure.GPIO_Speed = GPIO_Speed_50MHz;
 174:../2-filas/main.c **** 	GPIO_InitStructure.GPIO_Speed = GPIO_Speed_50MHz;
 1238              		.loc 1 174 32 view .LVU311
 1239 03a4 ADF80630 		strh	r3, [sp, #6]	@ movhi	@ tmp116, MEM <unsigned short> [(void *)&GPIO_InitStructure + 2B]
 1240              		.loc 1 175 2 is_stmt 1 view .LVU312
 1241 03a8 FFF7FEFF 		bl	GPIO_Init		@
 1242              	.LVL50:
 176:../2-filas/main.c **** 
 177:../2-filas/main.c **** 	/* Configure USART1 Rx (PA.10) as input floating */
 178:../2-filas/main.c **** 	GPIO_InitStructure.GPIO_Pin = GPIO_Pin_10;
 1243              		.loc 1 178 2 view .LVU313
 1244              	@ ../2-filas/main.c:178: 	GPIO_InitStructure.GPIO_Pin = GPIO_Pin_10;
 1245              		.loc 1 178 30 is_stmt 0 view .LVU314
 1246 03ac 4FF48063 		mov	r3, #1024	@ tmp120,
 1247 03b0 ADF80430 		strh	r3, [sp, #4]	@ movhi	@ tmp120, GPIO_InitStructure.GPIO_Pin
 179:../2-filas/main.c **** 	GPIO_InitStructure.GPIO_Mode = GPIO_Mode_IN_FLOATING;
 1248              		.loc 1 179 2 is_stmt 1 view .LVU315
 1249              	@ ../2-filas/main.c:179: 	GPIO_InitStructure.GPIO_Mode = GPIO_Mode_IN_FLOATING;
 1250              		.loc 1 179 31 is_stmt 0 view .LVU316
 1251 03b4 0423     		movs	r3, #4	@ tmp121,
 1252              	@ ../2-filas/main.c:180: 	GPIO_Init(GPIOA, &GPIO_InitStructure);
 180:../2-filas/main.c **** 	GPIO_Init(GPIOA, &GPIO_InitStructure);
 1253              		.loc 1 180 2 view .LVU317
 1254 03b6 2046     		mov	r0, r4	@, tmp118
 1255 03b8 0DEB0301 		add	r1, sp, r3	@ tmp135,,
 1256              	@ ../2-filas/main.c:179: 	GPIO_InitStructure.GPIO_Mode = GPIO_Mode_IN_FLOATING;
 179:../2-filas/main.c **** 	GPIO_InitStructure.GPIO_Mode = GPIO_Mode_IN_FLOATING;
 1257              		.loc 1 179 31 view .LVU318
 1258 03bc 8DF80730 		strb	r3, [sp, #7]	@ tmp121, GPIO_InitStructure.GPIO_Mode
 1259              		.loc 1 180 2 is_stmt 1 view .LVU319
 1260 03c0 FFF7FEFF 		bl	GPIO_Init		@
 1261              	.LVL51:
 181:../2-filas/main.c **** 
 182:../2-filas/main.c **** 	/* Configure the USART1 */
 183:../2-filas/main.c **** 	//USART_Configuration();
 184:../2-filas/main.c **** 	USART_InitTypeDef USART_InitStructure;
 1262              		.loc 1 184 2 view .LVU320
 185:../2-filas/main.c **** 
ARM GAS  /tmp/cc8bNYNB.s 			page 32


 186:../2-filas/main.c **** 	/* USART1 configuration ------------------------------------------------------*/
 187:../2-filas/main.c **** 	/* USART1 configured as follow:
 188:../2-filas/main.c **** 	          - BaudRate = 115200 baud
 189:../2-filas/main.c **** 	          - Word Length = 8 Bits
 190:../2-filas/main.c **** 	          - One Stop Bit
 191:../2-filas/main.c **** 	          - No parity
 192:../2-filas/main.c **** 	          - Hardware flow control disabled (RTS and CTS signals)
 193:../2-filas/main.c **** 	          - Receive and transmit enabled
 194:../2-filas/main.c **** 	          - USART Clock disabled
 195:../2-filas/main.c **** 	          - USART CPOL: Clock is active low
 196:../2-filas/main.c **** 	          - USART CPHA: Data is captured on the middle
 197:../2-filas/main.c **** 	          - USART LastBit: The clock pulse of the last data bit is not output to
 198:../2-filas/main.c **** 	                           the SCLK pin
 199:../2-filas/main.c **** 	 */
 200:../2-filas/main.c **** 	USART_InitStructure.USART_BaudRate = 115200;
 1263              		.loc 1 200 2 view .LVU321
 201:../2-filas/main.c **** 	USART_InitStructure.USART_WordLength = USART_WordLength_8b;
 1264              		.loc 1 201 2 view .LVU322
 202:../2-filas/main.c **** 	USART_InitStructure.USART_StopBits = USART_StopBits_1;
 1265              		.loc 1 202 2 view .LVU323
 203:../2-filas/main.c **** 	USART_InitStructure.USART_Parity = USART_Parity_No;
 1266              		.loc 1 203 2 view .LVU324
 204:../2-filas/main.c **** 	USART_InitStructure.USART_HardwareFlowControl = USART_HardwareFlowControl_None;
 1267              		.loc 1 204 2 view .LVU325
 205:../2-filas/main.c **** 	USART_InitStructure.USART_Mode = USART_Mode_Rx | USART_Mode_Tx;
 1268              		.loc 1 205 2 view .LVU326
 1269              	@ ../2-filas/main.c:201: 	USART_InitStructure.USART_WordLength = USART_WordLength_8b;
 201:../2-filas/main.c **** 	USART_InitStructure.USART_StopBits = USART_StopBits_1;
 1270              		.loc 1 201 39 is_stmt 0 view .LVU327
 1271 03c4 0023     		movs	r3, #0	@ tmp126,
 1272 03c6 4FF4E132 		mov	r2, #115200	@,
 1273 03ca CDE90223 		strd	r2, r3, [sp, #8]	@, tmp126,,
 1274              	@ ../2-filas/main.c:203: 	USART_InitStructure.USART_Parity = USART_Parity_No;
 203:../2-filas/main.c **** 	USART_InitStructure.USART_HardwareFlowControl = USART_HardwareFlowControl_None;
 1275              		.loc 1 203 35 view .LVU328
 1276 03ce 4FF44022 		mov	r2, #786432	@ tmp127,
 1277              	@ ../2-filas/main.c:207: 	USART_Init(USART1, &USART_InitStructure);
 206:../2-filas/main.c **** 
 207:../2-filas/main.c **** 	USART_Init(USART1, &USART_InitStructure);
 1278              		.loc 1 207 2 view .LVU329
 1279 03d2 04F54054 		add	r4, r4, #12288	@ tmp131, tmp131,
 1280 03d6 2046     		mov	r0, r4	@, tmp131
 1281 03d8 02A9     		add	r1, sp, #8	@,,
 1282              	@ ../2-filas/main.c:203: 	USART_InitStructure.USART_Parity = USART_Parity_No;
 203:../2-filas/main.c **** 	USART_InitStructure.USART_HardwareFlowControl = USART_HardwareFlowControl_None;
 1283              		.loc 1 203 35 view .LVU330
 1284 03da 0492     		str	r2, [sp, #16]	@ tmp127, MEM <unsigned int> [(short unsigned int *)&USART_InitStructure + 8B]
 1285              	@ ../2-filas/main.c:204: 	USART_InitStructure.USART_HardwareFlowControl = USART_HardwareFlowControl
 204:../2-filas/main.c **** 	USART_InitStructure.USART_Mode = USART_Mode_Rx | USART_Mode_Tx;
 1286              		.loc 1 204 48 view .LVU331
 1287 03dc ADF81430 		strh	r3, [sp, #20]	@ movhi	@ tmp126, USART_InitStructure.USART_HardwareFlowControl
 1288              		.loc 1 207 2 is_stmt 1 view .LVU332
 1289 03e0 FFF7FEFF 		bl	USART_Init		@
 1290              	.LVL52:
 208:../2-filas/main.c **** 
 209:../2-filas/main.c **** 	/* Enable USART1 */
 210:../2-filas/main.c **** 	USART_Cmd(USART1, ENABLE);
ARM GAS  /tmp/cc8bNYNB.s 			page 33


 1291              		.loc 1 210 2 view .LVU333
 1292 03e4 0121     		movs	r1, #1	@,
 1293 03e6 2046     		mov	r0, r4	@, tmp131
 1294 03e8 FFF7FEFF 		bl	USART_Cmd		@
 1295              	.LVL53:
 1296              	@ ../2-filas/main.c:215: }
 211:../2-filas/main.c **** 
 212:../2-filas/main.c **** 	/* Enable the USART1 Receive interrupt: this interrupt is generated when the
 213:../2-filas/main.c **** 		USART1 receive data register is not empty */
 214:../2-filas/main.c **** 	//USART_ITConfig(USART1, USART_IT_RXNE, ENABLE);
 215:../2-filas/main.c **** }
 1297              		.loc 1 215 1 is_stmt 0 view .LVU334
 1298 03ec 06B0     		add	sp, sp, #24	@,,
 1299              	.LCFI9:
 1300              		.cfi_def_cfa_offset 8
 1301              		@ sp needed	@
 1302 03ee 10BD     		pop	{r4, pc}	@
 1303              	.L68:
 1304              		.align	2
 1305              	.L67:
 1306 03f0 00080140 		.word	1073809408
 1307              		.cfi_endproc
 1308              	.LFE47:
 1309              		.size	usart_init, .-usart_init
 1310              		.section	.rodata.str1.1,"aMS",%progbits,1
 1311              	.LC0:
 1312 0000 50574D5F 		.ascii	"PWM_Control\000"
 1312      436F6E74 
 1312      726F6C00 
 1313              	.LC1:
 1314 000c 4144435F 		.ascii	"ADC_Read\000"
 1314      52656164 
 1314      00
 1315              	.LC2:
 1316 0015 4C65645F 		.ascii	"Led_C13\000"
 1316      43313300 
 1317              		.section	.text.startup,"ax",%progbits
 1318              		.align	1
 1319              		.global	main
 1320              		.syntax unified
 1321              		.thumb
 1322              		.thumb_func
 1323              		.type	main, %function
 1324              	main:
 1325              	.LFB45:
 105:../2-filas/main.c **** 	xQueue = xQueueCreate(5 /* Tamanho máximo da fila. */,
 1326              		.loc 1 105 16 is_stmt 1 view -0
 1327              		.cfi_startproc
 1328              		@ Volatile: function does not return.
 1329              		@ args = 0, pretend = 0, frame = 0
 1330              		@ frame_needed = 0, uses_anonymous_args = 0
 106:../2-filas/main.c **** 								sizeof(u32) /* Largura máxima da fila. */);
 1331              		.loc 1 106 2 view .LVU336
 1332              	@ ../2-filas/main.c:105: int main(void) {
 105:../2-filas/main.c **** 	xQueue = xQueueCreate(5 /* Tamanho máximo da fila. */,
 1333              		.loc 1 105 16 is_stmt 0 view .LVU337
 1334 0000 07B5     		push	{r0, r1, r2, lr}	@
ARM GAS  /tmp/cc8bNYNB.s 			page 34


 1335              	.LCFI10:
 1336              		.cfi_def_cfa_offset 16
 1337              		.cfi_offset 14, -4
 1338              	@ ../2-filas/main.c:106: 	xQueue = xQueueCreate(5 /* Tamanho máximo da fila. */,
 106:../2-filas/main.c **** 								sizeof(u32) /* Largura máxima da fila. */);
 1339              		.loc 1 106 11 view .LVU338
 1340 0002 0022     		movs	r2, #0	@,
 1341 0004 0421     		movs	r1, #4	@,
 1342 0006 0520     		movs	r0, #5	@,
 1343 0008 FFF7FEFF 		bl	xQueueGenericCreate		@
 1344              	.LVL54:
 1345              	@ ../2-filas/main.c:120: 	xTaskCreate(task1,"PWM_Control", 100 ,NULL, 4 ,NULL);
 120:../2-filas/main.c **** 	xTaskCreate(task2, "ADC_Read", 200 , NULL, 4 , NULL);
 1346              		.loc 1 120 2 view .LVU339
 1347 000c 0024     		movs	r4, #0	@ tmp134,
 1348 000e 0425     		movs	r5, #4	@ tmp135,
 1349              	@ ../2-filas/main.c:106: 	xQueue = xQueueCreate(5 /* Tamanho máximo da fila. */,
 106:../2-filas/main.c **** 								sizeof(u32) /* Largura máxima da fila. */);
 1350              		.loc 1 106 9 view .LVU340
 1351 0010 1A4B     		ldr	r3, .L71	@ tmp123,
 1352 0012 1860     		str	r0, [r3]	@ tmp144, xQueue
 109:../2-filas/main.c **** 
 1353              		.loc 1 109 2 is_stmt 1 view .LVU341
 1354 0014 FFF7FEFF 		bl	set_system_clock_to_72Mhz		@
 1355              	.LVL55:
 111:../2-filas/main.c **** 	GPIOC->CRH |= 0b11 << 20;
 1356              		.loc 1 111 2 view .LVU342
 1357              	@ ../2-filas/main.c:111: 	RCC->APB2ENR |= 0x7<<2 ; // Hab. GPIO A,B,C
 111:../2-filas/main.c **** 	GPIOC->CRH |= 0b11 << 20;
 1358              		.loc 1 111 15 is_stmt 0 view .LVU343
 1359 0018 194A     		ldr	r2, .L71+4	@ tmp124,
 1360 001a 9369     		ldr	r3, [r2, #24]	@ _2, MEM[(struct RCC_TypeDef *)1073876992B].APB2ENR
 1361 001c 43F01C03 		orr	r3, r3, #28	@ _3, _2,
 1362 0020 9361     		str	r3, [r2, #24]	@ _3, MEM[(struct RCC_TypeDef *)1073876992B].APB2ENR
 112:../2-filas/main.c **** 
 1363              		.loc 1 112 2 is_stmt 1 view .LVU344
 1364              	@ ../2-filas/main.c:112: 	GPIOC->CRH |= 0b11 << 20;
 112:../2-filas/main.c **** 
 1365              		.loc 1 112 13 is_stmt 0 view .LVU345
 1366 0022 184B     		ldr	r3, .L71+8	@ tmp126,
 1367 0024 5968     		ldr	r1, [r3, #4]	@ _4, MEM[(struct GPIO_TypeDef *)1073811456B].CRH
 1368 0026 41F44011 		orr	r1, r1, #3145728	@ _5, _4,
 1369 002a 5960     		str	r1, [r3, #4]	@ _5, MEM[(struct GPIO_TypeDef *)1073811456B].CRH
 114:../2-filas/main.c **** 	GPIOC->CRH |= 0b11 << 20;
 1370              		.loc 1 114 2 is_stmt 1 view .LVU346
 1371              	@ ../2-filas/main.c:114: 	RCC->APB2ENR |= 0b1<<4 ;
 114:../2-filas/main.c **** 	GPIOC->CRH |= 0b11 << 20;
 1372              		.loc 1 114 15 is_stmt 0 view .LVU347
 1373 002c 9169     		ldr	r1, [r2, #24]	@ _6, MEM[(struct RCC_TypeDef *)1073876992B].APB2ENR
 1374 002e 41F01001 		orr	r1, r1, #16	@ _7, _6,
 1375 0032 9161     		str	r1, [r2, #24]	@ _7, MEM[(struct RCC_TypeDef *)1073876992B].APB2ENR
 115:../2-filas/main.c **** 
 1376              		.loc 1 115 2 is_stmt 1 view .LVU348
 1377              	@ ../2-filas/main.c:115: 	GPIOC->CRH |= 0b11 << 20;
 115:../2-filas/main.c **** 
 1378              		.loc 1 115 13 is_stmt 0 view .LVU349
 1379 0034 5A68     		ldr	r2, [r3, #4]	@ _8, MEM[(struct GPIO_TypeDef *)1073811456B].CRH
ARM GAS  /tmp/cc8bNYNB.s 			page 35


 1380 0036 42F44012 		orr	r2, r2, #3145728	@ _9, _8,
 1381 003a 5A60     		str	r2, [r3, #4]	@ _9, MEM[(struct GPIO_TypeDef *)1073811456B].CRH
 117:../2-filas/main.c **** 	 usart_init();
 1382              		.loc 1 117 2 is_stmt 1 view .LVU350
 1383 003c FFF7FEFF 		bl	configure_PWM_TIM2		@
 1384              	.LVL56:
 118:../2-filas/main.c **** 
 1385              		.loc 1 118 3 view .LVU351
 1386 0040 FFF7FEFF 		bl	usart_init		@
 1387              	.LVL57:
 120:../2-filas/main.c **** 	xTaskCreate(task2, "ADC_Read", 200 , NULL, 4 , NULL);
 1388              		.loc 1 120 2 view .LVU352
 1389 0044 2346     		mov	r3, r4	@, tmp134
 1390 0046 6422     		movs	r2, #100	@,
 1391 0048 0F49     		ldr	r1, .L71+12	@,
 1392 004a CDE90054 		strd	r5, r4, [sp]	@ tmp135, tmp134,
 1393 004e 0F48     		ldr	r0, .L71+16	@,
 1394 0050 FFF7FEFF 		bl	xTaskCreate		@
 1395              	.LVL58:
 121:../2-filas/main.c **** 	xTaskCreate(task3, "Led_C13", 100 , NULL, 4 , NULL);
 1396              		.loc 1 121 2 view .LVU353
 1397 0054 2346     		mov	r3, r4	@, tmp134
 1398 0056 C822     		movs	r2, #200	@,
 1399 0058 0D49     		ldr	r1, .L71+20	@,
 1400 005a CDE90054 		strd	r5, r4, [sp]	@ tmp135, tmp134,
 1401 005e 0D48     		ldr	r0, .L71+24	@,
 1402 0060 FFF7FEFF 		bl	xTaskCreate		@
 1403              	.LVL59:
 122:../2-filas/main.c **** 
 1404              		.loc 1 122 2 view .LVU354
 1405 0064 2346     		mov	r3, r4	@, tmp134
 1406 0066 6422     		movs	r2, #100	@,
 1407 0068 0B49     		ldr	r1, .L71+28	@,
 1408 006a CDE90054 		strd	r5, r4, [sp]	@ tmp135, tmp134,
 1409 006e 0B48     		ldr	r0, .L71+32	@,
 1410 0070 FFF7FEFF 		bl	xTaskCreate		@
 1411              	.LVL60:
 124:../2-filas/main.c **** 								  // processos.
 1412              		.loc 1 124 2 view .LVU355
 1413 0074 FFF7FEFF 		bl	vTaskStartScheduler		@
 1414              	.LVL61:
 1415              	.L70:
 126:../2-filas/main.c **** 	return 0;
 1416              		.loc 1 126 2 discriminator 1 view .LVU356
 126:../2-filas/main.c **** 	return 0;
 1417              		.loc 1 126 10 discriminator 1 view .LVU357
 126:../2-filas/main.c **** 	return 0;
 1418              		.loc 1 126 7 discriminator 1 view .LVU358
 1419 0078 FEE7     		b	.L70		@
 1420              	.L72:
 1421 007a 00BF     		.align	2
 1422              	.L71:
 1423 007c 00000000 		.word	.LANCHOR0
 1424 0080 00100240 		.word	1073876992
 1425 0084 00100140 		.word	1073811456
 1426 0088 00000000 		.word	.LC0
 1427 008c 00000000 		.word	task1
ARM GAS  /tmp/cc8bNYNB.s 			page 36


 1428 0090 0C000000 		.word	.LC1
 1429 0094 00000000 		.word	task2
 1430 0098 15000000 		.word	.LC2
 1431 009c 00000000 		.word	task3
 1432              		.cfi_endproc
 1433              	.LFE45:
 1434              		.size	main, .-main
 1435              		.text
 1436              		.align	1
 1437              		.global	USARTSend
 1438              		.syntax unified
 1439              		.thumb
 1440              		.thumb_func
 1441              		.type	USARTSend, %function
 1442              	USARTSend:
 1443              	.LVL62:
 1444              	.LFB48:
 216:../2-filas/main.c **** 
 217:../2-filas/main.c **** void USARTSend(char *pucBuffer) {
 1445              		.loc 1 217 33 view -0
 1446              		.cfi_startproc
 1447              		@ args = 0, pretend = 0, frame = 0
 1448              		@ frame_needed = 0, uses_anonymous_args = 0
 218:../2-filas/main.c ****     while (*pucBuffer)
 1449              		.loc 1 218 5 view .LVU360
 1450              	@ ../2-filas/main.c:217: void USARTSend(char *pucBuffer) {
 217:../2-filas/main.c ****     while (*pucBuffer)
 1451              		.loc 1 217 33 is_stmt 0 view .LVU361
 1452 03f4 38B5     		push	{r3, r4, r5, lr}	@
 1453              	.LCFI11:
 1454              		.cfi_def_cfa_offset 16
 1455              		.cfi_offset 3, -16
 1456              		.cfi_offset 4, -12
 1457              		.cfi_offset 5, -8
 1458              		.cfi_offset 14, -4
 1459              	@ ../2-filas/main.c:220:         USART_SendData(USART1, *pucBuffer++);
 219:../2-filas/main.c ****     {
 220:../2-filas/main.c ****         USART_SendData(USART1, *pucBuffer++);
 1460              		.loc 1 220 9 view .LVU362
 1461 03f6 084D     		ldr	r5, .L79	@ tmp126,
 1462 03f8 441E     		subs	r4, r0, #1	@ ivtmp.106, tmp128,
 1463              	.LVL63:
 1464              	.L74:
 218:../2-filas/main.c ****     {
 1465              		.loc 1 218 11 is_stmt 1 view .LVU363
 1466              	@ ../2-filas/main.c:218:     while (*pucBuffer)
 218:../2-filas/main.c ****     {
 1467              		.loc 1 218 12 is_stmt 0 view .LVU364
 1468 03fa 14F8011F 		ldrb	r1, [r4, #1]!	@ zero_extendqisi2	@ _3, MEM[base: _16, offset: 0B]
 1469              	.LVL64:
 1470              	@ ../2-filas/main.c:218:     while (*pucBuffer)
 218:../2-filas/main.c ****     {
 1471              		.loc 1 218 11 view .LVU365
 1472 03fe 01B9     		cbnz	r1, .L76	@ _3,
 1473              	@ ../2-filas/main.c:225: }
 221:../2-filas/main.c ****         while(USART_GetFlagStatus(USART1, USART_FLAG_TC) == RESET)
 222:../2-filas/main.c ****         {
ARM GAS  /tmp/cc8bNYNB.s 			page 37


 223:../2-filas/main.c ****         }
 224:../2-filas/main.c ****     }
 225:../2-filas/main.c **** }
 1474              		.loc 1 225 1 view .LVU366
 1475 0400 38BD     		pop	{r3, r4, r5, pc}	@
 1476              	.LVL65:
 1477              	.L76:
 220:../2-filas/main.c ****         while(USART_GetFlagStatus(USART1, USART_FLAG_TC) == RESET)
 1478              		.loc 1 220 9 is_stmt 1 view .LVU367
 220:../2-filas/main.c ****         while(USART_GetFlagStatus(USART1, USART_FLAG_TC) == RESET)
 1479              		.loc 1 220 9 is_stmt 0 view .LVU368
 1480 0402 2846     		mov	r0, r5	@, tmp126
 1481 0404 FFF7FEFF 		bl	USART_SendData		@
 1482              	.LVL66:
 221:../2-filas/main.c ****         while(USART_GetFlagStatus(USART1, USART_FLAG_TC) == RESET)
 1483              		.loc 1 221 9 is_stmt 1 view .LVU369
 1484              	.L75:
 223:../2-filas/main.c ****     }
 1485              		.loc 1 223 9 discriminator 1 view .LVU370
 221:../2-filas/main.c ****         while(USART_GetFlagStatus(USART1, USART_FLAG_TC) == RESET)
 1486              		.loc 1 221 14 discriminator 1 view .LVU371
 1487              	@ ../2-filas/main.c:221:         while(USART_GetFlagStatus(USART1, USART_FLAG_TC) == RESET)
 221:../2-filas/main.c ****         while(USART_GetFlagStatus(USART1, USART_FLAG_TC) == RESET)
 1488              		.loc 1 221 15 is_stmt 0 discriminator 1 view .LVU372
 1489 0408 4021     		movs	r1, #64	@,
 1490 040a 2846     		mov	r0, r5	@, tmp126
 1491 040c FFF7FEFF 		bl	USART_GetFlagStatus		@
 1492              	.LVL67:
 1493              	@ ../2-filas/main.c:221:         while(USART_GetFlagStatus(USART1, USART_FLAG_TC) == RESET)
 221:../2-filas/main.c ****         while(USART_GetFlagStatus(USART1, USART_FLAG_TC) == RESET)
 1494              		.loc 1 221 14 discriminator 1 view .LVU373
 1495 0410 0028     		cmp	r0, #0	@ tmp129
 1496 0412 F9D0     		beq	.L75	@
 1497 0414 F1E7     		b	.L74		@
 1498              	.L80:
 1499 0416 00BF     		.align	2
 1500              	.L79:
 1501 0418 00380140 		.word	1073821696
 1502              		.cfi_endproc
 1503              	.LFE48:
 1504              		.size	USARTSend, .-USARTSend
 1505              		.global	__aeabi_ui2f
 1506              		.global	__aeabi_fdiv
 1507              		.section	.rodata.str1.1
 1508              	.LC3:
 1509 001d 25290D0A 		.ascii	"%)\015\012Valor de Duty Cicle= (\000"
 1509      56616C6F 
 1509      72206465 
 1509      20447574 
 1509      79204369 
 1510              		.text
 1511              		.align	1
 1512              		.syntax unified
 1513              		.thumb
 1514              		.thumb_func
 1515              		.type	task2, %function
 1516              	task2:
ARM GAS  /tmp/cc8bNYNB.s 			page 38


 1517              	.LVL68:
 1518              	.LFB43:
  68:../2-filas/main.c **** 	u16 dd; 
 1519              		.loc 1 68 53 is_stmt 1 view -0
 1520              		.cfi_startproc
 1521              		@ Volatile: function does not return.
 1522              		@ args = 0, pretend = 0, frame = 16
 1523              		@ frame_needed = 0, uses_anonymous_args = 0
  68:../2-filas/main.c **** 	u16 dd; 
 1524              		.loc 1 68 53 is_stmt 0 view .LVU375
 1525 041c 1FB5     		push	{r0, r1, r2, r3, r4, lr}	@
 1526              	.LCFI12:
 1527              		.cfi_def_cfa_offset 24
 1528              		.cfi_offset 14, -4
 1529              	@ ../2-filas/main.c:73: 		if(xQueueReceive(xQueue, &dd, pdMS_TO_TICKS(10))){
  73:../2-filas/main.c **** 			floatToString((float) dd/con *100, info, 4); 
 1530              		.loc 1 73 6 view .LVU376
 1531 041e 104E     		ldr	r6, .L86	@ tmp121,
 1532              	@ ../2-filas/main.c:74: 			floatToString((float) dd/con *100, info, 4); 
  74:../2-filas/main.c **** 			USARTSend("%)\r\nValor de Duty Cicle= (");
 1533              		.loc 1 74 28 view .LVU377
 1534 0420 104D     		ldr	r5, .L86+4	@ tmp130,
 1535              	@ ../2-filas/main.c:74: 			floatToString((float) dd/con *100, info, 4); 
  74:../2-filas/main.c **** 			USARTSend("%)\r\nValor de Duty Cicle= (");
 1536              		.loc 1 74 4 view .LVU378
 1537 0422 114C     		ldr	r4, .L86+8	@ tmp131,
 1538              	.LVL69:
 1539              	.L82:
  69:../2-filas/main.c **** 	char info[10] ;
 1540              		.loc 1 69 2 is_stmt 1 view .LVU379
  70:../2-filas/main.c **** 
 1541              		.loc 1 70 2 view .LVU380
  72:../2-filas/main.c **** 		if(xQueueReceive(xQueue, &dd, pdMS_TO_TICKS(10))){
 1542              		.loc 1 72 2 view .LVU381
  73:../2-filas/main.c **** 			floatToString((float) dd/con *100, info, 4); 
 1543              		.loc 1 73 3 view .LVU382
 1544              	@ ../2-filas/main.c:73: 		if(xQueueReceive(xQueue, &dd, pdMS_TO_TICKS(10))){
  73:../2-filas/main.c **** 			floatToString((float) dd/con *100, info, 4); 
 1545              		.loc 1 73 6 is_stmt 0 view .LVU383
 1546 0424 0A22     		movs	r2, #10	@,
 1547 0426 3068     		ldr	r0, [r6]	@, xQueue
 1548 0428 0DF10201 		add	r1, sp, #2	@ tmp134,,
 1549 042c FFF7FEFF 		bl	xQueueReceive		@
 1550              	.LVL70:
 1551              	@ ../2-filas/main.c:73: 		if(xQueueReceive(xQueue, &dd, pdMS_TO_TICKS(10))){
  73:../2-filas/main.c **** 			floatToString((float) dd/con *100, info, 4); 
 1552              		.loc 1 73 5 view .LVU384
 1553 0430 0028     		cmp	r0, #0	@ tmp132
 1554 0432 F7D0     		beq	.L82	@
  74:../2-filas/main.c **** 			USARTSend("%)\r\nValor de Duty Cicle= (");
 1555              		.loc 1 74 4 is_stmt 1 view .LVU385
 1556              	@ ../2-filas/main.c:74: 			floatToString((float) dd/con *100, info, 4); 
  74:../2-filas/main.c **** 			USARTSend("%)\r\nValor de Duty Cicle= (");
 1557              		.loc 1 74 18 is_stmt 0 view .LVU386
 1558 0434 BDF80200 		ldrh	r0, [sp, #2]	@, dd
 1559 0438 FFF7FEFF 		bl	__aeabi_ui2f		@
 1560              	.LVL71:
ARM GAS  /tmp/cc8bNYNB.s 			page 39


 1561              	@ ../2-filas/main.c:74: 			floatToString((float) dd/con *100, info, 4); 
  74:../2-filas/main.c **** 			USARTSend("%)\r\nValor de Duty Cicle= (");
 1562              		.loc 1 74 28 view .LVU387
 1563 043c 2946     		mov	r1, r5	@, tmp130
 1564 043e FFF7FEFF 		bl	__aeabi_fdiv		@
 1565              	.LVL72:
 1566              	@ ../2-filas/main.c:74: 			floatToString((float) dd/con *100, info, 4); 
  74:../2-filas/main.c **** 			USARTSend("%)\r\nValor de Duty Cicle= (");
 1567              		.loc 1 74 4 view .LVU388
 1568 0442 2146     		mov	r1, r4	@, tmp131
 1569 0444 FFF7FEFF 		bl	__aeabi_fmul		@
 1570              	.LVL73:
 1571 0448 0422     		movs	r2, #4	@,
 1572 044a 0DEB0201 		add	r1, sp, r2	@ tmp135,,
 1573 044e FFF7FEFF 		bl	floatToString		@
 1574              	.LVL74:
  75:../2-filas/main.c **** 			USARTSend((char * ) &info);
 1575              		.loc 1 75 4 is_stmt 1 view .LVU389
 1576 0452 0648     		ldr	r0, .L86+12	@,
 1577 0454 FFF7FEFF 		bl	USARTSend		@
 1578              	.LVL75:
  76:../2-filas/main.c **** 		}
 1579              		.loc 1 76 4 view .LVU390
 1580 0458 01A8     		add	r0, sp, #4	@ tmp136,,
 1581 045a FFF7FEFF 		bl	USARTSend		@
 1582              	.LVL76:
 1583 045e E1E7     		b	.L82		@
 1584              	.L87:
 1585              		.align	2
 1586              	.L86:
 1587 0460 00000000 		.word	.LANCHOR0
 1588 0464 00F07F45 		.word	1166012416
 1589 0468 0000C842 		.word	1120403456
 1590 046c 1D000000 		.word	.LC3
 1591              		.cfi_endproc
 1592              	.LFE43:
 1593              		.size	task2, .-task2
 1594              		.bss
 1595              		.align	2
 1596              		.set	.LANCHOR0,. + 0
 1597              		.type	xQueue, %object
 1598              		.size	xQueue, 4
 1599              	xQueue:
 1600 0000 00000000 		.space	4
 1601              		.text
 1602              	.Letext0:
 1603              		.file 3 "../stm32f10x_lib/CMSIS/CM3/DeviceSupport/ST/STM32F10x/stm32f10x.h"
 1604              		.file 4 "/usr/arm-none-eabi/include/machine/_default_types.h"
 1605              		.file 5 "/usr/arm-none-eabi/include/sys/_stdint.h"
 1606              		.file 6 "../stm32f10x_lib/CMSIS/CM3/CoreSupport/core_cm3.h"
 1607              		.file 7 "../stm32f10x_lib/STM32F10x_StdPeriph_Driver/inc/stm32f10x_gpio.h"
 1608              		.file 8 "../stm32f10x_lib/STM32F10x_StdPeriph_Driver/inc/stm32f10x_usart.h"
 1609              		.file 9 "../freertos/portable/GCC/ARM_CM3/portmacro.h"
 1610              		.file 10 "../freertos/include/queue.h"
 1611              		.file 11 "../stm32f10x_lib/STM32F10x_StdPeriph_Driver/inc/stm32f10x_rcc.h"
 1612              		.file 12 "../freertos/include/task.h"