ARM GAS  /tmp/ccTiGcp2.s 			page 1


   1              		.cpu cortex-m3
   2              		.arch armv7-m
   3              		.fpu softvfp
   4              		.eabi_attribute 20, 1	@ Tag_ABI_FP_denormal
   5              		.eabi_attribute 21, 1	@ Tag_ABI_FP_exceptions
   6              		.eabi_attribute 23, 3	@ Tag_ABI_FP_number_model
   7              		.eabi_attribute 24, 1	@ Tag_ABI_align8_needed
   8              		.eabi_attribute 25, 1	@ Tag_ABI_align8_preserved
   9              		.eabi_attribute 26, 1	@ Tag_ABI_enum_size
  10              		.eabi_attribute 30, 4	@ Tag_ABI_optimization_goals
  11              		.eabi_attribute 34, 1	@ Tag_CPU_unaligned_access
  12              		.eabi_attribute 18, 4	@ Tag_ABI_PCS_wchar_t
  13              		.file	"main.c"
  14              	@ GNU C17 (Arch Repository) version 13.2.0 (arm-none-eabi)
  15              	@	compiled by GNU C version 13.2.1 20230730, GMP version 6.2.1, MPFR version 4.2.0-p12, MPC version
  16              	
  17              	@ warning: GMP header version 6.2.1 differs from library version 6.3.0.
  18              	@ GGC heuristics: --param ggc-min-expand=100 --param ggc-min-heapsize=131072
  19              	@ options passed: -mcpu=cortex-m3 -mthumb -mfloat-abi=soft -march=armv7-m -g -gdwarf-2 -Os -fomit-f
  20              		.text
  21              	.Ltext0:
  22              		.cfi_sections	.debug_frame
  23              		.file 1 "../4-LCD_16x2/main.c"
  24              		.align	1
  25              		.syntax unified
  26              		.thumb
  27              		.thumb_func
  28              		.type	task2, %function
  29              	task2:
  30              	.LVL0:
  31              	.LFB41:
   1:../4-LCD_16x2/main.c **** /*
   2:../4-LCD_16x2/main.c ****  * Projeto LCD
   3:../4-LCD_16x2/main.c ****  *		Modificações necessárias: 
   4:../4-LCD_16x2/main.c ****  *		  FreeRTOSConfig:
   5:../4-LCD_16x2/main.c ****  *			 TICK_RATE_HZ definido em (100000)Hz -> 1µs
   6:../4-LCD_16x2/main.c ****  *
   7:../4-LCD_16x2/main.c ****  *	Clock do sistema: 
   8:../4-LCD_16x2/main.c ****  *		72Mhz
   9:../4-LCD_16x2/main.c ****  *	
  10:../4-LCD_16x2/main.c ****  *	Lib construída para Arduíno UNO:
  11:../4-LCD_16x2/main.c ****  *		myLcd.h
  12:../4-LCD_16x2/main.c ****  *			#define delayMicroseconds(X)   vTaskDelay(X)
  13:../4-LCD_16x2/main.c ****  *			#define delay(X)  vTaskDelay(X)
  14:../4-LCD_16x2/main.c ****  *
  15:../4-LCD_16x2/main.c ****  * */
  16:../4-LCD_16x2/main.c **** 
  17:../4-LCD_16x2/main.c **** // FreeRTOS: 
  18:../4-LCD_16x2/main.c **** #include "FreeRTOS.h"
  19:../4-LCD_16x2/main.c **** #include "queue.h"
  20:../4-LCD_16x2/main.c **** #include "task.h"
  21:../4-LCD_16x2/main.c **** 
  22:../4-LCD_16x2/main.c **** #define __delay_ms( TEMPO ) vTaskDelay(pdMS_TO_TICKS( TEMPO ))
  23:../4-LCD_16x2/main.c **** #define __delay( TEMPO ) vTaskDelay( TEMPO )
  24:../4-LCD_16x2/main.c **** 
  25:../4-LCD_16x2/main.c **** // LCD 16x2
  26:../4-LCD_16x2/main.c **** #include "stm32f10x.h"
ARM GAS  /tmp/ccTiGcp2.s 			page 2


  27:../4-LCD_16x2/main.c **** #include "Me.h"
  28:../4-LCD_16x2/main.c **** #include "myLcd.h"
  29:../4-LCD_16x2/main.c **** 
  30:../4-LCD_16x2/main.c **** static QueueHandle_t xQueue; 
  31:../4-LCD_16x2/main.c **** 
  32:../4-LCD_16x2/main.c **** static void task1(void *args __attribute((unused))) {
  33:../4-LCD_16x2/main.c **** 	RCC->APB2ENR |= (1<<2);
  34:../4-LCD_16x2/main.c **** 	GPIOA->CRL	 = 0x33333300; // Hab PA(2-7) out PP
  35:../4-LCD_16x2/main.c **** 
  36:../4-LCD_16x2/main.c ****   set_bit(IO,RS);
  37:../4-LCD_16x2/main.c ****   set_bit(IO,RS);
  38:../4-LCD_16x2/main.c ****   set_bit(IO,EN);
  39:../4-LCD_16x2/main.c ****   set_bit(IO,D4);
  40:../4-LCD_16x2/main.c ****   set_bit(IO,D5);
  41:../4-LCD_16x2/main.c ****   set_bit(IO,D6);
  42:../4-LCD_16x2/main.c ****   set_bit(IO,D7);
  43:../4-LCD_16x2/main.c **** 
  44:../4-LCD_16x2/main.c ****   disp_init();
  45:../4-LCD_16x2/main.c ****   disp_cmd(0x0C);
  46:../4-LCD_16x2/main.c **** 
  47:../4-LCD_16x2/main.c ****   disp_text("abcdABCDEF012",0,0);
  48:../4-LCD_16x2/main.c ****   u8 cont = (char) 1;
  49:../4-LCD_16x2/main.c **** 	while(1){
  50:../4-LCD_16x2/main.c **** 
  51:../4-LCD_16x2/main.c **** 		cont &= 0xffff;
  52:../4-LCD_16x2/main.c **** 		cont ++;
  53:../4-LCD_16x2/main.c **** 		disp_text("CONTADOR: ", 1, 0);
  54:../4-LCD_16x2/main.c **** 		disp_number( cont, 1, 11);
  55:../4-LCD_16x2/main.c **** 		__delay_ms(1000);
  56:../4-LCD_16x2/main.c **** 		
  57:../4-LCD_16x2/main.c **** 	}
  58:../4-LCD_16x2/main.c **** }
  59:../4-LCD_16x2/main.c **** 
  60:../4-LCD_16x2/main.c **** static void task2(void *args __attribute ((unused))){
  32              		.loc 1 60 53 view -0
  33              		.cfi_startproc
  34              		@ Volatile: function does not return.
  35              		@ args = 0, pretend = 0, frame = 0
  36              		@ frame_needed = 0, uses_anonymous_args = 0
  61:../4-LCD_16x2/main.c **** 	RCC->APB2ENR |= (1<<4); // En GPIOC
  37              		.loc 1 61 2 view .LVU1
  38              	@ ../4-LCD_16x2/main.c:61: 	RCC->APB2ENR |= (1<<4); // En GPIOC
  39              		.loc 1 61 5 is_stmt 0 view .LVU2
  40 0000 094A     		ldr	r2, .L3	@ tmp121,
  41              	@ ../4-LCD_16x2/main.c:60: static void task2(void *args __attribute ((unused))){
  60:../4-LCD_16x2/main.c **** 	RCC->APB2ENR |= (1<<4); // En GPIOC
  42              		.loc 1 60 53 view .LVU3
  43 0002 08B5     		push	{r3, lr}	@
  44              	.LCFI0:
  45              		.cfi_def_cfa_offset 8
  46              		.cfi_offset 3, -8
  47              		.cfi_offset 14, -4
  48              	@ ../4-LCD_16x2/main.c:61: 	RCC->APB2ENR |= (1<<4); // En GPIOC
  49              		.loc 1 61 5 view .LVU4
  50 0004 9369     		ldr	r3, [r2, #24]	@ _1, MEM[(struct RCC_TypeDef *)1073876992B].APB2ENR
  51              	@ ../4-LCD_16x2/main.c:62: 	GPIOC->CRH	|= (0b11<< 20); // PC13 out PP 
  62:../4-LCD_16x2/main.c **** 	GPIOC->CRH	|= (0b11<< 20); // PC13 out PP 
ARM GAS  /tmp/ccTiGcp2.s 			page 3


  52              		.loc 1 62 7 view .LVU5
  53 0006 094C     		ldr	r4, .L3+4	@ tmp123,
  54              	@ ../4-LCD_16x2/main.c:61: 	RCC->APB2ENR |= (1<<4); // En GPIOC
  61:../4-LCD_16x2/main.c **** 	RCC->APB2ENR |= (1<<4); // En GPIOC
  55              		.loc 1 61 15 view .LVU6
  56 0008 43F01003 		orr	r3, r3, #16	@ _2, _1,
  57 000c 9361     		str	r3, [r2, #24]	@ _2, MEM[(struct RCC_TypeDef *)1073876992B].APB2ENR
  58              		.loc 1 62 2 is_stmt 1 view .LVU7
  59              	@ ../4-LCD_16x2/main.c:62: 	GPIOC->CRH	|= (0b11<< 20); // PC13 out PP 
  60              		.loc 1 62 7 is_stmt 0 view .LVU8
  61 000e 6368     		ldr	r3, [r4, #4]	@ _3, MEM[(struct GPIO_TypeDef *)1073811456B].CRH
  62              	@ ../4-LCD_16x2/main.c:62: 	GPIOC->CRH	|= (0b11<< 20); // PC13 out PP 
  63              		.loc 1 62 13 view .LVU9
  64 0010 43F44013 		orr	r3, r3, #3145728	@ _4, _3,
  65 0014 6360     		str	r3, [r4, #4]	@ _4, MEM[(struct GPIO_TypeDef *)1073811456B].CRH
  66              	.LVL1:
  67              	.L2:
  63:../4-LCD_16x2/main.c **** 
  64:../4-LCD_16x2/main.c **** 	while(1){
  68              		.loc 1 64 2 is_stmt 1 view .LVU10
  65:../4-LCD_16x2/main.c **** 		GPIOC->ODR	^= (1<<13);
  69              		.loc 1 65 3 view .LVU11
  70              	@ ../4-LCD_16x2/main.c:65: 		GPIOC->ODR	^= (1<<13);
  71              		.loc 1 65 8 is_stmt 0 view .LVU12
  72 0016 E368     		ldr	r3, [r4, #12]	@ _5, MEM[(struct GPIO_TypeDef *)1073811456B].ODR
  73              	@ ../4-LCD_16x2/main.c:66: 		__delay_ms(50);
  66:../4-LCD_16x2/main.c **** 		__delay_ms(50);
  74              		.loc 1 66 3 discriminator 1 view .LVU13
  75 0018 41F28830 		movw	r0, #5000	@,
  76              	@ ../4-LCD_16x2/main.c:65: 		GPIOC->ODR	^= (1<<13);
  65:../4-LCD_16x2/main.c **** 		GPIOC->ODR	^= (1<<13);
  77              		.loc 1 65 14 view .LVU14
  78 001c 83F40053 		eor	r3, r3, #8192	@ _6, _5,
  79 0020 E360     		str	r3, [r4, #12]	@ _6, MEM[(struct GPIO_TypeDef *)1073811456B].ODR
  80              		.loc 1 66 3 is_stmt 1 discriminator 1 view .LVU15
  81 0022 FFF7FEFF 		bl	vTaskDelay		@
  82              	.LVL2:
  64:../4-LCD_16x2/main.c **** 		GPIOC->ODR	^= (1<<13);
  83              		.loc 1 64 7 view .LVU16
  84 0026 F6E7     		b	.L2		@
  85              	.L4:
  86              		.align	2
  87              	.L3:
  88 0028 00100240 		.word	1073876992
  89 002c 00100140 		.word	1073811456
  90              		.cfi_endproc
  91              	.LFE41:
  92              		.size	task2, .-task2
  93              		.section	.rodata.str1.1,"aMS",%progbits,1
  94              	.LC0:
  95 0000 61626364 		.ascii	"abcdABCDEF012\000"
  95      41424344 
  95      45463031 
  95      3200
  96              	.LC1:
  97 000e 434F4E54 		.ascii	"CONTADOR: \000"
  97      41444F52 
ARM GAS  /tmp/ccTiGcp2.s 			page 4


  97      3A2000
  98              		.text
  99              		.align	1
 100              		.syntax unified
 101              		.thumb
 102              		.thumb_func
 103              		.type	task1, %function
 104              	task1:
 105              	.LVL3:
 106              	.LFB40:
  32:../4-LCD_16x2/main.c **** 	RCC->APB2ENR |= (1<<2);
 107              		.loc 1 32 53 view -0
 108              		.cfi_startproc
 109              		@ args = 0, pretend = 0, frame = 0
 110              		@ frame_needed = 0, uses_anonymous_args = 0
  33:../4-LCD_16x2/main.c **** 	GPIOA->CRL	 = 0x33333300; // Hab PA(2-7) out PP
 111              		.loc 1 33 2 view .LVU18
 112              	@ ../4-LCD_16x2/main.c:33: 	RCC->APB2ENR |= (1<<2);
  33:../4-LCD_16x2/main.c **** 	GPIOA->CRL	 = 0x33333300; // Hab PA(2-7) out PP
 113              		.loc 1 33 5 is_stmt 0 view .LVU19
 114 0030 204A     		ldr	r2, .L7	@ tmp133,
 115              	@ ../4-LCD_16x2/main.c:32: static void task1(void *args __attribute((unused))) {
  32:../4-LCD_16x2/main.c **** 	RCC->APB2ENR |= (1<<2);
 116              		.loc 1 32 53 view .LVU20
 117 0032 70B5     		push	{r4, r5, r6, lr}	@
 118              	.LCFI1:
 119              		.cfi_def_cfa_offset 16
 120              		.cfi_offset 4, -16
 121              		.cfi_offset 5, -12
 122              		.cfi_offset 6, -8
 123              		.cfi_offset 14, -4
 124              	@ ../4-LCD_16x2/main.c:33: 	RCC->APB2ENR |= (1<<2);
  33:../4-LCD_16x2/main.c **** 	GPIOA->CRL	 = 0x33333300; // Hab PA(2-7) out PP
 125              		.loc 1 33 5 view .LVU21
 126 0034 9369     		ldr	r3, [r2, #24]	@ _1, MEM[(struct RCC_TypeDef *)1073876992B].APB2ENR
 127              	@ ../4-LCD_16x2/main.c:48:   u8 cont = (char) 1;
  48:../4-LCD_16x2/main.c **** 	while(1){
 128              		.loc 1 48 6 view .LVU22
 129 0036 0124     		movs	r4, #1	@ cont,
 130              	@ ../4-LCD_16x2/main.c:33: 	RCC->APB2ENR |= (1<<2);
  33:../4-LCD_16x2/main.c **** 	GPIOA->CRL	 = 0x33333300; // Hab PA(2-7) out PP
 131              		.loc 1 33 15 view .LVU23
 132 0038 43F00403 		orr	r3, r3, #4	@ _2, _1,
 133 003c 9361     		str	r3, [r2, #24]	@ _2, MEM[(struct RCC_TypeDef *)1073876992B].APB2ENR
  34:../4-LCD_16x2/main.c **** 
 134              		.loc 1 34 2 is_stmt 1 view .LVU24
 135              	@ ../4-LCD_16x2/main.c:34: 	GPIOA->CRL	 = 0x33333300; // Hab PA(2-7) out PP
  34:../4-LCD_16x2/main.c **** 
 136              		.loc 1 34 14 is_stmt 0 view .LVU25
 137 003e 1E4B     		ldr	r3, .L7+4	@ tmp135,
 138 0040 1E4A     		ldr	r2, .L7+8	@ tmp136,
 139              	@ ../4-LCD_16x2/main.c:53: 		disp_text("CONTADOR: ", 1, 0);
  53:../4-LCD_16x2/main.c **** 		disp_number( cont, 1, 11);
 140              		.loc 1 53 3 view .LVU26
 141 0042 1F4E     		ldr	r6, .L7+12	@ tmp156,
 142              	@ ../4-LCD_16x2/main.c:34: 	GPIOA->CRL	 = 0x33333300; // Hab PA(2-7) out PP
  34:../4-LCD_16x2/main.c **** 
ARM GAS  /tmp/ccTiGcp2.s 			page 5


 143              		.loc 1 34 14 view .LVU27
 144 0044 1A60     		str	r2, [r3]	@ tmp136, MEM[(struct GPIO_TypeDef *)1073809408B].CRL
  36:../4-LCD_16x2/main.c ****   set_bit(IO,RS);
 145              		.loc 1 36 3 is_stmt 1 view .LVU28
 146 0046 DA68     		ldr	r2, [r3, #12]	@ _3, MEM[(struct GPIO_TypeDef *)1073809408B].ODR
 147              	@ ../4-LCD_16x2/main.c:55: 		__delay_ms(1000);
  55:../4-LCD_16x2/main.c **** 		
 148              		.loc 1 55 3 is_stmt 0 discriminator 1 view .LVU29
 149 0048 1E4D     		ldr	r5, .L7+16	@ tmp157,
 150              	@ ../4-LCD_16x2/main.c:36:   set_bit(IO,RS);
  36:../4-LCD_16x2/main.c ****   set_bit(IO,RS);
 151              		.loc 1 36 3 view .LVU30
 152 004a 42F00402 		orr	r2, r2, #4	@ _4, _3,
 153 004e DA60     		str	r2, [r3, #12]	@ _4, MEM[(struct GPIO_TypeDef *)1073809408B].ODR
  37:../4-LCD_16x2/main.c ****   set_bit(IO,EN);
 154              		.loc 1 37 3 is_stmt 1 view .LVU31
 155 0050 DA68     		ldr	r2, [r3, #12]	@ _5, MEM[(struct GPIO_TypeDef *)1073809408B].ODR
 156 0052 42F00402 		orr	r2, r2, #4	@ _6, _5,
 157 0056 DA60     		str	r2, [r3, #12]	@ _6, MEM[(struct GPIO_TypeDef *)1073809408B].ODR
  38:../4-LCD_16x2/main.c ****   set_bit(IO,D4);
 158              		.loc 1 38 3 view .LVU32
 159 0058 DA68     		ldr	r2, [r3, #12]	@ _7, MEM[(struct GPIO_TypeDef *)1073809408B].ODR
 160 005a 42F00802 		orr	r2, r2, #8	@ _8, _7,
 161 005e DA60     		str	r2, [r3, #12]	@ _8, MEM[(struct GPIO_TypeDef *)1073809408B].ODR
  39:../4-LCD_16x2/main.c ****   set_bit(IO,D5);
 162              		.loc 1 39 3 view .LVU33
 163 0060 DA68     		ldr	r2, [r3, #12]	@ _9, MEM[(struct GPIO_TypeDef *)1073809408B].ODR
 164 0062 42F01002 		orr	r2, r2, #16	@ _10, _9,
 165 0066 DA60     		str	r2, [r3, #12]	@ _10, MEM[(struct GPIO_TypeDef *)1073809408B].ODR
  40:../4-LCD_16x2/main.c ****   set_bit(IO,D6);
 166              		.loc 1 40 3 view .LVU34
 167 0068 DA68     		ldr	r2, [r3, #12]	@ _11, MEM[(struct GPIO_TypeDef *)1073809408B].ODR
 168 006a 42F02002 		orr	r2, r2, #32	@ _12, _11,
 169 006e DA60     		str	r2, [r3, #12]	@ _12, MEM[(struct GPIO_TypeDef *)1073809408B].ODR
  41:../4-LCD_16x2/main.c ****   set_bit(IO,D7);
 170              		.loc 1 41 3 view .LVU35
 171 0070 DA68     		ldr	r2, [r3, #12]	@ _13, MEM[(struct GPIO_TypeDef *)1073809408B].ODR
 172 0072 42F04002 		orr	r2, r2, #64	@ _14, _13,
 173 0076 DA60     		str	r2, [r3, #12]	@ _14, MEM[(struct GPIO_TypeDef *)1073809408B].ODR
  42:../4-LCD_16x2/main.c **** 
 174              		.loc 1 42 3 view .LVU36
 175 0078 DA68     		ldr	r2, [r3, #12]	@ _15, MEM[(struct GPIO_TypeDef *)1073809408B].ODR
 176 007a 42F08002 		orr	r2, r2, #128	@ _16, _15,
 177 007e DA60     		str	r2, [r3, #12]	@ _16, MEM[(struct GPIO_TypeDef *)1073809408B].ODR
  44:../4-LCD_16x2/main.c ****   disp_cmd(0x0C);
 178              		.loc 1 44 3 view .LVU37
 179 0080 FFF7FEFF 		bl	disp_init		@
 180              	.LVL4:
  45:../4-LCD_16x2/main.c **** 
 181              		.loc 1 45 3 view .LVU38
 182 0084 0C20     		movs	r0, #12	@,
 183 0086 FFF7FEFF 		bl	disp_cmd		@
 184              	.LVL5:
  47:../4-LCD_16x2/main.c ****   u8 cont = (char) 1;
 185              		.loc 1 47 3 view .LVU39
 186 008a 0022     		movs	r2, #0	@,
 187 008c 0E48     		ldr	r0, .L7+20	@,
ARM GAS  /tmp/ccTiGcp2.s 			page 6


 188 008e 1146     		mov	r1, r2	@,
 189 0090 FFF7FEFF 		bl	disp_text		@
 190              	.LVL6:
  48:../4-LCD_16x2/main.c **** 	while(1){
 191              		.loc 1 48 3 view .LVU40
 192              	.L6:
  49:../4-LCD_16x2/main.c **** 
 193              		.loc 1 49 2 view .LVU41
  51:../4-LCD_16x2/main.c **** 		cont ++;
 194              		.loc 1 51 3 view .LVU42
  52:../4-LCD_16x2/main.c **** 		disp_text("CONTADOR: ", 1, 0);
 195              		.loc 1 52 3 view .LVU43
 196              	@ ../4-LCD_16x2/main.c:52: 		cont ++;
  52:../4-LCD_16x2/main.c **** 		disp_text("CONTADOR: ", 1, 0);
 197              		.loc 1 52 8 is_stmt 0 view .LVU44
 198 0094 0134     		adds	r4, r4, #1	@ tmp152, cont,
 199              	.LVL7:
 200              	@ ../4-LCD_16x2/main.c:53: 		disp_text("CONTADOR: ", 1, 0);
  53:../4-LCD_16x2/main.c **** 		disp_number( cont, 1, 11);
 201              		.loc 1 53 3 view .LVU45
 202 0096 3046     		mov	r0, r6	@, tmp156
 203 0098 0022     		movs	r2, #0	@,
 204 009a 0121     		movs	r1, #1	@,
 205              	@ ../4-LCD_16x2/main.c:52: 		cont ++;
  52:../4-LCD_16x2/main.c **** 		disp_text("CONTADOR: ", 1, 0);
 206              		.loc 1 52 8 view .LVU46
 207 009c E4B2     		uxtb	r4, r4	@ cont, tmp152
 208              	.LVL8:
  53:../4-LCD_16x2/main.c **** 		disp_number( cont, 1, 11);
 209              		.loc 1 53 3 is_stmt 1 view .LVU47
 210 009e FFF7FEFF 		bl	disp_text		@
 211              	.LVL9:
  54:../4-LCD_16x2/main.c **** 		__delay_ms(1000);
 212              		.loc 1 54 3 view .LVU48
 213 00a2 2046     		mov	r0, r4	@, cont
 214 00a4 0B22     		movs	r2, #11	@,
 215 00a6 0121     		movs	r1, #1	@,
 216 00a8 FFF7FEFF 		bl	disp_number		@
 217              	.LVL10:
  55:../4-LCD_16x2/main.c **** 		
 218              		.loc 1 55 3 discriminator 1 view .LVU49
 219 00ac 2846     		mov	r0, r5	@, tmp157
 220 00ae FFF7FEFF 		bl	vTaskDelay		@
 221              	.LVL11:
  49:../4-LCD_16x2/main.c **** 
 222              		.loc 1 49 7 view .LVU50
 223 00b2 EFE7     		b	.L6		@
 224              	.L8:
 225              		.align	2
 226              	.L7:
 227 00b4 00100240 		.word	1073876992
 228 00b8 00080140 		.word	1073809408
 229 00bc 00333333 		.word	858993408
 230 00c0 0E000000 		.word	.LC1
 231 00c4 A0860100 		.word	100000
 232 00c8 00000000 		.word	.LC0
 233              		.cfi_endproc
ARM GAS  /tmp/ccTiGcp2.s 			page 7


 234              	.LFE40:
 235              		.size	task1, .-task1
 236              		.align	1
 237              		.global	ADC1_configure
 238              		.syntax unified
 239              		.thumb
 240              		.thumb_func
 241              		.type	ADC1_configure, %function
 242              	ADC1_configure:
 243              	.LFB34:
 244              		.file 2 "../4-LCD_16x2/Me.h"
   1:../4-LCD_16x2/Me.h **** #define __IO volatile
   2:../4-LCD_16x2/Me.h **** 
   3:../4-LCD_16x2/Me.h **** void SystemInit (void);
   4:../4-LCD_16x2/Me.h **** void nvic_IntDisble(u8 IRQn);
   5:../4-LCD_16x2/Me.h **** void nvic_intEnable(u8 IRQn);
   6:../4-LCD_16x2/Me.h **** void set_system_clock_to_25Mhz (void);
   7:../4-LCD_16x2/Me.h **** void set_system_clock_to_72Mhz(void);
   8:../4-LCD_16x2/Me.h **** void Delay ( __IO u32 T );
   9:../4-LCD_16x2/Me.h **** void enable_TIM3_delay (void);
  10:../4-LCD_16x2/Me.h **** void ADC1_configure();
  11:../4-LCD_16x2/Me.h **** 
  12:../4-LCD_16x2/Me.h **** #define DelayUs(X) Delay(X)
  13:../4-LCD_16x2/Me.h **** 
  14:../4-LCD_16x2/Me.h **** void ADC1_configure(){
 245              		.loc 2 14 22 view -0
 246              		.cfi_startproc
 247              		@ args = 0, pretend = 0, frame = 0
 248              		@ frame_needed = 0, uses_anonymous_args = 0
 249              		@ link register save eliminated.
  15:../4-LCD_16x2/Me.h **** 	RCC->APB2ENR |= 1UL<<2 ; // Hab. GPIOA
 250              		.loc 2 15 2 view .LVU52
 251              	@ ../4-LCD_16x2/Me.h:15: 	RCC->APB2ENR |= 1UL<<2 ; // Hab. GPIOA
 252              		.loc 2 15 5 is_stmt 0 view .LVU53
 253 00cc 1F4B     		ldr	r3, .L14	@ tmp142,
 254              	@ ../4-LCD_16x2/Me.h:16: 	GPIOA->CRL &= ~(0x0F << 4); // Define A1 Input Analogic
  16:../4-LCD_16x2/Me.h **** 	GPIOA->CRL &= ~(0x0F << 4); // Define A1 Input Analogic
 255              		.loc 2 16 7 view .LVU54
 256 00ce 2049     		ldr	r1, .L14+4	@ tmp144,
 257              	@ ../4-LCD_16x2/Me.h:15: 	RCC->APB2ENR |= 1UL<<2 ; // Hab. GPIOA
  15:../4-LCD_16x2/Me.h **** 	RCC->APB2ENR |= 1UL<<2 ; // Hab. GPIOA
 258              		.loc 2 15 5 view .LVU55
 259 00d0 9A69     		ldr	r2, [r3, #24]	@ _1, MEM[(struct RCC_TypeDef *)1073876992B].APB2ENR
 260              	@ ../4-LCD_16x2/Me.h:15: 	RCC->APB2ENR |= 1UL<<2 ; // Hab. GPIOA
  15:../4-LCD_16x2/Me.h **** 	RCC->APB2ENR |= 1UL<<2 ; // Hab. GPIOA
 261              		.loc 2 15 15 view .LVU56
 262 00d2 42F00402 		orr	r2, r2, #4	@ _2, _1,
 263 00d6 9A61     		str	r2, [r3, #24]	@ _2, MEM[(struct RCC_TypeDef *)1073876992B].APB2ENR
 264              		.loc 2 16 2 is_stmt 1 view .LVU57
 265              	@ ../4-LCD_16x2/Me.h:16: 	GPIOA->CRL &= ~(0x0F << 4); // Define A1 Input Analogic
 266              		.loc 2 16 7 is_stmt 0 view .LVU58
 267 00d8 0A68     		ldr	r2, [r1]	@ _3, MEM[(struct GPIO_TypeDef *)1073809408B].CRL
 268              	@ ../4-LCD_16x2/Me.h:16: 	GPIOA->CRL &= ~(0x0F << 4); // Define A1 Input Analogic
 269              		.loc 2 16 13 view .LVU59
 270 00da 22F0F002 		bic	r2, r2, #240	@ _4, _3,
 271 00de 0A60     		str	r2, [r1]	@ _4, MEM[(struct GPIO_TypeDef *)1073809408B].CRL
  17:../4-LCD_16x2/Me.h **** 	
ARM GAS  /tmp/ccTiGcp2.s 			page 8


  18:../4-LCD_16x2/Me.h **** 	RCC->APB2ENR |= (1<<9); // Bit 9 ADC1EN: ADC 1 
 272              		.loc 2 18 2 is_stmt 1 view .LVU60
 273              	@ ../4-LCD_16x2/Me.h:18: 	RCC->APB2ENR |= (1<<9); // Bit 9 ADC1EN: ADC 1 
 274              		.loc 2 18 5 is_stmt 0 view .LVU61
 275 00e0 9A69     		ldr	r2, [r3, #24]	@ _5, MEM[(struct RCC_TypeDef *)1073876992B].APB2ENR
 276              	@ ../4-LCD_16x2/Me.h:18: 	RCC->APB2ENR |= (1<<9); // Bit 9 ADC1EN: ADC 1 
 277              		.loc 2 18 15 view .LVU62
 278 00e2 42F40072 		orr	r2, r2, #512	@ _6, _5,
 279 00e6 9A61     		str	r2, [r3, #24]	@ _6, MEM[(struct RCC_TypeDef *)1073876992B].APB2ENR
  19:../4-LCD_16x2/Me.h **** 									// interface clock enable
  20:../4-LCD_16x2/Me.h **** 
  21:../4-LCD_16x2/Me.h **** 	RCC->CFGR	|= (0b10 << 14); // Bits 15:14 ADCPRE:
 280              		.loc 2 21 2 is_stmt 1 view .LVU63
 281              	@ ../4-LCD_16x2/Me.h:21: 	RCC->CFGR	|= (0b10 << 14); // Bits 15:14 ADCPRE:
 282              		.loc 2 21 5 is_stmt 0 view .LVU64
 283 00e8 5A68     		ldr	r2, [r3, #4]	@ _7, MEM[(struct RCC_TypeDef *)1073876992B].CFGR
 284              	@ ../4-LCD_16x2/Me.h:21: 	RCC->CFGR	|= (0b10 << 14); // Bits 15:14 ADCPRE:
 285              		.loc 2 21 12 view .LVU65
 286 00ea 42F40042 		orr	r2, r2, #32768	@ _8, _7,
 287 00ee 5A60     		str	r2, [r3, #4]	@ _8, MEM[(struct RCC_TypeDef *)1073876992B].CFGR
  22:../4-LCD_16x2/Me.h **** 										  // ADC prescaler 10:
  23:../4-LCD_16x2/Me.h **** 										  //    PCLK2 divided by 6
  24:../4-LCD_16x2/Me.h **** 	// Enable End of Conversion (EOC) interrupt
  25:../4-LCD_16x2/Me.h **** 	ADC1->CR1 |= (1 << 5);
 288              		.loc 2 25 2 is_stmt 1 view .LVU66
 289              	@ ../4-LCD_16x2/Me.h:25: 	ADC1->CR1 |= (1 << 5);
 290              		.loc 2 25 6 is_stmt 0 view .LVU67
 291 00f0 A3F56C43 		sub	r3, r3, #60416	@ tmp150, tmp150,
 292 00f4 5A68     		ldr	r2, [r3, #4]	@ _9, MEM[(struct ADC_TypeDef *)1073816576B].CR1
 293              	@ ../4-LCD_16x2/Me.h:25: 	ADC1->CR1 |= (1 << 5);
 294              		.loc 2 25 12 view .LVU68
 295 00f6 42F02002 		orr	r2, r2, #32	@ _10, _9,
 296 00fa 5A60     		str	r2, [r3, #4]	@ _10, MEM[(struct ADC_TypeDef *)1073816576B].CR1
  26:../4-LCD_16x2/Me.h **** 
  27:../4-LCD_16x2/Me.h **** 	// One conversion
  28:../4-LCD_16x2/Me.h **** 	ADC1->SQR1 = 0x00000000;
 297              		.loc 2 28 2 is_stmt 1 view .LVU69
 298              	@ ../4-LCD_16x2/Me.h:28: 	ADC1->SQR1 = 0x00000000;
 299              		.loc 2 28 13 is_stmt 0 view .LVU70
 300 00fc 0022     		movs	r2, #0	@ tmp153,
 301 00fe DA62     		str	r2, [r3, #44]	@ tmp153, MEM[(struct ADC_TypeDef *)1073816576B].SQR1
  29:../4-LCD_16x2/Me.h **** 
  30:../4-LCD_16x2/Me.h **** 	// Choose the analog channel to read
  31:../4-LCD_16x2/Me.h **** 	// Since we want channel 10 to be the first
  32:../4-LCD_16x2/Me.h **** 	//   conversion we write 10 to SQ1 bits (3:0)
  33:../4-LCD_16x2/Me.h **** 	//   which is in SQR3 register. For multiple conversions
  34:../4-LCD_16x2/Me.h **** 	//   keep writing the channel numbers to SQx bits.
  35:../4-LCD_16x2/Me.h **** 	 ADC1->SQR3 = (10 << 0);
 302              		.loc 2 35 3 is_stmt 1 view .LVU71
 303              	@ ../4-LCD_16x2/Me.h:35: 	 ADC1->SQR3 = (10 << 0);
 304              		.loc 2 35 14 is_stmt 0 view .LVU72
 305 0100 0A22     		movs	r2, #10	@ tmp155,
 306 0102 5A63     		str	r2, [r3, #52]	@ tmp155, MEM[(struct ADC_TypeDef *)1073816576B].SQR3
  36:../4-LCD_16x2/Me.h **** 
  37:../4-LCD_16x2/Me.h **** 	// Set up software trigger to start conversion
  38:../4-LCD_16x2/Me.h **** 	ADC1->CR2 |= (7 << 17);  // Select SWSTART as trigger
 307              		.loc 2 38 2 is_stmt 1 view .LVU73
ARM GAS  /tmp/ccTiGcp2.s 			page 9


 308              	@ ../4-LCD_16x2/Me.h:38: 	ADC1->CR2 |= (7 << 17);  // Select SWSTART as trigger
 309              		.loc 2 38 6 is_stmt 0 view .LVU74
 310 0104 9A68     		ldr	r2, [r3, #8]	@ _11, MEM[(struct ADC_TypeDef *)1073816576B].CR2
 311              	@ ../4-LCD_16x2/Me.h:38: 	ADC1->CR2 |= (7 << 17);  // Select SWSTART as trigger
 312              		.loc 2 38 12 view .LVU75
 313 0106 42F46022 		orr	r2, r2, #917504	@ _12, _11,
 314 010a 9A60     		str	r2, [r3, #8]	@ _12, MEM[(struct ADC_TypeDef *)1073816576B].CR2
  39:../4-LCD_16x2/Me.h **** 	ADC1->CR2 |= (1 << 20);  // Enable external trigger
 315              		.loc 2 39 2 is_stmt 1 view .LVU76
 316              	@ ../4-LCD_16x2/Me.h:39: 	ADC1->CR2 |= (1 << 20);  // Enable external trigger
 317              		.loc 2 39 6 is_stmt 0 view .LVU77
 318 010c 9A68     		ldr	r2, [r3, #8]	@ _13, MEM[(struct ADC_TypeDef *)1073816576B].CR2
 319              	@ ../4-LCD_16x2/Me.h:39: 	ADC1->CR2 |= (1 << 20);  // Enable external trigger
 320              		.loc 2 39 12 view .LVU78
 321 010e 42F48012 		orr	r2, r2, #1048576	@ _14, _13,
 322 0112 9A60     		str	r2, [r3, #8]	@ _14, MEM[(struct ADC_TypeDef *)1073816576B].CR2
  40:../4-LCD_16x2/Me.h **** 
  41:../4-LCD_16x2/Me.h **** 	// Enable continuous conversion
  42:../4-LCD_16x2/Me.h **** 	ADC1->CR2 |= (1 << 1);
 323              		.loc 2 42 2 is_stmt 1 view .LVU79
 324              	@ ../4-LCD_16x2/Me.h:42: 	ADC1->CR2 |= (1 << 1);
 325              		.loc 2 42 6 is_stmt 0 view .LVU80
 326 0114 9A68     		ldr	r2, [r3, #8]	@ _15, MEM[(struct ADC_TypeDef *)1073816576B].CR2
 327              	@ ../4-LCD_16x2/Me.h:42: 	ADC1->CR2 |= (1 << 1);
 328              		.loc 2 42 12 view .LVU81
 329 0116 42F00202 		orr	r2, r2, #2	@ _16, _15,
 330 011a 9A60     		str	r2, [r3, #8]	@ _16, MEM[(struct ADC_TypeDef *)1073816576B].CR2
  43:../4-LCD_16x2/Me.h **** 
  44:../4-LCD_16x2/Me.h **** 	// enable_interrupt(ADC1_2_IRQn);
  45:../4-LCD_16x2/Me.h **** 
  46:../4-LCD_16x2/Me.h **** 	// Enable A/D conversion
  47:../4-LCD_16x2/Me.h **** 	ADC1->CR2 |= (1 << 0);
 331              		.loc 2 47 2 is_stmt 1 view .LVU82
 332              	@ ../4-LCD_16x2/Me.h:47: 	ADC1->CR2 |= (1 << 0);
 333              		.loc 2 47 6 is_stmt 0 view .LVU83
 334 011c 9A68     		ldr	r2, [r3, #8]	@ _17, MEM[(struct ADC_TypeDef *)1073816576B].CR2
 335              	@ ../4-LCD_16x2/Me.h:47: 	ADC1->CR2 |= (1 << 0);
 336              		.loc 2 47 12 view .LVU84
 337 011e 42F00102 		orr	r2, r2, #1	@ _18, _17,
 338 0122 9A60     		str	r2, [r3, #8]	@ _18, MEM[(struct ADC_TypeDef *)1073816576B].CR2
  48:../4-LCD_16x2/Me.h **** 
  49:../4-LCD_16x2/Me.h **** 	// Calibration reset and start
  50:../4-LCD_16x2/Me.h **** 	//    Optional for better accuracy.
  51:../4-LCD_16x2/Me.h **** 	ADC1->CR2 |= (1 << 3);
 339              		.loc 2 51 2 is_stmt 1 view .LVU85
 340              	@ ../4-LCD_16x2/Me.h:51: 	ADC1->CR2 |= (1 << 3);
 341              		.loc 2 51 6 is_stmt 0 view .LVU86
 342 0124 9A68     		ldr	r2, [r3, #8]	@ _19, MEM[(struct ADC_TypeDef *)1073816576B].CR2
 343              	@ ../4-LCD_16x2/Me.h:51: 	ADC1->CR2 |= (1 << 3);
 344              		.loc 2 51 12 view .LVU87
 345 0126 42F00802 		orr	r2, r2, #8	@ _20, _19,
 346 012a 9A60     		str	r2, [r3, #8]	@ _20, MEM[(struct ADC_TypeDef *)1073816576B].CR2
  52:../4-LCD_16x2/Me.h **** 	while((ADC1->CR2 & (1 << 3)));
 347              		.loc 2 52 2 is_stmt 1 view .LVU88
 348              	.L10:
 349              		.loc 2 52 8 discriminator 1 view .LVU89
 350              	@ ../4-LCD_16x2/Me.h:52: 	while((ADC1->CR2 & (1 << 3)));
ARM GAS  /tmp/ccTiGcp2.s 			page 10


 351              		.loc 2 52 13 is_stmt 0 discriminator 1 view .LVU90
 352 012c 9A68     		ldr	r2, [r3, #8]	@ _21, MEM[(struct ADC_TypeDef *)1073816576B].CR2
 353              	@ ../4-LCD_16x2/Me.h:52: 	while((ADC1->CR2 & (1 << 3)));
 354              		.loc 2 52 8 discriminator 1 view .LVU91
 355 012e 1107     		lsls	r1, r2, #28	@, _21,
 356 0130 FCD4     		bmi	.L10		@,
  53:../4-LCD_16x2/Me.h **** 	ADC1->CR2 |= (1 << 2);
 357              		.loc 2 53 2 is_stmt 1 view .LVU92
 358              	@ ../4-LCD_16x2/Me.h:53: 	ADC1->CR2 |= (1 << 2);
 359              		.loc 2 53 6 is_stmt 0 view .LVU93
 360 0132 9A68     		ldr	r2, [r3, #8]	@ _23, MEM[(struct ADC_TypeDef *)1073816576B].CR2
 361              	@ ../4-LCD_16x2/Me.h:53: 	ADC1->CR2 |= (1 << 2);
 362              		.loc 2 53 12 view .LVU94
 363 0134 42F00402 		orr	r2, r2, #4	@ _24, _23,
 364 0138 9A60     		str	r2, [r3, #8]	@ _24, MEM[(struct ADC_TypeDef *)1073816576B].CR2
  54:../4-LCD_16x2/Me.h **** 	while((ADC1->CR2 & (1 << 2)));
 365              		.loc 2 54 2 is_stmt 1 view .LVU95
 366              	@ ../4-LCD_16x2/Me.h:54: 	while((ADC1->CR2 & (1 << 2)));
 367              		.loc 2 54 13 is_stmt 0 discriminator 1 view .LVU96
 368 013a 064B     		ldr	r3, .L14+8	@ tmp170,
 369              	.L11:
 370              		.loc 2 54 8 is_stmt 1 discriminator 1 view .LVU97
 371              	@ ../4-LCD_16x2/Me.h:54: 	while((ADC1->CR2 & (1 << 2)));
 372              		.loc 2 54 13 is_stmt 0 discriminator 1 view .LVU98
 373 013c 9A68     		ldr	r2, [r3, #8]	@ _25, MEM[(struct ADC_TypeDef *)1073816576B].CR2
 374              	@ ../4-LCD_16x2/Me.h:54: 	while((ADC1->CR2 & (1 << 2)));
 375              		.loc 2 54 8 discriminator 1 view .LVU99
 376 013e 5207     		lsls	r2, r2, #29	@, _25,
 377 0140 FCD4     		bmi	.L11		@,
  55:../4-LCD_16x2/Me.h **** 
  56:../4-LCD_16x2/Me.h **** 	// Start conversion with software trigger
  57:../4-LCD_16x2/Me.h **** 	ADC1->CR2 |= (1<<22);
 378              		.loc 2 57 2 is_stmt 1 view .LVU100
 379              	@ ../4-LCD_16x2/Me.h:57: 	ADC1->CR2 |= (1<<22);
 380              		.loc 2 57 6 is_stmt 0 view .LVU101
 381 0142 9A68     		ldr	r2, [r3, #8]	@ _27, MEM[(struct ADC_TypeDef *)1073816576B].CR2
 382              	@ ../4-LCD_16x2/Me.h:57: 	ADC1->CR2 |= (1<<22);
 383              		.loc 2 57 12 view .LVU102
 384 0144 42F48002 		orr	r2, r2, #4194304	@ _28, _27,
 385 0148 9A60     		str	r2, [r3, #8]	@ _28, MEM[(struct ADC_TypeDef *)1073816576B].CR2
 386              	@ ../4-LCD_16x2/Me.h:60: }
  58:../4-LCD_16x2/Me.h **** 	//
  59:../4-LCD_16x2/Me.h **** 	// Leitura  ADC1->DR  -> Data Register
  60:../4-LCD_16x2/Me.h **** }
 387              		.loc 2 60 1 view .LVU103
 388 014a 7047     		bx	lr	@
 389              	.L15:
 390              		.align	2
 391              	.L14:
 392 014c 00100240 		.word	1073876992
 393 0150 00080140 		.word	1073809408
 394 0154 00240140 		.word	1073816576
 395              		.cfi_endproc
 396              	.LFE34:
 397              		.size	ADC1_configure, .-ADC1_configure
 398              		.align	1
 399              		.global	set_system_clock_to_72Mhz
ARM GAS  /tmp/ccTiGcp2.s 			page 11


 400              		.syntax unified
 401              		.thumb
 402              		.thumb_func
 403              		.type	set_system_clock_to_72Mhz, %function
 404              	set_system_clock_to_72Mhz:
 405              	.LFB35:
  61:../4-LCD_16x2/Me.h **** 
  62:../4-LCD_16x2/Me.h **** void set_system_clock_to_72Mhz(void)
  63:../4-LCD_16x2/Me.h **** {
 406              		.loc 2 63 1 is_stmt 1 view -0
 407              		.cfi_startproc
 408              		@ args = 0, pretend = 0, frame = 0
 409              		@ frame_needed = 0, uses_anonymous_args = 0
 410              		@ link register save eliminated.
  64:../4-LCD_16x2/Me.h ****    // Necessary wait states for Flash for high speeds
  65:../4-LCD_16x2/Me.h ****    FLASH->ACR = 0x12;
 411              		.loc 2 65 4 view .LVU105
 412              	@ ../4-LCD_16x2/Me.h:65:    FLASH->ACR = 0x12;
 413              		.loc 2 65 15 is_stmt 0 view .LVU106
 414 0158 1222     		movs	r2, #18	@ tmp141,
 415 015a 1B4B     		ldr	r3, .L23	@ tmp140,
 416 015c 1A60     		str	r2, [r3]	@ tmp141, MEM[(struct FLASH_TypeDef *)1073881088B].ACR
  66:../4-LCD_16x2/Me.h ****    // Enable HSE
  67:../4-LCD_16x2/Me.h ****    RCC->CR |= (1 << 16);
 417              		.loc 2 67 4 is_stmt 1 view .LVU107
 418              	@ ../4-LCD_16x2/Me.h:67:    RCC->CR |= (1 << 16);
 419              		.loc 2 67 7 is_stmt 0 view .LVU108
 420 015e A3F58053 		sub	r3, r3, #4096	@ tmp142, tmp142,
 421 0162 1A68     		ldr	r2, [r3]	@ _1, MEM[(struct RCC_TypeDef *)1073876992B].CR
 422              	@ ../4-LCD_16x2/Me.h:67:    RCC->CR |= (1 << 16);
 423              		.loc 2 67 12 view .LVU109
 424 0164 42F48032 		orr	r2, r2, #65536	@ _2, _1,
 425 0168 1A60     		str	r2, [r3]	@ _2, MEM[(struct RCC_TypeDef *)1073876992B].CR
  68:../4-LCD_16x2/Me.h ****    // Wait untill HSE settles down
  69:../4-LCD_16x2/Me.h ****    while (!(RCC->CR & (1 << 17)));
 426              		.loc 2 69 4 is_stmt 1 view .LVU110
 427              	.L17:
 428              		.loc 2 69 11 discriminator 1 view .LVU111
 429              	@ ../4-LCD_16x2/Me.h:69:    while (!(RCC->CR & (1 << 17)));
 430              		.loc 2 69 16 is_stmt 0 discriminator 1 view .LVU112
 431 016a 1A68     		ldr	r2, [r3]	@ _3, MEM[(struct RCC_TypeDef *)1073876992B].CR
 432              	@ ../4-LCD_16x2/Me.h:69:    while (!(RCC->CR & (1 << 17)));
 433              		.loc 2 69 11 discriminator 1 view .LVU113
 434 016c 9103     		lsls	r1, r2, #14	@, _3,
 435 016e FCD5     		bpl	.L17		@,
  70:../4-LCD_16x2/Me.h ****    // Set PREDIV2 division factor to 5
  71:../4-LCD_16x2/Me.h ****    RCC->CFGR2 |= (0b0100 << 4);
 436              		.loc 2 71 4 is_stmt 1 view .LVU114
 437              	@ ../4-LCD_16x2/Me.h:71:    RCC->CFGR2 |= (0b0100 << 4);
 438              		.loc 2 71 7 is_stmt 0 view .LVU115
 439 0170 DA6A     		ldr	r2, [r3, #44]	@ _5, MEM[(struct RCC_TypeDef *)1073876992B].CFGR2
 440              	@ ../4-LCD_16x2/Me.h:71:    RCC->CFGR2 |= (0b0100 << 4);
 441              		.loc 2 71 15 view .LVU116
 442 0172 42F04002 		orr	r2, r2, #64	@ _6, _5,
 443 0176 DA62     		str	r2, [r3, #44]	@ _6, MEM[(struct RCC_TypeDef *)1073876992B].CFGR2
  72:../4-LCD_16x2/Me.h ****    // Set PLL2 multiplication factor to 8
  73:../4-LCD_16x2/Me.h ****    RCC->CFGR2 |= (0b0110 << 8);
ARM GAS  /tmp/ccTiGcp2.s 			page 12


 444              		.loc 2 73 4 is_stmt 1 view .LVU117
 445              	@ ../4-LCD_16x2/Me.h:73:    RCC->CFGR2 |= (0b0110 << 8);
 446              		.loc 2 73 7 is_stmt 0 view .LVU118
 447 0178 DA6A     		ldr	r2, [r3, #44]	@ _7, MEM[(struct RCC_TypeDef *)1073876992B].CFGR2
 448              	@ ../4-LCD_16x2/Me.h:73:    RCC->CFGR2 |= (0b0110 << 8);
 449              		.loc 2 73 15 view .LVU119
 450 017a 42F4C062 		orr	r2, r2, #1536	@ _8, _7,
 451 017e DA62     		str	r2, [r3, #44]	@ _8, MEM[(struct RCC_TypeDef *)1073876992B].CFGR2
  74:../4-LCD_16x2/Me.h ****    // Enable PLL2
  75:../4-LCD_16x2/Me.h ****    RCC->CR |= (1 << 26);
 452              		.loc 2 75 4 is_stmt 1 view .LVU120
 453              	@ ../4-LCD_16x2/Me.h:75:    RCC->CR |= (1 << 26);
 454              		.loc 2 75 7 is_stmt 0 view .LVU121
 455 0180 1A68     		ldr	r2, [r3]	@ _9, MEM[(struct RCC_TypeDef *)1073876992B].CR
 456              	@ ../4-LCD_16x2/Me.h:75:    RCC->CR |= (1 << 26);
 457              		.loc 2 75 12 view .LVU122
 458 0182 42F08062 		orr	r2, r2, #67108864	@ _10, _9,
 459 0186 1A60     		str	r2, [r3]	@ _10, MEM[(struct RCC_TypeDef *)1073876992B].CR
  76:../4-LCD_16x2/Me.h ****    // Wait untill PLL2 settles down
  77:../4-LCD_16x2/Me.h **** 	// while (!(RCC->CR & (1 << 27)));
  78:../4-LCD_16x2/Me.h ****    // Set PLL2 as PREDIV1 clock source
  79:../4-LCD_16x2/Me.h ****    RCC->CFGR2 |= (1 << 16);
 460              		.loc 2 79 4 is_stmt 1 view .LVU123
 461              	@ ../4-LCD_16x2/Me.h:79:    RCC->CFGR2 |= (1 << 16);
 462              		.loc 2 79 7 is_stmt 0 view .LVU124
 463 0188 DA6A     		ldr	r2, [r3, #44]	@ _11, MEM[(struct RCC_TypeDef *)1073876992B].CFGR2
 464              	@ ../4-LCD_16x2/Me.h:79:    RCC->CFGR2 |= (1 << 16);
 465              		.loc 2 79 15 view .LVU125
 466 018a 42F48032 		orr	r2, r2, #65536	@ _12, _11,
 467 018e DA62     		str	r2, [r3, #44]	@ _12, MEM[(struct RCC_TypeDef *)1073876992B].CFGR2
  80:../4-LCD_16x2/Me.h ****    // Set PREDIV1 division factor to 5
  81:../4-LCD_16x2/Me.h ****    RCC->CFGR2 |= (0b0100 << 0);
 468              		.loc 2 81 4 is_stmt 1 view .LVU126
 469              	@ ../4-LCD_16x2/Me.h:81:    RCC->CFGR2 |= (0b0100 << 0);
 470              		.loc 2 81 7 is_stmt 0 view .LVU127
 471 0190 DA6A     		ldr	r2, [r3, #44]	@ _13, MEM[(struct RCC_TypeDef *)1073876992B].CFGR2
 472              	@ ../4-LCD_16x2/Me.h:81:    RCC->CFGR2 |= (0b0100 << 0);
 473              		.loc 2 81 15 view .LVU128
 474 0192 42F00402 		orr	r2, r2, #4	@ _14, _13,
 475 0196 DA62     		str	r2, [r3, #44]	@ _14, MEM[(struct RCC_TypeDef *)1073876992B].CFGR2
  82:../4-LCD_16x2/Me.h ****    // Select Prediv1 as PLL source
  83:../4-LCD_16x2/Me.h ****    RCC->CFGR |= (1 << 16);
 476              		.loc 2 83 4 is_stmt 1 view .LVU129
 477              	@ ../4-LCD_16x2/Me.h:83:    RCC->CFGR |= (1 << 16);
 478              		.loc 2 83 7 is_stmt 0 view .LVU130
 479 0198 5A68     		ldr	r2, [r3, #4]	@ _15, MEM[(struct RCC_TypeDef *)1073876992B].CFGR
 480              	@ ../4-LCD_16x2/Me.h:83:    RCC->CFGR |= (1 << 16);
 481              		.loc 2 83 14 view .LVU131
 482 019a 42F48032 		orr	r2, r2, #65536	@ _16, _15,
 483 019e 5A60     		str	r2, [r3, #4]	@ _16, MEM[(struct RCC_TypeDef *)1073876992B].CFGR
  84:../4-LCD_16x2/Me.h ****    // Set PLL1 multiplication factor to 9
  85:../4-LCD_16x2/Me.h ****    RCC->CFGR |= (0b0111 << 18);
 484              		.loc 2 85 4 is_stmt 1 view .LVU132
 485              	@ ../4-LCD_16x2/Me.h:85:    RCC->CFGR |= (0b0111 << 18);
 486              		.loc 2 85 7 is_stmt 0 view .LVU133
 487 01a0 5A68     		ldr	r2, [r3, #4]	@ _17, MEM[(struct RCC_TypeDef *)1073876992B].CFGR
 488              	@ ../4-LCD_16x2/Me.h:85:    RCC->CFGR |= (0b0111 << 18);
ARM GAS  /tmp/ccTiGcp2.s 			page 13


 489              		.loc 2 85 14 view .LVU134
 490 01a2 42F4E012 		orr	r2, r2, #1835008	@ _18, _17,
 491 01a6 5A60     		str	r2, [r3, #4]	@ _18, MEM[(struct RCC_TypeDef *)1073876992B].CFGR
  86:../4-LCD_16x2/Me.h ****    // Set APB1 to 36MHz
  87:../4-LCD_16x2/Me.h ****    RCC->CFGR |= 1 << 10;
 492              		.loc 2 87 4 is_stmt 1 view .LVU135
 493              	@ ../4-LCD_16x2/Me.h:87:    RCC->CFGR |= 1 << 10;
 494              		.loc 2 87 7 is_stmt 0 view .LVU136
 495 01a8 5A68     		ldr	r2, [r3, #4]	@ _19, MEM[(struct RCC_TypeDef *)1073876992B].CFGR
 496              	@ ../4-LCD_16x2/Me.h:87:    RCC->CFGR |= 1 << 10;
 497              		.loc 2 87 14 view .LVU137
 498 01aa 42F48062 		orr	r2, r2, #1024	@ _20, _19,
 499 01ae 5A60     		str	r2, [r3, #4]	@ _20, MEM[(struct RCC_TypeDef *)1073876992B].CFGR
  88:../4-LCD_16x2/Me.h ****    // Enable PLL
  89:../4-LCD_16x2/Me.h ****    RCC->CR |= (1 << 24);
 500              		.loc 2 89 4 is_stmt 1 view .LVU138
 501              	@ ../4-LCD_16x2/Me.h:89:    RCC->CR |= (1 << 24);
 502              		.loc 2 89 7 is_stmt 0 view .LVU139
 503 01b0 1A68     		ldr	r2, [r3]	@ _21, MEM[(struct RCC_TypeDef *)1073876992B].CR
 504              	@ ../4-LCD_16x2/Me.h:89:    RCC->CR |= (1 << 24);
 505              		.loc 2 89 12 view .LVU140
 506 01b2 42F08072 		orr	r2, r2, #16777216	@ _22, _21,
 507 01b6 1A60     		str	r2, [r3]	@ _22, MEM[(struct RCC_TypeDef *)1073876992B].CR
  90:../4-LCD_16x2/Me.h ****    // Wait untill PLL settles down
  91:../4-LCD_16x2/Me.h ****    while (!(RCC->CR & (1 << 25)));
 508              		.loc 2 91 4 is_stmt 1 view .LVU141
 509              	.L18:
 510              		.loc 2 91 11 discriminator 1 view .LVU142
 511              	@ ../4-LCD_16x2/Me.h:91:    while (!(RCC->CR & (1 << 25)));
 512              		.loc 2 91 16 is_stmt 0 discriminator 1 view .LVU143
 513 01b8 1A68     		ldr	r2, [r3]	@ _23, MEM[(struct RCC_TypeDef *)1073876992B].CR
 514              	@ ../4-LCD_16x2/Me.h:91:    while (!(RCC->CR & (1 << 25)));
 515              		.loc 2 91 11 discriminator 1 view .LVU144
 516 01ba 9201     		lsls	r2, r2, #6	@, _23,
 517 01bc FCD5     		bpl	.L18		@,
  92:../4-LCD_16x2/Me.h ****    // Finally, choose PLL as the system clock
  93:../4-LCD_16x2/Me.h ****    RCC->CFGR |= (0b10 << 0);
 518              		.loc 2 93 4 is_stmt 1 view .LVU145
 519              	@ ../4-LCD_16x2/Me.h:93:    RCC->CFGR |= (0b10 << 0);
 520              		.loc 2 93 7 is_stmt 0 view .LVU146
 521 01be 5A68     		ldr	r2, [r3, #4]	@ _25, MEM[(struct RCC_TypeDef *)1073876992B].CFGR
 522              	@ ../4-LCD_16x2/Me.h:93:    RCC->CFGR |= (0b10 << 0);
 523              		.loc 2 93 14 view .LVU147
 524 01c0 42F00202 		orr	r2, r2, #2	@ _26, _25,
 525 01c4 5A60     		str	r2, [r3, #4]	@ _26, MEM[(struct RCC_TypeDef *)1073876992B].CFGR
 526              	@ ../4-LCD_16x2/Me.h:94: } 
  94:../4-LCD_16x2/Me.h **** } 
 527              		.loc 2 94 1 view .LVU148
 528 01c6 7047     		bx	lr	@
 529              	.L24:
 530              		.align	2
 531              	.L23:
 532 01c8 00200240 		.word	1073881088
 533              		.cfi_endproc
 534              	.LFE35:
 535              		.size	set_system_clock_to_72Mhz, .-set_system_clock_to_72Mhz
 536              		.align	1
ARM GAS  /tmp/ccTiGcp2.s 			page 14


 537              		.global	Delay
 538              		.syntax unified
 539              		.thumb
 540              		.thumb_func
 541              		.type	Delay, %function
 542              	Delay:
 543              	.LVL12:
 544              	.LFB36:
  95:../4-LCD_16x2/Me.h **** 
  96:../4-LCD_16x2/Me.h **** void Delay ( __IO u32 T ) { // T=1 ;  868µs -> T=1 ~ 526µs
 545              		.loc 2 96 27 is_stmt 1 view -0
 546              		.cfi_startproc
 547              		@ args = 0, pretend = 0, frame = 8
 548              		@ frame_needed = 0, uses_anonymous_args = 0
 549              		@ link register save eliminated.
  97:../4-LCD_16x2/Me.h ****   for ( T ; T > 0 ; T-- ){
 550              		.loc 2 97 3 view .LVU150
 551              	@ ../4-LCD_16x2/Me.h:96: void Delay ( __IO u32 T ) { // T=1 ;  868µs -> T=1 ~ 526µs
  96:../4-LCD_16x2/Me.h ****   for ( T ; T > 0 ; T-- ){
 552              		.loc 2 96 27 is_stmt 0 view .LVU151
 553 01cc 82B0     		sub	sp, sp, #8	@,,
 554              	.LCFI2:
 555              		.cfi_def_cfa_offset 8
 556              	@ ../4-LCD_16x2/Me.h:96: void Delay ( __IO u32 T ) { // T=1 ;  868µs -> T=1 ~ 526µs
  96:../4-LCD_16x2/Me.h ****   for ( T ; T > 0 ; T-- ){
 557              		.loc 2 96 27 view .LVU152
 558 01ce 0190     		str	r0, [sp, #4]	@ T, T
 559              	@ ../4-LCD_16x2/Me.h:97:   for ( T ; T > 0 ; T-- ){
 560              		.loc 2 97 3 view .LVU153
 561 01d0 019B     		ldr	r3, [sp, #4]	@ vol.0_9, T
 562              	@ ../4-LCD_16x2/Me.h:98:    TIM3->EGR |= ( 1 << 0 );
  98:../4-LCD_16x2/Me.h ****    TIM3->EGR |= ( 1 << 0 );
 563              		.loc 2 98 8 view .LVU154
 564 01d2 094A     		ldr	r2, .L30	@ tmp133,
 565              	.L26:
  97:../4-LCD_16x2/Me.h ****   for ( T ; T > 0 ; T-- ){
 566              		.loc 2 97 15 is_stmt 1 discriminator 1 view .LVU155
 567 01d4 019B     		ldr	r3, [sp, #4]	@ T.2_6, T
 568 01d6 0BB9     		cbnz	r3, .L28	@ T.2_6,
 569              	@ ../4-LCD_16x2/Me.h:101: }
  99:../4-LCD_16x2/Me.h ****    while ( TIM3->CNT < 5 ) ; /* 5 * 10-- Configurar para IR */
 100:../4-LCD_16x2/Me.h ****   }
 101:../4-LCD_16x2/Me.h **** }
 570              		.loc 2 101 1 is_stmt 0 view .LVU156
 571 01d8 02B0     		add	sp, sp, #8	@,,
 572              	.LCFI3:
 573              		.cfi_remember_state
 574              		.cfi_def_cfa_offset 0
 575              		@ sp needed	@
 576 01da 7047     		bx	lr	@
 577              	.L28:
 578              	.LCFI4:
 579              		.cfi_restore_state
  98:../4-LCD_16x2/Me.h ****    TIM3->EGR |= ( 1 << 0 );
 580              		.loc 2 98 4 is_stmt 1 view .LVU157
 581              	@ ../4-LCD_16x2/Me.h:98:    TIM3->EGR |= ( 1 << 0 );
  98:../4-LCD_16x2/Me.h ****    TIM3->EGR |= ( 1 << 0 );
ARM GAS  /tmp/ccTiGcp2.s 			page 15


 582              		.loc 2 98 8 is_stmt 0 view .LVU158
 583 01dc 938A     		ldrh	r3, [r2, #20]	@, MEM[(struct TIM_TypeDef *)1073742848B].EGR
 584 01de 9BB2     		uxth	r3, r3	@ _1, MEM[(struct TIM_TypeDef *)1073742848B].EGR
 585              	@ ../4-LCD_16x2/Me.h:98:    TIM3->EGR |= ( 1 << 0 );
  98:../4-LCD_16x2/Me.h ****    TIM3->EGR |= ( 1 << 0 );
 586              		.loc 2 98 14 view .LVU159
 587 01e0 43F00103 		orr	r3, r3, #1	@ _2, _1,
 588 01e4 9382     		strh	r3, [r2, #20]	@ movhi	@ _2, MEM[(struct TIM_TypeDef *)1073742848B].EGR
  99:../4-LCD_16x2/Me.h ****    while ( TIM3->CNT < 5 ) ; /* 5 * 10-- Configurar para IR */
 589              		.loc 2 99 4 is_stmt 1 view .LVU160
 590              	.L27:
  99:../4-LCD_16x2/Me.h ****    while ( TIM3->CNT < 5 ) ; /* 5 * 10-- Configurar para IR */
 591              		.loc 2 99 22 discriminator 1 view .LVU161
 592              	@ ../4-LCD_16x2/Me.h:99:    while ( TIM3->CNT < 5 ) ; /* 5 * 10-- Configurar para IR */
  99:../4-LCD_16x2/Me.h ****    while ( TIM3->CNT < 5 ) ; /* 5 * 10-- Configurar para IR */
 593              		.loc 2 99 16 is_stmt 0 discriminator 1 view .LVU162
 594 01e6 938C     		ldrh	r3, [r2, #36]	@, MEM[(struct TIM_TypeDef *)1073742848B].CNT
 595 01e8 9BB2     		uxth	r3, r3	@ _3, MEM[(struct TIM_TypeDef *)1073742848B].CNT
 596              	@ ../4-LCD_16x2/Me.h:99:    while ( TIM3->CNT < 5 ) ; /* 5 * 10-- Configurar para IR */
  99:../4-LCD_16x2/Me.h ****    while ( TIM3->CNT < 5 ) ; /* 5 * 10-- Configurar para IR */
 597              		.loc 2 99 22 discriminator 1 view .LVU163
 598 01ea 042B     		cmp	r3, #4	@ _3,
 599 01ec FBD9     		bls	.L27		@,
  97:../4-LCD_16x2/Me.h ****    TIM3->EGR |= ( 1 << 0 );
 600              		.loc 2 97 22 is_stmt 1 discriminator 2 view .LVU164
 601 01ee 019B     		ldr	r3, [sp, #4]	@ T.1_4, T
 602 01f0 013B     		subs	r3, r3, #1	@ _5, T.1_4,
 603 01f2 0193     		str	r3, [sp, #4]	@ _5, T
 604 01f4 EEE7     		b	.L26		@
 605              	.L31:
 606 01f6 00BF     		.align	2
 607              	.L30:
 608 01f8 00040040 		.word	1073742848
 609              		.cfi_endproc
 610              	.LFE36:
 611              		.size	Delay, .-Delay
 612              		.align	1
 613              		.global	enable_TIM3_delay
 614              		.syntax unified
 615              		.thumb
 616              		.thumb_func
 617              		.type	enable_TIM3_delay, %function
 618              	enable_TIM3_delay:
 619              	.LFB37:
 102:../4-LCD_16x2/Me.h **** 
 103:../4-LCD_16x2/Me.h **** void enable_TIM3_delay (void) {
 620              		.loc 2 103 31 view -0
 621              		.cfi_startproc
 622              		@ args = 0, pretend = 0, frame = 0
 623              		@ frame_needed = 0, uses_anonymous_args = 0
 624              		@ link register save eliminated.
 104:../4-LCD_16x2/Me.h ****    RCC->APB1ENR |= 1<<1 ;
 625              		.loc 2 104 4 view .LVU166
 626              	@ ../4-LCD_16x2/Me.h:104:    RCC->APB1ENR |= 1<<1 ;
 627              		.loc 2 104 7 is_stmt 0 view .LVU167
 628 01fc 084A     		ldr	r2, .L33	@ tmp118,
 629 01fe D369     		ldr	r3, [r2, #28]	@ _1, MEM[(struct RCC_TypeDef *)1073876992B].APB1ENR
ARM GAS  /tmp/ccTiGcp2.s 			page 16


 630              	@ ../4-LCD_16x2/Me.h:104:    RCC->APB1ENR |= 1<<1 ;
 631              		.loc 2 104 17 view .LVU168
 632 0200 43F00203 		orr	r3, r3, #2	@ _2, _1,
 633 0204 D361     		str	r3, [r2, #28]	@ _2, MEM[(struct RCC_TypeDef *)1073876992B].APB1ENR
 105:../4-LCD_16x2/Me.h ****    TIM3->CR1 = 0x0000;
 634              		.loc 2 105 4 is_stmt 1 view .LVU169
 635              	@ ../4-LCD_16x2/Me.h:105:    TIM3->CR1 = 0x0000;
 636              		.loc 2 105 14 is_stmt 0 view .LVU170
 637 0206 0023     		movs	r3, #0	@ tmp122,
 638 0208 A2F50332 		sub	r2, r2, #134144	@ tmp120, tmp120,
 639 020c 1380     		strh	r3, [r2]	@ movhi	@ tmp122, MEM[(struct TIM_TypeDef *)1073742848B].CR1
 106:../4-LCD_16x2/Me.h ****    //TIM3->ARR = 21699;
 107:../4-LCD_16x2/Me.h ****    // TIM3->ARR = 250-1; // 10µs
 108:../4-LCD_16x2/Me.h ****    TIM3->ARR = 720-1; // 10µs
 640              		.loc 2 108 4 is_stmt 1 view .LVU171
 641              	@ ../4-LCD_16x2/Me.h:108:    TIM3->ARR = 720-1; // 10µs
 642              		.loc 2 108 14 is_stmt 0 view .LVU172
 643 020e 40F2CF23 		movw	r3, #719	@ tmp125,
 644 0212 9385     		strh	r3, [r2, #44]	@ movhi	@ tmp125, MEM[(struct TIM_TypeDef *)1073742848B].ARR
 109:../4-LCD_16x2/Me.h ****    // para obter o período de 868µs
 110:../4-LCD_16x2/Me.h **** /*https://www.vishay.com/docs/80071/dataform.pdf PAG 2
 111:../4-LCD_16x2/Me.h ****  * https://controllerstech.com/ir-remote-with-stm32/
 112:../4-LCD_16x2/Me.h ****  * Per=(1+ARR)/Clock_system */
 113:../4-LCD_16x2/Me.h ****    TIM3->CR1 |= 1<<0;
 645              		.loc 2 113 4 is_stmt 1 view .LVU173
 646              	@ ../4-LCD_16x2/Me.h:113:    TIM3->CR1 |= 1<<0;
 647              		.loc 2 113 8 is_stmt 0 view .LVU174
 648 0214 1388     		ldrh	r3, [r2]	@, MEM[(struct TIM_TypeDef *)1073742848B].CR1
 649 0216 9BB2     		uxth	r3, r3	@ _3, MEM[(struct TIM_TypeDef *)1073742848B].CR1
 650              	@ ../4-LCD_16x2/Me.h:113:    TIM3->CR1 |= 1<<0;
 651              		.loc 2 113 14 view .LVU175
 652 0218 43F00103 		orr	r3, r3, #1	@ _4, _3,
 653 021c 1380     		strh	r3, [r2]	@ movhi	@ _4, MEM[(struct TIM_TypeDef *)1073742848B].CR1
 654              	@ ../4-LCD_16x2/Me.h:114: }
 114:../4-LCD_16x2/Me.h **** }
 655              		.loc 2 114 1 view .LVU176
 656 021e 7047     		bx	lr	@
 657              	.L34:
 658              		.align	2
 659              	.L33:
 660 0220 00100240 		.word	1073876992
 661              		.cfi_endproc
 662              	.LFE37:
 663              		.size	enable_TIM3_delay, .-enable_TIM3_delay
 664              		.align	1
 665              		.global	enable_interrupt
 666              		.syntax unified
 667              		.thumb
 668              		.thumb_func
 669              		.type	enable_interrupt, %function
 670              	enable_interrupt:
 671              	.LVL13:
 672              	.LFB38:
 115:../4-LCD_16x2/Me.h **** 
 116:../4-LCD_16x2/Me.h **** void enable_interrupt(IRQn_Type IRQn)
 117:../4-LCD_16x2/Me.h **** {
 673              		.loc 2 117 1 is_stmt 1 view -0
ARM GAS  /tmp/ccTiGcp2.s 			page 17


 674              		.cfi_startproc
 675              		@ args = 0, pretend = 0, frame = 0
 676              		@ frame_needed = 0, uses_anonymous_args = 0
 677              		@ link register save eliminated.
 118:../4-LCD_16x2/Me.h ****    NVIC->ISER[((uint32_t)(IRQn) >> 5)] = (1 << ((uint32_t)(IRQn) & 0x1F));
 678              		.loc 2 118 4 view .LVU178
 679              	@ ../4-LCD_16x2/Me.h:118:    NVIC->ISER[((uint32_t)(IRQn) >> 5)] = (1 << ((uint32_t)(IRQn) & 0x1F))
 680              		.loc 2 118 45 is_stmt 0 view .LVU179
 681 0224 0123     		movs	r3, #1	@ tmp123,
 682              	@ ../4-LCD_16x2/Me.h:118:    NVIC->ISER[((uint32_t)(IRQn) >> 5)] = (1 << ((uint32_t)(IRQn) & 0x1F))
 683              		.loc 2 118 33 view .LVU180
 684 0226 4109     		lsrs	r1, r0, #5	@ _5, IRQn,
 685              	@ ../4-LCD_16x2/Me.h:118:    NVIC->ISER[((uint32_t)(IRQn) >> 5)] = (1 << ((uint32_t)(IRQn) & 0x1F))
 686              		.loc 2 118 40 view .LVU181
 687 0228 034A     		ldr	r2, .L36	@ tmp124,
 688              	@ ../4-LCD_16x2/Me.h:118:    NVIC->ISER[((uint32_t)(IRQn) >> 5)] = (1 << ((uint32_t)(IRQn) & 0x1F))
 689              		.loc 2 118 66 view .LVU182
 690 022a 00F01F00 		and	r0, r0, #31	@ tmp122, IRQn,
 691              	.LVL14:
 692              	@ ../4-LCD_16x2/Me.h:118:    NVIC->ISER[((uint32_t)(IRQn) >> 5)] = (1 << ((uint32_t)(IRQn) & 0x1F))
 693              		.loc 2 118 45 view .LVU183
 694 022e 8340     		lsls	r3, r3, r0	@ _6, tmp123, tmp122
 695              	@ ../4-LCD_16x2/Me.h:118:    NVIC->ISER[((uint32_t)(IRQn) >> 5)] = (1 << ((uint32_t)(IRQn) & 0x1F))
 696              		.loc 2 118 40 view .LVU184
 697 0230 42F82130 		str	r3, [r2, r1, lsl #2]	@ _6, MEM[(struct NVIC_Type *)3758153984B].ISER[_5]
 698              	@ ../4-LCD_16x2/Me.h:119: }  
 119:../4-LCD_16x2/Me.h **** }  
 699              		.loc 2 119 1 view .LVU185
 700 0234 7047     		bx	lr	@
 701              	.L37:
 702 0236 00BF     		.align	2
 703              	.L36:
 704 0238 00E100E0 		.word	-536813312
 705              		.cfi_endproc
 706              	.LFE38:
 707              		.size	enable_interrupt, .-enable_interrupt
 708              		.align	1
 709              		.global	disable_interrupt
 710              		.syntax unified
 711              		.thumb
 712              		.thumb_func
 713              		.type	disable_interrupt, %function
 714              	disable_interrupt:
 715              	.LVL15:
 716              	.LFB39:
 120:../4-LCD_16x2/Me.h ****    
 121:../4-LCD_16x2/Me.h **** /* 
 122:../4-LCD_16x2/Me.h ****  * Disable given interrupt
 123:../4-LCD_16x2/Me.h ****  */
 124:../4-LCD_16x2/Me.h **** void disable_interrupt(IRQn_Type IRQn)
 125:../4-LCD_16x2/Me.h **** {
 717              		.loc 2 125 1 is_stmt 1 view -0
 718              		.cfi_startproc
 719              		@ args = 0, pretend = 0, frame = 0
 720              		@ frame_needed = 0, uses_anonymous_args = 0
 721              		@ link register save eliminated.
 126:../4-LCD_16x2/Me.h ****    NVIC->ICER[((uint32_t)(IRQn) >> 5)] = (1 << ((uint32_t)(IRQn) & 0x1F));
ARM GAS  /tmp/ccTiGcp2.s 			page 18


 722              		.loc 2 126 4 view .LVU187
 723              	@ ../4-LCD_16x2/Me.h:126:    NVIC->ICER[((uint32_t)(IRQn) >> 5)] = (1 << ((uint32_t)(IRQn) & 0x1F))
 724              		.loc 2 126 45 is_stmt 0 view .LVU188
 725 023c 0122     		movs	r2, #1	@ tmp123,
 726              	@ ../4-LCD_16x2/Me.h:126:    NVIC->ICER[((uint32_t)(IRQn) >> 5)] = (1 << ((uint32_t)(IRQn) & 0x1F))
 727              		.loc 2 126 33 view .LVU189
 728 023e 4309     		lsrs	r3, r0, #5	@ _5, IRQn,
 729              	@ ../4-LCD_16x2/Me.h:126:    NVIC->ICER[((uint32_t)(IRQn) >> 5)] = (1 << ((uint32_t)(IRQn) & 0x1F))
 730              		.loc 2 126 40 view .LVU190
 731 0240 0349     		ldr	r1, .L39	@ tmp124,
 732              	@ ../4-LCD_16x2/Me.h:126:    NVIC->ICER[((uint32_t)(IRQn) >> 5)] = (1 << ((uint32_t)(IRQn) & 0x1F))
 733              		.loc 2 126 66 view .LVU191
 734 0242 00F01F00 		and	r0, r0, #31	@ tmp122, IRQn,
 735              	.LVL16:
 736              	@ ../4-LCD_16x2/Me.h:126:    NVIC->ICER[((uint32_t)(IRQn) >> 5)] = (1 << ((uint32_t)(IRQn) & 0x1F))
 737              		.loc 2 126 45 view .LVU192
 738 0246 8240     		lsls	r2, r2, r0	@ _6, tmp123, tmp122
 739              	@ ../4-LCD_16x2/Me.h:126:    NVIC->ICER[((uint32_t)(IRQn) >> 5)] = (1 << ((uint32_t)(IRQn) & 0x1F))
 740              		.loc 2 126 40 view .LVU193
 741 0248 2033     		adds	r3, r3, #32	@ tmp125, _5,
 742 024a 41F82320 		str	r2, [r1, r3, lsl #2]	@ _6, MEM[(struct NVIC_Type *)3758153984B].ICER[_5]
 743              	@ ../4-LCD_16x2/Me.h:127: }
 127:../4-LCD_16x2/Me.h **** }
 744              		.loc 2 127 1 view .LVU194
 745 024e 7047     		bx	lr	@
 746              	.L40:
 747              		.align	2
 748              	.L39:
 749 0250 00E100E0 		.word	-536813312
 750              		.cfi_endproc
 751              	.LFE39:
 752              		.size	disable_interrupt, .-disable_interrupt
 753              		.section	.rodata.str1.1
 754              	.LC2:
 755 0019 4C43445F 		.ascii	"LCD_16x2\000"
 755      31367832 
 755      00
 756              	.LC3:
 757 0022 4C45445F 		.ascii	"LED_13\000"
 757      313300
 758              		.section	.text.startup,"ax",%progbits
 759              		.align	1
 760              		.global	main
 761              		.syntax unified
 762              		.thumb
 763              		.thumb_func
 764              		.type	main, %function
 765              	main:
 766              	.LFB43:
  67:../4-LCD_16x2/main.c **** 	}
  68:../4-LCD_16x2/main.c **** }
  69:../4-LCD_16x2/main.c **** 
  70:../4-LCD_16x2/main.c **** static void task3(void *args __attribute ((unused))){
  71:../4-LCD_16x2/main.c **** 	while(1){
  72:../4-LCD_16x2/main.c **** 	}
  73:../4-LCD_16x2/main.c **** }
  74:../4-LCD_16x2/main.c **** 
ARM GAS  /tmp/ccTiGcp2.s 			page 19


  75:../4-LCD_16x2/main.c **** int main(void) {
 767              		.loc 1 75 16 is_stmt 1 view -0
 768              		.cfi_startproc
 769              		@ Volatile: function does not return.
 770              		@ args = 0, pretend = 0, frame = 0
 771              		@ frame_needed = 0, uses_anonymous_args = 0
  76:../4-LCD_16x2/main.c **** 	xQueue = xQueueCreate(5 /* Tamanho máximo da fila. */,
 772              		.loc 1 76 2 view .LVU196
 773              	@ ../4-LCD_16x2/main.c:82: 	xTaskCreate(task1,"LCD_16x2", 100 ,NULL, 4 ,NULL);
  77:../4-LCD_16x2/main.c **** 								sizeof(u32) /* Largura máxima da fila. */);
  78:../4-LCD_16x2/main.c **** 
  79:../4-LCD_16x2/main.c **** 	set_system_clock_to_72Mhz();
  80:../4-LCD_16x2/main.c **** //	enable_TIM3_delay();
  81:../4-LCD_16x2/main.c **** 
  82:../4-LCD_16x2/main.c **** 	xTaskCreate(task1,"LCD_16x2", 100 ,NULL, 4 ,NULL);
 774              		.loc 1 82 2 is_stmt 0 view .LVU197
 775 0000 0024     		movs	r4, #0	@ tmp117,
 776 0002 0425     		movs	r5, #4	@ tmp118,
 777              	@ ../4-LCD_16x2/main.c:75: int main(void) {
  75:../4-LCD_16x2/main.c **** 	xQueue = xQueueCreate(5 /* Tamanho máximo da fila. */,
 778              		.loc 1 75 16 view .LVU198
 779 0004 07B5     		push	{r0, r1, r2, lr}	@
 780              	.LCFI5:
 781              		.cfi_def_cfa_offset 16
 782              		.cfi_offset 14, -4
 783              	@ ../4-LCD_16x2/main.c:76: 	xQueue = xQueueCreate(5 /* Tamanho máximo da fila. */,
  76:../4-LCD_16x2/main.c **** 	xQueue = xQueueCreate(5 /* Tamanho máximo da fila. */,
 784              		.loc 1 76 11 view .LVU199
 785 0006 0022     		movs	r2, #0	@,
 786 0008 0421     		movs	r1, #4	@,
 787 000a 0520     		movs	r0, #5	@,
 788 000c FFF7FEFF 		bl	xQueueGenericCreate		@
 789              	.LVL17:
  79:../4-LCD_16x2/main.c **** //	enable_TIM3_delay();
 790              		.loc 1 79 2 is_stmt 1 view .LVU200
 791 0010 FFF7FEFF 		bl	set_system_clock_to_72Mhz		@
 792              	.LVL18:
 793              		.loc 1 82 2 view .LVU201
 794 0014 0948     		ldr	r0, .L43	@,
 795 0016 2346     		mov	r3, r4	@, tmp117
 796 0018 6422     		movs	r2, #100	@,
 797 001a 0949     		ldr	r1, .L43+4	@,
 798 001c CDE90054 		strd	r5, r4, [sp]	@ tmp118, tmp117,
 799 0020 FFF7FEFF 		bl	xTaskCreate		@
 800              	.LVL19:
  83:../4-LCD_16x2/main.c **** 	xTaskCreate(task2, "LED_13", 100 , NULL, 4 , NULL);
 801              		.loc 1 83 2 view .LVU202
 802 0024 2346     		mov	r3, r4	@, tmp117
 803 0026 6422     		movs	r2, #100	@,
 804 0028 0649     		ldr	r1, .L43+8	@,
 805 002a CDE90054 		strd	r5, r4, [sp]	@ tmp118, tmp117,
 806 002e 0648     		ldr	r0, .L43+12	@,
 807 0030 FFF7FEFF 		bl	xTaskCreate		@
 808              	.LVL20:
  84:../4-LCD_16x2/main.c **** 	//xTaskCreate(task3, "3", 100 , NULL, 4 , NULL);
  85:../4-LCD_16x2/main.c **** 
  86:../4-LCD_16x2/main.c **** 	vTaskStartScheduler(); // inicia o escalonador de
ARM GAS  /tmp/ccTiGcp2.s 			page 20


 809              		.loc 1 86 2 view .LVU203
 810 0034 FFF7FEFF 		bl	vTaskStartScheduler		@
 811              	.LVL21:
 812              	.L42:
  87:../4-LCD_16x2/main.c **** 								  // processos.
  88:../4-LCD_16x2/main.c **** 	while(1);
 813              		.loc 1 88 2 view .LVU204
 814              		.loc 1 88 7 view .LVU205
 815 0038 FEE7     		b	.L42		@
 816              	.L44:
 817 003a 00BF     		.align	2
 818              	.L43:
 819 003c 00000000 		.word	task1
 820 0040 19000000 		.word	.LC2
 821 0044 22000000 		.word	.LC3
 822 0048 00000000 		.word	task2
 823              		.cfi_endproc
 824              	.LFE43:
 825              		.size	main, .-main
 826              		.text
 827              	.Letext0:
 828              		.file 3 "/usr/arm-none-eabi/include/machine/_default_types.h"
 829              		.file 4 "/usr/arm-none-eabi/include/sys/_stdint.h"
 830              		.file 5 "../freertos/include/projdefs.h"
 831              		.file 6 "../freertos/portable/GCC/ARM_CM3/portmacro.h"
 832              		.file 7 "../freertos/include/task.h"
 833              		.file 8 "../freertos/include/queue.h"
 834              		.file 9 "../stm32f10x_lib/CMSIS/CM3/DeviceSupport/ST/STM32F10x/stm32f10x.h"
 835              		.file 10 "../stm32f10x_lib/CMSIS/CM3/CoreSupport/core_cm3.h"
 836              		.file 11 "../4-LCD_16x2/myLcd.h"
 837              		.section	.debug_info,"",%progbits
 838              	.Ldebug_info0:
 839 0000 9A0D0000 		.4byte	0xd9a
 840 0004 0200     		.2byte	0x2
 841 0006 00000000 		.4byte	.Ldebug_abbrev0
 842 000a 04       		.byte	0x4
 843 000b 01       		.uleb128 0x1
 844 000c 26010000 		.4byte	.LASF167
 845 0010 0C       		.byte	0xc
 846 0011 FA020000 		.4byte	.LASF168
 847 0015 CD030000 		.4byte	.LASF169
 848 0019 00000000 		.4byte	.Ldebug_ranges0+0
 849 001d 00000000 		.4byte	0
 850 0021 00000000 		.4byte	0
 851 0025 00000000 		.4byte	.Ldebug_line0
 852 0029 02       		.uleb128 0x2
 853 002a 08       		.byte	0x8
 854 002b 07       		.byte	0x7
 855 002c 06010000 		.4byte	.LASF0
 856 0030 02       		.uleb128 0x2
 857 0031 04       		.byte	0x4
 858 0032 07       		.byte	0x7
 859 0033 0F030000 		.4byte	.LASF1
 860 0037 02       		.uleb128 0x2
 861 0038 01       		.byte	0x1
 862 0039 08       		.byte	0x8
 863 003a 50050000 		.4byte	.LASF2
ARM GAS  /tmp/ccTiGcp2.s 			page 21


 864 003e 03       		.uleb128 0x3
 865 003f 04       		.byte	0x4
 866 0040 05       		.byte	0x5
 867 0041 696E7400 		.ascii	"int\000"
 868 0045 02       		.uleb128 0x2
 869 0046 08       		.byte	0x8
 870 0047 05       		.byte	0x5
 871 0048 B9000000 		.4byte	.LASF3
 872 004c 02       		.uleb128 0x2
 873 004d 08       		.byte	0x8
 874 004e 04       		.byte	0x4
 875 004f 35060000 		.4byte	.LASF4
 876 0053 02       		.uleb128 0x2
 877 0054 01       		.byte	0x1
 878 0055 06       		.byte	0x6
 879 0056 C7000000 		.4byte	.LASF5
 880 005a 04       		.uleb128 0x4
 881 005b 37000000 		.4byte	.LASF7
 882 005f 03       		.byte	0x3
 883 0060 2B       		.byte	0x2b
 884 0061 18       		.byte	0x18
 885 0062 37000000 		.4byte	0x37
 886 0066 02       		.uleb128 0x2
 887 0067 02       		.byte	0x2
 888 0068 05       		.byte	0x5
 889 0069 7D050000 		.4byte	.LASF6
 890 006d 04       		.uleb128 0x4
 891 006e A6020000 		.4byte	.LASF8
 892 0072 03       		.byte	0x3
 893 0073 39       		.byte	0x39
 894 0074 19       		.byte	0x19
 895 0075 79000000 		.4byte	0x79
 896 0079 02       		.uleb128 0x2
 897 007a 02       		.byte	0x2
 898 007b 07       		.byte	0x7
 899 007c 80020000 		.4byte	.LASF9
 900 0080 02       		.uleb128 0x2
 901 0081 04       		.byte	0x4
 902 0082 05       		.byte	0x5
 903 0083 F6010000 		.4byte	.LASF10
 904 0087 04       		.uleb128 0x4
 905 0088 B1020000 		.4byte	.LASF11
 906 008c 03       		.byte	0x3
 907 008d 4F       		.byte	0x4f
 908 008e 19       		.byte	0x19
 909 008f 93000000 		.4byte	0x93
 910 0093 02       		.uleb128 0x2
 911 0094 04       		.byte	0x4
 912 0095 07       		.byte	0x7
 913 0096 32030000 		.4byte	.LASF12
 914 009a 04       		.uleb128 0x4
 915 009b 56070000 		.4byte	.LASF13
 916 009f 04       		.byte	0x4
 917 00a0 18       		.byte	0x18
 918 00a1 13       		.byte	0x13
 919 00a2 5A000000 		.4byte	0x5a
 920 00a6 05       		.uleb128 0x5
ARM GAS  /tmp/ccTiGcp2.s 			page 22


 921 00a7 9A000000 		.4byte	0x9a
 922 00ab 06       		.uleb128 0x6
 923 00ac 9A000000 		.4byte	0x9a
 924 00b0 04       		.uleb128 0x4
 925 00b1 48020000 		.4byte	.LASF14
 926 00b5 04       		.byte	0x4
 927 00b6 24       		.byte	0x24
 928 00b7 14       		.byte	0x14
 929 00b8 6D000000 		.4byte	0x6d
 930 00bc 05       		.uleb128 0x5
 931 00bd B0000000 		.4byte	0xb0
 932 00c1 06       		.uleb128 0x6
 933 00c2 B0000000 		.4byte	0xb0
 934 00c6 04       		.uleb128 0x4
 935 00c7 06060000 		.4byte	.LASF15
 936 00cb 04       		.byte	0x4
 937 00cc 30       		.byte	0x30
 938 00cd 14       		.byte	0x14
 939 00ce 87000000 		.4byte	0x87
 940 00d2 05       		.uleb128 0x5
 941 00d3 C6000000 		.4byte	0xc6
 942 00d7 04       		.uleb128 0x4
 943 00d8 DC060000 		.4byte	.LASF16
 944 00dc 05       		.byte	0x5
 945 00dd 23       		.byte	0x23
 946 00de 10       		.byte	0x10
 947 00df E3000000 		.4byte	0xe3
 948 00e3 07       		.uleb128 0x7
 949 00e4 04       		.byte	0x4
 950 00e5 E9000000 		.4byte	0xe9
 951 00e9 08       		.uleb128 0x8
 952 00ea 01       		.byte	0x1
 953 00eb F5000000 		.4byte	0xf5
 954 00ef 09       		.uleb128 0x9
 955 00f0 F5000000 		.4byte	0xf5
 956 00f4 00       		.byte	0
 957 00f5 0A       		.uleb128 0xa
 958 00f6 04       		.byte	0x4
 959 00f7 06       		.uleb128 0x6
 960 00f8 F5000000 		.4byte	0xf5
 961 00fc 04       		.uleb128 0x4
 962 00fd 5D020000 		.4byte	.LASF17
 963 0101 06       		.byte	0x6
 964 0102 38       		.byte	0x38
 965 0103 0E       		.byte	0xe
 966 0104 80000000 		.4byte	0x80
 967 0108 04       		.uleb128 0x4
 968 0109 AF070000 		.4byte	.LASF18
 969 010d 06       		.byte	0x6
 970 010e 39       		.byte	0x39
 971 010f 17       		.byte	0x17
 972 0110 93000000 		.4byte	0x93
 973 0114 06       		.uleb128 0x6
 974 0115 08010000 		.4byte	0x108
 975 0119 04       		.uleb128 0x4
 976 011a 5E040000 		.4byte	.LASF19
 977 011e 06       		.byte	0x6
ARM GAS  /tmp/ccTiGcp2.s 			page 23


 978 011f 3F       		.byte	0x3f
 979 0120 13       		.byte	0x13
 980 0121 C6000000 		.4byte	0xc6
 981 0125 06       		.uleb128 0x6
 982 0126 19010000 		.4byte	0x119
 983 012a 04       		.uleb128 0x4
 984 012b 2E020000 		.4byte	.LASF20
 985 012f 07       		.byte	0x7
 986 0130 46       		.byte	0x46
 987 0131 25       		.byte	0x25
 988 0132 36010000 		.4byte	0x136
 989 0136 07       		.uleb128 0x7
 990 0137 04       		.byte	0x4
 991 0138 3C010000 		.4byte	0x13c
 992 013c 0B       		.uleb128 0xb
 993 013d FF010000 		.4byte	.LASF23
 994 0141 01       		.byte	0x1
 995 0142 07       		.uleb128 0x7
 996 0143 04       		.byte	0x4
 997 0144 54010000 		.4byte	0x154
 998 0148 06       		.uleb128 0x6
 999 0149 42010000 		.4byte	0x142
 1000 014d 02       		.uleb128 0x2
 1001 014e 01       		.byte	0x1
 1002 014f 08       		.byte	0x8
 1003 0150 59060000 		.4byte	.LASF21
 1004 0154 06       		.uleb128 0x6
 1005 0155 4D010000 		.4byte	0x14d
 1006 0159 04       		.uleb128 0x4
 1007 015a 80000000 		.4byte	.LASF22
 1008 015e 08       		.byte	0x8
 1009 015f 30       		.byte	0x30
 1010 0160 22       		.byte	0x22
 1011 0161 65010000 		.4byte	0x165
 1012 0165 07       		.uleb128 0x7
 1013 0166 04       		.byte	0x4
 1014 0167 6B010000 		.4byte	0x16b
 1015 016b 0B       		.uleb128 0xb
 1016 016c 26050000 		.4byte	.LASF24
 1017 0170 01       		.byte	0x1
 1018 0171 0C       		.uleb128 0xc
 1019 0172 04040000 		.4byte	.LASF161
 1020 0176 05       		.byte	0x5
 1021 0177 01       		.byte	0x1
 1022 0178 53000000 		.4byte	0x53
 1023 017c 09       		.byte	0x9
 1024 017d A7       		.byte	0xa7
 1025 017e 0E       		.byte	0xe
 1026 017f B6020000 		.4byte	0x2b6
 1027 0183 0D       		.uleb128 0xd
 1028 0184 94060000 		.4byte	.LASF25
 1029 0188 72       		.sleb128 -14
 1030 0189 0D       		.uleb128 0xd
 1031 018a 1C030000 		.4byte	.LASF26
 1032 018e 74       		.sleb128 -12
 1033 018f 0D       		.uleb128 0xd
 1034 0190 CE020000 		.4byte	.LASF27
ARM GAS  /tmp/ccTiGcp2.s 			page 24


 1035 0194 75       		.sleb128 -11
 1036 0195 0D       		.uleb128 0xd
 1037 0196 25060000 		.4byte	.LASF28
 1038 019a 76       		.sleb128 -10
 1039 019b 0D       		.uleb128 0xd
 1040 019c 34040000 		.4byte	.LASF29
 1041 01a0 7B       		.sleb128 -5
 1042 01a1 0D       		.uleb128 0xd
 1043 01a2 A1030000 		.4byte	.LASF30
 1044 01a6 7C       		.sleb128 -4
 1045 01a7 0D       		.uleb128 0xd
 1046 01a8 74020000 		.4byte	.LASF31
 1047 01ac 7E       		.sleb128 -2
 1048 01ad 0D       		.uleb128 0xd
 1049 01ae B3030000 		.4byte	.LASF32
 1050 01b2 7F       		.sleb128 -1
 1051 01b3 0E       		.uleb128 0xe
 1052 01b4 99000000 		.4byte	.LASF33
 1053 01b8 00       		.byte	0
 1054 01b9 0E       		.uleb128 0xe
 1055 01ba 0A000000 		.4byte	.LASF34
 1056 01be 01       		.byte	0x1
 1057 01bf 0E       		.uleb128 0xe
 1058 01c0 C3060000 		.4byte	.LASF35
 1059 01c4 02       		.byte	0x2
 1060 01c5 0E       		.uleb128 0xe
 1061 01c6 4D000000 		.4byte	.LASF36
 1062 01ca 03       		.byte	0x3
 1063 01cb 0E       		.uleb128 0xe
 1064 01cc DF050000 		.4byte	.LASF37
 1065 01d0 04       		.byte	0x4
 1066 01d1 0E       		.uleb128 0xe
 1067 01d2 C9070000 		.4byte	.LASF38
 1068 01d6 05       		.byte	0x5
 1069 01d7 0E       		.uleb128 0xe
 1070 01d8 D8000000 		.4byte	.LASF39
 1071 01dc 06       		.byte	0x6
 1072 01dd 0E       		.uleb128 0xe
 1073 01de DC070000 		.4byte	.LASF40
 1074 01e2 07       		.byte	0x7
 1075 01e3 0E       		.uleb128 0xe
 1076 01e4 8E000000 		.4byte	.LASF41
 1077 01e8 08       		.byte	0x8
 1078 01e9 0E       		.uleb128 0xe
 1079 01ea 45070000 		.4byte	.LASF42
 1080 01ee 09       		.byte	0x9
 1081 01ef 0E       		.uleb128 0xe
 1082 01f0 72050000 		.4byte	.LASF43
 1083 01f4 0A       		.byte	0xa
 1084 01f5 0E       		.uleb128 0xe
 1085 01f6 B9040000 		.4byte	.LASF44
 1086 01fa 0B       		.byte	0xb
 1087 01fb 0E       		.uleb128 0xe
 1088 01fc 21040000 		.4byte	.LASF45
 1089 0200 0C       		.byte	0xc
 1090 0201 0E       		.uleb128 0xe
 1091 0202 46060000 		.4byte	.LASF46
ARM GAS  /tmp/ccTiGcp2.s 			page 25


 1092 0206 0D       		.byte	0xd
 1093 0207 0E       		.uleb128 0xe
 1094 0208 93020000 		.4byte	.LASF47
 1095 020c 0E       		.byte	0xe
 1096 020d 0E       		.uleb128 0xe
 1097 020e 69030000 		.4byte	.LASF48
 1098 0212 0F       		.byte	0xf
 1099 0213 0E       		.uleb128 0xe
 1100 0214 A8060000 		.4byte	.LASF49
 1101 0218 10       		.byte	0x10
 1102 0219 0E       		.uleb128 0xe
 1103 021a 80070000 		.4byte	.LASF50
 1104 021e 11       		.byte	0x11
 1105 021f 0E       		.uleb128 0xe
 1106 0220 68020000 		.4byte	.LASF51
 1107 0224 12       		.byte	0x12
 1108 0225 0E       		.uleb128 0xe
 1109 0226 5E050000 		.4byte	.LASF52
 1110 022a 13       		.byte	0x13
 1111 022b 0E       		.uleb128 0xe
 1112 022c 9F050000 		.4byte	.LASF53
 1113 0230 14       		.byte	0x14
 1114 0231 0E       		.uleb128 0xe
 1115 0232 56000000 		.4byte	.LASF54
 1116 0236 15       		.byte	0x15
 1117 0237 0E       		.uleb128 0xe
 1118 0238 BB070000 		.4byte	.LASF55
 1119 023c 16       		.byte	0x16
 1120 023d 0E       		.uleb128 0xe
 1121 023e 21020000 		.4byte	.LASF56
 1122 0242 17       		.byte	0x17
 1123 0243 0E       		.uleb128 0xe
 1124 0244 5E060000 		.4byte	.LASF57
 1125 0248 18       		.byte	0x18
 1126 0249 0E       		.uleb128 0xe
 1127 024a CF060000 		.4byte	.LASF58
 1128 024e 19       		.byte	0x19
 1129 024f 0E       		.uleb128 0xe
 1130 0250 18000000 		.4byte	.LASF59
 1131 0254 1A       		.byte	0x1a
 1132 0255 0E       		.uleb128 0xe
 1133 0256 C0030000 		.4byte	.LASF60
 1134 025a 1B       		.byte	0x1b
 1135 025b 0E       		.uleb128 0xe
 1136 025c 20070000 		.4byte	.LASF61
 1137 0260 1C       		.byte	0x1c
 1138 0261 0E       		.uleb128 0xe
 1139 0262 D2070000 		.4byte	.LASF62
 1140 0266 1D       		.byte	0x1d
 1141 0267 0E       		.uleb128 0xe
 1142 0268 76000000 		.4byte	.LASF63
 1143 026c 1E       		.byte	0x1e
 1144 026d 0E       		.uleb128 0xe
 1145 026e 2A000000 		.4byte	.LASF64
 1146 0272 1F       		.byte	0x1f
 1147 0273 0E       		.uleb128 0xe
 1148 0274 98070000 		.4byte	.LASF65
ARM GAS  /tmp/ccTiGcp2.s 			page 26


 1149 0278 20       		.byte	0x20
 1150 0279 0E       		.uleb128 0xe
 1151 027a 40040000 		.4byte	.LASF66
 1152 027e 21       		.byte	0x21
 1153 027f 0E       		.uleb128 0xe
 1154 0280 69000000 		.4byte	.LASF67
 1155 0284 22       		.byte	0x22
 1156 0285 0E       		.uleb128 0xe
 1157 0286 97030000 		.4byte	.LASF68
 1158 028a 23       		.byte	0x23
 1159 028b 0E       		.uleb128 0xe
 1160 028c 6F040000 		.4byte	.LASF69
 1161 0290 24       		.byte	0x24
 1162 0291 0E       		.uleb128 0xe
 1163 0292 34070000 		.4byte	.LASF70
 1164 0296 25       		.byte	0x25
 1165 0297 0E       		.uleb128 0xe
 1166 0298 19060000 		.4byte	.LASF71
 1167 029c 26       		.byte	0x26
 1168 029d 0E       		.uleb128 0xe
 1169 029e 0F070000 		.4byte	.LASF72
 1170 02a2 27       		.byte	0x27
 1171 02a3 0E       		.uleb128 0xe
 1172 02a4 88030000 		.4byte	.LASF73
 1173 02a8 28       		.byte	0x28
 1174 02a9 0E       		.uleb128 0xe
 1175 02aa 71060000 		.4byte	.LASF74
 1176 02ae 29       		.byte	0x29
 1177 02af 0E       		.uleb128 0xe
 1178 02b0 EB060000 		.4byte	.LASF75
 1179 02b4 2A       		.byte	0x2a
 1180 02b5 00       		.byte	0
 1181 02b6 0F       		.uleb128 0xf
 1182 02b7 FC050000 		.4byte	.LASF76
 1183 02bb 09       		.byte	0x9
 1184 02bc D801     		.2byte	0x1d8
 1185 02be 03       		.byte	0x3
 1186 02bf 71010000 		.4byte	0x171
 1187 02c3 10       		.uleb128 0x10
 1188 02c4 040E     		.2byte	0xe04
 1189 02c6 0A       		.byte	0xa
 1190 02c7 84       		.byte	0x84
 1191 02c8 09       		.byte	0x9
 1192 02c9 9B030000 		.4byte	0x39b
 1193 02cd 11       		.uleb128 0x11
 1194 02ce 87050000 		.4byte	.LASF77
 1195 02d2 0A       		.byte	0xa
 1196 02d3 86       		.byte	0x86
 1197 02d4 11       		.byte	0x11
 1198 02d5 AB030000 		.4byte	0x3ab
 1199 02d9 02       		.byte	0x2
 1200 02da 23       		.byte	0x23
 1201 02db 00       		.uleb128 0
 1202 02dc 11       		.uleb128 0x11
 1203 02dd CC040000 		.4byte	.LASF78
 1204 02e1 0A       		.byte	0xa
 1205 02e2 87       		.byte	0x87
ARM GAS  /tmp/ccTiGcp2.s 			page 27


 1206 02e3 11       		.byte	0x11
 1207 02e4 B0030000 		.4byte	0x3b0
 1208 02e8 02       		.byte	0x2
 1209 02e9 23       		.byte	0x23
 1210 02ea 20       		.uleb128 0x20
 1211 02eb 11       		.uleb128 0x11
 1212 02ec 96040000 		.4byte	.LASF79
 1213 02f0 0A       		.byte	0xa
 1214 02f1 88       		.byte	0x88
 1215 02f2 11       		.byte	0x11
 1216 02f3 AB030000 		.4byte	0x3ab
 1217 02f7 03       		.byte	0x3
 1218 02f8 23       		.byte	0x23
 1219 02f9 8001     		.uleb128 0x80
 1220 02fb 11       		.uleb128 0x11
 1221 02fc 5E070000 		.4byte	.LASF80
 1222 0300 0A       		.byte	0xa
 1223 0301 89       		.byte	0x89
 1224 0302 11       		.byte	0x11
 1225 0303 B0030000 		.4byte	0x3b0
 1226 0307 03       		.byte	0x3
 1227 0308 23       		.byte	0x23
 1228 0309 A001     		.uleb128 0xa0
 1229 030b 11       		.uleb128 0x11
 1230 030c A3000000 		.4byte	.LASF81
 1231 0310 0A       		.byte	0xa
 1232 0311 8A       		.byte	0x8a
 1233 0312 11       		.byte	0x11
 1234 0313 AB030000 		.4byte	0x3ab
 1235 0317 03       		.byte	0x3
 1236 0318 23       		.byte	0x23
 1237 0319 8002     		.uleb128 0x100
 1238 031b 11       		.uleb128 0x11
 1239 031c E0040000 		.4byte	.LASF82
 1240 0320 0A       		.byte	0xa
 1241 0321 8B       		.byte	0x8b
 1242 0322 11       		.byte	0x11
 1243 0323 B0030000 		.4byte	0x3b0
 1244 0327 03       		.byte	0x3
 1245 0328 23       		.byte	0x23
 1246 0329 A002     		.uleb128 0x120
 1247 032b 11       		.uleb128 0x11
 1248 032c 00000000 		.4byte	.LASF83
 1249 0330 0A       		.byte	0xa
 1250 0331 8C       		.byte	0x8c
 1251 0332 11       		.byte	0x11
 1252 0333 AB030000 		.4byte	0x3ab
 1253 0337 03       		.byte	0x3
 1254 0338 23       		.byte	0x23
 1255 0339 8003     		.uleb128 0x180
 1256 033b 11       		.uleb128 0x11
 1257 033c EA040000 		.4byte	.LASF84
 1258 0340 0A       		.byte	0xa
 1259 0341 8D       		.byte	0x8d
 1260 0342 11       		.byte	0x11
 1261 0343 B0030000 		.4byte	0x3b0
 1262 0347 03       		.byte	0x3
ARM GAS  /tmp/ccTiGcp2.s 			page 28


 1263 0348 23       		.byte	0x23
 1264 0349 A003     		.uleb128 0x1a0
 1265 034b 11       		.uleb128 0x11
 1266 034c 59040000 		.4byte	.LASF85
 1267 0350 0A       		.byte	0xa
 1268 0351 8E       		.byte	0x8e
 1269 0352 11       		.byte	0x11
 1270 0353 AB030000 		.4byte	0x3ab
 1271 0357 03       		.byte	0x3
 1272 0358 23       		.byte	0x23
 1273 0359 8004     		.uleb128 0x200
 1274 035b 11       		.uleb128 0x11
 1275 035c F4040000 		.4byte	.LASF86
 1276 0360 0A       		.byte	0xa
 1277 0361 8F       		.byte	0x8f
 1278 0362 11       		.byte	0x11
 1279 0363 C0030000 		.4byte	0x3c0
 1280 0367 03       		.byte	0x3
 1281 0368 23       		.byte	0x23
 1282 0369 A004     		.uleb128 0x220
 1283 036b 12       		.uleb128 0x12
 1284 036c 495000   		.ascii	"IP\000"
 1285 036f 0A       		.byte	0xa
 1286 0370 90       		.byte	0x90
 1287 0371 11       		.byte	0x11
 1288 0372 E0030000 		.4byte	0x3e0
 1289 0376 03       		.byte	0x3
 1290 0377 23       		.byte	0x23
 1291 0378 8006     		.uleb128 0x300
 1292 037a 11       		.uleb128 0x11
 1293 037b FE040000 		.4byte	.LASF87
 1294 037f 0A       		.byte	0xa
 1295 0380 91       		.byte	0x91
 1296 0381 11       		.byte	0x11
 1297 0382 E5030000 		.4byte	0x3e5
 1298 0386 03       		.byte	0x3
 1299 0387 23       		.byte	0x23
 1300 0388 F007     		.uleb128 0x3f0
 1301 038a 11       		.uleb128 0x11
 1302 038b 67070000 		.4byte	.LASF88
 1303 038f 0A       		.byte	0xa
 1304 0390 92       		.byte	0x92
 1305 0391 11       		.byte	0x11
 1306 0392 D2000000 		.4byte	0xd2
 1307 0396 03       		.byte	0x3
 1308 0397 23       		.byte	0x23
 1309 0398 801C     		.uleb128 0xe00
 1310 039a 00       		.byte	0
 1311 039b 13       		.uleb128 0x13
 1312 039c D2000000 		.4byte	0xd2
 1313 03a0 AB030000 		.4byte	0x3ab
 1314 03a4 14       		.uleb128 0x14
 1315 03a5 30000000 		.4byte	0x30
 1316 03a9 07       		.byte	0x7
 1317 03aa 00       		.byte	0
 1318 03ab 05       		.uleb128 0x5
 1319 03ac 9B030000 		.4byte	0x39b
ARM GAS  /tmp/ccTiGcp2.s 			page 29


 1320 03b0 13       		.uleb128 0x13
 1321 03b1 C6000000 		.4byte	0xc6
 1322 03b5 C0030000 		.4byte	0x3c0
 1323 03b9 14       		.uleb128 0x14
 1324 03ba 30000000 		.4byte	0x30
 1325 03be 17       		.byte	0x17
 1326 03bf 00       		.byte	0
 1327 03c0 13       		.uleb128 0x13
 1328 03c1 C6000000 		.4byte	0xc6
 1329 03c5 D0030000 		.4byte	0x3d0
 1330 03c9 14       		.uleb128 0x14
 1331 03ca 30000000 		.4byte	0x30
 1332 03ce 37       		.byte	0x37
 1333 03cf 00       		.byte	0
 1334 03d0 13       		.uleb128 0x13
 1335 03d1 A6000000 		.4byte	0xa6
 1336 03d5 E0030000 		.4byte	0x3e0
 1337 03d9 14       		.uleb128 0x14
 1338 03da 30000000 		.4byte	0x30
 1339 03de EF       		.byte	0xef
 1340 03df 00       		.byte	0
 1341 03e0 05       		.uleb128 0x5
 1342 03e1 D0030000 		.4byte	0x3d0
 1343 03e5 13       		.uleb128 0x13
 1344 03e6 C6000000 		.4byte	0xc6
 1345 03ea F6030000 		.4byte	0x3f6
 1346 03ee 15       		.uleb128 0x15
 1347 03ef 30000000 		.4byte	0x30
 1348 03f3 8302     		.2byte	0x283
 1349 03f5 00       		.byte	0
 1350 03f6 04       		.uleb128 0x4
 1351 03f7 8C050000 		.4byte	.LASF89
 1352 03fb 0A       		.byte	0xa
 1353 03fc 93       		.byte	0x93
 1354 03fd 04       		.byte	0x4
 1355 03fe C3020000 		.4byte	0x2c3
 1356 0402 16       		.uleb128 0x16
 1357 0403 75333200 		.ascii	"u32\000"
 1358 0407 09       		.byte	0x9
 1359 0408 F701     		.2byte	0x1f7
 1360 040a 13       		.byte	0x13
 1361 040b C6000000 		.4byte	0xc6
 1362 040f 05       		.uleb128 0x5
 1363 0410 02040000 		.4byte	0x402
 1364 0414 16       		.uleb128 0x16
 1365 0415 753800   		.ascii	"u8\000"
 1366 0418 09       		.byte	0x9
 1367 0419 F901     		.2byte	0x1f9
 1368 041b 12       		.byte	0x12
 1369 041c 9A000000 		.4byte	0x9a
 1370 0420 17       		.uleb128 0x17
 1371 0421 50       		.byte	0x50
 1372 0422 09       		.byte	0x9
 1373 0423 1E02     		.2byte	0x21e
 1374 0425 09       		.byte	0x9
 1375 0426 69050000 		.4byte	0x569
 1376 042a 18       		.uleb128 0x18
ARM GAS  /tmp/ccTiGcp2.s 			page 30


 1377 042b 535200   		.ascii	"SR\000"
 1378 042e 09       		.byte	0x9
 1379 042f 2002     		.2byte	0x220
 1380 0431 11       		.byte	0x11
 1381 0432 D2000000 		.4byte	0xd2
 1382 0436 02       		.byte	0x2
 1383 0437 23       		.byte	0x23
 1384 0438 00       		.uleb128 0
 1385 0439 18       		.uleb128 0x18
 1386 043a 43523100 		.ascii	"CR1\000"
 1387 043e 09       		.byte	0x9
 1388 043f 2102     		.2byte	0x221
 1389 0441 11       		.byte	0x11
 1390 0442 D2000000 		.4byte	0xd2
 1391 0446 02       		.byte	0x2
 1392 0447 23       		.byte	0x23
 1393 0448 04       		.uleb128 0x4
 1394 0449 18       		.uleb128 0x18
 1395 044a 43523200 		.ascii	"CR2\000"
 1396 044e 09       		.byte	0x9
 1397 044f 2202     		.2byte	0x222
 1398 0451 11       		.byte	0x11
 1399 0452 D2000000 		.4byte	0xd2
 1400 0456 02       		.byte	0x2
 1401 0457 23       		.byte	0x23
 1402 0458 08       		.uleb128 0x8
 1403 0459 19       		.uleb128 0x19
 1404 045a 8A040000 		.4byte	.LASF90
 1405 045e 09       		.byte	0x9
 1406 045f 2302     		.2byte	0x223
 1407 0461 11       		.byte	0x11
 1408 0462 D2000000 		.4byte	0xd2
 1409 0466 02       		.byte	0x2
 1410 0467 23       		.byte	0x23
 1411 0468 0C       		.uleb128 0xc
 1412 0469 19       		.uleb128 0x19
 1413 046a 90040000 		.4byte	.LASF91
 1414 046e 09       		.byte	0x9
 1415 046f 2402     		.2byte	0x224
 1416 0471 11       		.byte	0x11
 1417 0472 D2000000 		.4byte	0xd2
 1418 0476 02       		.byte	0x2
 1419 0477 23       		.byte	0x23
 1420 0478 10       		.uleb128 0x10
 1421 0479 19       		.uleb128 0x19
 1422 047a 09040000 		.4byte	.LASF92
 1423 047e 09       		.byte	0x9
 1424 047f 2502     		.2byte	0x225
 1425 0481 11       		.byte	0x11
 1426 0482 D2000000 		.4byte	0xd2
 1427 0486 02       		.byte	0x2
 1428 0487 23       		.byte	0x23
 1429 0488 14       		.uleb128 0x14
 1430 0489 19       		.uleb128 0x19
 1431 048a 0F040000 		.4byte	.LASF93
 1432 048e 09       		.byte	0x9
 1433 048f 2602     		.2byte	0x226
ARM GAS  /tmp/ccTiGcp2.s 			page 31


 1434 0491 11       		.byte	0x11
 1435 0492 D2000000 		.4byte	0xd2
 1436 0496 02       		.byte	0x2
 1437 0497 23       		.byte	0x23
 1438 0498 18       		.uleb128 0x18
 1439 0499 19       		.uleb128 0x19
 1440 049a 15040000 		.4byte	.LASF94
 1441 049e 09       		.byte	0x9
 1442 049f 2702     		.2byte	0x227
 1443 04a1 11       		.byte	0x11
 1444 04a2 D2000000 		.4byte	0xd2
 1445 04a6 02       		.byte	0x2
 1446 04a7 23       		.byte	0x23
 1447 04a8 1C       		.uleb128 0x1c
 1448 04a9 19       		.uleb128 0x19
 1449 04aa 1B040000 		.4byte	.LASF95
 1450 04ae 09       		.byte	0x9
 1451 04af 2802     		.2byte	0x228
 1452 04b1 11       		.byte	0x11
 1453 04b2 D2000000 		.4byte	0xd2
 1454 04b6 02       		.byte	0x2
 1455 04b7 23       		.byte	0x23
 1456 04b8 20       		.uleb128 0x20
 1457 04b9 18       		.uleb128 0x18
 1458 04ba 48545200 		.ascii	"HTR\000"
 1459 04be 09       		.byte	0x9
 1460 04bf 2902     		.2byte	0x229
 1461 04c1 11       		.byte	0x11
 1462 04c2 D2000000 		.4byte	0xd2
 1463 04c6 02       		.byte	0x2
 1464 04c7 23       		.byte	0x23
 1465 04c8 24       		.uleb128 0x24
 1466 04c9 18       		.uleb128 0x18
 1467 04ca 4C545200 		.ascii	"LTR\000"
 1468 04ce 09       		.byte	0x9
 1469 04cf 2A02     		.2byte	0x22a
 1470 04d1 11       		.byte	0x11
 1471 04d2 D2000000 		.4byte	0xd2
 1472 04d6 02       		.byte	0x2
 1473 04d7 23       		.byte	0x23
 1474 04d8 28       		.uleb128 0x28
 1475 04d9 19       		.uleb128 0x19
 1476 04da AA040000 		.4byte	.LASF96
 1477 04de 09       		.byte	0x9
 1478 04df 2B02     		.2byte	0x22b
 1479 04e1 11       		.byte	0x11
 1480 04e2 D2000000 		.4byte	0xd2
 1481 04e6 02       		.byte	0x2
 1482 04e7 23       		.byte	0x23
 1483 04e8 2C       		.uleb128 0x2c
 1484 04e9 19       		.uleb128 0x19
 1485 04ea AF040000 		.4byte	.LASF97
 1486 04ee 09       		.byte	0x9
 1487 04ef 2C02     		.2byte	0x22c
 1488 04f1 11       		.byte	0x11
 1489 04f2 D2000000 		.4byte	0xd2
 1490 04f6 02       		.byte	0x2
ARM GAS  /tmp/ccTiGcp2.s 			page 32


 1491 04f7 23       		.byte	0x23
 1492 04f8 30       		.uleb128 0x30
 1493 04f9 19       		.uleb128 0x19
 1494 04fa B4040000 		.4byte	.LASF98
 1495 04fe 09       		.byte	0x9
 1496 04ff 2D02     		.2byte	0x22d
 1497 0501 11       		.byte	0x11
 1498 0502 D2000000 		.4byte	0xd2
 1499 0506 02       		.byte	0x2
 1500 0507 23       		.byte	0x23
 1501 0508 34       		.uleb128 0x34
 1502 0509 19       		.uleb128 0x19
 1503 050a A8000000 		.4byte	.LASF99
 1504 050e 09       		.byte	0x9
 1505 050f 2E02     		.2byte	0x22e
 1506 0511 11       		.byte	0x11
 1507 0512 D2000000 		.4byte	0xd2
 1508 0516 02       		.byte	0x2
 1509 0517 23       		.byte	0x23
 1510 0518 38       		.uleb128 0x38
 1511 0519 19       		.uleb128 0x19
 1512 051a 6C070000 		.4byte	.LASF100
 1513 051e 09       		.byte	0x9
 1514 051f 2F02     		.2byte	0x22f
 1515 0521 11       		.byte	0x11
 1516 0522 D2000000 		.4byte	0xd2
 1517 0526 02       		.byte	0x2
 1518 0527 23       		.byte	0x23
 1519 0528 3C       		.uleb128 0x3c
 1520 0529 19       		.uleb128 0x19
 1521 052a 71070000 		.4byte	.LASF101
 1522 052e 09       		.byte	0x9
 1523 052f 3002     		.2byte	0x230
 1524 0531 11       		.byte	0x11
 1525 0532 D2000000 		.4byte	0xd2
 1526 0536 02       		.byte	0x2
 1527 0537 23       		.byte	0x23
 1528 0538 40       		.uleb128 0x40
 1529 0539 19       		.uleb128 0x19
 1530 053a 76070000 		.4byte	.LASF102
 1531 053e 09       		.byte	0x9
 1532 053f 3102     		.2byte	0x231
 1533 0541 11       		.byte	0x11
 1534 0542 D2000000 		.4byte	0xd2
 1535 0546 02       		.byte	0x2
 1536 0547 23       		.byte	0x23
 1537 0548 44       		.uleb128 0x44
 1538 0549 19       		.uleb128 0x19
 1539 054a 7B070000 		.4byte	.LASF103
 1540 054e 09       		.byte	0x9
 1541 054f 3202     		.2byte	0x232
 1542 0551 11       		.byte	0x11
 1543 0552 D2000000 		.4byte	0xd2
 1544 0556 02       		.byte	0x2
 1545 0557 23       		.byte	0x23
 1546 0558 48       		.uleb128 0x48
 1547 0559 18       		.uleb128 0x18
ARM GAS  /tmp/ccTiGcp2.s 			page 33


 1548 055a 445200   		.ascii	"DR\000"
 1549 055d 09       		.byte	0x9
 1550 055e 3302     		.2byte	0x233
 1551 0560 11       		.byte	0x11
 1552 0561 D2000000 		.4byte	0xd2
 1553 0565 02       		.byte	0x2
 1554 0566 23       		.byte	0x23
 1555 0567 4C       		.uleb128 0x4c
 1556 0568 00       		.byte	0
 1557 0569 0F       		.uleb128 0xf
 1558 056a 51020000 		.4byte	.LASF104
 1559 056e 09       		.byte	0x9
 1560 056f 3402     		.2byte	0x234
 1561 0571 03       		.byte	0x3
 1562 0572 20040000 		.4byte	0x420
 1563 0576 17       		.uleb128 0x17
 1564 0577 24       		.byte	0x24
 1565 0578 09       		.byte	0x9
 1566 0579 8503     		.2byte	0x385
 1567 057b 09       		.byte	0x9
 1568 057c 0E060000 		.4byte	0x60e
 1569 0580 18       		.uleb128 0x18
 1570 0581 41435200 		.ascii	"ACR\000"
 1571 0585 09       		.byte	0x9
 1572 0586 8703     		.2byte	0x387
 1573 0588 11       		.byte	0x11
 1574 0589 D2000000 		.4byte	0xd2
 1575 058d 02       		.byte	0x2
 1576 058e 23       		.byte	0x23
 1577 058f 00       		.uleb128 0
 1578 0590 19       		.uleb128 0x19
 1579 0591 F0020000 		.4byte	.LASF105
 1580 0595 09       		.byte	0x9
 1581 0596 8803     		.2byte	0x388
 1582 0598 11       		.byte	0x11
 1583 0599 D2000000 		.4byte	0xd2
 1584 059d 02       		.byte	0x2
 1585 059e 23       		.byte	0x23
 1586 059f 04       		.uleb128 0x4
 1587 05a0 19       		.uleb128 0x19
 1588 05a1 40020000 		.4byte	.LASF106
 1589 05a5 09       		.byte	0x9
 1590 05a6 8903     		.2byte	0x389
 1591 05a8 11       		.byte	0x11
 1592 05a9 D2000000 		.4byte	0xd2
 1593 05ad 02       		.byte	0x2
 1594 05ae 23       		.byte	0x23
 1595 05af 08       		.uleb128 0x8
 1596 05b0 18       		.uleb128 0x18
 1597 05b1 535200   		.ascii	"SR\000"
 1598 05b4 09       		.byte	0x9
 1599 05b5 8A03     		.2byte	0x38a
 1600 05b7 11       		.byte	0x11
 1601 05b8 D2000000 		.4byte	0xd2
 1602 05bc 02       		.byte	0x2
 1603 05bd 23       		.byte	0x23
 1604 05be 0C       		.uleb128 0xc
ARM GAS  /tmp/ccTiGcp2.s 			page 34


 1605 05bf 18       		.uleb128 0x18
 1606 05c0 435200   		.ascii	"CR\000"
 1607 05c3 09       		.byte	0x9
 1608 05c4 8B03     		.2byte	0x38b
 1609 05c6 11       		.byte	0x11
 1610 05c7 D2000000 		.4byte	0xd2
 1611 05cb 02       		.byte	0x2
 1612 05cc 23       		.byte	0x23
 1613 05cd 10       		.uleb128 0x10
 1614 05ce 18       		.uleb128 0x18
 1615 05cf 415200   		.ascii	"AR\000"
 1616 05d2 09       		.byte	0x9
 1617 05d3 8C03     		.2byte	0x38c
 1618 05d5 11       		.byte	0x11
 1619 05d6 D2000000 		.4byte	0xd2
 1620 05da 02       		.byte	0x2
 1621 05db 23       		.byte	0x23
 1622 05dc 14       		.uleb128 0x14
 1623 05dd 19       		.uleb128 0x19
 1624 05de 96050000 		.4byte	.LASF107
 1625 05e2 09       		.byte	0x9
 1626 05e3 8D03     		.2byte	0x38d
 1627 05e5 11       		.byte	0x11
 1628 05e6 D2000000 		.4byte	0xd2
 1629 05ea 02       		.byte	0x2
 1630 05eb 23       		.byte	0x23
 1631 05ec 18       		.uleb128 0x18
 1632 05ed 18       		.uleb128 0x18
 1633 05ee 4F425200 		.ascii	"OBR\000"
 1634 05f2 09       		.byte	0x9
 1635 05f3 8E03     		.2byte	0x38e
 1636 05f5 11       		.byte	0x11
 1637 05f6 D2000000 		.4byte	0xd2
 1638 05fa 02       		.byte	0x2
 1639 05fb 23       		.byte	0x23
 1640 05fc 1C       		.uleb128 0x1c
 1641 05fd 19       		.uleb128 0x19
 1642 05fe 41060000 		.4byte	.LASF108
 1643 0602 09       		.byte	0x9
 1644 0603 8F03     		.2byte	0x38f
 1645 0605 11       		.byte	0x11
 1646 0606 D2000000 		.4byte	0xd2
 1647 060a 02       		.byte	0x2
 1648 060b 23       		.byte	0x23
 1649 060c 20       		.uleb128 0x20
 1650 060d 00       		.byte	0
 1651 060e 0F       		.uleb128 0xf
 1652 060f E3000000 		.4byte	.LASF109
 1653 0613 09       		.byte	0x9
 1654 0614 9803     		.2byte	0x398
 1655 0616 03       		.byte	0x3
 1656 0617 76050000 		.4byte	0x576
 1657 061b 17       		.uleb128 0x17
 1658 061c 1C       		.byte	0x1c
 1659 061d 09       		.byte	0x9
 1660 061e E903     		.2byte	0x3e9
 1661 0620 09       		.byte	0x9
ARM GAS  /tmp/ccTiGcp2.s 			page 35


 1662 0621 96060000 		.4byte	0x696
 1663 0625 18       		.uleb128 0x18
 1664 0626 43524C00 		.ascii	"CRL\000"
 1665 062a 09       		.byte	0x9
 1666 062b EB03     		.2byte	0x3eb
 1667 062d 11       		.byte	0x11
 1668 062e D2000000 		.4byte	0xd2
 1669 0632 02       		.byte	0x2
 1670 0633 23       		.byte	0x23
 1671 0634 00       		.uleb128 0
 1672 0635 18       		.uleb128 0x18
 1673 0636 43524800 		.ascii	"CRH\000"
 1674 063a 09       		.byte	0x9
 1675 063b EC03     		.2byte	0x3ec
 1676 063d 11       		.byte	0x11
 1677 063e D2000000 		.4byte	0xd2
 1678 0642 02       		.byte	0x2
 1679 0643 23       		.byte	0x23
 1680 0644 04       		.uleb128 0x4
 1681 0645 18       		.uleb128 0x18
 1682 0646 49445200 		.ascii	"IDR\000"
 1683 064a 09       		.byte	0x9
 1684 064b ED03     		.2byte	0x3ed
 1685 064d 11       		.byte	0x11
 1686 064e D2000000 		.4byte	0xd2
 1687 0652 02       		.byte	0x2
 1688 0653 23       		.byte	0x23
 1689 0654 08       		.uleb128 0x8
 1690 0655 18       		.uleb128 0x18
 1691 0656 4F445200 		.ascii	"ODR\000"
 1692 065a 09       		.byte	0x9
 1693 065b EE03     		.2byte	0x3ee
 1694 065d 11       		.byte	0x11
 1695 065e D2000000 		.4byte	0xd2
 1696 0662 02       		.byte	0x2
 1697 0663 23       		.byte	0x23
 1698 0664 0C       		.uleb128 0xc
 1699 0665 19       		.uleb128 0x19
 1700 0666 D3000000 		.4byte	.LASF110
 1701 066a 09       		.byte	0x9
 1702 066b EF03     		.2byte	0x3ef
 1703 066d 11       		.byte	0x11
 1704 066e D2000000 		.4byte	0xd2
 1705 0672 02       		.byte	0x2
 1706 0673 23       		.byte	0x23
 1707 0674 10       		.uleb128 0x10
 1708 0675 18       		.uleb128 0x18
 1709 0676 42525200 		.ascii	"BRR\000"
 1710 067a 09       		.byte	0x9
 1711 067b F003     		.2byte	0x3f0
 1712 067d 11       		.byte	0x11
 1713 067e D2000000 		.4byte	0xd2
 1714 0682 02       		.byte	0x2
 1715 0683 23       		.byte	0x23
 1716 0684 14       		.uleb128 0x14
 1717 0685 19       		.uleb128 0x19
 1718 0686 05000000 		.4byte	.LASF111
ARM GAS  /tmp/ccTiGcp2.s 			page 36


 1719 068a 09       		.byte	0x9
 1720 068b F103     		.2byte	0x3f1
 1721 068d 11       		.byte	0x11
 1722 068e D2000000 		.4byte	0xd2
 1723 0692 02       		.byte	0x2
 1724 0693 23       		.byte	0x23
 1725 0694 18       		.uleb128 0x18
 1726 0695 00       		.byte	0
 1727 0696 0F       		.uleb128 0xf
 1728 0697 44030000 		.4byte	.LASF112
 1729 069b 09       		.byte	0x9
 1730 069c F203     		.2byte	0x3f2
 1731 069e 03       		.byte	0x3
 1732 069f 1B060000 		.4byte	0x61b
 1733 06a3 17       		.uleb128 0x17
 1734 06a4 30       		.byte	0x30
 1735 06a5 09       		.byte	0x9
 1736 06a6 3404     		.2byte	0x434
 1737 06a8 09       		.byte	0x9
 1738 06a9 6D070000 		.4byte	0x76d
 1739 06ad 18       		.uleb128 0x18
 1740 06ae 435200   		.ascii	"CR\000"
 1741 06b1 09       		.byte	0x9
 1742 06b2 3604     		.2byte	0x436
 1743 06b4 11       		.byte	0x11
 1744 06b5 D2000000 		.4byte	0xd2
 1745 06b9 02       		.byte	0x2
 1746 06ba 23       		.byte	0x23
 1747 06bb 00       		.uleb128 0
 1748 06bc 19       		.uleb128 0x19
 1749 06bd 93070000 		.4byte	.LASF113
 1750 06c1 09       		.byte	0x9
 1751 06c2 3704     		.2byte	0x437
 1752 06c4 11       		.byte	0x11
 1753 06c5 D2000000 		.4byte	0xd2
 1754 06c9 02       		.byte	0x2
 1755 06ca 23       		.byte	0x23
 1756 06cb 04       		.uleb128 0x4
 1757 06cc 18       		.uleb128 0x18
 1758 06cd 43495200 		.ascii	"CIR\000"
 1759 06d1 09       		.byte	0x9
 1760 06d2 3804     		.2byte	0x438
 1761 06d4 11       		.byte	0x11
 1762 06d5 D2000000 		.4byte	0xd2
 1763 06d9 02       		.byte	0x2
 1764 06da 23       		.byte	0x23
 1765 06db 08       		.uleb128 0x8
 1766 06dc 19       		.uleb128 0x19
 1767 06dd 13020000 		.4byte	.LASF114
 1768 06e1 09       		.byte	0x9
 1769 06e2 3904     		.2byte	0x439
 1770 06e4 11       		.byte	0x11
 1771 06e5 D2000000 		.4byte	0xd2
 1772 06e9 02       		.byte	0x2
 1773 06ea 23       		.byte	0x23
 1774 06eb 0C       		.uleb128 0xc
 1775 06ec 19       		.uleb128 0x19
ARM GAS  /tmp/ccTiGcp2.s 			page 37


 1776 06ed 1D010000 		.4byte	.LASF115
 1777 06f1 09       		.byte	0x9
 1778 06f2 3A04     		.2byte	0x43a
 1779 06f4 11       		.byte	0x11
 1780 06f5 D2000000 		.4byte	0xd2
 1781 06f9 02       		.byte	0x2
 1782 06fa 23       		.byte	0x23
 1783 06fb 10       		.uleb128 0x10
 1784 06fc 19       		.uleb128 0x19
 1785 06fd 81030000 		.4byte	.LASF116
 1786 0701 09       		.byte	0x9
 1787 0702 3B04     		.2byte	0x43b
 1788 0704 11       		.byte	0x11
 1789 0705 D2000000 		.4byte	0xd2
 1790 0709 02       		.byte	0x2
 1791 070a 23       		.byte	0x23
 1792 070b 14       		.uleb128 0x14
 1793 070c 19       		.uleb128 0x19
 1794 070d D7050000 		.4byte	.LASF117
 1795 0711 09       		.byte	0x9
 1796 0712 3C04     		.2byte	0x43c
 1797 0714 11       		.byte	0x11
 1798 0715 D2000000 		.4byte	0xd2
 1799 0719 02       		.byte	0x2
 1800 071a 23       		.byte	0x23
 1801 071b 18       		.uleb128 0x18
 1802 071c 19       		.uleb128 0x19
 1803 071d BB060000 		.4byte	.LASF118
 1804 0721 09       		.byte	0x9
 1805 0722 3D04     		.2byte	0x43d
 1806 0724 11       		.byte	0x11
 1807 0725 D2000000 		.4byte	0xd2
 1808 0729 02       		.byte	0x2
 1809 072a 23       		.byte	0x23
 1810 072b 1C       		.uleb128 0x1c
 1811 072c 19       		.uleb128 0x19
 1812 072d 40070000 		.4byte	.LASF119
 1813 0731 09       		.byte	0x9
 1814 0732 3E04     		.2byte	0x43e
 1815 0734 11       		.byte	0x11
 1816 0735 D2000000 		.4byte	0xd2
 1817 0739 02       		.byte	0x2
 1818 073a 23       		.byte	0x23
 1819 073b 20       		.uleb128 0x20
 1820 073c 18       		.uleb128 0x18
 1821 073d 43535200 		.ascii	"CSR\000"
 1822 0741 09       		.byte	0x9
 1823 0742 3F04     		.2byte	0x43f
 1824 0744 11       		.byte	0x11
 1825 0745 D2000000 		.4byte	0xd2
 1826 0749 02       		.byte	0x2
 1827 074a 23       		.byte	0x23
 1828 074b 24       		.uleb128 0x24
 1829 074c 19       		.uleb128 0x19
 1830 074d 9B040000 		.4byte	.LASF120
 1831 0751 09       		.byte	0x9
 1832 0752 4004     		.2byte	0x440
ARM GAS  /tmp/ccTiGcp2.s 			page 38


 1833 0754 11       		.byte	0x11
 1834 0755 D2000000 		.4byte	0xd2
 1835 0759 02       		.byte	0x2
 1836 075a 23       		.byte	0x23
 1837 075b 28       		.uleb128 0x28
 1838 075c 19       		.uleb128 0x19
 1839 075d 50070000 		.4byte	.LASF121
 1840 0761 09       		.byte	0x9
 1841 0762 4104     		.2byte	0x441
 1842 0764 11       		.byte	0x11
 1843 0765 D2000000 		.4byte	0xd2
 1844 0769 02       		.byte	0x2
 1845 076a 23       		.byte	0x23
 1846 076b 2C       		.uleb128 0x2c
 1847 076c 00       		.byte	0
 1848 076d 0F       		.uleb128 0xf
 1849 076e 51030000 		.4byte	.LASF122
 1850 0772 09       		.byte	0x9
 1851 0773 4204     		.2byte	0x442
 1852 0775 03       		.byte	0x3
 1853 0776 A3060000 		.4byte	0x6a3
 1854 077a 17       		.uleb128 0x17
 1855 077b 50       		.byte	0x50
 1856 077c 09       		.byte	0x9
 1857 077d 9A04     		.2byte	0x49a
 1858 077f 09       		.byte	0x9
 1859 0780 040A0000 		.4byte	0xa04
 1860 0784 18       		.uleb128 0x18
 1861 0785 43523100 		.ascii	"CR1\000"
 1862 0789 09       		.byte	0x9
 1863 078a 9C04     		.2byte	0x49c
 1864 078c 11       		.byte	0x11
 1865 078d BC000000 		.4byte	0xbc
 1866 0791 02       		.byte	0x2
 1867 0792 23       		.byte	0x23
 1868 0793 00       		.uleb128 0
 1869 0794 19       		.uleb128 0x19
 1870 0795 CC040000 		.4byte	.LASF78
 1871 0799 09       		.byte	0x9
 1872 079a 9D04     		.2byte	0x49d
 1873 079c 0D       		.byte	0xd
 1874 079d B0000000 		.4byte	0xb0
 1875 07a1 02       		.byte	0x2
 1876 07a2 23       		.byte	0x23
 1877 07a3 02       		.uleb128 0x2
 1878 07a4 18       		.uleb128 0x18
 1879 07a5 43523200 		.ascii	"CR2\000"
 1880 07a9 09       		.byte	0x9
 1881 07aa 9E04     		.2byte	0x49e
 1882 07ac 11       		.byte	0x11
 1883 07ad BC000000 		.4byte	0xbc
 1884 07b1 02       		.byte	0x2
 1885 07b2 23       		.byte	0x23
 1886 07b3 04       		.uleb128 0x4
 1887 07b4 19       		.uleb128 0x19
 1888 07b5 D6040000 		.4byte	.LASF123
 1889 07b9 09       		.byte	0x9
ARM GAS  /tmp/ccTiGcp2.s 			page 39


 1890 07ba 9F04     		.2byte	0x49f
 1891 07bc 0D       		.byte	0xd
 1892 07bd B0000000 		.4byte	0xb0
 1893 07c1 02       		.byte	0x2
 1894 07c2 23       		.byte	0x23
 1895 07c3 06       		.uleb128 0x6
 1896 07c4 19       		.uleb128 0x19
 1897 07c5 7C030000 		.4byte	.LASF124
 1898 07c9 09       		.byte	0x9
 1899 07ca A004     		.2byte	0x4a0
 1900 07cc 11       		.byte	0x11
 1901 07cd BC000000 		.4byte	0xbc
 1902 07d1 02       		.byte	0x2
 1903 07d2 23       		.byte	0x23
 1904 07d3 08       		.uleb128 0x8
 1905 07d4 19       		.uleb128 0x19
 1906 07d5 E0040000 		.4byte	.LASF82
 1907 07d9 09       		.byte	0x9
 1908 07da A104     		.2byte	0x4a1
 1909 07dc 0D       		.byte	0xd
 1910 07dd B0000000 		.4byte	0xb0
 1911 07e1 02       		.byte	0x2
 1912 07e2 23       		.byte	0x23
 1913 07e3 0A       		.uleb128 0xa
 1914 07e4 19       		.uleb128 0x19
 1915 07e5 13000000 		.4byte	.LASF125
 1916 07e9 09       		.byte	0x9
 1917 07ea A204     		.2byte	0x4a2
 1918 07ec 11       		.byte	0x11
 1919 07ed BC000000 		.4byte	0xbc
 1920 07f1 02       		.byte	0x2
 1921 07f2 23       		.byte	0x23
 1922 07f3 0C       		.uleb128 0xc
 1923 07f4 19       		.uleb128 0x19
 1924 07f5 EA040000 		.4byte	.LASF84
 1925 07f9 09       		.byte	0x9
 1926 07fa A304     		.2byte	0x4a3
 1927 07fc 0D       		.byte	0xd
 1928 07fd B0000000 		.4byte	0xb0
 1929 0801 02       		.byte	0x2
 1930 0802 23       		.byte	0x23
 1931 0803 0E       		.uleb128 0xe
 1932 0804 18       		.uleb128 0x18
 1933 0805 535200   		.ascii	"SR\000"
 1934 0808 09       		.byte	0x9
 1935 0809 A404     		.2byte	0x4a4
 1936 080b 11       		.byte	0x11
 1937 080c BC000000 		.4byte	0xbc
 1938 0810 02       		.byte	0x2
 1939 0811 23       		.byte	0x23
 1940 0812 10       		.uleb128 0x10
 1941 0813 19       		.uleb128 0x19
 1942 0814 F4040000 		.4byte	.LASF86
 1943 0818 09       		.byte	0x9
 1944 0819 A504     		.2byte	0x4a5
 1945 081b 0D       		.byte	0xd
 1946 081c B0000000 		.4byte	0xb0
ARM GAS  /tmp/ccTiGcp2.s 			page 40


 1947 0820 02       		.byte	0x2
 1948 0821 23       		.byte	0x23
 1949 0822 12       		.uleb128 0x12
 1950 0823 18       		.uleb128 0x18
 1951 0824 45475200 		.ascii	"EGR\000"
 1952 0828 09       		.byte	0x9
 1953 0829 A604     		.2byte	0x4a6
 1954 082b 11       		.byte	0x11
 1955 082c BC000000 		.4byte	0xbc
 1956 0830 02       		.byte	0x2
 1957 0831 23       		.byte	0x23
 1958 0832 14       		.uleb128 0x14
 1959 0833 19       		.uleb128 0x19
 1960 0834 FE040000 		.4byte	.LASF87
 1961 0838 09       		.byte	0x9
 1962 0839 A704     		.2byte	0x4a7
 1963 083b 0D       		.byte	0xd
 1964 083c B0000000 		.4byte	0xb0
 1965 0840 02       		.byte	0x2
 1966 0841 23       		.byte	0x23
 1967 0842 16       		.uleb128 0x16
 1968 0843 19       		.uleb128 0x19
 1969 0844 AD000000 		.4byte	.LASF126
 1970 0848 09       		.byte	0x9
 1971 0849 A804     		.2byte	0x4a8
 1972 084b 11       		.byte	0x11
 1973 084c BC000000 		.4byte	0xbc
 1974 0850 02       		.byte	0x2
 1975 0851 23       		.byte	0x23
 1976 0852 18       		.uleb128 0x18
 1977 0853 19       		.uleb128 0x19
 1978 0854 08050000 		.4byte	.LASF127
 1979 0858 09       		.byte	0x9
 1980 0859 A904     		.2byte	0x4a9
 1981 085b 0D       		.byte	0xd
 1982 085c B0000000 		.4byte	0xb0
 1983 0860 02       		.byte	0x2
 1984 0861 23       		.byte	0x23
 1985 0862 1A       		.uleb128 0x1a
 1986 0863 19       		.uleb128 0x19
 1987 0864 B3000000 		.4byte	.LASF128
 1988 0868 09       		.byte	0x9
 1989 0869 AA04     		.2byte	0x4aa
 1990 086b 11       		.byte	0x11
 1991 086c BC000000 		.4byte	0xbc
 1992 0870 02       		.byte	0x2
 1993 0871 23       		.byte	0x23
 1994 0872 1C       		.uleb128 0x1c
 1995 0873 19       		.uleb128 0x19
 1996 0874 0F060000 		.4byte	.LASF129
 1997 0878 09       		.byte	0x9
 1998 0879 AB04     		.2byte	0x4ab
 1999 087b 0D       		.byte	0xd
 2000 087c B0000000 		.4byte	0xb0
 2001 0880 02       		.byte	0x2
 2002 0881 23       		.byte	0x23
 2003 0882 1E       		.uleb128 0x1e
ARM GAS  /tmp/ccTiGcp2.s 			page 41


 2004 0883 19       		.uleb128 0x19
 2005 0884 3B020000 		.4byte	.LASF130
 2006 0888 09       		.byte	0x9
 2007 0889 AC04     		.2byte	0x4ac
 2008 088b 11       		.byte	0x11
 2009 088c BC000000 		.4byte	0xbc
 2010 0890 02       		.byte	0x2
 2011 0891 23       		.byte	0x23
 2012 0892 20       		.uleb128 0x20
 2013 0893 19       		.uleb128 0x19
 2014 0894 12050000 		.4byte	.LASF131
 2015 0898 09       		.byte	0x9
 2016 0899 AD04     		.2byte	0x4ad
 2017 089b 0D       		.byte	0xd
 2018 089c B0000000 		.4byte	0xb0
 2019 08a0 02       		.byte	0x2
 2020 08a1 23       		.byte	0x23
 2021 08a2 22       		.uleb128 0x22
 2022 08a3 18       		.uleb128 0x18
 2023 08a4 434E5400 		.ascii	"CNT\000"
 2024 08a8 09       		.byte	0x9
 2025 08a9 AE04     		.2byte	0x4ae
 2026 08ab 11       		.byte	0x11
 2027 08ac BC000000 		.4byte	0xbc
 2028 08b0 02       		.byte	0x2
 2029 08b1 23       		.byte	0x23
 2030 08b2 24       		.uleb128 0x24
 2031 08b3 19       		.uleb128 0x19
 2032 08b4 1C050000 		.4byte	.LASF132
 2033 08b8 09       		.byte	0x9
 2034 08b9 AF04     		.2byte	0x4af
 2035 08bb 0D       		.byte	0xd
 2036 08bc B0000000 		.4byte	0xb0
 2037 08c0 02       		.byte	0x2
 2038 08c1 23       		.byte	0x23
 2039 08c2 26       		.uleb128 0x26
 2040 08c3 18       		.uleb128 0x18
 2041 08c4 50534300 		.ascii	"PSC\000"
 2042 08c8 09       		.byte	0x9
 2043 08c9 B004     		.2byte	0x4b0
 2044 08cb 11       		.byte	0x11
 2045 08cc BC000000 		.4byte	0xbc
 2046 08d0 02       		.byte	0x2
 2047 08d1 23       		.byte	0x23
 2048 08d2 28       		.uleb128 0x28
 2049 08d3 19       		.uleb128 0x19
 2050 08d4 04070000 		.4byte	.LASF133
 2051 08d8 09       		.byte	0x9
 2052 08d9 B104     		.2byte	0x4b1
 2053 08db 0D       		.byte	0xd
 2054 08dc B0000000 		.4byte	0xb0
 2055 08e0 02       		.byte	0x2
 2056 08e1 23       		.byte	0x23
 2057 08e2 2A       		.uleb128 0x2a
 2058 08e3 18       		.uleb128 0x18
 2059 08e4 41525200 		.ascii	"ARR\000"
 2060 08e8 09       		.byte	0x9
ARM GAS  /tmp/ccTiGcp2.s 			page 42


 2061 08e9 B204     		.2byte	0x4b2
 2062 08eb 11       		.byte	0x11
 2063 08ec BC000000 		.4byte	0xbc
 2064 08f0 02       		.byte	0x2
 2065 08f1 23       		.byte	0x23
 2066 08f2 2C       		.uleb128 0x2c
 2067 08f3 19       		.uleb128 0x19
 2068 08f4 93010000 		.4byte	.LASF134
 2069 08f8 09       		.byte	0x9
 2070 08f9 B304     		.2byte	0x4b3
 2071 08fb 0D       		.byte	0xd
 2072 08fc B0000000 		.4byte	0xb0
 2073 0900 02       		.byte	0x2
 2074 0901 23       		.byte	0x23
 2075 0902 2E       		.uleb128 0x2e
 2076 0903 18       		.uleb128 0x18
 2077 0904 52435200 		.ascii	"RCR\000"
 2078 0908 09       		.byte	0x9
 2079 0909 B404     		.2byte	0x4b4
 2080 090b 11       		.byte	0x11
 2081 090c BC000000 		.4byte	0xbc
 2082 0910 02       		.byte	0x2
 2083 0911 23       		.byte	0x23
 2084 0912 30       		.uleb128 0x30
 2085 0913 19       		.uleb128 0x19
 2086 0914 9E010000 		.4byte	.LASF135
 2087 0918 09       		.byte	0x9
 2088 0919 B504     		.2byte	0x4b5
 2089 091b 0D       		.byte	0xd
 2090 091c B0000000 		.4byte	0xb0
 2091 0920 02       		.byte	0x2
 2092 0921 23       		.byte	0x23
 2093 0922 32       		.uleb128 0x32
 2094 0923 19       		.uleb128 0x19
 2095 0924 1B070000 		.4byte	.LASF136
 2096 0928 09       		.byte	0x9
 2097 0929 B604     		.2byte	0x4b6
 2098 092b 11       		.byte	0x11
 2099 092c BC000000 		.4byte	0xbc
 2100 0930 02       		.byte	0x2
 2101 0931 23       		.byte	0x23
 2102 0932 34       		.uleb128 0x34
 2103 0933 19       		.uleb128 0x19
 2104 0934 A9010000 		.4byte	.LASF137
 2105 0938 09       		.byte	0x9
 2106 0939 B704     		.2byte	0x4b7
 2107 093b 0D       		.byte	0xd
 2108 093c B0000000 		.4byte	0xb0
 2109 0940 02       		.byte	0x2
 2110 0941 23       		.byte	0x23
 2111 0942 36       		.uleb128 0x36
 2112 0943 19       		.uleb128 0x19
 2113 0944 64000000 		.4byte	.LASF138
 2114 0948 09       		.byte	0x9
 2115 0949 B804     		.2byte	0x4b8
 2116 094b 11       		.byte	0x11
 2117 094c BC000000 		.4byte	0xbc
ARM GAS  /tmp/ccTiGcp2.s 			page 43


 2118 0950 02       		.byte	0x2
 2119 0951 23       		.byte	0x23
 2120 0952 38       		.uleb128 0x38
 2121 0953 19       		.uleb128 0x19
 2122 0954 B4010000 		.4byte	.LASF139
 2123 0958 09       		.byte	0x9
 2124 0959 B904     		.2byte	0x4b9
 2125 095b 0D       		.byte	0xd
 2126 095c B0000000 		.4byte	0xb0
 2127 0960 02       		.byte	0x2
 2128 0961 23       		.byte	0x23
 2129 0962 3A       		.uleb128 0x3a
 2130 0963 19       		.uleb128 0x19
 2131 0964 2A070000 		.4byte	.LASF140
 2132 0968 09       		.byte	0x9
 2133 0969 BA04     		.2byte	0x4ba
 2134 096b 11       		.byte	0x11
 2135 096c BC000000 		.4byte	0xbc
 2136 0970 02       		.byte	0x2
 2137 0971 23       		.byte	0x23
 2138 0972 3C       		.uleb128 0x3c
 2139 0973 19       		.uleb128 0x19
 2140 0974 BF010000 		.4byte	.LASF141
 2141 0978 09       		.byte	0x9
 2142 0979 BB04     		.2byte	0x4bb
 2143 097b 0D       		.byte	0xd
 2144 097c B0000000 		.4byte	0xb0
 2145 0980 02       		.byte	0x2
 2146 0981 23       		.byte	0x23
 2147 0982 3E       		.uleb128 0x3e
 2148 0983 19       		.uleb128 0x19
 2149 0984 2F070000 		.4byte	.LASF142
 2150 0988 09       		.byte	0x9
 2151 0989 BC04     		.2byte	0x4bc
 2152 098b 11       		.byte	0x11
 2153 098c BC000000 		.4byte	0xbc
 2154 0990 02       		.byte	0x2
 2155 0991 23       		.byte	0x23
 2156 0992 40       		.uleb128 0x40
 2157 0993 19       		.uleb128 0x19
 2158 0994 CA010000 		.4byte	.LASF143
 2159 0998 09       		.byte	0x9
 2160 0999 BD04     		.2byte	0x4bd
 2161 099b 0D       		.byte	0xd
 2162 099c B0000000 		.4byte	0xb0
 2163 09a0 02       		.byte	0x2
 2164 09a1 23       		.byte	0x23
 2165 09a2 42       		.uleb128 0x42
 2166 09a3 19       		.uleb128 0x19
 2167 09a4 F5020000 		.4byte	.LASF144
 2168 09a8 09       		.byte	0x9
 2169 09a9 BE04     		.2byte	0x4be
 2170 09ab 11       		.byte	0x11
 2171 09ac BC000000 		.4byte	0xbc
 2172 09b0 02       		.byte	0x2
 2173 09b1 23       		.byte	0x23
 2174 09b2 44       		.uleb128 0x44
ARM GAS  /tmp/ccTiGcp2.s 			page 44


 2175 09b3 19       		.uleb128 0x19
 2176 09b4 D5010000 		.4byte	.LASF145
 2177 09b8 09       		.byte	0x9
 2178 09b9 BF04     		.2byte	0x4bf
 2179 09bb 0D       		.byte	0xd
 2180 09bc B0000000 		.4byte	0xb0
 2181 09c0 02       		.byte	0x2
 2182 09c1 23       		.byte	0x23
 2183 09c2 46       		.uleb128 0x46
 2184 09c3 18       		.uleb128 0x18
 2185 09c4 44435200 		.ascii	"DCR\000"
 2186 09c8 09       		.byte	0x9
 2187 09c9 C004     		.2byte	0x4c0
 2188 09cb 11       		.byte	0x11
 2189 09cc BC000000 		.4byte	0xbc
 2190 09d0 02       		.byte	0x2
 2191 09d1 23       		.byte	0x23
 2192 09d2 48       		.uleb128 0x48
 2193 09d3 19       		.uleb128 0x19
 2194 09d4 E0010000 		.4byte	.LASF146
 2195 09d8 09       		.byte	0x9
 2196 09d9 C104     		.2byte	0x4c1
 2197 09db 0D       		.byte	0xd
 2198 09dc B0000000 		.4byte	0xb0
 2199 09e0 02       		.byte	0x2
 2200 09e1 23       		.byte	0x23
 2201 09e2 4A       		.uleb128 0x4a
 2202 09e3 19       		.uleb128 0x19
 2203 09e4 6C060000 		.4byte	.LASF147
 2204 09e8 09       		.byte	0x9
 2205 09e9 C204     		.2byte	0x4c2
 2206 09eb 11       		.byte	0x11
 2207 09ec BC000000 		.4byte	0xbc
 2208 09f0 02       		.byte	0x2
 2209 09f1 23       		.byte	0x23
 2210 09f2 4C       		.uleb128 0x4c
 2211 09f3 19       		.uleb128 0x19
 2212 09f4 EB010000 		.4byte	.LASF148
 2213 09f8 09       		.byte	0x9
 2214 09f9 C304     		.2byte	0x4c3
 2215 09fb 0D       		.byte	0xd
 2216 09fc B0000000 		.4byte	0xb0
 2217 0a00 02       		.byte	0x2
 2218 0a01 23       		.byte	0x23
 2219 0a02 4E       		.uleb128 0x4e
 2220 0a03 00       		.byte	0
 2221 0a04 0F       		.uleb128 0xf
 2222 0a05 41000000 		.4byte	.LASF149
 2223 0a09 09       		.byte	0x9
 2224 0a0a C404     		.2byte	0x4c4
 2225 0a0c 03       		.byte	0x3
 2226 0a0d 7A070000 		.4byte	0x77a
 2227 0a11 1A       		.uleb128 0x1a
 2228 0a12 A3040000 		.4byte	.LASF170
 2229 0a16 01       		.byte	0x1
 2230 0a17 1E       		.byte	0x1e
 2231 0a18 16       		.byte	0x16
ARM GAS  /tmp/ccTiGcp2.s 			page 45


 2232 0a19 59010000 		.4byte	0x159
 2233 0a1d 1B       		.uleb128 0x1b
 2234 0a1e 01       		.byte	0x1
 2235 0a1f 88060000 		.4byte	.LASF150
 2236 0a23 0B       		.byte	0xb
 2237 0a24 34       		.byte	0x34
 2238 0a25 06       		.byte	0x6
 2239 0a26 01       		.byte	0x1
 2240 0a27 01       		.byte	0x1
 2241 0a28 3C0A0000 		.4byte	0xa3c
 2242 0a2c 09       		.uleb128 0x9
 2243 0a2d 30000000 		.4byte	0x30
 2244 0a31 09       		.uleb128 0x9
 2245 0a32 4D010000 		.4byte	0x14d
 2246 0a36 09       		.uleb128 0x9
 2247 0a37 4D010000 		.4byte	0x14d
 2248 0a3b 00       		.byte	0
 2249 0a3c 1B       		.uleb128 0x1b
 2250 0a3d 01       		.byte	0x1
 2251 0a3e F1000000 		.4byte	.LASF151
 2252 0a42 0B       		.byte	0xb
 2253 0a43 36       		.byte	0x36
 2254 0a44 06       		.byte	0x6
 2255 0a45 01       		.byte	0x1
 2256 0a46 01       		.byte	0x1
 2257 0a47 5B0A0000 		.4byte	0xa5b
 2258 0a4b 09       		.uleb128 0x9
 2259 0a4c 5B0A0000 		.4byte	0xa5b
 2260 0a50 09       		.uleb128 0x9
 2261 0a51 4D010000 		.4byte	0x14d
 2262 0a55 09       		.uleb128 0x9
 2263 0a56 4D010000 		.4byte	0x14d
 2264 0a5a 00       		.byte	0
 2265 0a5b 07       		.uleb128 0x7
 2266 0a5c 04       		.byte	0x4
 2267 0a5d 4D010000 		.4byte	0x14d
 2268 0a61 1B       		.uleb128 0x1b
 2269 0a62 01       		.byte	0x1
 2270 0a63 7F060000 		.4byte	.LASF152
 2271 0a67 0B       		.byte	0xb
 2272 0a68 38       		.byte	0x38
 2273 0a69 06       		.byte	0x6
 2274 0a6a 01       		.byte	0x1
 2275 0a6b 01       		.byte	0x1
 2276 0a6c 760A0000 		.4byte	0xa76
 2277 0a70 09       		.uleb128 0x9
 2278 0a71 37000000 		.4byte	0x37
 2279 0a75 00       		.byte	0
 2280 0a76 1C       		.uleb128 0x1c
 2281 0a77 01       		.byte	0x1
 2282 0a78 FA060000 		.4byte	.LASF154
 2283 0a7c 0B       		.byte	0xb
 2284 0a7d 39       		.byte	0x39
 2285 0a7e 06       		.byte	0x6
 2286 0a7f 01       		.byte	0x1
 2287 0a80 01       		.byte	0x1
 2288 0a81 1D       		.uleb128 0x1d
ARM GAS  /tmp/ccTiGcp2.s 			page 46


 2289 0a82 01       		.byte	0x1
 2290 0a83 FB000000 		.4byte	.LASF153
 2291 0a87 07       		.byte	0x7
 2292 0a88 F602     		.2byte	0x2f6
 2293 0a8a 06       		.byte	0x6
 2294 0a8b 01       		.byte	0x1
 2295 0a8c 01       		.byte	0x1
 2296 0a8d 970A0000 		.4byte	0xa97
 2297 0a91 09       		.uleb128 0x9
 2298 0a92 25010000 		.4byte	0x125
 2299 0a96 00       		.byte	0
 2300 0a97 1E       		.uleb128 0x1e
 2301 0a98 01       		.byte	0x1
 2302 0a99 DC020000 		.4byte	.LASF155
 2303 0a9d 07       		.byte	0x7
 2304 0a9e 9704     		.2byte	0x497
 2305 0aa0 06       		.byte	0x6
 2306 0aa1 01       		.byte	0x1
 2307 0aa2 01       		.byte	0x1
 2308 0aa3 1F       		.uleb128 0x1f
 2309 0aa4 01       		.byte	0x1
 2310 0aa5 4D040000 		.4byte	.LASF156
 2311 0aa9 07       		.byte	0x7
 2312 0aaa 4A01     		.2byte	0x14a
 2313 0aac 0D       		.byte	0xd
 2314 0aad 01       		.byte	0x1
 2315 0aae FC000000 		.4byte	0xfc
 2316 0ab2 01       		.byte	0x1
 2317 0ab3 D60A0000 		.4byte	0xad6
 2318 0ab7 09       		.uleb128 0x9
 2319 0ab8 D7000000 		.4byte	0xd7
 2320 0abc 09       		.uleb128 0x9
 2321 0abd 48010000 		.4byte	0x148
 2322 0ac1 09       		.uleb128 0x9
 2323 0ac2 C1000000 		.4byte	0xc1
 2324 0ac6 09       		.uleb128 0x9
 2325 0ac7 F7000000 		.4byte	0xf7
 2326 0acb 09       		.uleb128 0x9
 2327 0acc 08010000 		.4byte	0x108
 2328 0ad0 09       		.uleb128 0x9
 2329 0ad1 DC0A0000 		.4byte	0xadc
 2330 0ad5 00       		.byte	0
 2331 0ad6 07       		.uleb128 0x7
 2332 0ad7 04       		.byte	0x4
 2333 0ad8 2A010000 		.4byte	0x12a
 2334 0adc 06       		.uleb128 0x6
 2335 0add D60A0000 		.4byte	0xad6
 2336 0ae1 1F       		.uleb128 0x1f
 2337 0ae2 01       		.byte	0x1
 2338 0ae3 B4050000 		.4byte	.LASF157
 2339 0ae7 08       		.byte	0x8
 2340 0ae8 D805     		.2byte	0x5d8
 2341 0aea 10       		.byte	0x10
 2342 0aeb 01       		.byte	0x1
 2343 0aec 59010000 		.4byte	0x159
 2344 0af0 01       		.byte	0x1
 2345 0af1 050B0000 		.4byte	0xb05
ARM GAS  /tmp/ccTiGcp2.s 			page 47


 2346 0af5 09       		.uleb128 0x9
 2347 0af6 14010000 		.4byte	0x114
 2348 0afa 09       		.uleb128 0x9
 2349 0afb 14010000 		.4byte	0x114
 2350 0aff 09       		.uleb128 0x9
 2351 0b00 AB000000 		.4byte	0xab
 2352 0b04 00       		.byte	0
 2353 0b05 20       		.uleb128 0x20
 2354 0b06 01       		.byte	0x1
 2355 0b07 AA070000 		.4byte	.LASF171
 2356 0b0b 01       		.byte	0x1
 2357 0b0c 4B       		.byte	0x4b
 2358 0b0d 05       		.byte	0x5
 2359 0b0e 01       		.byte	0x1
 2360 0b0f 3E000000 		.4byte	0x3e
 2361 0b13 00000000 		.4byte	.LFB43
 2362 0b17 4C000000 		.4byte	.LFE43
 2363 0b1b 00000000 		.4byte	.LLST8
 2364 0b1f 01       		.byte	0x1
 2365 0b20 CA0B0000 		.4byte	0xbca
 2366 0b24 21       		.uleb128 0x21
 2367 0b25 10000000 		.4byte	.LVL17
 2368 0b29 E10A0000 		.4byte	0xae1
 2369 0b2d 430B0000 		.4byte	0xb43
 2370 0b31 22       		.uleb128 0x22
 2371 0b32 01       		.byte	0x1
 2372 0b33 50       		.byte	0x50
 2373 0b34 01       		.byte	0x1
 2374 0b35 35       		.byte	0x35
 2375 0b36 22       		.uleb128 0x22
 2376 0b37 01       		.byte	0x1
 2377 0b38 51       		.byte	0x51
 2378 0b39 02       		.byte	0x2
 2379 0b3a 75       		.byte	0x75
 2380 0b3b 00       		.sleb128 0
 2381 0b3c 22       		.uleb128 0x22
 2382 0b3d 01       		.byte	0x1
 2383 0b3e 52       		.byte	0x52
 2384 0b3f 02       		.byte	0x2
 2385 0b40 74       		.byte	0x74
 2386 0b41 00       		.sleb128 0
 2387 0b42 00       		.byte	0
 2388 0b43 23       		.uleb128 0x23
 2389 0b44 14000000 		.4byte	.LVL18
 2390 0b48 720D0000 		.4byte	0xd72
 2391 0b4c 21       		.uleb128 0x21
 2392 0b4d 24000000 		.4byte	.LVL19
 2393 0b51 A30A0000 		.4byte	0xaa3
 2394 0b55 860B0000 		.4byte	0xb86
 2395 0b59 22       		.uleb128 0x22
 2396 0b5a 01       		.byte	0x1
 2397 0b5b 50       		.byte	0x50
 2398 0b5c 05       		.byte	0x5
 2399 0b5d 03       		.byte	0x3
 2400 0b5e 00000000 		.4byte	task1
 2401 0b62 22       		.uleb128 0x22
 2402 0b63 01       		.byte	0x1
ARM GAS  /tmp/ccTiGcp2.s 			page 48


 2403 0b64 51       		.byte	0x51
 2404 0b65 05       		.byte	0x5
 2405 0b66 03       		.byte	0x3
 2406 0b67 19000000 		.4byte	.LC2
 2407 0b6b 22       		.uleb128 0x22
 2408 0b6c 01       		.byte	0x1
 2409 0b6d 52       		.byte	0x52
 2410 0b6e 02       		.byte	0x2
 2411 0b6f 08       		.byte	0x8
 2412 0b70 64       		.byte	0x64
 2413 0b71 22       		.uleb128 0x22
 2414 0b72 01       		.byte	0x1
 2415 0b73 53       		.byte	0x53
 2416 0b74 02       		.byte	0x2
 2417 0b75 74       		.byte	0x74
 2418 0b76 00       		.sleb128 0
 2419 0b77 22       		.uleb128 0x22
 2420 0b78 02       		.byte	0x2
 2421 0b79 7D       		.byte	0x7d
 2422 0b7a 00       		.sleb128 0
 2423 0b7b 02       		.byte	0x2
 2424 0b7c 75       		.byte	0x75
 2425 0b7d 00       		.sleb128 0
 2426 0b7e 22       		.uleb128 0x22
 2427 0b7f 02       		.byte	0x2
 2428 0b80 7D       		.byte	0x7d
 2429 0b81 04       		.sleb128 4
 2430 0b82 02       		.byte	0x2
 2431 0b83 74       		.byte	0x74
 2432 0b84 00       		.sleb128 0
 2433 0b85 00       		.byte	0
 2434 0b86 21       		.uleb128 0x21
 2435 0b87 34000000 		.4byte	.LVL20
 2436 0b8b A30A0000 		.4byte	0xaa3
 2437 0b8f C00B0000 		.4byte	0xbc0
 2438 0b93 22       		.uleb128 0x22
 2439 0b94 01       		.byte	0x1
 2440 0b95 50       		.byte	0x50
 2441 0b96 05       		.byte	0x5
 2442 0b97 03       		.byte	0x3
 2443 0b98 00000000 		.4byte	task2
 2444 0b9c 22       		.uleb128 0x22
 2445 0b9d 01       		.byte	0x1
 2446 0b9e 51       		.byte	0x51
 2447 0b9f 05       		.byte	0x5
 2448 0ba0 03       		.byte	0x3
 2449 0ba1 22000000 		.4byte	.LC3
 2450 0ba5 22       		.uleb128 0x22
 2451 0ba6 01       		.byte	0x1
 2452 0ba7 52       		.byte	0x52
 2453 0ba8 02       		.byte	0x2
 2454 0ba9 08       		.byte	0x8
 2455 0baa 64       		.byte	0x64
 2456 0bab 22       		.uleb128 0x22
 2457 0bac 01       		.byte	0x1
 2458 0bad 53       		.byte	0x53
 2459 0bae 02       		.byte	0x2
ARM GAS  /tmp/ccTiGcp2.s 			page 49


 2460 0baf 74       		.byte	0x74
 2461 0bb0 00       		.sleb128 0
 2462 0bb1 22       		.uleb128 0x22
 2463 0bb2 02       		.byte	0x2
 2464 0bb3 7D       		.byte	0x7d
 2465 0bb4 00       		.sleb128 0
 2466 0bb5 02       		.byte	0x2
 2467 0bb6 75       		.byte	0x75
 2468 0bb7 00       		.sleb128 0
 2469 0bb8 22       		.uleb128 0x22
 2470 0bb9 02       		.byte	0x2
 2471 0bba 7D       		.byte	0x7d
 2472 0bbb 04       		.sleb128 4
 2473 0bbc 02       		.byte	0x2
 2474 0bbd 74       		.byte	0x74
 2475 0bbe 00       		.sleb128 0
 2476 0bbf 00       		.byte	0
 2477 0bc0 23       		.uleb128 0x23
 2478 0bc1 38000000 		.4byte	.LVL21
 2479 0bc5 970A0000 		.4byte	0xa97
 2480 0bc9 00       		.byte	0
 2481 0bca 24       		.uleb128 0x24
 2482 0bcb 63030000 		.4byte	.LASF158
 2483 0bcf 01       		.byte	0x1
 2484 0bd0 3C       		.byte	0x3c
 2485 0bd1 0D       		.byte	0xd
 2486 0bd2 01       		.byte	0x1
 2487 0bd3 00000000 		.4byte	.LFB41
 2488 0bd7 30000000 		.4byte	.LFE41
 2489 0bdb 20000000 		.4byte	.LLST0
 2490 0bdf 01       		.byte	0x1
 2491 0be0 0A0C0000 		.4byte	0xc0a
 2492 0be4 25       		.uleb128 0x25
 2493 0be5 A5070000 		.4byte	.LASF160
 2494 0be9 01       		.byte	0x1
 2495 0bea 3C       		.byte	0x3c
 2496 0beb 19       		.byte	0x19
 2497 0bec F5000000 		.4byte	0xf5
 2498 0bf0 44000000 		.4byte	.LLST1
 2499 0bf4 40000000 		.4byte	.LVUS1
 2500 0bf8 26       		.uleb128 0x26
 2501 0bf9 26000000 		.4byte	.LVL2
 2502 0bfd 810A0000 		.4byte	0xa81
 2503 0c01 22       		.uleb128 0x22
 2504 0c02 01       		.byte	0x1
 2505 0c03 50       		.byte	0x50
 2506 0c04 03       		.byte	0x3
 2507 0c05 0A       		.byte	0xa
 2508 0c06 8813     		.2byte	0x1388
 2509 0c08 00       		.byte	0
 2510 0c09 00       		.byte	0
 2511 0c0a 24       		.uleb128 0x24
 2512 0c0b 5D030000 		.4byte	.LASF159
 2513 0c0f 01       		.byte	0x1
 2514 0c10 20       		.byte	0x20
 2515 0c11 0D       		.byte	0xd
 2516 0c12 01       		.byte	0x1
ARM GAS  /tmp/ccTiGcp2.s 			page 50


 2517 0c13 30000000 		.4byte	.LFB40
 2518 0c17 CC000000 		.4byte	.LFE40
 2519 0c1b 6B000000 		.4byte	.LLST2
 2520 0c1f 01       		.byte	0x1
 2521 0c20 D60C0000 		.4byte	0xcd6
 2522 0c24 25       		.uleb128 0x25
 2523 0c25 A5070000 		.4byte	.LASF160
 2524 0c29 01       		.byte	0x1
 2525 0c2a 20       		.byte	0x20
 2526 0c2b 19       		.byte	0x19
 2527 0c2c F5000000 		.4byte	0xf5
 2528 0c30 8F000000 		.4byte	.LLST3
 2529 0c34 8B000000 		.4byte	.LVUS3
 2530 0c38 27       		.uleb128 0x27
 2531 0c39 1C020000 		.4byte	.LASF172
 2532 0c3d 01       		.byte	0x1
 2533 0c3e 30       		.byte	0x30
 2534 0c3f 06       		.byte	0x6
 2535 0c40 14040000 		.4byte	0x414
 2536 0c44 BC000000 		.4byte	.LLST4
 2537 0c48 B6000000 		.4byte	.LVUS4
 2538 0c4c 23       		.uleb128 0x23
 2539 0c4d 84000000 		.4byte	.LVL4
 2540 0c51 760A0000 		.4byte	0xa76
 2541 0c55 21       		.uleb128 0x21
 2542 0c56 8A000000 		.4byte	.LVL5
 2543 0c5a 610A0000 		.4byte	0xa61
 2544 0c5e 680C0000 		.4byte	0xc68
 2545 0c62 22       		.uleb128 0x22
 2546 0c63 01       		.byte	0x1
 2547 0c64 50       		.byte	0x50
 2548 0c65 01       		.byte	0x1
 2549 0c66 3C       		.byte	0x3c
 2550 0c67 00       		.byte	0
 2551 0c68 21       		.uleb128 0x21
 2552 0c69 94000000 		.4byte	.LVL6
 2553 0c6d 3C0A0000 		.4byte	0xa3c
 2554 0c71 890C0000 		.4byte	0xc89
 2555 0c75 22       		.uleb128 0x22
 2556 0c76 01       		.byte	0x1
 2557 0c77 50       		.byte	0x50
 2558 0c78 05       		.byte	0x5
 2559 0c79 03       		.byte	0x3
 2560 0c7a 00000000 		.4byte	.LC0
 2561 0c7e 22       		.uleb128 0x22
 2562 0c7f 01       		.byte	0x1
 2563 0c80 51       		.byte	0x51
 2564 0c81 01       		.byte	0x1
 2565 0c82 30       		.byte	0x30
 2566 0c83 22       		.uleb128 0x22
 2567 0c84 01       		.byte	0x1
 2568 0c85 52       		.byte	0x52
 2569 0c86 01       		.byte	0x1
 2570 0c87 30       		.byte	0x30
 2571 0c88 00       		.byte	0
 2572 0c89 21       		.uleb128 0x21
 2573 0c8a A2000000 		.4byte	.LVL9
ARM GAS  /tmp/ccTiGcp2.s 			page 51


 2574 0c8e 3C0A0000 		.4byte	0xa3c
 2575 0c92 A70C0000 		.4byte	0xca7
 2576 0c96 22       		.uleb128 0x22
 2577 0c97 01       		.byte	0x1
 2578 0c98 50       		.byte	0x50
 2579 0c99 02       		.byte	0x2
 2580 0c9a 76       		.byte	0x76
 2581 0c9b 00       		.sleb128 0
 2582 0c9c 22       		.uleb128 0x22
 2583 0c9d 01       		.byte	0x1
 2584 0c9e 51       		.byte	0x51
 2585 0c9f 01       		.byte	0x1
 2586 0ca0 31       		.byte	0x31
 2587 0ca1 22       		.uleb128 0x22
 2588 0ca2 01       		.byte	0x1
 2589 0ca3 52       		.byte	0x52
 2590 0ca4 01       		.byte	0x1
 2591 0ca5 30       		.byte	0x30
 2592 0ca6 00       		.byte	0
 2593 0ca7 21       		.uleb128 0x21
 2594 0ca8 AC000000 		.4byte	.LVL10
 2595 0cac 1D0A0000 		.4byte	0xa1d
 2596 0cb0 C50C0000 		.4byte	0xcc5
 2597 0cb4 22       		.uleb128 0x22
 2598 0cb5 01       		.byte	0x1
 2599 0cb6 50       		.byte	0x50
 2600 0cb7 02       		.byte	0x2
 2601 0cb8 74       		.byte	0x74
 2602 0cb9 00       		.sleb128 0
 2603 0cba 22       		.uleb128 0x22
 2604 0cbb 01       		.byte	0x1
 2605 0cbc 51       		.byte	0x51
 2606 0cbd 01       		.byte	0x1
 2607 0cbe 31       		.byte	0x31
 2608 0cbf 22       		.uleb128 0x22
 2609 0cc0 01       		.byte	0x1
 2610 0cc1 52       		.byte	0x52
 2611 0cc2 01       		.byte	0x1
 2612 0cc3 3B       		.byte	0x3b
 2613 0cc4 00       		.byte	0
 2614 0cc5 26       		.uleb128 0x26
 2615 0cc6 B2000000 		.4byte	.LVL11
 2616 0cca 810A0000 		.4byte	0xa81
 2617 0cce 22       		.uleb128 0x22
 2618 0ccf 01       		.byte	0x1
 2619 0cd0 50       		.byte	0x50
 2620 0cd1 02       		.byte	0x2
 2621 0cd2 75       		.byte	0x75
 2622 0cd3 00       		.sleb128 0
 2623 0cd4 00       		.byte	0
 2624 0cd5 00       		.byte	0
 2625 0cd6 28       		.uleb128 0x28
 2626 0cd7 01       		.byte	0x1
 2627 0cd8 EA050000 		.4byte	.LASF162
 2628 0cdc 02       		.byte	0x2
 2629 0cdd 7C       		.byte	0x7c
 2630 0cde 06       		.byte	0x6
ARM GAS  /tmp/ccTiGcp2.s 			page 52


 2631 0cdf 01       		.byte	0x1
 2632 0ce0 3C020000 		.4byte	.LFB39
 2633 0ce4 54020000 		.4byte	.LFE39
 2634 0ce8 02       		.byte	0x2
 2635 0ce9 7D       		.byte	0x7d
 2636 0cea 00       		.sleb128 0
 2637 0ceb 01       		.byte	0x1
 2638 0cec 050D0000 		.4byte	0xd05
 2639 0cf0 25       		.uleb128 0x25
 2640 0cf1 04040000 		.4byte	.LASF161
 2641 0cf5 02       		.byte	0x2
 2642 0cf6 7C       		.byte	0x7c
 2643 0cf7 22       		.byte	0x22
 2644 0cf8 B6020000 		.4byte	0x2b6
 2645 0cfc EB000000 		.4byte	.LLST7
 2646 0d00 E7000000 		.4byte	.LVUS7
 2647 0d04 00       		.byte	0
 2648 0d05 28       		.uleb128 0x28
 2649 0d06 01       		.byte	0x1
 2650 0d07 79040000 		.4byte	.LASF163
 2651 0d0b 02       		.byte	0x2
 2652 0d0c 74       		.byte	0x74
 2653 0d0d 06       		.byte	0x6
 2654 0d0e 01       		.byte	0x1
 2655 0d0f 24020000 		.4byte	.LFB38
 2656 0d13 3C020000 		.4byte	.LFE38
 2657 0d17 02       		.byte	0x2
 2658 0d18 7D       		.byte	0x7d
 2659 0d19 00       		.sleb128 0
 2660 0d1a 01       		.byte	0x1
 2661 0d1b 340D0000 		.4byte	0xd34
 2662 0d1f 25       		.uleb128 0x25
 2663 0d20 04040000 		.4byte	.LASF161
 2664 0d24 02       		.byte	0x2
 2665 0d25 74       		.byte	0x74
 2666 0d26 21       		.byte	0x21
 2667 0d27 B6020000 		.4byte	0x2b6
 2668 0d2b 16010000 		.4byte	.LLST6
 2669 0d2f 12010000 		.4byte	.LVUS6
 2670 0d33 00       		.byte	0
 2671 0d34 29       		.uleb128 0x29
 2672 0d35 01       		.byte	0x1
 2673 0d36 BC020000 		.4byte	.LASF165
 2674 0d3a 02       		.byte	0x2
 2675 0d3b 67       		.byte	0x67
 2676 0d3c 06       		.byte	0x6
 2677 0d3d 01       		.byte	0x1
 2678 0d3e FC010000 		.4byte	.LFB37
 2679 0d42 24020000 		.4byte	.LFE37
 2680 0d46 02       		.byte	0x2
 2681 0d47 7D       		.byte	0x7d
 2682 0d48 00       		.sleb128 0
 2683 0d49 01       		.byte	0x1
 2684 0d4a 2A       		.uleb128 0x2a
 2685 0d4b 01       		.byte	0x1
 2686 0d4c 69040000 		.4byte	.LASF164
 2687 0d50 02       		.byte	0x2
ARM GAS  /tmp/ccTiGcp2.s 			page 53


 2688 0d51 60       		.byte	0x60
 2689 0d52 06       		.byte	0x6
 2690 0d53 01       		.byte	0x1
 2691 0d54 CC010000 		.4byte	.LFB36
 2692 0d58 FC010000 		.4byte	.LFE36
 2693 0d5c 3D010000 		.4byte	.LLST5
 2694 0d60 01       		.byte	0x1
 2695 0d61 720D0000 		.4byte	0xd72
 2696 0d65 2B       		.uleb128 0x2b
 2697 0d66 5400     		.ascii	"T\000"
 2698 0d68 02       		.byte	0x2
 2699 0d69 60       		.byte	0x60
 2700 0d6a 17       		.byte	0x17
 2701 0d6b 0F040000 		.4byte	0x40f
 2702 0d6f 01       		.byte	0x1
 2703 0d70 50       		.byte	0x50
 2704 0d71 00       		.byte	0
 2705 0d72 29       		.uleb128 0x29
 2706 0d73 01       		.byte	0x1
 2707 0d74 36050000 		.4byte	.LASF166
 2708 0d78 02       		.byte	0x2
 2709 0d79 3E       		.byte	0x3e
 2710 0d7a 06       		.byte	0x6
 2711 0d7b 01       		.byte	0x1
 2712 0d7c 58010000 		.4byte	.LFB35
 2713 0d80 CC010000 		.4byte	.LFE35
 2714 0d84 02       		.byte	0x2
 2715 0d85 7D       		.byte	0x7d
 2716 0d86 00       		.sleb128 0
 2717 0d87 01       		.byte	0x1
 2718 0d88 2C       		.uleb128 0x2c
 2719 0d89 01       		.byte	0x1
 2720 0d8a C8050000 		.4byte	.LASF173
 2721 0d8e 02       		.byte	0x2
 2722 0d8f 0E       		.byte	0xe
 2723 0d90 06       		.byte	0x6
 2724 0d91 CC000000 		.4byte	.LFB34
 2725 0d95 58010000 		.4byte	.LFE34
 2726 0d99 02       		.byte	0x2
 2727 0d9a 7D       		.byte	0x7d
 2728 0d9b 00       		.sleb128 0
 2729 0d9c 01       		.byte	0x1
 2730 0d9d 00       		.byte	0
 2731              		.section	.debug_abbrev,"",%progbits
 2732              	.Ldebug_abbrev0:
 2733 0000 01       		.uleb128 0x1
 2734 0001 11       		.uleb128 0x11
 2735 0002 01       		.byte	0x1
 2736 0003 25       		.uleb128 0x25
 2737 0004 0E       		.uleb128 0xe
 2738 0005 13       		.uleb128 0x13
 2739 0006 0B       		.uleb128 0xb
 2740 0007 03       		.uleb128 0x3
 2741 0008 0E       		.uleb128 0xe
 2742 0009 1B       		.uleb128 0x1b
 2743 000a 0E       		.uleb128 0xe
 2744 000b 55       		.uleb128 0x55
ARM GAS  /tmp/ccTiGcp2.s 			page 54


 2745 000c 06       		.uleb128 0x6
 2746 000d 11       		.uleb128 0x11
 2747 000e 01       		.uleb128 0x1
 2748 000f 52       		.uleb128 0x52
 2749 0010 01       		.uleb128 0x1
 2750 0011 10       		.uleb128 0x10
 2751 0012 06       		.uleb128 0x6
 2752 0013 00       		.byte	0
 2753 0014 00       		.byte	0
 2754 0015 02       		.uleb128 0x2
 2755 0016 24       		.uleb128 0x24
 2756 0017 00       		.byte	0
 2757 0018 0B       		.uleb128 0xb
 2758 0019 0B       		.uleb128 0xb
 2759 001a 3E       		.uleb128 0x3e
 2760 001b 0B       		.uleb128 0xb
 2761 001c 03       		.uleb128 0x3
 2762 001d 0E       		.uleb128 0xe
 2763 001e 00       		.byte	0
 2764 001f 00       		.byte	0
 2765 0020 03       		.uleb128 0x3
 2766 0021 24       		.uleb128 0x24
 2767 0022 00       		.byte	0
 2768 0023 0B       		.uleb128 0xb
 2769 0024 0B       		.uleb128 0xb
 2770 0025 3E       		.uleb128 0x3e
 2771 0026 0B       		.uleb128 0xb
 2772 0027 03       		.uleb128 0x3
 2773 0028 08       		.uleb128 0x8
 2774 0029 00       		.byte	0
 2775 002a 00       		.byte	0
 2776 002b 04       		.uleb128 0x4
 2777 002c 16       		.uleb128 0x16
 2778 002d 00       		.byte	0
 2779 002e 03       		.uleb128 0x3
 2780 002f 0E       		.uleb128 0xe
 2781 0030 3A       		.uleb128 0x3a
 2782 0031 0B       		.uleb128 0xb
 2783 0032 3B       		.uleb128 0x3b
 2784 0033 0B       		.uleb128 0xb
 2785 0034 39       		.uleb128 0x39
 2786 0035 0B       		.uleb128 0xb
 2787 0036 49       		.uleb128 0x49
 2788 0037 13       		.uleb128 0x13
 2789 0038 00       		.byte	0
 2790 0039 00       		.byte	0
 2791 003a 05       		.uleb128 0x5
 2792 003b 35       		.uleb128 0x35
 2793 003c 00       		.byte	0
 2794 003d 49       		.uleb128 0x49
 2795 003e 13       		.uleb128 0x13
 2796 003f 00       		.byte	0
 2797 0040 00       		.byte	0
 2798 0041 06       		.uleb128 0x6
 2799 0042 26       		.uleb128 0x26
 2800 0043 00       		.byte	0
 2801 0044 49       		.uleb128 0x49
ARM GAS  /tmp/ccTiGcp2.s 			page 55


 2802 0045 13       		.uleb128 0x13
 2803 0046 00       		.byte	0
 2804 0047 00       		.byte	0
 2805 0048 07       		.uleb128 0x7
 2806 0049 0F       		.uleb128 0xf
 2807 004a 00       		.byte	0
 2808 004b 0B       		.uleb128 0xb
 2809 004c 0B       		.uleb128 0xb
 2810 004d 49       		.uleb128 0x49
 2811 004e 13       		.uleb128 0x13
 2812 004f 00       		.byte	0
 2813 0050 00       		.byte	0
 2814 0051 08       		.uleb128 0x8
 2815 0052 15       		.uleb128 0x15
 2816 0053 01       		.byte	0x1
 2817 0054 27       		.uleb128 0x27
 2818 0055 0C       		.uleb128 0xc
 2819 0056 01       		.uleb128 0x1
 2820 0057 13       		.uleb128 0x13
 2821 0058 00       		.byte	0
 2822 0059 00       		.byte	0
 2823 005a 09       		.uleb128 0x9
 2824 005b 05       		.uleb128 0x5
 2825 005c 00       		.byte	0
 2826 005d 49       		.uleb128 0x49
 2827 005e 13       		.uleb128 0x13
 2828 005f 00       		.byte	0
 2829 0060 00       		.byte	0
 2830 0061 0A       		.uleb128 0xa
 2831 0062 0F       		.uleb128 0xf
 2832 0063 00       		.byte	0
 2833 0064 0B       		.uleb128 0xb
 2834 0065 0B       		.uleb128 0xb
 2835 0066 00       		.byte	0
 2836 0067 00       		.byte	0
 2837 0068 0B       		.uleb128 0xb
 2838 0069 13       		.uleb128 0x13
 2839 006a 00       		.byte	0
 2840 006b 03       		.uleb128 0x3
 2841 006c 0E       		.uleb128 0xe
 2842 006d 3C       		.uleb128 0x3c
 2843 006e 0C       		.uleb128 0xc
 2844 006f 00       		.byte	0
 2845 0070 00       		.byte	0
 2846 0071 0C       		.uleb128 0xc
 2847 0072 04       		.uleb128 0x4
 2848 0073 01       		.byte	0x1
 2849 0074 03       		.uleb128 0x3
 2850 0075 0E       		.uleb128 0xe
 2851 0076 3E       		.uleb128 0x3e
 2852 0077 0B       		.uleb128 0xb
 2853 0078 0B       		.uleb128 0xb
 2854 0079 0B       		.uleb128 0xb
 2855 007a 49       		.uleb128 0x49
 2856 007b 13       		.uleb128 0x13
 2857 007c 3A       		.uleb128 0x3a
 2858 007d 0B       		.uleb128 0xb
ARM GAS  /tmp/ccTiGcp2.s 			page 56


 2859 007e 3B       		.uleb128 0x3b
 2860 007f 0B       		.uleb128 0xb
 2861 0080 39       		.uleb128 0x39
 2862 0081 0B       		.uleb128 0xb
 2863 0082 01       		.uleb128 0x1
 2864 0083 13       		.uleb128 0x13
 2865 0084 00       		.byte	0
 2866 0085 00       		.byte	0
 2867 0086 0D       		.uleb128 0xd
 2868 0087 28       		.uleb128 0x28
 2869 0088 00       		.byte	0
 2870 0089 03       		.uleb128 0x3
 2871 008a 0E       		.uleb128 0xe
 2872 008b 1C       		.uleb128 0x1c
 2873 008c 0D       		.uleb128 0xd
 2874 008d 00       		.byte	0
 2875 008e 00       		.byte	0
 2876 008f 0E       		.uleb128 0xe
 2877 0090 28       		.uleb128 0x28
 2878 0091 00       		.byte	0
 2879 0092 03       		.uleb128 0x3
 2880 0093 0E       		.uleb128 0xe
 2881 0094 1C       		.uleb128 0x1c
 2882 0095 0B       		.uleb128 0xb
 2883 0096 00       		.byte	0
 2884 0097 00       		.byte	0
 2885 0098 0F       		.uleb128 0xf
 2886 0099 16       		.uleb128 0x16
 2887 009a 00       		.byte	0
 2888 009b 03       		.uleb128 0x3
 2889 009c 0E       		.uleb128 0xe
 2890 009d 3A       		.uleb128 0x3a
 2891 009e 0B       		.uleb128 0xb
 2892 009f 3B       		.uleb128 0x3b
 2893 00a0 05       		.uleb128 0x5
 2894 00a1 39       		.uleb128 0x39
 2895 00a2 0B       		.uleb128 0xb
 2896 00a3 49       		.uleb128 0x49
 2897 00a4 13       		.uleb128 0x13
 2898 00a5 00       		.byte	0
 2899 00a6 00       		.byte	0
 2900 00a7 10       		.uleb128 0x10
 2901 00a8 13       		.uleb128 0x13
 2902 00a9 01       		.byte	0x1
 2903 00aa 0B       		.uleb128 0xb
 2904 00ab 05       		.uleb128 0x5
 2905 00ac 3A       		.uleb128 0x3a
 2906 00ad 0B       		.uleb128 0xb
 2907 00ae 3B       		.uleb128 0x3b
 2908 00af 0B       		.uleb128 0xb
 2909 00b0 39       		.uleb128 0x39
 2910 00b1 0B       		.uleb128 0xb
 2911 00b2 01       		.uleb128 0x1
 2912 00b3 13       		.uleb128 0x13
 2913 00b4 00       		.byte	0
 2914 00b5 00       		.byte	0
 2915 00b6 11       		.uleb128 0x11
ARM GAS  /tmp/ccTiGcp2.s 			page 57


 2916 00b7 0D       		.uleb128 0xd
 2917 00b8 00       		.byte	0
 2918 00b9 03       		.uleb128 0x3
 2919 00ba 0E       		.uleb128 0xe
 2920 00bb 3A       		.uleb128 0x3a
 2921 00bc 0B       		.uleb128 0xb
 2922 00bd 3B       		.uleb128 0x3b
 2923 00be 0B       		.uleb128 0xb
 2924 00bf 39       		.uleb128 0x39
 2925 00c0 0B       		.uleb128 0xb
 2926 00c1 49       		.uleb128 0x49
 2927 00c2 13       		.uleb128 0x13
 2928 00c3 38       		.uleb128 0x38
 2929 00c4 0A       		.uleb128 0xa
 2930 00c5 00       		.byte	0
 2931 00c6 00       		.byte	0
 2932 00c7 12       		.uleb128 0x12
 2933 00c8 0D       		.uleb128 0xd
 2934 00c9 00       		.byte	0
 2935 00ca 03       		.uleb128 0x3
 2936 00cb 08       		.uleb128 0x8
 2937 00cc 3A       		.uleb128 0x3a
 2938 00cd 0B       		.uleb128 0xb
 2939 00ce 3B       		.uleb128 0x3b
 2940 00cf 0B       		.uleb128 0xb
 2941 00d0 39       		.uleb128 0x39
 2942 00d1 0B       		.uleb128 0xb
 2943 00d2 49       		.uleb128 0x49
 2944 00d3 13       		.uleb128 0x13
 2945 00d4 38       		.uleb128 0x38
 2946 00d5 0A       		.uleb128 0xa
 2947 00d6 00       		.byte	0
 2948 00d7 00       		.byte	0
 2949 00d8 13       		.uleb128 0x13
 2950 00d9 01       		.uleb128 0x1
 2951 00da 01       		.byte	0x1
 2952 00db 49       		.uleb128 0x49
 2953 00dc 13       		.uleb128 0x13
 2954 00dd 01       		.uleb128 0x1
 2955 00de 13       		.uleb128 0x13
 2956 00df 00       		.byte	0
 2957 00e0 00       		.byte	0
 2958 00e1 14       		.uleb128 0x14
 2959 00e2 21       		.uleb128 0x21
 2960 00e3 00       		.byte	0
 2961 00e4 49       		.uleb128 0x49
 2962 00e5 13       		.uleb128 0x13
 2963 00e6 2F       		.uleb128 0x2f
 2964 00e7 0B       		.uleb128 0xb
 2965 00e8 00       		.byte	0
 2966 00e9 00       		.byte	0
 2967 00ea 15       		.uleb128 0x15
 2968 00eb 21       		.uleb128 0x21
 2969 00ec 00       		.byte	0
 2970 00ed 49       		.uleb128 0x49
 2971 00ee 13       		.uleb128 0x13
 2972 00ef 2F       		.uleb128 0x2f
ARM GAS  /tmp/ccTiGcp2.s 			page 58


 2973 00f0 05       		.uleb128 0x5
 2974 00f1 00       		.byte	0
 2975 00f2 00       		.byte	0
 2976 00f3 16       		.uleb128 0x16
 2977 00f4 16       		.uleb128 0x16
 2978 00f5 00       		.byte	0
 2979 00f6 03       		.uleb128 0x3
 2980 00f7 08       		.uleb128 0x8
 2981 00f8 3A       		.uleb128 0x3a
 2982 00f9 0B       		.uleb128 0xb
 2983 00fa 3B       		.uleb128 0x3b
 2984 00fb 05       		.uleb128 0x5
 2985 00fc 39       		.uleb128 0x39
 2986 00fd 0B       		.uleb128 0xb
 2987 00fe 49       		.uleb128 0x49
 2988 00ff 13       		.uleb128 0x13
 2989 0100 00       		.byte	0
 2990 0101 00       		.byte	0
 2991 0102 17       		.uleb128 0x17
 2992 0103 13       		.uleb128 0x13
 2993 0104 01       		.byte	0x1
 2994 0105 0B       		.uleb128 0xb
 2995 0106 0B       		.uleb128 0xb
 2996 0107 3A       		.uleb128 0x3a
 2997 0108 0B       		.uleb128 0xb
 2998 0109 3B       		.uleb128 0x3b
 2999 010a 05       		.uleb128 0x5
 3000 010b 39       		.uleb128 0x39
 3001 010c 0B       		.uleb128 0xb
 3002 010d 01       		.uleb128 0x1
 3003 010e 13       		.uleb128 0x13
 3004 010f 00       		.byte	0
 3005 0110 00       		.byte	0
 3006 0111 18       		.uleb128 0x18
 3007 0112 0D       		.uleb128 0xd
 3008 0113 00       		.byte	0
 3009 0114 03       		.uleb128 0x3
 3010 0115 08       		.uleb128 0x8
 3011 0116 3A       		.uleb128 0x3a
 3012 0117 0B       		.uleb128 0xb
 3013 0118 3B       		.uleb128 0x3b
 3014 0119 05       		.uleb128 0x5
 3015 011a 39       		.uleb128 0x39
 3016 011b 0B       		.uleb128 0xb
 3017 011c 49       		.uleb128 0x49
 3018 011d 13       		.uleb128 0x13
 3019 011e 38       		.uleb128 0x38
 3020 011f 0A       		.uleb128 0xa
 3021 0120 00       		.byte	0
 3022 0121 00       		.byte	0
 3023 0122 19       		.uleb128 0x19
 3024 0123 0D       		.uleb128 0xd
 3025 0124 00       		.byte	0
 3026 0125 03       		.uleb128 0x3
 3027 0126 0E       		.uleb128 0xe
 3028 0127 3A       		.uleb128 0x3a
 3029 0128 0B       		.uleb128 0xb
ARM GAS  /tmp/ccTiGcp2.s 			page 59


 3030 0129 3B       		.uleb128 0x3b
 3031 012a 05       		.uleb128 0x5
 3032 012b 39       		.uleb128 0x39
 3033 012c 0B       		.uleb128 0xb
 3034 012d 49       		.uleb128 0x49
 3035 012e 13       		.uleb128 0x13
 3036 012f 38       		.uleb128 0x38
 3037 0130 0A       		.uleb128 0xa
 3038 0131 00       		.byte	0
 3039 0132 00       		.byte	0
 3040 0133 1A       		.uleb128 0x1a
 3041 0134 34       		.uleb128 0x34
 3042 0135 00       		.byte	0
 3043 0136 03       		.uleb128 0x3
 3044 0137 0E       		.uleb128 0xe
 3045 0138 3A       		.uleb128 0x3a
 3046 0139 0B       		.uleb128 0xb
 3047 013a 3B       		.uleb128 0x3b
 3048 013b 0B       		.uleb128 0xb
 3049 013c 39       		.uleb128 0x39
 3050 013d 0B       		.uleb128 0xb
 3051 013e 49       		.uleb128 0x49
 3052 013f 13       		.uleb128 0x13
 3053 0140 00       		.byte	0
 3054 0141 00       		.byte	0
 3055 0142 1B       		.uleb128 0x1b
 3056 0143 2E       		.uleb128 0x2e
 3057 0144 01       		.byte	0x1
 3058 0145 3F       		.uleb128 0x3f
 3059 0146 0C       		.uleb128 0xc
 3060 0147 03       		.uleb128 0x3
 3061 0148 0E       		.uleb128 0xe
 3062 0149 3A       		.uleb128 0x3a
 3063 014a 0B       		.uleb128 0xb
 3064 014b 3B       		.uleb128 0x3b
 3065 014c 0B       		.uleb128 0xb
 3066 014d 39       		.uleb128 0x39
 3067 014e 0B       		.uleb128 0xb
 3068 014f 27       		.uleb128 0x27
 3069 0150 0C       		.uleb128 0xc
 3070 0151 3C       		.uleb128 0x3c
 3071 0152 0C       		.uleb128 0xc
 3072 0153 01       		.uleb128 0x1
 3073 0154 13       		.uleb128 0x13
 3074 0155 00       		.byte	0
 3075 0156 00       		.byte	0
 3076 0157 1C       		.uleb128 0x1c
 3077 0158 2E       		.uleb128 0x2e
 3078 0159 00       		.byte	0
 3079 015a 3F       		.uleb128 0x3f
 3080 015b 0C       		.uleb128 0xc
 3081 015c 03       		.uleb128 0x3
 3082 015d 0E       		.uleb128 0xe
 3083 015e 3A       		.uleb128 0x3a
 3084 015f 0B       		.uleb128 0xb
 3085 0160 3B       		.uleb128 0x3b
 3086 0161 0B       		.uleb128 0xb
ARM GAS  /tmp/ccTiGcp2.s 			page 60


 3087 0162 39       		.uleb128 0x39
 3088 0163 0B       		.uleb128 0xb
 3089 0164 27       		.uleb128 0x27
 3090 0165 0C       		.uleb128 0xc
 3091 0166 3C       		.uleb128 0x3c
 3092 0167 0C       		.uleb128 0xc
 3093 0168 00       		.byte	0
 3094 0169 00       		.byte	0
 3095 016a 1D       		.uleb128 0x1d
 3096 016b 2E       		.uleb128 0x2e
 3097 016c 01       		.byte	0x1
 3098 016d 3F       		.uleb128 0x3f
 3099 016e 0C       		.uleb128 0xc
 3100 016f 03       		.uleb128 0x3
 3101 0170 0E       		.uleb128 0xe
 3102 0171 3A       		.uleb128 0x3a
 3103 0172 0B       		.uleb128 0xb
 3104 0173 3B       		.uleb128 0x3b
 3105 0174 05       		.uleb128 0x5
 3106 0175 39       		.uleb128 0x39
 3107 0176 0B       		.uleb128 0xb
 3108 0177 27       		.uleb128 0x27
 3109 0178 0C       		.uleb128 0xc
 3110 0179 3C       		.uleb128 0x3c
 3111 017a 0C       		.uleb128 0xc
 3112 017b 01       		.uleb128 0x1
 3113 017c 13       		.uleb128 0x13
 3114 017d 00       		.byte	0
 3115 017e 00       		.byte	0
 3116 017f 1E       		.uleb128 0x1e
 3117 0180 2E       		.uleb128 0x2e
 3118 0181 00       		.byte	0
 3119 0182 3F       		.uleb128 0x3f
 3120 0183 0C       		.uleb128 0xc
 3121 0184 03       		.uleb128 0x3
 3122 0185 0E       		.uleb128 0xe
 3123 0186 3A       		.uleb128 0x3a
 3124 0187 0B       		.uleb128 0xb
 3125 0188 3B       		.uleb128 0x3b
 3126 0189 05       		.uleb128 0x5
 3127 018a 39       		.uleb128 0x39
 3128 018b 0B       		.uleb128 0xb
 3129 018c 27       		.uleb128 0x27
 3130 018d 0C       		.uleb128 0xc
 3131 018e 3C       		.uleb128 0x3c
 3132 018f 0C       		.uleb128 0xc
 3133 0190 00       		.byte	0
 3134 0191 00       		.byte	0
 3135 0192 1F       		.uleb128 0x1f
 3136 0193 2E       		.uleb128 0x2e
 3137 0194 01       		.byte	0x1
 3138 0195 3F       		.uleb128 0x3f
 3139 0196 0C       		.uleb128 0xc
 3140 0197 03       		.uleb128 0x3
 3141 0198 0E       		.uleb128 0xe
 3142 0199 3A       		.uleb128 0x3a
 3143 019a 0B       		.uleb128 0xb
ARM GAS  /tmp/ccTiGcp2.s 			page 61


 3144 019b 3B       		.uleb128 0x3b
 3145 019c 05       		.uleb128 0x5
 3146 019d 39       		.uleb128 0x39
 3147 019e 0B       		.uleb128 0xb
 3148 019f 27       		.uleb128 0x27
 3149 01a0 0C       		.uleb128 0xc
 3150 01a1 49       		.uleb128 0x49
 3151 01a2 13       		.uleb128 0x13
 3152 01a3 3C       		.uleb128 0x3c
 3153 01a4 0C       		.uleb128 0xc
 3154 01a5 01       		.uleb128 0x1
 3155 01a6 13       		.uleb128 0x13
 3156 01a7 00       		.byte	0
 3157 01a8 00       		.byte	0
 3158 01a9 20       		.uleb128 0x20
 3159 01aa 2E       		.uleb128 0x2e
 3160 01ab 01       		.byte	0x1
 3161 01ac 3F       		.uleb128 0x3f
 3162 01ad 0C       		.uleb128 0xc
 3163 01ae 03       		.uleb128 0x3
 3164 01af 0E       		.uleb128 0xe
 3165 01b0 3A       		.uleb128 0x3a
 3166 01b1 0B       		.uleb128 0xb
 3167 01b2 3B       		.uleb128 0x3b
 3168 01b3 0B       		.uleb128 0xb
 3169 01b4 39       		.uleb128 0x39
 3170 01b5 0B       		.uleb128 0xb
 3171 01b6 27       		.uleb128 0x27
 3172 01b7 0C       		.uleb128 0xc
 3173 01b8 49       		.uleb128 0x49
 3174 01b9 13       		.uleb128 0x13
 3175 01ba 11       		.uleb128 0x11
 3176 01bb 01       		.uleb128 0x1
 3177 01bc 12       		.uleb128 0x12
 3178 01bd 01       		.uleb128 0x1
 3179 01be 40       		.uleb128 0x40
 3180 01bf 06       		.uleb128 0x6
 3181 01c0 9742     		.uleb128 0x2117
 3182 01c2 0C       		.uleb128 0xc
 3183 01c3 01       		.uleb128 0x1
 3184 01c4 13       		.uleb128 0x13
 3185 01c5 00       		.byte	0
 3186 01c6 00       		.byte	0
 3187 01c7 21       		.uleb128 0x21
 3188 01c8 898201   		.uleb128 0x4109
 3189 01cb 01       		.byte	0x1
 3190 01cc 11       		.uleb128 0x11
 3191 01cd 01       		.uleb128 0x1
 3192 01ce 31       		.uleb128 0x31
 3193 01cf 13       		.uleb128 0x13
 3194 01d0 01       		.uleb128 0x1
 3195 01d1 13       		.uleb128 0x13
 3196 01d2 00       		.byte	0
 3197 01d3 00       		.byte	0
 3198 01d4 22       		.uleb128 0x22
 3199 01d5 8A8201   		.uleb128 0x410a
 3200 01d8 00       		.byte	0
ARM GAS  /tmp/ccTiGcp2.s 			page 62


 3201 01d9 02       		.uleb128 0x2
 3202 01da 0A       		.uleb128 0xa
 3203 01db 9142     		.uleb128 0x2111
 3204 01dd 0A       		.uleb128 0xa
 3205 01de 00       		.byte	0
 3206 01df 00       		.byte	0
 3207 01e0 23       		.uleb128 0x23
 3208 01e1 898201   		.uleb128 0x4109
 3209 01e4 00       		.byte	0
 3210 01e5 11       		.uleb128 0x11
 3211 01e6 01       		.uleb128 0x1
 3212 01e7 31       		.uleb128 0x31
 3213 01e8 13       		.uleb128 0x13
 3214 01e9 00       		.byte	0
 3215 01ea 00       		.byte	0
 3216 01eb 24       		.uleb128 0x24
 3217 01ec 2E       		.uleb128 0x2e
 3218 01ed 01       		.byte	0x1
 3219 01ee 03       		.uleb128 0x3
 3220 01ef 0E       		.uleb128 0xe
 3221 01f0 3A       		.uleb128 0x3a
 3222 01f1 0B       		.uleb128 0xb
 3223 01f2 3B       		.uleb128 0x3b
 3224 01f3 0B       		.uleb128 0xb
 3225 01f4 39       		.uleb128 0x39
 3226 01f5 0B       		.uleb128 0xb
 3227 01f6 27       		.uleb128 0x27
 3228 01f7 0C       		.uleb128 0xc
 3229 01f8 11       		.uleb128 0x11
 3230 01f9 01       		.uleb128 0x1
 3231 01fa 12       		.uleb128 0x12
 3232 01fb 01       		.uleb128 0x1
 3233 01fc 40       		.uleb128 0x40
 3234 01fd 06       		.uleb128 0x6
 3235 01fe 9742     		.uleb128 0x2117
 3236 0200 0C       		.uleb128 0xc
 3237 0201 01       		.uleb128 0x1
 3238 0202 13       		.uleb128 0x13
 3239 0203 00       		.byte	0
 3240 0204 00       		.byte	0
 3241 0205 25       		.uleb128 0x25
 3242 0206 05       		.uleb128 0x5
 3243 0207 00       		.byte	0
 3244 0208 03       		.uleb128 0x3
 3245 0209 0E       		.uleb128 0xe
 3246 020a 3A       		.uleb128 0x3a
 3247 020b 0B       		.uleb128 0xb
 3248 020c 3B       		.uleb128 0x3b
 3249 020d 0B       		.uleb128 0xb
 3250 020e 39       		.uleb128 0x39
 3251 020f 0B       		.uleb128 0xb
 3252 0210 49       		.uleb128 0x49
 3253 0211 13       		.uleb128 0x13
 3254 0212 02       		.uleb128 0x2
 3255 0213 06       		.uleb128 0x6
 3256 0214 B742     		.uleb128 0x2137
 3257 0216 06       		.uleb128 0x6
ARM GAS  /tmp/ccTiGcp2.s 			page 63


 3258 0217 00       		.byte	0
 3259 0218 00       		.byte	0
 3260 0219 26       		.uleb128 0x26
 3261 021a 898201   		.uleb128 0x4109
 3262 021d 01       		.byte	0x1
 3263 021e 11       		.uleb128 0x11
 3264 021f 01       		.uleb128 0x1
 3265 0220 31       		.uleb128 0x31
 3266 0221 13       		.uleb128 0x13
 3267 0222 00       		.byte	0
 3268 0223 00       		.byte	0
 3269 0224 27       		.uleb128 0x27
 3270 0225 34       		.uleb128 0x34
 3271 0226 00       		.byte	0
 3272 0227 03       		.uleb128 0x3
 3273 0228 0E       		.uleb128 0xe
 3274 0229 3A       		.uleb128 0x3a
 3275 022a 0B       		.uleb128 0xb
 3276 022b 3B       		.uleb128 0x3b
 3277 022c 0B       		.uleb128 0xb
 3278 022d 39       		.uleb128 0x39
 3279 022e 0B       		.uleb128 0xb
 3280 022f 49       		.uleb128 0x49
 3281 0230 13       		.uleb128 0x13
 3282 0231 02       		.uleb128 0x2
 3283 0232 06       		.uleb128 0x6
 3284 0233 B742     		.uleb128 0x2137
 3285 0235 06       		.uleb128 0x6
 3286 0236 00       		.byte	0
 3287 0237 00       		.byte	0
 3288 0238 28       		.uleb128 0x28
 3289 0239 2E       		.uleb128 0x2e
 3290 023a 01       		.byte	0x1
 3291 023b 3F       		.uleb128 0x3f
 3292 023c 0C       		.uleb128 0xc
 3293 023d 03       		.uleb128 0x3
 3294 023e 0E       		.uleb128 0xe
 3295 023f 3A       		.uleb128 0x3a
 3296 0240 0B       		.uleb128 0xb
 3297 0241 3B       		.uleb128 0x3b
 3298 0242 0B       		.uleb128 0xb
 3299 0243 39       		.uleb128 0x39
 3300 0244 0B       		.uleb128 0xb
 3301 0245 27       		.uleb128 0x27
 3302 0246 0C       		.uleb128 0xc
 3303 0247 11       		.uleb128 0x11
 3304 0248 01       		.uleb128 0x1
 3305 0249 12       		.uleb128 0x12
 3306 024a 01       		.uleb128 0x1
 3307 024b 40       		.uleb128 0x40
 3308 024c 0A       		.uleb128 0xa
 3309 024d 9742     		.uleb128 0x2117
 3310 024f 0C       		.uleb128 0xc
 3311 0250 01       		.uleb128 0x1
 3312 0251 13       		.uleb128 0x13
 3313 0252 00       		.byte	0
 3314 0253 00       		.byte	0
ARM GAS  /tmp/ccTiGcp2.s 			page 64


 3315 0254 29       		.uleb128 0x29
 3316 0255 2E       		.uleb128 0x2e
 3317 0256 00       		.byte	0
 3318 0257 3F       		.uleb128 0x3f
 3319 0258 0C       		.uleb128 0xc
 3320 0259 03       		.uleb128 0x3
 3321 025a 0E       		.uleb128 0xe
 3322 025b 3A       		.uleb128 0x3a
 3323 025c 0B       		.uleb128 0xb
 3324 025d 3B       		.uleb128 0x3b
 3325 025e 0B       		.uleb128 0xb
 3326 025f 39       		.uleb128 0x39
 3327 0260 0B       		.uleb128 0xb
 3328 0261 27       		.uleb128 0x27
 3329 0262 0C       		.uleb128 0xc
 3330 0263 11       		.uleb128 0x11
 3331 0264 01       		.uleb128 0x1
 3332 0265 12       		.uleb128 0x12
 3333 0266 01       		.uleb128 0x1
 3334 0267 40       		.uleb128 0x40
 3335 0268 0A       		.uleb128 0xa
 3336 0269 9742     		.uleb128 0x2117
 3337 026b 0C       		.uleb128 0xc
 3338 026c 00       		.byte	0
 3339 026d 00       		.byte	0
 3340 026e 2A       		.uleb128 0x2a
 3341 026f 2E       		.uleb128 0x2e
 3342 0270 01       		.byte	0x1
 3343 0271 3F       		.uleb128 0x3f
 3344 0272 0C       		.uleb128 0xc
 3345 0273 03       		.uleb128 0x3
 3346 0274 0E       		.uleb128 0xe
 3347 0275 3A       		.uleb128 0x3a
 3348 0276 0B       		.uleb128 0xb
 3349 0277 3B       		.uleb128 0x3b
 3350 0278 0B       		.uleb128 0xb
 3351 0279 39       		.uleb128 0x39
 3352 027a 0B       		.uleb128 0xb
 3353 027b 27       		.uleb128 0x27
 3354 027c 0C       		.uleb128 0xc
 3355 027d 11       		.uleb128 0x11
 3356 027e 01       		.uleb128 0x1
 3357 027f 12       		.uleb128 0x12
 3358 0280 01       		.uleb128 0x1
 3359 0281 40       		.uleb128 0x40
 3360 0282 06       		.uleb128 0x6
 3361 0283 9742     		.uleb128 0x2117
 3362 0285 0C       		.uleb128 0xc
 3363 0286 01       		.uleb128 0x1
 3364 0287 13       		.uleb128 0x13
 3365 0288 00       		.byte	0
 3366 0289 00       		.byte	0
 3367 028a 2B       		.uleb128 0x2b
 3368 028b 05       		.uleb128 0x5
 3369 028c 00       		.byte	0
 3370 028d 03       		.uleb128 0x3
 3371 028e 08       		.uleb128 0x8
ARM GAS  /tmp/ccTiGcp2.s 			page 65


 3372 028f 3A       		.uleb128 0x3a
 3373 0290 0B       		.uleb128 0xb
 3374 0291 3B       		.uleb128 0x3b
 3375 0292 0B       		.uleb128 0xb
 3376 0293 39       		.uleb128 0x39
 3377 0294 0B       		.uleb128 0xb
 3378 0295 49       		.uleb128 0x49
 3379 0296 13       		.uleb128 0x13
 3380 0297 02       		.uleb128 0x2
 3381 0298 0A       		.uleb128 0xa
 3382 0299 00       		.byte	0
 3383 029a 00       		.byte	0
 3384 029b 2C       		.uleb128 0x2c
 3385 029c 2E       		.uleb128 0x2e
 3386 029d 00       		.byte	0
 3387 029e 3F       		.uleb128 0x3f
 3388 029f 0C       		.uleb128 0xc
 3389 02a0 03       		.uleb128 0x3
 3390 02a1 0E       		.uleb128 0xe
 3391 02a2 3A       		.uleb128 0x3a
 3392 02a3 0B       		.uleb128 0xb
 3393 02a4 3B       		.uleb128 0x3b
 3394 02a5 0B       		.uleb128 0xb
 3395 02a6 39       		.uleb128 0x39
 3396 02a7 0B       		.uleb128 0xb
 3397 02a8 11       		.uleb128 0x11
 3398 02a9 01       		.uleb128 0x1
 3399 02aa 12       		.uleb128 0x12
 3400 02ab 01       		.uleb128 0x1
 3401 02ac 40       		.uleb128 0x40
 3402 02ad 0A       		.uleb128 0xa
 3403 02ae 9742     		.uleb128 0x2117
 3404 02b0 0C       		.uleb128 0xc
 3405 02b1 00       		.byte	0
 3406 02b2 00       		.byte	0
 3407 02b3 00       		.byte	0
 3408              		.section	.debug_loc,"",%progbits
 3409              	.Ldebug_loc0:
 3410              	.LLST8:
 3411 0000 00000000 		.4byte	.LFB43
 3412 0004 06000000 		.4byte	.LCFI5
 3413 0008 0200     		.2byte	0x2
 3414 000a 7D       		.byte	0x7d
 3415 000b 00       		.sleb128 0
 3416 000c 06000000 		.4byte	.LCFI5
 3417 0010 4C000000 		.4byte	.LFE43
 3418 0014 0200     		.2byte	0x2
 3419 0016 7D       		.byte	0x7d
 3420 0017 10       		.sleb128 16
 3421 0018 00000000 		.4byte	0
 3422 001c 00000000 		.4byte	0
 3423              	.LLST0:
 3424 0020 00000000 		.4byte	.LFB41
 3425 0024 04000000 		.4byte	.LCFI0
 3426 0028 0200     		.2byte	0x2
 3427 002a 7D       		.byte	0x7d
 3428 002b 00       		.sleb128 0
ARM GAS  /tmp/ccTiGcp2.s 			page 66


 3429 002c 04000000 		.4byte	.LCFI0
 3430 0030 30000000 		.4byte	.LFE41
 3431 0034 0200     		.2byte	0x2
 3432 0036 7D       		.byte	0x7d
 3433 0037 08       		.sleb128 8
 3434 0038 00000000 		.4byte	0
 3435 003c 00000000 		.4byte	0
 3436              	.LVUS1:
 3437 0040 00       		.uleb128 0
 3438 0041 00       		.uleb128 .LVU10
 3439 0042 00       		.uleb128 .LVU10
 3440 0043 00       		.uleb128 0
 3441              	.LLST1:
 3442 0044 00000000 		.4byte	.LVL0
 3443 0048 16000000 		.4byte	.LVL1
 3444 004c 0100     		.2byte	0x1
 3445 004e 50       		.byte	0x50
 3446 004f 16000000 		.4byte	.LVL1
 3447 0053 30000000 		.4byte	.LFE41
 3448 0057 0A00     		.2byte	0xa
 3449 0059 F3       		.byte	0xf3
 3450 005a 03       		.uleb128 0x3
 3451 005b F5       		.byte	0xf5
 3452 005c 00       		.uleb128 0
 3453 005d 29       		.uleb128 0x29
 3454 005e F7       		.byte	0xf7
 3455 005f 30       		.uleb128 0x30
 3456 0060 F7       		.byte	0xf7
 3457 0061 00       		.uleb128 0
 3458 0062 9F       		.byte	0x9f
 3459 0063 00000000 		.4byte	0
 3460 0067 00000000 		.4byte	0
 3461              	.LLST2:
 3462 006b 30000000 		.4byte	.LFB40
 3463 006f 34000000 		.4byte	.LCFI1
 3464 0073 0200     		.2byte	0x2
 3465 0075 7D       		.byte	0x7d
 3466 0076 00       		.sleb128 0
 3467 0077 34000000 		.4byte	.LCFI1
 3468 007b CC000000 		.4byte	.LFE40
 3469 007f 0200     		.2byte	0x2
 3470 0081 7D       		.byte	0x7d
 3471 0082 10       		.sleb128 16
 3472 0083 00000000 		.4byte	0
 3473 0087 00000000 		.4byte	0
 3474              	.LVUS3:
 3475 008b 00       		.uleb128 0
 3476 008c 00       		.uleb128 .LVU38
 3477 008d 00       		.uleb128 .LVU38
 3478 008e 00       		.uleb128 0
 3479              	.LLST3:
 3480 008f 30000000 		.4byte	.LVL3
 3481 0093 83000000 		.4byte	.LVL4-1
 3482 0097 0100     		.2byte	0x1
 3483 0099 50       		.byte	0x50
 3484 009a 83000000 		.4byte	.LVL4-1
 3485 009e CC000000 		.4byte	.LFE40
ARM GAS  /tmp/ccTiGcp2.s 			page 67


 3486 00a2 0A00     		.2byte	0xa
 3487 00a4 F3       		.byte	0xf3
 3488 00a5 03       		.uleb128 0x3
 3489 00a6 F5       		.byte	0xf5
 3490 00a7 00       		.uleb128 0
 3491 00a8 29       		.uleb128 0x29
 3492 00a9 F7       		.byte	0xf7
 3493 00aa 30       		.uleb128 0x30
 3494 00ab F7       		.byte	0xf7
 3495 00ac 00       		.uleb128 0
 3496 00ad 9F       		.byte	0x9f
 3497 00ae 00000000 		.4byte	0
 3498 00b2 00000000 		.4byte	0
 3499              	.LVUS4:
 3500 00b6 01       		.uleb128 .LVU41
 3501 00b7 00       		.uleb128 .LVU45
 3502 00b8 00       		.uleb128 .LVU45
 3503 00b9 00       		.uleb128 .LVU47
 3504 00ba 00       		.uleb128 .LVU47
 3505 00bb 00       		.uleb128 0
 3506              	.LLST4:
 3507 00bc 94000000 		.4byte	.LVL6
 3508 00c0 96000000 		.4byte	.LVL7
 3509 00c4 0100     		.2byte	0x1
 3510 00c6 54       		.byte	0x54
 3511 00c7 96000000 		.4byte	.LVL7
 3512 00cb 9E000000 		.4byte	.LVL8
 3513 00cf 0300     		.2byte	0x3
 3514 00d1 74       		.byte	0x74
 3515 00d2 7F       		.sleb128 -1
 3516 00d3 9F       		.byte	0x9f
 3517 00d4 9E000000 		.4byte	.LVL8
 3518 00d8 CC000000 		.4byte	.LFE40
 3519 00dc 0100     		.2byte	0x1
 3520 00de 54       		.byte	0x54
 3521 00df 00000000 		.4byte	0
 3522 00e3 00000000 		.4byte	0
 3523              	.LVUS7:
 3524 00e7 00       		.uleb128 0
 3525 00e8 00       		.uleb128 .LVU192
 3526 00e9 00       		.uleb128 .LVU192
 3527 00ea 00       		.uleb128 0
 3528              	.LLST7:
 3529 00eb 3C020000 		.4byte	.LVL15
 3530 00ef 46020000 		.4byte	.LVL16
 3531 00f3 0100     		.2byte	0x1
 3532 00f5 50       		.byte	0x50
 3533 00f6 46020000 		.4byte	.LVL16
 3534 00fa 54020000 		.4byte	.LFE39
 3535 00fe 0A00     		.2byte	0xa
 3536 0100 F3       		.byte	0xf3
 3537 0101 03       		.uleb128 0x3
 3538 0102 F5       		.byte	0xf5
 3539 0103 00       		.uleb128 0
 3540 0104 29       		.uleb128 0x29
 3541 0105 F7       		.byte	0xf7
 3542 0106 37       		.uleb128 0x37
ARM GAS  /tmp/ccTiGcp2.s 			page 68


 3543 0107 F7       		.byte	0xf7
 3544 0108 00       		.uleb128 0
 3545 0109 9F       		.byte	0x9f
 3546 010a 00000000 		.4byte	0
 3547 010e 00000000 		.4byte	0
 3548              	.LVUS6:
 3549 0112 00       		.uleb128 0
 3550 0113 00       		.uleb128 .LVU183
 3551 0114 00       		.uleb128 .LVU183
 3552 0115 00       		.uleb128 0
 3553              	.LLST6:
 3554 0116 24020000 		.4byte	.LVL13
 3555 011a 2E020000 		.4byte	.LVL14
 3556 011e 0100     		.2byte	0x1
 3557 0120 50       		.byte	0x50
 3558 0121 2E020000 		.4byte	.LVL14
 3559 0125 3C020000 		.4byte	.LFE38
 3560 0129 0A00     		.2byte	0xa
 3561 012b F3       		.byte	0xf3
 3562 012c 03       		.uleb128 0x3
 3563 012d F5       		.byte	0xf5
 3564 012e 00       		.uleb128 0
 3565 012f 29       		.uleb128 0x29
 3566 0130 F7       		.byte	0xf7
 3567 0131 37       		.uleb128 0x37
 3568 0132 F7       		.byte	0xf7
 3569 0133 00       		.uleb128 0
 3570 0134 9F       		.byte	0x9f
 3571 0135 00000000 		.4byte	0
 3572 0139 00000000 		.4byte	0
 3573              	.LLST5:
 3574 013d CC010000 		.4byte	.LFB36
 3575 0141 CE010000 		.4byte	.LCFI2
 3576 0145 0200     		.2byte	0x2
 3577 0147 7D       		.byte	0x7d
 3578 0148 00       		.sleb128 0
 3579 0149 CE010000 		.4byte	.LCFI2
 3580 014d DA010000 		.4byte	.LCFI3
 3581 0151 0200     		.2byte	0x2
 3582 0153 7D       		.byte	0x7d
 3583 0154 08       		.sleb128 8
 3584 0155 DA010000 		.4byte	.LCFI3
 3585 0159 DC010000 		.4byte	.LCFI4
 3586 015d 0200     		.2byte	0x2
 3587 015f 7D       		.byte	0x7d
 3588 0160 00       		.sleb128 0
 3589 0161 DC010000 		.4byte	.LCFI4
 3590 0165 FC010000 		.4byte	.LFE36
 3591 0169 0200     		.2byte	0x2
 3592 016b 7D       		.byte	0x7d
 3593 016c 08       		.sleb128 8
 3594 016d 00000000 		.4byte	0
 3595 0171 00000000 		.4byte	0
 3596              		.section	.debug_aranges,"",%progbits
 3597 0000 24000000 		.4byte	0x24
 3598 0004 0200     		.2byte	0x2
 3599 0006 00000000 		.4byte	.Ldebug_info0
ARM GAS  /tmp/ccTiGcp2.s 			page 69


 3600 000a 04       		.byte	0x4
 3601 000b 00       		.byte	0
 3602 000c 0000     		.2byte	0
 3603 000e 0000     		.2byte	0
 3604 0010 00000000 		.4byte	.Ltext0
 3605 0014 54020000 		.4byte	.Letext0-.Ltext0
 3606 0018 00000000 		.4byte	.LFB43
 3607 001c 4C000000 		.4byte	.LFE43-.LFB43
 3608 0020 00000000 		.4byte	0
 3609 0024 00000000 		.4byte	0
 3610              		.section	.debug_ranges,"",%progbits
 3611              	.Ldebug_ranges0:
 3612 0000 00000000 		.4byte	.Ltext0
 3613 0004 54020000 		.4byte	.Letext0
 3614 0008 00000000 		.4byte	.LFB43
 3615 000c 4C000000 		.4byte	.LFE43
 3616 0010 00000000 		.4byte	0
 3617 0014 00000000 		.4byte	0
 3618              		.section	.debug_line,"",%progbits
 3619              	.Ldebug_line0:
 3620 0000 DD040000 		.section	.debug_str,"MS",%progbits,1
 3620      03008201 
 3620      00000201 
 3620      FB0E0D00 
 3620      01010101 
 3621              	.LASF83:
 3622 0000 49435052 		.ascii	"ICPR\000"
 3622      00
 3623              	.LASF111:
 3624 0005 4C434B52 		.ascii	"LCKR\000"
 3624      00
 3625              	.LASF34:
 3626 000a 5056445F 		.ascii	"PVD_IRQn\000"
 3626      4952516E 
 3626      00
 3627              	.LASF125:
 3628 0013 44494552 		.ascii	"DIER\000"
 3628      00
 3629              	.LASF59:
 3630 0018 54494D31 		.ascii	"TIM1_TRG_COM_IRQn\000"
 3630      5F545247 
 3630      5F434F4D 
 3630      5F495251 
 3630      6E00
 3631              	.LASF64:
 3632 002a 49324331 		.ascii	"I2C1_EV_IRQn\000"
 3632      5F45565F 
 3632      4952516E 
 3632      00
 3633              	.LASF7:
 3634 0037 5F5F7569 		.ascii	"__uint8_t\000"
 3634      6E74385F 
 3634      7400
 3635              	.LASF149:
 3636 0041 54494D5F 		.ascii	"TIM_TypeDef\000"
 3636      54797065 
 3636      44656600 
ARM GAS  /tmp/ccTiGcp2.s 			page 70


 3637              	.LASF36:
 3638 004d 5254435F 		.ascii	"RTC_IRQn\000"
 3638      4952516E 
 3638      00
 3639              	.LASF54:
 3640 0056 43414E31 		.ascii	"CAN1_RX1_IRQn\000"
 3640      5F525831 
 3640      5F495251 
 3640      6E00
 3641              	.LASF138:
 3642 0064 43435232 		.ascii	"CCR2\000"
 3642      00
 3643              	.LASF67:
 3644 0069 49324332 		.ascii	"I2C2_ER_IRQn\000"
 3644      5F45525F 
 3644      4952516E 
 3644      00
 3645              	.LASF63:
 3646 0076 54494D34 		.ascii	"TIM4_IRQn\000"
 3646      5F495251 
 3646      6E00
 3647              	.LASF22:
 3648 0080 51756575 		.ascii	"QueueHandle_t\000"
 3648      6548616E 
 3648      646C655F 
 3648      7400
 3649              	.LASF41:
 3650 008e 45585449 		.ascii	"EXTI2_IRQn\000"
 3650      325F4952 
 3650      516E00
 3651              	.LASF33:
 3652 0099 57574447 		.ascii	"WWDG_IRQn\000"
 3652      5F495251 
 3652      6E00
 3653              	.LASF81:
 3654 00a3 49535052 		.ascii	"ISPR\000"
 3654      00
 3655              	.LASF99:
 3656 00a8 4A535152 		.ascii	"JSQR\000"
 3656      00
 3657              	.LASF126:
 3658 00ad 43434D52 		.ascii	"CCMR1\000"
 3658      3100
 3659              	.LASF128:
 3660 00b3 43434D52 		.ascii	"CCMR2\000"
 3660      3200
 3661              	.LASF3:
 3662 00b9 6C6F6E67 		.ascii	"long long int\000"
 3662      206C6F6E 
 3662      6720696E 
 3662      7400
 3663              	.LASF5:
 3664 00c7 7369676E 		.ascii	"signed char\000"
 3664      65642063 
 3664      68617200 
 3665              	.LASF110:
 3666 00d3 42535252 		.ascii	"BSRR\000"
ARM GAS  /tmp/ccTiGcp2.s 			page 71


 3666      00
 3667              	.LASF39:
 3668 00d8 45585449 		.ascii	"EXTI0_IRQn\000"
 3668      305F4952 
 3668      516E00
 3669              	.LASF109:
 3670 00e3 464C4153 		.ascii	"FLASH_TypeDef\000"
 3670      485F5479 
 3670      70654465 
 3670      6600
 3671              	.LASF151:
 3672 00f1 64697370 		.ascii	"disp_text\000"
 3672      5F746578 
 3672      7400
 3673              	.LASF153:
 3674 00fb 76546173 		.ascii	"vTaskDelay\000"
 3674      6B44656C 
 3674      617900
 3675              	.LASF0:
 3676 0106 6C6F6E67 		.ascii	"long long unsigned int\000"
 3676      206C6F6E 
 3676      6720756E 
 3676      7369676E 
 3676      65642069 
 3677              	.LASF115:
 3678 011d 41504231 		.ascii	"APB1RSTR\000"
 3678      52535452 
 3678      00
 3679              	.LASF167:
 3680 0126 474E5520 		.ascii	"GNU C17 13.2.0 -mcpu=cortex-m3 -mthumb -mfloat-abi="
 3680      43313720 
 3680      31332E32 
 3680      2E30202D 
 3680      6D637075 
 3681 0159 736F6674 		.ascii	"soft -march=armv7-m -g -gdwarf-2 -Os -fomit-frame-p"
 3681      202D6D61 
 3681      7263683D 
 3681      61726D76 
 3681      372D6D20 
 3682 018c 6F696E74 		.ascii	"ointer\000"
 3682      657200
 3683              	.LASF134:
 3684 0193 52455345 		.ascii	"RESERVED11\000"
 3684      52564544 
 3684      313100
 3685              	.LASF135:
 3686 019e 52455345 		.ascii	"RESERVED12\000"
 3686      52564544 
 3686      313200
 3687              	.LASF137:
 3688 01a9 52455345 		.ascii	"RESERVED13\000"
 3688      52564544 
 3688      313300
 3689              	.LASF139:
 3690 01b4 52455345 		.ascii	"RESERVED14\000"
 3690      52564544 
 3690      313400
ARM GAS  /tmp/ccTiGcp2.s 			page 72


 3691              	.LASF141:
 3692 01bf 52455345 		.ascii	"RESERVED15\000"
 3692      52564544 
 3692      313500
 3693              	.LASF143:
 3694 01ca 52455345 		.ascii	"RESERVED16\000"
 3694      52564544 
 3694      313600
 3695              	.LASF145:
 3696 01d5 52455345 		.ascii	"RESERVED17\000"
 3696      52564544 
 3696      313700
 3697              	.LASF146:
 3698 01e0 52455345 		.ascii	"RESERVED18\000"
 3698      52564544 
 3698      313800
 3699              	.LASF148:
 3700 01eb 52455345 		.ascii	"RESERVED19\000"
 3700      52564544 
 3700      313900
 3701              	.LASF10:
 3702 01f6 6C6F6E67 		.ascii	"long int\000"
 3702      20696E74 
 3702      00
 3703              	.LASF23:
 3704 01ff 74736B54 		.ascii	"tskTaskControlBlock\000"
 3704      61736B43 
 3704      6F6E7472 
 3704      6F6C426C 
 3704      6F636B00 
 3705              	.LASF114:
 3706 0213 41504232 		.ascii	"APB2RSTR\000"
 3706      52535452 
 3706      00
 3707              	.LASF172:
 3708 021c 636F6E74 		.ascii	"cont\000"
 3708      00
 3709              	.LASF56:
 3710 0221 45585449 		.ascii	"EXTI9_5_IRQn\000"
 3710      395F355F 
 3710      4952516E 
 3710      00
 3711              	.LASF20:
 3712 022e 5461736B 		.ascii	"TaskHandle_t\000"
 3712      48616E64 
 3712      6C655F74 
 3712      00
 3713              	.LASF130:
 3714 023b 43434552 		.ascii	"CCER\000"
 3714      00
 3715              	.LASF106:
 3716 0240 4F50544B 		.ascii	"OPTKEYR\000"
 3716      45595200 
 3717              	.LASF14:
 3718 0248 75696E74 		.ascii	"uint16_t\000"
 3718      31365F74 
 3718      00
ARM GAS  /tmp/ccTiGcp2.s 			page 73


 3719              	.LASF104:
 3720 0251 4144435F 		.ascii	"ADC_TypeDef\000"
 3720      54797065 
 3720      44656600 
 3721              	.LASF17:
 3722 025d 42617365 		.ascii	"BaseType_t\000"
 3722      54797065 
 3722      5F7400
 3723              	.LASF51:
 3724 0268 41444331 		.ascii	"ADC1_2_IRQn\000"
 3724      5F325F49 
 3724      52516E00 
 3725              	.LASF31:
 3726 0274 50656E64 		.ascii	"PendSV_IRQn\000"
 3726      53565F49 
 3726      52516E00 
 3727              	.LASF9:
 3728 0280 73686F72 		.ascii	"short unsigned int\000"
 3728      7420756E 
 3728      7369676E 
 3728      65642069 
 3728      6E7400
 3729              	.LASF47:
 3730 0293 444D4131 		.ascii	"DMA1_Channel4_IRQn\000"
 3730      5F436861 
 3730      6E6E656C 
 3730      345F4952 
 3730      516E00
 3731              	.LASF8:
 3732 02a6 5F5F7569 		.ascii	"__uint16_t\000"
 3732      6E743136 
 3732      5F7400
 3733              	.LASF11:
 3734 02b1 5F5F7569 		.ascii	"__uint32_t\000"
 3734      6E743332 
 3734      5F7400
 3735              	.LASF165:
 3736 02bc 656E6162 		.ascii	"enable_TIM3_delay\000"
 3736      6C655F54 
 3736      494D335F 
 3736      64656C61 
 3736      7900
 3737              	.LASF27:
 3738 02ce 42757346 		.ascii	"BusFault_IRQn\000"
 3738      61756C74 
 3738      5F495251 
 3738      6E00
 3739              	.LASF155:
 3740 02dc 76546173 		.ascii	"vTaskStartScheduler\000"
 3740      6B537461 
 3740      72745363 
 3740      68656475 
 3740      6C657200 
 3741              	.LASF105:
 3742 02f0 4B455952 		.ascii	"KEYR\000"
 3742      00
 3743              	.LASF144:
ARM GAS  /tmp/ccTiGcp2.s 			page 74


 3744 02f5 42445452 		.ascii	"BDTR\000"
 3744      00
 3745              	.LASF168:
 3746 02fa 2E2E2F34 		.ascii	"../4-LCD_16x2/main.c\000"
 3746      2D4C4344 
 3746      5F313678 
 3746      322F6D61 
 3746      696E2E63 
 3747              	.LASF1:
 3748 030f 756E7369 		.ascii	"unsigned int\000"
 3748      676E6564 
 3748      20696E74 
 3748      00
 3749              	.LASF26:
 3750 031c 4D656D6F 		.ascii	"MemoryManagement_IRQn\000"
 3750      72794D61 
 3750      6E616765 
 3750      6D656E74 
 3750      5F495251 
 3751              	.LASF12:
 3752 0332 6C6F6E67 		.ascii	"long unsigned int\000"
 3752      20756E73 
 3752      69676E65 
 3752      6420696E 
 3752      7400
 3753              	.LASF112:
 3754 0344 4750494F 		.ascii	"GPIO_TypeDef\000"
 3754      5F547970 
 3754      65446566 
 3754      00
 3755              	.LASF122:
 3756 0351 5243435F 		.ascii	"RCC_TypeDef\000"
 3756      54797065 
 3756      44656600 
 3757              	.LASF159:
 3758 035d 7461736B 		.ascii	"task1\000"
 3758      3100
 3759              	.LASF158:
 3760 0363 7461736B 		.ascii	"task2\000"
 3760      3200
 3761              	.LASF48:
 3762 0369 444D4131 		.ascii	"DMA1_Channel5_IRQn\000"
 3762      5F436861 
 3762      6E6E656C 
 3762      355F4952 
 3762      516E00
 3763              	.LASF124:
 3764 037c 534D4352 		.ascii	"SMCR\000"
 3764      00
 3765              	.LASF116:
 3766 0381 41484245 		.ascii	"AHBENR\000"
 3766      4E5200
 3767              	.LASF73:
 3768 0388 45585449 		.ascii	"EXTI15_10_IRQn\000"
 3768      31355F31 
 3768      305F4952 
 3768      516E00
ARM GAS  /tmp/ccTiGcp2.s 			page 75


 3769              	.LASF68:
 3770 0397 53504931 		.ascii	"SPI1_IRQn\000"
 3770      5F495251 
 3770      6E00
 3771              	.LASF30:
 3772 03a1 44656275 		.ascii	"DebugMonitor_IRQn\000"
 3772      674D6F6E 
 3772      69746F72 
 3772      5F495251 
 3772      6E00
 3773              	.LASF32:
 3774 03b3 53797354 		.ascii	"SysTick_IRQn\000"
 3774      69636B5F 
 3774      4952516E 
 3774      00
 3775              	.LASF60:
 3776 03c0 54494D31 		.ascii	"TIM1_CC_IRQn\000"
 3776      5F43435F 
 3776      4952516E 
 3776      00
 3777              	.LASF169:
 3778 03cd 2F686F6D 		.ascii	"/home/me/Codigos/6-Stm32_GCC_FreeRTOS10.2.1/4-LCD_1"
 3778      652F6D65 
 3778      2F436F64 
 3778      69676F73 
 3778      2F362D53 
 3779 0400 36783200 		.ascii	"6x2\000"
 3780              	.LASF161:
 3781 0404 4952516E 		.ascii	"IRQn\000"
 3781      00
 3782              	.LASF92:
 3783 0409 4A4F4652 		.ascii	"JOFR1\000"
 3783      3100
 3784              	.LASF93:
 3785 040f 4A4F4652 		.ascii	"JOFR2\000"
 3785      3200
 3786              	.LASF94:
 3787 0415 4A4F4652 		.ascii	"JOFR3\000"
 3787      3300
 3788              	.LASF95:
 3789 041b 4A4F4652 		.ascii	"JOFR4\000"
 3789      3400
 3790              	.LASF45:
 3791 0421 444D4131 		.ascii	"DMA1_Channel2_IRQn\000"
 3791      5F436861 
 3791      6E6E656C 
 3791      325F4952 
 3791      516E00
 3792              	.LASF29:
 3793 0434 53564361 		.ascii	"SVCall_IRQn\000"
 3793      6C6C5F49 
 3793      52516E00 
 3794              	.LASF66:
 3795 0440 49324332 		.ascii	"I2C2_EV_IRQn\000"
 3795      5F45565F 
 3795      4952516E 
 3795      00
ARM GAS  /tmp/ccTiGcp2.s 			page 76


 3796              	.LASF156:
 3797 044d 78546173 		.ascii	"xTaskCreate\000"
 3797      6B437265 
 3797      61746500 
 3798              	.LASF85:
 3799 0459 49414252 		.ascii	"IABR\000"
 3799      00
 3800              	.LASF19:
 3801 045e 5469636B 		.ascii	"TickType_t\000"
 3801      54797065 
 3801      5F7400
 3802              	.LASF164:
 3803 0469 44656C61 		.ascii	"Delay\000"
 3803      7900
 3804              	.LASF69:
 3805 046f 53504932 		.ascii	"SPI2_IRQn\000"
 3805      5F495251 
 3805      6E00
 3806              	.LASF163:
 3807 0479 656E6162 		.ascii	"enable_interrupt\000"
 3807      6C655F69 
 3807      6E746572 
 3807      72757074 
 3807      00
 3808              	.LASF90:
 3809 048a 534D5052 		.ascii	"SMPR1\000"
 3809      3100
 3810              	.LASF91:
 3811 0490 534D5052 		.ascii	"SMPR2\000"
 3811      3200
 3812              	.LASF79:
 3813 0496 49434552 		.ascii	"ICER\000"
 3813      00
 3814              	.LASF120:
 3815 049b 41484252 		.ascii	"AHBRSTR\000"
 3815      53545200 
 3816              	.LASF170:
 3817 04a3 78517565 		.ascii	"xQueue\000"
 3817      756500
 3818              	.LASF96:
 3819 04aa 53515231 		.ascii	"SQR1\000"
 3819      00
 3820              	.LASF97:
 3821 04af 53515232 		.ascii	"SQR2\000"
 3821      00
 3822              	.LASF98:
 3823 04b4 53515233 		.ascii	"SQR3\000"
 3823      00
 3824              	.LASF44:
 3825 04b9 444D4131 		.ascii	"DMA1_Channel1_IRQn\000"
 3825      5F436861 
 3825      6E6E656C 
 3825      315F4952 
 3825      516E00
 3826              	.LASF78:
 3827 04cc 52455345 		.ascii	"RESERVED0\000"
 3827      52564544 
ARM GAS  /tmp/ccTiGcp2.s 			page 77


 3827      3000
 3828              	.LASF123:
 3829 04d6 52455345 		.ascii	"RESERVED1\000"
 3829      52564544 
 3829      3100
 3830              	.LASF82:
 3831 04e0 52455345 		.ascii	"RESERVED2\000"
 3831      52564544 
 3831      3200
 3832              	.LASF84:
 3833 04ea 52455345 		.ascii	"RESERVED3\000"
 3833      52564544 
 3833      3300
 3834              	.LASF86:
 3835 04f4 52455345 		.ascii	"RESERVED4\000"
 3835      52564544 
 3835      3400
 3836              	.LASF87:
 3837 04fe 52455345 		.ascii	"RESERVED5\000"
 3837      52564544 
 3837      3500
 3838              	.LASF127:
 3839 0508 52455345 		.ascii	"RESERVED6\000"
 3839      52564544 
 3839      3600
 3840              	.LASF131:
 3841 0512 52455345 		.ascii	"RESERVED8\000"
 3841      52564544 
 3841      3800
 3842              	.LASF132:
 3843 051c 52455345 		.ascii	"RESERVED9\000"
 3843      52564544 
 3843      3900
 3844              	.LASF24:
 3845 0526 51756575 		.ascii	"QueueDefinition\000"
 3845      65446566 
 3845      696E6974 
 3845      696F6E00 
 3846              	.LASF166:
 3847 0536 7365745F 		.ascii	"set_system_clock_to_72Mhz\000"
 3847      73797374 
 3847      656D5F63 
 3847      6C6F636B 
 3847      5F746F5F 
 3848              	.LASF2:
 3849 0550 756E7369 		.ascii	"unsigned char\000"
 3849      676E6564 
 3849      20636861 
 3849      7200
 3850              	.LASF52:
 3851 055e 5553425F 		.ascii	"USB_HP_CAN1_TX_IRQn\000"
 3851      48505F43 
 3851      414E315F 
 3851      54585F49 
 3851      52516E00 
 3852              	.LASF43:
 3853 0572 45585449 		.ascii	"EXTI4_IRQn\000"
ARM GAS  /tmp/ccTiGcp2.s 			page 78


 3853      345F4952 
 3853      516E00
 3854              	.LASF6:
 3855 057d 73686F72 		.ascii	"short int\000"
 3855      7420696E 
 3855      7400
 3856              	.LASF77:
 3857 0587 49534552 		.ascii	"ISER\000"
 3857      00
 3858              	.LASF89:
 3859 058c 4E564943 		.ascii	"NVIC_Type\000"
 3859      5F547970 
 3859      6500
 3860              	.LASF107:
 3861 0596 52455345 		.ascii	"RESERVED\000"
 3861      52564544 
 3861      00
 3862              	.LASF53:
 3863 059f 5553425F 		.ascii	"USB_LP_CAN1_RX0_IRQn\000"
 3863      4C505F43 
 3863      414E315F 
 3863      5258305F 
 3863      4952516E 
 3864              	.LASF157:
 3865 05b4 78517565 		.ascii	"xQueueGenericCreate\000"
 3865      75654765 
 3865      6E657269 
 3865      63437265 
 3865      61746500 
 3866              	.LASF173:
 3867 05c8 41444331 		.ascii	"ADC1_configure\000"
 3867      5F636F6E 
 3867      66696775 
 3867      726500
 3868              	.LASF117:
 3869 05d7 41504232 		.ascii	"APB2ENR\000"
 3869      454E5200 
 3870              	.LASF37:
 3871 05df 464C4153 		.ascii	"FLASH_IRQn\000"
 3871      485F4952 
 3871      516E00
 3872              	.LASF162:
 3873 05ea 64697361 		.ascii	"disable_interrupt\000"
 3873      626C655F 
 3873      696E7465 
 3873      72727570 
 3873      7400
 3874              	.LASF76:
 3875 05fc 4952516E 		.ascii	"IRQn_Type\000"
 3875      5F547970 
 3875      6500
 3876              	.LASF15:
 3877 0606 75696E74 		.ascii	"uint32_t\000"
 3877      33325F74 
 3877      00
 3878              	.LASF129:
 3879 060f 52455345 		.ascii	"RESERVED7\000"
ARM GAS  /tmp/ccTiGcp2.s 			page 79


 3879      52564544 
 3879      3700
 3880              	.LASF71:
 3881 0619 55534152 		.ascii	"USART2_IRQn\000"
 3881      54325F49 
 3881      52516E00 
 3882              	.LASF28:
 3883 0625 55736167 		.ascii	"UsageFault_IRQn\000"
 3883      65466175 
 3883      6C745F49 
 3883      52516E00 
 3884              	.LASF4:
 3885 0635 6C6F6E67 		.ascii	"long double\000"
 3885      20646F75 
 3885      626C6500 
 3886              	.LASF108:
 3887 0641 57525052 		.ascii	"WRPR\000"
 3887      00
 3888              	.LASF46:
 3889 0646 444D4131 		.ascii	"DMA1_Channel3_IRQn\000"
 3889      5F436861 
 3889      6E6E656C 
 3889      335F4952 
 3889      516E00
 3890              	.LASF21:
 3891 0659 63686172 		.ascii	"char\000"
 3891      00
 3892              	.LASF57:
 3893 065e 54494D31 		.ascii	"TIM1_BRK_IRQn\000"
 3893      5F42524B 
 3893      5F495251 
 3893      6E00
 3894              	.LASF147:
 3895 066c 444D4152 		.ascii	"DMAR\000"
 3895      00
 3896              	.LASF74:
 3897 0671 52544341 		.ascii	"RTCAlarm_IRQn\000"
 3897      6C61726D 
 3897      5F495251 
 3897      6E00
 3898              	.LASF152:
 3899 067f 64697370 		.ascii	"disp_cmd\000"
 3899      5F636D64 
 3899      00
 3900              	.LASF150:
 3901 0688 64697370 		.ascii	"disp_number\000"
 3901      5F6E756D 
 3901      62657200 
 3902              	.LASF25:
 3903 0694 4E6F6E4D 		.ascii	"NonMaskableInt_IRQn\000"
 3903      61736B61 
 3903      626C6549 
 3903      6E745F49 
 3903      52516E00 
 3904              	.LASF49:
 3905 06a8 444D4131 		.ascii	"DMA1_Channel6_IRQn\000"
 3905      5F436861 
ARM GAS  /tmp/ccTiGcp2.s 			page 80


 3905      6E6E656C 
 3905      365F4952 
 3905      516E00
 3906              	.LASF118:
 3907 06bb 41504231 		.ascii	"APB1ENR\000"
 3907      454E5200 
 3908              	.LASF35:
 3909 06c3 54414D50 		.ascii	"TAMPER_IRQn\000"
 3909      45525F49 
 3909      52516E00 
 3910              	.LASF58:
 3911 06cf 54494D31 		.ascii	"TIM1_UP_IRQn\000"
 3911      5F55505F 
 3911      4952516E 
 3911      00
 3912              	.LASF16:
 3913 06dc 5461736B 		.ascii	"TaskFunction_t\000"
 3913      46756E63 
 3913      74696F6E 
 3913      5F7400
 3914              	.LASF75:
 3915 06eb 55534257 		.ascii	"USBWakeUp_IRQn\000"
 3915      616B6555 
 3915      705F4952 
 3915      516E00
 3916              	.LASF154:
 3917 06fa 64697370 		.ascii	"disp_init\000"
 3917      5F696E69 
 3917      7400
 3918              	.LASF133:
 3919 0704 52455345 		.ascii	"RESERVED10\000"
 3919      52564544 
 3919      313000
 3920              	.LASF72:
 3921 070f 55534152 		.ascii	"USART3_IRQn\000"
 3921      54335F49 
 3921      52516E00 
 3922              	.LASF136:
 3923 071b 43435231 		.ascii	"CCR1\000"
 3923      00
 3924              	.LASF61:
 3925 0720 54494D32 		.ascii	"TIM2_IRQn\000"
 3925      5F495251 
 3925      6E00
 3926              	.LASF140:
 3927 072a 43435233 		.ascii	"CCR3\000"
 3927      00
 3928              	.LASF142:
 3929 072f 43435234 		.ascii	"CCR4\000"
 3929      00
 3930              	.LASF70:
 3931 0734 55534152 		.ascii	"USART1_IRQn\000"
 3931      54315F49 
 3931      52516E00 
 3932              	.LASF119:
 3933 0740 42444352 		.ascii	"BDCR\000"
 3933      00
ARM GAS  /tmp/ccTiGcp2.s 			page 81


 3934              	.LASF42:
 3935 0745 45585449 		.ascii	"EXTI3_IRQn\000"
 3935      335F4952 
 3935      516E00
 3936              	.LASF121:
 3937 0750 43464752 		.ascii	"CFGR2\000"
 3937      3200
 3938              	.LASF13:
 3939 0756 75696E74 		.ascii	"uint8_t\000"
 3939      385F7400 
 3940              	.LASF80:
 3941 075e 52534552 		.ascii	"RSERVED1\000"
 3941      56454431 
 3941      00
 3942              	.LASF88:
 3943 0767 53544952 		.ascii	"STIR\000"
 3943      00
 3944              	.LASF100:
 3945 076c 4A445231 		.ascii	"JDR1\000"
 3945      00
 3946              	.LASF101:
 3947 0771 4A445232 		.ascii	"JDR2\000"
 3947      00
 3948              	.LASF102:
 3949 0776 4A445233 		.ascii	"JDR3\000"
 3949      00
 3950              	.LASF103:
 3951 077b 4A445234 		.ascii	"JDR4\000"
 3951      00
 3952              	.LASF50:
 3953 0780 444D4131 		.ascii	"DMA1_Channel7_IRQn\000"
 3953      5F436861 
 3953      6E6E656C 
 3953      375F4952 
 3953      516E00
 3954              	.LASF113:
 3955 0793 43464752 		.ascii	"CFGR\000"
 3955      00
 3956              	.LASF65:
 3957 0798 49324331 		.ascii	"I2C1_ER_IRQn\000"
 3957      5F45525F 
 3957      4952516E 
 3957      00
 3958              	.LASF160:
 3959 07a5 61726773 		.ascii	"args\000"
 3959      00
 3960              	.LASF171:
 3961 07aa 6D61696E 		.ascii	"main\000"
 3961      00
 3962              	.LASF18:
 3963 07af 55426173 		.ascii	"UBaseType_t\000"
 3963      65547970 
 3963      655F7400 
 3964              	.LASF55:
 3965 07bb 43414E31 		.ascii	"CAN1_SCE_IRQn\000"
 3965      5F534345 
 3965      5F495251 
ARM GAS  /tmp/ccTiGcp2.s 			page 82


 3965      6E00
 3966              	.LASF38:
 3967 07c9 5243435F 		.ascii	"RCC_IRQn\000"
 3967      4952516E 
 3967      00
 3968              	.LASF62:
 3969 07d2 54494D33 		.ascii	"TIM3_IRQn\000"
 3969      5F495251 
 3969      6E00
 3970              	.LASF40:
 3971 07dc 45585449 		.ascii	"EXTI1_IRQn\000"
 3971      315F4952 
 3971      516E00
 3972              		.ident	"GCC: (Arch Repository) 13.2.0"
ARM GAS  /tmp/ccTiGcp2.s 			page 83


DEFINED SYMBOLS
                            *ABS*:00000000 main.c
     /tmp/ccTiGcp2.s:24     .text:00000000 $t
     /tmp/ccTiGcp2.s:29     .text:00000000 task2
     /tmp/ccTiGcp2.s:88     .text:00000028 $d
     /tmp/ccTiGcp2.s:99     .text:00000030 $t
     /tmp/ccTiGcp2.s:104    .text:00000030 task1
     /tmp/ccTiGcp2.s:227    .text:000000b4 $d
     /tmp/ccTiGcp2.s:236    .text:000000cc $t
     /tmp/ccTiGcp2.s:242    .text:000000cc ADC1_configure
     /tmp/ccTiGcp2.s:392    .text:0000014c $d
     /tmp/ccTiGcp2.s:398    .text:00000158 $t
     /tmp/ccTiGcp2.s:404    .text:00000158 set_system_clock_to_72Mhz
     /tmp/ccTiGcp2.s:532    .text:000001c8 $d
     /tmp/ccTiGcp2.s:536    .text:000001cc $t
     /tmp/ccTiGcp2.s:542    .text:000001cc Delay
     /tmp/ccTiGcp2.s:608    .text:000001f8 $d
     /tmp/ccTiGcp2.s:612    .text:000001fc $t
     /tmp/ccTiGcp2.s:618    .text:000001fc enable_TIM3_delay
     /tmp/ccTiGcp2.s:660    .text:00000220 $d
     /tmp/ccTiGcp2.s:664    .text:00000224 $t
     /tmp/ccTiGcp2.s:670    .text:00000224 enable_interrupt
     /tmp/ccTiGcp2.s:704    .text:00000238 $d
     /tmp/ccTiGcp2.s:708    .text:0000023c $t
     /tmp/ccTiGcp2.s:714    .text:0000023c disable_interrupt
     /tmp/ccTiGcp2.s:749    .text:00000250 $d
     /tmp/ccTiGcp2.s:759    .text.startup:00000000 $t
     /tmp/ccTiGcp2.s:765    .text.startup:00000000 main
     /tmp/ccTiGcp2.s:819    .text.startup:0000003c $d

UNDEFINED SYMBOLS
vTaskDelay
disp_init
disp_cmd
disp_text
disp_number
xQueueGenericCreate
xTaskCreate
vTaskStartScheduler
