ARM GAS  /tmp/ccTiGcp2.s 			page 1


   1              		.cpu cortex-m3
   2              		.arch armv7-m
   3              		.fpu softvfp
   4              		.eabi_attribute 20, 1	@ Tag_ABI_FP_denormal
   5              		.eabi_attribute 21, 1	@ Tag_ABI_FP_exceptions
   6              		.eabi_attribute 23, 3	@ Tag_ABI_FP_number_model
   7              		.eabi_attribute 24, 1	@ Tag_ABI_align8_needed
   8              		.eabi_attribute 25, 1	@ Tag_ABI_align8_preserved
   9              		.eabi_attribute 26, 1	@ Tag_ABI_enum_size
  10              		.eabi_attribute 30, 4	@ Tag_ABI_optimization_goals
  11              		.eabi_attribute 34, 1	@ Tag_CPU_unaligned_access
  12              		.eabi_attribute 18, 4	@ Tag_ABI_PCS_wchar_t
  13              		.file	"main.c"
  14              	@ GNU C17 (Arch Repository) version 13.2.0 (arm-none-eabi)
  15              	@	compiled by GNU C version 13.2.1 20230730, GMP version 6.2.1, MPFR version 4.2.0-p12, MPC version
  16              	
  17              	@ warning: GMP header version 6.2.1 differs from library version 6.3.0.
  18              	@ GGC heuristics: --param ggc-min-expand=100 --param ggc-min-heapsize=131072
  19              	@ options passed: -mcpu=cortex-m3 -mthumb -mfloat-abi=soft -march=armv7-m -g -gdwarf-2 -Os -fomit-f
  20              		.text
  21              	.Ltext0:
  22              		.cfi_sections	.debug_frame
  23              		.file 1 "../4-LCD_16x2/main.c"
  24              		.align	1
  25              		.syntax unified
  26              		.thumb
  27              		.thumb_func
  28              		.type	task2, %function
  29              	task2:
  30              	.LVL0:
  31              	.LFB41:
   1:../4-LCD_16x2/main.c **** /*
   2:../4-LCD_16x2/main.c ****  * Projeto LCD
   3:../4-LCD_16x2/main.c ****  *		Modificações necessárias: 
   4:../4-LCD_16x2/main.c ****  *		  FreeRTOSConfig:
   5:../4-LCD_16x2/main.c ****  *			 TICK_RATE_HZ definido em (100000)Hz -> 1µs
   6:../4-LCD_16x2/main.c ****  *
   7:../4-LCD_16x2/main.c ****  *	Clock do sistema: 
   8:../4-LCD_16x2/main.c ****  *		72Mhz
   9:../4-LCD_16x2/main.c ****  *	
  10:../4-LCD_16x2/main.c ****  *	Lib construída para Arduíno UNO:
  11:../4-LCD_16x2/main.c ****  *		myLcd.h
  12:../4-LCD_16x2/main.c ****  *			#define delayMicroseconds(X)   vTaskDelay(X)
  13:../4-LCD_16x2/main.c ****  *			#define delay(X)  vTaskDelay(X)
  14:../4-LCD_16x2/main.c ****  *
  15:../4-LCD_16x2/main.c ****  * */
  16:../4-LCD_16x2/main.c **** 
  17:../4-LCD_16x2/main.c **** // FreeRTOS: 
  18:../4-LCD_16x2/main.c **** #include "FreeRTOS.h"
  19:../4-LCD_16x2/main.c **** #include "queue.h"
  20:../4-LCD_16x2/main.c **** #include "task.h"
  21:../4-LCD_16x2/main.c **** 
  22:../4-LCD_16x2/main.c **** #define __delay_ms( TEMPO ) vTaskDelay(pdMS_TO_TICKS( TEMPO ))
  23:../4-LCD_16x2/main.c **** #define __delay( TEMPO ) vTaskDelay( TEMPO )
  24:../4-LCD_16x2/main.c **** 
  25:../4-LCD_16x2/main.c **** // LCD 16x2
  26:../4-LCD_16x2/main.c **** #include "stm32f10x.h"
ARM GAS  /tmp/ccTiGcp2.s 			page 2


  27:../4-LCD_16x2/main.c **** #include "Me.h"
  28:../4-LCD_16x2/main.c **** #include "myLcd.h"
  29:../4-LCD_16x2/main.c **** 
  30:../4-LCD_16x2/main.c **** static QueueHandle_t xQueue; 
  31:../4-LCD_16x2/main.c **** 
  32:../4-LCD_16x2/main.c **** static void task1(void *args __attribute((unused))) {
  33:../4-LCD_16x2/main.c **** 	RCC->APB2ENR |= (1<<2);
  34:../4-LCD_16x2/main.c **** 	GPIOA->CRL	 = 0x33333300; // Hab PA(2-7) out PP
  35:../4-LCD_16x2/main.c **** 
  36:../4-LCD_16x2/main.c ****   set_bit(IO,RS);
  37:../4-LCD_16x2/main.c ****   set_bit(IO,RS);
  38:../4-LCD_16x2/main.c ****   set_bit(IO,EN);
  39:../4-LCD_16x2/main.c ****   set_bit(IO,D4);
  40:../4-LCD_16x2/main.c ****   set_bit(IO,D5);
  41:../4-LCD_16x2/main.c ****   set_bit(IO,D6);
  42:../4-LCD_16x2/main.c ****   set_bit(IO,D7);
  43:../4-LCD_16x2/main.c **** 
  44:../4-LCD_16x2/main.c ****   disp_init();
  45:../4-LCD_16x2/main.c ****   disp_cmd(0x0C);
  46:../4-LCD_16x2/main.c **** 
  47:../4-LCD_16x2/main.c ****   disp_text("abcdABCDEF012",0,0);
  48:../4-LCD_16x2/main.c ****   u8 cont = (char) 1;
  49:../4-LCD_16x2/main.c **** 	while(1){
  50:../4-LCD_16x2/main.c **** 
  51:../4-LCD_16x2/main.c **** 		cont &= 0xffff;
  52:../4-LCD_16x2/main.c **** 		cont ++;
  53:../4-LCD_16x2/main.c **** 		disp_text("CONTADOR: ", 1, 0);
  54:../4-LCD_16x2/main.c **** 		disp_number( cont, 1, 11);
  55:../4-LCD_16x2/main.c **** 		__delay_ms(1000);
  56:../4-LCD_16x2/main.c **** 		
  57:../4-LCD_16x2/main.c **** 	}
  58:../4-LCD_16x2/main.c **** }
  59:../4-LCD_16x2/main.c **** 
  60:../4-LCD_16x2/main.c **** static void task2(void *args __attribute ((unused))){
  32              		.loc 1 60 53 view -0
  33              		.cfi_startproc
  34              		@ Volatile: function does not return.
  35              		@ args = 0, pretend = 0, frame = 0
  36              		@ frame_needed = 0, uses_anonymous_args = 0
  61:../4-LCD_16x2/main.c **** 	RCC->APB2ENR |= (1<<4); // En GPIOC
  37              		.loc 1 61 2 view .LVU1
  38              	@ ../4-LCD_16x2/main.c:61: 	RCC->APB2ENR |= (1<<4); // En GPIOC
  39              		.loc 1 61 5 is_stmt 0 view .LVU2
  40 0000 094A     		ldr	r2, .L3	@ tmp121,
  41              	@ ../4-LCD_16x2/main.c:60: static void task2(void *args __attribute ((unused))){
  60:../4-LCD_16x2/main.c **** 	RCC->APB2ENR |= (1<<4); // En GPIOC
  42              		.loc 1 60 53 view .LVU3
  43 0002 08B5     		push	{r3, lr}	@
  44              	.LCFI0:
  45              		.cfi_def_cfa_offset 8
  46              		.cfi_offset 3, -8
  47              		.cfi_offset 14, -4
  48              	@ ../4-LCD_16x2/main.c:61: 	RCC->APB2ENR |= (1<<4); // En GPIOC
  49              		.loc 1 61 5 view .LVU4
  50 0004 9369     		ldr	r3, [r2, #24]	@ _1, MEM[(struct RCC_TypeDef *)1073876992B].APB2ENR
  51              	@ ../4-LCD_16x2/main.c:62: 	GPIOC->CRH	|= (0b11<< 20); // PC13 out PP 
  62:../4-LCD_16x2/main.c **** 	GPIOC->CRH	|= (0b11<< 20); // PC13 out PP 
ARM GAS  /tmp/ccTiGcp2.s 			page 3


  52              		.loc 1 62 7 view .LVU5
  53 0006 094C     		ldr	r4, .L3+4	@ tmp123,
  54              	@ ../4-LCD_16x2/main.c:61: 	RCC->APB2ENR |= (1<<4); // En GPIOC
  61:../4-LCD_16x2/main.c **** 	RCC->APB2ENR |= (1<<4); // En GPIOC
  55              		.loc 1 61 15 view .LVU6
  56 0008 43F01003 		orr	r3, r3, #16	@ _2, _1,
  57 000c 9361     		str	r3, [r2, #24]	@ _2, MEM[(struct RCC_TypeDef *)1073876992B].APB2ENR
  58              		.loc 1 62 2 is_stmt 1 view .LVU7
  59              	@ ../4-LCD_16x2/main.c:62: 	GPIOC->CRH	|= (0b11<< 20); // PC13 out PP 
  60              		.loc 1 62 7 is_stmt 0 view .LVU8
  61 000e 6368     		ldr	r3, [r4, #4]	@ _3, MEM[(struct GPIO_TypeDef *)1073811456B].CRH
  62              	@ ../4-LCD_16x2/main.c:62: 	GPIOC->CRH	|= (0b11<< 20); // PC13 out PP 
  63              		.loc 1 62 13 view .LVU9
  64 0010 43F44013 		orr	r3, r3, #3145728	@ _4, _3,
  65 0014 6360     		str	r3, [r4, #4]	@ _4, MEM[(struct GPIO_TypeDef *)1073811456B].CRH
  66              	.LVL1:
  67              	.L2:
  63:../4-LCD_16x2/main.c **** 
  64:../4-LCD_16x2/main.c **** 	while(1){
  68              		.loc 1 64 2 is_stmt 1 view .LVU10
  65:../4-LCD_16x2/main.c **** 		GPIOC->ODR	^= (1<<13);
  69              		.loc 1 65 3 view .LVU11
  70              	@ ../4-LCD_16x2/main.c:65: 		GPIOC->ODR	^= (1<<13);
  71              		.loc 1 65 8 is_stmt 0 view .LVU12
  72 0016 E368     		ldr	r3, [r4, #12]	@ _5, MEM[(struct GPIO_TypeDef *)1073811456B].ODR
  73              	@ ../4-LCD_16x2/main.c:66: 		__delay_ms(50);
  66:../4-LCD_16x2/main.c **** 		__delay_ms(50);
  74              		.loc 1 66 3 discriminator 1 view .LVU13
  75 0018 41F28830 		movw	r0, #5000	@,
  76              	@ ../4-LCD_16x2/main.c:65: 		GPIOC->ODR	^= (1<<13);
  65:../4-LCD_16x2/main.c **** 		GPIOC->ODR	^= (1<<13);
  77              		.loc 1 65 14 view .LVU14
  78 001c 83F40053 		eor	r3, r3, #8192	@ _6, _5,
  79 0020 E360     		str	r3, [r4, #12]	@ _6, MEM[(struct GPIO_TypeDef *)1073811456B].ODR
  80              		.loc 1 66 3 is_stmt 1 discriminator 1 view .LVU15
  81 0022 FFF7FEFF 		bl	vTaskDelay		@
  82              	.LVL2:
  64:../4-LCD_16x2/main.c **** 		GPIOC->ODR	^= (1<<13);
  83              		.loc 1 64 7 view .LVU16
  84 0026 F6E7     		b	.L2		@
  85              	.L4:
  86              		.align	2
  87              	.L3:
  88 0028 00100240 		.word	1073876992
  89 002c 00100140 		.word	1073811456
  90              		.cfi_endproc
  91              	.LFE41:
  92              		.size	task2, .-task2
  93              		.section	.rodata.str1.1,"aMS",%progbits,1
  94              	.LC0:
  95 0000 61626364 		.ascii	"abcdABCDEF012\000"
  95      41424344 
  95      45463031 
  95      3200
  96              	.LC1:
  97 000e 434F4E54 		.ascii	"CONTADOR: \000"
  97      41444F52 
ARM GAS  /tmp/ccTiGcp2.s 			page 4


  97      3A2000
  98              		.text
  99              		.align	1
 100              		.syntax unified
 101              		.thumb
 102              		.thumb_func
 103              		.type	task1, %function
 104              	task1:
 105              	.LVL3:
 106              	.LFB40:
  32:../4-LCD_16x2/main.c **** 	RCC->APB2ENR |= (1<<2);
 107              		.loc 1 32 53 view -0
 108              		.cfi_startproc
 109              		@ args = 0, pretend = 0, frame = 0
 110              		@ frame_needed = 0, uses_anonymous_args = 0
  33:../4-LCD_16x2/main.c **** 	GPIOA->CRL	 = 0x33333300; // Hab PA(2-7) out PP
 111              		.loc 1 33 2 view .LVU18
 112              	@ ../4-LCD_16x2/main.c:33: 	RCC->APB2ENR |= (1<<2);
  33:../4-LCD_16x2/main.c **** 	GPIOA->CRL	 = 0x33333300; // Hab PA(2-7) out PP
 113              		.loc 1 33 5 is_stmt 0 view .LVU19
 114 0030 204A     		ldr	r2, .L7	@ tmp133,
 115              	@ ../4-LCD_16x2/main.c:32: static void task1(void *args __attribute((unused))) {
  32:../4-LCD_16x2/main.c **** 	RCC->APB2ENR |= (1<<2);
 116              		.loc 1 32 53 view .LVU20
 117 0032 70B5     		push	{r4, r5, r6, lr}	@
 118              	.LCFI1:
 119              		.cfi_def_cfa_offset 16
 120              		.cfi_offset 4, -16
 121              		.cfi_offset 5, -12
 122              		.cfi_offset 6, -8
 123              		.cfi_offset 14, -4
 124              	@ ../4-LCD_16x2/main.c:33: 	RCC->APB2ENR |= (1<<2);
  33:../4-LCD_16x2/main.c **** 	GPIOA->CRL	 = 0x33333300; // Hab PA(2-7) out PP
 125              		.loc 1 33 5 view .LVU21
 126 0034 9369     		ldr	r3, [r2, #24]	@ _1, MEM[(struct RCC_TypeDef *)1073876992B].APB2ENR
 127              	@ ../4-LCD_16x2/main.c:48:   u8 cont = (char) 1;
  48:../4-LCD_16x2/main.c **** 	while(1){
 128              		.loc 1 48 6 view .LVU22
 129 0036 0124     		movs	r4, #1	@ cont,
 130              	@ ../4-LCD_16x2/main.c:33: 	RCC->APB2ENR |= (1<<2);
  33:../4-LCD_16x2/main.c **** 	GPIOA->CRL	 = 0x33333300; // Hab PA(2-7) out PP
 131              		.loc 1 33 15 view .LVU23
 132 0038 43F00403 		orr	r3, r3, #4	@ _2, _1,
 133 003c 9361     		str	r3, [r2, #24]	@ _2, MEM[(struct RCC_TypeDef *)1073876992B].APB2ENR
  34:../4-LCD_16x2/main.c **** 
 134              		.loc 1 34 2 is_stmt 1 view .LVU24
 135              	@ ../4-LCD_16x2/main.c:34: 	GPIOA->CRL	 = 0x33333300; // Hab PA(2-7) out PP
  34:../4-LCD_16x2/main.c **** 
 136              		.loc 1 34 14 is_stmt 0 view .LVU25
 137 003e 1E4B     		ldr	r3, .L7+4	@ tmp135,
 138 0040 1E4A     		ldr	r2, .L7+8	@ tmp136,
 139              	@ ../4-LCD_16x2/main.c:53: 		disp_text("CONTADOR: ", 1, 0);
  53:../4-LCD_16x2/main.c **** 		disp_number( cont, 1, 11);
 140              		.loc 1 53 3 view .LVU26
 141 0042 1F4E     		ldr	r6, .L7+12	@ tmp156,
 142              	@ ../4-LCD_16x2/main.c:34: 	GPIOA->CRL	 = 0x33333300; // Hab PA(2-7) out PP
  34:../4-LCD_16x2/main.c **** 
ARM GAS  /tmp/ccTiGcp2.s 			page 5


 143              		.loc 1 34 14 view .LVU27
 144 0044 1A60     		str	r2, [r3]	@ tmp136, MEM[(struct GPIO_TypeDef *)1073809408B].CRL
  36:../4-LCD_16x2/main.c ****   set_bit(IO,RS);
 145              		.loc 1 36 3 is_stmt 1 view .LVU28
 146 0046 DA68     		ldr	r2, [r3, #12]	@ _3, MEM[(struct GPIO_TypeDef *)1073809408B].ODR
 147              	@ ../4-LCD_16x2/main.c:55: 		__delay_ms(1000);
  55:../4-LCD_16x2/main.c **** 		
 148              		.loc 1 55 3 is_stmt 0 discriminator 1 view .LVU29
 149 0048 1E4D     		ldr	r5, .L7+16	@ tmp157,
 150              	@ ../4-LCD_16x2/main.c:36:   set_bit(IO,RS);
  36:../4-LCD_16x2/main.c ****   set_bit(IO,RS);
 151              		.loc 1 36 3 view .LVU30
 152 004a 42F00402 		orr	r2, r2, #4	@ _4, _3,
 153 004e DA60     		str	r2, [r3, #12]	@ _4, MEM[(struct GPIO_TypeDef *)1073809408B].ODR
  37:../4-LCD_16x2/main.c ****   set_bit(IO,EN);
 154              		.loc 1 37 3 is_stmt 1 view .LVU31
 155 0050 DA68     		ldr	r2, [r3, #12]	@ _5, MEM[(struct GPIO_TypeDef *)1073809408B].ODR
 156 0052 42F00402 		orr	r2, r2, #4	@ _6, _5,
 157 0056 DA60     		str	r2, [r3, #12]	@ _6, MEM[(struct GPIO_TypeDef *)1073809408B].ODR
  38:../4-LCD_16x2/main.c ****   set_bit(IO,D4);
 158              		.loc 1 38 3 view .LVU32
 159 0058 DA68     		ldr	r2, [r3, #12]	@ _7, MEM[(struct GPIO_TypeDef *)1073809408B].ODR
 160 005a 42F00802 		orr	r2, r2, #8	@ _8, _7,
 161 005e DA60     		str	r2, [r3, #12]	@ _8, MEM[(struct GPIO_TypeDef *)1073809408B].ODR
  39:../4-LCD_16x2/main.c ****   set_bit(IO,D5);
 162              		.loc 1 39 3 view .LVU33
 163 0060 DA68     		ldr	r2, [r3, #12]	@ _9, MEM[(struct GPIO_TypeDef *)1073809408B].ODR
 164 0062 42F01002 		orr	r2, r2, #16	@ _10, _9,
 165 0066 DA60     		str	r2, [r3, #12]	@ _10, MEM[(struct GPIO_TypeDef *)1073809408B].ODR
  40:../4-LCD_16x2/main.c ****   set_bit(IO,D6);
 166              		.loc 1 40 3 view .LVU34
 167 0068 DA68     		ldr	r2, [r3, #12]	@ _11, MEM[(struct GPIO_TypeDef *)1073809408B].ODR
 168 006a 42F02002 		orr	r2, r2, #32	@ _12, _11,
 169 006e DA60     		str	r2, [r3, #12]	@ _12, MEM[(struct GPIO_TypeDef *)1073809408B].ODR
  41:../4-LCD_16x2/main.c ****   set_bit(IO,D7);
 170              		.loc 1 41 3 view .LVU35
 171 0070 DA68     		ldr	r2, [r3, #12]	@ _13, MEM[(struct GPIO_TypeDef *)1073809408B].ODR
 172 0072 42F04002 		orr	r2, r2, #64	@ _14, _13,
 173 0076 DA60     		str	r2, [r3, #12]	@ _14, MEM[(struct GPIO_TypeDef *)1073809408B].ODR
  42:../4-LCD_16x2/main.c **** 
 174              		.loc 1 42 3 view .LVU36
 175 0078 DA68     		ldr	r2, [r3, #12]	@ _15, MEM[(struct GPIO_TypeDef *)1073809408B].ODR
 176 007a 42F08002 		orr	r2, r2, #128	@ _16, _15,
 177 007e DA60     		str	r2, [r3, #12]	@ _16, MEM[(struct GPIO_TypeDef *)1073809408B].ODR
  44:../4-LCD_16x2/main.c ****   disp_cmd(0x0C);
 178              		.loc 1 44 3 view .LVU37
 179 0080 FFF7FEFF 		bl	disp_init		@
 180              	.LVL4:
  45:../4-LCD_16x2/main.c **** 
 181              		.loc 1 45 3 view .LVU38
 182 0084 0C20     		movs	r0, #12	@,
 183 0086 FFF7FEFF 		bl	disp_cmd		@
 184              	.LVL5:
  47:../4-LCD_16x2/main.c ****   u8 cont = (char) 1;
 185              		.loc 1 47 3 view .LVU39
 186 008a 0022     		movs	r2, #0	@,
 187 008c 0E48     		ldr	r0, .L7+20	@,
ARM GAS  /tmp/ccTiGcp2.s 			page 6


 188 008e 1146     		mov	r1, r2	@,
 189 0090 FFF7FEFF 		bl	disp_text		@
 190              	.LVL6:
  48:../4-LCD_16x2/main.c **** 	while(1){
 191              		.loc 1 48 3 view .LVU40
 192              	.L6:
  49:../4-LCD_16x2/main.c **** 
 193              		.loc 1 49 2 view .LVU41
  51:../4-LCD_16x2/main.c **** 		cont ++;
 194              		.loc 1 51 3 view .LVU42
  52:../4-LCD_16x2/main.c **** 		disp_text("CONTADOR: ", 1, 0);
 195              		.loc 1 52 3 view .LVU43
 196              	@ ../4-LCD_16x2/main.c:52: 		cont ++;
  52:../4-LCD_16x2/main.c **** 		disp_text("CONTADOR: ", 1, 0);
 197              		.loc 1 52 8 is_stmt 0 view .LVU44
 198 0094 0134     		adds	r4, r4, #1	@ tmp152, cont,
 199              	.LVL7:
 200              	@ ../4-LCD_16x2/main.c:53: 		disp_text("CONTADOR: ", 1, 0);
  53:../4-LCD_16x2/main.c **** 		disp_number( cont, 1, 11);
 201              		.loc 1 53 3 view .LVU45
 202 0096 3046     		mov	r0, r6	@, tmp156
 203 0098 0022     		movs	r2, #0	@,
 204 009a 0121     		movs	r1, #1	@,
 205              	@ ../4-LCD_16x2/main.c:52: 		cont ++;
  52:../4-LCD_16x2/main.c **** 		disp_text("CONTADOR: ", 1, 0);
 206              		.loc 1 52 8 view .LVU46
 207 009c E4B2     		uxtb	r4, r4	@ cont, tmp152
 208              	.LVL8:
  53:../4-LCD_16x2/main.c **** 		disp_number( cont, 1, 11);
 209              		.loc 1 53 3 is_stmt 1 view .LVU47
 210 009e FFF7FEFF 		bl	disp_text		@
 211              	.LVL9:
  54:../4-LCD_16x2/main.c **** 		__delay_ms(1000);
 212              		.loc 1 54 3 view .LVU48
 213 00a2 2046     		mov	r0, r4	@, cont
 214 00a4 0B22     		movs	r2, #11	@,
 215 00a6 0121     		movs	r1, #1	@,
 216 00a8 FFF7FEFF 		bl	disp_number		@
 217              	.LVL10:
  55:../4-LCD_16x2/main.c **** 		
 218              		.loc 1 55 3 discriminator 1 view .LVU49
 219 00ac 2846     		mov	r0, r5	@, tmp157
 220 00ae FFF7FEFF 		bl	vTaskDelay		@
 221              	.LVL11:
  49:../4-LCD_16x2/main.c **** 
 222              		.loc 1 49 7 view .LVU50
 223 00b2 EFE7     		b	.L6		@
 224              	.L8:
 225              		.align	2
 226              	.L7:
 227 00b4 00100240 		.word	1073876992
 228 00b8 00080140 		.word	1073809408
 229 00bc 00333333 		.word	858993408
 230 00c0 0E000000 		.word	.LC1
 231 00c4 A0860100 		.word	100000
 232 00c8 00000000 		.word	.LC0
 233              		.cfi_endproc
ARM GAS  /tmp/ccTiGcp2.s 			page 7


 234              	.LFE40:
 235              		.size	task1, .-task1
 236              		.align	1
 237              		.global	ADC1_configure
 238              		.syntax unified
 239              		.thumb
 240              		.thumb_func
 241              		.type	ADC1_configure, %function
 242              	ADC1_configure:
 243              	.LFB34:
 244              		.file 2 "../4-LCD_16x2/Me.h"
   1:../4-LCD_16x2/Me.h **** #define __IO volatile
   2:../4-LCD_16x2/Me.h **** 
   3:../4-LCD_16x2/Me.h **** void SystemInit (void);
   4:../4-LCD_16x2/Me.h **** void nvic_IntDisble(u8 IRQn);
   5:../4-LCD_16x2/Me.h **** void nvic_intEnable(u8 IRQn);
   6:../4-LCD_16x2/Me.h **** void set_system_clock_to_25Mhz (void);
   7:../4-LCD_16x2/Me.h **** void set_system_clock_to_72Mhz(void);
   8:../4-LCD_16x2/Me.h **** void Delay ( __IO u32 T );
   9:../4-LCD_16x2/Me.h **** void enable_TIM3_delay (void);
  10:../4-LCD_16x2/Me.h **** void ADC1_configure();
  11:../4-LCD_16x2/Me.h **** 
  12:../4-LCD_16x2/Me.h **** #define DelayUs(X) Delay(X)
  13:../4-LCD_16x2/Me.h **** 
  14:../4-LCD_16x2/Me.h **** void ADC1_configure(){
 245              		.loc 2 14 22 view -0
 246              		.cfi_startproc
 247              		@ args = 0, pretend = 0, frame = 0
 248              		@ frame_needed = 0, uses_anonymous_args = 0
 249              		@ link register save eliminated.
  15:../4-LCD_16x2/Me.h **** 	RCC->APB2ENR |= 1UL<<2 ; // Hab. GPIOA
 250              		.loc 2 15 2 view .LVU52
 251              	@ ../4-LCD_16x2/Me.h:15: 	RCC->APB2ENR |= 1UL<<2 ; // Hab. GPIOA
 252              		.loc 2 15 5 is_stmt 0 view .LVU53
 253 00cc 1F4B     		ldr	r3, .L14	@ tmp142,
 254              	@ ../4-LCD_16x2/Me.h:16: 	GPIOA->CRL &= ~(0x0F << 4); // Define A1 Input Analogic
  16:../4-LCD_16x2/Me.h **** 	GPIOA->CRL &= ~(0x0F << 4); // Define A1 Input Analogic
 255              		.loc 2 16 7 view .LVU54
 256 00ce 2049     		ldr	r1, .L14+4	@ tmp144,
 257              	@ ../4-LCD_16x2/Me.h:15: 	RCC->APB2ENR |= 1UL<<2 ; // Hab. GPIOA
  15:../4-LCD_16x2/Me.h **** 	RCC->APB2ENR |= 1UL<<2 ; // Hab. GPIOA
 258              		.loc 2 15 5 view .LVU55
 259 00d0 9A69     		ldr	r2, [r3, #24]	@ _1, MEM[(struct RCC_TypeDef *)1073876992B].APB2ENR
 260              	@ ../4-LCD_16x2/Me.h:15: 	RCC->APB2ENR |= 1UL<<2 ; // Hab. GPIOA
  15:../4-LCD_16x2/Me.h **** 	RCC->APB2ENR |= 1UL<<2 ; // Hab. GPIOA
 261              		.loc 2 15 15 view .LVU56
 262 00d2 42F00402 		orr	r2, r2, #4	@ _2, _1,
 263 00d6 9A61     		str	r2, [r3, #24]	@ _2, MEM[(struct RCC_TypeDef *)1073876992B].APB2ENR
 264              		.loc 2 16 2 is_stmt 1 view .LVU57
 265              	@ ../4-LCD_16x2/Me.h:16: 	GPIOA->CRL &= ~(0x0F << 4); // Define A1 Input Analogic
 266              		.loc 2 16 7 is_stmt 0 view .LVU58
 267 00d8 0A68     		ldr	r2, [r1]	@ _3, MEM[(struct GPIO_TypeDef *)1073809408B].CRL
 268              	@ ../4-LCD_16x2/Me.h:16: 	GPIOA->CRL &= ~(0x0F << 4); // Define A1 Input Analogic
 269              		.loc 2 16 13 view .LVU59
 270 00da 22F0F002 		bic	r2, r2, #240	@ _4, _3,
 271 00de 0A60     		str	r2, [r1]	@ _4, MEM[(struct GPIO_TypeDef *)1073809408B].CRL
  17:../4-LCD_16x2/Me.h **** 	
ARM GAS  /tmp/ccTiGcp2.s 			page 8


  18:../4-LCD_16x2/Me.h **** 	RCC->APB2ENR |= (1<<9); // Bit 9 ADC1EN: ADC 1 
 272              		.loc 2 18 2 is_stmt 1 view .LVU60
 273              	@ ../4-LCD_16x2/Me.h:18: 	RCC->APB2ENR |= (1<<9); // Bit 9 ADC1EN: ADC 1 
 274              		.loc 2 18 5 is_stmt 0 view .LVU61
 275 00e0 9A69     		ldr	r2, [r3, #24]	@ _5, MEM[(struct RCC_TypeDef *)1073876992B].APB2ENR
 276              	@ ../4-LCD_16x2/Me.h:18: 	RCC->APB2ENR |= (1<<9); // Bit 9 ADC1EN: ADC 1 
 277              		.loc 2 18 15 view .LVU62
 278 00e2 42F40072 		orr	r2, r2, #512	@ _6, _5,
 279 00e6 9A61     		str	r2, [r3, #24]	@ _6, MEM[(struct RCC_TypeDef *)1073876992B].APB2ENR
  19:../4-LCD_16x2/Me.h **** 									// interface clock enable
  20:../4-LCD_16x2/Me.h **** 
  21:../4-LCD_16x2/Me.h **** 	RCC->CFGR	|= (0b10 << 14); // Bits 15:14 ADCPRE:
 280              		.loc 2 21 2 is_stmt 1 view .LVU63
 281              	@ ../4-LCD_16x2/Me.h:21: 	RCC->CFGR	|= (0b10 << 14); // Bits 15:14 ADCPRE:
 282              		.loc 2 21 5 is_stmt 0 view .LVU64
 283 00e8 5A68     		ldr	r2, [r3, #4]	@ _7, MEM[(struct RCC_TypeDef *)1073876992B].CFGR
 284              	@ ../4-LCD_16x2/Me.h:21: 	RCC->CFGR	|= (0b10 << 14); // Bits 15:14 ADCPRE:
 285              		.loc 2 21 12 view .LVU65
 286 00ea 42F40042 		orr	r2, r2, #32768	@ _8, _7,
 287 00ee 5A60     		str	r2, [r3, #4]	@ _8, MEM[(struct RCC_TypeDef *)1073876992B].CFGR
  22:../4-LCD_16x2/Me.h **** 										  // ADC prescaler 10:
  23:../4-LCD_16x2/Me.h **** 										  //    PCLK2 divided by 6
  24:../4-LCD_16x2/Me.h **** 	// Enable End of Conversion (EOC) interrupt
  25:../4-LCD_16x2/Me.h **** 	ADC1->CR1 |= (1 << 5);
 288              		.loc 2 25 2 is_stmt 1 view .LVU66
 289              	@ ../4-LCD_16x2/Me.h:25: 	ADC1->CR1 |= (1 << 5);
 290              		.loc 2 25 6 is_stmt 0 view .LVU67
 291 00f0 A3F56C43 		sub	r3, r3, #60416	@ tmp150, tmp150,
 292 00f4 5A68     		ldr	r2, [r3, #4]	@ _9, MEM[(struct ADC_TypeDef *)1073816576B].CR1
 293              	@ ../4-LCD_16x2/Me.h:25: 	ADC1->CR1 |= (1 << 5);
 294              		.loc 2 25 12 view .LVU68
 295 00f6 42F02002 		orr	r2, r2, #32	@ _10, _9,
 296 00fa 5A60     		str	r2, [r3, #4]	@ _10, MEM[(struct ADC_TypeDef *)1073816576B].CR1
  26:../4-LCD_16x2/Me.h **** 
  27:../4-LCD_16x2/Me.h **** 	// One conversion
  28:../4-LCD_16x2/Me.h **** 	ADC1->SQR1 = 0x00000000;
 297              		.loc 2 28 2 is_stmt 1 view .LVU69
 298              	@ ../4-LCD_16x2/Me.h:28: 	ADC1->SQR1 = 0x00000000;
 299              		.loc 2 28 13 is_stmt 0 view .LVU70
 300 00fc 0022     		movs	r2, #0	@ tmp153,
 301 00fe DA62     		str	r2, [r3, #44]	@ tmp153, MEM[(struct ADC_TypeDef *)1073816576B].SQR1
  29:../4-LCD_16x2/Me.h **** 
  30:../4-LCD_16x2/Me.h **** 	// Choose the analog channel to read
  31:../4-LCD_16x2/Me.h **** 	// Since we want channel 10 to be the first
  32:../4-LCD_16x2/Me.h **** 	//   conversion we write 10 to SQ1 bits (3:0)
  33:../4-LCD_16x2/Me.h **** 	//   which is in SQR3 register. For multiple conversions
  34:../4-LCD_16x2/Me.h **** 	//   keep writing the channel numbers to SQx bits.
  35:../4-LCD_16x2/Me.h **** 	 ADC1->SQR3 = (10 << 0);
 302              		.loc 2 35 3 is_stmt 1 view .LVU71
 303              	@ ../4-LCD_16x2/Me.h:35: 	 ADC1->SQR3 = (10 << 0);
 304              		.loc 2 35 14 is_stmt 0 view .LVU72
 305 0100 0A22     		movs	r2, #10	@ tmp155,
 306 0102 5A63     		str	r2, [r3, #52]	@ tmp155, MEM[(struct ADC_TypeDef *)1073816576B].SQR3
  36:../4-LCD_16x2/Me.h **** 
  37:../4-LCD_16x2/Me.h **** 	// Set up software trigger to start conversion
  38:../4-LCD_16x2/Me.h **** 	ADC1->CR2 |= (7 << 17);  // Select SWSTART as trigger
 307              		.loc 2 38 2 is_stmt 1 view .LVU73
ARM GAS  /tmp/ccTiGcp2.s 			page 9


 308              	@ ../4-LCD_16x2/Me.h:38: 	ADC1->CR2 |= (7 << 17);  // Select SWSTART as trigger
 309              		.loc 2 38 6 is_stmt 0 view .LVU74
 310 0104 9A68     		ldr	r2, [r3, #8]	@ _11, MEM[(struct ADC_TypeDef *)1073816576B].CR2
 311              	@ ../4-LCD_16x2/Me.h:38: 	ADC1->CR2 |= (7 << 17);  // Select SWSTART as trigger
 312              		.loc 2 38 12 view .LVU75
 313 0106 42F46022 		orr	r2, r2, #917504	@ _12, _11,
 314 010a 9A60     		str	r2, [r3, #8]	@ _12, MEM[(struct ADC_TypeDef *)1073816576B].CR2
  39:../4-LCD_16x2/Me.h **** 	ADC1->CR2 |= (1 << 20);  // Enable external trigger
 315              		.loc 2 39 2 is_stmt 1 view .LVU76
 316              	@ ../4-LCD_16x2/Me.h:39: 	ADC1->CR2 |= (1 << 20);  // Enable external trigger
 317              		.loc 2 39 6 is_stmt 0 view .LVU77
 318 010c 9A68     		ldr	r2, [r3, #8]	@ _13, MEM[(struct ADC_TypeDef *)1073816576B].CR2
 319              	@ ../4-LCD_16x2/Me.h:39: 	ADC1->CR2 |= (1 << 20);  // Enable external trigger
 320              		.loc 2 39 12 view .LVU78
 321 010e 42F48012 		orr	r2, r2, #1048576	@ _14, _13,
 322 0112 9A60     		str	r2, [r3, #8]	@ _14, MEM[(struct ADC_TypeDef *)1073816576B].CR2
  40:../4-LCD_16x2/Me.h **** 
  41:../4-LCD_16x2/Me.h **** 	// Enable continuous conversion
  42:../4-LCD_16x2/Me.h **** 	ADC1->CR2 |= (1 << 1);
 323              		.loc 2 42 2 is_stmt 1 view .LVU79
 324              	@ ../4-LCD_16x2/Me.h:42: 	ADC1->CR2 |= (1 << 1);
 325              		.loc 2 42 6 is_stmt 0 view .LVU80
 326 0114 9A68     		ldr	r2, [r3, #8]	@ _15, MEM[(struct ADC_TypeDef *)1073816576B].CR2
 327              	@ ../4-LCD_16x2/Me.h:42: 	ADC1->CR2 |= (1 << 1);
 328              		.loc 2 42 12 view .LVU81
 329 0116 42F00202 		orr	r2, r2, #2	@ _16, _15,
 330 011a 9A60     		str	r2, [r3, #8]	@ _16, MEM[(struct ADC_TypeDef *)1073816576B].CR2
  43:../4-LCD_16x2/Me.h **** 
  44:../4-LCD_16x2/Me.h **** 	// enable_interrupt(ADC1_2_IRQn);
  45:../4-LCD_16x2/Me.h **** 
  46:../4-LCD_16x2/Me.h **** 	// Enable A/D conversion
  47:../4-LCD_16x2/Me.h **** 	ADC1->CR2 |= (1 << 0);
 331              		.loc 2 47 2 is_stmt 1 view .LVU82
 332              	@ ../4-LCD_16x2/Me.h:47: 	ADC1->CR2 |= (1 << 0);
 333              		.loc 2 47 6 is_stmt 0 view .LVU83
 334 011c 9A68     		ldr	r2, [r3, #8]	@ _17, MEM[(struct ADC_TypeDef *)1073816576B].CR2
 335              	@ ../4-LCD_16x2/Me.h:47: 	ADC1->CR2 |= (1 << 0);
 336              		.loc 2 47 12 view .LVU84
 337 011e 42F00102 		orr	r2, r2, #1	@ _18, _17,
 338 0122 9A60     		str	r2, [r3, #8]	@ _18, MEM[(struct ADC_TypeDef *)1073816576B].CR2
  48:../4-LCD_16x2/Me.h **** 
  49:../4-LCD_16x2/Me.h **** 	// Calibration reset and start
  50:../4-LCD_16x2/Me.h **** 	//    Optional for better accuracy.
  51:../4-LCD_16x2/Me.h **** 	ADC1->CR2 |= (1 << 3);
 339              		.loc 2 51 2 is_stmt 1 view .LVU85
 340              	@ ../4-LCD_16x2/Me.h:51: 	ADC1->CR2 |= (1 << 3);
 341              		.loc 2 51 6 is_stmt 0 view .LVU86
 342 0124 9A68     		ldr	r2, [r3, #8]	@ _19, MEM[(struct ADC_TypeDef *)1073816576B].CR2
 343              	@ ../4-LCD_16x2/Me.h:51: 	ADC1->CR2 |= (1 << 3);
 344              		.loc 2 51 12 view .LVU87
 345 0126 42F00802 		orr	r2, r2, #8	@ _20, _19,
 346 012a 9A60     		str	r2, [r3, #8]	@ _20, MEM[(struct ADC_TypeDef *)1073816576B].CR2
  52:../4-LCD_16x2/Me.h **** 	while((ADC1->CR2 & (1 << 3)));
 347              		.loc 2 52 2 is_stmt 1 view .LVU88
 348              	.L10:
 349              		.loc 2 52 8 discriminator 1 view .LVU89
 350              	@ ../4-LCD_16x2/Me.h:52: 	while((ADC1->CR2 & (1 << 3)));
ARM GAS  /tmp/ccTiGcp2.s 			page 10


 351              		.loc 2 52 13 is_stmt 0 discriminator 1 view .LVU90
 352 012c 9A68     		ldr	r2, [r3, #8]	@ _21, MEM[(struct ADC_TypeDef *)1073816576B].CR2
 353              	@ ../4-LCD_16x2/Me.h:52: 	while((ADC1->CR2 & (1 << 3)));
 354              		.loc 2 52 8 discriminator 1 view .LVU91
 355 012e 1107     		lsls	r1, r2, #28	@, _21,
 356 0130 FCD4     		bmi	.L10		@,
  53:../4-LCD_16x2/Me.h **** 	ADC1->CR2 |= (1 << 2);
 357              		.loc 2 53 2 is_stmt 1 view .LVU92
 358              	@ ../4-LCD_16x2/Me.h:53: 	ADC1->CR2 |= (1 << 2);
 359              		.loc 2 53 6 is_stmt 0 view .LVU93
 360 0132 9A68     		ldr	r2, [r3, #8]	@ _23, MEM[(struct ADC_TypeDef *)1073816576B].CR2
 361              	@ ../4-LCD_16x2/Me.h:53: 	ADC1->CR2 |= (1 << 2);
 362              		.loc 2 53 12 view .LVU94
 363 0134 42F00402 		orr	r2, r2, #4	@ _24, _23,
 364 0138 9A60     		str	r2, [r3, #8]	@ _24, MEM[(struct ADC_TypeDef *)1073816576B].CR2
  54:../4-LCD_16x2/Me.h **** 	while((ADC1->CR2 & (1 << 2)));
 365              		.loc 2 54 2 is_stmt 1 view .LVU95
 366              	@ ../4-LCD_16x2/Me.h:54: 	while((ADC1->CR2 & (1 << 2)));
 367              		.loc 2 54 13 is_stmt 0 discriminator 1 view .LVU96
 368 013a 064B     		ldr	r3, .L14+8	@ tmp170,
 369              	.L11:
 370              		.loc 2 54 8 is_stmt 1 discriminator 1 view .LVU97
 371              	@ ../4-LCD_16x2/Me.h:54: 	while((ADC1->CR2 & (1 << 2)));
 372              		.loc 2 54 13 is_stmt 0 discriminator 1 view .LVU98
 373 013c 9A68     		ldr	r2, [r3, #8]	@ _25, MEM[(struct ADC_TypeDef *)1073816576B].CR2
 374              	@ ../4-LCD_16x2/Me.h:54: 	while((ADC1->CR2 & (1 << 2)));
 375              		.loc 2 54 8 discriminator 1 view .LVU99
 376 013e 5207     		lsls	r2, r2, #29	@, _25,
 377 0140 FCD4     		bmi	.L11		@,
  55:../4-LCD_16x2/Me.h **** 
  56:../4-LCD_16x2/Me.h **** 	// Start conversion with software trigger
  57:../4-LCD_16x2/Me.h **** 	ADC1->CR2 |= (1<<22);
 378              		.loc 2 57 2 is_stmt 1 view .LVU100
 379              	@ ../4-LCD_16x2/Me.h:57: 	ADC1->CR2 |= (1<<22);
 380              		.loc 2 57 6 is_stmt 0 view .LVU101
 381 0142 9A68     		ldr	r2, [r3, #8]	@ _27, MEM[(struct ADC_TypeDef *)1073816576B].CR2
 382              	@ ../4-LCD_16x2/Me.h:57: 	ADC1->CR2 |= (1<<22);
 383              		.loc 2 57 12 view .LVU102
 384 0144 42F48002 		orr	r2, r2, #4194304	@ _28, _27,
 385 0148 9A60     		str	r2, [r3, #8]	@ _28, MEM[(struct ADC_TypeDef *)1073816576B].CR2
 386              	@ ../4-LCD_16x2/Me.h:60: }
  58:../4-LCD_16x2/Me.h **** 	//
  59:../4-LCD_16x2/Me.h **** 	// Leitura  ADC1->DR  -> Data Register
  60:../4-LCD_16x2/Me.h **** }
 387              		.loc 2 60 1 view .LVU103
 388 014a 7047     		bx	lr	@
 389              	.L15:
 390              		.align	2
 391              	.L14:
 392 014c 00100240 		.word	1073876992
 393 0150 00080140 		.word	1073809408
 394 0154 00240140 		.word	1073816576
 395              		.cfi_endproc
 396              	.LFE34:
 397              		.size	ADC1_configure, .-ADC1_configure
 398              		.align	1
 399              		.global	set_system_clock_to_72Mhz
ARM GAS  /tmp/ccTiGcp2.s 			page 11


 400              		.syntax unified
 401              		.thumb
 402              		.thumb_func
 403              		.type	set_system_clock_to_72Mhz, %function
 404              	set_system_clock_to_72Mhz:
 405              	.LFB35:
  61:../4-LCD_16x2/Me.h **** 
  62:../4-LCD_16x2/Me.h **** void set_system_clock_to_72Mhz(void)
  63:../4-LCD_16x2/Me.h **** {
 406              		.loc 2 63 1 is_stmt 1 view -0
 407              		.cfi_startproc
 408              		@ args = 0, pretend = 0, frame = 0
 409              		@ frame_needed = 0, uses_anonymous_args = 0
 410              		@ link register save eliminated.
  64:../4-LCD_16x2/Me.h ****    // Necessary wait states for Flash for high speeds
  65:../4-LCD_16x2/Me.h ****    FLASH->ACR = 0x12;
 411              		.loc 2 65 4 view .LVU105
 412              	@ ../4-LCD_16x2/Me.h:65:    FLASH->ACR = 0x12;
 413              		.loc 2 65 15 is_stmt 0 view .LVU106
 414 0158 1222     		movs	r2, #18	@ tmp141,
 415 015a 1B4B     		ldr	r3, .L23	@ tmp140,
 416 015c 1A60     		str	r2, [r3]	@ tmp141, MEM[(struct FLASH_TypeDef *)1073881088B].ACR
  66:../4-LCD_16x2/Me.h ****    // Enable HSE
  67:../4-LCD_16x2/Me.h ****    RCC->CR |= (1 << 16);
 417              		.loc 2 67 4 is_stmt 1 view .LVU107
 418              	@ ../4-LCD_16x2/Me.h:67:    RCC->CR |= (1 << 16);
 419              		.loc 2 67 7 is_stmt 0 view .LVU108
 420 015e A3F58053 		sub	r3, r3, #4096	@ tmp142, tmp142,
 421 0162 1A68     		ldr	r2, [r3]	@ _1, MEM[(struct RCC_TypeDef *)1073876992B].CR
 422              	@ ../4-LCD_16x2/Me.h:67:    RCC->CR |= (1 << 16);
 423              		.loc 2 67 12 view .LVU109
 424 0164 42F48032 		orr	r2, r2, #65536	@ _2, _1,
 425 0168 1A60     		str	r2, [r3]	@ _2, MEM[(struct RCC_TypeDef *)1073876992B].CR
  68:../4-LCD_16x2/Me.h ****    // Wait untill HSE settles down
  69:../4-LCD_16x2/Me.h ****    while (!(RCC->CR & (1 << 17)));
 426              		.loc 2 69 4 is_stmt 1 view .LVU110
 427              	.L17:
 428              		.loc 2 69 11 discriminator 1 view .LVU111
 429              	@ ../4-LCD_16x2/Me.h:69:    while (!(RCC->CR & (1 << 17)));
 430              		.loc 2 69 16 is_stmt 0 discriminator 1 view .LVU112
 431 016a 1A68     		ldr	r2, [r3]	@ _3, MEM[(struct RCC_TypeDef *)1073876992B].CR
 432              	@ ../4-LCD_16x2/Me.h:69:    while (!(RCC->CR & (1 << 17)));
 433              		.loc 2 69 11 discriminator 1 view .LVU113
 434 016c 9103     		lsls	r1, r2, #14	@, _3,
 435 016e FCD5     		bpl	.L17		@,
  70:../4-LCD_16x2/Me.h ****    // Set PREDIV2 division factor to 5
  71:../4-LCD_16x2/Me.h ****    RCC->CFGR2 |= (0b0100 << 4);
 436              		.loc 2 71 4 is_stmt 1 view .LVU114
 437              	@ ../4-LCD_16x2/Me.h:71:    RCC->CFGR2 |= (0b0100 << 4);
 438              		.loc 2 71 7 is_stmt 0 view .LVU115
 439 0170 DA6A     		ldr	r2, [r3, #44]	@ _5, MEM[(struct RCC_TypeDef *)1073876992B].CFGR2
 440              	@ ../4-LCD_16x2/Me.h:71:    RCC->CFGR2 |= (0b0100 << 4);
 441              		.loc 2 71 15 view .LVU116
 442 0172 42F04002 		orr	r2, r2, #64	@ _6, _5,
 443 0176 DA62     		str	r2, [r3, #44]	@ _6, MEM[(struct RCC_TypeDef *)1073876992B].CFGR2
  72:../4-LCD_16x2/Me.h ****    // Set PLL2 multiplication factor to 8
  73:../4-LCD_16x2/Me.h ****    RCC->CFGR2 |= (0b0110 << 8);
ARM GAS  /tmp/ccTiGcp2.s 			page 12


 444              		.loc 2 73 4 is_stmt 1 view .LVU117
 445              	@ ../4-LCD_16x2/Me.h:73:    RCC->CFGR2 |= (0b0110 << 8);
 446              		.loc 2 73 7 is_stmt 0 view .LVU118
 447 0178 DA6A     		ldr	r2, [r3, #44]	@ _7, MEM[(struct RCC_TypeDef *)1073876992B].CFGR2
 448              	@ ../4-LCD_16x2/Me.h:73:    RCC->CFGR2 |= (0b0110 << 8);
 449              		.loc 2 73 15 view .LVU119
 450 017a 42F4C062 		orr	r2, r2, #1536	@ _8, _7,
 451 017e DA62     		str	r2, [r3, #44]	@ _8, MEM[(struct RCC_TypeDef *)1073876992B].CFGR2
  74:../4-LCD_16x2/Me.h ****    // Enable PLL2
  75:../4-LCD_16x2/Me.h ****    RCC->CR |= (1 << 26);
 452              		.loc 2 75 4 is_stmt 1 view .LVU120
 453              	@ ../4-LCD_16x2/Me.h:75:    RCC->CR |= (1 << 26);
 454              		.loc 2 75 7 is_stmt 0 view .LVU121
 455 0180 1A68     		ldr	r2, [r3]	@ _9, MEM[(struct RCC_TypeDef *)1073876992B].CR
 456              	@ ../4-LCD_16x2/Me.h:75:    RCC->CR |= (1 << 26);
 457              		.loc 2 75 12 view .LVU122
 458 0182 42F08062 		orr	r2, r2, #67108864	@ _10, _9,
 459 0186 1A60     		str	r2, [r3]	@ _10, MEM[(struct RCC_TypeDef *)1073876992B].CR
  76:../4-LCD_16x2/Me.h ****    // Wait untill PLL2 settles down
  77:../4-LCD_16x2/Me.h **** 	// while (!(RCC->CR & (1 << 27)));
  78:../4-LCD_16x2/Me.h ****    // Set PLL2 as PREDIV1 clock source
  79:../4-LCD_16x2/Me.h ****    RCC->CFGR2 |= (1 << 16);
 460              		.loc 2 79 4 is_stmt 1 view .LVU123
 461              	@ ../4-LCD_16x2/Me.h:79:    RCC->CFGR2 |= (1 << 16);
 462              		.loc 2 79 7 is_stmt 0 view .LVU124
 463 0188 DA6A     		ldr	r2, [r3, #44]	@ _11, MEM[(struct RCC_TypeDef *)1073876992B].CFGR2
 464              	@ ../4-LCD_16x2/Me.h:79:    RCC->CFGR2 |= (1 << 16);
 465              		.loc 2 79 15 view .LVU125
 466 018a 42F48032 		orr	r2, r2, #65536	@ _12, _11,
 467 018e DA62     		str	r2, [r3, #44]	@ _12, MEM[(struct RCC_TypeDef *)1073876992B].CFGR2
  80:../4-LCD_16x2/Me.h ****    // Set PREDIV1 division factor to 5
  81:../4-LCD_16x2/Me.h ****    RCC->CFGR2 |= (0b0100 << 0);
 468              		.loc 2 81 4 is_stmt 1 view .LVU126
 469              	@ ../4-LCD_16x2/Me.h:81:    RCC->CFGR2 |= (0b0100 << 0);
 470              		.loc 2 81 7 is_stmt 0 view .LVU127
 471 0190 DA6A     		ldr	r2, [r3, #44]	@ _13, MEM[(struct RCC_TypeDef *)1073876992B].CFGR2
 472              	@ ../4-LCD_16x2/Me.h:81:    RCC->CFGR2 |= (0b0100 << 0);
 473              		.loc 2 81 15 view .LVU128
 474 0192 42F00402 		orr	r2, r2, #4	@ _14, _13,
 475 0196 DA62     		str	r2, [r3, #44]	@ _14, MEM[(struct RCC_TypeDef *)1073876992B].CFGR2
  82:../4-LCD_16x2/Me.h ****    // Select Prediv1 as PLL source
  83:../4-LCD_16x2/Me.h ****    RCC->CFGR |= (1 << 16);
 476              		.loc 2 83 4 is_stmt 1 view .LVU129
 477              	@ ../4-LCD_16x2/Me.h:83:    RCC->CFGR |= (1 << 16);
 478              		.loc 2 83 7 is_stmt 0 view .LVU130
 479 0198 5A68     		ldr	r2, [r3, #4]	@ _15, MEM[(struct RCC_TypeDef *)1073876992B].CFGR
 480              	@ ../4-LCD_16x2/Me.h:83:    RCC->CFGR |= (1 << 16);
 481              		.loc 2 83 14 view .LVU131
 482 019a 42F48032 		orr	r2, r2, #65536	@ _16, _15,
 483 019e 5A60     		str	r2, [r3, #4]	@ _16, MEM[(struct RCC_TypeDef *)1073876992B].CFGR
  84:../4-LCD_16x2/Me.h ****    // Set PLL1 multiplication factor to 9
  85:../4-LCD_16x2/Me.h ****    RCC->CFGR |= (0b0111 << 18);
 484              		.loc 2 85 4 is_stmt 1 view .LVU132
 485              	@ ../4-LCD_16x2/Me.h:85:    RCC->CFGR |= (0b0111 << 18);
 486              		.loc 2 85 7 is_stmt 0 view .LVU133
 487 01a0 5A68     		ldr	r2, [r3, #4]	@ _17, MEM[(struct RCC_TypeDef *)1073876992B].CFGR
 488              	@ ../4-LCD_16x2/Me.h:85:    RCC->CFGR |= (0b0111 << 18);
ARM GAS  /tmp/ccTiGcp2.s 			page 13


 489              		.loc 2 85 14 view .LVU134
 490 01a2 42F4E012 		orr	r2, r2, #1835008	@ _18, _17,
 491 01a6 5A60     		str	r2, [r3, #4]	@ _18, MEM[(struct RCC_TypeDef *)1073876992B].CFGR
  86:../4-LCD_16x2/Me.h ****    // Set APB1 to 36MHz
  87:../4-LCD_16x2/Me.h ****    RCC->CFGR |= 1 << 10;
 492              		.loc 2 87 4 is_stmt 1 view .LVU135
 493              	@ ../4-LCD_16x2/Me.h:87:    RCC->CFGR |= 1 << 10;
 494              		.loc 2 87 7 is_stmt 0 view .LVU136
 495 01a8 5A68     		ldr	r2, [r3, #4]	@ _19, MEM[(struct RCC_TypeDef *)1073876992B].CFGR
 496              	@ ../4-LCD_16x2/Me.h:87:    RCC->CFGR |= 1 << 10;
 497              		.loc 2 87 14 view .LVU137
 498 01aa 42F48062 		orr	r2, r2, #1024	@ _20, _19,
 499 01ae 5A60     		str	r2, [r3, #4]	@ _20, MEM[(struct RCC_TypeDef *)1073876992B].CFGR
  88:../4-LCD_16x2/Me.h ****    // Enable PLL
  89:../4-LCD_16x2/Me.h ****    RCC->CR |= (1 << 24);
 500              		.loc 2 89 4 is_stmt 1 view .LVU138
 501              	@ ../4-LCD_16x2/Me.h:89:    RCC->CR |= (1 << 24);
 502              		.loc 2 89 7 is_stmt 0 view .LVU139
 503 01b0 1A68     		ldr	r2, [r3]	@ _21, MEM[(struct RCC_TypeDef *)1073876992B].CR
 504              	@ ../4-LCD_16x2/Me.h:89:    RCC->CR |= (1 << 24);
 505              		.loc 2 89 12 view .LVU140
 506 01b2 42F08072 		orr	r2, r2, #16777216	@ _22, _21,
 507 01b6 1A60     		str	r2, [r3]	@ _22, MEM[(struct RCC_TypeDef *)1073876992B].CR
  90:../4-LCD_16x2/Me.h ****    // Wait untill PLL settles down
  91:../4-LCD_16x2/Me.h ****    while (!(RCC->CR & (1 << 25)));
 508              		.loc 2 91 4 is_stmt 1 view .LVU141
 509              	.L18:
 510              		.loc 2 91 11 discriminator 1 view .LVU142
 511              	@ ../4-LCD_16x2/Me.h:91:    while (!(RCC->CR & (1 << 25)));
 512              		.loc 2 91 16 is_stmt 0 discriminator 1 view .LVU143
 513 01b8 1A68     		ldr	r2, [r3]	@ _23, MEM[(struct RCC_TypeDef *)1073876992B].CR
 514              	@ ../4-LCD_16x2/Me.h:91:    while (!(RCC->CR & (1 << 25)));
 515              		.loc 2 91 11 discriminator 1 view .LVU144
 516 01ba 9201     		lsls	r2, r2, #6	@, _23,
 517 01bc FCD5     		bpl	.L18		@,
  92:../4-LCD_16x2/Me.h ****    // Finally, choose PLL as the system clock
  93:../4-LCD_16x2/Me.h ****    RCC->CFGR |= (0b10 << 0);
 518              		.loc 2 93 4 is_stmt 1 view .LVU145
 519              	@ ../4-LCD_16x2/Me.h:93:    RCC->CFGR |= (0b10 << 0);
 520              		.loc 2 93 7 is_stmt 0 view .LVU146
 521 01be 5A68     		ldr	r2, [r3, #4]	@ _25, MEM[(struct RCC_TypeDef *)1073876992B].CFGR
 522              	@ ../4-LCD_16x2/Me.h:93:    RCC->CFGR |= (0b10 << 0);
 523              		.loc 2 93 14 view .LVU147
 524 01c0 42F00202 		orr	r2, r2, #2	@ _26, _25,
 525 01c4 5A60     		str	r2, [r3, #4]	@ _26, MEM[(struct RCC_TypeDef *)1073876992B].CFGR
 526              	@ ../4-LCD_16x2/Me.h:94: } 
  94:../4-LCD_16x2/Me.h **** } 
 527              		.loc 2 94 1 view .LVU148
 528 01c6 7047     		bx	lr	@
 529              	.L24:
 530              		.align	2
 531              	.L23:
 532 01c8 00200240 		.word	1073881088
 533              		.cfi_endproc
 534              	.LFE35:
 535              		.size	set_system_clock_to_72Mhz, .-set_system_clock_to_72Mhz
 536              		.align	1
ARM GAS  /tmp/ccTiGcp2.s 			page 14


 537              		.global	Delay
 538              		.syntax unified
 539              		.thumb
 540              		.thumb_func
 541              		.type	Delay, %function
 542              	Delay:
 543              	.LVL12:
 544              	.LFB36:
  95:../4-LCD_16x2/Me.h **** 
  96:../4-LCD_16x2/Me.h **** void Delay ( __IO u32 T ) { // T=1 ;  868µs -> T=1 ~ 526µs
 545              		.loc 2 96 27 is_stmt 1 view -0
 546              		.cfi_startproc
 547              		@ args = 0, pretend = 0, frame = 8
 548              		@ frame_needed = 0, uses_anonymous_args = 0
 549              		@ link register save eliminated.
  97:../4-LCD_16x2/Me.h ****   for ( T ; T > 0 ; T-- ){
 550              		.loc 2 97 3 view .LVU150
 551              	@ ../4-LCD_16x2/Me.h:96: void Delay ( __IO u32 T ) { // T=1 ;  868µs -> T=1 ~ 526µs
  96:../4-LCD_16x2/Me.h ****   for ( T ; T > 0 ; T-- ){
 552              		.loc 2 96 27 is_stmt 0 view .LVU151
 553 01cc 82B0     		sub	sp, sp, #8	@,,
 554              	.LCFI2:
 555              		.cfi_def_cfa_offset 8
 556              	@ ../4-LCD_16x2/Me.h:96: void Delay ( __IO u32 T ) { // T=1 ;  868µs -> T=1 ~ 526µs
  96:../4-LCD_16x2/Me.h ****   for ( T ; T > 0 ; T-- ){
 557              		.loc 2 96 27 view .LVU152
 558 01ce 0190     		str	r0, [sp, #4]	@ T, T
 559              	@ ../4-LCD_16x2/Me.h:97:   for ( T ; T > 0 ; T-- ){
 560              		.loc 2 97 3 view .LVU153
 561 01d0 019B     		ldr	r3, [sp, #4]	@ vol.0_9, T
 562              	@ ../4-LCD_16x2/Me.h:98:    TIM3->EGR |= ( 1 << 0 );
  98:../4-LCD_16x2/Me.h ****    TIM3->EGR |= ( 1 << 0 );
 563              		.loc 2 98 8 view .LVU154
 564 01d2 094A     		ldr	r2, .L30	@ tmp133,
 565              	.L26:
  97:../4-LCD_16x2/Me.h ****   for ( T ; T > 0 ; T-- ){
 566              		.loc 2 97 15 is_stmt 1 discriminator 1 view .LVU155
 567 01d4 019B     		ldr	r3, [sp, #4]	@ T.2_6, T
 568 01d6 0BB9     		cbnz	r3, .L28	@ T.2_6,
 569              	@ ../4-LCD_16x2/Me.h:101: }
  99:../4-LCD_16x2/Me.h ****    while ( TIM3->CNT < 5 ) ; /* 5 * 10-- Configurar para IR */
 100:../4-LCD_16x2/Me.h ****   }
 101:../4-LCD_16x2/Me.h **** }
 570              		.loc 2 101 1 is_stmt 0 view .LVU156
 571 01d8 02B0     		add	sp, sp, #8	@,,
 572              	.LCFI3:
 573              		.cfi_remember_state
 574              		.cfi_def_cfa_offset 0
 575              		@ sp needed	@
 576 01da 7047     		bx	lr	@
 577              	.L28:
 578              	.LCFI4:
 579              		.cfi_restore_state
  98:../4-LCD_16x2/Me.h ****    TIM3->EGR |= ( 1 << 0 );
 580              		.loc 2 98 4 is_stmt 1 view .LVU157
 581              	@ ../4-LCD_16x2/Me.h:98:    TIM3->EGR |= ( 1 << 0 );
  98:../4-LCD_16x2/Me.h ****    TIM3->EGR |= ( 1 << 0 );
ARM GAS  /tmp/ccTiGcp2.s 			page 15


 582              		.loc 2 98 8 is_stmt 0 view .LVU158
 583 01dc 938A     		ldrh	r3, [r2, #20]	@, MEM[(struct TIM_TypeDef *)1073742848B].EGR
 584 01de 9BB2     		uxth	r3, r3	@ _1, MEM[(struct TIM_TypeDef *)1073742848B].EGR
 585              	@ ../4-LCD_16x2/Me.h:98:    TIM3->EGR |= ( 1 << 0 );
  98:../4-LCD_16x2/Me.h ****    TIM3->EGR |= ( 1 << 0 );
 586              		.loc 2 98 14 view .LVU159
 587 01e0 43F00103 		orr	r3, r3, #1	@ _2, _1,
 588 01e4 9382     		strh	r3, [r2, #20]	@ movhi	@ _2, MEM[(struct TIM_TypeDef *)1073742848B].EGR
  99:../4-LCD_16x2/Me.h ****    while ( TIM3->CNT < 5 ) ; /* 5 * 10-- Configurar para IR */
 589              		.loc 2 99 4 is_stmt 1 view .LVU160
 590              	.L27:
  99:../4-LCD_16x2/Me.h ****    while ( TIM3->CNT < 5 ) ; /* 5 * 10-- Configurar para IR */
 591              		.loc 2 99 22 discriminator 1 view .LVU161
 592              	@ ../4-LCD_16x2/Me.h:99:    while ( TIM3->CNT < 5 ) ; /* 5 * 10-- Configurar para IR */
  99:../4-LCD_16x2/Me.h ****    while ( TIM3->CNT < 5 ) ; /* 5 * 10-- Configurar para IR */
 593              		.loc 2 99 16 is_stmt 0 discriminator 1 view .LVU162
 594 01e6 938C     		ldrh	r3, [r2, #36]	@, MEM[(struct TIM_TypeDef *)1073742848B].CNT
 595 01e8 9BB2     		uxth	r3, r3	@ _3, MEM[(struct TIM_TypeDef *)1073742848B].CNT
 596              	@ ../4-LCD_16x2/Me.h:99:    while ( TIM3->CNT < 5 ) ; /* 5 * 10-- Configurar para IR */
  99:../4-LCD_16x2/Me.h ****    while ( TIM3->CNT < 5 ) ; /* 5 * 10-- Configurar para IR */
 597              		.loc 2 99 22 discriminator 1 view .LVU163
 598 01ea 042B     		cmp	r3, #4	@ _3,
 599 01ec FBD9     		bls	.L27		@,
  97:../4-LCD_16x2/Me.h ****    TIM3->EGR |= ( 1 << 0 );
 600              		.loc 2 97 22 is_stmt 1 discriminator 2 view .LVU164
 601 01ee 019B     		ldr	r3, [sp, #4]	@ T.1_4, T
 602 01f0 013B     		subs	r3, r3, #1	@ _5, T.1_4,
 603 01f2 0193     		str	r3, [sp, #4]	@ _5, T
 604 01f4 EEE7     		b	.L26		@
 605              	.L31:
 606 01f6 00BF     		.align	2
 607              	.L30:
 608 01f8 00040040 		.word	1073742848
 609              		.cfi_endproc
 610              	.LFE36:
 611              		.size	Delay, .-Delay
 612              		.align	1
 613              		.global	enable_TIM3_delay
 614              		.syntax unified
 615              		.thumb
 616              		.thumb_func
 617              		.type	enable_TIM3_delay, %function
 618              	enable_TIM3_delay:
 619              	.LFB37:
 102:../4-LCD_16x2/Me.h **** 
 103:../4-LCD_16x2/Me.h **** void enable_TIM3_delay (void) {
 620              		.loc 2 103 31 view -0
 621              		.cfi_startproc
 622              		@ args = 0, pretend = 0, frame = 0
 623              		@ frame_needed = 0, uses_anonymous_args = 0
 624              		@ link register save eliminated.
 104:../4-LCD_16x2/Me.h ****    RCC->APB1ENR |= 1<<1 ;
 625              		.loc 2 104 4 view .LVU166
 626              	@ ../4-LCD_16x2/Me.h:104:    RCC->APB1ENR |= 1<<1 ;
 627              		.loc 2 104 7 is_stmt 0 view .LVU167
 628 01fc 084A     		ldr	r2, .L33	@ tmp118,
 629 01fe D369     		ldr	r3, [r2, #28]	@ _1, MEM[(struct RCC_TypeDef *)1073876992B].APB1ENR
ARM GAS  /tmp/ccTiGcp2.s 			page 16


 630              	@ ../4-LCD_16x2/Me.h:104:    RCC->APB1ENR |= 1<<1 ;
 631              		.loc 2 104 17 view .LVU168
 632 0200 43F00203 		orr	r3, r3, #2	@ _2, _1,
 633 0204 D361     		str	r3, [r2, #28]	@ _2, MEM[(struct RCC_TypeDef *)1073876992B].APB1ENR
 105:../4-LCD_16x2/Me.h ****    TIM3->CR1 = 0x0000;
 634              		.loc 2 105 4 is_stmt 1 view .LVU169
 635              	@ ../4-LCD_16x2/Me.h:105:    TIM3->CR1 = 0x0000;
 636              		.loc 2 105 14 is_stmt 0 view .LVU170
 637 0206 0023     		movs	r3, #0	@ tmp122,
 638 0208 A2F50332 		sub	r2, r2, #134144	@ tmp120, tmp120,
 639 020c 1380     		strh	r3, [r2]	@ movhi	@ tmp122, MEM[(struct TIM_TypeDef *)1073742848B].CR1
 106:../4-LCD_16x2/Me.h ****    //TIM3->ARR = 21699;
 107:../4-LCD_16x2/Me.h ****    // TIM3->ARR = 250-1; // 10µs
 108:../4-LCD_16x2/Me.h ****    TIM3->ARR = 720-1; // 10µs
 640              		.loc 2 108 4 is_stmt 1 view .LVU171
 641              	@ ../4-LCD_16x2/Me.h:108:    TIM3->ARR = 720-1; // 10µs
 642              		.loc 2 108 14 is_stmt 0 view .LVU172
 643 020e 40F2CF23 		movw	r3, #719	@ tmp125,
 644 0212 9385     		strh	r3, [r2, #44]	@ movhi	@ tmp125, MEM[(struct TIM_TypeDef *)1073742848B].ARR
 109:../4-LCD_16x2/Me.h ****    // para obter o período de 868µs
 110:../4-LCD_16x2/Me.h **** /*https://www.vishay.com/docs/80071/dataform.pdf PAG 2
 111:../4-LCD_16x2/Me.h ****  * https://controllerstech.com/ir-remote-with-stm32/
 112:../4-LCD_16x2/Me.h ****  * Per=(1+ARR)/Clock_system */
 113:../4-LCD_16x2/Me.h ****    TIM3->CR1 |= 1<<0;
 645              		.loc 2 113 4 is_stmt 1 view .LVU173
 646              	@ ../4-LCD_16x2/Me.h:113:    TIM3->CR1 |= 1<<0;
 647              		.loc 2 113 8 is_stmt 0 view .LVU174
 648 0214 1388     		ldrh	r3, [r2]	@, MEM[(struct TIM_TypeDef *)1073742848B].CR1
 649 0216 9BB2     		uxth	r3, r3	@ _3, MEM[(struct TIM_TypeDef *)1073742848B].CR1
 650              	@ ../4-LCD_16x2/Me.h:113:    TIM3->CR1 |= 1<<0;
 651              		.loc 2 113 14 view .LVU175
 652 0218 43F00103 		orr	r3, r3, #1	@ _4, _3,
 653 021c 1380     		strh	r3, [r2]	@ movhi	@ _4, MEM[(struct TIM_TypeDef *)1073742848B].CR1
 654              	@ ../4-LCD_16x2/Me.h:114: }
 114:../4-LCD_16x2/Me.h **** }
 655              		.loc 2 114 1 view .LVU176
 656 021e 7047     		bx	lr	@
 657              	.L34:
 658              		.align	2
 659              	.L33:
 660 0220 00100240 		.word	1073876992
 661              		.cfi_endproc
 662              	.LFE37:
 663              		.size	enable_TIM3_delay, .-enable_TIM3_delay
 664              		.align	1
 665              		.global	enable_interrupt
 666              		.syntax unified
 667              		.thumb
 668              		.thumb_func
 669              		.type	enable_interrupt, %function
 670              	enable_interrupt:
 671              	.LVL13:
 672              	.LFB38:
 115:../4-LCD_16x2/Me.h **** 
 116:../4-LCD_16x2/Me.h **** void enable_interrupt(IRQn_Type IRQn)
 117:../4-LCD_16x2/Me.h **** {
 673              		.loc 2 117 1 is_stmt 1 view -0
ARM GAS  /tmp/ccTiGcp2.s 			page 17


 674              		.cfi_startproc
 675              		@ args = 0, pretend = 0, frame = 0
 676              		@ frame_needed = 0, uses_anonymous_args = 0
 677              		@ link register save eliminated.
 118:../4-LCD_16x2/Me.h ****    NVIC->ISER[((uint32_t)(IRQn) >> 5)] = (1 << ((uint32_t)(IRQn) & 0x1F));
 678              		.loc 2 118 4 view .LVU178
 679              	@ ../4-LCD_16x2/Me.h:118:    NVIC->ISER[((uint32_t)(IRQn) >> 5)] = (1 << ((uint32_t)(IRQn) & 0x1F))
 680              		.loc 2 118 45 is_stmt 0 view .LVU179
 681 0224 0123     		movs	r3, #1	@ tmp123,
 682              	@ ../4-LCD_16x2/Me.h:118:    NVIC->ISER[((uint32_t)(IRQn) >> 5)] = (1 << ((uint32_t)(IRQn) & 0x1F))
 683              		.loc 2 118 33 view .LVU180
 684 0226 4109     		lsrs	r1, r0, #5	@ _5, IRQn,
 685              	@ ../4-LCD_16x2/Me.h:118:    NVIC->ISER[((uint32_t)(IRQn) >> 5)] = (1 << ((uint32_t)(IRQn) & 0x1F))
 686              		.loc 2 118 40 view .LVU181
 687 0228 034A     		ldr	r2, .L36	@ tmp124,
 688              	@ ../4-LCD_16x2/Me.h:118:    NVIC->ISER[((uint32_t)(IRQn) >> 5)] = (1 << ((uint32_t)(IRQn) & 0x1F))
 689              		.loc 2 118 66 view .LVU182
 690 022a 00F01F00 		and	r0, r0, #31	@ tmp122, IRQn,
 691              	.LVL14:
 692              	@ ../4-LCD_16x2/Me.h:118:    NVIC->ISER[((uint32_t)(IRQn) >> 5)] = (1 << ((uint32_t)(IRQn) & 0x1F))
 693              		.loc 2 118 45 view .LVU183
 694 022e 8340     		lsls	r3, r3, r0	@ _6, tmp123, tmp122
 695              	@ ../4-LCD_16x2/Me.h:118:    NVIC->ISER[((uint32_t)(IRQn) >> 5)] = (1 << ((uint32_t)(IRQn) & 0x1F))
 696              		.loc 2 118 40 view .LVU184
 697 0230 42F82130 		str	r3, [r2, r1, lsl #2]	@ _6, MEM[(struct NVIC_Type *)3758153984B].ISER[_5]
 698              	@ ../4-LCD_16x2/Me.h:119: }  
 119:../4-LCD_16x2/Me.h **** }  
 699              		.loc 2 119 1 view .LVU185
 700 0234 7047     		bx	lr	@
 701              	.L37:
 702 0236 00BF     		.align	2
 703              	.L36:
 704 0238 00E100E0 		.word	-536813312
 705              		.cfi_endproc
 706              	.LFE38:
 707              		.size	enable_interrupt, .-enable_interrupt
 708              		.align	1
 709              		.global	disable_interrupt
 710              		.syntax unified
 711              		.thumb
 712              		.thumb_func
 713              		.type	disable_interrupt, %function
 714              	disable_interrupt:
 715              	.LVL15:
 716              	.LFB39:
 120:../4-LCD_16x2/Me.h ****    
 121:../4-LCD_16x2/Me.h **** /* 
 122:../4-LCD_16x2/Me.h ****  * Disable given interrupt
 123:../4-LCD_16x2/Me.h ****  */
 124:../4-LCD_16x2/Me.h **** void disable_interrupt(IRQn_Type IRQn)
 125:../4-LCD_16x2/Me.h **** {
 717              		.loc 2 125 1 is_stmt 1 view -0
 718              		.cfi_startproc
 719              		@ args = 0, pretend = 0, frame = 0
 720              		@ frame_needed = 0, uses_anonymous_args = 0
 721              		@ link register save eliminated.
 126:../4-LCD_16x2/Me.h ****    NVIC->ICER[((uint32_t)(IRQn) >> 5)] = (1 << ((uint32_t)(IRQn) & 0x1F));
ARM GAS  /tmp/ccTiGcp2.s 			page 18


 722              		.loc 2 126 4 view .LVU187
 723              	@ ../4-LCD_16x2/Me.h:126:    NVIC->ICER[((uint32_t)(IRQn) >> 5)] = (1 << ((uint32_t)(IRQn) & 0x1F))
 724              		.loc 2 126 45 is_stmt 0 view .LVU188
 725 023c 0122     		movs	r2, #1	@ tmp123,
 726              	@ ../4-LCD_16x2/Me.h:126:    NVIC->ICER[((uint32_t)(IRQn) >> 5)] = (1 << ((uint32_t)(IRQn) & 0x1F))
 727              		.loc 2 126 33 view .LVU189
 728 023e 4309     		lsrs	r3, r0, #5	@ _5, IRQn,
 729              	@ ../4-LCD_16x2/Me.h:126:    NVIC->ICER[((uint32_t)(IRQn) >> 5)] = (1 << ((uint32_t)(IRQn) & 0x1F))
 730              		.loc 2 126 40 view .LVU190
 731 0240 0349     		ldr	r1, .L39	@ tmp124,
 732              	@ ../4-LCD_16x2/Me.h:126:    NVIC->ICER[((uint32_t)(IRQn) >> 5)] = (1 << ((uint32_t)(IRQn) & 0x1F))
 733              		.loc 2 126 66 view .LVU191
 734 0242 00F01F00 		and	r0, r0, #31	@ tmp122, IRQn,
 735              	.LVL16:
 736              	@ ../4-LCD_16x2/Me.h:126:    NVIC->ICER[((uint32_t)(IRQn) >> 5)] = (1 << ((uint32_t)(IRQn) & 0x1F))
 737              		.loc 2 126 45 view .LVU192
 738 0246 8240     		lsls	r2, r2, r0	@ _6, tmp123, tmp122
 739              	@ ../4-LCD_16x2/Me.h:126:    NVIC->ICER[((uint32_t)(IRQn) >> 5)] = (1 << ((uint32_t)(IRQn) & 0x1F))
 740              		.loc 2 126 40 view .LVU193
 741 0248 2033     		adds	r3, r3, #32	@ tmp125, _5,
 742 024a 41F82320 		str	r2, [r1, r3, lsl #2]	@ _6, MEM[(struct NVIC_Type *)3758153984B].ICER[_5]
 743              	@ ../4-LCD_16x2/Me.h:127: }
 127:../4-LCD_16x2/Me.h **** }
 744              		.loc 2 127 1 view .LVU194
 745 024e 7047     		bx	lr	@
 746              	.L40:
 747              		.align	2
 748              	.L39:
 749 0250 00E100E0 		.word	-536813312
 750              		.cfi_endproc
 751              	.LFE39:
 752              		.size	disable_interrupt, .-disable_interrupt
 753              		.section	.rodata.str1.1
 754              	.LC2:
 755 0019 4C43445F 		.ascii	"LCD_16x2\000"
 755      31367832 
 755      00
 756              	.LC3:
 757 0022 4C45445F 		.ascii	"LED_13\000"
 757      313300
 758              		.section	.text.startup,"ax",%progbits
 759              		.align	1
 760              		.global	main
 761              		.syntax unified
 762              		.thumb
 763              		.thumb_func
 764              		.type	main, %function
 765              	main:
 766              	.LFB43:
  67:../4-LCD_16x2/main.c **** 	}
  68:../4-LCD_16x2/main.c **** }
  69:../4-LCD_16x2/main.c **** 
  70:../4-LCD_16x2/main.c **** static void task3(void *args __attribute ((unused))){
  71:../4-LCD_16x2/main.c **** 	while(1){
  72:../4-LCD_16x2/main.c **** 	}
  73:../4-LCD_16x2/main.c **** }
  74:../4-LCD_16x2/main.c **** 
ARM GAS  /tmp/ccTiGcp2.s 			page 19


  75:../4-LCD_16x2/main.c **** int main(void) {
 767              		.loc 1 75 16 is_stmt 1 view -0
 768              		.cfi_startproc
 769              		@ Volatile: function does not return.
 770              		@ args = 0, pretend = 0, frame = 0
 771              		@ frame_needed = 0, uses_anonymous_args = 0
  76:../4-LCD_16x2/main.c **** 	xQueue = xQueueCreate(5 /* Tamanho máximo da fila. */,
 772              		.loc 1 76 2 view .LVU196
 773              	@ ../4-LCD_16x2/main.c:82: 	xTaskCreate(task1,"LCD_16x2", 100 ,NULL, 4 ,NULL);
  77:../4-LCD_16x2/main.c **** 								sizeof(u32) /* Largura máxima da fila. */);
  78:../4-LCD_16x2/main.c **** 
  79:../4-LCD_16x2/main.c **** 	set_system_clock_to_72Mhz();
  80:../4-LCD_16x2/main.c **** //	enable_TIM3_delay();
  81:../4-LCD_16x2/main.c **** 
  82:../4-LCD_16x2/main.c **** 	xTaskCreate(task1,"LCD_16x2", 100 ,NULL, 4 ,NULL);
 774              		.loc 1 82 2 is_stmt 0 view .LVU197
 775 0000 0024     		movs	r4, #0	@ tmp117,
 776 0002 0425     		movs	r5, #4	@ tmp118,
 777              	@ ../4-LCD_16x2/main.c:75: int main(void) {
  75:../4-LCD_16x2/main.c **** 	xQueue = xQueueCreate(5 /* Tamanho máximo da fila. */,
 778              		.loc 1 75 16 view .LVU198
 779 0004 07B5     		push	{r0, r1, r2, lr}	@
 780              	.LCFI5:
 781              		.cfi_def_cfa_offset 16
 782              		.cfi_offset 14, -4
 783              	@ ../4-LCD_16x2/main.c:76: 	xQueue = xQueueCreate(5 /* Tamanho máximo da fila. */,
  76:../4-LCD_16x2/main.c **** 	xQueue = xQueueCreate(5 /* Tamanho máximo da fila. */,
 784              		.loc 1 76 11 view .LVU199
 785 0006 0022     		movs	r2, #0	@,
 786 0008 0421     		movs	r1, #4	@,
 787 000a 0520     		movs	r0, #5	@,
 788 000c FFF7FEFF 		bl	xQueueGenericCreate		@
 789              	.LVL17:
  79:../4-LCD_16x2/main.c **** //	enable_TIM3_delay();
 790              		.loc 1 79 2 is_stmt 1 view .LVU200
 791 0010 FFF7FEFF 		bl	set_system_clock_to_72Mhz		@
 792              	.LVL18:
 793              		.loc 1 82 2 view .LVU201
 794 0014 0948     		ldr	r0, .L43	@,
 795 0016 2346     		mov	r3, r4	@, tmp117
 796 0018 6422     		movs	r2, #100	@,
 797 001a 0949     		ldr	r1, .L43+4	@,
 798 001c CDE90054 		strd	r5, r4, [sp]	@ tmp118, tmp117,
 799 0020 FFF7FEFF 		bl	xTaskCreate		@
 800              	.LVL19:
  83:../4-LCD_16x2/main.c **** 	xTaskCreate(task2, "LED_13", 100 , NULL, 4 , NULL);
 801              		.loc 1 83 2 view .LVU202
 802 0024 2346     		mov	r3, r4	@, tmp117
 803 0026 6422     		movs	r2, #100	@,
 804 0028 0649     		ldr	r1, .L43+8	@,
 805 002a CDE90054 		strd	r5, r4, [sp]	@ tmp118, tmp117,
 806 002e 0648     		ldr	r0, .L43+12	@,
 807 0030 FFF7FEFF 		bl	xTaskCreate		@
 808              	.LVL20:
  84:../4-LCD_16x2/main.c **** 	//xTaskCreate(task3, "3", 100 , NULL, 4 , NULL);
  85:../4-LCD_16x2/main.c **** 
  86:../4-LCD_16x2/main.c **** 	vTaskStartScheduler(); // inicia o escalonador de
ARM GAS  /tmp/ccTiGcp2.s 			page 20


 809              		.loc 1 86 2 view .LVU203
 810 0034 FFF7FEFF 		bl	vTaskStartScheduler		@
 811              	.LVL21:
 812              	.L42:
  87:../4-LCD_16x2/main.c **** 								  // processos.
  88:../4-LCD_16x2/main.c **** 	while(1);
 813              		.loc 1 88 2 view .LVU204
 814              		.loc 1 88 7 view .LVU205
 815 0038 FEE7     		b	.L42		@
 816              	.L44:
 817 003a 00BF     		.align	2
 818              	.L43:
 819 003c 00000000 		.word	task1
 820 0040 19000000 		.word	.LC2
 821 0044 22000000 		.word	.LC3
 822 0048 00000000 		.word	task2
 823              		.cfi_endproc
 824              	.LFE43:
 825              		.size	main, .-main
 826              		.text
 827              	.Letext0:
 828              		.file 3 "/usr/arm-none-eabi/include/machine/_default_types.h"
 829              		.file 4 "/usr/arm-none-eabi/include/sys/_stdint.h"
 830              		.file 5 "../freertos/include/projdefs.h"
 831              		.file 6 "../freertos/portable/GCC/ARM_CM3/portmacro.h"
 832              		.file 7 "../freertos/include/task.h"
 833              		.file 8 "../freertos/include/queue.h"
 834              		.file 9 "../stm32f10x_lib/CMSIS/CM3/DeviceSupport/ST/STM32F10x/stm32f10x.h"
 835              		.file 10 "../stm32f10x_lib/CMSIS/CM3/CoreSupport/core_cm3.h"
 836              		.file 11 "../4-LCD_16x2/myLcd.h"