ARM GAS  /tmp/ccgcInBj.s 			page 1


   1              		.cpu cortex-m3
   2              		.arch armv7-m
   3              		.fpu softvfp
   4              		.eabi_attribute 20, 1	@ Tag_ABI_FP_denormal
   5              		.eabi_attribute 21, 1	@ Tag_ABI_FP_exceptions
   6              		.eabi_attribute 23, 3	@ Tag_ABI_FP_number_model
   7              		.eabi_attribute 24, 1	@ Tag_ABI_align8_needed
   8              		.eabi_attribute 25, 1	@ Tag_ABI_align8_preserved
   9              		.eabi_attribute 26, 1	@ Tag_ABI_enum_size
  10              		.eabi_attribute 30, 4	@ Tag_ABI_optimization_goals
  11              		.eabi_attribute 34, 1	@ Tag_CPU_unaligned_access
  12              		.eabi_attribute 18, 4	@ Tag_ABI_PCS_wchar_t
  13              		.file	"main.c"
  14              	@ GNU C17 (GNU Arm Embedded Toolchain 10.3-2021.10) version 10.3.1 20210824 (release) (arm-none-eab
  15              	@	compiled by GNU C version 4.8.4, GMP version 6.1.0, MPFR version 3.1.4, MPC version 1.0.3, isl ve
  16              	
  17              	@ GGC heuristics: --param ggc-min-expand=100 --param ggc-min-heapsize=131072
  18              	@ options passed:  -I . -I ../6-infRed
  19              	@ -I ../stm32f10x_lib/CMSIS/CM3/CoreSupport
  20              	@ -I ../stm32f10x_lib/CMSIS/CM3/DeviceSupport/ST/STM32F10x
  21              	@ -I ../stm32f10x_lib/STM32F10x_StdPeriph_Driver/inc
  22              	@ -I ../stm32f10x_lib/STM32F10x_StdPeriph_Driver -I ../freertos/include
  23              	@ -I ../freertos/portable/GCC/ARM_CM3 -imultilib thumb/v7-m/nofp
  24              	@ -iprefix /usr/bin/../lib/gcc/arm-none-eabi/10.3.1/
  25              	@ -isysroot /usr/bin/../arm-none-eabi -D__USES_INITFINI__ -D STM32F10X_MD
  26              	@ -D USE_STDPERIPH_DRIVER -D HSE_VALUE=8000000 -D RUN_FROM_FLASH=1
  27              	@ ../6-infRed/main.c -mcpu=cortex-m3 -mthumb -mfloat-abi=soft
  28              	@ -mlibarch=armv7-m -march=armv7-m -auxbase-strip ../6-infRed/main.o -g
  29              	@ -gdwarf-2 -Os -Wall -fomit-frame-pointer -fverbose-asm
  30              	@ options enabled:  -faggressive-loop-optimizations -fallocation-dce
  31              	@ -fauto-inc-dec -fbranch-count-reg -fcaller-saves -fcode-hoisting
  32              	@ -fcombine-stack-adjustments -fcompare-elim -fcprop-registers
  33              	@ -fcrossjumping -fcse-follow-jumps -fdefer-pop
  34              	@ -fdelete-null-pointer-checks -fdevirtualize -fdevirtualize-speculatively
  35              	@ -fdwarf2-cfi-asm -fearly-inlining -feliminate-unused-debug-symbols
  36              	@ -feliminate-unused-debug-types -fexpensive-optimizations
  37              	@ -fforward-propagate -ffp-int-builtin-inexact -ffunction-cse -fgcse
  38              	@ -fgcse-lm -fgnu-unique -fguess-branch-probability -fhoist-adjacent-loads
  39              	@ -fident -fif-conversion -fif-conversion2 -findirect-inlining -finline
  40              	@ -finline-atomics -finline-functions -finline-functions-called-once
  41              	@ -finline-small-functions -fipa-bit-cp -fipa-cp -fipa-icf
  42              	@ -fipa-icf-functions -fipa-icf-variables -fipa-profile -fipa-pure-const
  43              	@ -fipa-ra -fipa-reference -fipa-reference-addressable -fipa-sra
  44              	@ -fipa-stack-alignment -fipa-vrp -fira-hoist-pressure
  45              	@ -fira-share-save-slots -fira-share-spill-slots
  46              	@ -fisolate-erroneous-paths-dereference -fivopts -fkeep-static-consts
  47              	@ -fleading-underscore -flifetime-dse -flra-remat -fmath-errno
  48              	@ -fmerge-constants -fmerge-debug-strings -fmove-loop-invariants
  49              	@ -fomit-frame-pointer -foptimize-sibling-calls -fpartial-inlining
  50              	@ -fpeephole -fpeephole2 -fplt -fprefetch-loop-arrays -freg-struct-return
  51              	@ -freorder-blocks -freorder-functions -frerun-cse-after-loop
  52              	@ -fsched-critical-path-heuristic -fsched-dep-count-heuristic
  53              	@ -fsched-group-heuristic -fsched-interblock -fsched-last-insn-heuristic
  54              	@ -fsched-pressure -fsched-rank-heuristic -fsched-spec
  55              	@ -fsched-spec-insn-heuristic -fsched-stalled-insns-dep -fschedule-insns2
  56              	@ -fsection-anchors -fsemantic-interposition -fshow-column
  57              	@ -fshrink-wrap-separate -fsigned-zeros -fsplit-ivs-in-unroller
ARM GAS  /tmp/ccgcInBj.s 			page 2


  58              	@ -fsplit-wide-types -fssa-backprop -fssa-phiopt -fstdarg-opt
  59              	@ -fstore-merging -fstrict-aliasing -fstrict-volatile-bitfields
  60              	@ -fsync-libcalls -fthread-jumps -ftoplevel-reorder -ftrapping-math
  61              	@ -ftree-bit-ccp -ftree-builtin-call-dce -ftree-ccp -ftree-ch
  62              	@ -ftree-coalesce-vars -ftree-copy-prop -ftree-cselim -ftree-dce
  63              	@ -ftree-dominator-opts -ftree-dse -ftree-forwprop -ftree-fre
  64              	@ -ftree-loop-distribute-patterns -ftree-loop-if-convert -ftree-loop-im
  65              	@ -ftree-loop-ivcanon -ftree-loop-optimize -ftree-parallelize-loops=
  66              	@ -ftree-phiprop -ftree-pre -ftree-pta -ftree-reassoc -ftree-scev-cprop
  67              	@ -ftree-sink -ftree-slsr -ftree-sra -ftree-switch-conversion
  68              	@ -ftree-tail-merge -ftree-ter -ftree-vrp -funit-at-a-time -fvar-tracking
  69              	@ -fvar-tracking-assignments -fverbose-asm -fzero-initialized-in-bss
  70              	@ -masm-syntax-unified -mbe32 -mfix-cortex-m3-ldrd -mlittle-endian
  71              	@ -mpic-data-is-text-relative -msched-prolog -mthumb -munaligned-access
  72              	@ -mvectorize-with-neon-quad
  73              	
  74              		.text
  75              	.Ltext0:
  76              		.cfi_sections	.debug_frame
  77              		.align	1
  78              		.syntax unified
  79              		.thumb
  80              		.thumb_func
  81              		.type	task2, %function
  82              	task2:
  83              	.LVL0:
  84              	.LFB45:
  85              		.file 1 "../6-infRed/main.c"
   1:../6-infRed/main.c **** /*
   2:../6-infRed/main.c ****  * Projeto LCD
   3:../6-infRed/main.c ****  *		Modificações necessárias: 
   4:../6-infRed/main.c ****  *		  FreeRTOSConfig:
   5:../6-infRed/main.c ****  *			 TICK_RATE_HZ definido em (100000)Hz -> 1µs
   6:../6-infRed/main.c ****  *
   7:../6-infRed/main.c ****  *	Clock do sistema: 
   8:../6-infRed/main.c ****  *		72Mhz
   9:../6-infRed/main.c ****  *	
  10:../6-infRed/main.c ****  *	Lib construída para Arduíno UNO:
  11:../6-infRed/main.c ****  *		myLcd.h
  12:../6-infRed/main.c ****  *			#define delayMicroseconds(X)   vTaskDelay(X)
  13:../6-infRed/main.c ****  *			#define delay(X)  vTaskDelay(X)
  14:../6-infRed/main.c ****  *
  15:../6-infRed/main.c ****  * */
  16:../6-infRed/main.c **** 
  17:../6-infRed/main.c **** // FreeRTOS: 
  18:../6-infRed/main.c **** #include "FreeRTOS.h"
  19:../6-infRed/main.c **** #include "queue.h"
  20:../6-infRed/main.c **** #include "task.h"
  21:../6-infRed/main.c **** 
  22:../6-infRed/main.c **** #define __delay_ms( TEMPO ) vTaskDelay(pdMS_TO_TICKS( TEMPO ))
  23:../6-infRed/main.c **** #define __delay( TEMPO ) vTaskDelay( TEMPO )
  24:../6-infRed/main.c **** 
  25:../6-infRed/main.c **** #include <string.h>
  26:../6-infRed/main.c **** #include <stdlib.h>
  27:../6-infRed/main.c **** 
  28:../6-infRed/main.c **** // LCD 16x2
  29:../6-infRed/main.c **** #include "stm32f10x.h"
ARM GAS  /tmp/ccgcInBj.s 			page 3


  30:../6-infRed/main.c **** #include "Me.h"
  31:../6-infRed/main.c **** #include "myLcd.h"
  32:../6-infRed/main.c **** 
  33:../6-infRed/main.c **** #include "infraRed.h"
  34:../6-infRed/main.c **** #include "Serial.h"
  35:../6-infRed/main.c **** 
  36:../6-infRed/main.c **** static QueueHandle_t LCD_queue ; 
  37:../6-infRed/main.c **** 
  38:../6-infRed/main.c **** static void task1(void *args __attribute((unused))) {
  39:../6-infRed/main.c **** 	RCC->APB2ENR |= (1<<2);
  40:../6-infRed/main.c **** 	GPIOA->CRL	 = 0x33333300; // Hab PA(2-7) out PP
  41:../6-infRed/main.c **** 
  42:../6-infRed/main.c ****   set_bit(IO,RS);
  43:../6-infRed/main.c ****   set_bit(IO,RS);
  44:../6-infRed/main.c ****   set_bit(IO,EN);
  45:../6-infRed/main.c ****   set_bit(IO,D4);
  46:../6-infRed/main.c ****   set_bit(IO,D5);
  47:../6-infRed/main.c ****   set_bit(IO,D6);
  48:../6-infRed/main.c ****   set_bit(IO,D7);
  49:../6-infRed/main.c **** 
  50:../6-infRed/main.c ****   disp_init();
  51:../6-infRed/main.c ****   disp_cmd(0x0C);
  52:../6-infRed/main.c **** 
  53:../6-infRed/main.c ****   disp_text("abcdABCDEF012",0,0);
  54:../6-infRed/main.c ****   u8 cont = (char) 1;
  55:../6-infRed/main.c **** 	while(1){
  56:../6-infRed/main.c **** 
  57:../6-infRed/main.c **** 		cont &= 0xffff;
  58:../6-infRed/main.c **** 		cont ++;
  59:../6-infRed/main.c **** 		disp_text("CONTADOR: ", 1, 0);
  60:../6-infRed/main.c **** 		disp_number( cont, 1, 11);
  61:../6-infRed/main.c **** 		__delay_ms(1000);
  62:../6-infRed/main.c **** 		
  63:../6-infRed/main.c **** 	}
  64:../6-infRed/main.c **** }
  65:../6-infRed/main.c **** 
  66:../6-infRed/main.c **** static void task2(void *args __attribute ((unused))){
  86              		.loc 1 66 53 view -0
  87              		.cfi_startproc
  88              		@ Volatile: function does not return.
  89              		@ args = 0, pretend = 0, frame = 0
  90              		@ frame_needed = 0, uses_anonymous_args = 0
  67:../6-infRed/main.c **** 	RCC->APB2ENR |= (1<<4); // En GPIOC
  91              		.loc 1 67 2 view .LVU1
  92              	@ ../6-infRed/main.c:67: 	RCC->APB2ENR |= (1<<4); // En GPIOC
  93              		.loc 1 67 15 is_stmt 0 view .LVU2
  94 0000 094A     		ldr	r2, .L3	@ tmp120,
  95              	@ ../6-infRed/main.c:66: static void task2(void *args __attribute ((unused))){
  66:../6-infRed/main.c **** 	RCC->APB2ENR |= (1<<4); // En GPIOC
  96              		.loc 1 66 53 view .LVU3
  97 0002 08B5     		push	{r3, lr}	@
  98              	.LCFI0:
  99              		.cfi_def_cfa_offset 8
 100              		.cfi_offset 3, -8
 101              		.cfi_offset 14, -4
 102              	@ ../6-infRed/main.c:67: 	RCC->APB2ENR |= (1<<4); // En GPIOC
 103              		.loc 1 67 15 view .LVU4
ARM GAS  /tmp/ccgcInBj.s 			page 4


 104 0004 9369     		ldr	r3, [r2, #24]	@ _1, MEM[(struct RCC_TypeDef *)1073876992B].APB2ENR
 105              	@ ../6-infRed/main.c:68: 	GPIOC->CRH	|= (0b11<< 20); // PC13 out PP 
  68:../6-infRed/main.c **** 	GPIOC->CRH	|= (0b11<< 20); // PC13 out PP 
 106              		.loc 1 68 13 view .LVU5
 107 0006 094C     		ldr	r4, .L3+4	@ tmp122,
 108              	@ ../6-infRed/main.c:67: 	RCC->APB2ENR |= (1<<4); // En GPIOC
  67:../6-infRed/main.c **** 	RCC->APB2ENR |= (1<<4); // En GPIOC
 109              		.loc 1 67 15 view .LVU6
 110 0008 43F01003 		orr	r3, r3, #16	@ _2, _1,
 111 000c 9361     		str	r3, [r2, #24]	@ _2, MEM[(struct RCC_TypeDef *)1073876992B].APB2ENR
 112              		.loc 1 68 2 is_stmt 1 view .LVU7
 113              	@ ../6-infRed/main.c:68: 	GPIOC->CRH	|= (0b11<< 20); // PC13 out PP 
 114              		.loc 1 68 13 is_stmt 0 view .LVU8
 115 000e 6368     		ldr	r3, [r4, #4]	@ _3, MEM[(struct GPIO_TypeDef *)1073811456B].CRH
 116 0010 43F44013 		orr	r3, r3, #3145728	@ _4, _3,
 117 0014 6360     		str	r3, [r4, #4]	@ _4, MEM[(struct GPIO_TypeDef *)1073811456B].CRH
 118              	.LVL1:
 119              	.L2:
  69:../6-infRed/main.c **** 
  70:../6-infRed/main.c **** 	while(1){
 120              		.loc 1 70 2 is_stmt 1 discriminator 1 view .LVU9
  71:../6-infRed/main.c **** 		GPIOC->ODR	^= (1<<13);
 121              		.loc 1 71 3 discriminator 1 view .LVU10
 122              	@ ../6-infRed/main.c:71: 		GPIOC->ODR	^= (1<<13);
 123              		.loc 1 71 14 is_stmt 0 discriminator 1 view .LVU11
 124 0016 E368     		ldr	r3, [r4, #12]	@ _5, MEM[(struct GPIO_TypeDef *)1073811456B].ODR
 125              	@ ../6-infRed/main.c:72: 		__delay_ms(50);
  72:../6-infRed/main.c **** 		__delay_ms(50);
 126              		.loc 1 72 3 discriminator 1 view .LVU12
 127 0018 41F28830 		movw	r0, #5000	@,
 128              	@ ../6-infRed/main.c:71: 		GPIOC->ODR	^= (1<<13);
  71:../6-infRed/main.c **** 		GPIOC->ODR	^= (1<<13);
 129              		.loc 1 71 14 discriminator 1 view .LVU13
 130 001c 83F40053 		eor	r3, r3, #8192	@ _6, _5,
 131 0020 E360     		str	r3, [r4, #12]	@ _6, MEM[(struct GPIO_TypeDef *)1073811456B].ODR
 132              		.loc 1 72 3 is_stmt 1 discriminator 1 view .LVU14
 133 0022 FFF7FEFF 		bl	vTaskDelay		@
 134              	.LVL2:
  70:../6-infRed/main.c **** 		GPIOC->ODR	^= (1<<13);
 135              		.loc 1 70 7 discriminator 1 view .LVU15
 136 0026 F6E7     		b	.L2		@
 137              	.L4:
 138              		.align	2
 139              	.L3:
 140 0028 00100240 		.word	1073876992
 141 002c 00100140 		.word	1073811456
 142              		.cfi_endproc
 143              	.LFE45:
 144              		.size	task2, .-task2
 145              		.section	.rodata.str1.1,"aMS",%progbits,1
 146              	.LC0:
 147 0000 61626364 		.ascii	"abcdABCDEF012\000"
 147      41424344 
 147      45463031 
 147      3200
 148              	.LC1:
 149 000e 434F4E54 		.ascii	"CONTADOR: \000"
ARM GAS  /tmp/ccgcInBj.s 			page 5


 149      41444F52 
 149      3A2000
 150              		.text
 151              		.align	1
 152              		.syntax unified
 153              		.thumb
 154              		.thumb_func
 155              		.type	task1, %function
 156              	task1:
 157              	.LVL3:
 158              	.LFB44:
  38:../6-infRed/main.c **** 	RCC->APB2ENR |= (1<<2);
 159              		.loc 1 38 53 view -0
 160              		.cfi_startproc
 161              		@ args = 0, pretend = 0, frame = 0
 162              		@ frame_needed = 0, uses_anonymous_args = 0
  39:../6-infRed/main.c **** 	GPIOA->CRL	 = 0x33333300; // Hab PA(2-7) out PP
 163              		.loc 1 39 2 view .LVU17
 164              	@ ../6-infRed/main.c:39: 	RCC->APB2ENR |= (1<<2);
  39:../6-infRed/main.c **** 	GPIOA->CRL	 = 0x33333300; // Hab PA(2-7) out PP
 165              		.loc 1 39 15 is_stmt 0 view .LVU18
 166 0030 204A     		ldr	r2, .L7	@ tmp132,
 167              	@ ../6-infRed/main.c:38: static void task1(void *args __attribute((unused))) {
  38:../6-infRed/main.c **** 	RCC->APB2ENR |= (1<<2);
 168              		.loc 1 38 53 view .LVU19
 169 0032 70B5     		push	{r4, r5, r6, lr}	@
 170              	.LCFI1:
 171              		.cfi_def_cfa_offset 16
 172              		.cfi_offset 4, -16
 173              		.cfi_offset 5, -12
 174              		.cfi_offset 6, -8
 175              		.cfi_offset 14, -4
 176              	@ ../6-infRed/main.c:39: 	RCC->APB2ENR |= (1<<2);
  39:../6-infRed/main.c **** 	GPIOA->CRL	 = 0x33333300; // Hab PA(2-7) out PP
 177              		.loc 1 39 15 view .LVU20
 178 0034 9369     		ldr	r3, [r2, #24]	@ _1, MEM[(struct RCC_TypeDef *)1073876992B].APB2ENR
 179              	@ ../6-infRed/main.c:54:   u8 cont = (char) 1;
  54:../6-infRed/main.c **** 	while(1){
 180              		.loc 1 54 6 view .LVU21
 181 0036 0124     		movs	r4, #1	@ cont,
 182              	@ ../6-infRed/main.c:39: 	RCC->APB2ENR |= (1<<2);
  39:../6-infRed/main.c **** 	GPIOA->CRL	 = 0x33333300; // Hab PA(2-7) out PP
 183              		.loc 1 39 15 view .LVU22
 184 0038 43F00403 		orr	r3, r3, #4	@ _2, _1,
 185 003c 9361     		str	r3, [r2, #24]	@ _2, MEM[(struct RCC_TypeDef *)1073876992B].APB2ENR
  40:../6-infRed/main.c **** 
 186              		.loc 1 40 2 is_stmt 1 view .LVU23
 187              	@ ../6-infRed/main.c:40: 	GPIOA->CRL	 = 0x33333300; // Hab PA(2-7) out PP
  40:../6-infRed/main.c **** 
 188              		.loc 1 40 14 is_stmt 0 view .LVU24
 189 003e 1E4B     		ldr	r3, .L7+4	@ tmp134,
 190 0040 1E4A     		ldr	r2, .L7+8	@ tmp135,
 191              	@ ../6-infRed/main.c:59: 		disp_text("CONTADOR: ", 1, 0);
  59:../6-infRed/main.c **** 		disp_number( cont, 1, 11);
 192              		.loc 1 59 3 view .LVU25
 193 0042 1F4E     		ldr	r6, .L7+12	@ tmp155,
 194              	@ ../6-infRed/main.c:40: 	GPIOA->CRL	 = 0x33333300; // Hab PA(2-7) out PP
ARM GAS  /tmp/ccgcInBj.s 			page 6


  40:../6-infRed/main.c **** 
 195              		.loc 1 40 14 view .LVU26
 196 0044 1A60     		str	r2, [r3]	@ tmp135, MEM[(struct GPIO_TypeDef *)1073809408B].CRL
  42:../6-infRed/main.c ****   set_bit(IO,RS);
 197              		.loc 1 42 3 is_stmt 1 view .LVU27
 198 0046 DA68     		ldr	r2, [r3, #12]	@ _3, MEM[(struct GPIO_TypeDef *)1073809408B].ODR
 199              	@ ../6-infRed/main.c:61: 		__delay_ms(1000);
  61:../6-infRed/main.c **** 		
 200              		.loc 1 61 3 is_stmt 0 view .LVU28
 201 0048 1E4D     		ldr	r5, .L7+16	@ tmp156,
 202              	@ ../6-infRed/main.c:42:   set_bit(IO,RS);
  42:../6-infRed/main.c ****   set_bit(IO,RS);
 203              		.loc 1 42 3 view .LVU29
 204 004a 42F08002 		orr	r2, r2, #128	@ _4, _3,
 205 004e DA60     		str	r2, [r3, #12]	@ _4, MEM[(struct GPIO_TypeDef *)1073809408B].ODR
  43:../6-infRed/main.c ****   set_bit(IO,EN);
 206              		.loc 1 43 3 is_stmt 1 view .LVU30
 207 0050 DA68     		ldr	r2, [r3, #12]	@ _5, MEM[(struct GPIO_TypeDef *)1073809408B].ODR
 208 0052 42F08002 		orr	r2, r2, #128	@ _6, _5,
 209 0056 DA60     		str	r2, [r3, #12]	@ _6, MEM[(struct GPIO_TypeDef *)1073809408B].ODR
  44:../6-infRed/main.c ****   set_bit(IO,D4);
 210              		.loc 1 44 3 view .LVU31
 211 0058 DA68     		ldr	r2, [r3, #12]	@ _7, MEM[(struct GPIO_TypeDef *)1073809408B].ODR
 212 005a 42F04002 		orr	r2, r2, #64	@ _8, _7,
 213 005e DA60     		str	r2, [r3, #12]	@ _8, MEM[(struct GPIO_TypeDef *)1073809408B].ODR
  45:../6-infRed/main.c ****   set_bit(IO,D5);
 214              		.loc 1 45 3 view .LVU32
 215 0060 DA68     		ldr	r2, [r3, #12]	@ _9, MEM[(struct GPIO_TypeDef *)1073809408B].ODR
 216 0062 42F02002 		orr	r2, r2, #32	@ _10, _9,
 217 0066 DA60     		str	r2, [r3, #12]	@ _10, MEM[(struct GPIO_TypeDef *)1073809408B].ODR
  46:../6-infRed/main.c ****   set_bit(IO,D6);
 218              		.loc 1 46 3 view .LVU33
 219 0068 DA68     		ldr	r2, [r3, #12]	@ _11, MEM[(struct GPIO_TypeDef *)1073809408B].ODR
 220 006a 42F01002 		orr	r2, r2, #16	@ _12, _11,
 221 006e DA60     		str	r2, [r3, #12]	@ _12, MEM[(struct GPIO_TypeDef *)1073809408B].ODR
  47:../6-infRed/main.c ****   set_bit(IO,D7);
 222              		.loc 1 47 3 view .LVU34
 223 0070 DA68     		ldr	r2, [r3, #12]	@ _13, MEM[(struct GPIO_TypeDef *)1073809408B].ODR
 224 0072 42F00802 		orr	r2, r2, #8	@ _14, _13,
 225 0076 DA60     		str	r2, [r3, #12]	@ _14, MEM[(struct GPIO_TypeDef *)1073809408B].ODR
  48:../6-infRed/main.c **** 
 226              		.loc 1 48 3 view .LVU35
 227 0078 DA68     		ldr	r2, [r3, #12]	@ _15, MEM[(struct GPIO_TypeDef *)1073809408B].ODR
 228 007a 42F00402 		orr	r2, r2, #4	@ _16, _15,
 229 007e DA60     		str	r2, [r3, #12]	@ _16, MEM[(struct GPIO_TypeDef *)1073809408B].ODR
  50:../6-infRed/main.c ****   disp_cmd(0x0C);
 230              		.loc 1 50 3 view .LVU36
 231 0080 FFF7FEFF 		bl	disp_init		@
 232              	.LVL4:
  51:../6-infRed/main.c **** 
 233              		.loc 1 51 3 view .LVU37
 234 0084 0C20     		movs	r0, #12	@,
 235 0086 FFF7FEFF 		bl	disp_cmd		@
 236              	.LVL5:
  53:../6-infRed/main.c ****   u8 cont = (char) 1;
 237              		.loc 1 53 3 view .LVU38
 238 008a 0022     		movs	r2, #0	@,
ARM GAS  /tmp/ccgcInBj.s 			page 7


 239 008c 0E48     		ldr	r0, .L7+20	@,
 240 008e 1146     		mov	r1, r2	@,
 241 0090 FFF7FEFF 		bl	disp_text		@
 242              	.LVL6:
  54:../6-infRed/main.c **** 	while(1){
 243              		.loc 1 54 3 view .LVU39
 244              	.L6:
  55:../6-infRed/main.c **** 
 245              		.loc 1 55 2 discriminator 1 view .LVU40
  57:../6-infRed/main.c **** 		cont ++;
 246              		.loc 1 57 3 discriminator 1 view .LVU41
  58:../6-infRed/main.c **** 		disp_text("CONTADOR: ", 1, 0);
 247              		.loc 1 58 3 discriminator 1 view .LVU42
 248              	@ ../6-infRed/main.c:58: 		cont ++;
  58:../6-infRed/main.c **** 		disp_text("CONTADOR: ", 1, 0);
 249              		.loc 1 58 8 is_stmt 0 discriminator 1 view .LVU43
 250 0094 0134     		adds	r4, r4, #1	@ tmp151, cont,
 251              	.LVL7:
 252              	@ ../6-infRed/main.c:59: 		disp_text("CONTADOR: ", 1, 0);
  59:../6-infRed/main.c **** 		disp_number( cont, 1, 11);
 253              		.loc 1 59 3 discriminator 1 view .LVU44
 254 0096 3046     		mov	r0, r6	@, tmp155
 255 0098 0022     		movs	r2, #0	@,
 256 009a 0121     		movs	r1, #1	@,
 257              	@ ../6-infRed/main.c:58: 		cont ++;
  58:../6-infRed/main.c **** 		disp_text("CONTADOR: ", 1, 0);
 258              		.loc 1 58 8 discriminator 1 view .LVU45
 259 009c E4B2     		uxtb	r4, r4	@ cont, tmp151
 260              	.LVL8:
  59:../6-infRed/main.c **** 		disp_number( cont, 1, 11);
 261              		.loc 1 59 3 is_stmt 1 discriminator 1 view .LVU46
 262 009e FFF7FEFF 		bl	disp_text		@
 263              	.LVL9:
  60:../6-infRed/main.c **** 		__delay_ms(1000);
 264              		.loc 1 60 3 discriminator 1 view .LVU47
 265 00a2 2046     		mov	r0, r4	@, cont
 266 00a4 0B22     		movs	r2, #11	@,
 267 00a6 0121     		movs	r1, #1	@,
 268 00a8 FFF7FEFF 		bl	disp_number		@
 269              	.LVL10:
  61:../6-infRed/main.c **** 		
 270              		.loc 1 61 3 discriminator 1 view .LVU48
 271 00ac 2846     		mov	r0, r5	@, tmp156
 272 00ae FFF7FEFF 		bl	vTaskDelay		@
 273              	.LVL11:
  55:../6-infRed/main.c **** 
 274              		.loc 1 55 7 discriminator 1 view .LVU49
 275 00b2 EFE7     		b	.L6		@
 276              	.L8:
 277              		.align	2
 278              	.L7:
 279 00b4 00100240 		.word	1073876992
 280 00b8 00080140 		.word	1073809408
 281 00bc 00333333 		.word	858993408
 282 00c0 0E000000 		.word	.LC1
 283 00c4 A0860100 		.word	100000
 284 00c8 00000000 		.word	.LC0
ARM GAS  /tmp/ccgcInBj.s 			page 8


 285              		.cfi_endproc
 286              	.LFE44:
 287              		.size	task1, .-task1
 288              		.align	1
 289              		.global	ADC1_configure
 290              		.syntax unified
 291              		.thumb
 292              		.thumb_func
 293              		.type	ADC1_configure, %function
 294              	ADC1_configure:
 295              	.LFB34:
 296              		.file 2 "../6-infRed/Me.h"
   1:../6-infRed/Me.h **** #define __IO volatile
   2:../6-infRed/Me.h **** 
   3:../6-infRed/Me.h **** void SystemInit (void);
   4:../6-infRed/Me.h **** void nvic_IntDisble(u8 IRQn);
   5:../6-infRed/Me.h **** void nvic_intEnable(u8 IRQn);
   6:../6-infRed/Me.h **** void set_system_clock_to_25Mhz (void);
   7:../6-infRed/Me.h **** void set_system_clock_to_72Mhz(void);
   8:../6-infRed/Me.h **** void Delay ( __IO u32 T );
   9:../6-infRed/Me.h **** void enable_TIM3_delay (void);
  10:../6-infRed/Me.h **** void ADC1_configure();
  11:../6-infRed/Me.h **** 
  12:../6-infRed/Me.h **** #define DelayUs(X) Delay(X)
  13:../6-infRed/Me.h **** 
  14:../6-infRed/Me.h **** void ADC1_configure(){
 297              		.loc 2 14 22 view -0
 298              		.cfi_startproc
 299              		@ args = 0, pretend = 0, frame = 0
 300              		@ frame_needed = 0, uses_anonymous_args = 0
 301              		@ link register save eliminated.
  15:../6-infRed/Me.h **** 	RCC->APB2ENR |= 1UL<<2 ; // Hab. GPIOA
 302              		.loc 2 15 2 view .LVU51
 303              	@ ../6-infRed/Me.h:15: 	RCC->APB2ENR |= 1UL<<2 ; // Hab. GPIOA
 304              		.loc 2 15 15 is_stmt 0 view .LVU52
 305 00cc 1F4B     		ldr	r3, .L14	@ tmp141,
 306              	@ ../6-infRed/Me.h:16: 	GPIOA->CRL &= ~(0x0F << 4); // Define A1 Input Analogic
  16:../6-infRed/Me.h **** 	GPIOA->CRL &= ~(0x0F << 4); // Define A1 Input Analogic
 307              		.loc 2 16 13 view .LVU53
 308 00ce 2049     		ldr	r1, .L14+4	@ tmp143,
 309              	@ ../6-infRed/Me.h:15: 	RCC->APB2ENR |= 1UL<<2 ; // Hab. GPIOA
  15:../6-infRed/Me.h **** 	RCC->APB2ENR |= 1UL<<2 ; // Hab. GPIOA
 310              		.loc 2 15 15 view .LVU54
 311 00d0 9A69     		ldr	r2, [r3, #24]	@ _1, MEM[(struct RCC_TypeDef *)1073876992B].APB2ENR
 312 00d2 42F00402 		orr	r2, r2, #4	@ _2, _1,
 313 00d6 9A61     		str	r2, [r3, #24]	@ _2, MEM[(struct RCC_TypeDef *)1073876992B].APB2ENR
 314              		.loc 2 16 2 is_stmt 1 view .LVU55
 315              	@ ../6-infRed/Me.h:16: 	GPIOA->CRL &= ~(0x0F << 4); // Define A1 Input Analogic
 316              		.loc 2 16 13 is_stmt 0 view .LVU56
 317 00d8 0A68     		ldr	r2, [r1]	@ _3, MEM[(struct GPIO_TypeDef *)1073809408B].CRL
 318 00da 22F0F002 		bic	r2, r2, #240	@ _4, _3,
 319 00de 0A60     		str	r2, [r1]	@ _4, MEM[(struct GPIO_TypeDef *)1073809408B].CRL
  17:../6-infRed/Me.h **** 	
  18:../6-infRed/Me.h **** 	RCC->APB2ENR |= (1<<9); // Bit 9 ADC1EN: ADC 1 
 320              		.loc 2 18 2 is_stmt 1 view .LVU57
 321              	@ ../6-infRed/Me.h:18: 	RCC->APB2ENR |= (1<<9); // Bit 9 ADC1EN: ADC 1 
 322              		.loc 2 18 15 is_stmt 0 view .LVU58
ARM GAS  /tmp/ccgcInBj.s 			page 9


 323 00e0 9A69     		ldr	r2, [r3, #24]	@ _5, MEM[(struct RCC_TypeDef *)1073876992B].APB2ENR
 324 00e2 42F40072 		orr	r2, r2, #512	@ _6, _5,
 325 00e6 9A61     		str	r2, [r3, #24]	@ _6, MEM[(struct RCC_TypeDef *)1073876992B].APB2ENR
  19:../6-infRed/Me.h **** 									// interface clock enable
  20:../6-infRed/Me.h **** 
  21:../6-infRed/Me.h **** 	RCC->CFGR	|= (0b10 << 14); // Bits 15:14 ADCPRE:
 326              		.loc 2 21 2 is_stmt 1 view .LVU59
 327              	@ ../6-infRed/Me.h:21: 	RCC->CFGR	|= (0b10 << 14); // Bits 15:14 ADCPRE:
 328              		.loc 2 21 12 is_stmt 0 view .LVU60
 329 00e8 5A68     		ldr	r2, [r3, #4]	@ _7, MEM[(struct RCC_TypeDef *)1073876992B].CFGR
 330 00ea 42F40042 		orr	r2, r2, #32768	@ _8, _7,
 331 00ee 5A60     		str	r2, [r3, #4]	@ _8, MEM[(struct RCC_TypeDef *)1073876992B].CFGR
  22:../6-infRed/Me.h **** 										  // ADC prescaler 10:
  23:../6-infRed/Me.h **** 										  //    PCLK2 divided by 6
  24:../6-infRed/Me.h **** 	// Enable End of Conversion (EOC) interrupt
  25:../6-infRed/Me.h **** 	ADC1->CR1 |= (1 << 5);
 332              		.loc 2 25 2 is_stmt 1 view .LVU61
 333              	@ ../6-infRed/Me.h:25: 	ADC1->CR1 |= (1 << 5);
 334              		.loc 2 25 12 is_stmt 0 view .LVU62
 335 00f0 A3F56C43 		sub	r3, r3, #60416	@ tmp149, tmp149,
 336 00f4 5A68     		ldr	r2, [r3, #4]	@ _9, MEM[(struct ADC_TypeDef *)1073816576B].CR1
 337 00f6 42F02002 		orr	r2, r2, #32	@ _10, _9,
 338 00fa 5A60     		str	r2, [r3, #4]	@ _10, MEM[(struct ADC_TypeDef *)1073816576B].CR1
  26:../6-infRed/Me.h **** 
  27:../6-infRed/Me.h **** 	// One conversion
  28:../6-infRed/Me.h **** 	ADC1->SQR1 = 0x00000000;
 339              		.loc 2 28 2 is_stmt 1 view .LVU63
 340              	@ ../6-infRed/Me.h:28: 	ADC1->SQR1 = 0x00000000;
 341              		.loc 2 28 13 is_stmt 0 view .LVU64
 342 00fc 0022     		movs	r2, #0	@ tmp152,
 343 00fe DA62     		str	r2, [r3, #44]	@ tmp152, MEM[(struct ADC_TypeDef *)1073816576B].SQR1
  29:../6-infRed/Me.h **** 
  30:../6-infRed/Me.h **** 	// Choose the analog channel to read
  31:../6-infRed/Me.h **** 	// Since we want channel 10 to be the first
  32:../6-infRed/Me.h **** 	//   conversion we write 10 to SQ1 bits (3:0)
  33:../6-infRed/Me.h **** 	//   which is in SQR3 register. For multiple conversions
  34:../6-infRed/Me.h **** 	//   keep writing the channel numbers to SQx bits.
  35:../6-infRed/Me.h **** 	 ADC1->SQR3 = (10 << 0);
 344              		.loc 2 35 3 is_stmt 1 view .LVU65
 345              	@ ../6-infRed/Me.h:35: 	 ADC1->SQR3 = (10 << 0);
 346              		.loc 2 35 14 is_stmt 0 view .LVU66
 347 0100 0A22     		movs	r2, #10	@ tmp154,
 348 0102 5A63     		str	r2, [r3, #52]	@ tmp154, MEM[(struct ADC_TypeDef *)1073816576B].SQR3
  36:../6-infRed/Me.h **** 
  37:../6-infRed/Me.h **** 	// Set up software trigger to start conversion
  38:../6-infRed/Me.h **** 	ADC1->CR2 |= (7 << 17);  // Select SWSTART as trigger
 349              		.loc 2 38 2 is_stmt 1 view .LVU67
 350              	@ ../6-infRed/Me.h:38: 	ADC1->CR2 |= (7 << 17);  // Select SWSTART as trigger
 351              		.loc 2 38 12 is_stmt 0 view .LVU68
 352 0104 9A68     		ldr	r2, [r3, #8]	@ _11, MEM[(struct ADC_TypeDef *)1073816576B].CR2
 353 0106 42F46022 		orr	r2, r2, #917504	@ _12, _11,
 354 010a 9A60     		str	r2, [r3, #8]	@ _12, MEM[(struct ADC_TypeDef *)1073816576B].CR2
  39:../6-infRed/Me.h **** 	ADC1->CR2 |= (1 << 20);  // Enable external trigger
 355              		.loc 2 39 2 is_stmt 1 view .LVU69
 356              	@ ../6-infRed/Me.h:39: 	ADC1->CR2 |= (1 << 20);  // Enable external trigger
 357              		.loc 2 39 12 is_stmt 0 view .LVU70
 358 010c 9A68     		ldr	r2, [r3, #8]	@ _13, MEM[(struct ADC_TypeDef *)1073816576B].CR2
ARM GAS  /tmp/ccgcInBj.s 			page 10


 359 010e 42F48012 		orr	r2, r2, #1048576	@ _14, _13,
 360 0112 9A60     		str	r2, [r3, #8]	@ _14, MEM[(struct ADC_TypeDef *)1073816576B].CR2
  40:../6-infRed/Me.h **** 
  41:../6-infRed/Me.h **** 	// Enable continuous conversion
  42:../6-infRed/Me.h **** 	ADC1->CR2 |= (1 << 1);
 361              		.loc 2 42 2 is_stmt 1 view .LVU71
 362              	@ ../6-infRed/Me.h:42: 	ADC1->CR2 |= (1 << 1);
 363              		.loc 2 42 12 is_stmt 0 view .LVU72
 364 0114 9A68     		ldr	r2, [r3, #8]	@ _15, MEM[(struct ADC_TypeDef *)1073816576B].CR2
 365 0116 42F00202 		orr	r2, r2, #2	@ _16, _15,
 366 011a 9A60     		str	r2, [r3, #8]	@ _16, MEM[(struct ADC_TypeDef *)1073816576B].CR2
  43:../6-infRed/Me.h **** 
  44:../6-infRed/Me.h **** 	// enable_interrupt(ADC1_2_IRQn);
  45:../6-infRed/Me.h **** 
  46:../6-infRed/Me.h **** 	// Enable A/D conversion
  47:../6-infRed/Me.h **** 	ADC1->CR2 |= (1 << 0);
 367              		.loc 2 47 2 is_stmt 1 view .LVU73
 368              	@ ../6-infRed/Me.h:47: 	ADC1->CR2 |= (1 << 0);
 369              		.loc 2 47 12 is_stmt 0 view .LVU74
 370 011c 9A68     		ldr	r2, [r3, #8]	@ _17, MEM[(struct ADC_TypeDef *)1073816576B].CR2
 371 011e 42F00102 		orr	r2, r2, #1	@ _18, _17,
 372 0122 9A60     		str	r2, [r3, #8]	@ _18, MEM[(struct ADC_TypeDef *)1073816576B].CR2
  48:../6-infRed/Me.h **** 
  49:../6-infRed/Me.h **** 	// Calibration reset and start
  50:../6-infRed/Me.h **** 	//    Optional for better accuracy.
  51:../6-infRed/Me.h **** 	ADC1->CR2 |= (1 << 3);
 373              		.loc 2 51 2 is_stmt 1 view .LVU75
 374              	@ ../6-infRed/Me.h:51: 	ADC1->CR2 |= (1 << 3);
 375              		.loc 2 51 12 is_stmt 0 view .LVU76
 376 0124 9A68     		ldr	r2, [r3, #8]	@ _19, MEM[(struct ADC_TypeDef *)1073816576B].CR2
 377 0126 42F00802 		orr	r2, r2, #8	@ _20, _19,
 378 012a 9A60     		str	r2, [r3, #8]	@ _20, MEM[(struct ADC_TypeDef *)1073816576B].CR2
  52:../6-infRed/Me.h **** 	while((ADC1->CR2 & (1 << 3)));
 379              		.loc 2 52 2 is_stmt 1 view .LVU77
 380              	.L10:
 381              		.loc 2 52 31 discriminator 1 view .LVU78
 382              		.loc 2 52 7 discriminator 1 view .LVU79
 383              	@ ../6-infRed/Me.h:52: 	while((ADC1->CR2 & (1 << 3)));
 384              		.loc 2 52 13 is_stmt 0 discriminator 1 view .LVU80
 385 012c 9A68     		ldr	r2, [r3, #8]	@ _21, MEM[(struct ADC_TypeDef *)1073816576B].CR2
 386              	@ ../6-infRed/Me.h:52: 	while((ADC1->CR2 & (1 << 3)));
 387              		.loc 2 52 7 discriminator 1 view .LVU81
 388 012e 1107     		lsls	r1, r2, #28	@, _21,
 389 0130 FCD4     		bmi	.L10		@,
  53:../6-infRed/Me.h **** 	ADC1->CR2 |= (1 << 2);
 390              		.loc 2 53 2 is_stmt 1 view .LVU82
 391              	@ ../6-infRed/Me.h:53: 	ADC1->CR2 |= (1 << 2);
 392              		.loc 2 53 12 is_stmt 0 view .LVU83
 393 0132 9A68     		ldr	r2, [r3, #8]	@ _23, MEM[(struct ADC_TypeDef *)1073816576B].CR2
 394 0134 42F00402 		orr	r2, r2, #4	@ _24, _23,
 395 0138 9A60     		str	r2, [r3, #8]	@ _24, MEM[(struct ADC_TypeDef *)1073816576B].CR2
  54:../6-infRed/Me.h **** 	while((ADC1->CR2 & (1 << 2)));
 396              		.loc 2 54 2 is_stmt 1 view .LVU84
 397              	@ ../6-infRed/Me.h:54: 	while((ADC1->CR2 & (1 << 2)));
 398              		.loc 2 54 13 is_stmt 0 view .LVU85
 399 013a 064B     		ldr	r3, .L14+8	@ tmp169,
 400              	.L11:
ARM GAS  /tmp/ccgcInBj.s 			page 11


 401              		.loc 2 54 31 is_stmt 1 discriminator 1 view .LVU86
 402              		.loc 2 54 7 discriminator 1 view .LVU87
 403              	@ ../6-infRed/Me.h:54: 	while((ADC1->CR2 & (1 << 2)));
 404              		.loc 2 54 13 is_stmt 0 discriminator 1 view .LVU88
 405 013c 9A68     		ldr	r2, [r3, #8]	@ _25, MEM[(struct ADC_TypeDef *)1073816576B].CR2
 406              	@ ../6-infRed/Me.h:54: 	while((ADC1->CR2 & (1 << 2)));
 407              		.loc 2 54 7 discriminator 1 view .LVU89
 408 013e 5207     		lsls	r2, r2, #29	@, _25,
 409 0140 FCD4     		bmi	.L11		@,
  55:../6-infRed/Me.h **** 
  56:../6-infRed/Me.h **** 	// Start conversion with software trigger
  57:../6-infRed/Me.h **** 	ADC1->CR2 |= (1<<22);
 410              		.loc 2 57 2 is_stmt 1 view .LVU90
 411              	@ ../6-infRed/Me.h:57: 	ADC1->CR2 |= (1<<22);
 412              		.loc 2 57 12 is_stmt 0 view .LVU91
 413 0142 9A68     		ldr	r2, [r3, #8]	@ _27, MEM[(struct ADC_TypeDef *)1073816576B].CR2
 414 0144 42F48002 		orr	r2, r2, #4194304	@ _28, _27,
 415 0148 9A60     		str	r2, [r3, #8]	@ _28, MEM[(struct ADC_TypeDef *)1073816576B].CR2
 416              	@ ../6-infRed/Me.h:60: }
  58:../6-infRed/Me.h **** 	//
  59:../6-infRed/Me.h **** 	// Leitura  ADC1->DR  -> Data Register
  60:../6-infRed/Me.h **** }
 417              		.loc 2 60 1 view .LVU92
 418 014a 7047     		bx	lr	@
 419              	.L15:
 420              		.align	2
 421              	.L14:
 422 014c 00100240 		.word	1073876992
 423 0150 00080140 		.word	1073809408
 424 0154 00240140 		.word	1073816576
 425              		.cfi_endproc
 426              	.LFE34:
 427              		.size	ADC1_configure, .-ADC1_configure
 428              		.align	1
 429              		.global	set_system_clock_to_72Mhz
 430              		.syntax unified
 431              		.thumb
 432              		.thumb_func
 433              		.type	set_system_clock_to_72Mhz, %function
 434              	set_system_clock_to_72Mhz:
 435              	.LFB35:
  61:../6-infRed/Me.h **** 
  62:../6-infRed/Me.h **** void set_system_clock_to_72Mhz(void)
  63:../6-infRed/Me.h **** {
 436              		.loc 2 63 1 is_stmt 1 view -0
 437              		.cfi_startproc
 438              		@ args = 0, pretend = 0, frame = 0
 439              		@ frame_needed = 0, uses_anonymous_args = 0
 440              		@ link register save eliminated.
  64:../6-infRed/Me.h ****    // Necessary wait states for Flash for high speeds
  65:../6-infRed/Me.h ****    FLASH->ACR = 0x12;
 441              		.loc 2 65 4 view .LVU94
 442              	@ ../6-infRed/Me.h:65:    FLASH->ACR = 0x12;
 443              		.loc 2 65 15 is_stmt 0 view .LVU95
 444 0158 1222     		movs	r2, #18	@ tmp140,
 445 015a 1B4B     		ldr	r3, .L23	@ tmp139,
 446 015c 1A60     		str	r2, [r3]	@ tmp140, MEM[(struct FLASH_TypeDef *)1073881088B].ACR
ARM GAS  /tmp/ccgcInBj.s 			page 12


  66:../6-infRed/Me.h ****    // Enable HSE
  67:../6-infRed/Me.h ****    RCC->CR |= (1 << 16);
 447              		.loc 2 67 4 is_stmt 1 view .LVU96
 448              	@ ../6-infRed/Me.h:67:    RCC->CR |= (1 << 16);
 449              		.loc 2 67 12 is_stmt 0 view .LVU97
 450 015e A3F58053 		sub	r3, r3, #4096	@ tmp141, tmp141,
 451 0162 1A68     		ldr	r2, [r3]	@ _1, MEM[(struct RCC_TypeDef *)1073876992B].CR
 452 0164 42F48032 		orr	r2, r2, #65536	@ _2, _1,
 453 0168 1A60     		str	r2, [r3]	@ _2, MEM[(struct RCC_TypeDef *)1073876992B].CR
  68:../6-infRed/Me.h ****    // Wait untill HSE settles down
  69:../6-infRed/Me.h ****    while (!(RCC->CR & (1 << 17)));
 454              		.loc 2 69 4 is_stmt 1 view .LVU98
 455              	.L17:
 456              		.loc 2 69 34 discriminator 1 view .LVU99
 457              		.loc 2 69 10 discriminator 1 view .LVU100
 458              	@ ../6-infRed/Me.h:69:    while (!(RCC->CR & (1 << 17)));
 459              		.loc 2 69 16 is_stmt 0 discriminator 1 view .LVU101
 460 016a 1A68     		ldr	r2, [r3]	@ _3, MEM[(struct RCC_TypeDef *)1073876992B].CR
 461              	@ ../6-infRed/Me.h:69:    while (!(RCC->CR & (1 << 17)));
 462              		.loc 2 69 10 discriminator 1 view .LVU102
 463 016c 9103     		lsls	r1, r2, #14	@, _3,
 464 016e FCD5     		bpl	.L17		@,
  70:../6-infRed/Me.h ****    // Set PREDIV2 division factor to 5
  71:../6-infRed/Me.h ****    RCC->CFGR2 |= (0b0100 << 4);
 465              		.loc 2 71 4 is_stmt 1 view .LVU103
 466              	@ ../6-infRed/Me.h:71:    RCC->CFGR2 |= (0b0100 << 4);
 467              		.loc 2 71 15 is_stmt 0 view .LVU104
 468 0170 DA6A     		ldr	r2, [r3, #44]	@ _5, MEM[(struct RCC_TypeDef *)1073876992B].CFGR2
 469 0172 42F04002 		orr	r2, r2, #64	@ _6, _5,
 470 0176 DA62     		str	r2, [r3, #44]	@ _6, MEM[(struct RCC_TypeDef *)1073876992B].CFGR2
  72:../6-infRed/Me.h ****    // Set PLL2 multiplication factor to 8
  73:../6-infRed/Me.h ****    RCC->CFGR2 |= (0b0110 << 8);
 471              		.loc 2 73 4 is_stmt 1 view .LVU105
 472              	@ ../6-infRed/Me.h:73:    RCC->CFGR2 |= (0b0110 << 8);
 473              		.loc 2 73 15 is_stmt 0 view .LVU106
 474 0178 DA6A     		ldr	r2, [r3, #44]	@ _7, MEM[(struct RCC_TypeDef *)1073876992B].CFGR2
 475 017a 42F4C062 		orr	r2, r2, #1536	@ _8, _7,
 476 017e DA62     		str	r2, [r3, #44]	@ _8, MEM[(struct RCC_TypeDef *)1073876992B].CFGR2
  74:../6-infRed/Me.h ****    // Enable PLL2
  75:../6-infRed/Me.h ****    RCC->CR |= (1 << 26);
 477              		.loc 2 75 4 is_stmt 1 view .LVU107
 478              	@ ../6-infRed/Me.h:75:    RCC->CR |= (1 << 26);
 479              		.loc 2 75 12 is_stmt 0 view .LVU108
 480 0180 1A68     		ldr	r2, [r3]	@ _9, MEM[(struct RCC_TypeDef *)1073876992B].CR
 481 0182 42F08062 		orr	r2, r2, #67108864	@ _10, _9,
 482 0186 1A60     		str	r2, [r3]	@ _10, MEM[(struct RCC_TypeDef *)1073876992B].CR
  76:../6-infRed/Me.h ****    // Wait untill PLL2 settles down
  77:../6-infRed/Me.h **** 	// while (!(RCC->CR & (1 << 27)));
  78:../6-infRed/Me.h ****    // Set PLL2 as PREDIV1 clock source
  79:../6-infRed/Me.h ****    RCC->CFGR2 |= (1 << 16);
 483              		.loc 2 79 4 is_stmt 1 view .LVU109
 484              	@ ../6-infRed/Me.h:79:    RCC->CFGR2 |= (1 << 16);
 485              		.loc 2 79 15 is_stmt 0 view .LVU110
 486 0188 DA6A     		ldr	r2, [r3, #44]	@ _11, MEM[(struct RCC_TypeDef *)1073876992B].CFGR2
 487 018a 42F48032 		orr	r2, r2, #65536	@ _12, _11,
 488 018e DA62     		str	r2, [r3, #44]	@ _12, MEM[(struct RCC_TypeDef *)1073876992B].CFGR2
  80:../6-infRed/Me.h ****    // Set PREDIV1 division factor to 5
ARM GAS  /tmp/ccgcInBj.s 			page 13


  81:../6-infRed/Me.h ****    RCC->CFGR2 |= (0b0100 << 0);
 489              		.loc 2 81 4 is_stmt 1 view .LVU111
 490              	@ ../6-infRed/Me.h:81:    RCC->CFGR2 |= (0b0100 << 0);
 491              		.loc 2 81 15 is_stmt 0 view .LVU112
 492 0190 DA6A     		ldr	r2, [r3, #44]	@ _13, MEM[(struct RCC_TypeDef *)1073876992B].CFGR2
 493 0192 42F00402 		orr	r2, r2, #4	@ _14, _13,
 494 0196 DA62     		str	r2, [r3, #44]	@ _14, MEM[(struct RCC_TypeDef *)1073876992B].CFGR2
  82:../6-infRed/Me.h ****    // Select Prediv1 as PLL source
  83:../6-infRed/Me.h ****    RCC->CFGR |= (1 << 16);
 495              		.loc 2 83 4 is_stmt 1 view .LVU113
 496              	@ ../6-infRed/Me.h:83:    RCC->CFGR |= (1 << 16);
 497              		.loc 2 83 14 is_stmt 0 view .LVU114
 498 0198 5A68     		ldr	r2, [r3, #4]	@ _15, MEM[(struct RCC_TypeDef *)1073876992B].CFGR
 499 019a 42F48032 		orr	r2, r2, #65536	@ _16, _15,
 500 019e 5A60     		str	r2, [r3, #4]	@ _16, MEM[(struct RCC_TypeDef *)1073876992B].CFGR
  84:../6-infRed/Me.h ****    // Set PLL1 multiplication factor to 9
  85:../6-infRed/Me.h ****    RCC->CFGR |= (0b0111 << 18);
 501              		.loc 2 85 4 is_stmt 1 view .LVU115
 502              	@ ../6-infRed/Me.h:85:    RCC->CFGR |= (0b0111 << 18);
 503              		.loc 2 85 14 is_stmt 0 view .LVU116
 504 01a0 5A68     		ldr	r2, [r3, #4]	@ _17, MEM[(struct RCC_TypeDef *)1073876992B].CFGR
 505 01a2 42F4E012 		orr	r2, r2, #1835008	@ _18, _17,
 506 01a6 5A60     		str	r2, [r3, #4]	@ _18, MEM[(struct RCC_TypeDef *)1073876992B].CFGR
  86:../6-infRed/Me.h ****    // Set APB1 to 36MHz
  87:../6-infRed/Me.h ****    RCC->CFGR |= 1 << 10;
 507              		.loc 2 87 4 is_stmt 1 view .LVU117
 508              	@ ../6-infRed/Me.h:87:    RCC->CFGR |= 1 << 10;
 509              		.loc 2 87 14 is_stmt 0 view .LVU118
 510 01a8 5A68     		ldr	r2, [r3, #4]	@ _19, MEM[(struct RCC_TypeDef *)1073876992B].CFGR
 511 01aa 42F48062 		orr	r2, r2, #1024	@ _20, _19,
 512 01ae 5A60     		str	r2, [r3, #4]	@ _20, MEM[(struct RCC_TypeDef *)1073876992B].CFGR
  88:../6-infRed/Me.h ****    // Enable PLL
  89:../6-infRed/Me.h ****    RCC->CR |= (1 << 24);
 513              		.loc 2 89 4 is_stmt 1 view .LVU119
 514              	@ ../6-infRed/Me.h:89:    RCC->CR |= (1 << 24);
 515              		.loc 2 89 12 is_stmt 0 view .LVU120
 516 01b0 1A68     		ldr	r2, [r3]	@ _21, MEM[(struct RCC_TypeDef *)1073876992B].CR
 517 01b2 42F08072 		orr	r2, r2, #16777216	@ _22, _21,
 518 01b6 1A60     		str	r2, [r3]	@ _22, MEM[(struct RCC_TypeDef *)1073876992B].CR
  90:../6-infRed/Me.h ****    // Wait untill PLL settles down
  91:../6-infRed/Me.h ****    while (!(RCC->CR & (1 << 25)));
 519              		.loc 2 91 4 is_stmt 1 view .LVU121
 520              	.L18:
 521              		.loc 2 91 34 discriminator 1 view .LVU122
 522              		.loc 2 91 10 discriminator 1 view .LVU123
 523              	@ ../6-infRed/Me.h:91:    while (!(RCC->CR & (1 << 25)));
 524              		.loc 2 91 16 is_stmt 0 discriminator 1 view .LVU124
 525 01b8 1A68     		ldr	r2, [r3]	@ _23, MEM[(struct RCC_TypeDef *)1073876992B].CR
 526              	@ ../6-infRed/Me.h:91:    while (!(RCC->CR & (1 << 25)));
 527              		.loc 2 91 10 discriminator 1 view .LVU125
 528 01ba 9201     		lsls	r2, r2, #6	@, _23,
 529 01bc FCD5     		bpl	.L18		@,
  92:../6-infRed/Me.h ****    // Finally, choose PLL as the system clock
  93:../6-infRed/Me.h ****    RCC->CFGR |= (0b10 << 0);
 530              		.loc 2 93 4 is_stmt 1 view .LVU126
 531              	@ ../6-infRed/Me.h:93:    RCC->CFGR |= (0b10 << 0);
 532              		.loc 2 93 14 is_stmt 0 view .LVU127
ARM GAS  /tmp/ccgcInBj.s 			page 14


 533 01be 5A68     		ldr	r2, [r3, #4]	@ _25, MEM[(struct RCC_TypeDef *)1073876992B].CFGR
 534 01c0 42F00202 		orr	r2, r2, #2	@ _26, _25,
 535 01c4 5A60     		str	r2, [r3, #4]	@ _26, MEM[(struct RCC_TypeDef *)1073876992B].CFGR
 536              	@ ../6-infRed/Me.h:94: } 
  94:../6-infRed/Me.h **** } 
 537              		.loc 2 94 1 view .LVU128
 538 01c6 7047     		bx	lr	@
 539              	.L24:
 540              		.align	2
 541              	.L23:
 542 01c8 00200240 		.word	1073881088
 543              		.cfi_endproc
 544              	.LFE35:
 545              		.size	set_system_clock_to_72Mhz, .-set_system_clock_to_72Mhz
 546              		.align	1
 547              		.global	Delay
 548              		.syntax unified
 549              		.thumb
 550              		.thumb_func
 551              		.type	Delay, %function
 552              	Delay:
 553              	.LVL12:
 554              	.LFB36:
  95:../6-infRed/Me.h **** 
  96:../6-infRed/Me.h **** void Delay ( __IO u32 T ) { // T=1 ;  868µs -> T=1 ~ 526µs
 555              		.loc 2 96 27 is_stmt 1 view -0
 556              		.cfi_startproc
 557              		@ args = 0, pretend = 0, frame = 8
 558              		@ frame_needed = 0, uses_anonymous_args = 0
 559              		@ link register save eliminated.
  97:../6-infRed/Me.h ****   for ( T ; T > 0 ; T-- ){
 560              		.loc 2 97 3 view .LVU130
 561              	@ ../6-infRed/Me.h:96: void Delay ( __IO u32 T ) { // T=1 ;  868µs -> T=1 ~ 526µs
  96:../6-infRed/Me.h ****   for ( T ; T > 0 ; T-- ){
 562              		.loc 2 96 27 is_stmt 0 view .LVU131
 563 01cc 82B0     		sub	sp, sp, #8	@,,
 564              	.LCFI2:
 565              		.cfi_def_cfa_offset 8
 566              	@ ../6-infRed/Me.h:96: void Delay ( __IO u32 T ) { // T=1 ;  868µs -> T=1 ~ 526µs
  96:../6-infRed/Me.h ****   for ( T ; T > 0 ; T-- ){
 567              		.loc 2 96 27 view .LVU132
 568 01ce 0190     		str	r0, [sp, #4]	@ T, T
 569              	@ ../6-infRed/Me.h:97:   for ( T ; T > 0 ; T-- ){
 570              		.loc 2 97 3 view .LVU133
 571 01d0 019B     		ldr	r3, [sp, #4]	@ vol.0_9, T
 572              	@ ../6-infRed/Me.h:98:    TIM3->EGR |= ( 1 << 0 );
  98:../6-infRed/Me.h ****    TIM3->EGR |= ( 1 << 0 );
 573              		.loc 2 98 14 view .LVU134
 574 01d2 094A     		ldr	r2, .L30	@ tmp132,
 575              	.L26:
  97:../6-infRed/Me.h ****   for ( T ; T > 0 ; T-- ){
 576              		.loc 2 97 13 is_stmt 1 discriminator 1 view .LVU135
 577              	@ ../6-infRed/Me.h:97:   for ( T ; T > 0 ; T-- ){
  97:../6-infRed/Me.h ****   for ( T ; T > 0 ; T-- ){
 578              		.loc 2 97 15 is_stmt 0 discriminator 1 view .LVU136
 579 01d4 019B     		ldr	r3, [sp, #4]	@ T.2_6, T
 580              	@ ../6-infRed/Me.h:97:   for ( T ; T > 0 ; T-- ){
ARM GAS  /tmp/ccgcInBj.s 			page 15


  97:../6-infRed/Me.h ****   for ( T ; T > 0 ; T-- ){
 581              		.loc 2 97 3 discriminator 1 view .LVU137
 582 01d6 0BB9     		cbnz	r3, .L28	@ T.2_6,
 583              	@ ../6-infRed/Me.h:101: }
  99:../6-infRed/Me.h ****    while ( TIM3->CNT < 5 ) ; /* 5 * 10-- Configurar para IR */
 100:../6-infRed/Me.h ****   }
 101:../6-infRed/Me.h **** }
 584              		.loc 2 101 1 view .LVU138
 585 01d8 02B0     		add	sp, sp, #8	@,,
 586              	.LCFI3:
 587              		.cfi_remember_state
 588              		.cfi_def_cfa_offset 0
 589              		@ sp needed	@
 590 01da 7047     		bx	lr	@
 591              	.L28:
 592              	.LCFI4:
 593              		.cfi_restore_state
  98:../6-infRed/Me.h ****    TIM3->EGR |= ( 1 << 0 );
 594              		.loc 2 98 4 is_stmt 1 view .LVU139
 595              	@ ../6-infRed/Me.h:98:    TIM3->EGR |= ( 1 << 0 );
  98:../6-infRed/Me.h ****    TIM3->EGR |= ( 1 << 0 );
 596              		.loc 2 98 14 is_stmt 0 view .LVU140
 597 01dc 938A     		ldrh	r3, [r2, #20]	@, MEM[(struct TIM_TypeDef *)1073742848B].EGR
 598 01de 9BB2     		uxth	r3, r3	@ _1, MEM[(struct TIM_TypeDef *)1073742848B].EGR
 599 01e0 43F00103 		orr	r3, r3, #1	@ _2, _1,
 600 01e4 9382     		strh	r3, [r2, #20]	@ movhi	@ _2, MEM[(struct TIM_TypeDef *)1073742848B].EGR
  99:../6-infRed/Me.h ****    while ( TIM3->CNT < 5 ) ; /* 5 * 10-- Configurar para IR */
 601              		.loc 2 99 4 is_stmt 1 view .LVU141
 602              	.L27:
  99:../6-infRed/Me.h ****    while ( TIM3->CNT < 5 ) ; /* 5 * 10-- Configurar para IR */
 603              		.loc 2 99 28 discriminator 1 view .LVU142
  99:../6-infRed/Me.h ****    while ( TIM3->CNT < 5 ) ; /* 5 * 10-- Configurar para IR */
 604              		.loc 2 99 10 discriminator 1 view .LVU143
 605              	@ ../6-infRed/Me.h:99:    while ( TIM3->CNT < 5 ) ; /* 5 * 10-- Configurar para IR */
  99:../6-infRed/Me.h ****    while ( TIM3->CNT < 5 ) ; /* 5 * 10-- Configurar para IR */
 606              		.loc 2 99 16 is_stmt 0 discriminator 1 view .LVU144
 607 01e6 938C     		ldrh	r3, [r2, #36]	@, MEM[(struct TIM_TypeDef *)1073742848B].CNT
 608 01e8 9BB2     		uxth	r3, r3	@ _3, MEM[(struct TIM_TypeDef *)1073742848B].CNT
 609              	@ ../6-infRed/Me.h:99:    while ( TIM3->CNT < 5 ) ; /* 5 * 10-- Configurar para IR */
  99:../6-infRed/Me.h ****    while ( TIM3->CNT < 5 ) ; /* 5 * 10-- Configurar para IR */
 610              		.loc 2 99 10 discriminator 1 view .LVU145
 611 01ea 042B     		cmp	r3, #4	@ _3,
 612 01ec FBD9     		bls	.L27		@,
  97:../6-infRed/Me.h ****    TIM3->EGR |= ( 1 << 0 );
 613              		.loc 2 97 21 is_stmt 1 discriminator 2 view .LVU146
 614              	@ ../6-infRed/Me.h:97:   for ( T ; T > 0 ; T-- ){
  97:../6-infRed/Me.h ****    TIM3->EGR |= ( 1 << 0 );
 615              		.loc 2 97 22 is_stmt 0 discriminator 2 view .LVU147
 616 01ee 019B     		ldr	r3, [sp, #4]	@ T.1_4, T
 617 01f0 013B     		subs	r3, r3, #1	@ _5, T.1_4,
 618 01f2 0193     		str	r3, [sp, #4]	@ _5, T
 619 01f4 EEE7     		b	.L26		@
 620              	.L31:
 621 01f6 00BF     		.align	2
 622              	.L30:
 623 01f8 00040040 		.word	1073742848
 624              		.cfi_endproc
ARM GAS  /tmp/ccgcInBj.s 			page 16


 625              	.LFE36:
 626              		.size	Delay, .-Delay
 627              		.align	1
 628              		.global	enable_TIM3_delay
 629              		.syntax unified
 630              		.thumb
 631              		.thumb_func
 632              		.type	enable_TIM3_delay, %function
 633              	enable_TIM3_delay:
 634              	.LFB37:
 102:../6-infRed/Me.h **** 
 103:../6-infRed/Me.h **** void enable_TIM3_delay (void) {
 635              		.loc 2 103 31 is_stmt 1 view -0
 636              		.cfi_startproc
 637              		@ args = 0, pretend = 0, frame = 0
 638              		@ frame_needed = 0, uses_anonymous_args = 0
 639              		@ link register save eliminated.
 104:../6-infRed/Me.h ****    RCC->APB1ENR |= 1<<1 ;
 640              		.loc 2 104 4 view .LVU149
 641              	@ ../6-infRed/Me.h:104:    RCC->APB1ENR |= 1<<1 ;
 642              		.loc 2 104 17 is_stmt 0 view .LVU150
 643 01fc 084A     		ldr	r2, .L33	@ tmp117,
 644 01fe D369     		ldr	r3, [r2, #28]	@ _1, MEM[(struct RCC_TypeDef *)1073876992B].APB1ENR
 645 0200 43F00203 		orr	r3, r3, #2	@ _2, _1,
 646 0204 D361     		str	r3, [r2, #28]	@ _2, MEM[(struct RCC_TypeDef *)1073876992B].APB1ENR
 105:../6-infRed/Me.h ****    TIM3->CR1 = 0x0000;
 647              		.loc 2 105 4 is_stmt 1 view .LVU151
 648              	@ ../6-infRed/Me.h:105:    TIM3->CR1 = 0x0000;
 649              		.loc 2 105 14 is_stmt 0 view .LVU152
 650 0206 0023     		movs	r3, #0	@ tmp121,
 651 0208 A2F50332 		sub	r2, r2, #134144	@ tmp119, tmp119,
 652 020c 1380     		strh	r3, [r2]	@ movhi	@ tmp121, MEM[(struct TIM_TypeDef *)1073742848B].CR1
 106:../6-infRed/Me.h ****    //TIM3->ARR = 21699;
 107:../6-infRed/Me.h ****    // TIM3->ARR = 250-1; // 10µs
 108:../6-infRed/Me.h ****    TIM3->ARR = 720-1; // 10µs
 653              		.loc 2 108 4 is_stmt 1 view .LVU153
 654              	@ ../6-infRed/Me.h:108:    TIM3->ARR = 720-1; // 10µs
 655              		.loc 2 108 14 is_stmt 0 view .LVU154
 656 020e 40F2CF23 		movw	r3, #719	@ tmp124,
 657 0212 9385     		strh	r3, [r2, #44]	@ movhi	@ tmp124, MEM[(struct TIM_TypeDef *)1073742848B].ARR
 109:../6-infRed/Me.h ****    // para obter o período de 868µs
 110:../6-infRed/Me.h **** /*https://www.vishay.com/docs/80071/dataform.pdf PAG 2
 111:../6-infRed/Me.h ****  * https://controllerstech.com/ir-remote-with-stm32/
 112:../6-infRed/Me.h ****  * Per=(1+ARR)/Clock_system */
 113:../6-infRed/Me.h ****    TIM3->CR1 |= 1<<0;
 658              		.loc 2 113 4 is_stmt 1 view .LVU155
 659              	@ ../6-infRed/Me.h:113:    TIM3->CR1 |= 1<<0;
 660              		.loc 2 113 14 is_stmt 0 view .LVU156
 661 0214 1388     		ldrh	r3, [r2]	@, MEM[(struct TIM_TypeDef *)1073742848B].CR1
 662 0216 9BB2     		uxth	r3, r3	@ _3, MEM[(struct TIM_TypeDef *)1073742848B].CR1
 663 0218 43F00103 		orr	r3, r3, #1	@ _4, _3,
 664 021c 1380     		strh	r3, [r2]	@ movhi	@ _4, MEM[(struct TIM_TypeDef *)1073742848B].CR1
 665              	@ ../6-infRed/Me.h:114: }
 114:../6-infRed/Me.h **** }
 666              		.loc 2 114 1 view .LVU157
 667 021e 7047     		bx	lr	@
 668              	.L34:
ARM GAS  /tmp/ccgcInBj.s 			page 17


 669              		.align	2
 670              	.L33:
 671 0220 00100240 		.word	1073876992
 672              		.cfi_endproc
 673              	.LFE37:
 674              		.size	enable_TIM3_delay, .-enable_TIM3_delay
 675              		.align	1
 676              		.global	enable_interrupt
 677              		.syntax unified
 678              		.thumb
 679              		.thumb_func
 680              		.type	enable_interrupt, %function
 681              	enable_interrupt:
 682              	.LVL13:
 683              	.LFB38:
 115:../6-infRed/Me.h **** 
 116:../6-infRed/Me.h **** void enable_interrupt(IRQn_Type IRQn)
 117:../6-infRed/Me.h **** {
 684              		.loc 2 117 1 is_stmt 1 view -0
 685              		.cfi_startproc
 686              		@ args = 0, pretend = 0, frame = 0
 687              		@ frame_needed = 0, uses_anonymous_args = 0
 688              		@ link register save eliminated.
 118:../6-infRed/Me.h ****    NVIC->ISER[((uint32_t)(IRQn) >> 5)] = (1 << ((uint32_t)(IRQn) & 0x1F));
 689              		.loc 2 118 4 view .LVU159
 690              	@ ../6-infRed/Me.h:118:    NVIC->ISER[((uint32_t)(IRQn) >> 5)] = (1 << ((uint32_t)(IRQn) & 0x1F));
 691              		.loc 2 118 45 is_stmt 0 view .LVU160
 692 0224 0123     		movs	r3, #1	@ tmp124,
 693              	@ ../6-infRed/Me.h:118:    NVIC->ISER[((uint32_t)(IRQn) >> 5)] = (1 << ((uint32_t)(IRQn) & 0x1F));
 694              		.loc 2 118 33 view .LVU161
 695 0226 4209     		lsrs	r2, r0, #5	@ _6, IRQn,
 696              	@ ../6-infRed/Me.h:118:    NVIC->ISER[((uint32_t)(IRQn) >> 5)] = (1 << ((uint32_t)(IRQn) & 0x1F));
 697              		.loc 2 118 66 view .LVU162
 698 0228 00F01F00 		and	r0, r0, #31	@ tmp123, IRQn,
 699              	.LVL14:
 700              	@ ../6-infRed/Me.h:118:    NVIC->ISER[((uint32_t)(IRQn) >> 5)] = (1 << ((uint32_t)(IRQn) & 0x1F));
 701              		.loc 2 118 45 view .LVU163
 702 022c 03FA00F0 		lsl	r0, r3, r0	@ _7, tmp124, tmp123
 703              	@ ../6-infRed/Me.h:118:    NVIC->ISER[((uint32_t)(IRQn) >> 5)] = (1 << ((uint32_t)(IRQn) & 0x1F));
 704              		.loc 2 118 40 view .LVU164
 705 0230 014B     		ldr	r3, .L36	@ tmp125,
 706 0232 43F82200 		str	r0, [r3, r2, lsl #2]	@ _7, MEM[(struct NVIC_Type *)3758153984B].ISER[_6]
 707              	@ ../6-infRed/Me.h:119: }  
 119:../6-infRed/Me.h **** }  
 708              		.loc 2 119 1 view .LVU165
 709 0236 7047     		bx	lr	@
 710              	.L37:
 711              		.align	2
 712              	.L36:
 713 0238 00E100E0 		.word	-536813312
 714              		.cfi_endproc
 715              	.LFE38:
 716              		.size	enable_interrupt, .-enable_interrupt
 717              		.align	1
 718              		.global	disable_interrupt
 719              		.syntax unified
 720              		.thumb
ARM GAS  /tmp/ccgcInBj.s 			page 18


 721              		.thumb_func
 722              		.type	disable_interrupt, %function
 723              	disable_interrupt:
 724              	.LVL15:
 725              	.LFB39:
 120:../6-infRed/Me.h ****    
 121:../6-infRed/Me.h **** /* 
 122:../6-infRed/Me.h ****  * Disable given interrupt
 123:../6-infRed/Me.h ****  */
 124:../6-infRed/Me.h **** void disable_interrupt(IRQn_Type IRQn)
 125:../6-infRed/Me.h **** {
 726              		.loc 2 125 1 is_stmt 1 view -0
 727              		.cfi_startproc
 728              		@ args = 0, pretend = 0, frame = 0
 729              		@ frame_needed = 0, uses_anonymous_args = 0
 730              		@ link register save eliminated.
 126:../6-infRed/Me.h ****    NVIC->ICER[((uint32_t)(IRQn) >> 5)] = (1 << ((uint32_t)(IRQn) & 0x1F));
 731              		.loc 2 126 4 view .LVU167
 732              	@ ../6-infRed/Me.h:126:    NVIC->ICER[((uint32_t)(IRQn) >> 5)] = (1 << ((uint32_t)(IRQn) & 0x1F));
 733              		.loc 2 126 45 is_stmt 0 view .LVU168
 734 023c 0122     		movs	r2, #1	@ tmp124,
 735              	@ ../6-infRed/Me.h:126:    NVIC->ICER[((uint32_t)(IRQn) >> 5)] = (1 << ((uint32_t)(IRQn) & 0x1F));
 736              		.loc 2 126 33 view .LVU169
 737 023e 4309     		lsrs	r3, r0, #5	@ _6, IRQn,
 738              	@ ../6-infRed/Me.h:126:    NVIC->ICER[((uint32_t)(IRQn) >> 5)] = (1 << ((uint32_t)(IRQn) & 0x1F));
 739              		.loc 2 126 66 view .LVU170
 740 0240 00F01F00 		and	r0, r0, #31	@ tmp123, IRQn,
 741              	.LVL16:
 742              	@ ../6-infRed/Me.h:126:    NVIC->ICER[((uint32_t)(IRQn) >> 5)] = (1 << ((uint32_t)(IRQn) & 0x1F));
 743              		.loc 2 126 45 view .LVU171
 744 0244 02FA00F0 		lsl	r0, r2, r0	@ _7, tmp124, tmp123
 745              	@ ../6-infRed/Me.h:126:    NVIC->ICER[((uint32_t)(IRQn) >> 5)] = (1 << ((uint32_t)(IRQn) & 0x1F));
 746              		.loc 2 126 40 view .LVU172
 747 0248 024A     		ldr	r2, .L39	@ tmp125,
 748 024a 2033     		adds	r3, r3, #32	@ tmp126, _6,
 749 024c 42F82300 		str	r0, [r2, r3, lsl #2]	@ _7, MEM[(struct NVIC_Type *)3758153984B].ICER[_6]
 750              	@ ../6-infRed/Me.h:127: }
 127:../6-infRed/Me.h **** }
 751              		.loc 2 127 1 view .LVU173
 752 0250 7047     		bx	lr	@
 753              	.L40:
 754 0252 00BF     		.align	2
 755              	.L39:
 756 0254 00E100E0 		.word	-536813312
 757              		.cfi_endproc
 758              	.LFE39:
 759              		.size	disable_interrupt, .-disable_interrupt
 760              		.align	1
 761              		.global	IR_Init
 762              		.syntax unified
 763              		.thumb
 764              		.thumb_func
 765              		.type	IR_Init, %function
 766              	IR_Init:
 767              	.LFB40:
 768              		.file 3 "../6-infRed/infraRed.h"
   1:../6-infRed/infraRed.h **** #include "stm32f10x.h"
ARM GAS  /tmp/ccgcInBj.s 			page 19


   2:../6-infRed/infraRed.h **** 
   3:../6-infRed/infraRed.h **** // Define o pino de entrada do receptor IR
   4:../6-infRed/infraRed.h **** #define IR_PIN GPIO_Pin_8
   5:../6-infRed/infraRed.h **** #define IR_PORT GPIOB
   6:../6-infRed/infraRed.h **** 
   7:../6-infRed/infraRed.h **** // Função para configurar o GPIO para o pino de entrada IR
   8:../6-infRed/infraRed.h **** void IR_Init(void) {
 769              		.loc 3 8 20 is_stmt 1 view -0
 770              		.cfi_startproc
 771              		@ args = 0, pretend = 0, frame = 8
 772              		@ frame_needed = 0, uses_anonymous_args = 0
   9:../6-infRed/infraRed.h ****   GPIO_InitTypeDef GPIO_InitStructure;
 773              		.loc 3 9 3 view .LVU175
  10:../6-infRed/infraRed.h **** 
  11:../6-infRed/infraRed.h ****   //RCC_APB2PeriphClockCmd(RCC_APB2Periph_GPIOA, ENABLE);
  12:../6-infRed/infraRed.h ****   RCC_APB2PeriphClockCmd(RCC_APB2Periph_GPIOB, ENABLE);
 774              		.loc 3 12 3 view .LVU176
 775              	@ ../6-infRed/infraRed.h:8: void IR_Init(void) {
   8:../6-infRed/infraRed.h ****   GPIO_InitTypeDef GPIO_InitStructure;
 776              		.loc 3 8 20 is_stmt 0 view .LVU177
 777 0258 07B5     		push	{r0, r1, r2, lr}	@
 778              	.LCFI5:
 779              		.cfi_def_cfa_offset 16
 780              		.cfi_offset 14, -4
 781              	@ ../6-infRed/infraRed.h:12:   RCC_APB2PeriphClockCmd(RCC_APB2Periph_GPIOB, ENABLE);
 782              		.loc 3 12 3 view .LVU178
 783 025a 0121     		movs	r1, #1	@,
 784 025c 0820     		movs	r0, #8	@,
 785 025e FFF7FEFF 		bl	RCC_APB2PeriphClockCmd		@
 786              	.LVL17:
  13:../6-infRed/infraRed.h **** 
  14:../6-infRed/infraRed.h ****   GPIO_InitStructure.GPIO_Pin = IR_PIN;
 787              		.loc 3 14 3 is_stmt 1 view .LVU179
 788              	@ ../6-infRed/infraRed.h:14:   GPIO_InitStructure.GPIO_Pin = IR_PIN;
 789              		.loc 3 14 31 is_stmt 0 view .LVU180
 790 0262 4FF48073 		mov	r3, #256	@ tmp114,
 791 0266 ADF80430 		strh	r3, [sp, #4]	@ movhi	@ tmp114, GPIO_InitStructure.GPIO_Pin
  15:../6-infRed/infraRed.h ****   GPIO_InitStructure.GPIO_Mode = GPIO_Mode_IN_FLOATING;
 792              		.loc 3 15 3 is_stmt 1 view .LVU181
 793              	@ ../6-infRed/infraRed.h:15:   GPIO_InitStructure.GPIO_Mode = GPIO_Mode_IN_FLOATING;
 794              		.loc 3 15 32 is_stmt 0 view .LVU182
 795 026a 0423     		movs	r3, #4	@ tmp115,
 796              	@ ../6-infRed/infraRed.h:16:   GPIO_Init(IR_PORT, &GPIO_InitStructure);
  16:../6-infRed/infraRed.h ****   GPIO_Init(IR_PORT, &GPIO_InitStructure);
 797              		.loc 3 16 3 view .LVU183
 798 026c 0448     		ldr	r0, .L42	@,
 799 026e 0DEB0301 		add	r1, sp, r3	@,,
 800              	@ ../6-infRed/infraRed.h:15:   GPIO_InitStructure.GPIO_Mode = GPIO_Mode_IN_FLOATING;
  15:../6-infRed/infraRed.h ****   GPIO_InitStructure.GPIO_Mode = GPIO_Mode_IN_FLOATING;
 801              		.loc 3 15 32 view .LVU184
 802 0272 8DF80730 		strb	r3, [sp, #7]	@ tmp115, GPIO_InitStructure.GPIO_Mode
 803              		.loc 3 16 3 is_stmt 1 view .LVU185
 804 0276 FFF7FEFF 		bl	GPIO_Init		@
 805              	.LVL18:
 806              	@ ../6-infRed/infraRed.h:18: }
  17:../6-infRed/infraRed.h **** 
  18:../6-infRed/infraRed.h **** }
ARM GAS  /tmp/ccgcInBj.s 			page 20


 807              		.loc 3 18 1 is_stmt 0 view .LVU186
 808 027a 03B0     		add	sp, sp, #12	@,,
 809              	.LCFI6:
 810              		.cfi_def_cfa_offset 4
 811              		@ sp needed	@
 812 027c 5DF804FB 		ldr	pc, [sp], #4	@
 813              	.L43:
 814              		.align	2
 815              	.L42:
 816 0280 000C0140 		.word	1073810432
 817              		.cfi_endproc
 818              	.LFE40:
 819              		.size	IR_Init, .-IR_Init
 820              		.align	1
 821              		.global	IR_Read
 822              		.syntax unified
 823              		.thumb
 824              		.thumb_func
 825              		.type	IR_Read, %function
 826              	IR_Read:
 827              	.LFB41:
  19:../6-infRed/infraRed.h **** 
  20:../6-infRed/infraRed.h **** // Função para receber o código NEC IR
  21:../6-infRed/infraRed.h **** uint32_t IR_Read(void) {
 828              		.loc 3 21 24 is_stmt 1 view -0
 829              		.cfi_startproc
 830              		@ args = 0, pretend = 0, frame = 0
 831              		@ frame_needed = 0, uses_anonymous_args = 0
  22:../6-infRed/infraRed.h ****   uint32_t code = 0;
 832              		.loc 3 22 3 view .LVU188
 833              	.LVL19:
  23:../6-infRed/infraRed.h ****   uint32_t bit = 0;
 834              		.loc 3 23 3 view .LVU189
  24:../6-infRed/infraRed.h ****   uint32_t data = 0;
 835              		.loc 3 24 3 view .LVU190
  25:../6-infRed/infraRed.h **** 
  26:../6-infRed/infraRed.h ****   // Aguarda o sinal de início (pulso LOW)
  27:../6-infRed/infraRed.h ****   while (GPIO_ReadInputDataBit(IR_PORT, IR_PIN) != 0) {}
 836              		.loc 3 27 3 view .LVU191
 837              	@ ../6-infRed/infraRed.h:21: uint32_t IR_Read(void) {
  21:../6-infRed/infraRed.h ****   uint32_t code = 0;
 838              		.loc 3 21 24 is_stmt 0 view .LVU192
 839 0284 70B5     		push	{r4, r5, r6, lr}	@
 840              	.LCFI7:
 841              		.cfi_def_cfa_offset 16
 842              		.cfi_offset 4, -16
 843              		.cfi_offset 5, -12
 844              		.cfi_offset 6, -8
 845              		.cfi_offset 14, -4
 846              	@ ../6-infRed/infraRed.h:27:   while (GPIO_ReadInputDataBit(IR_PORT, IR_PIN) != 0) {}
 847              		.loc 3 27 10 view .LVU193
 848 0286 184C     		ldr	r4, .L58	@ tmp140,
 849              	.L45:
 850              		.loc 3 27 56 is_stmt 1 discriminator 1 view .LVU194
 851              		.loc 3 27 9 discriminator 1 view .LVU195
 852              	@ ../6-infRed/infraRed.h:27:   while (GPIO_ReadInputDataBit(IR_PORT, IR_PIN) != 0) {}
 853              		.loc 3 27 10 is_stmt 0 discriminator 1 view .LVU196
ARM GAS  /tmp/ccgcInBj.s 			page 21


 854 0288 4FF48071 		mov	r1, #256	@,
 855 028c 2046     		mov	r0, r4	@, tmp140
 856 028e FFF7FEFF 		bl	GPIO_ReadInputDataBit		@
 857              	.LVL20:
 858              	@ ../6-infRed/infraRed.h:27:   while (GPIO_ReadInputDataBit(IR_PORT, IR_PIN) != 0) {}
 859              		.loc 3 27 9 discriminator 1 view .LVU197
 860 0292 0028     		cmp	r0, #0	@ tmp141
 861 0294 F8D1     		bne	.L45	@
 862              	@ ../6-infRed/infraRed.h:30:   while (GPIO_ReadInputDataBit(IR_PORT, IR_PIN) == 0) {}
  28:../6-infRed/infraRed.h ****   
  29:../6-infRed/infraRed.h ****   // Aguarda o sinal de início (pulso HIGH)
  30:../6-infRed/infraRed.h ****   while (GPIO_ReadInputDataBit(IR_PORT, IR_PIN) == 0) {}
 863              		.loc 3 30 10 view .LVU198
 864 0296 144C     		ldr	r4, .L58	@ tmp138,
 865              	.L46:
 866              		.loc 3 30 56 is_stmt 1 discriminator 1 view .LVU199
 867              		.loc 3 30 9 discriminator 1 view .LVU200
 868              	@ ../6-infRed/infraRed.h:30:   while (GPIO_ReadInputDataBit(IR_PORT, IR_PIN) == 0) {}
 869              		.loc 3 30 10 is_stmt 0 discriminator 1 view .LVU201
 870 0298 4FF48071 		mov	r1, #256	@,
 871 029c 2046     		mov	r0, r4	@, tmp138
 872 029e FFF7FEFF 		bl	GPIO_ReadInputDataBit		@
 873              	.LVL21:
 874              	@ ../6-infRed/infraRed.h:30:   while (GPIO_ReadInputDataBit(IR_PORT, IR_PIN) == 0) {}
 875              		.loc 3 30 9 discriminator 1 view .LVU202
 876 02a2 0028     		cmp	r0, #0	@ tmp142
 877 02a4 F8D0     		beq	.L46	@
 878              	@ ../6-infRed/infraRed.h:33:   while (GPIO_ReadInputDataBit(IR_PORT, IR_PIN) != 0) {}
  31:../6-infRed/infraRed.h ****   
  32:../6-infRed/infraRed.h ****   // Aguarda o sinal de 9 ms (pulso LOW)
  33:../6-infRed/infraRed.h ****   while (GPIO_ReadInputDataBit(IR_PORT, IR_PIN) != 0) {}
 879              		.loc 3 33 10 view .LVU203
 880 02a6 104D     		ldr	r5, .L58	@ tmp136,
 881              	.L47:
 882              		.loc 3 33 56 is_stmt 1 discriminator 1 view .LVU204
 883              		.loc 3 33 9 discriminator 1 view .LVU205
 884              	@ ../6-infRed/infraRed.h:33:   while (GPIO_ReadInputDataBit(IR_PORT, IR_PIN) != 0) {}
 885              		.loc 3 33 10 is_stmt 0 discriminator 1 view .LVU206
 886 02a8 4FF48071 		mov	r1, #256	@,
 887 02ac 2846     		mov	r0, r5	@, tmp136
 888 02ae FFF7FEFF 		bl	GPIO_ReadInputDataBit		@
 889              	.LVL22:
 890              	@ ../6-infRed/infraRed.h:33:   while (GPIO_ReadInputDataBit(IR_PORT, IR_PIN) != 0) {}
 891              		.loc 3 33 9 discriminator 1 view .LVU207
 892 02b2 0446     		mov	r4, r0	@ tmp126, tmp143
 893 02b4 0028     		cmp	r0, #0	@ tmp126
 894 02b6 F7D1     		bne	.L47	@
 895              	@ ../6-infRed/infraRed.h:22:   uint32_t code = 0;
  22:../6-infRed/infraRed.h ****   uint32_t bit = 0;
 896              		.loc 3 22 12 view .LVU208
 897 02b8 0546     		mov	r5, r0	@ <retval>, bit
 898              	@ ../6-infRed/infraRed.h:44:     data = GPIO_ReadInputDataBit(IR_PORT, IR_PIN);
  34:../6-infRed/infraRed.h **** 
  35:../6-infRed/infraRed.h ****   // Recebe o código NEC IR
  36:../6-infRed/infraRed.h ****   for (bit = 0; bit < 32; bit++) {
  37:../6-infRed/infraRed.h ****     // Aguarda o próximo bit
  38:../6-infRed/infraRed.h ****     // while (GPIO_ReadInputDataBit(IR_PORT, IR_PIN) == 0) {}
ARM GAS  /tmp/ccgcInBj.s 			page 22


  39:../6-infRed/infraRed.h ****     
  40:../6-infRed/infraRed.h ****     // Aguarda o próximo espaço
  41:../6-infRed/infraRed.h ****     // while (GPIO_ReadInputDataBit(IR_PORT, IR_PIN) != 0) {}
  42:../6-infRed/infraRed.h **** 	 __delay(200);
  43:../6-infRed/infraRed.h **** 
  44:../6-infRed/infraRed.h ****     data = GPIO_ReadInputDataBit(IR_PORT, IR_PIN);
 899              		.loc 3 44 12 view .LVU209
 900 02ba 0B4E     		ldr	r6, .L58	@ tmp134,
 901              	.LVL23:
 902              	.L49:
  42:../6-infRed/infraRed.h **** 
 903              		.loc 3 42 3 is_stmt 1 view .LVU210
 904 02bc C820     		movs	r0, #200	@,
 905 02be FFF7FEFF 		bl	vTaskDelay		@
 906              	.LVL24:
 907              		.loc 3 44 5 view .LVU211
 908              	@ ../6-infRed/infraRed.h:44:     data = GPIO_ReadInputDataBit(IR_PORT, IR_PIN);
 909              		.loc 3 44 12 is_stmt 0 view .LVU212
 910 02c2 4FF48071 		mov	r1, #256	@,
 911 02c6 3046     		mov	r0, r6	@, tmp134
 912 02c8 FFF7FEFF 		bl	GPIO_ReadInputDataBit		@
 913              	.LVL25:
  45:../6-infRed/infraRed.h ****     
  46:../6-infRed/infraRed.h ****     // Se o espaço tiver uma duração maior que 1.2 ms o bit é 1, caso contrário é 0
  47:../6-infRed/infraRed.h ****     if (data > 0) {
 914              		.loc 3 47 5 is_stmt 1 view .LVU213
 915              	@ ../6-infRed/infraRed.h:47:     if (data > 0) {
 916              		.loc 3 47 8 is_stmt 0 view .LVU214
 917 02cc 10B1     		cbz	r0, .L48	@ tmp144,
  48:../6-infRed/infraRed.h ****       code |= (1 << bit);
 918              		.loc 3 48 7 is_stmt 1 view .LVU215
 919              	@ ../6-infRed/infraRed.h:48:       code |= (1 << bit);
 920              		.loc 3 48 18 is_stmt 0 view .LVU216
 921 02ce 0123     		movs	r3, #1	@ tmp130,
 922 02d0 A340     		lsls	r3, r3, r4	@ tmp129, tmp130, bit
 923              	@ ../6-infRed/infraRed.h:48:       code |= (1 << bit);
 924              		.loc 3 48 12 view .LVU217
 925 02d2 1D43     		orrs	r5, r5, r3	@, <retval>, <retval>, tmp129
 926              	.LVL26:
 927              	.L48:
  49:../6-infRed/infraRed.h ****     }
  50:../6-infRed/infraRed.h **** 	// Aguarda o próximo espaço
  51:../6-infRed/infraRed.h **** 	 __delay(300);
 928              		.loc 3 51 3 is_stmt 1 discriminator 2 view .LVU218
 929 02d4 4FF49670 		mov	r0, #300	@,
 930              	.LVL27:
 931              	@ ../6-infRed/infraRed.h:36:   for (bit = 0; bit < 32; bit++) {
  36:../6-infRed/infraRed.h ****     // Aguarda o próximo bit
 932              		.loc 3 36 30 is_stmt 0 discriminator 2 view .LVU219
 933 02d8 0134     		adds	r4, r4, #1	@ bit, bit,
 934              	.LVL28:
 935              	@ ../6-infRed/infraRed.h:51: 	 __delay(300);
 936              		.loc 3 51 3 discriminator 2 view .LVU220
 937 02da FFF7FEFF 		bl	vTaskDelay		@
 938              	.LVL29:
  36:../6-infRed/infraRed.h ****     // Aguarda o próximo bit
 939              		.loc 3 36 27 is_stmt 1 discriminator 2 view .LVU221
ARM GAS  /tmp/ccgcInBj.s 			page 23


  36:../6-infRed/infraRed.h ****     // Aguarda o próximo bit
 940              		.loc 3 36 17 discriminator 2 view .LVU222
 941              	@ ../6-infRed/infraRed.h:36:   for (bit = 0; bit < 32; bit++) {
  36:../6-infRed/infraRed.h ****     // Aguarda o próximo bit
 942              		.loc 3 36 3 is_stmt 0 discriminator 2 view .LVU223
 943 02de 202C     		cmp	r4, #32	@ bit,
 944 02e0 ECD1     		bne	.L49		@,
  52:../6-infRed/infraRed.h ****   }
  53:../6-infRed/infraRed.h **** 
  54:../6-infRed/infraRed.h ****   return code;
 945              		.loc 3 54 3 is_stmt 1 view .LVU224
 946              	@ ../6-infRed/infraRed.h:55: }
  55:../6-infRed/infraRed.h **** }
 947              		.loc 3 55 1 is_stmt 0 view .LVU225
 948 02e2 2846     		mov	r0, r5	@, <retval>
 949 02e4 70BD     		pop	{r4, r5, r6, pc}	@
 950              	.LVL30:
 951              	.L59:
 952              		.loc 3 55 1 view .LVU226
 953 02e6 00BF     		.align	2
 954              	.L58:
 955 02e8 000C0140 		.word	1073810432
 956              		.cfi_endproc
 957              	.LFE41:
 958              		.size	IR_Read, .-IR_Read
 959              		.align	1
 960              		.global	USART_init
 961              		.syntax unified
 962              		.thumb
 963              		.thumb_func
 964              		.type	USART_init, %function
 965              	USART_init:
 966              	.LFB42:
 967              		.file 4 "../6-infRed/Serial.h"
   1:../6-infRed/Serial.h **** // #ifndef	SERIAL_K
   2:../6-infRed/Serial.h **** // #define 	SERIAL_K
   3:../6-infRed/Serial.h **** 
   4:../6-infRed/Serial.h **** void USARTSend(char *pucBuffer);
   5:../6-infRed/Serial.h **** void USART_init(void);
   6:../6-infRed/Serial.h **** 
   7:../6-infRed/Serial.h **** void USART_init(void) {
 968              		.loc 4 7 23 is_stmt 1 view -0
 969              		.cfi_startproc
 970              		@ args = 0, pretend = 0, frame = 24
 971              		@ frame_needed = 0, uses_anonymous_args = 0
   8:../6-infRed/Serial.h ****    /* Enable USART1 and GPIOA clock */
   9:../6-infRed/Serial.h ****    RCC_APB2PeriphClockCmd(RCC_APB2Periph_USART1 | RCC_APB2Periph_GPIOA, ENABLE);
 972              		.loc 4 9 4 view .LVU228
 973              	@ ../6-infRed/Serial.h:7: void USART_init(void) {
   7:../6-infRed/Serial.h ****    /* Enable USART1 and GPIOA clock */
 974              		.loc 4 7 23 is_stmt 0 view .LVU229
 975 02ec 10B5     		push	{r4, lr}	@
 976              	.LCFI8:
 977              		.cfi_def_cfa_offset 8
 978              		.cfi_offset 4, -8
 979              		.cfi_offset 14, -4
 980              	@ ../6-infRed/Serial.h:9:    RCC_APB2PeriphClockCmd(RCC_APB2Periph_USART1 | RCC_APB2Periph_GPIOA, E
ARM GAS  /tmp/ccgcInBj.s 			page 24


 981              		.loc 4 9 4 view .LVU230
 982 02ee 0121     		movs	r1, #1	@,
 983              	@ ../6-infRed/Serial.h:7: void USART_init(void) {
   7:../6-infRed/Serial.h ****    /* Enable USART1 and GPIOA clock */
 984              		.loc 4 7 23 view .LVU231
 985 02f0 86B0     		sub	sp, sp, #24	@,,
 986              	.LCFI9:
 987              		.cfi_def_cfa_offset 32
 988              	@ ../6-infRed/Serial.h:9:    RCC_APB2PeriphClockCmd(RCC_APB2Periph_USART1 | RCC_APB2Periph_GPIOA, E
 989              		.loc 4 9 4 view .LVU232
 990 02f2 44F20400 		movw	r0, #16388	@,
 991 02f6 FFF7FEFF 		bl	RCC_APB2PeriphClockCmd		@
 992              	.LVL31:
  10:../6-infRed/Serial.h **** 
  11:../6-infRed/Serial.h ****    /* Configure the GPIOs */
  12:../6-infRed/Serial.h ****    GPIO_InitTypeDef GPIO_InitStructure;
 993              		.loc 4 12 4 is_stmt 1 view .LVU233
  13:../6-infRed/Serial.h **** 
  14:../6-infRed/Serial.h ****    /* Configure USART1 Tx (PA.09) as alternate function push-pull */
  15:../6-infRed/Serial.h ****    GPIO_InitStructure.GPIO_Pin = GPIO_Pin_9;
 994              		.loc 4 15 4 view .LVU234
  16:../6-infRed/Serial.h ****    GPIO_InitStructure.GPIO_Mode = GPIO_Mode_AF_PP;
 995              		.loc 4 16 4 view .LVU235
  17:../6-infRed/Serial.h ****    GPIO_InitStructure.GPIO_Speed = GPIO_Speed_50MHz;
 996              		.loc 4 17 4 view .LVU236
 997              	@ ../6-infRed/Serial.h:15:    GPIO_InitStructure.GPIO_Pin = GPIO_Pin_9;
  15:../6-infRed/Serial.h ****    GPIO_InitStructure.GPIO_Mode = GPIO_Mode_AF_PP;
 998              		.loc 4 15 32 is_stmt 0 view .LVU237
 999 02fa 4FF40073 		mov	r3, #512	@ tmp114,
 1000 02fe ADF80430 		strh	r3, [sp, #4]	@ movhi	@ tmp114, GPIO_InitStructure.GPIO_Pin
 1001              	@ ../6-infRed/Serial.h:17:    GPIO_InitStructure.GPIO_Speed = GPIO_Speed_50MHz;
 1002              		.loc 4 17 34 view .LVU238
 1003 0302 41F60303 		movw	r3, #6147	@ tmp116,
 1004              	@ ../6-infRed/Serial.h:18:    GPIO_Init(GPIOA, &GPIO_InitStructure);
  18:../6-infRed/Serial.h ****    GPIO_Init(GPIOA, &GPIO_InitStructure);
 1005              		.loc 4 18 4 view .LVU239
 1006 0306 144C     		ldr	r4, .L61	@ tmp118,
 1007 0308 01A9     		add	r1, sp, #4	@ tmp134,,
 1008 030a 2046     		mov	r0, r4	@, tmp118
 1009              	@ ../6-infRed/Serial.h:17:    GPIO_InitStructure.GPIO_Speed = GPIO_Speed_50MHz;
  17:../6-infRed/Serial.h ****    GPIO_InitStructure.GPIO_Speed = GPIO_Speed_50MHz;
 1010              		.loc 4 17 34 view .LVU240
 1011 030c ADF80630 		strh	r3, [sp, #6]	@ movhi	@ tmp116, MEM <unsigned short> [(void *)&GPIO_InitStructure + 2B]
 1012              		.loc 4 18 4 is_stmt 1 view .LVU241
 1013 0310 FFF7FEFF 		bl	GPIO_Init		@
 1014              	.LVL32:
  19:../6-infRed/Serial.h **** 
  20:../6-infRed/Serial.h ****    /* Configure USART1 Rx (PA.10) as input floating */
  21:../6-infRed/Serial.h ****    GPIO_InitStructure.GPIO_Pin = GPIO_Pin_10;
 1015              		.loc 4 21 4 view .LVU242
 1016              	@ ../6-infRed/Serial.h:21:    GPIO_InitStructure.GPIO_Pin = GPIO_Pin_10;
 1017              		.loc 4 21 32 is_stmt 0 view .LVU243
 1018 0314 4FF48063 		mov	r3, #1024	@ tmp120,
 1019 0318 ADF80430 		strh	r3, [sp, #4]	@ movhi	@ tmp120, GPIO_InitStructure.GPIO_Pin
  22:../6-infRed/Serial.h ****    GPIO_InitStructure.GPIO_Mode = GPIO_Mode_IN_FLOATING;
 1020              		.loc 4 22 4 is_stmt 1 view .LVU244
 1021              	@ ../6-infRed/Serial.h:22:    GPIO_InitStructure.GPIO_Mode = GPIO_Mode_IN_FLOATING;
ARM GAS  /tmp/ccgcInBj.s 			page 25


 1022              		.loc 4 22 33 is_stmt 0 view .LVU245
 1023 031c 0423     		movs	r3, #4	@ tmp121,
 1024              	@ ../6-infRed/Serial.h:23:    GPIO_Init(GPIOA, &GPIO_InitStructure);
  23:../6-infRed/Serial.h ****    GPIO_Init(GPIOA, &GPIO_InitStructure);
 1025              		.loc 4 23 4 view .LVU246
 1026 031e 2046     		mov	r0, r4	@, tmp118
 1027 0320 0DEB0301 		add	r1, sp, r3	@ tmp135,,
 1028              	@ ../6-infRed/Serial.h:22:    GPIO_InitStructure.GPIO_Mode = GPIO_Mode_IN_FLOATING;
  22:../6-infRed/Serial.h ****    GPIO_InitStructure.GPIO_Mode = GPIO_Mode_IN_FLOATING;
 1029              		.loc 4 22 33 view .LVU247
 1030 0324 8DF80730 		strb	r3, [sp, #7]	@ tmp121, GPIO_InitStructure.GPIO_Mode
 1031              		.loc 4 23 4 is_stmt 1 view .LVU248
 1032 0328 FFF7FEFF 		bl	GPIO_Init		@
 1033              	.LVL33:
  24:../6-infRed/Serial.h **** 
  25:../6-infRed/Serial.h ****    /* Configure the USART1 */
  26:../6-infRed/Serial.h ****    USART_InitTypeDef USART_InitStructure;
 1034              		.loc 4 26 4 view .LVU249
  27:../6-infRed/Serial.h ****    USART_InitStructure.USART_BaudRate = 115200;
 1035              		.loc 4 27 4 view .LVU250
  28:../6-infRed/Serial.h ****    USART_InitStructure.USART_WordLength = USART_WordLength_8b;
 1036              		.loc 4 28 4 view .LVU251
  29:../6-infRed/Serial.h ****    USART_InitStructure.USART_StopBits = USART_StopBits_1;
 1037              		.loc 4 29 4 view .LVU252
  30:../6-infRed/Serial.h ****    USART_InitStructure.USART_Parity = USART_Parity_No;
 1038              		.loc 4 30 4 view .LVU253
  31:../6-infRed/Serial.h ****    USART_InitStructure.USART_HardwareFlowControl = USART_HardwareFlowControl_None;
 1039              		.loc 4 31 4 view .LVU254
  32:../6-infRed/Serial.h ****    USART_InitStructure.USART_Mode = USART_Mode_Rx | USART_Mode_Tx;
 1040              		.loc 4 32 4 view .LVU255
 1041              	@ ../6-infRed/Serial.h:28:    USART_InitStructure.USART_WordLength = USART_WordLength_8b;
  28:../6-infRed/Serial.h ****    USART_InitStructure.USART_StopBits = USART_StopBits_1;
 1042              		.loc 4 28 41 is_stmt 0 view .LVU256
 1043 032c 0023     		movs	r3, #0	@ tmp126,
 1044 032e 4FF4E132 		mov	r2, #115200	@,
 1045 0332 CDE90223 		strd	r2, r3, [sp, #8]	@, tmp126,,
 1046              	@ ../6-infRed/Serial.h:30:    USART_InitStructure.USART_Parity = USART_Parity_No;
  30:../6-infRed/Serial.h ****    USART_InitStructure.USART_HardwareFlowControl = USART_HardwareFlowControl_None;
 1047              		.loc 4 30 37 view .LVU257
 1048 0336 4FF44022 		mov	r2, #786432	@ tmp127,
 1049              	@ ../6-infRed/Serial.h:34:    USART_Init(USART1, &USART_InitStructure);
  33:../6-infRed/Serial.h **** 
  34:../6-infRed/Serial.h ****    USART_Init(USART1, &USART_InitStructure);
 1050              		.loc 4 34 4 view .LVU258
 1051 033a 04F54054 		add	r4, r4, #12288	@ tmp131, tmp131,
 1052 033e 2046     		mov	r0, r4	@, tmp131
 1053 0340 02A9     		add	r1, sp, #8	@,,
 1054              	@ ../6-infRed/Serial.h:30:    USART_InitStructure.USART_Parity = USART_Parity_No;
  30:../6-infRed/Serial.h ****    USART_InitStructure.USART_HardwareFlowControl = USART_HardwareFlowControl_None;
 1055              		.loc 4 30 37 view .LVU259
 1056 0342 0492     		str	r2, [sp, #16]	@ tmp127, MEM <unsigned int> [(short unsigned int *)&USART_InitStructure + 8B]
 1057              	@ ../6-infRed/Serial.h:31:    USART_InitStructure.USART_HardwareFlowControl = USART_HardwareFlowCon
  31:../6-infRed/Serial.h ****    USART_InitStructure.USART_Mode = USART_Mode_Rx | USART_Mode_Tx;
 1058              		.loc 4 31 50 view .LVU260
 1059 0344 ADF81430 		strh	r3, [sp, #20]	@ movhi	@ tmp126, USART_InitStructure.USART_HardwareFlowControl
 1060              		.loc 4 34 4 is_stmt 1 view .LVU261
 1061 0348 FFF7FEFF 		bl	USART_Init		@
ARM GAS  /tmp/ccgcInBj.s 			page 26


 1062              	.LVL34:
  35:../6-infRed/Serial.h **** 
  36:../6-infRed/Serial.h ****    /* Enable USART1 */
  37:../6-infRed/Serial.h ****    USART_Cmd(USART1, ENABLE);
 1063              		.loc 4 37 4 view .LVU262
 1064 034c 0121     		movs	r1, #1	@,
 1065 034e 2046     		mov	r0, r4	@, tmp131
 1066 0350 FFF7FEFF 		bl	USART_Cmd		@
 1067              	.LVL35:
 1068              	@ ../6-infRed/Serial.h:38: }
  38:../6-infRed/Serial.h **** }
 1069              		.loc 4 38 1 is_stmt 0 view .LVU263
 1070 0354 06B0     		add	sp, sp, #24	@,,
 1071              	.LCFI10:
 1072              		.cfi_def_cfa_offset 8
 1073              		@ sp needed	@
 1074 0356 10BD     		pop	{r4, pc}	@
 1075              	.L62:
 1076              		.align	2
 1077              	.L61:
 1078 0358 00080140 		.word	1073809408
 1079              		.cfi_endproc
 1080              	.LFE42:
 1081              		.size	USART_init, .-USART_init
 1082              		.align	1
 1083              		.global	USARTSend
 1084              		.syntax unified
 1085              		.thumb
 1086              		.thumb_func
 1087              		.type	USARTSend, %function
 1088              	USARTSend:
 1089              	.LVL36:
 1090              	.LFB43:
  39:../6-infRed/Serial.h **** 
  40:../6-infRed/Serial.h **** void USARTSend(char *pucBuffer) {
 1091              		.loc 4 40 33 is_stmt 1 view -0
 1092              		.cfi_startproc
 1093              		@ args = 0, pretend = 0, frame = 0
 1094              		@ frame_needed = 0, uses_anonymous_args = 0
  41:../6-infRed/Serial.h ****     while (*pucBuffer)
 1095              		.loc 4 41 5 view .LVU265
 1096              	@ ../6-infRed/Serial.h:40: void USARTSend(char *pucBuffer) {
  40:../6-infRed/Serial.h ****     while (*pucBuffer)
 1097              		.loc 4 40 33 is_stmt 0 view .LVU266
 1098 035c 38B5     		push	{r3, r4, r5, lr}	@
 1099              	.LCFI11:
 1100              		.cfi_def_cfa_offset 16
 1101              		.cfi_offset 3, -16
 1102              		.cfi_offset 4, -12
 1103              		.cfi_offset 5, -8
 1104              		.cfi_offset 14, -4
 1105              	@ ../6-infRed/Serial.h:43:         USART_SendData(USART1, *pucBuffer++);
  42:../6-infRed/Serial.h ****     {
  43:../6-infRed/Serial.h ****         USART_SendData(USART1, *pucBuffer++);
 1106              		.loc 4 43 9 view .LVU267
 1107 035e 084D     		ldr	r5, .L69	@ tmp126,
 1108 0360 441E     		subs	r4, r0, #1	@ ivtmp.70, tmp128,
ARM GAS  /tmp/ccgcInBj.s 			page 27


 1109              	.LVL37:
 1110              	.L64:
  41:../6-infRed/Serial.h ****     {
 1111              		.loc 4 41 11 is_stmt 1 view .LVU268
 1112              	@ ../6-infRed/Serial.h:41:     while (*pucBuffer)
  41:../6-infRed/Serial.h ****     {
 1113              		.loc 4 41 12 is_stmt 0 view .LVU269
 1114 0362 14F8011F 		ldrb	r1, [r4, #1]!	@ zero_extendqisi2	@ _3, MEM[base: _16, offset: 0B]
 1115              	.LVL38:
 1116              	@ ../6-infRed/Serial.h:41:     while (*pucBuffer)
  41:../6-infRed/Serial.h ****     {
 1117              		.loc 4 41 11 view .LVU270
 1118 0366 01B9     		cbnz	r1, .L66	@ _3,
 1119              	@ ../6-infRed/Serial.h:48: }
  44:../6-infRed/Serial.h ****         while(USART_GetFlagStatus(USART1, USART_FLAG_TC) == RESET)
  45:../6-infRed/Serial.h ****         {
  46:../6-infRed/Serial.h ****         }
  47:../6-infRed/Serial.h ****     }
  48:../6-infRed/Serial.h **** }
 1120              		.loc 4 48 1 view .LVU271
 1121 0368 38BD     		pop	{r3, r4, r5, pc}	@
 1122              	.LVL39:
 1123              	.L66:
  43:../6-infRed/Serial.h ****         while(USART_GetFlagStatus(USART1, USART_FLAG_TC) == RESET)
 1124              		.loc 4 43 9 is_stmt 1 view .LVU272
  43:../6-infRed/Serial.h ****         while(USART_GetFlagStatus(USART1, USART_FLAG_TC) == RESET)
 1125              		.loc 4 43 9 is_stmt 0 view .LVU273
 1126 036a 2846     		mov	r0, r5	@, tmp126
 1127 036c FFF7FEFF 		bl	USART_SendData		@
 1128              	.LVL40:
  44:../6-infRed/Serial.h ****         while(USART_GetFlagStatus(USART1, USART_FLAG_TC) == RESET)
 1129              		.loc 4 44 9 is_stmt 1 view .LVU274
 1130              	.L65:
  46:../6-infRed/Serial.h ****     }
 1131              		.loc 4 46 9 discriminator 1 view .LVU275
  44:../6-infRed/Serial.h ****         while(USART_GetFlagStatus(USART1, USART_FLAG_TC) == RESET)
 1132              		.loc 4 44 14 discriminator 1 view .LVU276
 1133              	@ ../6-infRed/Serial.h:44:         while(USART_GetFlagStatus(USART1, USART_FLAG_TC) == RESET)
  44:../6-infRed/Serial.h ****         while(USART_GetFlagStatus(USART1, USART_FLAG_TC) == RESET)
 1134              		.loc 4 44 15 is_stmt 0 discriminator 1 view .LVU277
 1135 0370 4021     		movs	r1, #64	@,
 1136 0372 2846     		mov	r0, r5	@, tmp126
 1137 0374 FFF7FEFF 		bl	USART_GetFlagStatus		@
 1138              	.LVL41:
 1139              	@ ../6-infRed/Serial.h:44:         while(USART_GetFlagStatus(USART1, USART_FLAG_TC) == RESET)
  44:../6-infRed/Serial.h ****         while(USART_GetFlagStatus(USART1, USART_FLAG_TC) == RESET)
 1140              		.loc 4 44 14 discriminator 1 view .LVU278
 1141 0378 0028     		cmp	r0, #0	@ tmp129
 1142 037a F9D0     		beq	.L65	@
 1143 037c F1E7     		b	.L64		@
 1144              	.L70:
 1145 037e 00BF     		.align	2
 1146              	.L69:
 1147 0380 00380140 		.word	1073821696
 1148              		.cfi_endproc
 1149              	.LFE43:
 1150              		.size	USARTSend, .-USARTSend
ARM GAS  /tmp/ccgcInBj.s 			page 28


 1151              		.section	.rodata.str1.1
 1152              	.LC2:
 1153 0019 0A0D2D54 		.ascii	"\012\015-Transmitindo!! \015\012\000"
 1153      72616E73 
 1153      6D697469 
 1153      6E646F21 
 1153      21200D0A 
 1154              	.LC3:
 1155 002e 0A0D4573 		.ascii	"\012\015Esperando sinal\012\000"
 1155      70657261 
 1155      6E646F20 
 1155      73696E61 
 1155      6C0A00
 1156              	.LC4:
 1157 0041 0D0A436F 		.ascii	"\015\012Codigo: \000"
 1157      6469676F 
 1157      3A2000
 1158              		.text
 1159              		.align	1
 1160              		.syntax unified
 1161              		.thumb
 1162              		.thumb_func
 1163              		.type	task3, %function
 1164              	task3:
 1165              	.LVL42:
 1166              	.LFB46:
  73:../6-infRed/main.c **** 	}
  74:../6-infRed/main.c **** 	USARTSend("Tarefa2 ** \n\r");
  75:../6-infRed/main.c **** }
  76:../6-infRed/main.c **** 
  77:../6-infRed/main.c **** static void task3(void *args __attribute ((unused))){
 1167              		.loc 1 77 53 is_stmt 1 view -0
 1168              		.cfi_startproc
 1169              		@ args = 0, pretend = 0, frame = 8
 1170              		@ frame_needed = 0, uses_anonymous_args = 0
  78:../6-infRed/main.c **** 	USART_init();
 1171              		.loc 1 78 2 view .LVU280
 1172              	@ ../6-infRed/main.c:77: static void task3(void *args __attribute ((unused))){
  77:../6-infRed/main.c **** 	USART_init();
 1173              		.loc 1 77 53 is_stmt 0 view .LVU281
 1174 0384 73B5     		push	{r0, r1, r4, r5, r6, lr}	@
 1175              	.LCFI12:
 1176              		.cfi_def_cfa_offset 24
 1177              		.cfi_offset 4, -16
 1178              		.cfi_offset 5, -12
 1179              		.cfi_offset 6, -8
 1180              		.cfi_offset 14, -4
 1181              	@ ../6-infRed/main.c:78: 	USART_init();
 1182              		.loc 1 78 2 view .LVU282
 1183 0386 FFF7FEFF 		bl	USART_init		@
 1184              	.LVL43:
  79:../6-infRed/main.c **** 	IR_Init();
 1185              		.loc 1 79 2 is_stmt 1 view .LVU283
 1186 038a FFF7FEFF 		bl	IR_Init		@
 1187              	.LVL44:
  80:../6-infRed/main.c **** 
  81:../6-infRed/main.c **** 	char word_IR[8];
ARM GAS  /tmp/ccgcInBj.s 			page 29


 1188              		.loc 1 81 2 view .LVU284
  82:../6-infRed/main.c **** 
  83:../6-infRed/main.c **** 	u32 code_ir;
 1189              		.loc 1 83 2 view .LVU285
  84:../6-infRed/main.c **** 
  85:../6-infRed/main.c **** 		USARTSend("\n\r-Transmitindo!! \r\n");
 1190              		.loc 1 85 3 view .LVU286
 1191 038e 0B48     		ldr	r0, .L73	@,
 1192 0390 FFF7FEFF 		bl	USARTSend		@
 1193              	.LVL45:
 1194              	@ ../6-infRed/main.c:87: 		USARTSend("\n\rEsperando sinal\n");
  86:../6-infRed/main.c **** 	while(1){
  87:../6-infRed/main.c **** 		USARTSend("\n\rEsperando sinal\n");
 1195              		.loc 1 87 3 is_stmt 0 view .LVU287
 1196 0394 0A4E     		ldr	r6, .L73+4	@ tmp121,
 1197              	@ ../6-infRed/main.c:91: 		USARTSend("\r\nCodigo: ");
  88:../6-infRed/main.c **** 		
  89:../6-infRed/main.c **** 		code_ir = IR_Read();
  90:../6-infRed/main.c **** 
  91:../6-infRed/main.c **** 		USARTSend("\r\nCodigo: ");
 1198              		.loc 1 91 3 view .LVU288
 1199 0396 0B4D     		ldr	r5, .L73+8	@ tmp122,
 1200              	.L72:
  86:../6-infRed/main.c **** 	while(1){
 1201              		.loc 1 86 2 is_stmt 1 discriminator 1 view .LVU289
  87:../6-infRed/main.c **** 		
 1202              		.loc 1 87 3 discriminator 1 view .LVU290
 1203 0398 3046     		mov	r0, r6	@, tmp121
 1204 039a FFF7FEFF 		bl	USARTSend		@
 1205              	.LVL46:
  89:../6-infRed/main.c **** 
 1206              		.loc 1 89 3 discriminator 1 view .LVU291
 1207              	@ ../6-infRed/main.c:89: 		code_ir = IR_Read();
  89:../6-infRed/main.c **** 
 1208              		.loc 1 89 13 is_stmt 0 discriminator 1 view .LVU292
 1209 039e FFF7FEFF 		bl	IR_Read		@
 1210              	.LVL47:
 1211 03a2 0446     		mov	r4, r0	@ code_ir, tmp123
 1212              	.LVL48:
 1213              		.loc 1 91 3 is_stmt 1 discriminator 1 view .LVU293
 1214 03a4 2846     		mov	r0, r5	@, tmp122
 1215              	.LVL49:
 1216              		.loc 1 91 3 is_stmt 0 discriminator 1 view .LVU294
 1217 03a6 FFF7FEFF 		bl	USARTSend		@
 1218              	.LVL50:
  92:../6-infRed/main.c **** 		itoa (code_ir, word_IR, 16);
 1219              		.loc 1 92 3 is_stmt 1 discriminator 1 view .LVU295
 1220 03aa 1022     		movs	r2, #16	@,
 1221 03ac 6946     		mov	r1, sp	@,
 1222 03ae 2046     		mov	r0, r4	@, code_ir
 1223 03b0 FFF7FEFF 		bl	itoa		@
 1224              	.LVL51:
  93:../6-infRed/main.c **** 		USARTSend(word_IR);
 1225              		.loc 1 93 3 discriminator 1 view .LVU296
 1226 03b4 6846     		mov	r0, sp	@,
 1227 03b6 FFF7FEFF 		bl	USARTSend		@
 1228              	.LVL52:
ARM GAS  /tmp/ccgcInBj.s 			page 30


  86:../6-infRed/main.c **** 		USARTSend("\n\rEsperando sinal\n");
 1229              		.loc 1 86 7 discriminator 1 view .LVU297
 1230 03ba EDE7     		b	.L72		@
 1231              	.L74:
 1232              		.align	2
 1233              	.L73:
 1234 03bc 19000000 		.word	.LC2
 1235 03c0 2E000000 		.word	.LC3
 1236 03c4 41000000 		.word	.LC4
 1237              		.cfi_endproc
 1238              	.LFE46:
 1239              		.size	task3, .-task3
 1240              		.section	.rodata.str1.1
 1241              	.LC5:
 1242 004c 4C43445F 		.ascii	"LCD_16x2\000"
 1242      31367832 
 1242      00
 1243              	.LC6:
 1244 0055 4C45445F 		.ascii	"LED_13\000"
 1244      313300
 1245              	.LC7:
 1246 005c 3300     		.ascii	"3\000"
 1247              		.section	.text.startup,"ax",%progbits
 1248              		.align	1
 1249              		.global	main
 1250              		.syntax unified
 1251              		.thumb
 1252              		.thumb_func
 1253              		.type	main, %function
 1254              	main:
 1255              	.LFB47:
  94:../6-infRed/main.c **** 
  95:../6-infRed/main.c **** 	}
  96:../6-infRed/main.c **** }
  97:../6-infRed/main.c **** 
  98:../6-infRed/main.c **** int main(void) {
 1256              		.loc 1 98 16 view -0
 1257              		.cfi_startproc
 1258              		@ Volatile: function does not return.
 1259              		@ args = 0, pretend = 0, frame = 0
 1260              		@ frame_needed = 0, uses_anonymous_args = 0
  99:../6-infRed/main.c **** 	LCD_queue= xQueueCreate(5 /* Tamanho máximo da fila. */,
 1261              		.loc 1 99 2 view .LVU299
 1262              	@ ../6-infRed/main.c:105: 	xTaskCreate(task1,"LCD_16x2", 100 ,NULL, 4 ,NULL);
 100:../6-infRed/main.c **** 								sizeof(u32) /* Largura máxima da fila. */);
 101:../6-infRed/main.c **** 
 102:../6-infRed/main.c **** 	set_system_clock_to_72Mhz();
 103:../6-infRed/main.c **** //	enable_TIM3_delay();
 104:../6-infRed/main.c **** 
 105:../6-infRed/main.c **** 	xTaskCreate(task1,"LCD_16x2", 100 ,NULL, 4 ,NULL);
 1263              		.loc 1 105 2 is_stmt 0 view .LVU300
 1264 0000 0024     		movs	r4, #0	@ tmp116,
 1265 0002 0425     		movs	r5, #4	@ tmp117,
 1266              	@ ../6-infRed/main.c:98: int main(void) {
  98:../6-infRed/main.c **** 	LCD_queue= xQueueCreate(5 /* Tamanho máximo da fila. */,
 1267              		.loc 1 98 16 view .LVU301
 1268 0004 07B5     		push	{r0, r1, r2, lr}	@
ARM GAS  /tmp/ccgcInBj.s 			page 31


 1269              	.LCFI13:
 1270              		.cfi_def_cfa_offset 16
 1271              		.cfi_offset 14, -4
 1272              	@ ../6-infRed/main.c:99: 	LCD_queue= xQueueCreate(5 /* Tamanho máximo da fila. */,
  99:../6-infRed/main.c **** 	LCD_queue= xQueueCreate(5 /* Tamanho máximo da fila. */,
 1273              		.loc 1 99 13 view .LVU302
 1274 0006 0022     		movs	r2, #0	@,
 1275 0008 0421     		movs	r1, #4	@,
 1276 000a 0520     		movs	r0, #5	@,
 1277 000c FFF7FEFF 		bl	xQueueGenericCreate		@
 1278              	.LVL53:
 102:../6-infRed/main.c **** //	enable_TIM3_delay();
 1279              		.loc 1 102 2 is_stmt 1 view .LVU303
 1280 0010 FFF7FEFF 		bl	set_system_clock_to_72Mhz		@
 1281              	.LVL54:
 1282              		.loc 1 105 2 view .LVU304
 1283 0014 0D48     		ldr	r0, .L77	@,
 1284 0016 2346     		mov	r3, r4	@, tmp116
 1285 0018 6422     		movs	r2, #100	@,
 1286 001a 0D49     		ldr	r1, .L77+4	@,
 1287 001c CDE90054 		strd	r5, r4, [sp]	@ tmp117, tmp116,
 1288 0020 FFF7FEFF 		bl	xTaskCreate		@
 1289              	.LVL55:
 106:../6-infRed/main.c **** 	xTaskCreate(task2, "LED_13", 100 , NULL, 4 , NULL);
 1290              		.loc 1 106 2 view .LVU305
 1291 0024 2346     		mov	r3, r4	@, tmp116
 1292 0026 6422     		movs	r2, #100	@,
 1293 0028 0A49     		ldr	r1, .L77+8	@,
 1294 002a CDE90054 		strd	r5, r4, [sp]	@ tmp117, tmp116,
 1295 002e 0A48     		ldr	r0, .L77+12	@,
 1296 0030 FFF7FEFF 		bl	xTaskCreate		@
 1297              	.LVL56:
 107:../6-infRed/main.c **** 	xTaskCreate(task3, "3", 100 , NULL, 4 , NULL);
 1298              		.loc 1 107 2 view .LVU306
 1299 0034 2346     		mov	r3, r4	@, tmp116
 1300 0036 6422     		movs	r2, #100	@,
 1301 0038 0849     		ldr	r1, .L77+16	@,
 1302 003a CDE90054 		strd	r5, r4, [sp]	@ tmp117, tmp116,
 1303 003e 0848     		ldr	r0, .L77+20	@,
 1304 0040 FFF7FEFF 		bl	xTaskCreate		@
 1305              	.LVL57:
 108:../6-infRed/main.c **** 
 109:../6-infRed/main.c **** 	vTaskStartScheduler(); // inicia o escalonador de
 1306              		.loc 1 109 2 view .LVU307
 1307 0044 FFF7FEFF 		bl	vTaskStartScheduler		@
 1308              	.LVL58:
 1309              	.L76:
 110:../6-infRed/main.c **** 								  // processos.
 111:../6-infRed/main.c **** 	while(1);
 1310              		.loc 1 111 2 discriminator 1 view .LVU308
 1311              		.loc 1 111 10 discriminator 1 view .LVU309
 1312              		.loc 1 111 7 discriminator 1 view .LVU310
 1313 0048 FEE7     		b	.L76		@
 1314              	.L78:
 1315 004a 00BF     		.align	2
 1316              	.L77:
 1317 004c 00000000 		.word	task1
ARM GAS  /tmp/ccgcInBj.s 			page 32


 1318 0050 4C000000 		.word	.LC5
 1319 0054 55000000 		.word	.LC6
 1320 0058 00000000 		.word	task2
 1321 005c 5C000000 		.word	.LC7
 1322 0060 00000000 		.word	task3
 1323              		.cfi_endproc
 1324              	.LFE47:
 1325              		.size	main, .-main
 1326              		.text
 1327              	.Letext0:
 1328              		.file 5 "/usr/arm-none-eabi/include/machine/_default_types.h"
 1329              		.file 6 "/usr/arm-none-eabi/include/sys/_stdint.h"
 1330              		.file 7 "../freertos/portable/GCC/ARM_CM3/portmacro.h"
 1331              		.file 8 "../freertos/include/queue.h"
 1332              		.file 9 "../stm32f10x_lib/CMSIS/CM3/DeviceSupport/ST/STM32F10x/stm32f10x.h"
 1333              		.file 10 "../stm32f10x_lib/CMSIS/CM3/CoreSupport/core_cm3.h"
 1334              		.file 11 "../stm32f10x_lib/STM32F10x_StdPeriph_Driver/inc/stm32f10x_gpio.h"
 1335              		.file 12 "../stm32f10x_lib/STM32F10x_StdPeriph_Driver/inc/stm32f10x_usart.h"
 1336              		.file 13 "../freertos/include/task.h"
 1337              		.file 14 "/usr/arm-none-eabi/include/stdlib.h"
 1338              		.file 15 "../6-infRed/myLcd.h"
 1339              		.file 16 "../stm32f10x_lib/STM32F10x_StdPeriph_Driver/inc/stm32f10x_rcc.h"