ARM GAS  /tmp/ccgcInBj.s 			page 1


   1              		.cpu cortex-m3
   2              		.arch armv7-m
   3              		.fpu softvfp
   4              		.eabi_attribute 20, 1	@ Tag_ABI_FP_denormal
   5              		.eabi_attribute 21, 1	@ Tag_ABI_FP_exceptions
   6              		.eabi_attribute 23, 3	@ Tag_ABI_FP_number_model
   7              		.eabi_attribute 24, 1	@ Tag_ABI_align8_needed
   8              		.eabi_attribute 25, 1	@ Tag_ABI_align8_preserved
   9              		.eabi_attribute 26, 1	@ Tag_ABI_enum_size
  10              		.eabi_attribute 30, 4	@ Tag_ABI_optimization_goals
  11              		.eabi_attribute 34, 1	@ Tag_CPU_unaligned_access
  12              		.eabi_attribute 18, 4	@ Tag_ABI_PCS_wchar_t
  13              		.file	"main.c"
  14              	@ GNU C17 (GNU Arm Embedded Toolchain 10.3-2021.10) version 10.3.1 20210824 (release) (arm-none-eab
  15              	@	compiled by GNU C version 4.8.4, GMP version 6.1.0, MPFR version 3.1.4, MPC version 1.0.3, isl ve
  16              	
  17              	@ GGC heuristics: --param ggc-min-expand=100 --param ggc-min-heapsize=131072
  18              	@ options passed:  -I . -I ../6-infRed
  19              	@ -I ../stm32f10x_lib/CMSIS/CM3/CoreSupport
  20              	@ -I ../stm32f10x_lib/CMSIS/CM3/DeviceSupport/ST/STM32F10x
  21              	@ -I ../stm32f10x_lib/STM32F10x_StdPeriph_Driver/inc
  22              	@ -I ../stm32f10x_lib/STM32F10x_StdPeriph_Driver -I ../freertos/include
  23              	@ -I ../freertos/portable/GCC/ARM_CM3 -imultilib thumb/v7-m/nofp
  24              	@ -iprefix /usr/bin/../lib/gcc/arm-none-eabi/10.3.1/
  25              	@ -isysroot /usr/bin/../arm-none-eabi -D__USES_INITFINI__ -D STM32F10X_MD
  26              	@ -D USE_STDPERIPH_DRIVER -D HSE_VALUE=8000000 -D RUN_FROM_FLASH=1
  27              	@ ../6-infRed/main.c -mcpu=cortex-m3 -mthumb -mfloat-abi=soft
  28              	@ -mlibarch=armv7-m -march=armv7-m -auxbase-strip ../6-infRed/main.o -g
  29              	@ -gdwarf-2 -Os -Wall -fomit-frame-pointer -fverbose-asm
  30              	@ options enabled:  -faggressive-loop-optimizations -fallocation-dce
  31              	@ -fauto-inc-dec -fbranch-count-reg -fcaller-saves -fcode-hoisting
  32              	@ -fcombine-stack-adjustments -fcompare-elim -fcprop-registers
  33              	@ -fcrossjumping -fcse-follow-jumps -fdefer-pop
  34              	@ -fdelete-null-pointer-checks -fdevirtualize -fdevirtualize-speculatively
  35              	@ -fdwarf2-cfi-asm -fearly-inlining -feliminate-unused-debug-symbols
  36              	@ -feliminate-unused-debug-types -fexpensive-optimizations
  37              	@ -fforward-propagate -ffp-int-builtin-inexact -ffunction-cse -fgcse
  38              	@ -fgcse-lm -fgnu-unique -fguess-branch-probability -fhoist-adjacent-loads
  39              	@ -fident -fif-conversion -fif-conversion2 -findirect-inlining -finline
  40              	@ -finline-atomics -finline-functions -finline-functions-called-once
  41              	@ -finline-small-functions -fipa-bit-cp -fipa-cp -fipa-icf
  42              	@ -fipa-icf-functions -fipa-icf-variables -fipa-profile -fipa-pure-const
  43              	@ -fipa-ra -fipa-reference -fipa-reference-addressable -fipa-sra
  44              	@ -fipa-stack-alignment -fipa-vrp -fira-hoist-pressure
  45              	@ -fira-share-save-slots -fira-share-spill-slots
  46              	@ -fisolate-erroneous-paths-dereference -fivopts -fkeep-static-consts
  47              	@ -fleading-underscore -flifetime-dse -flra-remat -fmath-errno
  48              	@ -fmerge-constants -fmerge-debug-strings -fmove-loop-invariants
  49              	@ -fomit-frame-pointer -foptimize-sibling-calls -fpartial-inlining
  50              	@ -fpeephole -fpeephole2 -fplt -fprefetch-loop-arrays -freg-struct-return
  51              	@ -freorder-blocks -freorder-functions -frerun-cse-after-loop
  52              	@ -fsched-critical-path-heuristic -fsched-dep-count-heuristic
  53              	@ -fsched-group-heuristic -fsched-interblock -fsched-last-insn-heuristic
  54              	@ -fsched-pressure -fsched-rank-heuristic -fsched-spec
  55              	@ -fsched-spec-insn-heuristic -fsched-stalled-insns-dep -fschedule-insns2
  56              	@ -fsection-anchors -fsemantic-interposition -fshow-column
  57              	@ -fshrink-wrap-separate -fsigned-zeros -fsplit-ivs-in-unroller
ARM GAS  /tmp/ccgcInBj.s 			page 2


  58              	@ -fsplit-wide-types -fssa-backprop -fssa-phiopt -fstdarg-opt
  59              	@ -fstore-merging -fstrict-aliasing -fstrict-volatile-bitfields
  60              	@ -fsync-libcalls -fthread-jumps -ftoplevel-reorder -ftrapping-math
  61              	@ -ftree-bit-ccp -ftree-builtin-call-dce -ftree-ccp -ftree-ch
  62              	@ -ftree-coalesce-vars -ftree-copy-prop -ftree-cselim -ftree-dce
  63              	@ -ftree-dominator-opts -ftree-dse -ftree-forwprop -ftree-fre
  64              	@ -ftree-loop-distribute-patterns -ftree-loop-if-convert -ftree-loop-im
  65              	@ -ftree-loop-ivcanon -ftree-loop-optimize -ftree-parallelize-loops=
  66              	@ -ftree-phiprop -ftree-pre -ftree-pta -ftree-reassoc -ftree-scev-cprop
  67              	@ -ftree-sink -ftree-slsr -ftree-sra -ftree-switch-conversion
  68              	@ -ftree-tail-merge -ftree-ter -ftree-vrp -funit-at-a-time -fvar-tracking
  69              	@ -fvar-tracking-assignments -fverbose-asm -fzero-initialized-in-bss
  70              	@ -masm-syntax-unified -mbe32 -mfix-cortex-m3-ldrd -mlittle-endian
  71              	@ -mpic-data-is-text-relative -msched-prolog -mthumb -munaligned-access
  72              	@ -mvectorize-with-neon-quad
  73              	
  74              		.text
  75              	.Ltext0:
  76              		.cfi_sections	.debug_frame
  77              		.align	1
  78              		.syntax unified
  79              		.thumb
  80              		.thumb_func
  81              		.type	task2, %function
  82              	task2:
  83              	.LVL0:
  84              	.LFB45:
  85              		.file 1 "../6-infRed/main.c"
   1:../6-infRed/main.c **** /*
   2:../6-infRed/main.c ****  * Projeto LCD
   3:../6-infRed/main.c ****  *		Modificações necessárias: 
   4:../6-infRed/main.c ****  *		  FreeRTOSConfig:
   5:../6-infRed/main.c ****  *			 TICK_RATE_HZ definido em (100000)Hz -> 1µs
   6:../6-infRed/main.c ****  *
   7:../6-infRed/main.c ****  *	Clock do sistema: 
   8:../6-infRed/main.c ****  *		72Mhz
   9:../6-infRed/main.c ****  *	
  10:../6-infRed/main.c ****  *	Lib construída para Arduíno UNO:
  11:../6-infRed/main.c ****  *		myLcd.h
  12:../6-infRed/main.c ****  *			#define delayMicroseconds(X)   vTaskDelay(X)
  13:../6-infRed/main.c ****  *			#define delay(X)  vTaskDelay(X)
  14:../6-infRed/main.c ****  *
  15:../6-infRed/main.c ****  * */
  16:../6-infRed/main.c **** 
  17:../6-infRed/main.c **** // FreeRTOS: 
  18:../6-infRed/main.c **** #include "FreeRTOS.h"
  19:../6-infRed/main.c **** #include "queue.h"
  20:../6-infRed/main.c **** #include "task.h"
  21:../6-infRed/main.c **** 
  22:../6-infRed/main.c **** #define __delay_ms( TEMPO ) vTaskDelay(pdMS_TO_TICKS( TEMPO ))
  23:../6-infRed/main.c **** #define __delay( TEMPO ) vTaskDelay( TEMPO )
  24:../6-infRed/main.c **** 
  25:../6-infRed/main.c **** #include <string.h>
  26:../6-infRed/main.c **** #include <stdlib.h>
  27:../6-infRed/main.c **** 
  28:../6-infRed/main.c **** // LCD 16x2
  29:../6-infRed/main.c **** #include "stm32f10x.h"
ARM GAS  /tmp/ccgcInBj.s 			page 3


  30:../6-infRed/main.c **** #include "Me.h"
  31:../6-infRed/main.c **** #include "myLcd.h"
  32:../6-infRed/main.c **** 
  33:../6-infRed/main.c **** #include "infraRed.h"
  34:../6-infRed/main.c **** #include "Serial.h"
  35:../6-infRed/main.c **** 
  36:../6-infRed/main.c **** static QueueHandle_t LCD_queue ; 
  37:../6-infRed/main.c **** 
  38:../6-infRed/main.c **** static void task1(void *args __attribute((unused))) {
  39:../6-infRed/main.c **** 	RCC->APB2ENR |= (1<<2);
  40:../6-infRed/main.c **** 	GPIOA->CRL	 = 0x33333300; // Hab PA(2-7) out PP
  41:../6-infRed/main.c **** 
  42:../6-infRed/main.c ****   set_bit(IO,RS);
  43:../6-infRed/main.c ****   set_bit(IO,RS);
  44:../6-infRed/main.c ****   set_bit(IO,EN);
  45:../6-infRed/main.c ****   set_bit(IO,D4);
  46:../6-infRed/main.c ****   set_bit(IO,D5);
  47:../6-infRed/main.c ****   set_bit(IO,D6);
  48:../6-infRed/main.c ****   set_bit(IO,D7);
  49:../6-infRed/main.c **** 
  50:../6-infRed/main.c ****   disp_init();
  51:../6-infRed/main.c ****   disp_cmd(0x0C);
  52:../6-infRed/main.c **** 
  53:../6-infRed/main.c ****   disp_text("abcdABCDEF012",0,0);
  54:../6-infRed/main.c ****   u8 cont = (char) 1;
  55:../6-infRed/main.c **** 	while(1){
  56:../6-infRed/main.c **** 
  57:../6-infRed/main.c **** 		cont &= 0xffff;
  58:../6-infRed/main.c **** 		cont ++;
  59:../6-infRed/main.c **** 		disp_text("CONTADOR: ", 1, 0);
  60:../6-infRed/main.c **** 		disp_number( cont, 1, 11);
  61:../6-infRed/main.c **** 		__delay_ms(1000);
  62:../6-infRed/main.c **** 		
  63:../6-infRed/main.c **** 	}
  64:../6-infRed/main.c **** }
  65:../6-infRed/main.c **** 
  66:../6-infRed/main.c **** static void task2(void *args __attribute ((unused))){
  86              		.loc 1 66 53 view -0
  87              		.cfi_startproc
  88              		@ Volatile: function does not return.
  89              		@ args = 0, pretend = 0, frame = 0
  90              		@ frame_needed = 0, uses_anonymous_args = 0
  67:../6-infRed/main.c **** 	RCC->APB2ENR |= (1<<4); // En GPIOC
  91              		.loc 1 67 2 view .LVU1
  92              	@ ../6-infRed/main.c:67: 	RCC->APB2ENR |= (1<<4); // En GPIOC
  93              		.loc 1 67 15 is_stmt 0 view .LVU2
  94 0000 094A     		ldr	r2, .L3	@ tmp120,
  95              	@ ../6-infRed/main.c:66: static void task2(void *args __attribute ((unused))){
  66:../6-infRed/main.c **** 	RCC->APB2ENR |= (1<<4); // En GPIOC
  96              		.loc 1 66 53 view .LVU3
  97 0002 08B5     		push	{r3, lr}	@
  98              	.LCFI0:
  99              		.cfi_def_cfa_offset 8
 100              		.cfi_offset 3, -8
 101              		.cfi_offset 14, -4
 102              	@ ../6-infRed/main.c:67: 	RCC->APB2ENR |= (1<<4); // En GPIOC
 103              		.loc 1 67 15 view .LVU4
ARM GAS  /tmp/ccgcInBj.s 			page 4


 104 0004 9369     		ldr	r3, [r2, #24]	@ _1, MEM[(struct RCC_TypeDef *)1073876992B].APB2ENR
 105              	@ ../6-infRed/main.c:68: 	GPIOC->CRH	|= (0b11<< 20); // PC13 out PP 
  68:../6-infRed/main.c **** 	GPIOC->CRH	|= (0b11<< 20); // PC13 out PP 
 106              		.loc 1 68 13 view .LVU5
 107 0006 094C     		ldr	r4, .L3+4	@ tmp122,
 108              	@ ../6-infRed/main.c:67: 	RCC->APB2ENR |= (1<<4); // En GPIOC
  67:../6-infRed/main.c **** 	RCC->APB2ENR |= (1<<4); // En GPIOC
 109              		.loc 1 67 15 view .LVU6
 110 0008 43F01003 		orr	r3, r3, #16	@ _2, _1,
 111 000c 9361     		str	r3, [r2, #24]	@ _2, MEM[(struct RCC_TypeDef *)1073876992B].APB2ENR
 112              		.loc 1 68 2 is_stmt 1 view .LVU7
 113              	@ ../6-infRed/main.c:68: 	GPIOC->CRH	|= (0b11<< 20); // PC13 out PP 
 114              		.loc 1 68 13 is_stmt 0 view .LVU8
 115 000e 6368     		ldr	r3, [r4, #4]	@ _3, MEM[(struct GPIO_TypeDef *)1073811456B].CRH
 116 0010 43F44013 		orr	r3, r3, #3145728	@ _4, _3,
 117 0014 6360     		str	r3, [r4, #4]	@ _4, MEM[(struct GPIO_TypeDef *)1073811456B].CRH
 118              	.LVL1:
 119              	.L2:
  69:../6-infRed/main.c **** 
  70:../6-infRed/main.c **** 	while(1){
 120              		.loc 1 70 2 is_stmt 1 discriminator 1 view .LVU9
  71:../6-infRed/main.c **** 		GPIOC->ODR	^= (1<<13);
 121              		.loc 1 71 3 discriminator 1 view .LVU10
 122              	@ ../6-infRed/main.c:71: 		GPIOC->ODR	^= (1<<13);
 123              		.loc 1 71 14 is_stmt 0 discriminator 1 view .LVU11
 124 0016 E368     		ldr	r3, [r4, #12]	@ _5, MEM[(struct GPIO_TypeDef *)1073811456B].ODR
 125              	@ ../6-infRed/main.c:72: 		__delay_ms(50);
  72:../6-infRed/main.c **** 		__delay_ms(50);
 126              		.loc 1 72 3 discriminator 1 view .LVU12
 127 0018 41F28830 		movw	r0, #5000	@,
 128              	@ ../6-infRed/main.c:71: 		GPIOC->ODR	^= (1<<13);
  71:../6-infRed/main.c **** 		GPIOC->ODR	^= (1<<13);
 129              		.loc 1 71 14 discriminator 1 view .LVU13
 130 001c 83F40053 		eor	r3, r3, #8192	@ _6, _5,
 131 0020 E360     		str	r3, [r4, #12]	@ _6, MEM[(struct GPIO_TypeDef *)1073811456B].ODR
 132              		.loc 1 72 3 is_stmt 1 discriminator 1 view .LVU14
 133 0022 FFF7FEFF 		bl	vTaskDelay		@
 134              	.LVL2:
  70:../6-infRed/main.c **** 		GPIOC->ODR	^= (1<<13);
 135              		.loc 1 70 7 discriminator 1 view .LVU15
 136 0026 F6E7     		b	.L2		@
 137              	.L4:
 138              		.align	2
 139              	.L3:
 140 0028 00100240 		.word	1073876992
 141 002c 00100140 		.word	1073811456
 142              		.cfi_endproc
 143              	.LFE45:
 144              		.size	task2, .-task2
 145              		.section	.rodata.str1.1,"aMS",%progbits,1
 146              	.LC0:
 147 0000 61626364 		.ascii	"abcdABCDEF012\000"
 147      41424344 
 147      45463031 
 147      3200
 148              	.LC1:
 149 000e 434F4E54 		.ascii	"CONTADOR: \000"
ARM GAS  /tmp/ccgcInBj.s 			page 5


 149      41444F52 
 149      3A2000
 150              		.text
 151              		.align	1
 152              		.syntax unified
 153              		.thumb
 154              		.thumb_func
 155              		.type	task1, %function
 156              	task1:
 157              	.LVL3:
 158              	.LFB44:
  38:../6-infRed/main.c **** 	RCC->APB2ENR |= (1<<2);
 159              		.loc 1 38 53 view -0
 160              		.cfi_startproc
 161              		@ args = 0, pretend = 0, frame = 0
 162              		@ frame_needed = 0, uses_anonymous_args = 0
  39:../6-infRed/main.c **** 	GPIOA->CRL	 = 0x33333300; // Hab PA(2-7) out PP
 163              		.loc 1 39 2 view .LVU17
 164              	@ ../6-infRed/main.c:39: 	RCC->APB2ENR |= (1<<2);
  39:../6-infRed/main.c **** 	GPIOA->CRL	 = 0x33333300; // Hab PA(2-7) out PP
 165              		.loc 1 39 15 is_stmt 0 view .LVU18
 166 0030 204A     		ldr	r2, .L7	@ tmp132,
 167              	@ ../6-infRed/main.c:38: static void task1(void *args __attribute((unused))) {
  38:../6-infRed/main.c **** 	RCC->APB2ENR |= (1<<2);
 168              		.loc 1 38 53 view .LVU19
 169 0032 70B5     		push	{r4, r5, r6, lr}	@
 170              	.LCFI1:
 171              		.cfi_def_cfa_offset 16
 172              		.cfi_offset 4, -16
 173              		.cfi_offset 5, -12
 174              		.cfi_offset 6, -8
 175              		.cfi_offset 14, -4
 176              	@ ../6-infRed/main.c:39: 	RCC->APB2ENR |= (1<<2);
  39:../6-infRed/main.c **** 	GPIOA->CRL	 = 0x33333300; // Hab PA(2-7) out PP
 177              		.loc 1 39 15 view .LVU20
 178 0034 9369     		ldr	r3, [r2, #24]	@ _1, MEM[(struct RCC_TypeDef *)1073876992B].APB2ENR
 179              	@ ../6-infRed/main.c:54:   u8 cont = (char) 1;
  54:../6-infRed/main.c **** 	while(1){
 180              		.loc 1 54 6 view .LVU21
 181 0036 0124     		movs	r4, #1	@ cont,
 182              	@ ../6-infRed/main.c:39: 	RCC->APB2ENR |= (1<<2);
  39:../6-infRed/main.c **** 	GPIOA->CRL	 = 0x33333300; // Hab PA(2-7) out PP
 183              		.loc 1 39 15 view .LVU22
 184 0038 43F00403 		orr	r3, r3, #4	@ _2, _1,
 185 003c 9361     		str	r3, [r2, #24]	@ _2, MEM[(struct RCC_TypeDef *)1073876992B].APB2ENR
  40:../6-infRed/main.c **** 
 186              		.loc 1 40 2 is_stmt 1 view .LVU23
 187              	@ ../6-infRed/main.c:40: 	GPIOA->CRL	 = 0x33333300; // Hab PA(2-7) out PP
  40:../6-infRed/main.c **** 
 188              		.loc 1 40 14 is_stmt 0 view .LVU24
 189 003e 1E4B     		ldr	r3, .L7+4	@ tmp134,
 190 0040 1E4A     		ldr	r2, .L7+8	@ tmp135,
 191              	@ ../6-infRed/main.c:59: 		disp_text("CONTADOR: ", 1, 0);
  59:../6-infRed/main.c **** 		disp_number( cont, 1, 11);
 192              		.loc 1 59 3 view .LVU25
 193 0042 1F4E     		ldr	r6, .L7+12	@ tmp155,
 194              	@ ../6-infRed/main.c:40: 	GPIOA->CRL	 = 0x33333300; // Hab PA(2-7) out PP
ARM GAS  /tmp/ccgcInBj.s 			page 6


  40:../6-infRed/main.c **** 
 195              		.loc 1 40 14 view .LVU26
 196 0044 1A60     		str	r2, [r3]	@ tmp135, MEM[(struct GPIO_TypeDef *)1073809408B].CRL
  42:../6-infRed/main.c ****   set_bit(IO,RS);
 197              		.loc 1 42 3 is_stmt 1 view .LVU27
 198 0046 DA68     		ldr	r2, [r3, #12]	@ _3, MEM[(struct GPIO_TypeDef *)1073809408B].ODR
 199              	@ ../6-infRed/main.c:61: 		__delay_ms(1000);
  61:../6-infRed/main.c **** 		
 200              		.loc 1 61 3 is_stmt 0 view .LVU28
 201 0048 1E4D     		ldr	r5, .L7+16	@ tmp156,
 202              	@ ../6-infRed/main.c:42:   set_bit(IO,RS);
  42:../6-infRed/main.c ****   set_bit(IO,RS);
 203              		.loc 1 42 3 view .LVU29
 204 004a 42F08002 		orr	r2, r2, #128	@ _4, _3,
 205 004e DA60     		str	r2, [r3, #12]	@ _4, MEM[(struct GPIO_TypeDef *)1073809408B].ODR
  43:../6-infRed/main.c ****   set_bit(IO,EN);
 206              		.loc 1 43 3 is_stmt 1 view .LVU30
 207 0050 DA68     		ldr	r2, [r3, #12]	@ _5, MEM[(struct GPIO_TypeDef *)1073809408B].ODR
 208 0052 42F08002 		orr	r2, r2, #128	@ _6, _5,
 209 0056 DA60     		str	r2, [r3, #12]	@ _6, MEM[(struct GPIO_TypeDef *)1073809408B].ODR
  44:../6-infRed/main.c ****   set_bit(IO,D4);
 210              		.loc 1 44 3 view .LVU31
 211 0058 DA68     		ldr	r2, [r3, #12]	@ _7, MEM[(struct GPIO_TypeDef *)1073809408B].ODR
 212 005a 42F04002 		orr	r2, r2, #64	@ _8, _7,
 213 005e DA60     		str	r2, [r3, #12]	@ _8, MEM[(struct GPIO_TypeDef *)1073809408B].ODR
  45:../6-infRed/main.c ****   set_bit(IO,D5);
 214              		.loc 1 45 3 view .LVU32
 215 0060 DA68     		ldr	r2, [r3, #12]	@ _9, MEM[(struct GPIO_TypeDef *)1073809408B].ODR
 216 0062 42F02002 		orr	r2, r2, #32	@ _10, _9,
 217 0066 DA60     		str	r2, [r3, #12]	@ _10, MEM[(struct GPIO_TypeDef *)1073809408B].ODR
  46:../6-infRed/main.c ****   set_bit(IO,D6);
 218              		.loc 1 46 3 view .LVU33
 219 0068 DA68     		ldr	r2, [r3, #12]	@ _11, MEM[(struct GPIO_TypeDef *)1073809408B].ODR
 220 006a 42F01002 		orr	r2, r2, #16	@ _12, _11,
 221 006e DA60     		str	r2, [r3, #12]	@ _12, MEM[(struct GPIO_TypeDef *)1073809408B].ODR
  47:../6-infRed/main.c ****   set_bit(IO,D7);
 222              		.loc 1 47 3 view .LVU34
 223 0070 DA68     		ldr	r2, [r3, #12]	@ _13, MEM[(struct GPIO_TypeDef *)1073809408B].ODR
 224 0072 42F00802 		orr	r2, r2, #8	@ _14, _13,
 225 0076 DA60     		str	r2, [r3, #12]	@ _14, MEM[(struct GPIO_TypeDef *)1073809408B].ODR
  48:../6-infRed/main.c **** 
 226              		.loc 1 48 3 view .LVU35
 227 0078 DA68     		ldr	r2, [r3, #12]	@ _15, MEM[(struct GPIO_TypeDef *)1073809408B].ODR
 228 007a 42F00402 		orr	r2, r2, #4	@ _16, _15,
 229 007e DA60     		str	r2, [r3, #12]	@ _16, MEM[(struct GPIO_TypeDef *)1073809408B].ODR
  50:../6-infRed/main.c ****   disp_cmd(0x0C);
 230              		.loc 1 50 3 view .LVU36
 231 0080 FFF7FEFF 		bl	disp_init		@
 232              	.LVL4:
  51:../6-infRed/main.c **** 
 233              		.loc 1 51 3 view .LVU37
 234 0084 0C20     		movs	r0, #12	@,
 235 0086 FFF7FEFF 		bl	disp_cmd		@
 236              	.LVL5:
  53:../6-infRed/main.c ****   u8 cont = (char) 1;
 237              		.loc 1 53 3 view .LVU38
 238 008a 0022     		movs	r2, #0	@,
ARM GAS  /tmp/ccgcInBj.s 			page 7


 239 008c 0E48     		ldr	r0, .L7+20	@,
 240 008e 1146     		mov	r1, r2	@,
 241 0090 FFF7FEFF 		bl	disp_text		@
 242              	.LVL6:
  54:../6-infRed/main.c **** 	while(1){
 243              		.loc 1 54 3 view .LVU39
 244              	.L6:
  55:../6-infRed/main.c **** 
 245              		.loc 1 55 2 discriminator 1 view .LVU40
  57:../6-infRed/main.c **** 		cont ++;
 246              		.loc 1 57 3 discriminator 1 view .LVU41
  58:../6-infRed/main.c **** 		disp_text("CONTADOR: ", 1, 0);
 247              		.loc 1 58 3 discriminator 1 view .LVU42
 248              	@ ../6-infRed/main.c:58: 		cont ++;
  58:../6-infRed/main.c **** 		disp_text("CONTADOR: ", 1, 0);
 249              		.loc 1 58 8 is_stmt 0 discriminator 1 view .LVU43
 250 0094 0134     		adds	r4, r4, #1	@ tmp151, cont,
 251              	.LVL7:
 252              	@ ../6-infRed/main.c:59: 		disp_text("CONTADOR: ", 1, 0);
  59:../6-infRed/main.c **** 		disp_number( cont, 1, 11);
 253              		.loc 1 59 3 discriminator 1 view .LVU44
 254 0096 3046     		mov	r0, r6	@, tmp155
 255 0098 0022     		movs	r2, #0	@,
 256 009a 0121     		movs	r1, #1	@,
 257              	@ ../6-infRed/main.c:58: 		cont ++;
  58:../6-infRed/main.c **** 		disp_text("CONTADOR: ", 1, 0);
 258              		.loc 1 58 8 discriminator 1 view .LVU45
 259 009c E4B2     		uxtb	r4, r4	@ cont, tmp151
 260              	.LVL8:
  59:../6-infRed/main.c **** 		disp_number( cont, 1, 11);
 261              		.loc 1 59 3 is_stmt 1 discriminator 1 view .LVU46
 262 009e FFF7FEFF 		bl	disp_text		@
 263              	.LVL9:
  60:../6-infRed/main.c **** 		__delay_ms(1000);
 264              		.loc 1 60 3 discriminator 1 view .LVU47
 265 00a2 2046     		mov	r0, r4	@, cont
 266 00a4 0B22     		movs	r2, #11	@,
 267 00a6 0121     		movs	r1, #1	@,
 268 00a8 FFF7FEFF 		bl	disp_number		@
 269              	.LVL10:
  61:../6-infRed/main.c **** 		
 270              		.loc 1 61 3 discriminator 1 view .LVU48
 271 00ac 2846     		mov	r0, r5	@, tmp156
 272 00ae FFF7FEFF 		bl	vTaskDelay		@
 273              	.LVL11:
  55:../6-infRed/main.c **** 
 274              		.loc 1 55 7 discriminator 1 view .LVU49
 275 00b2 EFE7     		b	.L6		@
 276              	.L8:
 277              		.align	2
 278              	.L7:
 279 00b4 00100240 		.word	1073876992
 280 00b8 00080140 		.word	1073809408
 281 00bc 00333333 		.word	858993408
 282 00c0 0E000000 		.word	.LC1
 283 00c4 A0860100 		.word	100000
 284 00c8 00000000 		.word	.LC0
ARM GAS  /tmp/ccgcInBj.s 			page 8


 285              		.cfi_endproc
 286              	.LFE44:
 287              		.size	task1, .-task1
 288              		.align	1
 289              		.global	ADC1_configure
 290              		.syntax unified
 291              		.thumb
 292              		.thumb_func
 293              		.type	ADC1_configure, %function
 294              	ADC1_configure:
 295              	.LFB34:
 296              		.file 2 "../6-infRed/Me.h"
   1:../6-infRed/Me.h **** #define __IO volatile
   2:../6-infRed/Me.h **** 
   3:../6-infRed/Me.h **** void SystemInit (void);
   4:../6-infRed/Me.h **** void nvic_IntDisble(u8 IRQn);
   5:../6-infRed/Me.h **** void nvic_intEnable(u8 IRQn);
   6:../6-infRed/Me.h **** void set_system_clock_to_25Mhz (void);
   7:../6-infRed/Me.h **** void set_system_clock_to_72Mhz(void);
   8:../6-infRed/Me.h **** void Delay ( __IO u32 T );
   9:../6-infRed/Me.h **** void enable_TIM3_delay (void);
  10:../6-infRed/Me.h **** void ADC1_configure();
  11:../6-infRed/Me.h **** 
  12:../6-infRed/Me.h **** #define DelayUs(X) Delay(X)
  13:../6-infRed/Me.h **** 
  14:../6-infRed/Me.h **** void ADC1_configure(){
 297              		.loc 2 14 22 view -0
 298              		.cfi_startproc
 299              		@ args = 0, pretend = 0, frame = 0
 300              		@ frame_needed = 0, uses_anonymous_args = 0
 301              		@ link register save eliminated.
  15:../6-infRed/Me.h **** 	RCC->APB2ENR |= 1UL<<2 ; // Hab. GPIOA
 302              		.loc 2 15 2 view .LVU51
 303              	@ ../6-infRed/Me.h:15: 	RCC->APB2ENR |= 1UL<<2 ; // Hab. GPIOA
 304              		.loc 2 15 15 is_stmt 0 view .LVU52
 305 00cc 1F4B     		ldr	r3, .L14	@ tmp141,
 306              	@ ../6-infRed/Me.h:16: 	GPIOA->CRL &= ~(0x0F << 4); // Define A1 Input Analogic
  16:../6-infRed/Me.h **** 	GPIOA->CRL &= ~(0x0F << 4); // Define A1 Input Analogic
 307              		.loc 2 16 13 view .LVU53
 308 00ce 2049     		ldr	r1, .L14+4	@ tmp143,
 309              	@ ../6-infRed/Me.h:15: 	RCC->APB2ENR |= 1UL<<2 ; // Hab. GPIOA
  15:../6-infRed/Me.h **** 	RCC->APB2ENR |= 1UL<<2 ; // Hab. GPIOA
 310              		.loc 2 15 15 view .LVU54
 311 00d0 9A69     		ldr	r2, [r3, #24]	@ _1, MEM[(struct RCC_TypeDef *)1073876992B].APB2ENR
 312 00d2 42F00402 		orr	r2, r2, #4	@ _2, _1,
 313 00d6 9A61     		str	r2, [r3, #24]	@ _2, MEM[(struct RCC_TypeDef *)1073876992B].APB2ENR
 314              		.loc 2 16 2 is_stmt 1 view .LVU55
 315              	@ ../6-infRed/Me.h:16: 	GPIOA->CRL &= ~(0x0F << 4); // Define A1 Input Analogic
 316              		.loc 2 16 13 is_stmt 0 view .LVU56
 317 00d8 0A68     		ldr	r2, [r1]	@ _3, MEM[(struct GPIO_TypeDef *)1073809408B].CRL
 318 00da 22F0F002 		bic	r2, r2, #240	@ _4, _3,
 319 00de 0A60     		str	r2, [r1]	@ _4, MEM[(struct GPIO_TypeDef *)1073809408B].CRL
  17:../6-infRed/Me.h **** 	
  18:../6-infRed/Me.h **** 	RCC->APB2ENR |= (1<<9); // Bit 9 ADC1EN: ADC 1 
 320              		.loc 2 18 2 is_stmt 1 view .LVU57
 321              	@ ../6-infRed/Me.h:18: 	RCC->APB2ENR |= (1<<9); // Bit 9 ADC1EN: ADC 1 
 322              		.loc 2 18 15 is_stmt 0 view .LVU58
ARM GAS  /tmp/ccgcInBj.s 			page 9


 323 00e0 9A69     		ldr	r2, [r3, #24]	@ _5, MEM[(struct RCC_TypeDef *)1073876992B].APB2ENR
 324 00e2 42F40072 		orr	r2, r2, #512	@ _6, _5,
 325 00e6 9A61     		str	r2, [r3, #24]	@ _6, MEM[(struct RCC_TypeDef *)1073876992B].APB2ENR
  19:../6-infRed/Me.h **** 									// interface clock enable
  20:../6-infRed/Me.h **** 
  21:../6-infRed/Me.h **** 	RCC->CFGR	|= (0b10 << 14); // Bits 15:14 ADCPRE:
 326              		.loc 2 21 2 is_stmt 1 view .LVU59
 327              	@ ../6-infRed/Me.h:21: 	RCC->CFGR	|= (0b10 << 14); // Bits 15:14 ADCPRE:
 328              		.loc 2 21 12 is_stmt 0 view .LVU60
 329 00e8 5A68     		ldr	r2, [r3, #4]	@ _7, MEM[(struct RCC_TypeDef *)1073876992B].CFGR
 330 00ea 42F40042 		orr	r2, r2, #32768	@ _8, _7,
 331 00ee 5A60     		str	r2, [r3, #4]	@ _8, MEM[(struct RCC_TypeDef *)1073876992B].CFGR
  22:../6-infRed/Me.h **** 										  // ADC prescaler 10:
  23:../6-infRed/Me.h **** 										  //    PCLK2 divided by 6
  24:../6-infRed/Me.h **** 	// Enable End of Conversion (EOC) interrupt
  25:../6-infRed/Me.h **** 	ADC1->CR1 |= (1 << 5);
 332              		.loc 2 25 2 is_stmt 1 view .LVU61
 333              	@ ../6-infRed/Me.h:25: 	ADC1->CR1 |= (1 << 5);
 334              		.loc 2 25 12 is_stmt 0 view .LVU62
 335 00f0 A3F56C43 		sub	r3, r3, #60416	@ tmp149, tmp149,
 336 00f4 5A68     		ldr	r2, [r3, #4]	@ _9, MEM[(struct ADC_TypeDef *)1073816576B].CR1
 337 00f6 42F02002 		orr	r2, r2, #32	@ _10, _9,
 338 00fa 5A60     		str	r2, [r3, #4]	@ _10, MEM[(struct ADC_TypeDef *)1073816576B].CR1
  26:../6-infRed/Me.h **** 
  27:../6-infRed/Me.h **** 	// One conversion
  28:../6-infRed/Me.h **** 	ADC1->SQR1 = 0x00000000;
 339              		.loc 2 28 2 is_stmt 1 view .LVU63
 340              	@ ../6-infRed/Me.h:28: 	ADC1->SQR1 = 0x00000000;
 341              		.loc 2 28 13 is_stmt 0 view .LVU64
 342 00fc 0022     		movs	r2, #0	@ tmp152,
 343 00fe DA62     		str	r2, [r3, #44]	@ tmp152, MEM[(struct ADC_TypeDef *)1073816576B].SQR1
  29:../6-infRed/Me.h **** 
  30:../6-infRed/Me.h **** 	// Choose the analog channel to read
  31:../6-infRed/Me.h **** 	// Since we want channel 10 to be the first
  32:../6-infRed/Me.h **** 	//   conversion we write 10 to SQ1 bits (3:0)
  33:../6-infRed/Me.h **** 	//   which is in SQR3 register. For multiple conversions
  34:../6-infRed/Me.h **** 	//   keep writing the channel numbers to SQx bits.
  35:../6-infRed/Me.h **** 	 ADC1->SQR3 = (10 << 0);
 344              		.loc 2 35 3 is_stmt 1 view .LVU65
 345              	@ ../6-infRed/Me.h:35: 	 ADC1->SQR3 = (10 << 0);
 346              		.loc 2 35 14 is_stmt 0 view .LVU66
 347 0100 0A22     		movs	r2, #10	@ tmp154,
 348 0102 5A63     		str	r2, [r3, #52]	@ tmp154, MEM[(struct ADC_TypeDef *)1073816576B].SQR3
  36:../6-infRed/Me.h **** 
  37:../6-infRed/Me.h **** 	// Set up software trigger to start conversion
  38:../6-infRed/Me.h **** 	ADC1->CR2 |= (7 << 17);  // Select SWSTART as trigger
 349              		.loc 2 38 2 is_stmt 1 view .LVU67
 350              	@ ../6-infRed/Me.h:38: 	ADC1->CR2 |= (7 << 17);  // Select SWSTART as trigger
 351              		.loc 2 38 12 is_stmt 0 view .LVU68
 352 0104 9A68     		ldr	r2, [r3, #8]	@ _11, MEM[(struct ADC_TypeDef *)1073816576B].CR2
 353 0106 42F46022 		orr	r2, r2, #917504	@ _12, _11,
 354 010a 9A60     		str	r2, [r3, #8]	@ _12, MEM[(struct ADC_TypeDef *)1073816576B].CR2
  39:../6-infRed/Me.h **** 	ADC1->CR2 |= (1 << 20);  // Enable external trigger
 355              		.loc 2 39 2 is_stmt 1 view .LVU69
 356              	@ ../6-infRed/Me.h:39: 	ADC1->CR2 |= (1 << 20);  // Enable external trigger
 357              		.loc 2 39 12 is_stmt 0 view .LVU70
 358 010c 9A68     		ldr	r2, [r3, #8]	@ _13, MEM[(struct ADC_TypeDef *)1073816576B].CR2
ARM GAS  /tmp/ccgcInBj.s 			page 10


 359 010e 42F48012 		orr	r2, r2, #1048576	@ _14, _13,
 360 0112 9A60     		str	r2, [r3, #8]	@ _14, MEM[(struct ADC_TypeDef *)1073816576B].CR2
  40:../6-infRed/Me.h **** 
  41:../6-infRed/Me.h **** 	// Enable continuous conversion
  42:../6-infRed/Me.h **** 	ADC1->CR2 |= (1 << 1);
 361              		.loc 2 42 2 is_stmt 1 view .LVU71
 362              	@ ../6-infRed/Me.h:42: 	ADC1->CR2 |= (1 << 1);
 363              		.loc 2 42 12 is_stmt 0 view .LVU72
 364 0114 9A68     		ldr	r2, [r3, #8]	@ _15, MEM[(struct ADC_TypeDef *)1073816576B].CR2
 365 0116 42F00202 		orr	r2, r2, #2	@ _16, _15,
 366 011a 9A60     		str	r2, [r3, #8]	@ _16, MEM[(struct ADC_TypeDef *)1073816576B].CR2
  43:../6-infRed/Me.h **** 
  44:../6-infRed/Me.h **** 	// enable_interrupt(ADC1_2_IRQn);
  45:../6-infRed/Me.h **** 
  46:../6-infRed/Me.h **** 	// Enable A/D conversion
  47:../6-infRed/Me.h **** 	ADC1->CR2 |= (1 << 0);
 367              		.loc 2 47 2 is_stmt 1 view .LVU73
 368              	@ ../6-infRed/Me.h:47: 	ADC1->CR2 |= (1 << 0);
 369              		.loc 2 47 12 is_stmt 0 view .LVU74
 370 011c 9A68     		ldr	r2, [r3, #8]	@ _17, MEM[(struct ADC_TypeDef *)1073816576B].CR2
 371 011e 42F00102 		orr	r2, r2, #1	@ _18, _17,
 372 0122 9A60     		str	r2, [r3, #8]	@ _18, MEM[(struct ADC_TypeDef *)1073816576B].CR2
  48:../6-infRed/Me.h **** 
  49:../6-infRed/Me.h **** 	// Calibration reset and start
  50:../6-infRed/Me.h **** 	//    Optional for better accuracy.
  51:../6-infRed/Me.h **** 	ADC1->CR2 |= (1 << 3);
 373              		.loc 2 51 2 is_stmt 1 view .LVU75
 374              	@ ../6-infRed/Me.h:51: 	ADC1->CR2 |= (1 << 3);
 375              		.loc 2 51 12 is_stmt 0 view .LVU76
 376 0124 9A68     		ldr	r2, [r3, #8]	@ _19, MEM[(struct ADC_TypeDef *)1073816576B].CR2
 377 0126 42F00802 		orr	r2, r2, #8	@ _20, _19,
 378 012a 9A60     		str	r2, [r3, #8]	@ _20, MEM[(struct ADC_TypeDef *)1073816576B].CR2
  52:../6-infRed/Me.h **** 	while((ADC1->CR2 & (1 << 3)));
 379              		.loc 2 52 2 is_stmt 1 view .LVU77
 380              	.L10:
 381              		.loc 2 52 31 discriminator 1 view .LVU78
 382              		.loc 2 52 7 discriminator 1 view .LVU79
 383              	@ ../6-infRed/Me.h:52: 	while((ADC1->CR2 & (1 << 3)));
 384              		.loc 2 52 13 is_stmt 0 discriminator 1 view .LVU80
 385 012c 9A68     		ldr	r2, [r3, #8]	@ _21, MEM[(struct ADC_TypeDef *)1073816576B].CR2
 386              	@ ../6-infRed/Me.h:52: 	while((ADC1->CR2 & (1 << 3)));
 387              		.loc 2 52 7 discriminator 1 view .LVU81
 388 012e 1107     		lsls	r1, r2, #28	@, _21,
 389 0130 FCD4     		bmi	.L10		@,
  53:../6-infRed/Me.h **** 	ADC1->CR2 |= (1 << 2);
 390              		.loc 2 53 2 is_stmt 1 view .LVU82
 391              	@ ../6-infRed/Me.h:53: 	ADC1->CR2 |= (1 << 2);
 392              		.loc 2 53 12 is_stmt 0 view .LVU83
 393 0132 9A68     		ldr	r2, [r3, #8]	@ _23, MEM[(struct ADC_TypeDef *)1073816576B].CR2
 394 0134 42F00402 		orr	r2, r2, #4	@ _24, _23,
 395 0138 9A60     		str	r2, [r3, #8]	@ _24, MEM[(struct ADC_TypeDef *)1073816576B].CR2
  54:../6-infRed/Me.h **** 	while((ADC1->CR2 & (1 << 2)));
 396              		.loc 2 54 2 is_stmt 1 view .LVU84
 397              	@ ../6-infRed/Me.h:54: 	while((ADC1->CR2 & (1 << 2)));
 398              		.loc 2 54 13 is_stmt 0 view .LVU85
 399 013a 064B     		ldr	r3, .L14+8	@ tmp169,
 400              	.L11:
ARM GAS  /tmp/ccgcInBj.s 			page 11


 401              		.loc 2 54 31 is_stmt 1 discriminator 1 view .LVU86
 402              		.loc 2 54 7 discriminator 1 view .LVU87
 403              	@ ../6-infRed/Me.h:54: 	while((ADC1->CR2 & (1 << 2)));
 404              		.loc 2 54 13 is_stmt 0 discriminator 1 view .LVU88
 405 013c 9A68     		ldr	r2, [r3, #8]	@ _25, MEM[(struct ADC_TypeDef *)1073816576B].CR2
 406              	@ ../6-infRed/Me.h:54: 	while((ADC1->CR2 & (1 << 2)));
 407              		.loc 2 54 7 discriminator 1 view .LVU89
 408 013e 5207     		lsls	r2, r2, #29	@, _25,
 409 0140 FCD4     		bmi	.L11		@,
  55:../6-infRed/Me.h **** 
  56:../6-infRed/Me.h **** 	// Start conversion with software trigger
  57:../6-infRed/Me.h **** 	ADC1->CR2 |= (1<<22);
 410              		.loc 2 57 2 is_stmt 1 view .LVU90
 411              	@ ../6-infRed/Me.h:57: 	ADC1->CR2 |= (1<<22);
 412              		.loc 2 57 12 is_stmt 0 view .LVU91
 413 0142 9A68     		ldr	r2, [r3, #8]	@ _27, MEM[(struct ADC_TypeDef *)1073816576B].CR2
 414 0144 42F48002 		orr	r2, r2, #4194304	@ _28, _27,
 415 0148 9A60     		str	r2, [r3, #8]	@ _28, MEM[(struct ADC_TypeDef *)1073816576B].CR2
 416              	@ ../6-infRed/Me.h:60: }
  58:../6-infRed/Me.h **** 	//
  59:../6-infRed/Me.h **** 	// Leitura  ADC1->DR  -> Data Register
  60:../6-infRed/Me.h **** }
 417              		.loc 2 60 1 view .LVU92
 418 014a 7047     		bx	lr	@
 419              	.L15:
 420              		.align	2
 421              	.L14:
 422 014c 00100240 		.word	1073876992
 423 0150 00080140 		.word	1073809408
 424 0154 00240140 		.word	1073816576
 425              		.cfi_endproc
 426              	.LFE34:
 427              		.size	ADC1_configure, .-ADC1_configure
 428              		.align	1
 429              		.global	set_system_clock_to_72Mhz
 430              		.syntax unified
 431              		.thumb
 432              		.thumb_func
 433              		.type	set_system_clock_to_72Mhz, %function
 434              	set_system_clock_to_72Mhz:
 435              	.LFB35:
  61:../6-infRed/Me.h **** 
  62:../6-infRed/Me.h **** void set_system_clock_to_72Mhz(void)
  63:../6-infRed/Me.h **** {
 436              		.loc 2 63 1 is_stmt 1 view -0
 437              		.cfi_startproc
 438              		@ args = 0, pretend = 0, frame = 0
 439              		@ frame_needed = 0, uses_anonymous_args = 0
 440              		@ link register save eliminated.
  64:../6-infRed/Me.h ****    // Necessary wait states for Flash for high speeds
  65:../6-infRed/Me.h ****    FLASH->ACR = 0x12;
 441              		.loc 2 65 4 view .LVU94
 442              	@ ../6-infRed/Me.h:65:    FLASH->ACR = 0x12;
 443              		.loc 2 65 15 is_stmt 0 view .LVU95
 444 0158 1222     		movs	r2, #18	@ tmp140,
 445 015a 1B4B     		ldr	r3, .L23	@ tmp139,
 446 015c 1A60     		str	r2, [r3]	@ tmp140, MEM[(struct FLASH_TypeDef *)1073881088B].ACR
ARM GAS  /tmp/ccgcInBj.s 			page 12


  66:../6-infRed/Me.h ****    // Enable HSE
  67:../6-infRed/Me.h ****    RCC->CR |= (1 << 16);
 447              		.loc 2 67 4 is_stmt 1 view .LVU96
 448              	@ ../6-infRed/Me.h:67:    RCC->CR |= (1 << 16);
 449              		.loc 2 67 12 is_stmt 0 view .LVU97
 450 015e A3F58053 		sub	r3, r3, #4096	@ tmp141, tmp141,
 451 0162 1A68     		ldr	r2, [r3]	@ _1, MEM[(struct RCC_TypeDef *)1073876992B].CR
 452 0164 42F48032 		orr	r2, r2, #65536	@ _2, _1,
 453 0168 1A60     		str	r2, [r3]	@ _2, MEM[(struct RCC_TypeDef *)1073876992B].CR
  68:../6-infRed/Me.h ****    // Wait untill HSE settles down
  69:../6-infRed/Me.h ****    while (!(RCC->CR & (1 << 17)));
 454              		.loc 2 69 4 is_stmt 1 view .LVU98
 455              	.L17:
 456              		.loc 2 69 34 discriminator 1 view .LVU99
 457              		.loc 2 69 10 discriminator 1 view .LVU100
 458              	@ ../6-infRed/Me.h:69:    while (!(RCC->CR & (1 << 17)));
 459              		.loc 2 69 16 is_stmt 0 discriminator 1 view .LVU101
 460 016a 1A68     		ldr	r2, [r3]	@ _3, MEM[(struct RCC_TypeDef *)1073876992B].CR
 461              	@ ../6-infRed/Me.h:69:    while (!(RCC->CR & (1 << 17)));
 462              		.loc 2 69 10 discriminator 1 view .LVU102
 463 016c 9103     		lsls	r1, r2, #14	@, _3,
 464 016e FCD5     		bpl	.L17		@,
  70:../6-infRed/Me.h ****    // Set PREDIV2 division factor to 5
  71:../6-infRed/Me.h ****    RCC->CFGR2 |= (0b0100 << 4);
 465              		.loc 2 71 4 is_stmt 1 view .LVU103
 466              	@ ../6-infRed/Me.h:71:    RCC->CFGR2 |= (0b0100 << 4);
 467              		.loc 2 71 15 is_stmt 0 view .LVU104
 468 0170 DA6A     		ldr	r2, [r3, #44]	@ _5, MEM[(struct RCC_TypeDef *)1073876992B].CFGR2
 469 0172 42F04002 		orr	r2, r2, #64	@ _6, _5,
 470 0176 DA62     		str	r2, [r3, #44]	@ _6, MEM[(struct RCC_TypeDef *)1073876992B].CFGR2
  72:../6-infRed/Me.h ****    // Set PLL2 multiplication factor to 8
  73:../6-infRed/Me.h ****    RCC->CFGR2 |= (0b0110 << 8);
 471              		.loc 2 73 4 is_stmt 1 view .LVU105
 472              	@ ../6-infRed/Me.h:73:    RCC->CFGR2 |= (0b0110 << 8);
 473              		.loc 2 73 15 is_stmt 0 view .LVU106
 474 0178 DA6A     		ldr	r2, [r3, #44]	@ _7, MEM[(struct RCC_TypeDef *)1073876992B].CFGR2
 475 017a 42F4C062 		orr	r2, r2, #1536	@ _8, _7,
 476 017e DA62     		str	r2, [r3, #44]	@ _8, MEM[(struct RCC_TypeDef *)1073876992B].CFGR2
  74:../6-infRed/Me.h ****    // Enable PLL2
  75:../6-infRed/Me.h ****    RCC->CR |= (1 << 26);
 477              		.loc 2 75 4 is_stmt 1 view .LVU107
 478              	@ ../6-infRed/Me.h:75:    RCC->CR |= (1 << 26);
 479              		.loc 2 75 12 is_stmt 0 view .LVU108
 480 0180 1A68     		ldr	r2, [r3]	@ _9, MEM[(struct RCC_TypeDef *)1073876992B].CR
 481 0182 42F08062 		orr	r2, r2, #67108864	@ _10, _9,
 482 0186 1A60     		str	r2, [r3]	@ _10, MEM[(struct RCC_TypeDef *)1073876992B].CR
  76:../6-infRed/Me.h ****    // Wait untill PLL2 settles down
  77:../6-infRed/Me.h **** 	// while (!(RCC->CR & (1 << 27)));
  78:../6-infRed/Me.h ****    // Set PLL2 as PREDIV1 clock source
  79:../6-infRed/Me.h ****    RCC->CFGR2 |= (1 << 16);
 483              		.loc 2 79 4 is_stmt 1 view .LVU109
 484              	@ ../6-infRed/Me.h:79:    RCC->CFGR2 |= (1 << 16);
 485              		.loc 2 79 15 is_stmt 0 view .LVU110
 486 0188 DA6A     		ldr	r2, [r3, #44]	@ _11, MEM[(struct RCC_TypeDef *)1073876992B].CFGR2
 487 018a 42F48032 		orr	r2, r2, #65536	@ _12, _11,
 488 018e DA62     		str	r2, [r3, #44]	@ _12, MEM[(struct RCC_TypeDef *)1073876992B].CFGR2
  80:../6-infRed/Me.h ****    // Set PREDIV1 division factor to 5
ARM GAS  /tmp/ccgcInBj.s 			page 13


  81:../6-infRed/Me.h ****    RCC->CFGR2 |= (0b0100 << 0);
 489              		.loc 2 81 4 is_stmt 1 view .LVU111
 490              	@ ../6-infRed/Me.h:81:    RCC->CFGR2 |= (0b0100 << 0);
 491              		.loc 2 81 15 is_stmt 0 view .LVU112
 492 0190 DA6A     		ldr	r2, [r3, #44]	@ _13, MEM[(struct RCC_TypeDef *)1073876992B].CFGR2
 493 0192 42F00402 		orr	r2, r2, #4	@ _14, _13,
 494 0196 DA62     		str	r2, [r3, #44]	@ _14, MEM[(struct RCC_TypeDef *)1073876992B].CFGR2
  82:../6-infRed/Me.h ****    // Select Prediv1 as PLL source
  83:../6-infRed/Me.h ****    RCC->CFGR |= (1 << 16);
 495              		.loc 2 83 4 is_stmt 1 view .LVU113
 496              	@ ../6-infRed/Me.h:83:    RCC->CFGR |= (1 << 16);
 497              		.loc 2 83 14 is_stmt 0 view .LVU114
 498 0198 5A68     		ldr	r2, [r3, #4]	@ _15, MEM[(struct RCC_TypeDef *)1073876992B].CFGR
 499 019a 42F48032 		orr	r2, r2, #65536	@ _16, _15,
 500 019e 5A60     		str	r2, [r3, #4]	@ _16, MEM[(struct RCC_TypeDef *)1073876992B].CFGR
  84:../6-infRed/Me.h ****    // Set PLL1 multiplication factor to 9
  85:../6-infRed/Me.h ****    RCC->CFGR |= (0b0111 << 18);
 501              		.loc 2 85 4 is_stmt 1 view .LVU115
 502              	@ ../6-infRed/Me.h:85:    RCC->CFGR |= (0b0111 << 18);
 503              		.loc 2 85 14 is_stmt 0 view .LVU116
 504 01a0 5A68     		ldr	r2, [r3, #4]	@ _17, MEM[(struct RCC_TypeDef *)1073876992B].CFGR
 505 01a2 42F4E012 		orr	r2, r2, #1835008	@ _18, _17,
 506 01a6 5A60     		str	r2, [r3, #4]	@ _18, MEM[(struct RCC_TypeDef *)1073876992B].CFGR
  86:../6-infRed/Me.h ****    // Set APB1 to 36MHz
  87:../6-infRed/Me.h ****    RCC->CFGR |= 1 << 10;
 507              		.loc 2 87 4 is_stmt 1 view .LVU117
 508              	@ ../6-infRed/Me.h:87:    RCC->CFGR |= 1 << 10;
 509              		.loc 2 87 14 is_stmt 0 view .LVU118
 510 01a8 5A68     		ldr	r2, [r3, #4]	@ _19, MEM[(struct RCC_TypeDef *)1073876992B].CFGR
 511 01aa 42F48062 		orr	r2, r2, #1024	@ _20, _19,
 512 01ae 5A60     		str	r2, [r3, #4]	@ _20, MEM[(struct RCC_TypeDef *)1073876992B].CFGR
  88:../6-infRed/Me.h ****    // Enable PLL
  89:../6-infRed/Me.h ****    RCC->CR |= (1 << 24);
 513              		.loc 2 89 4 is_stmt 1 view .LVU119
 514              	@ ../6-infRed/Me.h:89:    RCC->CR |= (1 << 24);
 515              		.loc 2 89 12 is_stmt 0 view .LVU120
 516 01b0 1A68     		ldr	r2, [r3]	@ _21, MEM[(struct RCC_TypeDef *)1073876992B].CR
 517 01b2 42F08072 		orr	r2, r2, #16777216	@ _22, _21,
 518 01b6 1A60     		str	r2, [r3]	@ _22, MEM[(struct RCC_TypeDef *)1073876992B].CR
  90:../6-infRed/Me.h ****    // Wait untill PLL settles down
  91:../6-infRed/Me.h ****    while (!(RCC->CR & (1 << 25)));
 519              		.loc 2 91 4 is_stmt 1 view .LVU121
 520              	.L18:
 521              		.loc 2 91 34 discriminator 1 view .LVU122
 522              		.loc 2 91 10 discriminator 1 view .LVU123
 523              	@ ../6-infRed/Me.h:91:    while (!(RCC->CR & (1 << 25)));
 524              		.loc 2 91 16 is_stmt 0 discriminator 1 view .LVU124
 525 01b8 1A68     		ldr	r2, [r3]	@ _23, MEM[(struct RCC_TypeDef *)1073876992B].CR
 526              	@ ../6-infRed/Me.h:91:    while (!(RCC->CR & (1 << 25)));
 527              		.loc 2 91 10 discriminator 1 view .LVU125
 528 01ba 9201     		lsls	r2, r2, #6	@, _23,
 529 01bc FCD5     		bpl	.L18		@,
  92:../6-infRed/Me.h ****    // Finally, choose PLL as the system clock
  93:../6-infRed/Me.h ****    RCC->CFGR |= (0b10 << 0);
 530              		.loc 2 93 4 is_stmt 1 view .LVU126
 531              	@ ../6-infRed/Me.h:93:    RCC->CFGR |= (0b10 << 0);
 532              		.loc 2 93 14 is_stmt 0 view .LVU127
ARM GAS  /tmp/ccgcInBj.s 			page 14


 533 01be 5A68     		ldr	r2, [r3, #4]	@ _25, MEM[(struct RCC_TypeDef *)1073876992B].CFGR
 534 01c0 42F00202 		orr	r2, r2, #2	@ _26, _25,
 535 01c4 5A60     		str	r2, [r3, #4]	@ _26, MEM[(struct RCC_TypeDef *)1073876992B].CFGR
 536              	@ ../6-infRed/Me.h:94: } 
  94:../6-infRed/Me.h **** } 
 537              		.loc 2 94 1 view .LVU128
 538 01c6 7047     		bx	lr	@
 539              	.L24:
 540              		.align	2
 541              	.L23:
 542 01c8 00200240 		.word	1073881088
 543              		.cfi_endproc
 544              	.LFE35:
 545              		.size	set_system_clock_to_72Mhz, .-set_system_clock_to_72Mhz
 546              		.align	1
 547              		.global	Delay
 548              		.syntax unified
 549              		.thumb
 550              		.thumb_func
 551              		.type	Delay, %function
 552              	Delay:
 553              	.LVL12:
 554              	.LFB36:
  95:../6-infRed/Me.h **** 
  96:../6-infRed/Me.h **** void Delay ( __IO u32 T ) { // T=1 ;  868µs -> T=1 ~ 526µs
 555              		.loc 2 96 27 is_stmt 1 view -0
 556              		.cfi_startproc
 557              		@ args = 0, pretend = 0, frame = 8
 558              		@ frame_needed = 0, uses_anonymous_args = 0
 559              		@ link register save eliminated.
  97:../6-infRed/Me.h ****   for ( T ; T > 0 ; T-- ){
 560              		.loc 2 97 3 view .LVU130
 561              	@ ../6-infRed/Me.h:96: void Delay ( __IO u32 T ) { // T=1 ;  868µs -> T=1 ~ 526µs
  96:../6-infRed/Me.h ****   for ( T ; T > 0 ; T-- ){
 562              		.loc 2 96 27 is_stmt 0 view .LVU131
 563 01cc 82B0     		sub	sp, sp, #8	@,,
 564              	.LCFI2:
 565              		.cfi_def_cfa_offset 8
 566              	@ ../6-infRed/Me.h:96: void Delay ( __IO u32 T ) { // T=1 ;  868µs -> T=1 ~ 526µs
  96:../6-infRed/Me.h ****   for ( T ; T > 0 ; T-- ){
 567              		.loc 2 96 27 view .LVU132
 568 01ce 0190     		str	r0, [sp, #4]	@ T, T
 569              	@ ../6-infRed/Me.h:97:   for ( T ; T > 0 ; T-- ){
 570              		.loc 2 97 3 view .LVU133
 571 01d0 019B     		ldr	r3, [sp, #4]	@ vol.0_9, T
 572              	@ ../6-infRed/Me.h:98:    TIM3->EGR |= ( 1 << 0 );
  98:../6-infRed/Me.h ****    TIM3->EGR |= ( 1 << 0 );
 573              		.loc 2 98 14 view .LVU134
 574 01d2 094A     		ldr	r2, .L30	@ tmp132,
 575              	.L26:
  97:../6-infRed/Me.h ****   for ( T ; T > 0 ; T-- ){
 576              		.loc 2 97 13 is_stmt 1 discriminator 1 view .LVU135
 577              	@ ../6-infRed/Me.h:97:   for ( T ; T > 0 ; T-- ){
  97:../6-infRed/Me.h ****   for ( T ; T > 0 ; T-- ){
 578              		.loc 2 97 15 is_stmt 0 discriminator 1 view .LVU136
 579 01d4 019B     		ldr	r3, [sp, #4]	@ T.2_6, T
 580              	@ ../6-infRed/Me.h:97:   for ( T ; T > 0 ; T-- ){
ARM GAS  /tmp/ccgcInBj.s 			page 15


  97:../6-infRed/Me.h ****   for ( T ; T > 0 ; T-- ){
 581              		.loc 2 97 3 discriminator 1 view .LVU137
 582 01d6 0BB9     		cbnz	r3, .L28	@ T.2_6,
 583              	@ ../6-infRed/Me.h:101: }
  99:../6-infRed/Me.h ****    while ( TIM3->CNT < 5 ) ; /* 5 * 10-- Configurar para IR */
 100:../6-infRed/Me.h ****   }
 101:../6-infRed/Me.h **** }
 584              		.loc 2 101 1 view .LVU138
 585 01d8 02B0     		add	sp, sp, #8	@,,
 586              	.LCFI3:
 587              		.cfi_remember_state
 588              		.cfi_def_cfa_offset 0
 589              		@ sp needed	@
 590 01da 7047     		bx	lr	@
 591              	.L28:
 592              	.LCFI4:
 593              		.cfi_restore_state
  98:../6-infRed/Me.h ****    TIM3->EGR |= ( 1 << 0 );
 594              		.loc 2 98 4 is_stmt 1 view .LVU139
 595              	@ ../6-infRed/Me.h:98:    TIM3->EGR |= ( 1 << 0 );
  98:../6-infRed/Me.h ****    TIM3->EGR |= ( 1 << 0 );
 596              		.loc 2 98 14 is_stmt 0 view .LVU140
 597 01dc 938A     		ldrh	r3, [r2, #20]	@, MEM[(struct TIM_TypeDef *)1073742848B].EGR
 598 01de 9BB2     		uxth	r3, r3	@ _1, MEM[(struct TIM_TypeDef *)1073742848B].EGR
 599 01e0 43F00103 		orr	r3, r3, #1	@ _2, _1,
 600 01e4 9382     		strh	r3, [r2, #20]	@ movhi	@ _2, MEM[(struct TIM_TypeDef *)1073742848B].EGR
  99:../6-infRed/Me.h ****    while ( TIM3->CNT < 5 ) ; /* 5 * 10-- Configurar para IR */
 601              		.loc 2 99 4 is_stmt 1 view .LVU141
 602              	.L27:
  99:../6-infRed/Me.h ****    while ( TIM3->CNT < 5 ) ; /* 5 * 10-- Configurar para IR */
 603              		.loc 2 99 28 discriminator 1 view .LVU142
  99:../6-infRed/Me.h ****    while ( TIM3->CNT < 5 ) ; /* 5 * 10-- Configurar para IR */
 604              		.loc 2 99 10 discriminator 1 view .LVU143
 605              	@ ../6-infRed/Me.h:99:    while ( TIM3->CNT < 5 ) ; /* 5 * 10-- Configurar para IR */
  99:../6-infRed/Me.h ****    while ( TIM3->CNT < 5 ) ; /* 5 * 10-- Configurar para IR */
 606              		.loc 2 99 16 is_stmt 0 discriminator 1 view .LVU144
 607 01e6 938C     		ldrh	r3, [r2, #36]	@, MEM[(struct TIM_TypeDef *)1073742848B].CNT
 608 01e8 9BB2     		uxth	r3, r3	@ _3, MEM[(struct TIM_TypeDef *)1073742848B].CNT
 609              	@ ../6-infRed/Me.h:99:    while ( TIM3->CNT < 5 ) ; /* 5 * 10-- Configurar para IR */
  99:../6-infRed/Me.h ****    while ( TIM3->CNT < 5 ) ; /* 5 * 10-- Configurar para IR */
 610              		.loc 2 99 10 discriminator 1 view .LVU145
 611 01ea 042B     		cmp	r3, #4	@ _3,
 612 01ec FBD9     		bls	.L27		@,
  97:../6-infRed/Me.h ****    TIM3->EGR |= ( 1 << 0 );
 613              		.loc 2 97 21 is_stmt 1 discriminator 2 view .LVU146
 614              	@ ../6-infRed/Me.h:97:   for ( T ; T > 0 ; T-- ){
  97:../6-infRed/Me.h ****    TIM3->EGR |= ( 1 << 0 );
 615              		.loc 2 97 22 is_stmt 0 discriminator 2 view .LVU147
 616 01ee 019B     		ldr	r3, [sp, #4]	@ T.1_4, T
 617 01f0 013B     		subs	r3, r3, #1	@ _5, T.1_4,
 618 01f2 0193     		str	r3, [sp, #4]	@ _5, T
 619 01f4 EEE7     		b	.L26		@
 620              	.L31:
 621 01f6 00BF     		.align	2
 622              	.L30:
 623 01f8 00040040 		.word	1073742848
 624              		.cfi_endproc
ARM GAS  /tmp/ccgcInBj.s 			page 16


 625              	.LFE36:
 626              		.size	Delay, .-Delay
 627              		.align	1
 628              		.global	enable_TIM3_delay
 629              		.syntax unified
 630              		.thumb
 631              		.thumb_func
 632              		.type	enable_TIM3_delay, %function
 633              	enable_TIM3_delay:
 634              	.LFB37:
 102:../6-infRed/Me.h **** 
 103:../6-infRed/Me.h **** void enable_TIM3_delay (void) {
 635              		.loc 2 103 31 is_stmt 1 view -0
 636              		.cfi_startproc
 637              		@ args = 0, pretend = 0, frame = 0
 638              		@ frame_needed = 0, uses_anonymous_args = 0
 639              		@ link register save eliminated.
 104:../6-infRed/Me.h ****    RCC->APB1ENR |= 1<<1 ;
 640              		.loc 2 104 4 view .LVU149
 641              	@ ../6-infRed/Me.h:104:    RCC->APB1ENR |= 1<<1 ;
 642              		.loc 2 104 17 is_stmt 0 view .LVU150
 643 01fc 084A     		ldr	r2, .L33	@ tmp117,
 644 01fe D369     		ldr	r3, [r2, #28]	@ _1, MEM[(struct RCC_TypeDef *)1073876992B].APB1ENR
 645 0200 43F00203 		orr	r3, r3, #2	@ _2, _1,
 646 0204 D361     		str	r3, [r2, #28]	@ _2, MEM[(struct RCC_TypeDef *)1073876992B].APB1ENR
 105:../6-infRed/Me.h ****    TIM3->CR1 = 0x0000;
 647              		.loc 2 105 4 is_stmt 1 view .LVU151
 648              	@ ../6-infRed/Me.h:105:    TIM3->CR1 = 0x0000;
 649              		.loc 2 105 14 is_stmt 0 view .LVU152
 650 0206 0023     		movs	r3, #0	@ tmp121,
 651 0208 A2F50332 		sub	r2, r2, #134144	@ tmp119, tmp119,
 652 020c 1380     		strh	r3, [r2]	@ movhi	@ tmp121, MEM[(struct TIM_TypeDef *)1073742848B].CR1
 106:../6-infRed/Me.h ****    //TIM3->ARR = 21699;
 107:../6-infRed/Me.h ****    // TIM3->ARR = 250-1; // 10µs
 108:../6-infRed/Me.h ****    TIM3->ARR = 720-1; // 10µs
 653              		.loc 2 108 4 is_stmt 1 view .LVU153
 654              	@ ../6-infRed/Me.h:108:    TIM3->ARR = 720-1; // 10µs
 655              		.loc 2 108 14 is_stmt 0 view .LVU154
 656 020e 40F2CF23 		movw	r3, #719	@ tmp124,
 657 0212 9385     		strh	r3, [r2, #44]	@ movhi	@ tmp124, MEM[(struct TIM_TypeDef *)1073742848B].ARR
 109:../6-infRed/Me.h ****    // para obter o período de 868µs
 110:../6-infRed/Me.h **** /*https://www.vishay.com/docs/80071/dataform.pdf PAG 2
 111:../6-infRed/Me.h ****  * https://controllerstech.com/ir-remote-with-stm32/
 112:../6-infRed/Me.h ****  * Per=(1+ARR)/Clock_system */
 113:../6-infRed/Me.h ****    TIM3->CR1 |= 1<<0;
 658              		.loc 2 113 4 is_stmt 1 view .LVU155
 659              	@ ../6-infRed/Me.h:113:    TIM3->CR1 |= 1<<0;
 660              		.loc 2 113 14 is_stmt 0 view .LVU156
 661 0214 1388     		ldrh	r3, [r2]	@, MEM[(struct TIM_TypeDef *)1073742848B].CR1
 662 0216 9BB2     		uxth	r3, r3	@ _3, MEM[(struct TIM_TypeDef *)1073742848B].CR1
 663 0218 43F00103 		orr	r3, r3, #1	@ _4, _3,
 664 021c 1380     		strh	r3, [r2]	@ movhi	@ _4, MEM[(struct TIM_TypeDef *)1073742848B].CR1
 665              	@ ../6-infRed/Me.h:114: }
 114:../6-infRed/Me.h **** }
 666              		.loc 2 114 1 view .LVU157
 667 021e 7047     		bx	lr	@
 668              	.L34:
ARM GAS  /tmp/ccgcInBj.s 			page 17


 669              		.align	2
 670              	.L33:
 671 0220 00100240 		.word	1073876992
 672              		.cfi_endproc
 673              	.LFE37:
 674              		.size	enable_TIM3_delay, .-enable_TIM3_delay
 675              		.align	1
 676              		.global	enable_interrupt
 677              		.syntax unified
 678              		.thumb
 679              		.thumb_func
 680              		.type	enable_interrupt, %function
 681              	enable_interrupt:
 682              	.LVL13:
 683              	.LFB38:
 115:../6-infRed/Me.h **** 
 116:../6-infRed/Me.h **** void enable_interrupt(IRQn_Type IRQn)
 117:../6-infRed/Me.h **** {
 684              		.loc 2 117 1 is_stmt 1 view -0
 685              		.cfi_startproc
 686              		@ args = 0, pretend = 0, frame = 0
 687              		@ frame_needed = 0, uses_anonymous_args = 0
 688              		@ link register save eliminated.
 118:../6-infRed/Me.h ****    NVIC->ISER[((uint32_t)(IRQn) >> 5)] = (1 << ((uint32_t)(IRQn) & 0x1F));
 689              		.loc 2 118 4 view .LVU159
 690              	@ ../6-infRed/Me.h:118:    NVIC->ISER[((uint32_t)(IRQn) >> 5)] = (1 << ((uint32_t)(IRQn) & 0x1F));
 691              		.loc 2 118 45 is_stmt 0 view .LVU160
 692 0224 0123     		movs	r3, #1	@ tmp124,
 693              	@ ../6-infRed/Me.h:118:    NVIC->ISER[((uint32_t)(IRQn) >> 5)] = (1 << ((uint32_t)(IRQn) & 0x1F));
 694              		.loc 2 118 33 view .LVU161
 695 0226 4209     		lsrs	r2, r0, #5	@ _6, IRQn,
 696              	@ ../6-infRed/Me.h:118:    NVIC->ISER[((uint32_t)(IRQn) >> 5)] = (1 << ((uint32_t)(IRQn) & 0x1F));
 697              		.loc 2 118 66 view .LVU162
 698 0228 00F01F00 		and	r0, r0, #31	@ tmp123, IRQn,
 699              	.LVL14:
 700              	@ ../6-infRed/Me.h:118:    NVIC->ISER[((uint32_t)(IRQn) >> 5)] = (1 << ((uint32_t)(IRQn) & 0x1F));
 701              		.loc 2 118 45 view .LVU163
 702 022c 03FA00F0 		lsl	r0, r3, r0	@ _7, tmp124, tmp123
 703              	@ ../6-infRed/Me.h:118:    NVIC->ISER[((uint32_t)(IRQn) >> 5)] = (1 << ((uint32_t)(IRQn) & 0x1F));
 704              		.loc 2 118 40 view .LVU164
 705 0230 014B     		ldr	r3, .L36	@ tmp125,
 706 0232 43F82200 		str	r0, [r3, r2, lsl #2]	@ _7, MEM[(struct NVIC_Type *)3758153984B].ISER[_6]
 707              	@ ../6-infRed/Me.h:119: }  
 119:../6-infRed/Me.h **** }  
 708              		.loc 2 119 1 view .LVU165
 709 0236 7047     		bx	lr	@
 710              	.L37:
 711              		.align	2
 712              	.L36:
 713 0238 00E100E0 		.word	-536813312
 714              		.cfi_endproc
 715              	.LFE38:
 716              		.size	enable_interrupt, .-enable_interrupt
 717              		.align	1
 718              		.global	disable_interrupt
 719              		.syntax unified
 720              		.thumb
ARM GAS  /tmp/ccgcInBj.s 			page 18


 721              		.thumb_func
 722              		.type	disable_interrupt, %function
 723              	disable_interrupt:
 724              	.LVL15:
 725              	.LFB39:
 120:../6-infRed/Me.h ****    
 121:../6-infRed/Me.h **** /* 
 122:../6-infRed/Me.h ****  * Disable given interrupt
 123:../6-infRed/Me.h ****  */
 124:../6-infRed/Me.h **** void disable_interrupt(IRQn_Type IRQn)
 125:../6-infRed/Me.h **** {
 726              		.loc 2 125 1 is_stmt 1 view -0
 727              		.cfi_startproc
 728              		@ args = 0, pretend = 0, frame = 0
 729              		@ frame_needed = 0, uses_anonymous_args = 0
 730              		@ link register save eliminated.
 126:../6-infRed/Me.h ****    NVIC->ICER[((uint32_t)(IRQn) >> 5)] = (1 << ((uint32_t)(IRQn) & 0x1F));
 731              		.loc 2 126 4 view .LVU167
 732              	@ ../6-infRed/Me.h:126:    NVIC->ICER[((uint32_t)(IRQn) >> 5)] = (1 << ((uint32_t)(IRQn) & 0x1F));
 733              		.loc 2 126 45 is_stmt 0 view .LVU168
 734 023c 0122     		movs	r2, #1	@ tmp124,
 735              	@ ../6-infRed/Me.h:126:    NVIC->ICER[((uint32_t)(IRQn) >> 5)] = (1 << ((uint32_t)(IRQn) & 0x1F));
 736              		.loc 2 126 33 view .LVU169
 737 023e 4309     		lsrs	r3, r0, #5	@ _6, IRQn,
 738              	@ ../6-infRed/Me.h:126:    NVIC->ICER[((uint32_t)(IRQn) >> 5)] = (1 << ((uint32_t)(IRQn) & 0x1F));
 739              		.loc 2 126 66 view .LVU170
 740 0240 00F01F00 		and	r0, r0, #31	@ tmp123, IRQn,
 741              	.LVL16:
 742              	@ ../6-infRed/Me.h:126:    NVIC->ICER[((uint32_t)(IRQn) >> 5)] = (1 << ((uint32_t)(IRQn) & 0x1F));
 743              		.loc 2 126 45 view .LVU171
 744 0244 02FA00F0 		lsl	r0, r2, r0	@ _7, tmp124, tmp123
 745              	@ ../6-infRed/Me.h:126:    NVIC->ICER[((uint32_t)(IRQn) >> 5)] = (1 << ((uint32_t)(IRQn) & 0x1F));
 746              		.loc 2 126 40 view .LVU172
 747 0248 024A     		ldr	r2, .L39	@ tmp125,
 748 024a 2033     		adds	r3, r3, #32	@ tmp126, _6,
 749 024c 42F82300 		str	r0, [r2, r3, lsl #2]	@ _7, MEM[(struct NVIC_Type *)3758153984B].ICER[_6]
 750              	@ ../6-infRed/Me.h:127: }
 127:../6-infRed/Me.h **** }
 751              		.loc 2 127 1 view .LVU173
 752 0250 7047     		bx	lr	@
 753              	.L40:
 754 0252 00BF     		.align	2
 755              	.L39:
 756 0254 00E100E0 		.word	-536813312
 757              		.cfi_endproc
 758              	.LFE39:
 759              		.size	disable_interrupt, .-disable_interrupt
 760              		.align	1
 761              		.global	IR_Init
 762              		.syntax unified
 763              		.thumb
 764              		.thumb_func
 765              		.type	IR_Init, %function
 766              	IR_Init:
 767              	.LFB40:
 768              		.file 3 "../6-infRed/infraRed.h"
   1:../6-infRed/infraRed.h **** #include "stm32f10x.h"
ARM GAS  /tmp/ccgcInBj.s 			page 19


   2:../6-infRed/infraRed.h **** 
   3:../6-infRed/infraRed.h **** // Define o pino de entrada do receptor IR
   4:../6-infRed/infraRed.h **** #define IR_PIN GPIO_Pin_8
   5:../6-infRed/infraRed.h **** #define IR_PORT GPIOB
   6:../6-infRed/infraRed.h **** 
   7:../6-infRed/infraRed.h **** // Função para configurar o GPIO para o pino de entrada IR
   8:../6-infRed/infraRed.h **** void IR_Init(void) {
 769              		.loc 3 8 20 is_stmt 1 view -0
 770              		.cfi_startproc
 771              		@ args = 0, pretend = 0, frame = 8
 772              		@ frame_needed = 0, uses_anonymous_args = 0
   9:../6-infRed/infraRed.h ****   GPIO_InitTypeDef GPIO_InitStructure;
 773              		.loc 3 9 3 view .LVU175
  10:../6-infRed/infraRed.h **** 
  11:../6-infRed/infraRed.h ****   //RCC_APB2PeriphClockCmd(RCC_APB2Periph_GPIOA, ENABLE);
  12:../6-infRed/infraRed.h ****   RCC_APB2PeriphClockCmd(RCC_APB2Periph_GPIOB, ENABLE);
 774              		.loc 3 12 3 view .LVU176
 775              	@ ../6-infRed/infraRed.h:8: void IR_Init(void) {
   8:../6-infRed/infraRed.h ****   GPIO_InitTypeDef GPIO_InitStructure;
 776              		.loc 3 8 20 is_stmt 0 view .LVU177
 777 0258 07B5     		push	{r0, r1, r2, lr}	@
 778              	.LCFI5:
 779              		.cfi_def_cfa_offset 16
 780              		.cfi_offset 14, -4
 781              	@ ../6-infRed/infraRed.h:12:   RCC_APB2PeriphClockCmd(RCC_APB2Periph_GPIOB, ENABLE);
 782              		.loc 3 12 3 view .LVU178
 783 025a 0121     		movs	r1, #1	@,
 784 025c 0820     		movs	r0, #8	@,
 785 025e FFF7FEFF 		bl	RCC_APB2PeriphClockCmd		@
 786              	.LVL17:
  13:../6-infRed/infraRed.h **** 
  14:../6-infRed/infraRed.h ****   GPIO_InitStructure.GPIO_Pin = IR_PIN;
 787              		.loc 3 14 3 is_stmt 1 view .LVU179
 788              	@ ../6-infRed/infraRed.h:14:   GPIO_InitStructure.GPIO_Pin = IR_PIN;
 789              		.loc 3 14 31 is_stmt 0 view .LVU180
 790 0262 4FF48073 		mov	r3, #256	@ tmp114,
 791 0266 ADF80430 		strh	r3, [sp, #4]	@ movhi	@ tmp114, GPIO_InitStructure.GPIO_Pin
  15:../6-infRed/infraRed.h ****   GPIO_InitStructure.GPIO_Mode = GPIO_Mode_IN_FLOATING;
 792              		.loc 3 15 3 is_stmt 1 view .LVU181
 793              	@ ../6-infRed/infraRed.h:15:   GPIO_InitStructure.GPIO_Mode = GPIO_Mode_IN_FLOATING;
 794              		.loc 3 15 32 is_stmt 0 view .LVU182
 795 026a 0423     		movs	r3, #4	@ tmp115,
 796              	@ ../6-infRed/infraRed.h:16:   GPIO_Init(IR_PORT, &GPIO_InitStructure);
  16:../6-infRed/infraRed.h ****   GPIO_Init(IR_PORT, &GPIO_InitStructure);
 797              		.loc 3 16 3 view .LVU183
 798 026c 0448     		ldr	r0, .L42	@,
 799 026e 0DEB0301 		add	r1, sp, r3	@,,
 800              	@ ../6-infRed/infraRed.h:15:   GPIO_InitStructure.GPIO_Mode = GPIO_Mode_IN_FLOATING;
  15:../6-infRed/infraRed.h ****   GPIO_InitStructure.GPIO_Mode = GPIO_Mode_IN_FLOATING;
 801              		.loc 3 15 32 view .LVU184
 802 0272 8DF80730 		strb	r3, [sp, #7]	@ tmp115, GPIO_InitStructure.GPIO_Mode
 803              		.loc 3 16 3 is_stmt 1 view .LVU185
 804 0276 FFF7FEFF 		bl	GPIO_Init		@
 805              	.LVL18:
 806              	@ ../6-infRed/infraRed.h:18: }
  17:../6-infRed/infraRed.h **** 
  18:../6-infRed/infraRed.h **** }
ARM GAS  /tmp/ccgcInBj.s 			page 20


 807              		.loc 3 18 1 is_stmt 0 view .LVU186
 808 027a 03B0     		add	sp, sp, #12	@,,
 809              	.LCFI6:
 810              		.cfi_def_cfa_offset 4
 811              		@ sp needed	@
 812 027c 5DF804FB 		ldr	pc, [sp], #4	@
 813              	.L43:
 814              		.align	2
 815              	.L42:
 816 0280 000C0140 		.word	1073810432
 817              		.cfi_endproc
 818              	.LFE40:
 819              		.size	IR_Init, .-IR_Init
 820              		.align	1
 821              		.global	IR_Read
 822              		.syntax unified
 823              		.thumb
 824              		.thumb_func
 825              		.type	IR_Read, %function
 826              	IR_Read:
 827              	.LFB41:
  19:../6-infRed/infraRed.h **** 
  20:../6-infRed/infraRed.h **** // Função para receber o código NEC IR
  21:../6-infRed/infraRed.h **** uint32_t IR_Read(void) {
 828              		.loc 3 21 24 is_stmt 1 view -0
 829              		.cfi_startproc
 830              		@ args = 0, pretend = 0, frame = 0
 831              		@ frame_needed = 0, uses_anonymous_args = 0
  22:../6-infRed/infraRed.h ****   uint32_t code = 0;
 832              		.loc 3 22 3 view .LVU188
 833              	.LVL19:
  23:../6-infRed/infraRed.h ****   uint32_t bit = 0;
 834              		.loc 3 23 3 view .LVU189
  24:../6-infRed/infraRed.h ****   uint32_t data = 0;
 835              		.loc 3 24 3 view .LVU190
  25:../6-infRed/infraRed.h **** 
  26:../6-infRed/infraRed.h ****   // Aguarda o sinal de início (pulso LOW)
  27:../6-infRed/infraRed.h ****   while (GPIO_ReadInputDataBit(IR_PORT, IR_PIN) != 0) {}
 836              		.loc 3 27 3 view .LVU191
 837              	@ ../6-infRed/infraRed.h:21: uint32_t IR_Read(void) {
  21:../6-infRed/infraRed.h ****   uint32_t code = 0;
 838              		.loc 3 21 24 is_stmt 0 view .LVU192
 839 0284 70B5     		push	{r4, r5, r6, lr}	@
 840              	.LCFI7:
 841              		.cfi_def_cfa_offset 16
 842              		.cfi_offset 4, -16
 843              		.cfi_offset 5, -12
 844              		.cfi_offset 6, -8
 845              		.cfi_offset 14, -4
 846              	@ ../6-infRed/infraRed.h:27:   while (GPIO_ReadInputDataBit(IR_PORT, IR_PIN) != 0) {}
 847              		.loc 3 27 10 view .LVU193
 848 0286 184C     		ldr	r4, .L58	@ tmp140,
 849              	.L45:
 850              		.loc 3 27 56 is_stmt 1 discriminator 1 view .LVU194
 851              		.loc 3 27 9 discriminator 1 view .LVU195
 852              	@ ../6-infRed/infraRed.h:27:   while (GPIO_ReadInputDataBit(IR_PORT, IR_PIN) != 0) {}
 853              		.loc 3 27 10 is_stmt 0 discriminator 1 view .LVU196
ARM GAS  /tmp/ccgcInBj.s 			page 21


 854 0288 4FF48071 		mov	r1, #256	@,
 855 028c 2046     		mov	r0, r4	@, tmp140
 856 028e FFF7FEFF 		bl	GPIO_ReadInputDataBit		@
 857              	.LVL20:
 858              	@ ../6-infRed/infraRed.h:27:   while (GPIO_ReadInputDataBit(IR_PORT, IR_PIN) != 0) {}
 859              		.loc 3 27 9 discriminator 1 view .LVU197
 860 0292 0028     		cmp	r0, #0	@ tmp141
 861 0294 F8D1     		bne	.L45	@
 862              	@ ../6-infRed/infraRed.h:30:   while (GPIO_ReadInputDataBit(IR_PORT, IR_PIN) == 0) {}
  28:../6-infRed/infraRed.h ****   
  29:../6-infRed/infraRed.h ****   // Aguarda o sinal de início (pulso HIGH)
  30:../6-infRed/infraRed.h ****   while (GPIO_ReadInputDataBit(IR_PORT, IR_PIN) == 0) {}
 863              		.loc 3 30 10 view .LVU198
 864 0296 144C     		ldr	r4, .L58	@ tmp138,
 865              	.L46:
 866              		.loc 3 30 56 is_stmt 1 discriminator 1 view .LVU199
 867              		.loc 3 30 9 discriminator 1 view .LVU200
 868              	@ ../6-infRed/infraRed.h:30:   while (GPIO_ReadInputDataBit(IR_PORT, IR_PIN) == 0) {}
 869              		.loc 3 30 10 is_stmt 0 discriminator 1 view .LVU201
 870 0298 4FF48071 		mov	r1, #256	@,
 871 029c 2046     		mov	r0, r4	@, tmp138
 872 029e FFF7FEFF 		bl	GPIO_ReadInputDataBit		@
 873              	.LVL21:
 874              	@ ../6-infRed/infraRed.h:30:   while (GPIO_ReadInputDataBit(IR_PORT, IR_PIN) == 0) {}
 875              		.loc 3 30 9 discriminator 1 view .LVU202
 876 02a2 0028     		cmp	r0, #0	@ tmp142
 877 02a4 F8D0     		beq	.L46	@
 878              	@ ../6-infRed/infraRed.h:33:   while (GPIO_ReadInputDataBit(IR_PORT, IR_PIN) != 0) {}
  31:../6-infRed/infraRed.h ****   
  32:../6-infRed/infraRed.h ****   // Aguarda o sinal de 9 ms (pulso LOW)
  33:../6-infRed/infraRed.h ****   while (GPIO_ReadInputDataBit(IR_PORT, IR_PIN) != 0) {}
 879              		.loc 3 33 10 view .LVU203
 880 02a6 104D     		ldr	r5, .L58	@ tmp136,
 881              	.L47:
 882              		.loc 3 33 56 is_stmt 1 discriminator 1 view .LVU204
 883              		.loc 3 33 9 discriminator 1 view .LVU205
 884              	@ ../6-infRed/infraRed.h:33:   while (GPIO_ReadInputDataBit(IR_PORT, IR_PIN) != 0) {}
 885              		.loc 3 33 10 is_stmt 0 discriminator 1 view .LVU206
 886 02a8 4FF48071 		mov	r1, #256	@,
 887 02ac 2846     		mov	r0, r5	@, tmp136
 888 02ae FFF7FEFF 		bl	GPIO_ReadInputDataBit		@
 889              	.LVL22:
 890              	@ ../6-infRed/infraRed.h:33:   while (GPIO_ReadInputDataBit(IR_PORT, IR_PIN) != 0) {}
 891              		.loc 3 33 9 discriminator 1 view .LVU207
 892 02b2 0446     		mov	r4, r0	@ tmp126, tmp143
 893 02b4 0028     		cmp	r0, #0	@ tmp126
 894 02b6 F7D1     		bne	.L47	@
 895              	@ ../6-infRed/infraRed.h:22:   uint32_t code = 0;
  22:../6-infRed/infraRed.h ****   uint32_t bit = 0;
 896              		.loc 3 22 12 view .LVU208
 897 02b8 0546     		mov	r5, r0	@ <retval>, bit
 898              	@ ../6-infRed/infraRed.h:44:     data = GPIO_ReadInputDataBit(IR_PORT, IR_PIN);
  34:../6-infRed/infraRed.h **** 
  35:../6-infRed/infraRed.h ****   // Recebe o código NEC IR
  36:../6-infRed/infraRed.h ****   for (bit = 0; bit < 32; bit++) {
  37:../6-infRed/infraRed.h ****     // Aguarda o próximo bit
  38:../6-infRed/infraRed.h ****     // while (GPIO_ReadInputDataBit(IR_PORT, IR_PIN) == 0) {}
ARM GAS  /tmp/ccgcInBj.s 			page 22


  39:../6-infRed/infraRed.h ****     
  40:../6-infRed/infraRed.h ****     // Aguarda o próximo espaço
  41:../6-infRed/infraRed.h ****     // while (GPIO_ReadInputDataBit(IR_PORT, IR_PIN) != 0) {}
  42:../6-infRed/infraRed.h **** 	 __delay(200);
  43:../6-infRed/infraRed.h **** 
  44:../6-infRed/infraRed.h ****     data = GPIO_ReadInputDataBit(IR_PORT, IR_PIN);
 899              		.loc 3 44 12 view .LVU209
 900 02ba 0B4E     		ldr	r6, .L58	@ tmp134,
 901              	.LVL23:
 902              	.L49:
  42:../6-infRed/infraRed.h **** 
 903              		.loc 3 42 3 is_stmt 1 view .LVU210
 904 02bc C820     		movs	r0, #200	@,
 905 02be FFF7FEFF 		bl	vTaskDelay		@
 906              	.LVL24:
 907              		.loc 3 44 5 view .LVU211
 908              	@ ../6-infRed/infraRed.h:44:     data = GPIO_ReadInputDataBit(IR_PORT, IR_PIN);
 909              		.loc 3 44 12 is_stmt 0 view .LVU212
 910 02c2 4FF48071 		mov	r1, #256	@,
 911 02c6 3046     		mov	r0, r6	@, tmp134
 912 02c8 FFF7FEFF 		bl	GPIO_ReadInputDataBit		@
 913              	.LVL25:
  45:../6-infRed/infraRed.h ****     
  46:../6-infRed/infraRed.h ****     // Se o espaço tiver uma duração maior que 1.2 ms o bit é 1, caso contrário é 0
  47:../6-infRed/infraRed.h ****     if (data > 0) {
 914              		.loc 3 47 5 is_stmt 1 view .LVU213
 915              	@ ../6-infRed/infraRed.h:47:     if (data > 0) {
 916              		.loc 3 47 8 is_stmt 0 view .LVU214
 917 02cc 10B1     		cbz	r0, .L48	@ tmp144,
  48:../6-infRed/infraRed.h ****       code |= (1 << bit);
 918              		.loc 3 48 7 is_stmt 1 view .LVU215
 919              	@ ../6-infRed/infraRed.h:48:       code |= (1 << bit);
 920              		.loc 3 48 18 is_stmt 0 view .LVU216
 921 02ce 0123     		movs	r3, #1	@ tmp130,
 922 02d0 A340     		lsls	r3, r3, r4	@ tmp129, tmp130, bit
 923              	@ ../6-infRed/infraRed.h:48:       code |= (1 << bit);
 924              		.loc 3 48 12 view .LVU217
 925 02d2 1D43     		orrs	r5, r5, r3	@, <retval>, <retval>, tmp129
 926              	.LVL26:
 927              	.L48:
  49:../6-infRed/infraRed.h ****     }
  50:../6-infRed/infraRed.h **** 	// Aguarda o próximo espaço
  51:../6-infRed/infraRed.h **** 	 __delay(300);
 928              		.loc 3 51 3 is_stmt 1 discriminator 2 view .LVU218
 929 02d4 4FF49670 		mov	r0, #300	@,
 930              	.LVL27:
 931              	@ ../6-infRed/infraRed.h:36:   for (bit = 0; bit < 32; bit++) {
  36:../6-infRed/infraRed.h ****     // Aguarda o próximo bit
 932              		.loc 3 36 30 is_stmt 0 discriminator 2 view .LVU219
 933 02d8 0134     		adds	r4, r4, #1	@ bit, bit,
 934              	.LVL28:
 935              	@ ../6-infRed/infraRed.h:51: 	 __delay(300);
 936              		.loc 3 51 3 discriminator 2 view .LVU220
 937 02da FFF7FEFF 		bl	vTaskDelay		@
 938              	.LVL29:
  36:../6-infRed/infraRed.h ****     // Aguarda o próximo bit
 939              		.loc 3 36 27 is_stmt 1 discriminator 2 view .LVU221
ARM GAS  /tmp/ccgcInBj.s 			page 23


  36:../6-infRed/infraRed.h ****     // Aguarda o próximo bit
 940              		.loc 3 36 17 discriminator 2 view .LVU222
 941              	@ ../6-infRed/infraRed.h:36:   for (bit = 0; bit < 32; bit++) {
  36:../6-infRed/infraRed.h ****     // Aguarda o próximo bit
 942              		.loc 3 36 3 is_stmt 0 discriminator 2 view .LVU223
 943 02de 202C     		cmp	r4, #32	@ bit,
 944 02e0 ECD1     		bne	.L49		@,
  52:../6-infRed/infraRed.h ****   }
  53:../6-infRed/infraRed.h **** 
  54:../6-infRed/infraRed.h ****   return code;
 945              		.loc 3 54 3 is_stmt 1 view .LVU224
 946              	@ ../6-infRed/infraRed.h:55: }
  55:../6-infRed/infraRed.h **** }
 947              		.loc 3 55 1 is_stmt 0 view .LVU225
 948 02e2 2846     		mov	r0, r5	@, <retval>
 949 02e4 70BD     		pop	{r4, r5, r6, pc}	@
 950              	.LVL30:
 951              	.L59:
 952              		.loc 3 55 1 view .LVU226
 953 02e6 00BF     		.align	2
 954              	.L58:
 955 02e8 000C0140 		.word	1073810432
 956              		.cfi_endproc
 957              	.LFE41:
 958              		.size	IR_Read, .-IR_Read
 959              		.align	1
 960              		.global	USART_init
 961              		.syntax unified
 962              		.thumb
 963              		.thumb_func
 964              		.type	USART_init, %function
 965              	USART_init:
 966              	.LFB42:
 967              		.file 4 "../6-infRed/Serial.h"
   1:../6-infRed/Serial.h **** // #ifndef	SERIAL_K
   2:../6-infRed/Serial.h **** // #define 	SERIAL_K
   3:../6-infRed/Serial.h **** 
   4:../6-infRed/Serial.h **** void USARTSend(char *pucBuffer);
   5:../6-infRed/Serial.h **** void USART_init(void);
   6:../6-infRed/Serial.h **** 
   7:../6-infRed/Serial.h **** void USART_init(void) {
 968              		.loc 4 7 23 is_stmt 1 view -0
 969              		.cfi_startproc
 970              		@ args = 0, pretend = 0, frame = 24
 971              		@ frame_needed = 0, uses_anonymous_args = 0
   8:../6-infRed/Serial.h ****    /* Enable USART1 and GPIOA clock */
   9:../6-infRed/Serial.h ****    RCC_APB2PeriphClockCmd(RCC_APB2Periph_USART1 | RCC_APB2Periph_GPIOA, ENABLE);
 972              		.loc 4 9 4 view .LVU228
 973              	@ ../6-infRed/Serial.h:7: void USART_init(void) {
   7:../6-infRed/Serial.h ****    /* Enable USART1 and GPIOA clock */
 974              		.loc 4 7 23 is_stmt 0 view .LVU229
 975 02ec 10B5     		push	{r4, lr}	@
 976              	.LCFI8:
 977              		.cfi_def_cfa_offset 8
 978              		.cfi_offset 4, -8
 979              		.cfi_offset 14, -4
 980              	@ ../6-infRed/Serial.h:9:    RCC_APB2PeriphClockCmd(RCC_APB2Periph_USART1 | RCC_APB2Periph_GPIOA, E
ARM GAS  /tmp/ccgcInBj.s 			page 24


 981              		.loc 4 9 4 view .LVU230
 982 02ee 0121     		movs	r1, #1	@,
 983              	@ ../6-infRed/Serial.h:7: void USART_init(void) {
   7:../6-infRed/Serial.h ****    /* Enable USART1 and GPIOA clock */
 984              		.loc 4 7 23 view .LVU231
 985 02f0 86B0     		sub	sp, sp, #24	@,,
 986              	.LCFI9:
 987              		.cfi_def_cfa_offset 32
 988              	@ ../6-infRed/Serial.h:9:    RCC_APB2PeriphClockCmd(RCC_APB2Periph_USART1 | RCC_APB2Periph_GPIOA, E
 989              		.loc 4 9 4 view .LVU232
 990 02f2 44F20400 		movw	r0, #16388	@,
 991 02f6 FFF7FEFF 		bl	RCC_APB2PeriphClockCmd		@
 992              	.LVL31:
  10:../6-infRed/Serial.h **** 
  11:../6-infRed/Serial.h ****    /* Configure the GPIOs */
  12:../6-infRed/Serial.h ****    GPIO_InitTypeDef GPIO_InitStructure;
 993              		.loc 4 12 4 is_stmt 1 view .LVU233
  13:../6-infRed/Serial.h **** 
  14:../6-infRed/Serial.h ****    /* Configure USART1 Tx (PA.09) as alternate function push-pull */
  15:../6-infRed/Serial.h ****    GPIO_InitStructure.GPIO_Pin = GPIO_Pin_9;
 994              		.loc 4 15 4 view .LVU234
  16:../6-infRed/Serial.h ****    GPIO_InitStructure.GPIO_Mode = GPIO_Mode_AF_PP;
 995              		.loc 4 16 4 view .LVU235
  17:../6-infRed/Serial.h ****    GPIO_InitStructure.GPIO_Speed = GPIO_Speed_50MHz;
 996              		.loc 4 17 4 view .LVU236
 997              	@ ../6-infRed/Serial.h:15:    GPIO_InitStructure.GPIO_Pin = GPIO_Pin_9;
  15:../6-infRed/Serial.h ****    GPIO_InitStructure.GPIO_Mode = GPIO_Mode_AF_PP;
 998              		.loc 4 15 32 is_stmt 0 view .LVU237
 999 02fa 4FF40073 		mov	r3, #512	@ tmp114,
 1000 02fe ADF80430 		strh	r3, [sp, #4]	@ movhi	@ tmp114, GPIO_InitStructure.GPIO_Pin
 1001              	@ ../6-infRed/Serial.h:17:    GPIO_InitStructure.GPIO_Speed = GPIO_Speed_50MHz;
 1002              		.loc 4 17 34 view .LVU238
 1003 0302 41F60303 		movw	r3, #6147	@ tmp116,
 1004              	@ ../6-infRed/Serial.h:18:    GPIO_Init(GPIOA, &GPIO_InitStructure);
  18:../6-infRed/Serial.h ****    GPIO_Init(GPIOA, &GPIO_InitStructure);
 1005              		.loc 4 18 4 view .LVU239
 1006 0306 144C     		ldr	r4, .L61	@ tmp118,
 1007 0308 01A9     		add	r1, sp, #4	@ tmp134,,
 1008 030a 2046     		mov	r0, r4	@, tmp118
 1009              	@ ../6-infRed/Serial.h:17:    GPIO_InitStructure.GPIO_Speed = GPIO_Speed_50MHz;
  17:../6-infRed/Serial.h ****    GPIO_InitStructure.GPIO_Speed = GPIO_Speed_50MHz;
 1010              		.loc 4 17 34 view .LVU240
 1011 030c ADF80630 		strh	r3, [sp, #6]	@ movhi	@ tmp116, MEM <unsigned short> [(void *)&GPIO_InitStructure + 2B]
 1012              		.loc 4 18 4 is_stmt 1 view .LVU241
 1013 0310 FFF7FEFF 		bl	GPIO_Init		@
 1014              	.LVL32:
  19:../6-infRed/Serial.h **** 
  20:../6-infRed/Serial.h ****    /* Configure USART1 Rx (PA.10) as input floating */
  21:../6-infRed/Serial.h ****    GPIO_InitStructure.GPIO_Pin = GPIO_Pin_10;
 1015              		.loc 4 21 4 view .LVU242
 1016              	@ ../6-infRed/Serial.h:21:    GPIO_InitStructure.GPIO_Pin = GPIO_Pin_10;
 1017              		.loc 4 21 32 is_stmt 0 view .LVU243
 1018 0314 4FF48063 		mov	r3, #1024	@ tmp120,
 1019 0318 ADF80430 		strh	r3, [sp, #4]	@ movhi	@ tmp120, GPIO_InitStructure.GPIO_Pin
  22:../6-infRed/Serial.h ****    GPIO_InitStructure.GPIO_Mode = GPIO_Mode_IN_FLOATING;
 1020              		.loc 4 22 4 is_stmt 1 view .LVU244
 1021              	@ ../6-infRed/Serial.h:22:    GPIO_InitStructure.GPIO_Mode = GPIO_Mode_IN_FLOATING;
ARM GAS  /tmp/ccgcInBj.s 			page 25


 1022              		.loc 4 22 33 is_stmt 0 view .LVU245
 1023 031c 0423     		movs	r3, #4	@ tmp121,
 1024              	@ ../6-infRed/Serial.h:23:    GPIO_Init(GPIOA, &GPIO_InitStructure);
  23:../6-infRed/Serial.h ****    GPIO_Init(GPIOA, &GPIO_InitStructure);
 1025              		.loc 4 23 4 view .LVU246
 1026 031e 2046     		mov	r0, r4	@, tmp118
 1027 0320 0DEB0301 		add	r1, sp, r3	@ tmp135,,
 1028              	@ ../6-infRed/Serial.h:22:    GPIO_InitStructure.GPIO_Mode = GPIO_Mode_IN_FLOATING;
  22:../6-infRed/Serial.h ****    GPIO_InitStructure.GPIO_Mode = GPIO_Mode_IN_FLOATING;
 1029              		.loc 4 22 33 view .LVU247
 1030 0324 8DF80730 		strb	r3, [sp, #7]	@ tmp121, GPIO_InitStructure.GPIO_Mode
 1031              		.loc 4 23 4 is_stmt 1 view .LVU248
 1032 0328 FFF7FEFF 		bl	GPIO_Init		@
 1033              	.LVL33:
  24:../6-infRed/Serial.h **** 
  25:../6-infRed/Serial.h ****    /* Configure the USART1 */
  26:../6-infRed/Serial.h ****    USART_InitTypeDef USART_InitStructure;
 1034              		.loc 4 26 4 view .LVU249
  27:../6-infRed/Serial.h ****    USART_InitStructure.USART_BaudRate = 115200;
 1035              		.loc 4 27 4 view .LVU250
  28:../6-infRed/Serial.h ****    USART_InitStructure.USART_WordLength = USART_WordLength_8b;
 1036              		.loc 4 28 4 view .LVU251
  29:../6-infRed/Serial.h ****    USART_InitStructure.USART_StopBits = USART_StopBits_1;
 1037              		.loc 4 29 4 view .LVU252
  30:../6-infRed/Serial.h ****    USART_InitStructure.USART_Parity = USART_Parity_No;
 1038              		.loc 4 30 4 view .LVU253
  31:../6-infRed/Serial.h ****    USART_InitStructure.USART_HardwareFlowControl = USART_HardwareFlowControl_None;
 1039              		.loc 4 31 4 view .LVU254
  32:../6-infRed/Serial.h ****    USART_InitStructure.USART_Mode = USART_Mode_Rx | USART_Mode_Tx;
 1040              		.loc 4 32 4 view .LVU255
 1041              	@ ../6-infRed/Serial.h:28:    USART_InitStructure.USART_WordLength = USART_WordLength_8b;
  28:../6-infRed/Serial.h ****    USART_InitStructure.USART_StopBits = USART_StopBits_1;
 1042              		.loc 4 28 41 is_stmt 0 view .LVU256
 1043 032c 0023     		movs	r3, #0	@ tmp126,
 1044 032e 4FF4E132 		mov	r2, #115200	@,
 1045 0332 CDE90223 		strd	r2, r3, [sp, #8]	@, tmp126,,
 1046              	@ ../6-infRed/Serial.h:30:    USART_InitStructure.USART_Parity = USART_Parity_No;
  30:../6-infRed/Serial.h ****    USART_InitStructure.USART_HardwareFlowControl = USART_HardwareFlowControl_None;
 1047              		.loc 4 30 37 view .LVU257
 1048 0336 4FF44022 		mov	r2, #786432	@ tmp127,
 1049              	@ ../6-infRed/Serial.h:34:    USART_Init(USART1, &USART_InitStructure);
  33:../6-infRed/Serial.h **** 
  34:../6-infRed/Serial.h ****    USART_Init(USART1, &USART_InitStructure);
 1050              		.loc 4 34 4 view .LVU258
 1051 033a 04F54054 		add	r4, r4, #12288	@ tmp131, tmp131,
 1052 033e 2046     		mov	r0, r4	@, tmp131
 1053 0340 02A9     		add	r1, sp, #8	@,,
 1054              	@ ../6-infRed/Serial.h:30:    USART_InitStructure.USART_Parity = USART_Parity_No;
  30:../6-infRed/Serial.h ****    USART_InitStructure.USART_HardwareFlowControl = USART_HardwareFlowControl_None;
 1055              		.loc 4 30 37 view .LVU259
 1056 0342 0492     		str	r2, [sp, #16]	@ tmp127, MEM <unsigned int> [(short unsigned int *)&USART_InitStructure + 8B]
 1057              	@ ../6-infRed/Serial.h:31:    USART_InitStructure.USART_HardwareFlowControl = USART_HardwareFlowCon
  31:../6-infRed/Serial.h ****    USART_InitStructure.USART_Mode = USART_Mode_Rx | USART_Mode_Tx;
 1058              		.loc 4 31 50 view .LVU260
 1059 0344 ADF81430 		strh	r3, [sp, #20]	@ movhi	@ tmp126, USART_InitStructure.USART_HardwareFlowControl
 1060              		.loc 4 34 4 is_stmt 1 view .LVU261
 1061 0348 FFF7FEFF 		bl	USART_Init		@
ARM GAS  /tmp/ccgcInBj.s 			page 26


 1062              	.LVL34:
  35:../6-infRed/Serial.h **** 
  36:../6-infRed/Serial.h ****    /* Enable USART1 */
  37:../6-infRed/Serial.h ****    USART_Cmd(USART1, ENABLE);
 1063              		.loc 4 37 4 view .LVU262
 1064 034c 0121     		movs	r1, #1	@,
 1065 034e 2046     		mov	r0, r4	@, tmp131
 1066 0350 FFF7FEFF 		bl	USART_Cmd		@
 1067              	.LVL35:
 1068              	@ ../6-infRed/Serial.h:38: }
  38:../6-infRed/Serial.h **** }
 1069              		.loc 4 38 1 is_stmt 0 view .LVU263
 1070 0354 06B0     		add	sp, sp, #24	@,,
 1071              	.LCFI10:
 1072              		.cfi_def_cfa_offset 8
 1073              		@ sp needed	@
 1074 0356 10BD     		pop	{r4, pc}	@
 1075              	.L62:
 1076              		.align	2
 1077              	.L61:
 1078 0358 00080140 		.word	1073809408
 1079              		.cfi_endproc
 1080              	.LFE42:
 1081              		.size	USART_init, .-USART_init
 1082              		.align	1
 1083              		.global	USARTSend
 1084              		.syntax unified
 1085              		.thumb
 1086              		.thumb_func
 1087              		.type	USARTSend, %function
 1088              	USARTSend:
 1089              	.LVL36:
 1090              	.LFB43:
  39:../6-infRed/Serial.h **** 
  40:../6-infRed/Serial.h **** void USARTSend(char *pucBuffer) {
 1091              		.loc 4 40 33 is_stmt 1 view -0
 1092              		.cfi_startproc
 1093              		@ args = 0, pretend = 0, frame = 0
 1094              		@ frame_needed = 0, uses_anonymous_args = 0
  41:../6-infRed/Serial.h ****     while (*pucBuffer)
 1095              		.loc 4 41 5 view .LVU265
 1096              	@ ../6-infRed/Serial.h:40: void USARTSend(char *pucBuffer) {
  40:../6-infRed/Serial.h ****     while (*pucBuffer)
 1097              		.loc 4 40 33 is_stmt 0 view .LVU266
 1098 035c 38B5     		push	{r3, r4, r5, lr}	@
 1099              	.LCFI11:
 1100              		.cfi_def_cfa_offset 16
 1101              		.cfi_offset 3, -16
 1102              		.cfi_offset 4, -12
 1103              		.cfi_offset 5, -8
 1104              		.cfi_offset 14, -4
 1105              	@ ../6-infRed/Serial.h:43:         USART_SendData(USART1, *pucBuffer++);
  42:../6-infRed/Serial.h ****     {
  43:../6-infRed/Serial.h ****         USART_SendData(USART1, *pucBuffer++);
 1106              		.loc 4 43 9 view .LVU267
 1107 035e 084D     		ldr	r5, .L69	@ tmp126,
 1108 0360 441E     		subs	r4, r0, #1	@ ivtmp.70, tmp128,
ARM GAS  /tmp/ccgcInBj.s 			page 27


 1109              	.LVL37:
 1110              	.L64:
  41:../6-infRed/Serial.h ****     {
 1111              		.loc 4 41 11 is_stmt 1 view .LVU268
 1112              	@ ../6-infRed/Serial.h:41:     while (*pucBuffer)
  41:../6-infRed/Serial.h ****     {
 1113              		.loc 4 41 12 is_stmt 0 view .LVU269
 1114 0362 14F8011F 		ldrb	r1, [r4, #1]!	@ zero_extendqisi2	@ _3, MEM[base: _16, offset: 0B]
 1115              	.LVL38:
 1116              	@ ../6-infRed/Serial.h:41:     while (*pucBuffer)
  41:../6-infRed/Serial.h ****     {
 1117              		.loc 4 41 11 view .LVU270
 1118 0366 01B9     		cbnz	r1, .L66	@ _3,
 1119              	@ ../6-infRed/Serial.h:48: }
  44:../6-infRed/Serial.h ****         while(USART_GetFlagStatus(USART1, USART_FLAG_TC) == RESET)
  45:../6-infRed/Serial.h ****         {
  46:../6-infRed/Serial.h ****         }
  47:../6-infRed/Serial.h ****     }
  48:../6-infRed/Serial.h **** }
 1120              		.loc 4 48 1 view .LVU271
 1121 0368 38BD     		pop	{r3, r4, r5, pc}	@
 1122              	.LVL39:
 1123              	.L66:
  43:../6-infRed/Serial.h ****         while(USART_GetFlagStatus(USART1, USART_FLAG_TC) == RESET)
 1124              		.loc 4 43 9 is_stmt 1 view .LVU272
  43:../6-infRed/Serial.h ****         while(USART_GetFlagStatus(USART1, USART_FLAG_TC) == RESET)
 1125              		.loc 4 43 9 is_stmt 0 view .LVU273
 1126 036a 2846     		mov	r0, r5	@, tmp126
 1127 036c FFF7FEFF 		bl	USART_SendData		@
 1128              	.LVL40:
  44:../6-infRed/Serial.h ****         while(USART_GetFlagStatus(USART1, USART_FLAG_TC) == RESET)
 1129              		.loc 4 44 9 is_stmt 1 view .LVU274
 1130              	.L65:
  46:../6-infRed/Serial.h ****     }
 1131              		.loc 4 46 9 discriminator 1 view .LVU275
  44:../6-infRed/Serial.h ****         while(USART_GetFlagStatus(USART1, USART_FLAG_TC) == RESET)
 1132              		.loc 4 44 14 discriminator 1 view .LVU276
 1133              	@ ../6-infRed/Serial.h:44:         while(USART_GetFlagStatus(USART1, USART_FLAG_TC) == RESET)
  44:../6-infRed/Serial.h ****         while(USART_GetFlagStatus(USART1, USART_FLAG_TC) == RESET)
 1134              		.loc 4 44 15 is_stmt 0 discriminator 1 view .LVU277
 1135 0370 4021     		movs	r1, #64	@,
 1136 0372 2846     		mov	r0, r5	@, tmp126
 1137 0374 FFF7FEFF 		bl	USART_GetFlagStatus		@
 1138              	.LVL41:
 1139              	@ ../6-infRed/Serial.h:44:         while(USART_GetFlagStatus(USART1, USART_FLAG_TC) == RESET)
  44:../6-infRed/Serial.h ****         while(USART_GetFlagStatus(USART1, USART_FLAG_TC) == RESET)
 1140              		.loc 4 44 14 discriminator 1 view .LVU278
 1141 0378 0028     		cmp	r0, #0	@ tmp129
 1142 037a F9D0     		beq	.L65	@
 1143 037c F1E7     		b	.L64		@
 1144              	.L70:
 1145 037e 00BF     		.align	2
 1146              	.L69:
 1147 0380 00380140 		.word	1073821696
 1148              		.cfi_endproc
 1149              	.LFE43:
 1150              		.size	USARTSend, .-USARTSend
ARM GAS  /tmp/ccgcInBj.s 			page 28


 1151              		.section	.rodata.str1.1
 1152              	.LC2:
 1153 0019 0A0D2D54 		.ascii	"\012\015-Transmitindo!! \015\012\000"
 1153      72616E73 
 1153      6D697469 
 1153      6E646F21 
 1153      21200D0A 
 1154              	.LC3:
 1155 002e 0A0D4573 		.ascii	"\012\015Esperando sinal\012\000"
 1155      70657261 
 1155      6E646F20 
 1155      73696E61 
 1155      6C0A00
 1156              	.LC4:
 1157 0041 0D0A436F 		.ascii	"\015\012Codigo: \000"
 1157      6469676F 
 1157      3A2000
 1158              		.text
 1159              		.align	1
 1160              		.syntax unified
 1161              		.thumb
 1162              		.thumb_func
 1163              		.type	task3, %function
 1164              	task3:
 1165              	.LVL42:
 1166              	.LFB46:
  73:../6-infRed/main.c **** 	}
  74:../6-infRed/main.c **** 	USARTSend("Tarefa2 ** \n\r");
  75:../6-infRed/main.c **** }
  76:../6-infRed/main.c **** 
  77:../6-infRed/main.c **** static void task3(void *args __attribute ((unused))){
 1167              		.loc 1 77 53 is_stmt 1 view -0
 1168              		.cfi_startproc
 1169              		@ args = 0, pretend = 0, frame = 8
 1170              		@ frame_needed = 0, uses_anonymous_args = 0
  78:../6-infRed/main.c **** 	USART_init();
 1171              		.loc 1 78 2 view .LVU280
 1172              	@ ../6-infRed/main.c:77: static void task3(void *args __attribute ((unused))){
  77:../6-infRed/main.c **** 	USART_init();
 1173              		.loc 1 77 53 is_stmt 0 view .LVU281
 1174 0384 73B5     		push	{r0, r1, r4, r5, r6, lr}	@
 1175              	.LCFI12:
 1176              		.cfi_def_cfa_offset 24
 1177              		.cfi_offset 4, -16
 1178              		.cfi_offset 5, -12
 1179              		.cfi_offset 6, -8
 1180              		.cfi_offset 14, -4
 1181              	@ ../6-infRed/main.c:78: 	USART_init();
 1182              		.loc 1 78 2 view .LVU282
 1183 0386 FFF7FEFF 		bl	USART_init		@
 1184              	.LVL43:
  79:../6-infRed/main.c **** 	IR_Init();
 1185              		.loc 1 79 2 is_stmt 1 view .LVU283
 1186 038a FFF7FEFF 		bl	IR_Init		@
 1187              	.LVL44:
  80:../6-infRed/main.c **** 
  81:../6-infRed/main.c **** 	char word_IR[8];
ARM GAS  /tmp/ccgcInBj.s 			page 29


 1188              		.loc 1 81 2 view .LVU284
  82:../6-infRed/main.c **** 
  83:../6-infRed/main.c **** 	u32 code_ir;
 1189              		.loc 1 83 2 view .LVU285
  84:../6-infRed/main.c **** 
  85:../6-infRed/main.c **** 		USARTSend("\n\r-Transmitindo!! \r\n");
 1190              		.loc 1 85 3 view .LVU286
 1191 038e 0B48     		ldr	r0, .L73	@,
 1192 0390 FFF7FEFF 		bl	USARTSend		@
 1193              	.LVL45:
 1194              	@ ../6-infRed/main.c:87: 		USARTSend("\n\rEsperando sinal\n");
  86:../6-infRed/main.c **** 	while(1){
  87:../6-infRed/main.c **** 		USARTSend("\n\rEsperando sinal\n");
 1195              		.loc 1 87 3 is_stmt 0 view .LVU287
 1196 0394 0A4E     		ldr	r6, .L73+4	@ tmp121,
 1197              	@ ../6-infRed/main.c:91: 		USARTSend("\r\nCodigo: ");
  88:../6-infRed/main.c **** 		
  89:../6-infRed/main.c **** 		code_ir = IR_Read();
  90:../6-infRed/main.c **** 
  91:../6-infRed/main.c **** 		USARTSend("\r\nCodigo: ");
 1198              		.loc 1 91 3 view .LVU288
 1199 0396 0B4D     		ldr	r5, .L73+8	@ tmp122,
 1200              	.L72:
  86:../6-infRed/main.c **** 	while(1){
 1201              		.loc 1 86 2 is_stmt 1 discriminator 1 view .LVU289
  87:../6-infRed/main.c **** 		
 1202              		.loc 1 87 3 discriminator 1 view .LVU290
 1203 0398 3046     		mov	r0, r6	@, tmp121
 1204 039a FFF7FEFF 		bl	USARTSend		@
 1205              	.LVL46:
  89:../6-infRed/main.c **** 
 1206              		.loc 1 89 3 discriminator 1 view .LVU291
 1207              	@ ../6-infRed/main.c:89: 		code_ir = IR_Read();
  89:../6-infRed/main.c **** 
 1208              		.loc 1 89 13 is_stmt 0 discriminator 1 view .LVU292
 1209 039e FFF7FEFF 		bl	IR_Read		@
 1210              	.LVL47:
 1211 03a2 0446     		mov	r4, r0	@ code_ir, tmp123
 1212              	.LVL48:
 1213              		.loc 1 91 3 is_stmt 1 discriminator 1 view .LVU293
 1214 03a4 2846     		mov	r0, r5	@, tmp122
 1215              	.LVL49:
 1216              		.loc 1 91 3 is_stmt 0 discriminator 1 view .LVU294
 1217 03a6 FFF7FEFF 		bl	USARTSend		@
 1218              	.LVL50:
  92:../6-infRed/main.c **** 		itoa (code_ir, word_IR, 16);
 1219              		.loc 1 92 3 is_stmt 1 discriminator 1 view .LVU295
 1220 03aa 1022     		movs	r2, #16	@,
 1221 03ac 6946     		mov	r1, sp	@,
 1222 03ae 2046     		mov	r0, r4	@, code_ir
 1223 03b0 FFF7FEFF 		bl	itoa		@
 1224              	.LVL51:
  93:../6-infRed/main.c **** 		USARTSend(word_IR);
 1225              		.loc 1 93 3 discriminator 1 view .LVU296
 1226 03b4 6846     		mov	r0, sp	@,
 1227 03b6 FFF7FEFF 		bl	USARTSend		@
 1228              	.LVL52:
ARM GAS  /tmp/ccgcInBj.s 			page 30


  86:../6-infRed/main.c **** 		USARTSend("\n\rEsperando sinal\n");
 1229              		.loc 1 86 7 discriminator 1 view .LVU297
 1230 03ba EDE7     		b	.L72		@
 1231              	.L74:
 1232              		.align	2
 1233              	.L73:
 1234 03bc 19000000 		.word	.LC2
 1235 03c0 2E000000 		.word	.LC3
 1236 03c4 41000000 		.word	.LC4
 1237              		.cfi_endproc
 1238              	.LFE46:
 1239              		.size	task3, .-task3
 1240              		.section	.rodata.str1.1
 1241              	.LC5:
 1242 004c 4C43445F 		.ascii	"LCD_16x2\000"
 1242      31367832 
 1242      00
 1243              	.LC6:
 1244 0055 4C45445F 		.ascii	"LED_13\000"
 1244      313300
 1245              	.LC7:
 1246 005c 3300     		.ascii	"3\000"
 1247              		.section	.text.startup,"ax",%progbits
 1248              		.align	1
 1249              		.global	main
 1250              		.syntax unified
 1251              		.thumb
 1252              		.thumb_func
 1253              		.type	main, %function
 1254              	main:
 1255              	.LFB47:
  94:../6-infRed/main.c **** 
  95:../6-infRed/main.c **** 	}
  96:../6-infRed/main.c **** }
  97:../6-infRed/main.c **** 
  98:../6-infRed/main.c **** int main(void) {
 1256              		.loc 1 98 16 view -0
 1257              		.cfi_startproc
 1258              		@ Volatile: function does not return.
 1259              		@ args = 0, pretend = 0, frame = 0
 1260              		@ frame_needed = 0, uses_anonymous_args = 0
  99:../6-infRed/main.c **** 	LCD_queue= xQueueCreate(5 /* Tamanho máximo da fila. */,
 1261              		.loc 1 99 2 view .LVU299
 1262              	@ ../6-infRed/main.c:105: 	xTaskCreate(task1,"LCD_16x2", 100 ,NULL, 4 ,NULL);
 100:../6-infRed/main.c **** 								sizeof(u32) /* Largura máxima da fila. */);
 101:../6-infRed/main.c **** 
 102:../6-infRed/main.c **** 	set_system_clock_to_72Mhz();
 103:../6-infRed/main.c **** //	enable_TIM3_delay();
 104:../6-infRed/main.c **** 
 105:../6-infRed/main.c **** 	xTaskCreate(task1,"LCD_16x2", 100 ,NULL, 4 ,NULL);
 1263              		.loc 1 105 2 is_stmt 0 view .LVU300
 1264 0000 0024     		movs	r4, #0	@ tmp116,
 1265 0002 0425     		movs	r5, #4	@ tmp117,
 1266              	@ ../6-infRed/main.c:98: int main(void) {
  98:../6-infRed/main.c **** 	LCD_queue= xQueueCreate(5 /* Tamanho máximo da fila. */,
 1267              		.loc 1 98 16 view .LVU301
 1268 0004 07B5     		push	{r0, r1, r2, lr}	@
ARM GAS  /tmp/ccgcInBj.s 			page 31


 1269              	.LCFI13:
 1270              		.cfi_def_cfa_offset 16
 1271              		.cfi_offset 14, -4
 1272              	@ ../6-infRed/main.c:99: 	LCD_queue= xQueueCreate(5 /* Tamanho máximo da fila. */,
  99:../6-infRed/main.c **** 	LCD_queue= xQueueCreate(5 /* Tamanho máximo da fila. */,
 1273              		.loc 1 99 13 view .LVU302
 1274 0006 0022     		movs	r2, #0	@,
 1275 0008 0421     		movs	r1, #4	@,
 1276 000a 0520     		movs	r0, #5	@,
 1277 000c FFF7FEFF 		bl	xQueueGenericCreate		@
 1278              	.LVL53:
 102:../6-infRed/main.c **** //	enable_TIM3_delay();
 1279              		.loc 1 102 2 is_stmt 1 view .LVU303
 1280 0010 FFF7FEFF 		bl	set_system_clock_to_72Mhz		@
 1281              	.LVL54:
 1282              		.loc 1 105 2 view .LVU304
 1283 0014 0D48     		ldr	r0, .L77	@,
 1284 0016 2346     		mov	r3, r4	@, tmp116
 1285 0018 6422     		movs	r2, #100	@,
 1286 001a 0D49     		ldr	r1, .L77+4	@,
 1287 001c CDE90054 		strd	r5, r4, [sp]	@ tmp117, tmp116,
 1288 0020 FFF7FEFF 		bl	xTaskCreate		@
 1289              	.LVL55:
 106:../6-infRed/main.c **** 	xTaskCreate(task2, "LED_13", 100 , NULL, 4 , NULL);
 1290              		.loc 1 106 2 view .LVU305
 1291 0024 2346     		mov	r3, r4	@, tmp116
 1292 0026 6422     		movs	r2, #100	@,
 1293 0028 0A49     		ldr	r1, .L77+8	@,
 1294 002a CDE90054 		strd	r5, r4, [sp]	@ tmp117, tmp116,
 1295 002e 0A48     		ldr	r0, .L77+12	@,
 1296 0030 FFF7FEFF 		bl	xTaskCreate		@
 1297              	.LVL56:
 107:../6-infRed/main.c **** 	xTaskCreate(task3, "3", 100 , NULL, 4 , NULL);
 1298              		.loc 1 107 2 view .LVU306
 1299 0034 2346     		mov	r3, r4	@, tmp116
 1300 0036 6422     		movs	r2, #100	@,
 1301 0038 0849     		ldr	r1, .L77+16	@,
 1302 003a CDE90054 		strd	r5, r4, [sp]	@ tmp117, tmp116,
 1303 003e 0848     		ldr	r0, .L77+20	@,
 1304 0040 FFF7FEFF 		bl	xTaskCreate		@
 1305              	.LVL57:
 108:../6-infRed/main.c **** 
 109:../6-infRed/main.c **** 	vTaskStartScheduler(); // inicia o escalonador de
 1306              		.loc 1 109 2 view .LVU307
 1307 0044 FFF7FEFF 		bl	vTaskStartScheduler		@
 1308              	.LVL58:
 1309              	.L76:
 110:../6-infRed/main.c **** 								  // processos.
 111:../6-infRed/main.c **** 	while(1);
 1310              		.loc 1 111 2 discriminator 1 view .LVU308
 1311              		.loc 1 111 10 discriminator 1 view .LVU309
 1312              		.loc 1 111 7 discriminator 1 view .LVU310
 1313 0048 FEE7     		b	.L76		@
 1314              	.L78:
 1315 004a 00BF     		.align	2
 1316              	.L77:
 1317 004c 00000000 		.word	task1
ARM GAS  /tmp/ccgcInBj.s 			page 32


 1318 0050 4C000000 		.word	.LC5
 1319 0054 55000000 		.word	.LC6
 1320 0058 00000000 		.word	task2
 1321 005c 5C000000 		.word	.LC7
 1322 0060 00000000 		.word	task3
 1323              		.cfi_endproc
 1324              	.LFE47:
 1325              		.size	main, .-main
 1326              		.text
 1327              	.Letext0:
 1328              		.file 5 "/usr/arm-none-eabi/include/machine/_default_types.h"
 1329              		.file 6 "/usr/arm-none-eabi/include/sys/_stdint.h"
 1330              		.file 7 "../freertos/portable/GCC/ARM_CM3/portmacro.h"
 1331              		.file 8 "../freertos/include/queue.h"
 1332              		.file 9 "../stm32f10x_lib/CMSIS/CM3/DeviceSupport/ST/STM32F10x/stm32f10x.h"
 1333              		.file 10 "../stm32f10x_lib/CMSIS/CM3/CoreSupport/core_cm3.h"
 1334              		.file 11 "../stm32f10x_lib/STM32F10x_StdPeriph_Driver/inc/stm32f10x_gpio.h"
 1335              		.file 12 "../stm32f10x_lib/STM32F10x_StdPeriph_Driver/inc/stm32f10x_usart.h"
 1336              		.file 13 "../freertos/include/task.h"
 1337              		.file 14 "/usr/arm-none-eabi/include/stdlib.h"
 1338              		.file 15 "../6-infRed/myLcd.h"
 1339              		.file 16 "../stm32f10x_lib/STM32F10x_StdPeriph_Driver/inc/stm32f10x_rcc.h"
 1340              		.section	.debug_info,"",%progbits
 1341              	.Ldebug_info0:
 1342 0000 04130000 		.4byte	0x1304
 1343 0004 0200     		.2byte	0x2
 1344 0006 00000000 		.4byte	.Ldebug_abbrev0
 1345 000a 04       		.byte	0x4
 1346 000b 01       		.uleb128 0x1
 1347 000c 75040000 		.4byte	.LASF212
 1348 0010 0C       		.byte	0xc
 1349 0011 2D020000 		.4byte	.LASF213
 1350 0015 9C090000 		.4byte	.LASF214
 1351 0019 00000000 		.4byte	.Ldebug_ranges0+0
 1352 001d 00000000 		.4byte	0
 1353 0021 00000000 		.4byte	0
 1354 0025 00000000 		.4byte	.Ldebug_line0
 1355 0029 02       		.uleb128 0x2
 1356 002a 04       		.byte	0x4
 1357 002b 05       		.byte	0x5
 1358 002c 696E7400 		.ascii	"int\000"
 1359 0030 03       		.uleb128 0x3
 1360 0031 04       		.byte	0x4
 1361 0032 07       		.byte	0x7
 1362 0033 AD030000 		.4byte	.LASF0
 1363 0037 03       		.uleb128 0x3
 1364 0038 08       		.byte	0x8
 1365 0039 05       		.byte	0x5
 1366 003a 28010000 		.4byte	.LASF1
 1367 003e 03       		.uleb128 0x3
 1368 003f 08       		.byte	0x8
 1369 0040 04       		.byte	0x4
 1370 0041 11080000 		.4byte	.LASF2
 1371 0045 03       		.uleb128 0x3
 1372 0046 01       		.byte	0x1
 1373 0047 06       		.byte	0x6
 1374 0048 36010000 		.4byte	.LASF3
ARM GAS  /tmp/ccgcInBj.s 			page 33


 1375 004c 04       		.uleb128 0x4
 1376 004d 78000000 		.4byte	.LASF6
 1377 0051 05       		.byte	0x5
 1378 0052 2B       		.byte	0x2b
 1379 0053 18       		.byte	0x18
 1380 0054 58000000 		.4byte	0x58
 1381 0058 03       		.uleb128 0x3
 1382 0059 01       		.byte	0x1
 1383 005a 08       		.byte	0x8
 1384 005b 1A070000 		.4byte	.LASF4
 1385 005f 03       		.uleb128 0x3
 1386 0060 02       		.byte	0x2
 1387 0061 05       		.byte	0x5
 1388 0062 1F050000 		.4byte	.LASF5
 1389 0066 04       		.uleb128 0x4
 1390 0067 0D030000 		.4byte	.LASF7
 1391 006b 05       		.byte	0x5
 1392 006c 39       		.byte	0x39
 1393 006d 19       		.byte	0x19
 1394 006e 72000000 		.4byte	0x72
 1395 0072 03       		.uleb128 0x3
 1396 0073 02       		.byte	0x2
 1397 0074 07       		.byte	0x7
 1398 0075 E7020000 		.4byte	.LASF8
 1399 0079 03       		.uleb128 0x3
 1400 007a 04       		.byte	0x4
 1401 007b 05       		.byte	0x5
 1402 007c 14020000 		.4byte	.LASF9
 1403 0080 04       		.uleb128 0x4
 1404 0081 2E030000 		.4byte	.LASF10
 1405 0085 05       		.byte	0x5
 1406 0086 4F       		.byte	0x4f
 1407 0087 19       		.byte	0x19
 1408 0088 8C000000 		.4byte	0x8c
 1409 008c 03       		.uleb128 0x3
 1410 008d 04       		.byte	0x4
 1411 008e 07       		.byte	0x7
 1412 008f DE030000 		.4byte	.LASF11
 1413 0093 03       		.uleb128 0x3
 1414 0094 08       		.byte	0x8
 1415 0095 07       		.byte	0x7
 1416 0096 88010000 		.4byte	.LASF12
 1417 009a 04       		.uleb128 0x4
 1418 009b 5F090000 		.4byte	.LASF13
 1419 009f 06       		.byte	0x6
 1420 00a0 18       		.byte	0x18
 1421 00a1 13       		.byte	0x13
 1422 00a2 4C000000 		.4byte	0x4c
 1423 00a6 05       		.uleb128 0x5
 1424 00a7 9A000000 		.4byte	0x9a
 1425 00ab 04       		.uleb128 0x4
 1426 00ac 80020000 		.4byte	.LASF14
 1427 00b0 06       		.byte	0x6
 1428 00b1 24       		.byte	0x24
 1429 00b2 14       		.byte	0x14
 1430 00b3 66000000 		.4byte	0x66
 1431 00b7 05       		.uleb128 0x5
ARM GAS  /tmp/ccgcInBj.s 			page 34


 1432 00b8 AB000000 		.4byte	0xab
 1433 00bc 04       		.uleb128 0x4
 1434 00bd D5070000 		.4byte	.LASF15
 1435 00c1 06       		.byte	0x6
 1436 00c2 30       		.byte	0x30
 1437 00c3 14       		.byte	0x14
 1438 00c4 80000000 		.4byte	0x80
 1439 00c8 05       		.uleb128 0x5
 1440 00c9 BC000000 		.4byte	0xbc
 1441 00cd 06       		.uleb128 0x6
 1442 00ce 04       		.byte	0x4
 1443 00cf 04       		.uleb128 0x4
 1444 00d0 57020000 		.4byte	.LASF16
 1445 00d4 07       		.byte	0x7
 1446 00d5 3F       		.byte	0x3f
 1447 00d6 13       		.byte	0x13
 1448 00d7 BC000000 		.4byte	0xbc
 1449 00db 03       		.uleb128 0x3
 1450 00dc 01       		.byte	0x1
 1451 00dd 08       		.byte	0x8
 1452 00de 35080000 		.4byte	.LASF17
 1453 00e2 04       		.uleb128 0x4
 1454 00e3 EA000000 		.4byte	.LASF18
 1455 00e7 08       		.byte	0x8
 1456 00e8 30       		.byte	0x30
 1457 00e9 22       		.byte	0x22
 1458 00ea EE000000 		.4byte	0xee
 1459 00ee 07       		.uleb128 0x7
 1460 00ef 04       		.byte	0x4
 1461 00f0 F4000000 		.4byte	0xf4
 1462 00f4 08       		.uleb128 0x8
 1463 00f5 DC060000 		.4byte	.LASF215
 1464 00f9 01       		.byte	0x1
 1465 00fa 07       		.uleb128 0x7
 1466 00fb 04       		.byte	0x4
 1467 00fc DB000000 		.4byte	0xdb
 1468 0100 09       		.uleb128 0x9
 1469 0101 DB000000 		.4byte	0xdb
 1470 0105 10010000 		.4byte	0x110
 1471 0109 0A       		.uleb128 0xa
 1472 010a 30000000 		.4byte	0x30
 1473 010e 07       		.byte	0x7
 1474 010f 00       		.byte	0
 1475 0110 0B       		.uleb128 0xb
 1476 0111 60050000 		.4byte	.LASF191
 1477 0115 05       		.byte	0x5
 1478 0116 01       		.byte	0x1
 1479 0117 45000000 		.4byte	0x45
 1480 011b 09       		.byte	0x9
 1481 011c A7       		.byte	0xa7
 1482 011d 0E       		.byte	0xe
 1483 011e 55020000 		.4byte	0x255
 1484 0122 0C       		.uleb128 0xc
 1485 0123 9F080000 		.4byte	.LASF19
 1486 0127 72       		.sleb128 -14
 1487 0128 0C       		.uleb128 0xc
 1488 0129 C8030000 		.4byte	.LASF20
ARM GAS  /tmp/ccgcInBj.s 			page 35


 1489 012d 74       		.sleb128 -12
 1490 012e 0C       		.uleb128 0xc
 1491 012f 3A080000 		.4byte	.LASF21
 1492 0133 75       		.sleb128 -11
 1493 0134 0C       		.uleb128 0xc
 1494 0135 F4070000 		.4byte	.LASF22
 1495 0139 76       		.sleb128 -10
 1496 013a 0C       		.uleb128 0xc
 1497 013b 9F050000 		.4byte	.LASF23
 1498 013f 7B       		.sleb128 -5
 1499 0140 0C       		.uleb128 0xc
 1500 0141 0D050000 		.4byte	.LASF24
 1501 0145 7C       		.sleb128 -4
 1502 0146 0C       		.uleb128 0xc
 1503 0147 DB020000 		.4byte	.LASF25
 1504 014b 7E       		.sleb128 -2
 1505 014c 0C       		.uleb128 0xc
 1506 014d 2E050000 		.4byte	.LASF26
 1507 0151 7F       		.sleb128 -1
 1508 0152 0D       		.uleb128 0xd
 1509 0153 03010000 		.4byte	.LASF27
 1510 0157 00       		.byte	0
 1511 0158 0D       		.uleb128 0xd
 1512 0159 30000000 		.4byte	.LASF28
 1513 015d 01       		.byte	0x1
 1514 015e 0D       		.uleb128 0xd
 1515 015f CE080000 		.4byte	.LASF29
 1516 0163 02       		.byte	0x2
 1517 0164 0D       		.uleb128 0xd
 1518 0165 A7000000 		.4byte	.LASF30
 1519 0169 03       		.byte	0x3
 1520 016a 0D       		.uleb128 0xd
 1521 016b AE070000 		.4byte	.LASF31
 1522 016f 04       		.byte	0x4
 1523 0170 0D       		.uleb128 0xd
 1524 0171 230A0000 		.4byte	.LASF32
 1525 0175 05       		.byte	0x5
 1526 0176 0D       		.uleb128 0xd
 1527 0177 63010000 		.4byte	.LASF33
 1528 017b 06       		.byte	0x6
 1529 017c 0D       		.uleb128 0xd
 1530 017d 360A0000 		.4byte	.LASF34
 1531 0181 07       		.byte	0x7
 1532 0182 0D       		.uleb128 0xd
 1533 0183 F8000000 		.4byte	.LASF35
 1534 0187 08       		.byte	0x8
 1535 0188 0D       		.uleb128 0xd
 1536 0189 95020000 		.4byte	.LASF36
 1537 018d 09       		.byte	0x9
 1538 018e 0D       		.uleb128 0xd
 1539 018f 3C070000 		.4byte	.LASF37
 1540 0193 0A       		.byte	0xa
 1541 0194 0D       		.uleb128 0xd
 1542 0195 6F060000 		.4byte	.LASF38
 1543 0199 0B       		.byte	0xb
 1544 019a 0D       		.uleb128 0xd
 1545 019b 82050000 		.4byte	.LASF39
ARM GAS  /tmp/ccgcInBj.s 			page 36


 1546 019f 0C       		.byte	0xc
 1547 01a0 0D       		.uleb128 0xd
 1548 01a1 22080000 		.4byte	.LASF40
 1549 01a5 0D       		.byte	0xd
 1550 01a6 0D       		.uleb128 0xd
 1551 01a7 FA020000 		.4byte	.LASF41
 1552 01ab 0E       		.byte	0xe
 1553 01ac 0D       		.uleb128 0xd
 1554 01ad 24040000 		.4byte	.LASF42
 1555 01b1 0F       		.byte	0xf
 1556 01b2 0D       		.uleb128 0xd
 1557 01b3 B3080000 		.4byte	.LASF43
 1558 01b7 10       		.byte	0x10
 1559 01b8 0D       		.uleb128 0xd
 1560 01b9 89090000 		.4byte	.LASF44
 1561 01bd 11       		.byte	0x11
 1562 01be 0D       		.uleb128 0xd
 1563 01bf A0020000 		.4byte	.LASF45
 1564 01c3 12       		.byte	0x12
 1565 01c4 0D       		.uleb128 0xd
 1566 01c5 28070000 		.4byte	.LASF46
 1567 01c9 13       		.byte	0x13
 1568 01ca 0D       		.uleb128 0xd
 1569 01cb 74070000 		.4byte	.LASF47
 1570 01cf 14       		.byte	0x14
 1571 01d0 0D       		.uleb128 0xd
 1572 01d1 49000000 		.4byte	.LASF48
 1573 01d5 15       		.byte	0x15
 1574 01d6 0D       		.uleb128 0xd
 1575 01d7 150A0000 		.4byte	.LASF49
 1576 01db 16       		.byte	0x16
 1577 01dc 0D       		.uleb128 0xd
 1578 01dd 45020000 		.4byte	.LASF50
 1579 01e1 17       		.byte	0x17
 1580 01e2 0D       		.uleb128 0xd
 1581 01e3 48080000 		.4byte	.LASF51
 1582 01e7 18       		.byte	0x18
 1583 01e8 0D       		.uleb128 0xd
 1584 01e9 DA080000 		.4byte	.LASF52
 1585 01ed 19       		.byte	0x19
 1586 01ee 0D       		.uleb128 0xd
 1587 01ef 3C040000 		.4byte	.LASF53
 1588 01f3 1A       		.byte	0x1a
 1589 01f4 0D       		.uleb128 0xd
 1590 01f5 3B050000 		.4byte	.LASF54
 1591 01f9 1B       		.byte	0x1b
 1592 01fa 0D       		.uleb128 0xd
 1593 01fb 1E090000 		.4byte	.LASF55
 1594 01ff 1C       		.byte	0x1c
 1595 0200 0D       		.uleb128 0xd
 1596 0201 2C0A0000 		.4byte	.LASF56
 1597 0205 1D       		.byte	0x1d
 1598 0206 0D       		.uleb128 0xd
 1599 0207 E0000000 		.4byte	.LASF57
 1600 020b 1E       		.byte	0x1e
 1601 020c 0D       		.uleb128 0xd
 1602 020d 04080000 		.4byte	.LASF58
ARM GAS  /tmp/ccgcInBj.s 			page 37


 1603 0211 1F       		.byte	0x1f
 1604 0212 0D       		.uleb128 0xd
 1605 0213 EB090000 		.4byte	.LASF59
 1606 0217 20       		.byte	0x20
 1607 0218 0D       		.uleb128 0xd
 1608 0219 AB050000 		.4byte	.LASF60
 1609 021d 21       		.byte	0x21
 1610 021e 0D       		.uleb128 0xd
 1611 021f D3000000 		.4byte	.LASF61
 1612 0223 22       		.byte	0x22
 1613 0224 0D       		.uleb128 0xd
 1614 0225 F5040000 		.4byte	.LASF62
 1615 0229 23       		.byte	0x23
 1616 022a 0D       		.uleb128 0xd
 1617 022b D7050000 		.4byte	.LASF63
 1618 022f 24       		.byte	0x24
 1619 0230 0D       		.uleb128 0xd
 1620 0231 37090000 		.4byte	.LASF64
 1621 0235 25       		.byte	0x25
 1622 0236 0D       		.uleb128 0xd
 1623 0237 E8070000 		.4byte	.LASF65
 1624 023b 26       		.byte	0x26
 1625 023c 0D       		.uleb128 0xd
 1626 023d 08090000 		.4byte	.LASF66
 1627 0241 27       		.byte	0x27
 1628 0242 0D       		.uleb128 0xd
 1629 0243 66040000 		.4byte	.LASF67
 1630 0247 28       		.byte	0x28
 1631 0248 0D       		.uleb128 0xd
 1632 0249 5B080000 		.4byte	.LASF68
 1633 024d 29       		.byte	0x29
 1634 024e 0D       		.uleb128 0xd
 1635 024f EF080000 		.4byte	.LASF69
 1636 0253 2A       		.byte	0x2a
 1637 0254 00       		.byte	0
 1638 0255 0E       		.uleb128 0xe
 1639 0256 CB070000 		.4byte	.LASF70
 1640 025a 09       		.byte	0x9
 1641 025b D801     		.2byte	0x1d8
 1642 025d 03       		.byte	0x3
 1643 025e 10010000 		.4byte	0x110
 1644 0262 0F       		.uleb128 0xf
 1645 0263 040E     		.2byte	0xe04
 1646 0265 0A       		.byte	0xa
 1647 0266 84       		.byte	0x84
 1648 0267 09       		.byte	0x9
 1649 0268 3A030000 		.4byte	0x33a
 1650 026c 10       		.uleb128 0x10
 1651 026d 57070000 		.4byte	.LASF71
 1652 0271 0A       		.byte	0xa
 1653 0272 86       		.byte	0x86
 1654 0273 11       		.byte	0x11
 1655 0274 4A030000 		.4byte	0x34a
 1656 0278 02       		.byte	0x2
 1657 0279 23       		.byte	0x23
 1658 027a 00       		.uleb128 0
 1659 027b 10       		.uleb128 0x10
ARM GAS  /tmp/ccgcInBj.s 			page 38


 1660 027c 82060000 		.4byte	.LASF72
 1661 0280 0A       		.byte	0xa
 1662 0281 87       		.byte	0x87
 1663 0282 11       		.byte	0x11
 1664 0283 4F030000 		.4byte	0x34f
 1665 0287 02       		.byte	0x2
 1666 0288 23       		.byte	0x23
 1667 0289 20       		.uleb128 0x20
 1668 028a 10       		.uleb128 0x10
 1669 028b 29050000 		.4byte	.LASF73
 1670 028f 0A       		.byte	0xa
 1671 0290 88       		.byte	0x88
 1672 0291 11       		.byte	0x11
 1673 0292 4A030000 		.4byte	0x34a
 1674 0296 03       		.byte	0x3
 1675 0297 23       		.byte	0x23
 1676 0298 8001     		.uleb128 0x80
 1677 029a 10       		.uleb128 0x10
 1678 029b 67090000 		.4byte	.LASF74
 1679 029f 0A       		.byte	0xa
 1680 02a0 89       		.byte	0x89
 1681 02a1 11       		.byte	0x11
 1682 02a2 4F030000 		.4byte	0x34f
 1683 02a6 03       		.byte	0x3
 1684 02a7 23       		.byte	0x23
 1685 02a8 A001     		.uleb128 0xa0
 1686 02aa 10       		.uleb128 0x10
 1687 02ab 0D010000 		.4byte	.LASF75
 1688 02af 0A       		.byte	0xa
 1689 02b0 8A       		.byte	0x8a
 1690 02b1 11       		.byte	0x11
 1691 02b2 4A030000 		.4byte	0x34a
 1692 02b6 03       		.byte	0x3
 1693 02b7 23       		.byte	0x23
 1694 02b8 8002     		.uleb128 0x100
 1695 02ba 10       		.uleb128 0x10
 1696 02bb 96060000 		.4byte	.LASF76
 1697 02bf 0A       		.byte	0xa
 1698 02c0 8B       		.byte	0x8b
 1699 02c1 11       		.byte	0x11
 1700 02c2 4F030000 		.4byte	0x34f
 1701 02c6 03       		.byte	0x3
 1702 02c7 23       		.byte	0x23
 1703 02c8 A002     		.uleb128 0x120
 1704 02ca 10       		.uleb128 0x10
 1705 02cb 0A000000 		.4byte	.LASF77
 1706 02cf 0A       		.byte	0xa
 1707 02d0 8C       		.byte	0x8c
 1708 02d1 11       		.byte	0x11
 1709 02d2 4A030000 		.4byte	0x34a
 1710 02d6 03       		.byte	0x3
 1711 02d7 23       		.byte	0x23
 1712 02d8 8003     		.uleb128 0x180
 1713 02da 10       		.uleb128 0x10
 1714 02db A0060000 		.4byte	.LASF78
 1715 02df 0A       		.byte	0xa
 1716 02e0 8D       		.byte	0x8d
ARM GAS  /tmp/ccgcInBj.s 			page 39


 1717 02e1 11       		.byte	0x11
 1718 02e2 4F030000 		.4byte	0x34f
 1719 02e6 03       		.byte	0x3
 1720 02e7 23       		.byte	0x23
 1721 02e8 A003     		.uleb128 0x1a0
 1722 02ea 10       		.uleb128 0x10
 1723 02eb C4050000 		.4byte	.LASF79
 1724 02ef 0A       		.byte	0xa
 1725 02f0 8E       		.byte	0x8e
 1726 02f1 11       		.byte	0x11
 1727 02f2 4A030000 		.4byte	0x34a
 1728 02f6 03       		.byte	0x3
 1729 02f7 23       		.byte	0x23
 1730 02f8 8004     		.uleb128 0x200
 1731 02fa 10       		.uleb128 0x10
 1732 02fb AA060000 		.4byte	.LASF80
 1733 02ff 0A       		.byte	0xa
 1734 0300 8F       		.byte	0x8f
 1735 0301 11       		.byte	0x11
 1736 0302 5F030000 		.4byte	0x35f
 1737 0306 03       		.byte	0x3
 1738 0307 23       		.byte	0x23
 1739 0308 A004     		.uleb128 0x220
 1740 030a 11       		.uleb128 0x11
 1741 030b 495000   		.ascii	"IP\000"
 1742 030e 0A       		.byte	0xa
 1743 030f 90       		.byte	0x90
 1744 0310 11       		.byte	0x11
 1745 0311 7F030000 		.4byte	0x37f
 1746 0315 03       		.byte	0x3
 1747 0316 23       		.byte	0x23
 1748 0317 8006     		.uleb128 0x300
 1749 0319 10       		.uleb128 0x10
 1750 031a B4060000 		.4byte	.LASF81
 1751 031e 0A       		.byte	0xa
 1752 031f 91       		.byte	0x91
 1753 0320 11       		.byte	0x11
 1754 0321 84030000 		.4byte	0x384
 1755 0325 03       		.byte	0x3
 1756 0326 23       		.byte	0x23
 1757 0327 F007     		.uleb128 0x3f0
 1758 0329 10       		.uleb128 0x10
 1759 032a 70090000 		.4byte	.LASF82
 1760 032e 0A       		.byte	0xa
 1761 032f 92       		.byte	0x92
 1762 0330 11       		.byte	0x11
 1763 0331 C8000000 		.4byte	0xc8
 1764 0335 03       		.byte	0x3
 1765 0336 23       		.byte	0x23
 1766 0337 801C     		.uleb128 0xe00
 1767 0339 00       		.byte	0
 1768 033a 09       		.uleb128 0x9
 1769 033b C8000000 		.4byte	0xc8
 1770 033f 4A030000 		.4byte	0x34a
 1771 0343 0A       		.uleb128 0xa
 1772 0344 30000000 		.4byte	0x30
 1773 0348 07       		.byte	0x7
ARM GAS  /tmp/ccgcInBj.s 			page 40


 1774 0349 00       		.byte	0
 1775 034a 05       		.uleb128 0x5
 1776 034b 3A030000 		.4byte	0x33a
 1777 034f 09       		.uleb128 0x9
 1778 0350 BC000000 		.4byte	0xbc
 1779 0354 5F030000 		.4byte	0x35f
 1780 0358 0A       		.uleb128 0xa
 1781 0359 30000000 		.4byte	0x30
 1782 035d 17       		.byte	0x17
 1783 035e 00       		.byte	0
 1784 035f 09       		.uleb128 0x9
 1785 0360 BC000000 		.4byte	0xbc
 1786 0364 6F030000 		.4byte	0x36f
 1787 0368 0A       		.uleb128 0xa
 1788 0369 30000000 		.4byte	0x30
 1789 036d 37       		.byte	0x37
 1790 036e 00       		.byte	0
 1791 036f 09       		.uleb128 0x9
 1792 0370 A6000000 		.4byte	0xa6
 1793 0374 7F030000 		.4byte	0x37f
 1794 0378 0A       		.uleb128 0xa
 1795 0379 30000000 		.4byte	0x30
 1796 037d EF       		.byte	0xef
 1797 037e 00       		.byte	0
 1798 037f 05       		.uleb128 0x5
 1799 0380 6F030000 		.4byte	0x36f
 1800 0384 09       		.uleb128 0x9
 1801 0385 BC000000 		.4byte	0xbc
 1802 0389 95030000 		.4byte	0x395
 1803 038d 12       		.uleb128 0x12
 1804 038e 30000000 		.4byte	0x30
 1805 0392 8302     		.2byte	0x283
 1806 0394 00       		.byte	0
 1807 0395 04       		.uleb128 0x4
 1808 0396 5C070000 		.4byte	.LASF83
 1809 039a 0A       		.byte	0xa
 1810 039b 93       		.byte	0x93
 1811 039c 04       		.byte	0x4
 1812 039d 62020000 		.4byte	0x262
 1813 03a1 13       		.uleb128 0x13
 1814 03a2 75333200 		.ascii	"u32\000"
 1815 03a6 09       		.byte	0x9
 1816 03a7 F701     		.2byte	0x1f7
 1817 03a9 13       		.byte	0x13
 1818 03aa BC000000 		.4byte	0xbc
 1819 03ae 05       		.uleb128 0x5
 1820 03af A1030000 		.4byte	0x3a1
 1821 03b3 13       		.uleb128 0x13
 1822 03b4 753800   		.ascii	"u8\000"
 1823 03b7 09       		.byte	0x9
 1824 03b8 F901     		.2byte	0x1f9
 1825 03ba 12       		.byte	0x12
 1826 03bb 9A000000 		.4byte	0x9a
 1827 03bf 14       		.uleb128 0x14
 1828 03c0 07       		.byte	0x7
 1829 03c1 01       		.byte	0x1
 1830 03c2 58000000 		.4byte	0x58
ARM GAS  /tmp/ccgcInBj.s 			page 41


 1831 03c6 09       		.byte	0x9
 1832 03c7 0702     		.2byte	0x207
 1833 03c9 0E       		.byte	0xe
 1834 03ca DB030000 		.4byte	0x3db
 1835 03ce 0D       		.uleb128 0xd
 1836 03cf 5A050000 		.4byte	.LASF84
 1837 03d3 00       		.byte	0
 1838 03d4 15       		.uleb128 0x15
 1839 03d5 53455400 		.ascii	"SET\000"
 1840 03d9 01       		.byte	0x1
 1841 03da 00       		.byte	0
 1842 03db 14       		.uleb128 0x14
 1843 03dc 07       		.byte	0x7
 1844 03dd 01       		.byte	0x1
 1845 03de 58000000 		.4byte	0x58
 1846 03e2 09       		.byte	0x9
 1847 03e3 0902     		.2byte	0x209
 1848 03e5 0E       		.byte	0xe
 1849 03e6 F7030000 		.4byte	0x3f7
 1850 03ea 0D       		.uleb128 0xd
 1851 03eb 9F000000 		.4byte	.LASF85
 1852 03ef 00       		.byte	0
 1853 03f0 0D       		.uleb128 0xd
 1854 03f1 1D020000 		.4byte	.LASF86
 1855 03f5 01       		.byte	0x1
 1856 03f6 00       		.byte	0
 1857 03f7 16       		.uleb128 0x16
 1858 03f8 50       		.byte	0x50
 1859 03f9 09       		.byte	0x9
 1860 03fa 1E02     		.2byte	0x21e
 1861 03fc 09       		.byte	0x9
 1862 03fd 40050000 		.4byte	0x540
 1863 0401 17       		.uleb128 0x17
 1864 0402 535200   		.ascii	"SR\000"
 1865 0405 09       		.byte	0x9
 1866 0406 2002     		.2byte	0x220
 1867 0408 11       		.byte	0x11
 1868 0409 C8000000 		.4byte	0xc8
 1869 040d 02       		.byte	0x2
 1870 040e 23       		.byte	0x23
 1871 040f 00       		.uleb128 0
 1872 0410 17       		.uleb128 0x17
 1873 0411 43523100 		.ascii	"CR1\000"
 1874 0415 09       		.byte	0x9
 1875 0416 2102     		.2byte	0x221
 1876 0418 11       		.byte	0x11
 1877 0419 C8000000 		.4byte	0xc8
 1878 041d 02       		.byte	0x2
 1879 041e 23       		.byte	0x23
 1880 041f 04       		.uleb128 0x4
 1881 0420 17       		.uleb128 0x17
 1882 0421 43523200 		.ascii	"CR2\000"
 1883 0425 09       		.byte	0x9
 1884 0426 2202     		.2byte	0x222
 1885 0428 11       		.byte	0x11
 1886 0429 C8000000 		.4byte	0xc8
 1887 042d 02       		.byte	0x2
ARM GAS  /tmp/ccgcInBj.s 			page 42


 1888 042e 23       		.byte	0x23
 1889 042f 08       		.uleb128 0x8
 1890 0430 18       		.uleb128 0x18
 1891 0431 21060000 		.4byte	.LASF87
 1892 0435 09       		.byte	0x9
 1893 0436 2302     		.2byte	0x223
 1894 0438 11       		.byte	0x11
 1895 0439 C8000000 		.4byte	0xc8
 1896 043d 02       		.byte	0x2
 1897 043e 23       		.byte	0x23
 1898 043f 0C       		.uleb128 0xc
 1899 0440 18       		.uleb128 0x18
 1900 0441 27060000 		.4byte	.LASF88
 1901 0445 09       		.byte	0x9
 1902 0446 2402     		.2byte	0x224
 1903 0448 11       		.byte	0x11
 1904 0449 C8000000 		.4byte	0xc8
 1905 044d 02       		.byte	0x2
 1906 044e 23       		.byte	0x23
 1907 044f 10       		.uleb128 0x10
 1908 0450 18       		.uleb128 0x18
 1909 0451 53090000 		.4byte	.LASF89
 1910 0455 09       		.byte	0x9
 1911 0456 2502     		.2byte	0x225
 1912 0458 11       		.byte	0x11
 1913 0459 C8000000 		.4byte	0xc8
 1914 045d 02       		.byte	0x2
 1915 045e 23       		.byte	0x23
 1916 045f 14       		.uleb128 0x14
 1917 0460 18       		.uleb128 0x18
 1918 0461 70050000 		.4byte	.LASF90
 1919 0465 09       		.byte	0x9
 1920 0466 2602     		.2byte	0x226
 1921 0468 11       		.byte	0x11
 1922 0469 C8000000 		.4byte	0xc8
 1923 046d 02       		.byte	0x2
 1924 046e 23       		.byte	0x23
 1925 046f 18       		.uleb128 0x18
 1926 0470 18       		.uleb128 0x18
 1927 0471 76050000 		.4byte	.LASF91
 1928 0475 09       		.byte	0x9
 1929 0476 2702     		.2byte	0x227
 1930 0478 11       		.byte	0x11
 1931 0479 C8000000 		.4byte	0xc8
 1932 047d 02       		.byte	0x2
 1933 047e 23       		.byte	0x23
 1934 047f 1C       		.uleb128 0x1c
 1935 0480 18       		.uleb128 0x18
 1936 0481 7C050000 		.4byte	.LASF92
 1937 0485 09       		.byte	0x9
 1938 0486 2802     		.2byte	0x228
 1939 0488 11       		.byte	0x11
 1940 0489 C8000000 		.4byte	0xc8
 1941 048d 02       		.byte	0x2
 1942 048e 23       		.byte	0x23
 1943 048f 20       		.uleb128 0x20
 1944 0490 17       		.uleb128 0x17
ARM GAS  /tmp/ccgcInBj.s 			page 43


 1945 0491 48545200 		.ascii	"HTR\000"
 1946 0495 09       		.byte	0x9
 1947 0496 2902     		.2byte	0x229
 1948 0498 11       		.byte	0x11
 1949 0499 C8000000 		.4byte	0xc8
 1950 049d 02       		.byte	0x2
 1951 049e 23       		.byte	0x23
 1952 049f 24       		.uleb128 0x24
 1953 04a0 17       		.uleb128 0x17
 1954 04a1 4C545200 		.ascii	"LTR\000"
 1955 04a5 09       		.byte	0x9
 1956 04a6 2A02     		.2byte	0x22a
 1957 04a8 11       		.byte	0x11
 1958 04a9 C8000000 		.4byte	0xc8
 1959 04ad 02       		.byte	0x2
 1960 04ae 23       		.byte	0x23
 1961 04af 28       		.uleb128 0x28
 1962 04b0 18       		.uleb128 0x18
 1963 04b1 60060000 		.4byte	.LASF93
 1964 04b5 09       		.byte	0x9
 1965 04b6 2B02     		.2byte	0x22b
 1966 04b8 11       		.byte	0x11
 1967 04b9 C8000000 		.4byte	0xc8
 1968 04bd 02       		.byte	0x2
 1969 04be 23       		.byte	0x23
 1970 04bf 2C       		.uleb128 0x2c
 1971 04c0 18       		.uleb128 0x18
 1972 04c1 65060000 		.4byte	.LASF94
 1973 04c5 09       		.byte	0x9
 1974 04c6 2C02     		.2byte	0x22c
 1975 04c8 11       		.byte	0x11
 1976 04c9 C8000000 		.4byte	0xc8
 1977 04cd 02       		.byte	0x2
 1978 04ce 23       		.byte	0x23
 1979 04cf 30       		.uleb128 0x30
 1980 04d0 18       		.uleb128 0x18
 1981 04d1 6A060000 		.4byte	.LASF95
 1982 04d5 09       		.byte	0x9
 1983 04d6 2D02     		.2byte	0x22d
 1984 04d8 11       		.byte	0x11
 1985 04d9 C8000000 		.4byte	0xc8
 1986 04dd 02       		.byte	0x2
 1987 04de 23       		.byte	0x23
 1988 04df 34       		.uleb128 0x34
 1989 04e0 18       		.uleb128 0x18
 1990 04e1 17010000 		.4byte	.LASF96
 1991 04e5 09       		.byte	0x9
 1992 04e6 2E02     		.2byte	0x22e
 1993 04e8 11       		.byte	0x11
 1994 04e9 C8000000 		.4byte	0xc8
 1995 04ed 02       		.byte	0x2
 1996 04ee 23       		.byte	0x23
 1997 04ef 38       		.uleb128 0x38
 1998 04f0 18       		.uleb128 0x18
 1999 04f1 75090000 		.4byte	.LASF97
 2000 04f5 09       		.byte	0x9
 2001 04f6 2F02     		.2byte	0x22f
ARM GAS  /tmp/ccgcInBj.s 			page 44


 2002 04f8 11       		.byte	0x11
 2003 04f9 C8000000 		.4byte	0xc8
 2004 04fd 02       		.byte	0x2
 2005 04fe 23       		.byte	0x23
 2006 04ff 3C       		.uleb128 0x3c
 2007 0500 18       		.uleb128 0x18
 2008 0501 7A090000 		.4byte	.LASF98
 2009 0505 09       		.byte	0x9
 2010 0506 3002     		.2byte	0x230
 2011 0508 11       		.byte	0x11
 2012 0509 C8000000 		.4byte	0xc8
 2013 050d 02       		.byte	0x2
 2014 050e 23       		.byte	0x23
 2015 050f 40       		.uleb128 0x40
 2016 0510 18       		.uleb128 0x18
 2017 0511 7F090000 		.4byte	.LASF99
 2018 0515 09       		.byte	0x9
 2019 0516 3102     		.2byte	0x231
 2020 0518 11       		.byte	0x11
 2021 0519 C8000000 		.4byte	0xc8
 2022 051d 02       		.byte	0x2
 2023 051e 23       		.byte	0x23
 2024 051f 44       		.uleb128 0x44
 2025 0520 18       		.uleb128 0x18
 2026 0521 84090000 		.4byte	.LASF100
 2027 0525 09       		.byte	0x9
 2028 0526 3202     		.2byte	0x232
 2029 0528 11       		.byte	0x11
 2030 0529 C8000000 		.4byte	0xc8
 2031 052d 02       		.byte	0x2
 2032 052e 23       		.byte	0x23
 2033 052f 48       		.uleb128 0x48
 2034 0530 17       		.uleb128 0x17
 2035 0531 445200   		.ascii	"DR\000"
 2036 0534 09       		.byte	0x9
 2037 0535 3302     		.2byte	0x233
 2038 0537 11       		.byte	0x11
 2039 0538 C8000000 		.4byte	0xc8
 2040 053c 02       		.byte	0x2
 2041 053d 23       		.byte	0x23
 2042 053e 4C       		.uleb128 0x4c
 2043 053f 00       		.byte	0
 2044 0540 0E       		.uleb128 0xe
 2045 0541 89020000 		.4byte	.LASF101
 2046 0545 09       		.byte	0x9
 2047 0546 3402     		.2byte	0x234
 2048 0548 03       		.byte	0x3
 2049 0549 F7030000 		.4byte	0x3f7
 2050 054d 16       		.uleb128 0x16
 2051 054e 24       		.byte	0x24
 2052 054f 09       		.byte	0x9
 2053 0550 8503     		.2byte	0x385
 2054 0552 09       		.byte	0x9
 2055 0553 E5050000 		.4byte	0x5e5
 2056 0557 17       		.uleb128 0x17
 2057 0558 41435200 		.ascii	"ACR\000"
 2058 055c 09       		.byte	0x9
ARM GAS  /tmp/ccgcInBj.s 			page 45


 2059 055d 8703     		.2byte	0x387
 2060 055f 11       		.byte	0x11
 2061 0560 C8000000 		.4byte	0xc8
 2062 0564 02       		.byte	0x2
 2063 0565 23       		.byte	0x23
 2064 0566 00       		.uleb128 0
 2065 0567 18       		.uleb128 0x18
 2066 0568 100A0000 		.4byte	.LASF102
 2067 056c 09       		.byte	0x9
 2068 056d 8803     		.2byte	0x388
 2069 056f 11       		.byte	0x11
 2070 0570 C8000000 		.4byte	0xc8
 2071 0574 02       		.byte	0x2
 2072 0575 23       		.byte	0x23
 2073 0576 04       		.uleb128 0x4
 2074 0577 18       		.uleb128 0x18
 2075 0578 78020000 		.4byte	.LASF103
 2076 057c 09       		.byte	0x9
 2077 057d 8903     		.2byte	0x389
 2078 057f 11       		.byte	0x11
 2079 0580 C8000000 		.4byte	0xc8
 2080 0584 02       		.byte	0x2
 2081 0585 23       		.byte	0x23
 2082 0586 08       		.uleb128 0x8
 2083 0587 17       		.uleb128 0x17
 2084 0588 535200   		.ascii	"SR\000"
 2085 058b 09       		.byte	0x9
 2086 058c 8A03     		.2byte	0x38a
 2087 058e 11       		.byte	0x11
 2088 058f C8000000 		.4byte	0xc8
 2089 0593 02       		.byte	0x2
 2090 0594 23       		.byte	0x23
 2091 0595 0C       		.uleb128 0xc
 2092 0596 17       		.uleb128 0x17
 2093 0597 435200   		.ascii	"CR\000"
 2094 059a 09       		.byte	0x9
 2095 059b 8B03     		.2byte	0x38b
 2096 059d 11       		.byte	0x11
 2097 059e C8000000 		.4byte	0xc8
 2098 05a2 02       		.byte	0x2
 2099 05a3 23       		.byte	0x23
 2100 05a4 10       		.uleb128 0x10
 2101 05a5 17       		.uleb128 0x17
 2102 05a6 415200   		.ascii	"AR\000"
 2103 05a9 09       		.byte	0x9
 2104 05aa 8C03     		.2byte	0x38c
 2105 05ac 11       		.byte	0x11
 2106 05ad C8000000 		.4byte	0xc8
 2107 05b1 02       		.byte	0x2
 2108 05b2 23       		.byte	0x23
 2109 05b3 14       		.uleb128 0x14
 2110 05b4 18       		.uleb128 0x18
 2111 05b5 6B070000 		.4byte	.LASF104
 2112 05b9 09       		.byte	0x9
 2113 05ba 8D03     		.2byte	0x38d
 2114 05bc 11       		.byte	0x11
 2115 05bd C8000000 		.4byte	0xc8
ARM GAS  /tmp/ccgcInBj.s 			page 46


 2116 05c1 02       		.byte	0x2
 2117 05c2 23       		.byte	0x23
 2118 05c3 18       		.uleb128 0x18
 2119 05c4 17       		.uleb128 0x17
 2120 05c5 4F425200 		.ascii	"OBR\000"
 2121 05c9 09       		.byte	0x9
 2122 05ca 8E03     		.2byte	0x38e
 2123 05cc 11       		.byte	0x11
 2124 05cd C8000000 		.4byte	0xc8
 2125 05d1 02       		.byte	0x2
 2126 05d2 23       		.byte	0x23
 2127 05d3 1C       		.uleb128 0x1c
 2128 05d4 18       		.uleb128 0x18
 2129 05d5 1D080000 		.4byte	.LASF105
 2130 05d9 09       		.byte	0x9
 2131 05da 8F03     		.2byte	0x38f
 2132 05dc 11       		.byte	0x11
 2133 05dd C8000000 		.4byte	0xc8
 2134 05e1 02       		.byte	0x2
 2135 05e2 23       		.byte	0x23
 2136 05e3 20       		.uleb128 0x20
 2137 05e4 00       		.byte	0
 2138 05e5 0E       		.uleb128 0xe
 2139 05e6 F8090000 		.4byte	.LASF106
 2140 05ea 09       		.byte	0x9
 2141 05eb 9803     		.2byte	0x398
 2142 05ed 03       		.byte	0x3
 2143 05ee 4D050000 		.4byte	0x54d
 2144 05f2 16       		.uleb128 0x16
 2145 05f3 1C       		.byte	0x1c
 2146 05f4 09       		.byte	0x9
 2147 05f5 E903     		.2byte	0x3e9
 2148 05f7 09       		.byte	0x9
 2149 05f8 6D060000 		.4byte	0x66d
 2150 05fc 17       		.uleb128 0x17
 2151 05fd 43524C00 		.ascii	"CRL\000"
 2152 0601 09       		.byte	0x9
 2153 0602 EB03     		.2byte	0x3eb
 2154 0604 11       		.byte	0x11
 2155 0605 C8000000 		.4byte	0xc8
 2156 0609 02       		.byte	0x2
 2157 060a 23       		.byte	0x23
 2158 060b 00       		.uleb128 0
 2159 060c 17       		.uleb128 0x17
 2160 060d 43524800 		.ascii	"CRH\000"
 2161 0611 09       		.byte	0x9
 2162 0612 EC03     		.2byte	0x3ec
 2163 0614 11       		.byte	0x11
 2164 0615 C8000000 		.4byte	0xc8
 2165 0619 02       		.byte	0x2
 2166 061a 23       		.byte	0x23
 2167 061b 04       		.uleb128 0x4
 2168 061c 17       		.uleb128 0x17
 2169 061d 49445200 		.ascii	"IDR\000"
 2170 0621 09       		.byte	0x9
 2171 0622 ED03     		.2byte	0x3ed
 2172 0624 11       		.byte	0x11
ARM GAS  /tmp/ccgcInBj.s 			page 47


 2173 0625 C8000000 		.4byte	0xc8
 2174 0629 02       		.byte	0x2
 2175 062a 23       		.byte	0x23
 2176 062b 08       		.uleb128 0x8
 2177 062c 17       		.uleb128 0x17
 2178 062d 4F445200 		.ascii	"ODR\000"
 2179 0631 09       		.byte	0x9
 2180 0632 EE03     		.2byte	0x3ee
 2181 0634 11       		.byte	0x11
 2182 0635 C8000000 		.4byte	0xc8
 2183 0639 02       		.byte	0x2
 2184 063a 23       		.byte	0x23
 2185 063b 0C       		.uleb128 0xc
 2186 063c 18       		.uleb128 0x18
 2187 063d 32090000 		.4byte	.LASF107
 2188 0641 09       		.byte	0x9
 2189 0642 EF03     		.2byte	0x3ef
 2190 0644 11       		.byte	0x11
 2191 0645 C8000000 		.4byte	0xc8
 2192 0649 02       		.byte	0x2
 2193 064a 23       		.byte	0x23
 2194 064b 10       		.uleb128 0x10
 2195 064c 17       		.uleb128 0x17
 2196 064d 42525200 		.ascii	"BRR\000"
 2197 0651 09       		.byte	0x9
 2198 0652 F003     		.2byte	0x3f0
 2199 0654 11       		.byte	0x11
 2200 0655 C8000000 		.4byte	0xc8
 2201 0659 02       		.byte	0x2
 2202 065a 23       		.byte	0x23
 2203 065b 14       		.uleb128 0x14
 2204 065c 18       		.uleb128 0x18
 2205 065d 1B000000 		.4byte	.LASF108
 2206 0661 09       		.byte	0x9
 2207 0662 F103     		.2byte	0x3f1
 2208 0664 11       		.byte	0x11
 2209 0665 C8000000 		.4byte	0xc8
 2210 0669 02       		.byte	0x2
 2211 066a 23       		.byte	0x23
 2212 066b 18       		.uleb128 0x18
 2213 066c 00       		.byte	0
 2214 066d 0E       		.uleb128 0xe
 2215 066e F0030000 		.4byte	.LASF109
 2216 0672 09       		.byte	0x9
 2217 0673 F203     		.2byte	0x3f2
 2218 0675 03       		.byte	0x3
 2219 0676 F2050000 		.4byte	0x5f2
 2220 067a 16       		.uleb128 0x16
 2221 067b 30       		.byte	0x30
 2222 067c 09       		.byte	0x9
 2223 067d 3404     		.2byte	0x434
 2224 067f 09       		.byte	0x9
 2225 0680 44070000 		.4byte	0x744
 2226 0684 17       		.uleb128 0x17
 2227 0685 435200   		.ascii	"CR\000"
 2228 0688 09       		.byte	0x9
 2229 0689 3604     		.2byte	0x436
ARM GAS  /tmp/ccgcInBj.s 			page 48


 2230 068b 11       		.byte	0x11
 2231 068c C8000000 		.4byte	0xc8
 2232 0690 02       		.byte	0x2
 2233 0691 23       		.byte	0x23
 2234 0692 00       		.uleb128 0
 2235 0693 18       		.uleb128 0x18
 2236 0694 D5090000 		.4byte	.LASF110
 2237 0698 09       		.byte	0x9
 2238 0699 3704     		.2byte	0x437
 2239 069b 11       		.byte	0x11
 2240 069c C8000000 		.4byte	0xc8
 2241 06a0 02       		.byte	0x2
 2242 06a1 23       		.byte	0x23
 2243 06a2 04       		.uleb128 0x4
 2244 06a3 17       		.uleb128 0x17
 2245 06a4 43495200 		.ascii	"CIR\000"
 2246 06a8 09       		.byte	0x9
 2247 06a9 3804     		.2byte	0x438
 2248 06ab 11       		.byte	0x11
 2249 06ac C8000000 		.4byte	0xc8
 2250 06b0 02       		.byte	0x2
 2251 06b1 23       		.byte	0x23
 2252 06b2 08       		.uleb128 0x8
 2253 06b3 18       		.uleb128 0x18
 2254 06b4 24020000 		.4byte	.LASF111
 2255 06b8 09       		.byte	0x9
 2256 06b9 3904     		.2byte	0x439
 2257 06bb 11       		.byte	0x11
 2258 06bc C8000000 		.4byte	0xc8
 2259 06c0 02       		.byte	0x2
 2260 06c1 23       		.byte	0x23
 2261 06c2 0C       		.uleb128 0xc
 2262 06c3 18       		.uleb128 0x18
 2263 06c4 57060000 		.4byte	.LASF112
 2264 06c8 09       		.byte	0x9
 2265 06c9 3A04     		.2byte	0x43a
 2266 06cb 11       		.byte	0x11
 2267 06cc C8000000 		.4byte	0xc8
 2268 06d0 02       		.byte	0x2
 2269 06d1 23       		.byte	0x23
 2270 06d2 10       		.uleb128 0x10
 2271 06d3 18       		.uleb128 0x18
 2272 06d4 5F040000 		.4byte	.LASF113
 2273 06d8 09       		.byte	0x9
 2274 06d9 3B04     		.2byte	0x43b
 2275 06db 11       		.byte	0x11
 2276 06dc C8000000 		.4byte	0xc8
 2277 06e0 02       		.byte	0x2
 2278 06e1 23       		.byte	0x23
 2279 06e2 14       		.uleb128 0x14
 2280 06e3 18       		.uleb128 0x18
 2281 06e4 A6070000 		.4byte	.LASF114
 2282 06e8 09       		.byte	0x9
 2283 06e9 3C04     		.2byte	0x43c
 2284 06eb 11       		.byte	0x11
 2285 06ec C8000000 		.4byte	0xc8
 2286 06f0 02       		.byte	0x2
ARM GAS  /tmp/ccgcInBj.s 			page 49


 2287 06f1 23       		.byte	0x23
 2288 06f2 18       		.uleb128 0x18
 2289 06f3 18       		.uleb128 0x18
 2290 06f4 C6080000 		.4byte	.LASF115
 2291 06f8 09       		.byte	0x9
 2292 06f9 3D04     		.2byte	0x43d
 2293 06fb 11       		.byte	0x11
 2294 06fc C8000000 		.4byte	0xc8
 2295 0700 02       		.byte	0x2
 2296 0701 23       		.byte	0x23
 2297 0702 1C       		.uleb128 0x1c
 2298 0703 18       		.uleb128 0x18
 2299 0704 4E090000 		.4byte	.LASF116
 2300 0708 09       		.byte	0x9
 2301 0709 3E04     		.2byte	0x43e
 2302 070b 11       		.byte	0x11
 2303 070c C8000000 		.4byte	0xc8
 2304 0710 02       		.byte	0x2
 2305 0711 23       		.byte	0x23
 2306 0712 20       		.uleb128 0x20
 2307 0713 17       		.uleb128 0x17
 2308 0714 43535200 		.ascii	"CSR\000"
 2309 0718 09       		.byte	0x9
 2310 0719 3F04     		.2byte	0x43f
 2311 071b 11       		.byte	0x11
 2312 071c C8000000 		.4byte	0xc8
 2313 0720 02       		.byte	0x2
 2314 0721 23       		.byte	0x23
 2315 0722 24       		.uleb128 0x24
 2316 0723 18       		.uleb128 0x18
 2317 0724 3E060000 		.4byte	.LASF117
 2318 0728 09       		.byte	0x9
 2319 0729 4004     		.2byte	0x440
 2320 072b 11       		.byte	0x11
 2321 072c C8000000 		.4byte	0xc8
 2322 0730 02       		.byte	0x2
 2323 0731 23       		.byte	0x23
 2324 0732 28       		.uleb128 0x28
 2325 0733 18       		.uleb128 0x18
 2326 0734 59090000 		.4byte	.LASF118
 2327 0738 09       		.byte	0x9
 2328 0739 4104     		.2byte	0x441
 2329 073b 11       		.byte	0x11
 2330 073c C8000000 		.4byte	0xc8
 2331 0740 02       		.byte	0x2
 2332 0741 23       		.byte	0x23
 2333 0742 2C       		.uleb128 0x2c
 2334 0743 00       		.byte	0
 2335 0744 0E       		.uleb128 0xe
 2336 0745 0F000000 		.4byte	.LASF119
 2337 0749 09       		.byte	0x9
 2338 074a 4204     		.2byte	0x442
 2339 074c 03       		.byte	0x3
 2340 074d 7A060000 		.4byte	0x67a
 2341 0751 16       		.uleb128 0x16
 2342 0752 50       		.byte	0x50
 2343 0753 09       		.byte	0x9
ARM GAS  /tmp/ccgcInBj.s 			page 50


 2344 0754 9A04     		.2byte	0x49a
 2345 0756 09       		.byte	0x9
 2346 0757 DB090000 		.4byte	0x9db
 2347 075b 17       		.uleb128 0x17
 2348 075c 43523100 		.ascii	"CR1\000"
 2349 0760 09       		.byte	0x9
 2350 0761 9C04     		.2byte	0x49c
 2351 0763 11       		.byte	0x11
 2352 0764 B7000000 		.4byte	0xb7
 2353 0768 02       		.byte	0x2
 2354 0769 23       		.byte	0x23
 2355 076a 00       		.uleb128 0
 2356 076b 18       		.uleb128 0x18
 2357 076c 82060000 		.4byte	.LASF72
 2358 0770 09       		.byte	0x9
 2359 0771 9D04     		.2byte	0x49d
 2360 0773 0D       		.byte	0xd
 2361 0774 AB000000 		.4byte	0xab
 2362 0778 02       		.byte	0x2
 2363 0779 23       		.byte	0x23
 2364 077a 02       		.uleb128 0x2
 2365 077b 17       		.uleb128 0x17
 2366 077c 43523200 		.ascii	"CR2\000"
 2367 0780 09       		.byte	0x9
 2368 0781 9E04     		.2byte	0x49e
 2369 0783 11       		.byte	0x11
 2370 0784 B7000000 		.4byte	0xb7
 2371 0788 02       		.byte	0x2
 2372 0789 23       		.byte	0x23
 2373 078a 04       		.uleb128 0x4
 2374 078b 18       		.uleb128 0x18
 2375 078c 8C060000 		.4byte	.LASF120
 2376 0790 09       		.byte	0x9
 2377 0791 9F04     		.2byte	0x49f
 2378 0793 0D       		.byte	0xd
 2379 0794 AB000000 		.4byte	0xab
 2380 0798 02       		.byte	0x2
 2381 0799 23       		.byte	0x23
 2382 079a 06       		.uleb128 0x6
 2383 079b 18       		.uleb128 0x18
 2384 079c 37040000 		.4byte	.LASF121
 2385 07a0 09       		.byte	0x9
 2386 07a1 A004     		.2byte	0x4a0
 2387 07a3 11       		.byte	0x11
 2388 07a4 B7000000 		.4byte	0xb7
 2389 07a8 02       		.byte	0x2
 2390 07a9 23       		.byte	0x23
 2391 07aa 08       		.uleb128 0x8
 2392 07ab 18       		.uleb128 0x18
 2393 07ac 96060000 		.4byte	.LASF76
 2394 07b0 09       		.byte	0x9
 2395 07b1 A104     		.2byte	0x4a1
 2396 07b3 0D       		.byte	0xd
 2397 07b4 AB000000 		.4byte	0xab
 2398 07b8 02       		.byte	0x2
 2399 07b9 23       		.byte	0x23
 2400 07ba 0A       		.uleb128 0xa
ARM GAS  /tmp/ccgcInBj.s 			page 51


 2401 07bb 18       		.uleb128 0x18
 2402 07bc 39000000 		.4byte	.LASF122
 2403 07c0 09       		.byte	0x9
 2404 07c1 A204     		.2byte	0x4a2
 2405 07c3 11       		.byte	0x11
 2406 07c4 B7000000 		.4byte	0xb7
 2407 07c8 02       		.byte	0x2
 2408 07c9 23       		.byte	0x23
 2409 07ca 0C       		.uleb128 0xc
 2410 07cb 18       		.uleb128 0x18
 2411 07cc A0060000 		.4byte	.LASF78
 2412 07d0 09       		.byte	0x9
 2413 07d1 A304     		.2byte	0x4a3
 2414 07d3 0D       		.byte	0xd
 2415 07d4 AB000000 		.4byte	0xab
 2416 07d8 02       		.byte	0x2
 2417 07d9 23       		.byte	0x23
 2418 07da 0E       		.uleb128 0xe
 2419 07db 17       		.uleb128 0x17
 2420 07dc 535200   		.ascii	"SR\000"
 2421 07df 09       		.byte	0x9
 2422 07e0 A404     		.2byte	0x4a4
 2423 07e2 11       		.byte	0x11
 2424 07e3 B7000000 		.4byte	0xb7
 2425 07e7 02       		.byte	0x2
 2426 07e8 23       		.byte	0x23
 2427 07e9 10       		.uleb128 0x10
 2428 07ea 18       		.uleb128 0x18
 2429 07eb AA060000 		.4byte	.LASF80
 2430 07ef 09       		.byte	0x9
 2431 07f0 A504     		.2byte	0x4a5
 2432 07f2 0D       		.byte	0xd
 2433 07f3 AB000000 		.4byte	0xab
 2434 07f7 02       		.byte	0x2
 2435 07f8 23       		.byte	0x23
 2436 07f9 12       		.uleb128 0x12
 2437 07fa 17       		.uleb128 0x17
 2438 07fb 45475200 		.ascii	"EGR\000"
 2439 07ff 09       		.byte	0x9
 2440 0800 A604     		.2byte	0x4a6
 2441 0802 11       		.byte	0x11
 2442 0803 B7000000 		.4byte	0xb7
 2443 0807 02       		.byte	0x2
 2444 0808 23       		.byte	0x23
 2445 0809 14       		.uleb128 0x14
 2446 080a 18       		.uleb128 0x18
 2447 080b B4060000 		.4byte	.LASF81
 2448 080f 09       		.byte	0x9
 2449 0810 A704     		.2byte	0x4a7
 2450 0812 0D       		.byte	0xd
 2451 0813 AB000000 		.4byte	0xab
 2452 0817 02       		.byte	0x2
 2453 0818 23       		.byte	0x23
 2454 0819 16       		.uleb128 0x16
 2455 081a 18       		.uleb128 0x18
 2456 081b 1C010000 		.4byte	.LASF123
 2457 081f 09       		.byte	0x9
ARM GAS  /tmp/ccgcInBj.s 			page 52


 2458 0820 A804     		.2byte	0x4a8
 2459 0822 11       		.byte	0x11
 2460 0823 B7000000 		.4byte	0xb7
 2461 0827 02       		.byte	0x2
 2462 0828 23       		.byte	0x23
 2463 0829 18       		.uleb128 0x18
 2464 082a 18       		.uleb128 0x18
 2465 082b BE060000 		.4byte	.LASF124
 2466 082f 09       		.byte	0x9
 2467 0830 A904     		.2byte	0x4a9
 2468 0832 0D       		.byte	0xd
 2469 0833 AB000000 		.4byte	0xab
 2470 0837 02       		.byte	0x2
 2471 0838 23       		.byte	0x23
 2472 0839 1A       		.uleb128 0x1a
 2473 083a 18       		.uleb128 0x18
 2474 083b 22010000 		.4byte	.LASF125
 2475 083f 09       		.byte	0x9
 2476 0840 AA04     		.2byte	0x4aa
 2477 0842 11       		.byte	0x11
 2478 0843 B7000000 		.4byte	0xb7
 2479 0847 02       		.byte	0x2
 2480 0848 23       		.byte	0x23
 2481 0849 1C       		.uleb128 0x1c
 2482 084a 18       		.uleb128 0x18
 2483 084b DE070000 		.4byte	.LASF126
 2484 084f 09       		.byte	0x9
 2485 0850 AB04     		.2byte	0x4ab
 2486 0852 0D       		.byte	0xd
 2487 0853 AB000000 		.4byte	0xab
 2488 0857 02       		.byte	0x2
 2489 0858 23       		.byte	0x23
 2490 0859 1E       		.uleb128 0x1e
 2491 085a 18       		.uleb128 0x18
 2492 085b 52020000 		.4byte	.LASF127
 2493 085f 09       		.byte	0x9
 2494 0860 AC04     		.2byte	0x4ac
 2495 0862 11       		.byte	0x11
 2496 0863 B7000000 		.4byte	0xb7
 2497 0867 02       		.byte	0x2
 2498 0868 23       		.byte	0x23
 2499 0869 20       		.uleb128 0x20
 2500 086a 18       		.uleb128 0x18
 2501 086b C8060000 		.4byte	.LASF128
 2502 086f 09       		.byte	0x9
 2503 0870 AD04     		.2byte	0x4ad
 2504 0872 0D       		.byte	0xd
 2505 0873 AB000000 		.4byte	0xab
 2506 0877 02       		.byte	0x2
 2507 0878 23       		.byte	0x23
 2508 0879 22       		.uleb128 0x22
 2509 087a 17       		.uleb128 0x17
 2510 087b 434E5400 		.ascii	"CNT\000"
 2511 087f 09       		.byte	0x9
 2512 0880 AE04     		.2byte	0x4ae
 2513 0882 11       		.byte	0x11
 2514 0883 B7000000 		.4byte	0xb7
ARM GAS  /tmp/ccgcInBj.s 			page 53


 2515 0887 02       		.byte	0x2
 2516 0888 23       		.byte	0x23
 2517 0889 24       		.uleb128 0x24
 2518 088a 18       		.uleb128 0x18
 2519 088b D2060000 		.4byte	.LASF129
 2520 088f 09       		.byte	0x9
 2521 0890 AF04     		.2byte	0x4af
 2522 0892 0D       		.byte	0xd
 2523 0893 AB000000 		.4byte	0xab
 2524 0897 02       		.byte	0x2
 2525 0898 23       		.byte	0x23
 2526 0899 26       		.uleb128 0x26
 2527 089a 17       		.uleb128 0x17
 2528 089b 50534300 		.ascii	"PSC\000"
 2529 089f 09       		.byte	0x9
 2530 08a0 B004     		.2byte	0x4b0
 2531 08a2 11       		.byte	0x11
 2532 08a3 B7000000 		.4byte	0xb7
 2533 08a7 02       		.byte	0x2
 2534 08a8 23       		.byte	0x23
 2535 08a9 28       		.uleb128 0x28
 2536 08aa 18       		.uleb128 0x18
 2537 08ab 9F010000 		.4byte	.LASF130
 2538 08af 09       		.byte	0x9
 2539 08b0 B104     		.2byte	0x4b1
 2540 08b2 0D       		.byte	0xd
 2541 08b3 AB000000 		.4byte	0xab
 2542 08b7 02       		.byte	0x2
 2543 08b8 23       		.byte	0x23
 2544 08b9 2A       		.uleb128 0x2a
 2545 08ba 17       		.uleb128 0x17
 2546 08bb 41525200 		.ascii	"ARR\000"
 2547 08bf 09       		.byte	0x9
 2548 08c0 B204     		.2byte	0x4b2
 2549 08c2 11       		.byte	0x11
 2550 08c3 B7000000 		.4byte	0xb7
 2551 08c7 02       		.byte	0x2
 2552 08c8 23       		.byte	0x23
 2553 08c9 2C       		.uleb128 0x2c
 2554 08ca 18       		.uleb128 0x18
 2555 08cb AA010000 		.4byte	.LASF131
 2556 08cf 09       		.byte	0x9
 2557 08d0 B304     		.2byte	0x4b3
 2558 08d2 0D       		.byte	0xd
 2559 08d3 AB000000 		.4byte	0xab
 2560 08d7 02       		.byte	0x2
 2561 08d8 23       		.byte	0x23
 2562 08d9 2E       		.uleb128 0x2e
 2563 08da 17       		.uleb128 0x17
 2564 08db 52435200 		.ascii	"RCR\000"
 2565 08df 09       		.byte	0x9
 2566 08e0 B404     		.2byte	0x4b4
 2567 08e2 11       		.byte	0x11
 2568 08e3 B7000000 		.4byte	0xb7
 2569 08e7 02       		.byte	0x2
 2570 08e8 23       		.byte	0x23
 2571 08e9 30       		.uleb128 0x30
ARM GAS  /tmp/ccgcInBj.s 			page 54


 2572 08ea 18       		.uleb128 0x18
 2573 08eb E1050000 		.4byte	.LASF132
 2574 08ef 09       		.byte	0x9
 2575 08f0 B504     		.2byte	0x4b5
 2576 08f2 0D       		.byte	0xd
 2577 08f3 AB000000 		.4byte	0xab
 2578 08f7 02       		.byte	0x2
 2579 08f8 23       		.byte	0x23
 2580 08f9 32       		.uleb128 0x32
 2581 08fa 18       		.uleb128 0x18
 2582 08fb 19090000 		.4byte	.LASF133
 2583 08ff 09       		.byte	0x9
 2584 0900 B604     		.2byte	0x4b6
 2585 0902 11       		.byte	0x11
 2586 0903 B7000000 		.4byte	0xb7
 2587 0907 02       		.byte	0x2
 2588 0908 23       		.byte	0x23
 2589 0909 34       		.uleb128 0x34
 2590 090a 18       		.uleb128 0x18
 2591 090b C0010000 		.4byte	.LASF134
 2592 090f 09       		.byte	0x9
 2593 0910 B704     		.2byte	0x4b7
 2594 0912 0D       		.byte	0xd
 2595 0913 AB000000 		.4byte	0xab
 2596 0917 02       		.byte	0x2
 2597 0918 23       		.byte	0x23
 2598 0919 36       		.uleb128 0x36
 2599 091a 18       		.uleb128 0x18
 2600 091b BA000000 		.4byte	.LASF135
 2601 091f 09       		.byte	0x9
 2602 0920 B804     		.2byte	0x4b8
 2603 0922 11       		.byte	0x11
 2604 0923 B7000000 		.4byte	0xb7
 2605 0927 02       		.byte	0x2
 2606 0928 23       		.byte	0x23
 2607 0929 38       		.uleb128 0x38
 2608 092a 18       		.uleb128 0x18
 2609 092b CB010000 		.4byte	.LASF136
 2610 092f 09       		.byte	0x9
 2611 0930 B904     		.2byte	0x4b9
 2612 0932 0D       		.byte	0xd
 2613 0933 AB000000 		.4byte	0xab
 2614 0937 02       		.byte	0x2
 2615 0938 23       		.byte	0x23
 2616 0939 3A       		.uleb128 0x3a
 2617 093a 18       		.uleb128 0x18
 2618 093b 28090000 		.4byte	.LASF137
 2619 093f 09       		.byte	0x9
 2620 0940 BA04     		.2byte	0x4ba
 2621 0942 11       		.byte	0x11
 2622 0943 B7000000 		.4byte	0xb7
 2623 0947 02       		.byte	0x2
 2624 0948 23       		.byte	0x23
 2625 0949 3C       		.uleb128 0x3c
 2626 094a 18       		.uleb128 0x18
 2627 094b B6020000 		.4byte	.LASF138
 2628 094f 09       		.byte	0x9
ARM GAS  /tmp/ccgcInBj.s 			page 55


 2629 0950 BB04     		.2byte	0x4bb
 2630 0952 0D       		.byte	0xd
 2631 0953 AB000000 		.4byte	0xab
 2632 0957 02       		.byte	0x2
 2633 0958 23       		.byte	0x23
 2634 0959 3E       		.uleb128 0x3e
 2635 095a 18       		.uleb128 0x18
 2636 095b 2D090000 		.4byte	.LASF139
 2637 095f 09       		.byte	0x9
 2638 0960 BC04     		.2byte	0x4bc
 2639 0962 11       		.byte	0x11
 2640 0963 B7000000 		.4byte	0xb7
 2641 0967 02       		.byte	0x2
 2642 0968 23       		.byte	0x23
 2643 0969 40       		.uleb128 0x40
 2644 096a 18       		.uleb128 0x18
 2645 096b E4010000 		.4byte	.LASF140
 2646 096f 09       		.byte	0x9
 2647 0970 BD04     		.2byte	0x4bd
 2648 0972 0D       		.byte	0xd
 2649 0973 AB000000 		.4byte	0xab
 2650 0977 02       		.byte	0x2
 2651 0978 23       		.byte	0x23
 2652 0979 42       		.uleb128 0x42
 2653 097a 18       		.uleb128 0x18
 2654 097b 66070000 		.4byte	.LASF141
 2655 097f 09       		.byte	0x9
 2656 0980 BE04     		.2byte	0x4be
 2657 0982 11       		.byte	0x11
 2658 0983 B7000000 		.4byte	0xb7
 2659 0987 02       		.byte	0x2
 2660 0988 23       		.byte	0x23
 2661 0989 44       		.uleb128 0x44
 2662 098a 18       		.uleb128 0x18
 2663 098b EF010000 		.4byte	.LASF142
 2664 098f 09       		.byte	0x9
 2665 0990 BF04     		.2byte	0x4bf
 2666 0992 0D       		.byte	0xd
 2667 0993 AB000000 		.4byte	0xab
 2668 0997 02       		.byte	0x2
 2669 0998 23       		.byte	0x23
 2670 0999 46       		.uleb128 0x46
 2671 099a 17       		.uleb128 0x17
 2672 099b 44435200 		.ascii	"DCR\000"
 2673 099f 09       		.byte	0x9
 2674 09a0 C004     		.2byte	0x4c0
 2675 09a2 11       		.byte	0x11
 2676 09a3 B7000000 		.4byte	0xb7
 2677 09a7 02       		.byte	0x2
 2678 09a8 23       		.byte	0x23
 2679 09a9 48       		.uleb128 0x48
 2680 09aa 18       		.uleb128 0x18
 2681 09ab 43090000 		.4byte	.LASF143
 2682 09af 09       		.byte	0x9
 2683 09b0 C104     		.2byte	0x4c1
 2684 09b2 0D       		.byte	0xd
 2685 09b3 AB000000 		.4byte	0xab
ARM GAS  /tmp/ccgcInBj.s 			page 56


 2686 09b7 02       		.byte	0x2
 2687 09b8 23       		.byte	0x23
 2688 09b9 4A       		.uleb128 0x4a
 2689 09ba 18       		.uleb128 0x18
 2690 09bb 56080000 		.4byte	.LASF144
 2691 09bf 09       		.byte	0x9
 2692 09c0 C204     		.2byte	0x4c2
 2693 09c2 11       		.byte	0x11
 2694 09c3 B7000000 		.4byte	0xb7
 2695 09c7 02       		.byte	0x2
 2696 09c8 23       		.byte	0x23
 2697 09c9 4C       		.uleb128 0x4c
 2698 09ca 18       		.uleb128 0x18
 2699 09cb 09020000 		.4byte	.LASF145
 2700 09cf 09       		.byte	0x9
 2701 09d0 C304     		.2byte	0x4c3
 2702 09d2 0D       		.byte	0xd
 2703 09d3 AB000000 		.4byte	0xab
 2704 09d7 02       		.byte	0x2
 2705 09d8 23       		.byte	0x23
 2706 09d9 4E       		.uleb128 0x4e
 2707 09da 00       		.byte	0
 2708 09db 0E       		.uleb128 0xe
 2709 09dc 93000000 		.4byte	.LASF146
 2710 09e0 09       		.byte	0x9
 2711 09e1 C404     		.2byte	0x4c4
 2712 09e3 03       		.byte	0x3
 2713 09e4 51070000 		.4byte	0x751
 2714 09e8 16       		.uleb128 0x16
 2715 09e9 1C       		.byte	0x1c
 2716 09ea 09       		.byte	0x9
 2717 09eb CA04     		.2byte	0x4ca
 2718 09ed 09       		.byte	0x9
 2719 09ee D10A0000 		.4byte	0xad1
 2720 09f2 17       		.uleb128 0x17
 2721 09f3 535200   		.ascii	"SR\000"
 2722 09f6 09       		.byte	0x9
 2723 09f7 CC04     		.2byte	0x4cc
 2724 09f9 11       		.byte	0x11
 2725 09fa B7000000 		.4byte	0xb7
 2726 09fe 02       		.byte	0x2
 2727 09ff 23       		.byte	0x23
 2728 0a00 00       		.uleb128 0
 2729 0a01 18       		.uleb128 0x18
 2730 0a02 82060000 		.4byte	.LASF72
 2731 0a06 09       		.byte	0x9
 2732 0a07 CD04     		.2byte	0x4cd
 2733 0a09 0D       		.byte	0xd
 2734 0a0a AB000000 		.4byte	0xab
 2735 0a0e 02       		.byte	0x2
 2736 0a0f 23       		.byte	0x23
 2737 0a10 02       		.uleb128 0x2
 2738 0a11 17       		.uleb128 0x17
 2739 0a12 445200   		.ascii	"DR\000"
 2740 0a15 09       		.byte	0x9
 2741 0a16 CE04     		.2byte	0x4ce
 2742 0a18 11       		.byte	0x11
ARM GAS  /tmp/ccgcInBj.s 			page 57


 2743 0a19 B7000000 		.4byte	0xb7
 2744 0a1d 02       		.byte	0x2
 2745 0a1e 23       		.byte	0x23
 2746 0a1f 04       		.uleb128 0x4
 2747 0a20 18       		.uleb128 0x18
 2748 0a21 8C060000 		.4byte	.LASF120
 2749 0a25 09       		.byte	0x9
 2750 0a26 CF04     		.2byte	0x4cf
 2751 0a28 0D       		.byte	0xd
 2752 0a29 AB000000 		.4byte	0xab
 2753 0a2d 02       		.byte	0x2
 2754 0a2e 23       		.byte	0x23
 2755 0a2f 06       		.uleb128 0x6
 2756 0a30 17       		.uleb128 0x17
 2757 0a31 42525200 		.ascii	"BRR\000"
 2758 0a35 09       		.byte	0x9
 2759 0a36 D004     		.2byte	0x4d0
 2760 0a38 11       		.byte	0x11
 2761 0a39 B7000000 		.4byte	0xb7
 2762 0a3d 02       		.byte	0x2
 2763 0a3e 23       		.byte	0x23
 2764 0a3f 08       		.uleb128 0x8
 2765 0a40 18       		.uleb128 0x18
 2766 0a41 96060000 		.4byte	.LASF76
 2767 0a45 09       		.byte	0x9
 2768 0a46 D104     		.2byte	0x4d1
 2769 0a48 0D       		.byte	0xd
 2770 0a49 AB000000 		.4byte	0xab
 2771 0a4d 02       		.byte	0x2
 2772 0a4e 23       		.byte	0x23
 2773 0a4f 0A       		.uleb128 0xa
 2774 0a50 17       		.uleb128 0x17
 2775 0a51 43523100 		.ascii	"CR1\000"
 2776 0a55 09       		.byte	0x9
 2777 0a56 D204     		.2byte	0x4d2
 2778 0a58 11       		.byte	0x11
 2779 0a59 B7000000 		.4byte	0xb7
 2780 0a5d 02       		.byte	0x2
 2781 0a5e 23       		.byte	0x23
 2782 0a5f 0C       		.uleb128 0xc
 2783 0a60 18       		.uleb128 0x18
 2784 0a61 A0060000 		.4byte	.LASF78
 2785 0a65 09       		.byte	0x9
 2786 0a66 D304     		.2byte	0x4d3
 2787 0a68 0D       		.byte	0xd
 2788 0a69 AB000000 		.4byte	0xab
 2789 0a6d 02       		.byte	0x2
 2790 0a6e 23       		.byte	0x23
 2791 0a6f 0E       		.uleb128 0xe
 2792 0a70 17       		.uleb128 0x17
 2793 0a71 43523200 		.ascii	"CR2\000"
 2794 0a75 09       		.byte	0x9
 2795 0a76 D404     		.2byte	0x4d4
 2796 0a78 11       		.byte	0x11
 2797 0a79 B7000000 		.4byte	0xb7
 2798 0a7d 02       		.byte	0x2
 2799 0a7e 23       		.byte	0x23
ARM GAS  /tmp/ccgcInBj.s 			page 58


 2800 0a7f 10       		.uleb128 0x10
 2801 0a80 18       		.uleb128 0x18
 2802 0a81 AA060000 		.4byte	.LASF80
 2803 0a85 09       		.byte	0x9
 2804 0a86 D504     		.2byte	0x4d5
 2805 0a88 0D       		.byte	0xd
 2806 0a89 AB000000 		.4byte	0xab
 2807 0a8d 02       		.byte	0x2
 2808 0a8e 23       		.byte	0x23
 2809 0a8f 12       		.uleb128 0x12
 2810 0a90 17       		.uleb128 0x17
 2811 0a91 43523300 		.ascii	"CR3\000"
 2812 0a95 09       		.byte	0x9
 2813 0a96 D604     		.2byte	0x4d6
 2814 0a98 11       		.byte	0x11
 2815 0a99 B7000000 		.4byte	0xb7
 2816 0a9d 02       		.byte	0x2
 2817 0a9e 23       		.byte	0x23
 2818 0a9f 14       		.uleb128 0x14
 2819 0aa0 18       		.uleb128 0x18
 2820 0aa1 B4060000 		.4byte	.LASF81
 2821 0aa5 09       		.byte	0x9
 2822 0aa6 D704     		.2byte	0x4d7
 2823 0aa8 0D       		.byte	0xd
 2824 0aa9 AB000000 		.4byte	0xab
 2825 0aad 02       		.byte	0x2
 2826 0aae 23       		.byte	0x23
 2827 0aaf 16       		.uleb128 0x16
 2828 0ab0 18       		.uleb128 0x18
 2829 0ab1 6E010000 		.4byte	.LASF147
 2830 0ab5 09       		.byte	0x9
 2831 0ab6 D804     		.2byte	0x4d8
 2832 0ab8 11       		.byte	0x11
 2833 0ab9 B7000000 		.4byte	0xb7
 2834 0abd 02       		.byte	0x2
 2835 0abe 23       		.byte	0x23
 2836 0abf 18       		.uleb128 0x18
 2837 0ac0 18       		.uleb128 0x18
 2838 0ac1 BE060000 		.4byte	.LASF124
 2839 0ac5 09       		.byte	0x9
 2840 0ac6 D904     		.2byte	0x4d9
 2841 0ac8 0D       		.byte	0xd
 2842 0ac9 AB000000 		.4byte	0xab
 2843 0acd 02       		.byte	0x2
 2844 0ace 23       		.byte	0x23
 2845 0acf 1A       		.uleb128 0x1a
 2846 0ad0 00       		.byte	0
 2847 0ad1 0E       		.uleb128 0xe
 2848 0ad2 FF040000 		.4byte	.LASF148
 2849 0ad6 09       		.byte	0x9
 2850 0ad7 DA04     		.2byte	0x4da
 2851 0ad9 03       		.byte	0x3
 2852 0ada E8090000 		.4byte	0x9e8
 2853 0ade 19       		.uleb128 0x19
 2854 0adf 07       		.byte	0x7
 2855 0ae0 01       		.byte	0x1
 2856 0ae1 58000000 		.4byte	0x58
ARM GAS  /tmp/ccgcInBj.s 			page 59


 2857 0ae5 0B       		.byte	0xb
 2858 0ae6 3B       		.byte	0x3b
 2859 0ae7 01       		.byte	0x1
 2860 0ae8 FF0A0000 		.4byte	0xaff
 2861 0aec 0D       		.uleb128 0xd
 2862 0aed 82000000 		.4byte	.LASF149
 2863 0af1 01       		.byte	0x1
 2864 0af2 0D       		.uleb128 0xd
 2865 0af3 47070000 		.4byte	.LASF150
 2866 0af7 02       		.byte	0x2
 2867 0af8 0D       		.uleb128 0xd
 2868 0af9 46060000 		.4byte	.LASF151
 2869 0afd 03       		.byte	0x3
 2870 0afe 00       		.byte	0
 2871 0aff 04       		.uleb128 0x4
 2872 0b00 92030000 		.4byte	.LASF152
 2873 0b04 0B       		.byte	0xb
 2874 0b05 3F       		.byte	0x3f
 2875 0b06 02       		.byte	0x2
 2876 0b07 DE0A0000 		.4byte	0xade
 2877 0b0b 19       		.uleb128 0x19
 2878 0b0c 07       		.byte	0x7
 2879 0b0d 01       		.byte	0x1
 2880 0b0e 58000000 		.4byte	0x58
 2881 0b12 0B       		.byte	0xb
 2882 0b13 48       		.byte	0x48
 2883 0b14 01       		.byte	0x1
 2884 0b15 4A0B0000 		.4byte	0xb4a
 2885 0b19 0D       		.uleb128 0xd
 2886 0b1a 89070000 		.4byte	.LASF153
 2887 0b1e 00       		.byte	0
 2888 0b1f 0D       		.uleb128 0xd
 2889 0b20 62020000 		.4byte	.LASF154
 2890 0b24 04       		.byte	0x4
 2891 0b25 0D       		.uleb128 0xd
 2892 0b26 BA030000 		.4byte	.LASF155
 2893 0b2a 28       		.byte	0x28
 2894 0b2b 0D       		.uleb128 0xd
 2895 0b2c D6010000 		.4byte	.LASF156
 2896 0b30 48       		.byte	0x48
 2897 0b31 0D       		.uleb128 0xd
 2898 0b32 4E040000 		.4byte	.LASF157
 2899 0b36 14       		.byte	0x14
 2900 0b37 0D       		.uleb128 0xd
 2901 0b38 2D060000 		.4byte	.LASF158
 2902 0b3c 10       		.byte	0x10
 2903 0b3d 0D       		.uleb128 0xd
 2904 0b3e 14040000 		.4byte	.LASF159
 2905 0b42 1C       		.byte	0x1c
 2906 0b43 0D       		.uleb128 0xd
 2907 0b44 20000000 		.4byte	.LASF160
 2908 0b48 18       		.byte	0x18
 2909 0b49 00       		.byte	0
 2910 0b4a 04       		.uleb128 0x4
 2911 0b4b DA090000 		.4byte	.LASF161
 2912 0b4f 0B       		.byte	0xb
 2913 0b50 50       		.byte	0x50
ARM GAS  /tmp/ccgcInBj.s 			page 60


 2914 0b51 02       		.byte	0x2
 2915 0b52 0B0B0000 		.4byte	0xb0b
 2916 0b56 1A       		.uleb128 0x1a
 2917 0b57 04       		.byte	0x4
 2918 0b58 0B       		.byte	0xb
 2919 0b59 5B       		.byte	0x5b
 2920 0b5a 09       		.byte	0x9
 2921 0b5b 8D0B0000 		.4byte	0xb8d
 2922 0b5f 10       		.uleb128 0x10
 2923 0b60 A4030000 		.4byte	.LASF162
 2924 0b64 0B       		.byte	0xb
 2925 0b65 5D       		.byte	0x5d
 2926 0b66 0C       		.byte	0xc
 2927 0b67 AB000000 		.4byte	0xab
 2928 0b6b 02       		.byte	0x2
 2929 0b6c 23       		.byte	0x23
 2930 0b6d 00       		.uleb128 0
 2931 0b6e 10       		.uleb128 0x10
 2932 0b6f C8000000 		.4byte	.LASF163
 2933 0b73 0B       		.byte	0xb
 2934 0b74 60       		.byte	0x60
 2935 0b75 15       		.byte	0x15
 2936 0b76 FF0A0000 		.4byte	0xaff
 2937 0b7a 02       		.byte	0x2
 2938 0b7b 23       		.byte	0x23
 2939 0b7c 02       		.uleb128 0x2
 2940 0b7d 10       		.uleb128 0x10
 2941 0b7e AC020000 		.4byte	.LASF164
 2942 0b82 0B       		.byte	0xb
 2943 0b83 63       		.byte	0x63
 2944 0b84 14       		.byte	0x14
 2945 0b85 4A0B0000 		.4byte	0xb4a
 2946 0b89 02       		.byte	0x2
 2947 0b8a 23       		.byte	0x23
 2948 0b8b 03       		.uleb128 0x3
 2949 0b8c 00       		.byte	0
 2950 0b8d 04       		.uleb128 0x4
 2951 0b8e 10060000 		.4byte	.LASF165
 2952 0b92 0B       		.byte	0xb
 2953 0b93 65       		.byte	0x65
 2954 0b94 02       		.byte	0x2
 2955 0b95 560B0000 		.4byte	0xb56
 2956 0b99 1A       		.uleb128 0x1a
 2957 0b9a 10       		.byte	0x10
 2958 0b9b 0C       		.byte	0xc
 2959 0b9c 32       		.byte	0x32
 2960 0b9d 09       		.byte	0x9
 2961 0b9e FD0B0000 		.4byte	0xbfd
 2962 0ba2 10       		.uleb128 0x10
 2963 0ba3 FA010000 		.4byte	.LASF166
 2964 0ba7 0C       		.byte	0xc
 2965 0ba8 34       		.byte	0x34
 2966 0ba9 0C       		.byte	0xc
 2967 0baa BC000000 		.4byte	0xbc
 2968 0bae 02       		.byte	0x2
 2969 0baf 23       		.byte	0x23
 2970 0bb0 00       		.uleb128 0
ARM GAS  /tmp/ccgcInBj.s 			page 61


 2971 0bb1 10       		.uleb128 0x10
 2972 0bb2 73080000 		.4byte	.LASF167
 2973 0bb6 0C       		.byte	0xc
 2974 0bb7 39       		.byte	0x39
 2975 0bb8 0C       		.byte	0xc
 2976 0bb9 AB000000 		.4byte	0xab
 2977 0bbd 02       		.byte	0x2
 2978 0bbe 23       		.byte	0x23
 2979 0bbf 04       		.uleb128 0x4
 2980 0bc0 10       		.uleb128 0x10
 2981 0bc1 4B030000 		.4byte	.LASF168
 2982 0bc5 0C       		.byte	0xc
 2983 0bc6 3C       		.byte	0x3c
 2984 0bc7 0C       		.byte	0xc
 2985 0bc8 AB000000 		.4byte	0xab
 2986 0bcc 02       		.byte	0x2
 2987 0bcd 23       		.byte	0x23
 2988 0bce 06       		.uleb128 0x6
 2989 0bcf 10       		.uleb128 0x10
 2990 0bd0 56010000 		.4byte	.LASF169
 2991 0bd4 0C       		.byte	0xc
 2992 0bd5 3F       		.byte	0x3f
 2993 0bd6 0C       		.byte	0xc
 2994 0bd7 AB000000 		.4byte	0xab
 2995 0bdb 02       		.byte	0x2
 2996 0bdc 23       		.byte	0x23
 2997 0bdd 08       		.uleb128 0x8
 2998 0bde 10       		.uleb128 0x10
 2999 0bdf B5010000 		.4byte	.LASF170
 3000 0be3 0C       		.byte	0xc
 3001 0be4 46       		.byte	0x46
 3002 0be5 0C       		.byte	0xc
 3003 0be6 AB000000 		.4byte	0xab
 3004 0bea 02       		.byte	0x2
 3005 0beb 23       		.byte	0x23
 3006 0bec 0A       		.uleb128 0xa
 3007 0bed 10       		.uleb128 0x10
 3008 0bee C1020000 		.4byte	.LASF171
 3009 0bf2 0C       		.byte	0xc
 3010 0bf3 49       		.byte	0x49
 3011 0bf4 0C       		.byte	0xc
 3012 0bf5 AB000000 		.4byte	0xab
 3013 0bf9 02       		.byte	0x2
 3014 0bfa 23       		.byte	0x23
 3015 0bfb 0C       		.uleb128 0xc
 3016 0bfc 00       		.byte	0
 3017 0bfd 04       		.uleb128 0x4
 3018 0bfe 48050000 		.4byte	.LASF172
 3019 0c02 0C       		.byte	0xc
 3020 0c03 4C       		.byte	0x4c
 3021 0c04 03       		.byte	0x3
 3022 0c05 990B0000 		.4byte	0xb99
 3023 0c09 1B       		.uleb128 0x1b
 3024 0c0a 57000000 		.4byte	.LASF216
 3025 0c0e 01       		.byte	0x1
 3026 0c0f 24       		.byte	0x24
 3027 0c10 16       		.byte	0x16
ARM GAS  /tmp/ccgcInBj.s 			page 62


 3028 0c11 E2000000 		.4byte	0xe2
 3029 0c15 1C       		.uleb128 0x1c
 3030 0c16 01       		.byte	0x1
 3031 0c17 0B0A0000 		.4byte	.LASF185
 3032 0c1b 01       		.byte	0x1
 3033 0c1c 62       		.byte	0x62
 3034 0c1d 05       		.byte	0x5
 3035 0c1e 01       		.byte	0x1
 3036 0c1f 29000000 		.4byte	0x29
 3037 0c23 00000000 		.4byte	.LFB47
 3038 0c27 64000000 		.4byte	.LFE47
 3039 0c2b 00000000 		.4byte	.LLST19
 3040 0c2f 01       		.byte	0x1
 3041 0c30 140D0000 		.4byte	0xd14
 3042 0c34 1D       		.uleb128 0x1d
 3043 0c35 10000000 		.4byte	.LVL53
 3044 0c39 1C120000 		.4byte	0x121c
 3045 0c3d 530C0000 		.4byte	0xc53
 3046 0c41 1E       		.uleb128 0x1e
 3047 0c42 01       		.byte	0x1
 3048 0c43 50       		.byte	0x50
 3049 0c44 01       		.byte	0x1
 3050 0c45 35       		.byte	0x35
 3051 0c46 1E       		.uleb128 0x1e
 3052 0c47 01       		.byte	0x1
 3053 0c48 51       		.byte	0x51
 3054 0c49 02       		.byte	0x2
 3055 0c4a 75       		.byte	0x75
 3056 0c4b 00       		.sleb128 0
 3057 0c4c 1E       		.uleb128 0x1e
 3058 0c4d 01       		.byte	0x1
 3059 0c4e 52       		.byte	0x52
 3060 0c4f 02       		.byte	0x2
 3061 0c50 74       		.byte	0x74
 3062 0c51 00       		.sleb128 0
 3063 0c52 00       		.byte	0
 3064 0c53 1F       		.uleb128 0x1f
 3065 0c54 14000000 		.4byte	.LVL54
 3066 0c58 F1110000 		.4byte	0x11f1
 3067 0c5c 1D       		.uleb128 0x1d
 3068 0c5d 24000000 		.4byte	.LVL55
 3069 0c61 2B120000 		.4byte	0x122b
 3070 0c65 960C0000 		.4byte	0xc96
 3071 0c69 1E       		.uleb128 0x1e
 3072 0c6a 01       		.byte	0x1
 3073 0c6b 50       		.byte	0x50
 3074 0c6c 05       		.byte	0x5
 3075 0c6d 03       		.byte	0x3
 3076 0c6e 00000000 		.4byte	task1
 3077 0c72 1E       		.uleb128 0x1e
 3078 0c73 01       		.byte	0x1
 3079 0c74 51       		.byte	0x51
 3080 0c75 05       		.byte	0x5
 3081 0c76 03       		.byte	0x3
 3082 0c77 4C000000 		.4byte	.LC5
 3083 0c7b 1E       		.uleb128 0x1e
 3084 0c7c 01       		.byte	0x1
ARM GAS  /tmp/ccgcInBj.s 			page 63


 3085 0c7d 52       		.byte	0x52
 3086 0c7e 02       		.byte	0x2
 3087 0c7f 08       		.byte	0x8
 3088 0c80 64       		.byte	0x64
 3089 0c81 1E       		.uleb128 0x1e
 3090 0c82 01       		.byte	0x1
 3091 0c83 53       		.byte	0x53
 3092 0c84 02       		.byte	0x2
 3093 0c85 74       		.byte	0x74
 3094 0c86 00       		.sleb128 0
 3095 0c87 1E       		.uleb128 0x1e
 3096 0c88 02       		.byte	0x2
 3097 0c89 7D       		.byte	0x7d
 3098 0c8a 00       		.sleb128 0
 3099 0c8b 02       		.byte	0x2
 3100 0c8c 75       		.byte	0x75
 3101 0c8d 00       		.sleb128 0
 3102 0c8e 1E       		.uleb128 0x1e
 3103 0c8f 02       		.byte	0x2
 3104 0c90 7D       		.byte	0x7d
 3105 0c91 04       		.sleb128 4
 3106 0c92 02       		.byte	0x2
 3107 0c93 74       		.byte	0x74
 3108 0c94 00       		.sleb128 0
 3109 0c95 00       		.byte	0
 3110 0c96 1D       		.uleb128 0x1d
 3111 0c97 34000000 		.4byte	.LVL56
 3112 0c9b 2B120000 		.4byte	0x122b
 3113 0c9f D00C0000 		.4byte	0xcd0
 3114 0ca3 1E       		.uleb128 0x1e
 3115 0ca4 01       		.byte	0x1
 3116 0ca5 50       		.byte	0x50
 3117 0ca6 05       		.byte	0x5
 3118 0ca7 03       		.byte	0x3
 3119 0ca8 00000000 		.4byte	task2
 3120 0cac 1E       		.uleb128 0x1e
 3121 0cad 01       		.byte	0x1
 3122 0cae 51       		.byte	0x51
 3123 0caf 05       		.byte	0x5
 3124 0cb0 03       		.byte	0x3
 3125 0cb1 55000000 		.4byte	.LC6
 3126 0cb5 1E       		.uleb128 0x1e
 3127 0cb6 01       		.byte	0x1
 3128 0cb7 52       		.byte	0x52
 3129 0cb8 02       		.byte	0x2
 3130 0cb9 08       		.byte	0x8
 3131 0cba 64       		.byte	0x64
 3132 0cbb 1E       		.uleb128 0x1e
 3133 0cbc 01       		.byte	0x1
 3134 0cbd 53       		.byte	0x53
 3135 0cbe 02       		.byte	0x2
 3136 0cbf 74       		.byte	0x74
 3137 0cc0 00       		.sleb128 0
 3138 0cc1 1E       		.uleb128 0x1e
 3139 0cc2 02       		.byte	0x2
 3140 0cc3 7D       		.byte	0x7d
 3141 0cc4 00       		.sleb128 0
ARM GAS  /tmp/ccgcInBj.s 			page 64


 3142 0cc5 02       		.byte	0x2
 3143 0cc6 75       		.byte	0x75
 3144 0cc7 00       		.sleb128 0
 3145 0cc8 1E       		.uleb128 0x1e
 3146 0cc9 02       		.byte	0x2
 3147 0cca 7D       		.byte	0x7d
 3148 0ccb 04       		.sleb128 4
 3149 0ccc 02       		.byte	0x2
 3150 0ccd 74       		.byte	0x74
 3151 0cce 00       		.sleb128 0
 3152 0ccf 00       		.byte	0
 3153 0cd0 1D       		.uleb128 0x1d
 3154 0cd1 44000000 		.4byte	.LVL57
 3155 0cd5 2B120000 		.4byte	0x122b
 3156 0cd9 0A0D0000 		.4byte	0xd0a
 3157 0cdd 1E       		.uleb128 0x1e
 3158 0cde 01       		.byte	0x1
 3159 0cdf 50       		.byte	0x50
 3160 0ce0 05       		.byte	0x5
 3161 0ce1 03       		.byte	0x3
 3162 0ce2 00000000 		.4byte	task3
 3163 0ce6 1E       		.uleb128 0x1e
 3164 0ce7 01       		.byte	0x1
 3165 0ce8 51       		.byte	0x51
 3166 0ce9 05       		.byte	0x5
 3167 0cea 03       		.byte	0x3
 3168 0ceb 5C000000 		.4byte	.LC7
 3169 0cef 1E       		.uleb128 0x1e
 3170 0cf0 01       		.byte	0x1
 3171 0cf1 52       		.byte	0x52
 3172 0cf2 02       		.byte	0x2
 3173 0cf3 08       		.byte	0x8
 3174 0cf4 64       		.byte	0x64
 3175 0cf5 1E       		.uleb128 0x1e
 3176 0cf6 01       		.byte	0x1
 3177 0cf7 53       		.byte	0x53
 3178 0cf8 02       		.byte	0x2
 3179 0cf9 74       		.byte	0x74
 3180 0cfa 00       		.sleb128 0
 3181 0cfb 1E       		.uleb128 0x1e
 3182 0cfc 02       		.byte	0x2
 3183 0cfd 7D       		.byte	0x7d
 3184 0cfe 00       		.sleb128 0
 3185 0cff 02       		.byte	0x2
 3186 0d00 75       		.byte	0x75
 3187 0d01 00       		.sleb128 0
 3188 0d02 1E       		.uleb128 0x1e
 3189 0d03 02       		.byte	0x2
 3190 0d04 7D       		.byte	0x7d
 3191 0d05 04       		.sleb128 4
 3192 0d06 02       		.byte	0x2
 3193 0d07 74       		.byte	0x74
 3194 0d08 00       		.sleb128 0
 3195 0d09 00       		.byte	0
 3196 0d0a 1F       		.uleb128 0x1f
 3197 0d0b 48000000 		.4byte	.LVL58
 3198 0d0f 3A120000 		.4byte	0x123a
ARM GAS  /tmp/ccgcInBj.s 			page 65


 3199 0d13 00       		.byte	0
 3200 0d14 20       		.uleb128 0x20
 3201 0d15 09040000 		.4byte	.LASF173
 3202 0d19 01       		.byte	0x1
 3203 0d1a 4D       		.byte	0x4d
 3204 0d1b 0D       		.byte	0xd
 3205 0d1c 01       		.byte	0x1
 3206 0d1d 84030000 		.4byte	.LFB46
 3207 0d21 C8030000 		.4byte	.LFE46
 3208 0d25 20000000 		.4byte	.LLST16
 3209 0d29 01       		.byte	0x1
 3210 0d2a EF0D0000 		.4byte	0xdef
 3211 0d2e 21       		.uleb128 0x21
 3212 0d2f 060A0000 		.4byte	.LASF175
 3213 0d33 01       		.byte	0x1
 3214 0d34 4D       		.byte	0x4d
 3215 0d35 19       		.byte	0x19
 3216 0d36 CD000000 		.4byte	0xcd
 3217 0d3a 44000000 		.4byte	.LLST17
 3218 0d3e 40000000 		.4byte	.LVUS17
 3219 0d42 22       		.uleb128 0x22
 3220 0d43 C9050000 		.4byte	.LASF182
 3221 0d47 01       		.byte	0x1
 3222 0d48 51       		.byte	0x51
 3223 0d49 07       		.byte	0x7
 3224 0d4a 00010000 		.4byte	0x100
 3225 0d4e 02       		.byte	0x2
 3226 0d4f 91       		.byte	0x91
 3227 0d50 68       		.sleb128 -24
 3228 0d51 23       		.uleb128 0x23
 3229 0d52 6E030000 		.4byte	.LASF177
 3230 0d56 01       		.byte	0x1
 3231 0d57 53       		.byte	0x53
 3232 0d58 06       		.byte	0x6
 3233 0d59 A1030000 		.4byte	0x3a1
 3234 0d5d 69000000 		.4byte	.LLST18
 3235 0d61 65000000 		.4byte	.LVUS18
 3236 0d65 1F       		.uleb128 0x1f
 3237 0d66 8A030000 		.4byte	.LVL43
 3238 0d6a 550F0000 		.4byte	0xf55
 3239 0d6e 1F       		.uleb128 0x1f
 3240 0d6f 8E030000 		.4byte	.LVL44
 3241 0d73 F9100000 		.4byte	0x10f9
 3242 0d77 1D       		.uleb128 0x1d
 3243 0d78 94030000 		.4byte	.LVL45
 3244 0d7c FB0E0000 		.4byte	0xefb
 3245 0d80 8E0D0000 		.4byte	0xd8e
 3246 0d84 1E       		.uleb128 0x1e
 3247 0d85 01       		.byte	0x1
 3248 0d86 50       		.byte	0x50
 3249 0d87 05       		.byte	0x5
 3250 0d88 03       		.byte	0x3
 3251 0d89 19000000 		.4byte	.LC2
 3252 0d8d 00       		.byte	0
 3253 0d8e 1D       		.uleb128 0x1d
 3254 0d8f 9E030000 		.4byte	.LVL46
 3255 0d93 FB0E0000 		.4byte	0xefb
ARM GAS  /tmp/ccgcInBj.s 			page 66


 3256 0d97 A20D0000 		.4byte	0xda2
 3257 0d9b 1E       		.uleb128 0x1e
 3258 0d9c 01       		.byte	0x1
 3259 0d9d 50       		.byte	0x50
 3260 0d9e 02       		.byte	0x2
 3261 0d9f 76       		.byte	0x76
 3262 0da0 00       		.sleb128 0
 3263 0da1 00       		.byte	0
 3264 0da2 1F       		.uleb128 0x1f
 3265 0da3 A2030000 		.4byte	.LVL47
 3266 0da7 0C100000 		.4byte	0x100c
 3267 0dab 1D       		.uleb128 0x1d
 3268 0dac AA030000 		.4byte	.LVL50
 3269 0db0 FB0E0000 		.4byte	0xefb
 3270 0db4 BF0D0000 		.4byte	0xdbf
 3271 0db8 1E       		.uleb128 0x1e
 3272 0db9 01       		.byte	0x1
 3273 0dba 50       		.byte	0x50
 3274 0dbb 02       		.byte	0x2
 3275 0dbc 75       		.byte	0x75
 3276 0dbd 00       		.sleb128 0
 3277 0dbe 00       		.byte	0
 3278 0dbf 1D       		.uleb128 0x1d
 3279 0dc0 B4030000 		.4byte	.LVL51
 3280 0dc4 49120000 		.4byte	0x1249
 3281 0dc8 DE0D0000 		.4byte	0xdde
 3282 0dcc 1E       		.uleb128 0x1e
 3283 0dcd 01       		.byte	0x1
 3284 0dce 50       		.byte	0x50
 3285 0dcf 02       		.byte	0x2
 3286 0dd0 74       		.byte	0x74
 3287 0dd1 00       		.sleb128 0
 3288 0dd2 1E       		.uleb128 0x1e
 3289 0dd3 01       		.byte	0x1
 3290 0dd4 51       		.byte	0x51
 3291 0dd5 02       		.byte	0x2
 3292 0dd6 7D       		.byte	0x7d
 3293 0dd7 00       		.sleb128 0
 3294 0dd8 1E       		.uleb128 0x1e
 3295 0dd9 01       		.byte	0x1
 3296 0dda 52       		.byte	0x52
 3297 0ddb 01       		.byte	0x1
 3298 0ddc 40       		.byte	0x40
 3299 0ddd 00       		.byte	0
 3300 0dde 24       		.uleb128 0x24
 3301 0ddf BA030000 		.4byte	.LVL52
 3302 0de3 FB0E0000 		.4byte	0xefb
 3303 0de7 1E       		.uleb128 0x1e
 3304 0de8 01       		.byte	0x1
 3305 0de9 50       		.byte	0x50
 3306 0dea 02       		.byte	0x2
 3307 0deb 7D       		.byte	0x7d
 3308 0dec 00       		.sleb128 0
 3309 0ded 00       		.byte	0
 3310 0dee 00       		.byte	0
 3311 0def 20       		.uleb128 0x20
 3312 0df0 03040000 		.4byte	.LASF174
ARM GAS  /tmp/ccgcInBj.s 			page 67


 3313 0df4 01       		.byte	0x1
 3314 0df5 42       		.byte	0x42
 3315 0df6 0D       		.byte	0xd
 3316 0df7 01       		.byte	0x1
 3317 0df8 00000000 		.4byte	.LFB45
 3318 0dfc 30000000 		.4byte	.LFE45
 3319 0e00 87000000 		.4byte	.LLST0
 3320 0e04 01       		.byte	0x1
 3321 0e05 2F0E0000 		.4byte	0xe2f
 3322 0e09 21       		.uleb128 0x21
 3323 0e0a 060A0000 		.4byte	.LASF175
 3324 0e0e 01       		.byte	0x1
 3325 0e0f 42       		.byte	0x42
 3326 0e10 19       		.byte	0x19
 3327 0e11 CD000000 		.4byte	0xcd
 3328 0e15 AB000000 		.4byte	.LLST1
 3329 0e19 A7000000 		.4byte	.LVUS1
 3330 0e1d 24       		.uleb128 0x24
 3331 0e1e 26000000 		.4byte	.LVL2
 3332 0e22 57120000 		.4byte	0x1257
 3333 0e26 1E       		.uleb128 0x1e
 3334 0e27 01       		.byte	0x1
 3335 0e28 50       		.byte	0x50
 3336 0e29 03       		.byte	0x3
 3337 0e2a 0A       		.byte	0xa
 3338 0e2b 8813     		.2byte	0x1388
 3339 0e2d 00       		.byte	0
 3340 0e2e 00       		.byte	0
 3341 0e2f 20       		.uleb128 0x20
 3342 0e30 FD030000 		.4byte	.LASF176
 3343 0e34 01       		.byte	0x1
 3344 0e35 26       		.byte	0x26
 3345 0e36 0D       		.byte	0xd
 3346 0e37 01       		.byte	0x1
 3347 0e38 30000000 		.4byte	.LFB44
 3348 0e3c CC000000 		.4byte	.LFE44
 3349 0e40 CC000000 		.4byte	.LLST2
 3350 0e44 01       		.byte	0x1
 3351 0e45 FB0E0000 		.4byte	0xefb
 3352 0e49 21       		.uleb128 0x21
 3353 0e4a 060A0000 		.4byte	.LASF175
 3354 0e4e 01       		.byte	0x1
 3355 0e4f 26       		.byte	0x26
 3356 0e50 19       		.byte	0x19
 3357 0e51 CD000000 		.4byte	0xcd
 3358 0e55 F0000000 		.4byte	.LLST3
 3359 0e59 EC000000 		.4byte	.LVUS3
 3360 0e5d 23       		.uleb128 0x23
 3361 0e5e 40020000 		.4byte	.LASF178
 3362 0e62 01       		.byte	0x1
 3363 0e63 36       		.byte	0x36
 3364 0e64 06       		.byte	0x6
 3365 0e65 B3030000 		.4byte	0x3b3
 3366 0e69 15010000 		.4byte	.LLST4
 3367 0e6d 11010000 		.4byte	.LVUS4
 3368 0e71 1F       		.uleb128 0x1f
 3369 0e72 84000000 		.4byte	.LVL4
ARM GAS  /tmp/ccgcInBj.s 			page 68


 3370 0e76 66120000 		.4byte	0x1266
 3371 0e7a 1D       		.uleb128 0x1d
 3372 0e7b 8A000000 		.4byte	.LVL5
 3373 0e7f 74120000 		.4byte	0x1274
 3374 0e83 8D0E0000 		.4byte	0xe8d
 3375 0e87 1E       		.uleb128 0x1e
 3376 0e88 01       		.byte	0x1
 3377 0e89 50       		.byte	0x50
 3378 0e8a 01       		.byte	0x1
 3379 0e8b 3C       		.byte	0x3c
 3380 0e8c 00       		.byte	0
 3381 0e8d 1D       		.uleb128 0x1d
 3382 0e8e 94000000 		.4byte	.LVL6
 3383 0e92 82120000 		.4byte	0x1282
 3384 0e96 AE0E0000 		.4byte	0xeae
 3385 0e9a 1E       		.uleb128 0x1e
 3386 0e9b 01       		.byte	0x1
 3387 0e9c 50       		.byte	0x50
 3388 0e9d 05       		.byte	0x5
 3389 0e9e 03       		.byte	0x3
 3390 0e9f 00000000 		.4byte	.LC0
 3391 0ea3 1E       		.uleb128 0x1e
 3392 0ea4 01       		.byte	0x1
 3393 0ea5 51       		.byte	0x51
 3394 0ea6 01       		.byte	0x1
 3395 0ea7 30       		.byte	0x30
 3396 0ea8 1E       		.uleb128 0x1e
 3397 0ea9 01       		.byte	0x1
 3398 0eaa 52       		.byte	0x52
 3399 0eab 01       		.byte	0x1
 3400 0eac 30       		.byte	0x30
 3401 0ead 00       		.byte	0
 3402 0eae 1D       		.uleb128 0x1d
 3403 0eaf A2000000 		.4byte	.LVL9
 3404 0eb3 82120000 		.4byte	0x1282
 3405 0eb7 CC0E0000 		.4byte	0xecc
 3406 0ebb 1E       		.uleb128 0x1e
 3407 0ebc 01       		.byte	0x1
 3408 0ebd 50       		.byte	0x50
 3409 0ebe 02       		.byte	0x2
 3410 0ebf 76       		.byte	0x76
 3411 0ec0 00       		.sleb128 0
 3412 0ec1 1E       		.uleb128 0x1e
 3413 0ec2 01       		.byte	0x1
 3414 0ec3 51       		.byte	0x51
 3415 0ec4 01       		.byte	0x1
 3416 0ec5 31       		.byte	0x31
 3417 0ec6 1E       		.uleb128 0x1e
 3418 0ec7 01       		.byte	0x1
 3419 0ec8 52       		.byte	0x52
 3420 0ec9 01       		.byte	0x1
 3421 0eca 30       		.byte	0x30
 3422 0ecb 00       		.byte	0
 3423 0ecc 1D       		.uleb128 0x1d
 3424 0ecd AC000000 		.4byte	.LVL10
 3425 0ed1 90120000 		.4byte	0x1290
 3426 0ed5 EA0E0000 		.4byte	0xeea
ARM GAS  /tmp/ccgcInBj.s 			page 69


 3427 0ed9 1E       		.uleb128 0x1e
 3428 0eda 01       		.byte	0x1
 3429 0edb 50       		.byte	0x50
 3430 0edc 02       		.byte	0x2
 3431 0edd 74       		.byte	0x74
 3432 0ede 00       		.sleb128 0
 3433 0edf 1E       		.uleb128 0x1e
 3434 0ee0 01       		.byte	0x1
 3435 0ee1 51       		.byte	0x51
 3436 0ee2 01       		.byte	0x1
 3437 0ee3 31       		.byte	0x31
 3438 0ee4 1E       		.uleb128 0x1e
 3439 0ee5 01       		.byte	0x1
 3440 0ee6 52       		.byte	0x52
 3441 0ee7 01       		.byte	0x1
 3442 0ee8 3B       		.byte	0x3b
 3443 0ee9 00       		.byte	0
 3444 0eea 24       		.uleb128 0x24
 3445 0eeb B2000000 		.4byte	.LVL11
 3446 0eef 57120000 		.4byte	0x1257
 3447 0ef3 1E       		.uleb128 0x1e
 3448 0ef4 01       		.byte	0x1
 3449 0ef5 50       		.byte	0x50
 3450 0ef6 02       		.byte	0x2
 3451 0ef7 75       		.byte	0x75
 3452 0ef8 00       		.sleb128 0
 3453 0ef9 00       		.byte	0
 3454 0efa 00       		.byte	0
 3455 0efb 25       		.uleb128 0x25
 3456 0efc 01       		.byte	0x1
 3457 0efd B0000000 		.4byte	.LASF180
 3458 0f01 04       		.byte	0x4
 3459 0f02 28       		.byte	0x28
 3460 0f03 06       		.byte	0x6
 3461 0f04 01       		.byte	0x1
 3462 0f05 5C030000 		.4byte	.LFB43
 3463 0f09 84030000 		.4byte	.LFE43
 3464 0f0d 33010000 		.4byte	.LLST14
 3465 0f11 01       		.byte	0x1
 3466 0f12 550F0000 		.4byte	0xf55
 3467 0f16 21       		.uleb128 0x21
 3468 0f17 00000000 		.4byte	.LASF179
 3469 0f1b 04       		.byte	0x4
 3470 0f1c 28       		.byte	0x28
 3471 0f1d 16       		.byte	0x16
 3472 0f1e FA000000 		.4byte	0xfa
 3473 0f22 5B010000 		.4byte	.LLST15
 3474 0f26 53010000 		.4byte	.LVUS15
 3475 0f2a 1D       		.uleb128 0x1d
 3476 0f2b 70030000 		.4byte	.LVL40
 3477 0f2f 9E120000 		.4byte	0x129e
 3478 0f33 3E0F0000 		.4byte	0xf3e
 3479 0f37 1E       		.uleb128 0x1e
 3480 0f38 01       		.byte	0x1
 3481 0f39 50       		.byte	0x50
 3482 0f3a 02       		.byte	0x2
 3483 0f3b 75       		.byte	0x75
ARM GAS  /tmp/ccgcInBj.s 			page 70


 3484 0f3c 00       		.sleb128 0
 3485 0f3d 00       		.byte	0
 3486 0f3e 24       		.uleb128 0x24
 3487 0f3f 78030000 		.4byte	.LVL41
 3488 0f43 AD120000 		.4byte	0x12ad
 3489 0f47 1E       		.uleb128 0x1e
 3490 0f48 01       		.byte	0x1
 3491 0f49 50       		.byte	0x50
 3492 0f4a 02       		.byte	0x2
 3493 0f4b 75       		.byte	0x75
 3494 0f4c 00       		.sleb128 0
 3495 0f4d 1E       		.uleb128 0x1e
 3496 0f4e 01       		.byte	0x1
 3497 0f4f 51       		.byte	0x51
 3498 0f50 02       		.byte	0x2
 3499 0f51 08       		.byte	0x8
 3500 0f52 40       		.byte	0x40
 3501 0f53 00       		.byte	0
 3502 0f54 00       		.byte	0
 3503 0f55 25       		.uleb128 0x25
 3504 0f56 01       		.byte	0x1
 3505 0f57 3E000000 		.4byte	.LASF181
 3506 0f5b 04       		.byte	0x4
 3507 0f5c 07       		.byte	0x7
 3508 0f5d 06       		.byte	0x6
 3509 0f5e 01       		.byte	0x1
 3510 0f5f EC020000 		.4byte	.LFB42
 3511 0f63 5C030000 		.4byte	.LFE42
 3512 0f67 93010000 		.4byte	.LLST13
 3513 0f6b 01       		.byte	0x1
 3514 0f6c 0C100000 		.4byte	0x100c
 3515 0f70 22       		.uleb128 0x22
 3516 0f71 FD050000 		.4byte	.LASF183
 3517 0f75 04       		.byte	0x4
 3518 0f76 0C       		.byte	0xc
 3519 0f77 15       		.byte	0x15
 3520 0f78 8D0B0000 		.4byte	0xb8d
 3521 0f7c 02       		.byte	0x2
 3522 0f7d 91       		.byte	0x91
 3523 0f7e 64       		.sleb128 -28
 3524 0f7f 22       		.uleb128 0x22
 3525 0f80 06070000 		.4byte	.LASF184
 3526 0f84 04       		.byte	0x4
 3527 0f85 1A       		.byte	0x1a
 3528 0f86 16       		.byte	0x16
 3529 0f87 FD0B0000 		.4byte	0xbfd
 3530 0f8b 02       		.byte	0x2
 3531 0f8c 91       		.byte	0x91
 3532 0f8d 68       		.sleb128 -24
 3533 0f8e 1D       		.uleb128 0x1d
 3534 0f8f FA020000 		.4byte	.LVL31
 3535 0f93 BC120000 		.4byte	0x12bc
 3536 0f97 A80F0000 		.4byte	0xfa8
 3537 0f9b 1E       		.uleb128 0x1e
 3538 0f9c 01       		.byte	0x1
 3539 0f9d 50       		.byte	0x50
 3540 0f9e 03       		.byte	0x3
ARM GAS  /tmp/ccgcInBj.s 			page 71


 3541 0f9f 0A       		.byte	0xa
 3542 0fa0 0440     		.2byte	0x4004
 3543 0fa2 1E       		.uleb128 0x1e
 3544 0fa3 01       		.byte	0x1
 3545 0fa4 51       		.byte	0x51
 3546 0fa5 01       		.byte	0x1
 3547 0fa6 31       		.byte	0x31
 3548 0fa7 00       		.byte	0
 3549 0fa8 1D       		.uleb128 0x1d
 3550 0fa9 14030000 		.4byte	.LVL32
 3551 0fad CB120000 		.4byte	0x12cb
 3552 0fb1 C20F0000 		.4byte	0xfc2
 3553 0fb5 1E       		.uleb128 0x1e
 3554 0fb6 01       		.byte	0x1
 3555 0fb7 50       		.byte	0x50
 3556 0fb8 02       		.byte	0x2
 3557 0fb9 74       		.byte	0x74
 3558 0fba 00       		.sleb128 0
 3559 0fbb 1E       		.uleb128 0x1e
 3560 0fbc 01       		.byte	0x1
 3561 0fbd 51       		.byte	0x51
 3562 0fbe 02       		.byte	0x2
 3563 0fbf 91       		.byte	0x91
 3564 0fc0 64       		.sleb128 -28
 3565 0fc1 00       		.byte	0
 3566 0fc2 1D       		.uleb128 0x1d
 3567 0fc3 2C030000 		.4byte	.LVL33
 3568 0fc7 CB120000 		.4byte	0x12cb
 3569 0fcb DC0F0000 		.4byte	0xfdc
 3570 0fcf 1E       		.uleb128 0x1e
 3571 0fd0 01       		.byte	0x1
 3572 0fd1 50       		.byte	0x50
 3573 0fd2 02       		.byte	0x2
 3574 0fd3 74       		.byte	0x74
 3575 0fd4 00       		.sleb128 0
 3576 0fd5 1E       		.uleb128 0x1e
 3577 0fd6 01       		.byte	0x1
 3578 0fd7 51       		.byte	0x51
 3579 0fd8 02       		.byte	0x2
 3580 0fd9 91       		.byte	0x91
 3581 0fda 64       		.sleb128 -28
 3582 0fdb 00       		.byte	0
 3583 0fdc 1D       		.uleb128 0x1d
 3584 0fdd 4C030000 		.4byte	.LVL34
 3585 0fe1 DA120000 		.4byte	0x12da
 3586 0fe5 F60F0000 		.4byte	0xff6
 3587 0fe9 1E       		.uleb128 0x1e
 3588 0fea 01       		.byte	0x1
 3589 0feb 50       		.byte	0x50
 3590 0fec 02       		.byte	0x2
 3591 0fed 74       		.byte	0x74
 3592 0fee 00       		.sleb128 0
 3593 0fef 1E       		.uleb128 0x1e
 3594 0ff0 01       		.byte	0x1
 3595 0ff1 51       		.byte	0x51
 3596 0ff2 02       		.byte	0x2
 3597 0ff3 91       		.byte	0x91
ARM GAS  /tmp/ccgcInBj.s 			page 72


 3598 0ff4 68       		.sleb128 -24
 3599 0ff5 00       		.byte	0
 3600 0ff6 24       		.uleb128 0x24
 3601 0ff7 54030000 		.4byte	.LVL35
 3602 0ffb E9120000 		.4byte	0x12e9
 3603 0fff 1E       		.uleb128 0x1e
 3604 1000 01       		.byte	0x1
 3605 1001 50       		.byte	0x50
 3606 1002 02       		.byte	0x2
 3607 1003 74       		.byte	0x74
 3608 1004 00       		.sleb128 0
 3609 1005 1E       		.uleb128 0x1e
 3610 1006 01       		.byte	0x1
 3611 1007 51       		.byte	0x51
 3612 1008 01       		.byte	0x1
 3613 1009 31       		.byte	0x31
 3614 100a 00       		.byte	0
 3615 100b 00       		.byte	0
 3616 100c 1C       		.uleb128 0x1c
 3617 100d 01       		.byte	0x1
 3618 100e E7080000 		.4byte	.LASF186
 3619 1012 03       		.byte	0x3
 3620 1013 15       		.byte	0x15
 3621 1014 0A       		.byte	0xa
 3622 1015 01       		.byte	0x1
 3623 1016 BC000000 		.4byte	0xbc
 3624 101a 84020000 		.4byte	.LFB41
 3625 101e EC020000 		.4byte	.LFE41
 3626 1022 CB010000 		.4byte	.LLST9
 3627 1026 01       		.byte	0x1
 3628 1027 F9100000 		.4byte	0x10f9
 3629 102b 23       		.uleb128 0x23
 3630 102c 14090000 		.4byte	.LASF187
 3631 1030 03       		.byte	0x3
 3632 1031 16       		.byte	0x16
 3633 1032 0C       		.byte	0xc
 3634 1033 BC000000 		.4byte	0xbc
 3635 1037 F1010000 		.4byte	.LLST10
 3636 103b EB010000 		.4byte	.LVUS10
 3637 103f 26       		.uleb128 0x26
 3638 1040 62697400 		.ascii	"bit\000"
 3639 1044 03       		.byte	0x3
 3640 1045 17       		.byte	0x17
 3641 1046 0C       		.byte	0xc
 3642 1047 BC000000 		.4byte	0xbc
 3643 104b 23020000 		.4byte	.LLST11
 3644 104f 1B020000 		.4byte	.LVUS11
 3645 1053 23       		.uleb128 0x23
 3646 1054 0F040000 		.4byte	.LASF188
 3647 1058 03       		.byte	0x3
 3648 1059 18       		.byte	0x18
 3649 105a 0C       		.byte	0xc
 3650 105b BC000000 		.4byte	0xbc
 3651 105f 5E020000 		.4byte	.LLST12
 3652 1063 5A020000 		.4byte	.LVUS12
 3653 1067 1D       		.uleb128 0x1d
 3654 1068 92020000 		.4byte	.LVL20
ARM GAS  /tmp/ccgcInBj.s 			page 73


 3655 106c F8120000 		.4byte	0x12f8
 3656 1070 82100000 		.4byte	0x1082
 3657 1074 1E       		.uleb128 0x1e
 3658 1075 01       		.byte	0x1
 3659 1076 50       		.byte	0x50
 3660 1077 02       		.byte	0x2
 3661 1078 74       		.byte	0x74
 3662 1079 00       		.sleb128 0
 3663 107a 1E       		.uleb128 0x1e
 3664 107b 01       		.byte	0x1
 3665 107c 51       		.byte	0x51
 3666 107d 03       		.byte	0x3
 3667 107e 0A       		.byte	0xa
 3668 107f 0001     		.2byte	0x100
 3669 1081 00       		.byte	0
 3670 1082 1D       		.uleb128 0x1d
 3671 1083 A2020000 		.4byte	.LVL21
 3672 1087 F8120000 		.4byte	0x12f8
 3673 108b 9D100000 		.4byte	0x109d
 3674 108f 1E       		.uleb128 0x1e
 3675 1090 01       		.byte	0x1
 3676 1091 50       		.byte	0x50
 3677 1092 02       		.byte	0x2
 3678 1093 74       		.byte	0x74
 3679 1094 00       		.sleb128 0
 3680 1095 1E       		.uleb128 0x1e
 3681 1096 01       		.byte	0x1
 3682 1097 51       		.byte	0x51
 3683 1098 03       		.byte	0x3
 3684 1099 0A       		.byte	0xa
 3685 109a 0001     		.2byte	0x100
 3686 109c 00       		.byte	0
 3687 109d 1D       		.uleb128 0x1d
 3688 109e B2020000 		.4byte	.LVL22
 3689 10a2 F8120000 		.4byte	0x12f8
 3690 10a6 B8100000 		.4byte	0x10b8
 3691 10aa 1E       		.uleb128 0x1e
 3692 10ab 01       		.byte	0x1
 3693 10ac 50       		.byte	0x50
 3694 10ad 02       		.byte	0x2
 3695 10ae 75       		.byte	0x75
 3696 10af 00       		.sleb128 0
 3697 10b0 1E       		.uleb128 0x1e
 3698 10b1 01       		.byte	0x1
 3699 10b2 51       		.byte	0x51
 3700 10b3 03       		.byte	0x3
 3701 10b4 0A       		.byte	0xa
 3702 10b5 0001     		.2byte	0x100
 3703 10b7 00       		.byte	0
 3704 10b8 1D       		.uleb128 0x1d
 3705 10b9 C2020000 		.4byte	.LVL24
 3706 10bd 57120000 		.4byte	0x1257
 3707 10c1 CC100000 		.4byte	0x10cc
 3708 10c5 1E       		.uleb128 0x1e
 3709 10c6 01       		.byte	0x1
 3710 10c7 50       		.byte	0x50
 3711 10c8 02       		.byte	0x2
ARM GAS  /tmp/ccgcInBj.s 			page 74


 3712 10c9 08       		.byte	0x8
 3713 10ca C8       		.byte	0xc8
 3714 10cb 00       		.byte	0
 3715 10cc 1D       		.uleb128 0x1d
 3716 10cd CC020000 		.4byte	.LVL25
 3717 10d1 F8120000 		.4byte	0x12f8
 3718 10d5 E7100000 		.4byte	0x10e7
 3719 10d9 1E       		.uleb128 0x1e
 3720 10da 01       		.byte	0x1
 3721 10db 50       		.byte	0x50
 3722 10dc 02       		.byte	0x2
 3723 10dd 76       		.byte	0x76
 3724 10de 00       		.sleb128 0
 3725 10df 1E       		.uleb128 0x1e
 3726 10e0 01       		.byte	0x1
 3727 10e1 51       		.byte	0x51
 3728 10e2 03       		.byte	0x3
 3729 10e3 0A       		.byte	0xa
 3730 10e4 0001     		.2byte	0x100
 3731 10e6 00       		.byte	0
 3732 10e7 24       		.uleb128 0x24
 3733 10e8 DE020000 		.4byte	.LVL29
 3734 10ec 57120000 		.4byte	0x1257
 3735 10f0 1E       		.uleb128 0x1e
 3736 10f1 01       		.byte	0x1
 3737 10f2 50       		.byte	0x50
 3738 10f3 03       		.byte	0x3
 3739 10f4 0A       		.byte	0xa
 3740 10f5 2C01     		.2byte	0x12c
 3741 10f7 00       		.byte	0
 3742 10f8 00       		.byte	0
 3743 10f9 25       		.uleb128 0x25
 3744 10fa 01       		.byte	0x1
 3745 10fb 8A030000 		.4byte	.LASF189
 3746 10ff 03       		.byte	0x3
 3747 1100 08       		.byte	0x8
 3748 1101 06       		.byte	0x6
 3749 1102 01       		.byte	0x1
 3750 1103 58020000 		.4byte	.LFB40
 3751 1107 84020000 		.4byte	.LFE40
 3752 110b 82020000 		.4byte	.LLST8
 3753 110f 01       		.byte	0x1
 3754 1110 55110000 		.4byte	0x1155
 3755 1114 22       		.uleb128 0x22
 3756 1115 FD050000 		.4byte	.LASF183
 3757 1119 03       		.byte	0x3
 3758 111a 09       		.byte	0x9
 3759 111b 14       		.byte	0x14
 3760 111c 8D0B0000 		.4byte	0xb8d
 3761 1120 02       		.byte	0x2
 3762 1121 91       		.byte	0x91
 3763 1122 74       		.sleb128 -12
 3764 1123 1D       		.uleb128 0x1d
 3765 1124 62020000 		.4byte	.LVL17
 3766 1128 BC120000 		.4byte	0x12bc
 3767 112c 3B110000 		.4byte	0x113b
 3768 1130 1E       		.uleb128 0x1e
ARM GAS  /tmp/ccgcInBj.s 			page 75


 3769 1131 01       		.byte	0x1
 3770 1132 50       		.byte	0x50
 3771 1133 01       		.byte	0x1
 3772 1134 38       		.byte	0x38
 3773 1135 1E       		.uleb128 0x1e
 3774 1136 01       		.byte	0x1
 3775 1137 51       		.byte	0x51
 3776 1138 01       		.byte	0x1
 3777 1139 31       		.byte	0x31
 3778 113a 00       		.byte	0
 3779 113b 24       		.uleb128 0x24
 3780 113c 7A020000 		.4byte	.LVL18
 3781 1140 CB120000 		.4byte	0x12cb
 3782 1144 1E       		.uleb128 0x1e
 3783 1145 01       		.byte	0x1
 3784 1146 50       		.byte	0x50
 3785 1147 05       		.byte	0x5
 3786 1148 0C       		.byte	0xc
 3787 1149 000C0140 		.4byte	0x40010c00
 3788 114d 1E       		.uleb128 0x1e
 3789 114e 01       		.byte	0x1
 3790 114f 51       		.byte	0x51
 3791 1150 02       		.byte	0x2
 3792 1151 91       		.byte	0x91
 3793 1152 74       		.sleb128 -12
 3794 1153 00       		.byte	0
 3795 1154 00       		.byte	0
 3796 1155 27       		.uleb128 0x27
 3797 1156 01       		.byte	0x1
 3798 1157 B9070000 		.4byte	.LASF190
 3799 115b 02       		.byte	0x2
 3800 115c 7C       		.byte	0x7c
 3801 115d 06       		.byte	0x6
 3802 115e 01       		.byte	0x1
 3803 115f 3C020000 		.4byte	.LFB39
 3804 1163 58020000 		.4byte	.LFE39
 3805 1167 02       		.byte	0x2
 3806 1168 7D       		.byte	0x7d
 3807 1169 00       		.sleb128 0
 3808 116a 01       		.byte	0x1
 3809 116b 84110000 		.4byte	0x1184
 3810 116f 21       		.uleb128 0x21
 3811 1170 60050000 		.4byte	.LASF191
 3812 1174 02       		.byte	0x2
 3813 1175 7C       		.byte	0x7c
 3814 1176 22       		.byte	0x22
 3815 1177 55020000 		.4byte	0x255
 3816 117b B2020000 		.4byte	.LLST7
 3817 117f AE020000 		.4byte	.LVUS7
 3818 1183 00       		.byte	0
 3819 1184 27       		.uleb128 0x27
 3820 1185 01       		.byte	0x1
 3821 1186 EC050000 		.4byte	.LASF192
 3822 118a 02       		.byte	0x2
 3823 118b 74       		.byte	0x74
 3824 118c 06       		.byte	0x6
 3825 118d 01       		.byte	0x1
ARM GAS  /tmp/ccgcInBj.s 			page 76


 3826 118e 24020000 		.4byte	.LFB38
 3827 1192 3C020000 		.4byte	.LFE38
 3828 1196 02       		.byte	0x2
 3829 1197 7D       		.byte	0x7d
 3830 1198 00       		.sleb128 0
 3831 1199 01       		.byte	0x1
 3832 119a B3110000 		.4byte	0x11b3
 3833 119e 21       		.uleb128 0x21
 3834 119f 60050000 		.4byte	.LASF191
 3835 11a3 02       		.byte	0x2
 3836 11a4 74       		.byte	0x74
 3837 11a5 21       		.byte	0x21
 3838 11a6 55020000 		.4byte	0x255
 3839 11aa D7020000 		.4byte	.LLST6
 3840 11ae D3020000 		.4byte	.LVUS6
 3841 11b2 00       		.byte	0
 3842 11b3 28       		.uleb128 0x28
 3843 11b4 01       		.byte	0x1
 3844 11b5 39030000 		.4byte	.LASF194
 3845 11b9 02       		.byte	0x2
 3846 11ba 67       		.byte	0x67
 3847 11bb 06       		.byte	0x6
 3848 11bc 01       		.byte	0x1
 3849 11bd FC010000 		.4byte	.LFB37
 3850 11c1 24020000 		.4byte	.LFE37
 3851 11c5 02       		.byte	0x2
 3852 11c6 7D       		.byte	0x7d
 3853 11c7 00       		.sleb128 0
 3854 11c8 01       		.byte	0x1
 3855 11c9 25       		.uleb128 0x25
 3856 11ca 01       		.byte	0x1
 3857 11cb D1050000 		.4byte	.LASF193
 3858 11cf 02       		.byte	0x2
 3859 11d0 60       		.byte	0x60
 3860 11d1 06       		.byte	0x6
 3861 11d2 01       		.byte	0x1
 3862 11d3 CC010000 		.4byte	.LFB36
 3863 11d7 FC010000 		.4byte	.LFE36
 3864 11db F8020000 		.4byte	.LLST5
 3865 11df 01       		.byte	0x1
 3866 11e0 F1110000 		.4byte	0x11f1
 3867 11e4 29       		.uleb128 0x29
 3868 11e5 5400     		.ascii	"T\000"
 3869 11e7 02       		.byte	0x2
 3870 11e8 60       		.byte	0x60
 3871 11e9 17       		.byte	0x17
 3872 11ea AE030000 		.4byte	0x3ae
 3873 11ee 01       		.byte	0x1
 3874 11ef 50       		.byte	0x50
 3875 11f0 00       		.byte	0
 3876 11f1 28       		.uleb128 0x28
 3877 11f2 01       		.byte	0x1
 3878 11f3 EC060000 		.4byte	.LASF195
 3879 11f7 02       		.byte	0x2
 3880 11f8 3E       		.byte	0x3e
 3881 11f9 06       		.byte	0x6
 3882 11fa 01       		.byte	0x1
ARM GAS  /tmp/ccgcInBj.s 			page 77


 3883 11fb 58010000 		.4byte	.LFB35
 3884 11ff CC010000 		.4byte	.LFE35
 3885 1203 02       		.byte	0x2
 3886 1204 7D       		.byte	0x7d
 3887 1205 00       		.sleb128 0
 3888 1206 01       		.byte	0x1
 3889 1207 2A       		.uleb128 0x2a
 3890 1208 01       		.byte	0x1
 3891 1209 97070000 		.4byte	.LASF217
 3892 120d 02       		.byte	0x2
 3893 120e 0E       		.byte	0xe
 3894 120f 06       		.byte	0x6
 3895 1210 CC000000 		.4byte	.LFB34
 3896 1214 58010000 		.4byte	.LFE34
 3897 1218 02       		.byte	0x2
 3898 1219 7D       		.byte	0x7d
 3899 121a 00       		.sleb128 0
 3900 121b 01       		.byte	0x1
 3901 121c 2B       		.uleb128 0x2b
 3902 121d 01       		.byte	0x1
 3903 121e 01       		.byte	0x1
 3904 121f 76030000 		.4byte	.LASF196
 3905 1223 76030000 		.4byte	.LASF196
 3906 1227 08       		.byte	0x8
 3907 1228 D805     		.2byte	0x5d8
 3908 122a 10       		.byte	0x10
 3909 122b 2B       		.uleb128 0x2b
 3910 122c 01       		.byte	0x1
 3911 122d 01       		.byte	0x1
 3912 122e B8050000 		.4byte	.LASF197
 3913 1232 B8050000 		.4byte	.LASF197
 3914 1236 0D       		.byte	0xd
 3915 1237 4A01     		.2byte	0x14a
 3916 1239 0D       		.byte	0xd
 3917 123a 2B       		.uleb128 0x2b
 3918 123b 01       		.byte	0x1
 3919 123c 01       		.byte	0x1
 3920 123d 5A030000 		.4byte	.LASF198
 3921 1241 5A030000 		.4byte	.LASF198
 3922 1245 0D       		.byte	0xd
 3923 1246 9704     		.2byte	0x497
 3924 1248 06       		.byte	0x6
 3925 1249 2C       		.uleb128 0x2c
 3926 124a 01       		.byte	0x1
 3927 124b 01       		.byte	0x1
 3928 124c 12010000 		.4byte	.LASF199
 3929 1250 12010000 		.4byte	.LASF199
 3930 1254 0E       		.byte	0xe
 3931 1255 E3       		.byte	0xe3
 3932 1256 08       		.byte	0x8
 3933 1257 2B       		.uleb128 0x2b
 3934 1258 01       		.byte	0x1
 3935 1259 01       		.byte	0x1
 3936 125a 7D010000 		.4byte	.LASF200
 3937 125e 7D010000 		.4byte	.LASF200
 3938 1262 0D       		.byte	0xd
 3939 1263 F602     		.2byte	0x2f6
ARM GAS  /tmp/ccgcInBj.s 			page 78


 3940 1265 06       		.byte	0x6
 3941 1266 2C       		.uleb128 0x2c
 3942 1267 01       		.byte	0x1
 3943 1268 01       		.byte	0x1
 3944 1269 FE080000 		.4byte	.LASF201
 3945 126d FE080000 		.4byte	.LASF201
 3946 1271 0F       		.byte	0xf
 3947 1272 2F       		.byte	0x2f
 3948 1273 06       		.byte	0x6
 3949 1274 2C       		.uleb128 0x2c
 3950 1275 01       		.byte	0x1
 3951 1276 01       		.byte	0x1
 3952 1277 BF000000 		.4byte	.LASF202
 3953 127b BF000000 		.4byte	.LASF202
 3954 127f 0F       		.byte	0xf
 3955 1280 2E       		.byte	0x2e
 3956 1281 06       		.byte	0x6
 3957 1282 2C       		.uleb128 0x2c
 3958 1283 01       		.byte	0x1
 3959 1284 01       		.byte	0x1
 3960 1285 73010000 		.4byte	.LASF203
 3961 1289 73010000 		.4byte	.LASF203
 3962 128d 0F       		.byte	0xf
 3963 128e 2C       		.byte	0x2c
 3964 128f 06       		.byte	0x6
 3965 1290 2C       		.uleb128 0x2c
 3966 1291 01       		.byte	0x1
 3967 1292 01       		.byte	0x1
 3968 1293 93080000 		.4byte	.LASF204
 3969 1297 93080000 		.4byte	.LASF204
 3970 129b 0F       		.byte	0xf
 3971 129c 2A       		.byte	0x2a
 3972 129d 06       		.byte	0x6
 3973 129e 2B       		.uleb128 0x2b
 3974 129f 01       		.byte	0x1
 3975 12a0 01       		.byte	0x1
 3976 12a1 84080000 		.4byte	.LASF205
 3977 12a5 84080000 		.4byte	.LASF205
 3978 12a9 0C       		.byte	0xc
 3979 12aa 7A01     		.2byte	0x17a
 3980 12ac 06       		.byte	0x6
 3981 12ad 2B       		.uleb128 0x2b
 3982 12ae 01       		.byte	0x1
 3983 12af 01       		.byte	0x1
 3984 12b0 42010000 		.4byte	.LASF206
 3985 12b4 42010000 		.4byte	.LASF206
 3986 12b8 0C       		.byte	0xc
 3987 12b9 8601     		.2byte	0x186
 3988 12bb 0C       		.byte	0xc
 3989 12bc 2B       		.uleb128 0x2b
 3990 12bd 01       		.byte	0x1
 3991 12be 01       		.byte	0x1
 3992 12bf 61000000 		.4byte	.LASF207
 3993 12c3 61000000 		.4byte	.LASF207
 3994 12c7 10       		.byte	0x10
 3995 12c8 B502     		.2byte	0x2b5
 3996 12ca 06       		.byte	0x6
ARM GAS  /tmp/ccgcInBj.s 			page 79


 3997 12cb 2B       		.uleb128 0x2b
 3998 12cc 01       		.byte	0x1
 3999 12cd 01       		.byte	0x1
 4000 12ce 95050000 		.4byte	.LASF208
 4001 12d2 95050000 		.4byte	.LASF208
 4002 12d6 0B       		.byte	0xb
 4003 12d7 5F01     		.2byte	0x15f
 4004 12d9 06       		.byte	0x6
 4005 12da 2B       		.uleb128 0x2b
 4006 12db 01       		.byte	0x1
 4007 12dc 01       		.byte	0x1
 4008 12dd 65050000 		.4byte	.LASF209
 4009 12e1 65050000 		.4byte	.LASF209
 4010 12e5 0C       		.byte	0xc
 4011 12e6 6E01     		.2byte	0x16e
 4012 12e8 06       		.byte	0x6
 4013 12e9 2B       		.uleb128 0x2b
 4014 12ea 01       		.byte	0x1
 4015 12eb 01       		.byte	0x1
 4016 12ec 69080000 		.4byte	.LASF210
 4017 12f0 69080000 		.4byte	.LASF210
 4018 12f4 0C       		.byte	0xc
 4019 12f5 7201     		.2byte	0x172
 4020 12f7 06       		.byte	0x6
 4021 12f8 2B       		.uleb128 0x2b
 4022 12f9 01       		.byte	0x1
 4023 12fa 01       		.byte	0x1
 4024 12fb 18030000 		.4byte	.LASF211
 4025 12ff 18030000 		.4byte	.LASF211
 4026 1303 0B       		.byte	0xb
 4027 1304 6101     		.2byte	0x161
 4028 1306 09       		.byte	0x9
 4029 1307 00       		.byte	0
 4030              		.section	.debug_abbrev,"",%progbits
 4031              	.Ldebug_abbrev0:
 4032 0000 01       		.uleb128 0x1
 4033 0001 11       		.uleb128 0x11
 4034 0002 01       		.byte	0x1
 4035 0003 25       		.uleb128 0x25
 4036 0004 0E       		.uleb128 0xe
 4037 0005 13       		.uleb128 0x13
 4038 0006 0B       		.uleb128 0xb
 4039 0007 03       		.uleb128 0x3
 4040 0008 0E       		.uleb128 0xe
 4041 0009 1B       		.uleb128 0x1b
 4042 000a 0E       		.uleb128 0xe
 4043 000b 55       		.uleb128 0x55
 4044 000c 06       		.uleb128 0x6
 4045 000d 11       		.uleb128 0x11
 4046 000e 01       		.uleb128 0x1
 4047 000f 52       		.uleb128 0x52
 4048 0010 01       		.uleb128 0x1
 4049 0011 10       		.uleb128 0x10
 4050 0012 06       		.uleb128 0x6
 4051 0013 00       		.byte	0
 4052 0014 00       		.byte	0
 4053 0015 02       		.uleb128 0x2
ARM GAS  /tmp/ccgcInBj.s 			page 80


 4054 0016 24       		.uleb128 0x24
 4055 0017 00       		.byte	0
 4056 0018 0B       		.uleb128 0xb
 4057 0019 0B       		.uleb128 0xb
 4058 001a 3E       		.uleb128 0x3e
 4059 001b 0B       		.uleb128 0xb
 4060 001c 03       		.uleb128 0x3
 4061 001d 08       		.uleb128 0x8
 4062 001e 00       		.byte	0
 4063 001f 00       		.byte	0
 4064 0020 03       		.uleb128 0x3
 4065 0021 24       		.uleb128 0x24
 4066 0022 00       		.byte	0
 4067 0023 0B       		.uleb128 0xb
 4068 0024 0B       		.uleb128 0xb
 4069 0025 3E       		.uleb128 0x3e
 4070 0026 0B       		.uleb128 0xb
 4071 0027 03       		.uleb128 0x3
 4072 0028 0E       		.uleb128 0xe
 4073 0029 00       		.byte	0
 4074 002a 00       		.byte	0
 4075 002b 04       		.uleb128 0x4
 4076 002c 16       		.uleb128 0x16
 4077 002d 00       		.byte	0
 4078 002e 03       		.uleb128 0x3
 4079 002f 0E       		.uleb128 0xe
 4080 0030 3A       		.uleb128 0x3a
 4081 0031 0B       		.uleb128 0xb
 4082 0032 3B       		.uleb128 0x3b
 4083 0033 0B       		.uleb128 0xb
 4084 0034 39       		.uleb128 0x39
 4085 0035 0B       		.uleb128 0xb
 4086 0036 49       		.uleb128 0x49
 4087 0037 13       		.uleb128 0x13
 4088 0038 00       		.byte	0
 4089 0039 00       		.byte	0
 4090 003a 05       		.uleb128 0x5
 4091 003b 35       		.uleb128 0x35
 4092 003c 00       		.byte	0
 4093 003d 49       		.uleb128 0x49
 4094 003e 13       		.uleb128 0x13
 4095 003f 00       		.byte	0
 4096 0040 00       		.byte	0
 4097 0041 06       		.uleb128 0x6
 4098 0042 0F       		.uleb128 0xf
 4099 0043 00       		.byte	0
 4100 0044 0B       		.uleb128 0xb
 4101 0045 0B       		.uleb128 0xb
 4102 0046 00       		.byte	0
 4103 0047 00       		.byte	0
 4104 0048 07       		.uleb128 0x7
 4105 0049 0F       		.uleb128 0xf
 4106 004a 00       		.byte	0
 4107 004b 0B       		.uleb128 0xb
 4108 004c 0B       		.uleb128 0xb
 4109 004d 49       		.uleb128 0x49
 4110 004e 13       		.uleb128 0x13
ARM GAS  /tmp/ccgcInBj.s 			page 81


 4111 004f 00       		.byte	0
 4112 0050 00       		.byte	0
 4113 0051 08       		.uleb128 0x8
 4114 0052 13       		.uleb128 0x13
 4115 0053 00       		.byte	0
 4116 0054 03       		.uleb128 0x3
 4117 0055 0E       		.uleb128 0xe
 4118 0056 3C       		.uleb128 0x3c
 4119 0057 0C       		.uleb128 0xc
 4120 0058 00       		.byte	0
 4121 0059 00       		.byte	0
 4122 005a 09       		.uleb128 0x9
 4123 005b 01       		.uleb128 0x1
 4124 005c 01       		.byte	0x1
 4125 005d 49       		.uleb128 0x49
 4126 005e 13       		.uleb128 0x13
 4127 005f 01       		.uleb128 0x1
 4128 0060 13       		.uleb128 0x13
 4129 0061 00       		.byte	0
 4130 0062 00       		.byte	0
 4131 0063 0A       		.uleb128 0xa
 4132 0064 21       		.uleb128 0x21
 4133 0065 00       		.byte	0
 4134 0066 49       		.uleb128 0x49
 4135 0067 13       		.uleb128 0x13
 4136 0068 2F       		.uleb128 0x2f
 4137 0069 0B       		.uleb128 0xb
 4138 006a 00       		.byte	0
 4139 006b 00       		.byte	0
 4140 006c 0B       		.uleb128 0xb
 4141 006d 04       		.uleb128 0x4
 4142 006e 01       		.byte	0x1
 4143 006f 03       		.uleb128 0x3
 4144 0070 0E       		.uleb128 0xe
 4145 0071 3E       		.uleb128 0x3e
 4146 0072 0B       		.uleb128 0xb
 4147 0073 0B       		.uleb128 0xb
 4148 0074 0B       		.uleb128 0xb
 4149 0075 49       		.uleb128 0x49
 4150 0076 13       		.uleb128 0x13
 4151 0077 3A       		.uleb128 0x3a
 4152 0078 0B       		.uleb128 0xb
 4153 0079 3B       		.uleb128 0x3b
 4154 007a 0B       		.uleb128 0xb
 4155 007b 39       		.uleb128 0x39
 4156 007c 0B       		.uleb128 0xb
 4157 007d 01       		.uleb128 0x1
 4158 007e 13       		.uleb128 0x13
 4159 007f 00       		.byte	0
 4160 0080 00       		.byte	0
 4161 0081 0C       		.uleb128 0xc
 4162 0082 28       		.uleb128 0x28
 4163 0083 00       		.byte	0
 4164 0084 03       		.uleb128 0x3
 4165 0085 0E       		.uleb128 0xe
 4166 0086 1C       		.uleb128 0x1c
 4167 0087 0D       		.uleb128 0xd
ARM GAS  /tmp/ccgcInBj.s 			page 82


 4168 0088 00       		.byte	0
 4169 0089 00       		.byte	0
 4170 008a 0D       		.uleb128 0xd
 4171 008b 28       		.uleb128 0x28
 4172 008c 00       		.byte	0
 4173 008d 03       		.uleb128 0x3
 4174 008e 0E       		.uleb128 0xe
 4175 008f 1C       		.uleb128 0x1c
 4176 0090 0B       		.uleb128 0xb
 4177 0091 00       		.byte	0
 4178 0092 00       		.byte	0
 4179 0093 0E       		.uleb128 0xe
 4180 0094 16       		.uleb128 0x16
 4181 0095 00       		.byte	0
 4182 0096 03       		.uleb128 0x3
 4183 0097 0E       		.uleb128 0xe
 4184 0098 3A       		.uleb128 0x3a
 4185 0099 0B       		.uleb128 0xb
 4186 009a 3B       		.uleb128 0x3b
 4187 009b 05       		.uleb128 0x5
 4188 009c 39       		.uleb128 0x39
 4189 009d 0B       		.uleb128 0xb
 4190 009e 49       		.uleb128 0x49
 4191 009f 13       		.uleb128 0x13
 4192 00a0 00       		.byte	0
 4193 00a1 00       		.byte	0
 4194 00a2 0F       		.uleb128 0xf
 4195 00a3 13       		.uleb128 0x13
 4196 00a4 01       		.byte	0x1
 4197 00a5 0B       		.uleb128 0xb
 4198 00a6 05       		.uleb128 0x5
 4199 00a7 3A       		.uleb128 0x3a
 4200 00a8 0B       		.uleb128 0xb
 4201 00a9 3B       		.uleb128 0x3b
 4202 00aa 0B       		.uleb128 0xb
 4203 00ab 39       		.uleb128 0x39
 4204 00ac 0B       		.uleb128 0xb
 4205 00ad 01       		.uleb128 0x1
 4206 00ae 13       		.uleb128 0x13
 4207 00af 00       		.byte	0
 4208 00b0 00       		.byte	0
 4209 00b1 10       		.uleb128 0x10
 4210 00b2 0D       		.uleb128 0xd
 4211 00b3 00       		.byte	0
 4212 00b4 03       		.uleb128 0x3
 4213 00b5 0E       		.uleb128 0xe
 4214 00b6 3A       		.uleb128 0x3a
 4215 00b7 0B       		.uleb128 0xb
 4216 00b8 3B       		.uleb128 0x3b
 4217 00b9 0B       		.uleb128 0xb
 4218 00ba 39       		.uleb128 0x39
 4219 00bb 0B       		.uleb128 0xb
 4220 00bc 49       		.uleb128 0x49
 4221 00bd 13       		.uleb128 0x13
 4222 00be 38       		.uleb128 0x38
 4223 00bf 0A       		.uleb128 0xa
 4224 00c0 00       		.byte	0
ARM GAS  /tmp/ccgcInBj.s 			page 83


 4225 00c1 00       		.byte	0
 4226 00c2 11       		.uleb128 0x11
 4227 00c3 0D       		.uleb128 0xd
 4228 00c4 00       		.byte	0
 4229 00c5 03       		.uleb128 0x3
 4230 00c6 08       		.uleb128 0x8
 4231 00c7 3A       		.uleb128 0x3a
 4232 00c8 0B       		.uleb128 0xb
 4233 00c9 3B       		.uleb128 0x3b
 4234 00ca 0B       		.uleb128 0xb
 4235 00cb 39       		.uleb128 0x39
 4236 00cc 0B       		.uleb128 0xb
 4237 00cd 49       		.uleb128 0x49
 4238 00ce 13       		.uleb128 0x13
 4239 00cf 38       		.uleb128 0x38
 4240 00d0 0A       		.uleb128 0xa
 4241 00d1 00       		.byte	0
 4242 00d2 00       		.byte	0
 4243 00d3 12       		.uleb128 0x12
 4244 00d4 21       		.uleb128 0x21
 4245 00d5 00       		.byte	0
 4246 00d6 49       		.uleb128 0x49
 4247 00d7 13       		.uleb128 0x13
 4248 00d8 2F       		.uleb128 0x2f
 4249 00d9 05       		.uleb128 0x5
 4250 00da 00       		.byte	0
 4251 00db 00       		.byte	0
 4252 00dc 13       		.uleb128 0x13
 4253 00dd 16       		.uleb128 0x16
 4254 00de 00       		.byte	0
 4255 00df 03       		.uleb128 0x3
 4256 00e0 08       		.uleb128 0x8
 4257 00e1 3A       		.uleb128 0x3a
 4258 00e2 0B       		.uleb128 0xb
 4259 00e3 3B       		.uleb128 0x3b
 4260 00e4 05       		.uleb128 0x5
 4261 00e5 39       		.uleb128 0x39
 4262 00e6 0B       		.uleb128 0xb
 4263 00e7 49       		.uleb128 0x49
 4264 00e8 13       		.uleb128 0x13
 4265 00e9 00       		.byte	0
 4266 00ea 00       		.byte	0
 4267 00eb 14       		.uleb128 0x14
 4268 00ec 04       		.uleb128 0x4
 4269 00ed 01       		.byte	0x1
 4270 00ee 3E       		.uleb128 0x3e
 4271 00ef 0B       		.uleb128 0xb
 4272 00f0 0B       		.uleb128 0xb
 4273 00f1 0B       		.uleb128 0xb
 4274 00f2 49       		.uleb128 0x49
 4275 00f3 13       		.uleb128 0x13
 4276 00f4 3A       		.uleb128 0x3a
 4277 00f5 0B       		.uleb128 0xb
 4278 00f6 3B       		.uleb128 0x3b
 4279 00f7 05       		.uleb128 0x5
 4280 00f8 39       		.uleb128 0x39
 4281 00f9 0B       		.uleb128 0xb
ARM GAS  /tmp/ccgcInBj.s 			page 84


 4282 00fa 01       		.uleb128 0x1
 4283 00fb 13       		.uleb128 0x13
 4284 00fc 00       		.byte	0
 4285 00fd 00       		.byte	0
 4286 00fe 15       		.uleb128 0x15
 4287 00ff 28       		.uleb128 0x28
 4288 0100 00       		.byte	0
 4289 0101 03       		.uleb128 0x3
 4290 0102 08       		.uleb128 0x8
 4291 0103 1C       		.uleb128 0x1c
 4292 0104 0B       		.uleb128 0xb
 4293 0105 00       		.byte	0
 4294 0106 00       		.byte	0
 4295 0107 16       		.uleb128 0x16
 4296 0108 13       		.uleb128 0x13
 4297 0109 01       		.byte	0x1
 4298 010a 0B       		.uleb128 0xb
 4299 010b 0B       		.uleb128 0xb
 4300 010c 3A       		.uleb128 0x3a
 4301 010d 0B       		.uleb128 0xb
 4302 010e 3B       		.uleb128 0x3b
 4303 010f 05       		.uleb128 0x5
 4304 0110 39       		.uleb128 0x39
 4305 0111 0B       		.uleb128 0xb
 4306 0112 01       		.uleb128 0x1
 4307 0113 13       		.uleb128 0x13
 4308 0114 00       		.byte	0
 4309 0115 00       		.byte	0
 4310 0116 17       		.uleb128 0x17
 4311 0117 0D       		.uleb128 0xd
 4312 0118 00       		.byte	0
 4313 0119 03       		.uleb128 0x3
 4314 011a 08       		.uleb128 0x8
 4315 011b 3A       		.uleb128 0x3a
 4316 011c 0B       		.uleb128 0xb
 4317 011d 3B       		.uleb128 0x3b
 4318 011e 05       		.uleb128 0x5
 4319 011f 39       		.uleb128 0x39
 4320 0120 0B       		.uleb128 0xb
 4321 0121 49       		.uleb128 0x49
 4322 0122 13       		.uleb128 0x13
 4323 0123 38       		.uleb128 0x38
 4324 0124 0A       		.uleb128 0xa
 4325 0125 00       		.byte	0
 4326 0126 00       		.byte	0
 4327 0127 18       		.uleb128 0x18
 4328 0128 0D       		.uleb128 0xd
 4329 0129 00       		.byte	0
 4330 012a 03       		.uleb128 0x3
 4331 012b 0E       		.uleb128 0xe
 4332 012c 3A       		.uleb128 0x3a
 4333 012d 0B       		.uleb128 0xb
 4334 012e 3B       		.uleb128 0x3b
 4335 012f 05       		.uleb128 0x5
 4336 0130 39       		.uleb128 0x39
 4337 0131 0B       		.uleb128 0xb
 4338 0132 49       		.uleb128 0x49
ARM GAS  /tmp/ccgcInBj.s 			page 85


 4339 0133 13       		.uleb128 0x13
 4340 0134 38       		.uleb128 0x38
 4341 0135 0A       		.uleb128 0xa
 4342 0136 00       		.byte	0
 4343 0137 00       		.byte	0
 4344 0138 19       		.uleb128 0x19
 4345 0139 04       		.uleb128 0x4
 4346 013a 01       		.byte	0x1
 4347 013b 3E       		.uleb128 0x3e
 4348 013c 0B       		.uleb128 0xb
 4349 013d 0B       		.uleb128 0xb
 4350 013e 0B       		.uleb128 0xb
 4351 013f 49       		.uleb128 0x49
 4352 0140 13       		.uleb128 0x13
 4353 0141 3A       		.uleb128 0x3a
 4354 0142 0B       		.uleb128 0xb
 4355 0143 3B       		.uleb128 0x3b
 4356 0144 0B       		.uleb128 0xb
 4357 0145 39       		.uleb128 0x39
 4358 0146 0B       		.uleb128 0xb
 4359 0147 01       		.uleb128 0x1
 4360 0148 13       		.uleb128 0x13
 4361 0149 00       		.byte	0
 4362 014a 00       		.byte	0
 4363 014b 1A       		.uleb128 0x1a
 4364 014c 13       		.uleb128 0x13
 4365 014d 01       		.byte	0x1
 4366 014e 0B       		.uleb128 0xb
 4367 014f 0B       		.uleb128 0xb
 4368 0150 3A       		.uleb128 0x3a
 4369 0151 0B       		.uleb128 0xb
 4370 0152 3B       		.uleb128 0x3b
 4371 0153 0B       		.uleb128 0xb
 4372 0154 39       		.uleb128 0x39
 4373 0155 0B       		.uleb128 0xb
 4374 0156 01       		.uleb128 0x1
 4375 0157 13       		.uleb128 0x13
 4376 0158 00       		.byte	0
 4377 0159 00       		.byte	0
 4378 015a 1B       		.uleb128 0x1b
 4379 015b 34       		.uleb128 0x34
 4380 015c 00       		.byte	0
 4381 015d 03       		.uleb128 0x3
 4382 015e 0E       		.uleb128 0xe
 4383 015f 3A       		.uleb128 0x3a
 4384 0160 0B       		.uleb128 0xb
 4385 0161 3B       		.uleb128 0x3b
 4386 0162 0B       		.uleb128 0xb
 4387 0163 39       		.uleb128 0x39
 4388 0164 0B       		.uleb128 0xb
 4389 0165 49       		.uleb128 0x49
 4390 0166 13       		.uleb128 0x13
 4391 0167 00       		.byte	0
 4392 0168 00       		.byte	0
 4393 0169 1C       		.uleb128 0x1c
 4394 016a 2E       		.uleb128 0x2e
 4395 016b 01       		.byte	0x1
ARM GAS  /tmp/ccgcInBj.s 			page 86


 4396 016c 3F       		.uleb128 0x3f
 4397 016d 0C       		.uleb128 0xc
 4398 016e 03       		.uleb128 0x3
 4399 016f 0E       		.uleb128 0xe
 4400 0170 3A       		.uleb128 0x3a
 4401 0171 0B       		.uleb128 0xb
 4402 0172 3B       		.uleb128 0x3b
 4403 0173 0B       		.uleb128 0xb
 4404 0174 39       		.uleb128 0x39
 4405 0175 0B       		.uleb128 0xb
 4406 0176 27       		.uleb128 0x27
 4407 0177 0C       		.uleb128 0xc
 4408 0178 49       		.uleb128 0x49
 4409 0179 13       		.uleb128 0x13
 4410 017a 11       		.uleb128 0x11
 4411 017b 01       		.uleb128 0x1
 4412 017c 12       		.uleb128 0x12
 4413 017d 01       		.uleb128 0x1
 4414 017e 40       		.uleb128 0x40
 4415 017f 06       		.uleb128 0x6
 4416 0180 9742     		.uleb128 0x2117
 4417 0182 0C       		.uleb128 0xc
 4418 0183 01       		.uleb128 0x1
 4419 0184 13       		.uleb128 0x13
 4420 0185 00       		.byte	0
 4421 0186 00       		.byte	0
 4422 0187 1D       		.uleb128 0x1d
 4423 0188 898201   		.uleb128 0x4109
 4424 018b 01       		.byte	0x1
 4425 018c 11       		.uleb128 0x11
 4426 018d 01       		.uleb128 0x1
 4427 018e 31       		.uleb128 0x31
 4428 018f 13       		.uleb128 0x13
 4429 0190 01       		.uleb128 0x1
 4430 0191 13       		.uleb128 0x13
 4431 0192 00       		.byte	0
 4432 0193 00       		.byte	0
 4433 0194 1E       		.uleb128 0x1e
 4434 0195 8A8201   		.uleb128 0x410a
 4435 0198 00       		.byte	0
 4436 0199 02       		.uleb128 0x2
 4437 019a 0A       		.uleb128 0xa
 4438 019b 9142     		.uleb128 0x2111
 4439 019d 0A       		.uleb128 0xa
 4440 019e 00       		.byte	0
 4441 019f 00       		.byte	0
 4442 01a0 1F       		.uleb128 0x1f
 4443 01a1 898201   		.uleb128 0x4109
 4444 01a4 00       		.byte	0
 4445 01a5 11       		.uleb128 0x11
 4446 01a6 01       		.uleb128 0x1
 4447 01a7 31       		.uleb128 0x31
 4448 01a8 13       		.uleb128 0x13
 4449 01a9 00       		.byte	0
 4450 01aa 00       		.byte	0
 4451 01ab 20       		.uleb128 0x20
 4452 01ac 2E       		.uleb128 0x2e
ARM GAS  /tmp/ccgcInBj.s 			page 87


 4453 01ad 01       		.byte	0x1
 4454 01ae 03       		.uleb128 0x3
 4455 01af 0E       		.uleb128 0xe
 4456 01b0 3A       		.uleb128 0x3a
 4457 01b1 0B       		.uleb128 0xb
 4458 01b2 3B       		.uleb128 0x3b
 4459 01b3 0B       		.uleb128 0xb
 4460 01b4 39       		.uleb128 0x39
 4461 01b5 0B       		.uleb128 0xb
 4462 01b6 27       		.uleb128 0x27
 4463 01b7 0C       		.uleb128 0xc
 4464 01b8 11       		.uleb128 0x11
 4465 01b9 01       		.uleb128 0x1
 4466 01ba 12       		.uleb128 0x12
 4467 01bb 01       		.uleb128 0x1
 4468 01bc 40       		.uleb128 0x40
 4469 01bd 06       		.uleb128 0x6
 4470 01be 9742     		.uleb128 0x2117
 4471 01c0 0C       		.uleb128 0xc
 4472 01c1 01       		.uleb128 0x1
 4473 01c2 13       		.uleb128 0x13
 4474 01c3 00       		.byte	0
 4475 01c4 00       		.byte	0
 4476 01c5 21       		.uleb128 0x21
 4477 01c6 05       		.uleb128 0x5
 4478 01c7 00       		.byte	0
 4479 01c8 03       		.uleb128 0x3
 4480 01c9 0E       		.uleb128 0xe
 4481 01ca 3A       		.uleb128 0x3a
 4482 01cb 0B       		.uleb128 0xb
 4483 01cc 3B       		.uleb128 0x3b
 4484 01cd 0B       		.uleb128 0xb
 4485 01ce 39       		.uleb128 0x39
 4486 01cf 0B       		.uleb128 0xb
 4487 01d0 49       		.uleb128 0x49
 4488 01d1 13       		.uleb128 0x13
 4489 01d2 02       		.uleb128 0x2
 4490 01d3 06       		.uleb128 0x6
 4491 01d4 B742     		.uleb128 0x2137
 4492 01d6 06       		.uleb128 0x6
 4493 01d7 00       		.byte	0
 4494 01d8 00       		.byte	0
 4495 01d9 22       		.uleb128 0x22
 4496 01da 34       		.uleb128 0x34
 4497 01db 00       		.byte	0
 4498 01dc 03       		.uleb128 0x3
 4499 01dd 0E       		.uleb128 0xe
 4500 01de 3A       		.uleb128 0x3a
 4501 01df 0B       		.uleb128 0xb
 4502 01e0 3B       		.uleb128 0x3b
 4503 01e1 0B       		.uleb128 0xb
 4504 01e2 39       		.uleb128 0x39
 4505 01e3 0B       		.uleb128 0xb
 4506 01e4 49       		.uleb128 0x49
 4507 01e5 13       		.uleb128 0x13
 4508 01e6 02       		.uleb128 0x2
 4509 01e7 0A       		.uleb128 0xa
ARM GAS  /tmp/ccgcInBj.s 			page 88


 4510 01e8 00       		.byte	0
 4511 01e9 00       		.byte	0
 4512 01ea 23       		.uleb128 0x23
 4513 01eb 34       		.uleb128 0x34
 4514 01ec 00       		.byte	0
 4515 01ed 03       		.uleb128 0x3
 4516 01ee 0E       		.uleb128 0xe
 4517 01ef 3A       		.uleb128 0x3a
 4518 01f0 0B       		.uleb128 0xb
 4519 01f1 3B       		.uleb128 0x3b
 4520 01f2 0B       		.uleb128 0xb
 4521 01f3 39       		.uleb128 0x39
 4522 01f4 0B       		.uleb128 0xb
 4523 01f5 49       		.uleb128 0x49
 4524 01f6 13       		.uleb128 0x13
 4525 01f7 02       		.uleb128 0x2
 4526 01f8 06       		.uleb128 0x6
 4527 01f9 B742     		.uleb128 0x2137
 4528 01fb 06       		.uleb128 0x6
 4529 01fc 00       		.byte	0
 4530 01fd 00       		.byte	0
 4531 01fe 24       		.uleb128 0x24
 4532 01ff 898201   		.uleb128 0x4109
 4533 0202 01       		.byte	0x1
 4534 0203 11       		.uleb128 0x11
 4535 0204 01       		.uleb128 0x1
 4536 0205 31       		.uleb128 0x31
 4537 0206 13       		.uleb128 0x13
 4538 0207 00       		.byte	0
 4539 0208 00       		.byte	0
 4540 0209 25       		.uleb128 0x25
 4541 020a 2E       		.uleb128 0x2e
 4542 020b 01       		.byte	0x1
 4543 020c 3F       		.uleb128 0x3f
 4544 020d 0C       		.uleb128 0xc
 4545 020e 03       		.uleb128 0x3
 4546 020f 0E       		.uleb128 0xe
 4547 0210 3A       		.uleb128 0x3a
 4548 0211 0B       		.uleb128 0xb
 4549 0212 3B       		.uleb128 0x3b
 4550 0213 0B       		.uleb128 0xb
 4551 0214 39       		.uleb128 0x39
 4552 0215 0B       		.uleb128 0xb
 4553 0216 27       		.uleb128 0x27
 4554 0217 0C       		.uleb128 0xc
 4555 0218 11       		.uleb128 0x11
 4556 0219 01       		.uleb128 0x1
 4557 021a 12       		.uleb128 0x12
 4558 021b 01       		.uleb128 0x1
 4559 021c 40       		.uleb128 0x40
 4560 021d 06       		.uleb128 0x6
 4561 021e 9742     		.uleb128 0x2117
 4562 0220 0C       		.uleb128 0xc
 4563 0221 01       		.uleb128 0x1
 4564 0222 13       		.uleb128 0x13
 4565 0223 00       		.byte	0
 4566 0224 00       		.byte	0
ARM GAS  /tmp/ccgcInBj.s 			page 89


 4567 0225 26       		.uleb128 0x26
 4568 0226 34       		.uleb128 0x34
 4569 0227 00       		.byte	0
 4570 0228 03       		.uleb128 0x3
 4571 0229 08       		.uleb128 0x8
 4572 022a 3A       		.uleb128 0x3a
 4573 022b 0B       		.uleb128 0xb
 4574 022c 3B       		.uleb128 0x3b
 4575 022d 0B       		.uleb128 0xb
 4576 022e 39       		.uleb128 0x39
 4577 022f 0B       		.uleb128 0xb
 4578 0230 49       		.uleb128 0x49
 4579 0231 13       		.uleb128 0x13
 4580 0232 02       		.uleb128 0x2
 4581 0233 06       		.uleb128 0x6
 4582 0234 B742     		.uleb128 0x2137
 4583 0236 06       		.uleb128 0x6
 4584 0237 00       		.byte	0
 4585 0238 00       		.byte	0
 4586 0239 27       		.uleb128 0x27
 4587 023a 2E       		.uleb128 0x2e
 4588 023b 01       		.byte	0x1
 4589 023c 3F       		.uleb128 0x3f
 4590 023d 0C       		.uleb128 0xc
 4591 023e 03       		.uleb128 0x3
 4592 023f 0E       		.uleb128 0xe
 4593 0240 3A       		.uleb128 0x3a
 4594 0241 0B       		.uleb128 0xb
 4595 0242 3B       		.uleb128 0x3b
 4596 0243 0B       		.uleb128 0xb
 4597 0244 39       		.uleb128 0x39
 4598 0245 0B       		.uleb128 0xb
 4599 0246 27       		.uleb128 0x27
 4600 0247 0C       		.uleb128 0xc
 4601 0248 11       		.uleb128 0x11
 4602 0249 01       		.uleb128 0x1
 4603 024a 12       		.uleb128 0x12
 4604 024b 01       		.uleb128 0x1
 4605 024c 40       		.uleb128 0x40
 4606 024d 0A       		.uleb128 0xa
 4607 024e 9742     		.uleb128 0x2117
 4608 0250 0C       		.uleb128 0xc
 4609 0251 01       		.uleb128 0x1
 4610 0252 13       		.uleb128 0x13
 4611 0253 00       		.byte	0
 4612 0254 00       		.byte	0
 4613 0255 28       		.uleb128 0x28
 4614 0256 2E       		.uleb128 0x2e
 4615 0257 00       		.byte	0
 4616 0258 3F       		.uleb128 0x3f
 4617 0259 0C       		.uleb128 0xc
 4618 025a 03       		.uleb128 0x3
 4619 025b 0E       		.uleb128 0xe
 4620 025c 3A       		.uleb128 0x3a
 4621 025d 0B       		.uleb128 0xb
 4622 025e 3B       		.uleb128 0x3b
 4623 025f 0B       		.uleb128 0xb
ARM GAS  /tmp/ccgcInBj.s 			page 90


 4624 0260 39       		.uleb128 0x39
 4625 0261 0B       		.uleb128 0xb
 4626 0262 27       		.uleb128 0x27
 4627 0263 0C       		.uleb128 0xc
 4628 0264 11       		.uleb128 0x11
 4629 0265 01       		.uleb128 0x1
 4630 0266 12       		.uleb128 0x12
 4631 0267 01       		.uleb128 0x1
 4632 0268 40       		.uleb128 0x40
 4633 0269 0A       		.uleb128 0xa
 4634 026a 9742     		.uleb128 0x2117
 4635 026c 0C       		.uleb128 0xc
 4636 026d 00       		.byte	0
 4637 026e 00       		.byte	0
 4638 026f 29       		.uleb128 0x29
 4639 0270 05       		.uleb128 0x5
 4640 0271 00       		.byte	0
 4641 0272 03       		.uleb128 0x3
 4642 0273 08       		.uleb128 0x8
 4643 0274 3A       		.uleb128 0x3a
 4644 0275 0B       		.uleb128 0xb
 4645 0276 3B       		.uleb128 0x3b
 4646 0277 0B       		.uleb128 0xb
 4647 0278 39       		.uleb128 0x39
 4648 0279 0B       		.uleb128 0xb
 4649 027a 49       		.uleb128 0x49
 4650 027b 13       		.uleb128 0x13
 4651 027c 02       		.uleb128 0x2
 4652 027d 0A       		.uleb128 0xa
 4653 027e 00       		.byte	0
 4654 027f 00       		.byte	0
 4655 0280 2A       		.uleb128 0x2a
 4656 0281 2E       		.uleb128 0x2e
 4657 0282 00       		.byte	0
 4658 0283 3F       		.uleb128 0x3f
 4659 0284 0C       		.uleb128 0xc
 4660 0285 03       		.uleb128 0x3
 4661 0286 0E       		.uleb128 0xe
 4662 0287 3A       		.uleb128 0x3a
 4663 0288 0B       		.uleb128 0xb
 4664 0289 3B       		.uleb128 0x3b
 4665 028a 0B       		.uleb128 0xb
 4666 028b 39       		.uleb128 0x39
 4667 028c 0B       		.uleb128 0xb
 4668 028d 11       		.uleb128 0x11
 4669 028e 01       		.uleb128 0x1
 4670 028f 12       		.uleb128 0x12
 4671 0290 01       		.uleb128 0x1
 4672 0291 40       		.uleb128 0x40
 4673 0292 0A       		.uleb128 0xa
 4674 0293 9742     		.uleb128 0x2117
 4675 0295 0C       		.uleb128 0xc
 4676 0296 00       		.byte	0
 4677 0297 00       		.byte	0
 4678 0298 2B       		.uleb128 0x2b
 4679 0299 2E       		.uleb128 0x2e
 4680 029a 00       		.byte	0
ARM GAS  /tmp/ccgcInBj.s 			page 91


 4681 029b 3F       		.uleb128 0x3f
 4682 029c 0C       		.uleb128 0xc
 4683 029d 3C       		.uleb128 0x3c
 4684 029e 0C       		.uleb128 0xc
 4685 029f 8740     		.uleb128 0x2007
 4686 02a1 0E       		.uleb128 0xe
 4687 02a2 03       		.uleb128 0x3
 4688 02a3 0E       		.uleb128 0xe
 4689 02a4 3A       		.uleb128 0x3a
 4690 02a5 0B       		.uleb128 0xb
 4691 02a6 3B       		.uleb128 0x3b
 4692 02a7 05       		.uleb128 0x5
 4693 02a8 39       		.uleb128 0x39
 4694 02a9 0B       		.uleb128 0xb
 4695 02aa 00       		.byte	0
 4696 02ab 00       		.byte	0
 4697 02ac 2C       		.uleb128 0x2c
 4698 02ad 2E       		.uleb128 0x2e
 4699 02ae 00       		.byte	0
 4700 02af 3F       		.uleb128 0x3f
 4701 02b0 0C       		.uleb128 0xc
 4702 02b1 3C       		.uleb128 0x3c
 4703 02b2 0C       		.uleb128 0xc
 4704 02b3 8740     		.uleb128 0x2007
 4705 02b5 0E       		.uleb128 0xe
 4706 02b6 03       		.uleb128 0x3
 4707 02b7 0E       		.uleb128 0xe
 4708 02b8 3A       		.uleb128 0x3a
 4709 02b9 0B       		.uleb128 0xb
 4710 02ba 3B       		.uleb128 0x3b
 4711 02bb 0B       		.uleb128 0xb
 4712 02bc 39       		.uleb128 0x39
 4713 02bd 0B       		.uleb128 0xb
 4714 02be 00       		.byte	0
 4715 02bf 00       		.byte	0
 4716 02c0 00       		.byte	0
 4717              		.section	.debug_loc,"",%progbits
 4718              	.Ldebug_loc0:
 4719              	.LLST19:
 4720 0000 00000000 		.4byte	.LFB47
 4721 0004 06000000 		.4byte	.LCFI13
 4722 0008 0200     		.2byte	0x2
 4723 000a 7D       		.byte	0x7d
 4724 000b 00       		.sleb128 0
 4725 000c 06000000 		.4byte	.LCFI13
 4726 0010 64000000 		.4byte	.LFE47
 4727 0014 0200     		.2byte	0x2
 4728 0016 7D       		.byte	0x7d
 4729 0017 10       		.sleb128 16
 4730 0018 00000000 		.4byte	0
 4731 001c 00000000 		.4byte	0
 4732              	.LLST16:
 4733 0020 84030000 		.4byte	.LFB46
 4734 0024 86030000 		.4byte	.LCFI12
 4735 0028 0200     		.2byte	0x2
 4736 002a 7D       		.byte	0x7d
 4737 002b 00       		.sleb128 0
ARM GAS  /tmp/ccgcInBj.s 			page 92


 4738 002c 86030000 		.4byte	.LCFI12
 4739 0030 C8030000 		.4byte	.LFE46
 4740 0034 0200     		.2byte	0x2
 4741 0036 7D       		.byte	0x7d
 4742 0037 18       		.sleb128 24
 4743 0038 00000000 		.4byte	0
 4744 003c 00000000 		.4byte	0
 4745              	.LVUS17:
 4746 0040 00       		.uleb128 0
 4747 0041 00       		.uleb128 .LVU283
 4748 0042 00       		.uleb128 .LVU283
 4749 0043 00       		.uleb128 0
 4750              	.LLST17:
 4751 0044 84030000 		.4byte	.LVL42
 4752 0048 89030000 		.4byte	.LVL43-1
 4753 004c 0100     		.2byte	0x1
 4754 004e 50       		.byte	0x50
 4755 004f 89030000 		.4byte	.LVL43-1
 4756 0053 C8030000 		.4byte	.LFE46
 4757 0057 0400     		.2byte	0x4
 4758 0059 F3       		.byte	0xf3
 4759 005a 01       		.uleb128 0x1
 4760 005b 50       		.byte	0x50
 4761 005c 9F       		.byte	0x9f
 4762 005d 00000000 		.4byte	0
 4763 0061 00000000 		.4byte	0
 4764              	.LVUS18:
 4765 0065 00       		.uleb128 .LVU293
 4766 0066 00       		.uleb128 .LVU294
 4767 0067 00       		.uleb128 .LVU294
 4768 0068 00       		.uleb128 0
 4769              	.LLST18:
 4770 0069 A4030000 		.4byte	.LVL48
 4771 006d A6030000 		.4byte	.LVL49
 4772 0071 0100     		.2byte	0x1
 4773 0073 50       		.byte	0x50
 4774 0074 A6030000 		.4byte	.LVL49
 4775 0078 C8030000 		.4byte	.LFE46
 4776 007c 0100     		.2byte	0x1
 4777 007e 54       		.byte	0x54
 4778 007f 00000000 		.4byte	0
 4779 0083 00000000 		.4byte	0
 4780              	.LLST0:
 4781 0087 00000000 		.4byte	.LFB45
 4782 008b 04000000 		.4byte	.LCFI0
 4783 008f 0200     		.2byte	0x2
 4784 0091 7D       		.byte	0x7d
 4785 0092 00       		.sleb128 0
 4786 0093 04000000 		.4byte	.LCFI0
 4787 0097 30000000 		.4byte	.LFE45
 4788 009b 0200     		.2byte	0x2
 4789 009d 7D       		.byte	0x7d
 4790 009e 08       		.sleb128 8
 4791 009f 00000000 		.4byte	0
 4792 00a3 00000000 		.4byte	0
 4793              	.LVUS1:
 4794 00a7 00       		.uleb128 0
ARM GAS  /tmp/ccgcInBj.s 			page 93


 4795 00a8 00       		.uleb128 .LVU9
 4796 00a9 00       		.uleb128 .LVU9
 4797 00aa 00       		.uleb128 0
 4798              	.LLST1:
 4799 00ab 00000000 		.4byte	.LVL0
 4800 00af 16000000 		.4byte	.LVL1
 4801 00b3 0100     		.2byte	0x1
 4802 00b5 50       		.byte	0x50
 4803 00b6 16000000 		.4byte	.LVL1
 4804 00ba 30000000 		.4byte	.LFE45
 4805 00be 0400     		.2byte	0x4
 4806 00c0 F3       		.byte	0xf3
 4807 00c1 01       		.uleb128 0x1
 4808 00c2 50       		.byte	0x50
 4809 00c3 9F       		.byte	0x9f
 4810 00c4 00000000 		.4byte	0
 4811 00c8 00000000 		.4byte	0
 4812              	.LLST2:
 4813 00cc 30000000 		.4byte	.LFB44
 4814 00d0 34000000 		.4byte	.LCFI1
 4815 00d4 0200     		.2byte	0x2
 4816 00d6 7D       		.byte	0x7d
 4817 00d7 00       		.sleb128 0
 4818 00d8 34000000 		.4byte	.LCFI1
 4819 00dc CC000000 		.4byte	.LFE44
 4820 00e0 0200     		.2byte	0x2
 4821 00e2 7D       		.byte	0x7d
 4822 00e3 10       		.sleb128 16
 4823 00e4 00000000 		.4byte	0
 4824 00e8 00000000 		.4byte	0
 4825              	.LVUS3:
 4826 00ec 00       		.uleb128 0
 4827 00ed 00       		.uleb128 .LVU37
 4828 00ee 00       		.uleb128 .LVU37
 4829 00ef 00       		.uleb128 0
 4830              	.LLST3:
 4831 00f0 30000000 		.4byte	.LVL3
 4832 00f4 83000000 		.4byte	.LVL4-1
 4833 00f8 0100     		.2byte	0x1
 4834 00fa 50       		.byte	0x50
 4835 00fb 83000000 		.4byte	.LVL4-1
 4836 00ff CC000000 		.4byte	.LFE44
 4837 0103 0400     		.2byte	0x4
 4838 0105 F3       		.byte	0xf3
 4839 0106 01       		.uleb128 0x1
 4840 0107 50       		.byte	0x50
 4841 0108 9F       		.byte	0x9f
 4842 0109 00000000 		.4byte	0
 4843 010d 00000000 		.4byte	0
 4844              	.LVUS4:
 4845 0111 01       		.uleb128 .LVU40
 4846 0112 00       		.uleb128 .LVU44
 4847 0113 00       		.uleb128 .LVU46
 4848 0114 00       		.uleb128 0
 4849              	.LLST4:
 4850 0115 94000000 		.4byte	.LVL6
 4851 0119 96000000 		.4byte	.LVL7
ARM GAS  /tmp/ccgcInBj.s 			page 94


 4852 011d 0100     		.2byte	0x1
 4853 011f 54       		.byte	0x54
 4854 0120 9E000000 		.4byte	.LVL8
 4855 0124 CC000000 		.4byte	.LFE44
 4856 0128 0100     		.2byte	0x1
 4857 012a 54       		.byte	0x54
 4858 012b 00000000 		.4byte	0
 4859 012f 00000000 		.4byte	0
 4860              	.LLST14:
 4861 0133 5C030000 		.4byte	.LFB43
 4862 0137 5E030000 		.4byte	.LCFI11
 4863 013b 0200     		.2byte	0x2
 4864 013d 7D       		.byte	0x7d
 4865 013e 00       		.sleb128 0
 4866 013f 5E030000 		.4byte	.LCFI11
 4867 0143 84030000 		.4byte	.LFE43
 4868 0147 0200     		.2byte	0x2
 4869 0149 7D       		.byte	0x7d
 4870 014a 10       		.sleb128 16
 4871 014b 00000000 		.4byte	0
 4872 014f 00000000 		.4byte	0
 4873              	.LVUS15:
 4874 0153 00       		.uleb128 0
 4875 0154 00       		.uleb128 .LVU268
 4876 0155 00       		.uleb128 .LVU268
 4877 0156 00       		.uleb128 .LVU270
 4878 0157 00       		.uleb128 .LVU270
 4879 0158 01       		.uleb128 .LVU273
 4880 0159 01       		.uleb128 .LVU273
 4881 015a 00       		.uleb128 0
 4882              	.LLST15:
 4883 015b 5C030000 		.4byte	.LVL36
 4884 015f 62030000 		.4byte	.LVL37
 4885 0163 0100     		.2byte	0x1
 4886 0165 50       		.byte	0x50
 4887 0166 62030000 		.4byte	.LVL37
 4888 016a 66030000 		.4byte	.LVL38
 4889 016e 0300     		.2byte	0x3
 4890 0170 74       		.byte	0x74
 4891 0171 01       		.sleb128 1
 4892 0172 9F       		.byte	0x9f
 4893 0173 66030000 		.4byte	.LVL38
 4894 0177 6A030000 		.4byte	.LVL39
 4895 017b 0100     		.2byte	0x1
 4896 017d 54       		.byte	0x54
 4897 017e 6A030000 		.4byte	.LVL39
 4898 0182 84030000 		.4byte	.LFE43
 4899 0186 0300     		.2byte	0x3
 4900 0188 74       		.byte	0x74
 4901 0189 01       		.sleb128 1
 4902 018a 9F       		.byte	0x9f
 4903 018b 00000000 		.4byte	0
 4904 018f 00000000 		.4byte	0
 4905              	.LLST13:
 4906 0193 EC020000 		.4byte	.LFB42
 4907 0197 EE020000 		.4byte	.LCFI8
 4908 019b 0200     		.2byte	0x2
ARM GAS  /tmp/ccgcInBj.s 			page 95


 4909 019d 7D       		.byte	0x7d
 4910 019e 00       		.sleb128 0
 4911 019f EE020000 		.4byte	.LCFI8
 4912 01a3 F2020000 		.4byte	.LCFI9
 4913 01a7 0200     		.2byte	0x2
 4914 01a9 7D       		.byte	0x7d
 4915 01aa 08       		.sleb128 8
 4916 01ab F2020000 		.4byte	.LCFI9
 4917 01af 56030000 		.4byte	.LCFI10
 4918 01b3 0200     		.2byte	0x2
 4919 01b5 7D       		.byte	0x7d
 4920 01b6 20       		.sleb128 32
 4921 01b7 56030000 		.4byte	.LCFI10
 4922 01bb 5C030000 		.4byte	.LFE42
 4923 01bf 0200     		.2byte	0x2
 4924 01c1 7D       		.byte	0x7d
 4925 01c2 08       		.sleb128 8
 4926 01c3 00000000 		.4byte	0
 4927 01c7 00000000 		.4byte	0
 4928              	.LLST9:
 4929 01cb 84020000 		.4byte	.LFB41
 4930 01cf 86020000 		.4byte	.LCFI7
 4931 01d3 0200     		.2byte	0x2
 4932 01d5 7D       		.byte	0x7d
 4933 01d6 00       		.sleb128 0
 4934 01d7 86020000 		.4byte	.LCFI7
 4935 01db EC020000 		.4byte	.LFE41
 4936 01df 0200     		.2byte	0x2
 4937 01e1 7D       		.byte	0x7d
 4938 01e2 10       		.sleb128 16
 4939 01e3 00000000 		.4byte	0
 4940 01e7 00000000 		.4byte	0
 4941              	.LVUS10:
 4942 01eb 02       		.uleb128 .LVU189
 4943 01ec 00       		.uleb128 .LVU210
 4944 01ed 00       		.uleb128 .LVU210
 4945 01ee 00       		.uleb128 .LVU226
 4946 01ef 00       		.uleb128 .LVU226
 4947 01f0 00       		.uleb128 0
 4948              	.LLST10:
 4949 01f1 84020000 		.4byte	.LVL19
 4950 01f5 BC020000 		.4byte	.LVL23
 4951 01f9 0200     		.2byte	0x2
 4952 01fb 30       		.byte	0x30
 4953 01fc 9F       		.byte	0x9f
 4954 01fd BC020000 		.4byte	.LVL23
 4955 0201 E6020000 		.4byte	.LVL30
 4956 0205 0100     		.2byte	0x1
 4957 0207 55       		.byte	0x55
 4958 0208 E6020000 		.4byte	.LVL30
 4959 020c EC020000 		.4byte	.LFE41
 4960 0210 0100     		.2byte	0x1
 4961 0212 50       		.byte	0x50
 4962 0213 00000000 		.4byte	0
 4963 0217 00000000 		.4byte	0
 4964              	.LVUS11:
 4965 021b 03       		.uleb128 .LVU190
ARM GAS  /tmp/ccgcInBj.s 			page 96


 4966 021c 00       		.uleb128 .LVU210
 4967 021d 00       		.uleb128 .LVU210
 4968 021e 00       		.uleb128 .LVU220
 4969 021f 00       		.uleb128 .LVU220
 4970 0220 01       		.uleb128 .LVU222
 4971 0221 01       		.uleb128 .LVU222
 4972 0222 00       		.uleb128 .LVU226
 4973              	.LLST11:
 4974 0223 84020000 		.4byte	.LVL19
 4975 0227 BC020000 		.4byte	.LVL23
 4976 022b 0200     		.2byte	0x2
 4977 022d 30       		.byte	0x30
 4978 022e 9F       		.byte	0x9f
 4979 022f BC020000 		.4byte	.LVL23
 4980 0233 DA020000 		.4byte	.LVL28
 4981 0237 0100     		.2byte	0x1
 4982 0239 54       		.byte	0x54
 4983 023a DA020000 		.4byte	.LVL28
 4984 023e DE020000 		.4byte	.LVL29
 4985 0242 0300     		.2byte	0x3
 4986 0244 74       		.byte	0x74
 4987 0245 7F       		.sleb128 -1
 4988 0246 9F       		.byte	0x9f
 4989 0247 DE020000 		.4byte	.LVL29
 4990 024b E6020000 		.4byte	.LVL30
 4991 024f 0100     		.2byte	0x1
 4992 0251 54       		.byte	0x54
 4993 0252 00000000 		.4byte	0
 4994 0256 00000000 		.4byte	0
 4995              	.LVUS12:
 4996 025a 04       		.uleb128 .LVU191
 4997 025b 00       		.uleb128 .LVU210
 4998 025c 00       		.uleb128 .LVU213
 4999 025d 00       		.uleb128 .LVU219
 5000              	.LLST12:
 5001 025e 84020000 		.4byte	.LVL19
 5002 0262 BC020000 		.4byte	.LVL23
 5003 0266 0200     		.2byte	0x2
 5004 0268 30       		.byte	0x30
 5005 0269 9F       		.byte	0x9f
 5006 026a CC020000 		.4byte	.LVL25
 5007 026e D8020000 		.4byte	.LVL27
 5008 0272 0600     		.2byte	0x6
 5009 0274 70       		.byte	0x70
 5010 0275 00       		.sleb128 0
 5011 0276 08       		.byte	0x8
 5012 0277 FF       		.byte	0xff
 5013 0278 1A       		.byte	0x1a
 5014 0279 9F       		.byte	0x9f
 5015 027a 00000000 		.4byte	0
 5016 027e 00000000 		.4byte	0
 5017              	.LLST8:
 5018 0282 58020000 		.4byte	.LFB40
 5019 0286 5A020000 		.4byte	.LCFI5
 5020 028a 0200     		.2byte	0x2
 5021 028c 7D       		.byte	0x7d
 5022 028d 00       		.sleb128 0
ARM GAS  /tmp/ccgcInBj.s 			page 97


 5023 028e 5A020000 		.4byte	.LCFI5
 5024 0292 7C020000 		.4byte	.LCFI6
 5025 0296 0200     		.2byte	0x2
 5026 0298 7D       		.byte	0x7d
 5027 0299 10       		.sleb128 16
 5028 029a 7C020000 		.4byte	.LCFI6
 5029 029e 84020000 		.4byte	.LFE40
 5030 02a2 0200     		.2byte	0x2
 5031 02a4 7D       		.byte	0x7d
 5032 02a5 04       		.sleb128 4
 5033 02a6 00000000 		.4byte	0
 5034 02aa 00000000 		.4byte	0
 5035              	.LVUS7:
 5036 02ae 00       		.uleb128 0
 5037 02af 00       		.uleb128 .LVU171
 5038 02b0 00       		.uleb128 .LVU171
 5039 02b1 00       		.uleb128 0
 5040              	.LLST7:
 5041 02b2 3C020000 		.4byte	.LVL15
 5042 02b6 44020000 		.4byte	.LVL16
 5043 02ba 0100     		.2byte	0x1
 5044 02bc 50       		.byte	0x50
 5045 02bd 44020000 		.4byte	.LVL16
 5046 02c1 58020000 		.4byte	.LFE39
 5047 02c5 0400     		.2byte	0x4
 5048 02c7 F3       		.byte	0xf3
 5049 02c8 01       		.uleb128 0x1
 5050 02c9 50       		.byte	0x50
 5051 02ca 9F       		.byte	0x9f
 5052 02cb 00000000 		.4byte	0
 5053 02cf 00000000 		.4byte	0
 5054              	.LVUS6:
 5055 02d3 00       		.uleb128 0
 5056 02d4 00       		.uleb128 .LVU163
 5057 02d5 00       		.uleb128 .LVU163
 5058 02d6 00       		.uleb128 0
 5059              	.LLST6:
 5060 02d7 24020000 		.4byte	.LVL13
 5061 02db 2C020000 		.4byte	.LVL14
 5062 02df 0100     		.2byte	0x1
 5063 02e1 50       		.byte	0x50
 5064 02e2 2C020000 		.4byte	.LVL14
 5065 02e6 3C020000 		.4byte	.LFE38
 5066 02ea 0400     		.2byte	0x4
 5067 02ec F3       		.byte	0xf3
 5068 02ed 01       		.uleb128 0x1
 5069 02ee 50       		.byte	0x50
 5070 02ef 9F       		.byte	0x9f
 5071 02f0 00000000 		.4byte	0
 5072 02f4 00000000 		.4byte	0
 5073              	.LLST5:
 5074 02f8 CC010000 		.4byte	.LFB36
 5075 02fc CE010000 		.4byte	.LCFI2
 5076 0300 0200     		.2byte	0x2
 5077 0302 7D       		.byte	0x7d
 5078 0303 00       		.sleb128 0
 5079 0304 CE010000 		.4byte	.LCFI2
ARM GAS  /tmp/ccgcInBj.s 			page 98


 5080 0308 DA010000 		.4byte	.LCFI3
 5081 030c 0200     		.2byte	0x2
 5082 030e 7D       		.byte	0x7d
 5083 030f 08       		.sleb128 8
 5084 0310 DA010000 		.4byte	.LCFI3
 5085 0314 DC010000 		.4byte	.LCFI4
 5086 0318 0200     		.2byte	0x2
 5087 031a 7D       		.byte	0x7d
 5088 031b 00       		.sleb128 0
 5089 031c DC010000 		.4byte	.LCFI4
 5090 0320 FC010000 		.4byte	.LFE36
 5091 0324 0200     		.2byte	0x2
 5092 0326 7D       		.byte	0x7d
 5093 0327 08       		.sleb128 8
 5094 0328 00000000 		.4byte	0
 5095 032c 00000000 		.4byte	0
 5096              		.section	.debug_aranges,"",%progbits
 5097 0000 24000000 		.4byte	0x24
 5098 0004 0200     		.2byte	0x2
 5099 0006 00000000 		.4byte	.Ldebug_info0
 5100 000a 04       		.byte	0x4
 5101 000b 00       		.byte	0
 5102 000c 0000     		.2byte	0
 5103 000e 0000     		.2byte	0
 5104 0010 00000000 		.4byte	.Ltext0
 5105 0014 C8030000 		.4byte	.Letext0-.Ltext0
 5106 0018 00000000 		.4byte	.LFB47
 5107 001c 64000000 		.4byte	.LFE47-.LFB47
 5108 0020 00000000 		.4byte	0
 5109 0024 00000000 		.4byte	0
 5110              		.section	.debug_ranges,"",%progbits
 5111              	.Ldebug_ranges0:
 5112 0000 00000000 		.4byte	.Ltext0
 5113 0004 C8030000 		.4byte	.Letext0
 5114 0008 00000000 		.4byte	.LFB47
 5115 000c 64000000 		.4byte	.LFE47
 5116 0010 00000000 		.4byte	0
 5117 0014 00000000 		.4byte	0
 5118              		.section	.debug_line,"",%progbits
 5119              	.Ldebug_line0:
 5120 0000 C7070000 		.section	.debug_str,"MS",%progbits,1
 5120      03001F02 
 5120      00000201 
 5120      FB0E0D00 
 5120      01010101 
 5121              	.LASF179:
 5122 0000 70756342 		.ascii	"pucBuffer\000"
 5122      75666665 
 5122      7200
 5123              	.LASF77:
 5124 000a 49435052 		.ascii	"ICPR\000"
 5124      00
 5125              	.LASF119:
 5126 000f 5243435F 		.ascii	"RCC_TypeDef\000"
 5126      54797065 
 5126      44656600 
 5127              	.LASF108:
ARM GAS  /tmp/ccgcInBj.s 			page 99


 5128 001b 4C434B52 		.ascii	"LCKR\000"
 5128      00
 5129              	.LASF160:
 5130 0020 4750494F 		.ascii	"GPIO_Mode_AF_PP\000"
 5130      5F4D6F64 
 5130      655F4146 
 5130      5F505000 
 5131              	.LASF28:
 5132 0030 5056445F 		.ascii	"PVD_IRQn\000"
 5132      4952516E 
 5132      00
 5133              	.LASF122:
 5134 0039 44494552 		.ascii	"DIER\000"
 5134      00
 5135              	.LASF181:
 5136 003e 55534152 		.ascii	"USART_init\000"
 5136      545F696E 
 5136      697400
 5137              	.LASF48:
 5138 0049 43414E31 		.ascii	"CAN1_RX1_IRQn\000"
 5138      5F525831 
 5138      5F495251 
 5138      6E00
 5139              	.LASF216:
 5140 0057 4C43445F 		.ascii	"LCD_queue\000"
 5140      71756575 
 5140      6500
 5141              	.LASF207:
 5142 0061 5243435F 		.ascii	"RCC_APB2PeriphClockCmd\000"
 5142      41504232 
 5142      50657269 
 5142      7068436C 
 5142      6F636B43 
 5143              	.LASF6:
 5144 0078 5F5F7569 		.ascii	"__uint8_t\000"
 5144      6E74385F 
 5144      7400
 5145              	.LASF149:
 5146 0082 4750494F 		.ascii	"GPIO_Speed_10MHz\000"
 5146      5F537065 
 5146      65645F31 
 5146      304D487A 
 5146      00
 5147              	.LASF146:
 5148 0093 54494D5F 		.ascii	"TIM_TypeDef\000"
 5148      54797065 
 5148      44656600 
 5149              	.LASF85:
 5150 009f 44495341 		.ascii	"DISABLE\000"
 5150      424C4500 
 5151              	.LASF30:
 5152 00a7 5254435F 		.ascii	"RTC_IRQn\000"
 5152      4952516E 
 5152      00
 5153              	.LASF180:
 5154 00b0 55534152 		.ascii	"USARTSend\000"
 5154      5453656E 
ARM GAS  /tmp/ccgcInBj.s 			page 100


 5154      6400
 5155              	.LASF135:
 5156 00ba 43435232 		.ascii	"CCR2\000"
 5156      00
 5157              	.LASF202:
 5158 00bf 64697370 		.ascii	"disp_cmd\000"
 5158      5F636D64 
 5158      00
 5159              	.LASF163:
 5160 00c8 4750494F 		.ascii	"GPIO_Speed\000"
 5160      5F537065 
 5160      656400
 5161              	.LASF61:
 5162 00d3 49324332 		.ascii	"I2C2_ER_IRQn\000"
 5162      5F45525F 
 5162      4952516E 
 5162      00
 5163              	.LASF57:
 5164 00e0 54494D34 		.ascii	"TIM4_IRQn\000"
 5164      5F495251 
 5164      6E00
 5165              	.LASF18:
 5166 00ea 51756575 		.ascii	"QueueHandle_t\000"
 5166      6548616E 
 5166      646C655F 
 5166      7400
 5167              	.LASF35:
 5168 00f8 45585449 		.ascii	"EXTI2_IRQn\000"
 5168      325F4952 
 5168      516E00
 5169              	.LASF27:
 5170 0103 57574447 		.ascii	"WWDG_IRQn\000"
 5170      5F495251 
 5170      6E00
 5171              	.LASF75:
 5172 010d 49535052 		.ascii	"ISPR\000"
 5172      00
 5173              	.LASF199:
 5174 0112 69746F61 		.ascii	"itoa\000"
 5174      00
 5175              	.LASF96:
 5176 0117 4A535152 		.ascii	"JSQR\000"
 5176      00
 5177              	.LASF123:
 5178 011c 43434D52 		.ascii	"CCMR1\000"
 5178      3100
 5179              	.LASF125:
 5180 0122 43434D52 		.ascii	"CCMR2\000"
 5180      3200
 5181              	.LASF1:
 5182 0128 6C6F6E67 		.ascii	"long long int\000"
 5182      206C6F6E 
 5182      6720696E 
 5182      7400
 5183              	.LASF3:
 5184 0136 7369676E 		.ascii	"signed char\000"
 5184      65642063 
ARM GAS  /tmp/ccgcInBj.s 			page 101


 5184      68617200 
 5185              	.LASF206:
 5186 0142 55534152 		.ascii	"USART_GetFlagStatus\000"
 5186      545F4765 
 5186      74466C61 
 5186      67537461 
 5186      74757300 
 5187              	.LASF169:
 5188 0156 55534152 		.ascii	"USART_Parity\000"
 5188      545F5061 
 5188      72697479 
 5188      00
 5189              	.LASF33:
 5190 0163 45585449 		.ascii	"EXTI0_IRQn\000"
 5190      305F4952 
 5190      516E00
 5191              	.LASF147:
 5192 016e 47545052 		.ascii	"GTPR\000"
 5192      00
 5193              	.LASF203:
 5194 0173 64697370 		.ascii	"disp_text\000"
 5194      5F746578 
 5194      7400
 5195              	.LASF200:
 5196 017d 76546173 		.ascii	"vTaskDelay\000"
 5196      6B44656C 
 5196      617900
 5197              	.LASF12:
 5198 0188 6C6F6E67 		.ascii	"long long unsigned int\000"
 5198      206C6F6E 
 5198      6720756E 
 5198      7369676E 
 5198      65642069 
 5199              	.LASF130:
 5200 019f 52455345 		.ascii	"RESERVED10\000"
 5200      52564544 
 5200      313000
 5201              	.LASF131:
 5202 01aa 52455345 		.ascii	"RESERVED11\000"
 5202      52564544 
 5202      313100
 5203              	.LASF170:
 5204 01b5 55534152 		.ascii	"USART_Mode\000"
 5204      545F4D6F 
 5204      646500
 5205              	.LASF134:
 5206 01c0 52455345 		.ascii	"RESERVED13\000"
 5206      52564544 
 5206      313300
 5207              	.LASF136:
 5208 01cb 52455345 		.ascii	"RESERVED14\000"
 5208      52564544 
 5208      313400
 5209              	.LASF156:
 5210 01d6 4750494F 		.ascii	"GPIO_Mode_IPU\000"
 5210      5F4D6F64 
 5210      655F4950 
ARM GAS  /tmp/ccgcInBj.s 			page 102


 5210      5500
 5211              	.LASF140:
 5212 01e4 52455345 		.ascii	"RESERVED16\000"
 5212      52564544 
 5212      313600
 5213              	.LASF142:
 5214 01ef 52455345 		.ascii	"RESERVED17\000"
 5214      52564544 
 5214      313700
 5215              	.LASF166:
 5216 01fa 55534152 		.ascii	"USART_BaudRate\000"
 5216      545F4261 
 5216      75645261 
 5216      746500
 5217              	.LASF145:
 5218 0209 52455345 		.ascii	"RESERVED19\000"
 5218      52564544 
 5218      313900
 5219              	.LASF9:
 5220 0214 6C6F6E67 		.ascii	"long int\000"
 5220      20696E74 
 5220      00
 5221              	.LASF86:
 5222 021d 454E4142 		.ascii	"ENABLE\000"
 5222      4C4500
 5223              	.LASF111:
 5224 0224 41504232 		.ascii	"APB2RSTR\000"
 5224      52535452 
 5224      00
 5225              	.LASF213:
 5226 022d 2E2E2F36 		.ascii	"../6-infRed/main.c\000"
 5226      2D696E66 
 5226      5265642F 
 5226      6D61696E 
 5226      2E6300
 5227              	.LASF178:
 5228 0240 636F6E74 		.ascii	"cont\000"
 5228      00
 5229              	.LASF50:
 5230 0245 45585449 		.ascii	"EXTI9_5_IRQn\000"
 5230      395F355F 
 5230      4952516E 
 5230      00
 5231              	.LASF127:
 5232 0252 43434552 		.ascii	"CCER\000"
 5232      00
 5233              	.LASF16:
 5234 0257 5469636B 		.ascii	"TickType_t\000"
 5234      54797065 
 5234      5F7400
 5235              	.LASF154:
 5236 0262 4750494F 		.ascii	"GPIO_Mode_IN_FLOATING\000"
 5236      5F4D6F64 
 5236      655F494E 
 5236      5F464C4F 
 5236      4154494E 
 5237              	.LASF103:
ARM GAS  /tmp/ccgcInBj.s 			page 103


 5238 0278 4F50544B 		.ascii	"OPTKEYR\000"
 5238      45595200 
 5239              	.LASF14:
 5240 0280 75696E74 		.ascii	"uint16_t\000"
 5240      31365F74 
 5240      00
 5241              	.LASF101:
 5242 0289 4144435F 		.ascii	"ADC_TypeDef\000"
 5242      54797065 
 5242      44656600 
 5243              	.LASF36:
 5244 0295 45585449 		.ascii	"EXTI3_IRQn\000"
 5244      335F4952 
 5244      516E00
 5245              	.LASF45:
 5246 02a0 41444331 		.ascii	"ADC1_2_IRQn\000"
 5246      5F325F49 
 5246      52516E00 
 5247              	.LASF164:
 5248 02ac 4750494F 		.ascii	"GPIO_Mode\000"
 5248      5F4D6F64 
 5248      6500
 5249              	.LASF138:
 5250 02b6 52455345 		.ascii	"RESERVED15\000"
 5250      52564544 
 5250      313500
 5251              	.LASF171:
 5252 02c1 55534152 		.ascii	"USART_HardwareFlowControl\000"
 5252      545F4861 
 5252      72647761 
 5252      7265466C 
 5252      6F77436F 
 5253              	.LASF25:
 5254 02db 50656E64 		.ascii	"PendSV_IRQn\000"
 5254      53565F49 
 5254      52516E00 
 5255              	.LASF8:
 5256 02e7 73686F72 		.ascii	"short unsigned int\000"
 5256      7420756E 
 5256      7369676E 
 5256      65642069 
 5256      6E7400
 5257              	.LASF41:
 5258 02fa 444D4131 		.ascii	"DMA1_Channel4_IRQn\000"
 5258      5F436861 
 5258      6E6E656C 
 5258      345F4952 
 5258      516E00
 5259              	.LASF7:
 5260 030d 5F5F7569 		.ascii	"__uint16_t\000"
 5260      6E743136 
 5260      5F7400
 5261              	.LASF211:
 5262 0318 4750494F 		.ascii	"GPIO_ReadInputDataBit\000"
 5262      5F526561 
 5262      64496E70 
 5262      75744461 
ARM GAS  /tmp/ccgcInBj.s 			page 104


 5262      74614269 
 5263              	.LASF10:
 5264 032e 5F5F7569 		.ascii	"__uint32_t\000"
 5264      6E743332 
 5264      5F7400
 5265              	.LASF194:
 5266 0339 656E6162 		.ascii	"enable_TIM3_delay\000"
 5266      6C655F54 
 5266      494D335F 
 5266      64656C61 
 5266      7900
 5267              	.LASF168:
 5268 034b 55534152 		.ascii	"USART_StopBits\000"
 5268      545F5374 
 5268      6F704269 
 5268      747300
 5269              	.LASF198:
 5270 035a 76546173 		.ascii	"vTaskStartScheduler\000"
 5270      6B537461 
 5270      72745363 
 5270      68656475 
 5270      6C657200 
 5271              	.LASF177:
 5272 036e 636F6465 		.ascii	"code_ir\000"
 5272      5F697200 
 5273              	.LASF196:
 5274 0376 78517565 		.ascii	"xQueueGenericCreate\000"
 5274      75654765 
 5274      6E657269 
 5274      63437265 
 5274      61746500 
 5275              	.LASF189:
 5276 038a 49525F49 		.ascii	"IR_Init\000"
 5276      6E697400 
 5277              	.LASF152:
 5278 0392 4750494F 		.ascii	"GPIOSpeed_TypeDef\000"
 5278      53706565 
 5278      645F5479 
 5278      70654465 
 5278      6600
 5279              	.LASF162:
 5280 03a4 4750494F 		.ascii	"GPIO_Pin\000"
 5280      5F50696E 
 5280      00
 5281              	.LASF0:
 5282 03ad 756E7369 		.ascii	"unsigned int\000"
 5282      676E6564 
 5282      20696E74 
 5282      00
 5283              	.LASF155:
 5284 03ba 4750494F 		.ascii	"GPIO_Mode_IPD\000"
 5284      5F4D6F64 
 5284      655F4950 
 5284      4400
 5285              	.LASF20:
 5286 03c8 4D656D6F 		.ascii	"MemoryManagement_IRQn\000"
 5286      72794D61 
ARM GAS  /tmp/ccgcInBj.s 			page 105


 5286      6E616765 
 5286      6D656E74 
 5286      5F495251 
 5287              	.LASF11:
 5288 03de 6C6F6E67 		.ascii	"long unsigned int\000"
 5288      20756E73 
 5288      69676E65 
 5288      6420696E 
 5288      7400
 5289              	.LASF109:
 5290 03f0 4750494F 		.ascii	"GPIO_TypeDef\000"
 5290      5F547970 
 5290      65446566 
 5290      00
 5291              	.LASF176:
 5292 03fd 7461736B 		.ascii	"task1\000"
 5292      3100
 5293              	.LASF174:
 5294 0403 7461736B 		.ascii	"task2\000"
 5294      3200
 5295              	.LASF173:
 5296 0409 7461736B 		.ascii	"task3\000"
 5296      3300
 5297              	.LASF188:
 5298 040f 64617461 		.ascii	"data\000"
 5298      00
 5299              	.LASF159:
 5300 0414 4750494F 		.ascii	"GPIO_Mode_AF_OD\000"
 5300      5F4D6F64 
 5300      655F4146 
 5300      5F4F4400 
 5301              	.LASF42:
 5302 0424 444D4131 		.ascii	"DMA1_Channel5_IRQn\000"
 5302      5F436861 
 5302      6E6E656C 
 5302      355F4952 
 5302      516E00
 5303              	.LASF121:
 5304 0437 534D4352 		.ascii	"SMCR\000"
 5304      00
 5305              	.LASF53:
 5306 043c 54494D31 		.ascii	"TIM1_TRG_COM_IRQn\000"
 5306      5F545247 
 5306      5F434F4D 
 5306      5F495251 
 5306      6E00
 5307              	.LASF157:
 5308 044e 4750494F 		.ascii	"GPIO_Mode_Out_OD\000"
 5308      5F4D6F64 
 5308      655F4F75 
 5308      745F4F44 
 5308      00
 5309              	.LASF113:
 5310 045f 41484245 		.ascii	"AHBENR\000"
 5310      4E5200
 5311              	.LASF67:
 5312 0466 45585449 		.ascii	"EXTI15_10_IRQn\000"
ARM GAS  /tmp/ccgcInBj.s 			page 106


 5312      31355F31 
 5312      305F4952 
 5312      516E00
 5313              	.LASF212:
 5314 0475 474E5520 		.ascii	"GNU C17 10.3.1 20210824 (release) -mcpu=cortex-m3 -"
 5314      43313720 
 5314      31302E33 
 5314      2E312032 
 5314      30323130 
 5315 04a8 6D746875 		.ascii	"mthumb -mfloat-abi=soft -march=armv7-m -g -gdwarf-2"
 5315      6D62202D 
 5315      6D666C6F 
 5315      61742D61 
 5315      62693D73 
 5316 04db 202D4F73 		.ascii	" -Os -fomit-frame-pointer\000"
 5316      202D666F 
 5316      6D69742D 
 5316      6672616D 
 5316      652D706F 
 5317              	.LASF62:
 5318 04f5 53504931 		.ascii	"SPI1_IRQn\000"
 5318      5F495251 
 5318      6E00
 5319              	.LASF148:
 5320 04ff 55534152 		.ascii	"USART_TypeDef\000"
 5320      545F5479 
 5320      70654465 
 5320      6600
 5321              	.LASF24:
 5322 050d 44656275 		.ascii	"DebugMonitor_IRQn\000"
 5322      674D6F6E 
 5322      69746F72 
 5322      5F495251 
 5322      6E00
 5323              	.LASF5:
 5324 051f 73686F72 		.ascii	"short int\000"
 5324      7420696E 
 5324      7400
 5325              	.LASF73:
 5326 0529 49434552 		.ascii	"ICER\000"
 5326      00
 5327              	.LASF26:
 5328 052e 53797354 		.ascii	"SysTick_IRQn\000"
 5328      69636B5F 
 5328      4952516E 
 5328      00
 5329              	.LASF54:
 5330 053b 54494D31 		.ascii	"TIM1_CC_IRQn\000"
 5330      5F43435F 
 5330      4952516E 
 5330      00
 5331              	.LASF172:
 5332 0548 55534152 		.ascii	"USART_InitTypeDef\000"
 5332      545F496E 
 5332      69745479 
 5332      70654465 
 5332      6600
ARM GAS  /tmp/ccgcInBj.s 			page 107


 5333              	.LASF84:
 5334 055a 52455345 		.ascii	"RESET\000"
 5334      5400
 5335              	.LASF191:
 5336 0560 4952516E 		.ascii	"IRQn\000"
 5336      00
 5337              	.LASF209:
 5338 0565 55534152 		.ascii	"USART_Init\000"
 5338      545F496E 
 5338      697400
 5339              	.LASF90:
 5340 0570 4A4F4652 		.ascii	"JOFR2\000"
 5340      3200
 5341              	.LASF91:
 5342 0576 4A4F4652 		.ascii	"JOFR3\000"
 5342      3300
 5343              	.LASF92:
 5344 057c 4A4F4652 		.ascii	"JOFR4\000"
 5344      3400
 5345              	.LASF39:
 5346 0582 444D4131 		.ascii	"DMA1_Channel2_IRQn\000"
 5346      5F436861 
 5346      6E6E656C 
 5346      325F4952 
 5346      516E00
 5347              	.LASF208:
 5348 0595 4750494F 		.ascii	"GPIO_Init\000"
 5348      5F496E69 
 5348      7400
 5349              	.LASF23:
 5350 059f 53564361 		.ascii	"SVCall_IRQn\000"
 5350      6C6C5F49 
 5350      52516E00 
 5351              	.LASF60:
 5352 05ab 49324332 		.ascii	"I2C2_EV_IRQn\000"
 5352      5F45565F 
 5352      4952516E 
 5352      00
 5353              	.LASF197:
 5354 05b8 78546173 		.ascii	"xTaskCreate\000"
 5354      6B437265 
 5354      61746500 
 5355              	.LASF79:
 5356 05c4 49414252 		.ascii	"IABR\000"
 5356      00
 5357              	.LASF182:
 5358 05c9 776F7264 		.ascii	"word_IR\000"
 5358      5F495200 
 5359              	.LASF193:
 5360 05d1 44656C61 		.ascii	"Delay\000"
 5360      7900
 5361              	.LASF63:
 5362 05d7 53504932 		.ascii	"SPI2_IRQn\000"
 5362      5F495251 
 5362      6E00
 5363              	.LASF132:
 5364 05e1 52455345 		.ascii	"RESERVED12\000"
ARM GAS  /tmp/ccgcInBj.s 			page 108


 5364      52564544 
 5364      313200
 5365              	.LASF192:
 5366 05ec 656E6162 		.ascii	"enable_interrupt\000"
 5366      6C655F69 
 5366      6E746572 
 5366      72757074 
 5366      00
 5367              	.LASF183:
 5368 05fd 4750494F 		.ascii	"GPIO_InitStructure\000"
 5368      5F496E69 
 5368      74537472 
 5368      75637475 
 5368      726500
 5369              	.LASF165:
 5370 0610 4750494F 		.ascii	"GPIO_InitTypeDef\000"
 5370      5F496E69 
 5370      74547970 
 5370      65446566 
 5370      00
 5371              	.LASF87:
 5372 0621 534D5052 		.ascii	"SMPR1\000"
 5372      3100
 5373              	.LASF88:
 5374 0627 534D5052 		.ascii	"SMPR2\000"
 5374      3200
 5375              	.LASF158:
 5376 062d 4750494F 		.ascii	"GPIO_Mode_Out_PP\000"
 5376      5F4D6F64 
 5376      655F4F75 
 5376      745F5050 
 5376      00
 5377              	.LASF117:
 5378 063e 41484252 		.ascii	"AHBRSTR\000"
 5378      53545200 
 5379              	.LASF151:
 5380 0646 4750494F 		.ascii	"GPIO_Speed_50MHz\000"
 5380      5F537065 
 5380      65645F35 
 5380      304D487A 
 5380      00
 5381              	.LASF112:
 5382 0657 41504231 		.ascii	"APB1RSTR\000"
 5382      52535452 
 5382      00
 5383              	.LASF93:
 5384 0660 53515231 		.ascii	"SQR1\000"
 5384      00
 5385              	.LASF94:
 5386 0665 53515232 		.ascii	"SQR2\000"
 5386      00
 5387              	.LASF95:
 5388 066a 53515233 		.ascii	"SQR3\000"
 5388      00
 5389              	.LASF38:
 5390 066f 444D4131 		.ascii	"DMA1_Channel1_IRQn\000"
 5390      5F436861 
ARM GAS  /tmp/ccgcInBj.s 			page 109


 5390      6E6E656C 
 5390      315F4952 
 5390      516E00
 5391              	.LASF72:
 5392 0682 52455345 		.ascii	"RESERVED0\000"
 5392      52564544 
 5392      3000
 5393              	.LASF120:
 5394 068c 52455345 		.ascii	"RESERVED1\000"
 5394      52564544 
 5394      3100
 5395              	.LASF76:
 5396 0696 52455345 		.ascii	"RESERVED2\000"
 5396      52564544 
 5396      3200
 5397              	.LASF78:
 5398 06a0 52455345 		.ascii	"RESERVED3\000"
 5398      52564544 
 5398      3300
 5399              	.LASF80:
 5400 06aa 52455345 		.ascii	"RESERVED4\000"
 5400      52564544 
 5400      3400
 5401              	.LASF81:
 5402 06b4 52455345 		.ascii	"RESERVED5\000"
 5402      52564544 
 5402      3500
 5403              	.LASF124:
 5404 06be 52455345 		.ascii	"RESERVED6\000"
 5404      52564544 
 5404      3600
 5405              	.LASF128:
 5406 06c8 52455345 		.ascii	"RESERVED8\000"
 5406      52564544 
 5406      3800
 5407              	.LASF129:
 5408 06d2 52455345 		.ascii	"RESERVED9\000"
 5408      52564544 
 5408      3900
 5409              	.LASF215:
 5410 06dc 51756575 		.ascii	"QueueDefinition\000"
 5410      65446566 
 5410      696E6974 
 5410      696F6E00 
 5411              	.LASF195:
 5412 06ec 7365745F 		.ascii	"set_system_clock_to_72Mhz\000"
 5412      73797374 
 5412      656D5F63 
 5412      6C6F636B 
 5412      5F746F5F 
 5413              	.LASF184:
 5414 0706 55534152 		.ascii	"USART_InitStructure\000"
 5414      545F496E 
 5414      69745374 
 5414      72756374 
 5414      75726500 
 5415              	.LASF4:
ARM GAS  /tmp/ccgcInBj.s 			page 110


 5416 071a 756E7369 		.ascii	"unsigned char\000"
 5416      676E6564 
 5416      20636861 
 5416      7200
 5417              	.LASF46:
 5418 0728 5553425F 		.ascii	"USB_HP_CAN1_TX_IRQn\000"
 5418      48505F43 
 5418      414E315F 
 5418      54585F49 
 5418      52516E00 
 5419              	.LASF37:
 5420 073c 45585449 		.ascii	"EXTI4_IRQn\000"
 5420      345F4952 
 5420      516E00
 5421              	.LASF150:
 5422 0747 4750494F 		.ascii	"GPIO_Speed_2MHz\000"
 5422      5F537065 
 5422      65645F32 
 5422      4D487A00 
 5423              	.LASF71:
 5424 0757 49534552 		.ascii	"ISER\000"
 5424      00
 5425              	.LASF83:
 5426 075c 4E564943 		.ascii	"NVIC_Type\000"
 5426      5F547970 
 5426      6500
 5427              	.LASF141:
 5428 0766 42445452 		.ascii	"BDTR\000"
 5428      00
 5429              	.LASF104:
 5430 076b 52455345 		.ascii	"RESERVED\000"
 5430      52564544 
 5430      00
 5431              	.LASF47:
 5432 0774 5553425F 		.ascii	"USB_LP_CAN1_RX0_IRQn\000"
 5432      4C505F43 
 5432      414E315F 
 5432      5258305F 
 5432      4952516E 
 5433              	.LASF153:
 5434 0789 4750494F 		.ascii	"GPIO_Mode_AIN\000"
 5434      5F4D6F64 
 5434      655F4149 
 5434      4E00
 5435              	.LASF217:
 5436 0797 41444331 		.ascii	"ADC1_configure\000"
 5436      5F636F6E 
 5436      66696775 
 5436      726500
 5437              	.LASF114:
 5438 07a6 41504232 		.ascii	"APB2ENR\000"
 5438      454E5200 
 5439              	.LASF31:
 5440 07ae 464C4153 		.ascii	"FLASH_IRQn\000"
 5440      485F4952 
 5440      516E00
 5441              	.LASF190:
ARM GAS  /tmp/ccgcInBj.s 			page 111


 5442 07b9 64697361 		.ascii	"disable_interrupt\000"
 5442      626C655F 
 5442      696E7465 
 5442      72727570 
 5442      7400
 5443              	.LASF70:
 5444 07cb 4952516E 		.ascii	"IRQn_Type\000"
 5444      5F547970 
 5444      6500
 5445              	.LASF15:
 5446 07d5 75696E74 		.ascii	"uint32_t\000"
 5446      33325F74 
 5446      00
 5447              	.LASF126:
 5448 07de 52455345 		.ascii	"RESERVED7\000"
 5448      52564544 
 5448      3700
 5449              	.LASF65:
 5450 07e8 55534152 		.ascii	"USART2_IRQn\000"
 5450      54325F49 
 5450      52516E00 
 5451              	.LASF22:
 5452 07f4 55736167 		.ascii	"UsageFault_IRQn\000"
 5452      65466175 
 5452      6C745F49 
 5452      52516E00 
 5453              	.LASF58:
 5454 0804 49324331 		.ascii	"I2C1_EV_IRQn\000"
 5454      5F45565F 
 5454      4952516E 
 5454      00
 5455              	.LASF2:
 5456 0811 6C6F6E67 		.ascii	"long double\000"
 5456      20646F75 
 5456      626C6500 
 5457              	.LASF105:
 5458 081d 57525052 		.ascii	"WRPR\000"
 5458      00
 5459              	.LASF40:
 5460 0822 444D4131 		.ascii	"DMA1_Channel3_IRQn\000"
 5460      5F436861 
 5460      6E6E656C 
 5460      335F4952 
 5460      516E00
 5461              	.LASF17:
 5462 0835 63686172 		.ascii	"char\000"
 5462      00
 5463              	.LASF21:
 5464 083a 42757346 		.ascii	"BusFault_IRQn\000"
 5464      61756C74 
 5464      5F495251 
 5464      6E00
 5465              	.LASF51:
 5466 0848 54494D31 		.ascii	"TIM1_BRK_IRQn\000"
 5466      5F42524B 
 5466      5F495251 
 5466      6E00
ARM GAS  /tmp/ccgcInBj.s 			page 112


 5467              	.LASF144:
 5468 0856 444D4152 		.ascii	"DMAR\000"
 5468      00
 5469              	.LASF68:
 5470 085b 52544341 		.ascii	"RTCAlarm_IRQn\000"
 5470      6C61726D 
 5470      5F495251 
 5470      6E00
 5471              	.LASF210:
 5472 0869 55534152 		.ascii	"USART_Cmd\000"
 5472      545F436D 
 5472      6400
 5473              	.LASF167:
 5474 0873 55534152 		.ascii	"USART_WordLength\000"
 5474      545F576F 
 5474      72644C65 
 5474      6E677468 
 5474      00
 5475              	.LASF205:
 5476 0884 55534152 		.ascii	"USART_SendData\000"
 5476      545F5365 
 5476      6E644461 
 5476      746100
 5477              	.LASF204:
 5478 0893 64697370 		.ascii	"disp_number\000"
 5478      5F6E756D 
 5478      62657200 
 5479              	.LASF19:
 5480 089f 4E6F6E4D 		.ascii	"NonMaskableInt_IRQn\000"
 5480      61736B61 
 5480      626C6549 
 5480      6E745F49 
 5480      52516E00 
 5481              	.LASF43:
 5482 08b3 444D4131 		.ascii	"DMA1_Channel6_IRQn\000"
 5482      5F436861 
 5482      6E6E656C 
 5482      365F4952 
 5482      516E00
 5483              	.LASF115:
 5484 08c6 41504231 		.ascii	"APB1ENR\000"
 5484      454E5200 
 5485              	.LASF29:
 5486 08ce 54414D50 		.ascii	"TAMPER_IRQn\000"
 5486      45525F49 
 5486      52516E00 
 5487              	.LASF52:
 5488 08da 54494D31 		.ascii	"TIM1_UP_IRQn\000"
 5488      5F55505F 
 5488      4952516E 
 5488      00
 5489              	.LASF186:
 5490 08e7 49525F52 		.ascii	"IR_Read\000"
 5490      65616400 
 5491              	.LASF69:
 5492 08ef 55534257 		.ascii	"USBWakeUp_IRQn\000"
 5492      616B6555 
ARM GAS  /tmp/ccgcInBj.s 			page 113


 5492      705F4952 
 5492      516E00
 5493              	.LASF201:
 5494 08fe 64697370 		.ascii	"disp_init\000"
 5494      5F696E69 
 5494      7400
 5495              	.LASF66:
 5496 0908 55534152 		.ascii	"USART3_IRQn\000"
 5496      54335F49 
 5496      52516E00 
 5497              	.LASF187:
 5498 0914 636F6465 		.ascii	"code\000"
 5498      00
 5499              	.LASF133:
 5500 0919 43435231 		.ascii	"CCR1\000"
 5500      00
 5501              	.LASF55:
 5502 091e 54494D32 		.ascii	"TIM2_IRQn\000"
 5502      5F495251 
 5502      6E00
 5503              	.LASF137:
 5504 0928 43435233 		.ascii	"CCR3\000"
 5504      00
 5505              	.LASF139:
 5506 092d 43435234 		.ascii	"CCR4\000"
 5506      00
 5507              	.LASF107:
 5508 0932 42535252 		.ascii	"BSRR\000"
 5508      00
 5509              	.LASF64:
 5510 0937 55534152 		.ascii	"USART1_IRQn\000"
 5510      54315F49 
 5510      52516E00 
 5511              	.LASF143:
 5512 0943 52455345 		.ascii	"RESERVED18\000"
 5512      52564544 
 5512      313800
 5513              	.LASF116:
 5514 094e 42444352 		.ascii	"BDCR\000"
 5514      00
 5515              	.LASF89:
 5516 0953 4A4F4652 		.ascii	"JOFR1\000"
 5516      3100
 5517              	.LASF118:
 5518 0959 43464752 		.ascii	"CFGR2\000"
 5518      3200
 5519              	.LASF13:
 5520 095f 75696E74 		.ascii	"uint8_t\000"
 5520      385F7400 
 5521              	.LASF74:
 5522 0967 52534552 		.ascii	"RSERVED1\000"
 5522      56454431 
 5522      00
 5523              	.LASF82:
 5524 0970 53544952 		.ascii	"STIR\000"
 5524      00
 5525              	.LASF97:
ARM GAS  /tmp/ccgcInBj.s 			page 114


 5526 0975 4A445231 		.ascii	"JDR1\000"
 5526      00
 5527              	.LASF98:
 5528 097a 4A445232 		.ascii	"JDR2\000"
 5528      00
 5529              	.LASF99:
 5530 097f 4A445233 		.ascii	"JDR3\000"
 5530      00
 5531              	.LASF100:
 5532 0984 4A445234 		.ascii	"JDR4\000"
 5532      00
 5533              	.LASF44:
 5534 0989 444D4131 		.ascii	"DMA1_Channel7_IRQn\000"
 5534      5F436861 
 5534      6E6E656C 
 5534      375F4952 
 5534      516E00
 5535              	.LASF214:
 5536 099c 2F686F6D 		.ascii	"/home/junior/Codigos/6-Stm32_GCC_FreeRTOS10.2.1/6-i"
 5536      652F6A75 
 5536      6E696F72 
 5536      2F436F64 
 5536      69676F73 
 5537 09cf 6E665265 		.ascii	"nfRed\000"
 5537      6400
 5538              	.LASF110:
 5539 09d5 43464752 		.ascii	"CFGR\000"
 5539      00
 5540              	.LASF161:
 5541 09da 4750494F 		.ascii	"GPIOMode_TypeDef\000"
 5541      4D6F6465 
 5541      5F547970 
 5541      65446566 
 5541      00
 5542              	.LASF59:
 5543 09eb 49324331 		.ascii	"I2C1_ER_IRQn\000"
 5543      5F45525F 
 5543      4952516E 
 5543      00
 5544              	.LASF106:
 5545 09f8 464C4153 		.ascii	"FLASH_TypeDef\000"
 5545      485F5479 
 5545      70654465 
 5545      6600
 5546              	.LASF175:
 5547 0a06 61726773 		.ascii	"args\000"
 5547      00
 5548              	.LASF185:
 5549 0a0b 6D61696E 		.ascii	"main\000"
 5549      00
 5550              	.LASF102:
 5551 0a10 4B455952 		.ascii	"KEYR\000"
 5551      00
 5552              	.LASF49:
 5553 0a15 43414E31 		.ascii	"CAN1_SCE_IRQn\000"
 5553      5F534345 
 5553      5F495251 
ARM GAS  /tmp/ccgcInBj.s 			page 115


 5553      6E00
 5554              	.LASF32:
 5555 0a23 5243435F 		.ascii	"RCC_IRQn\000"
 5555      4952516E 
 5555      00
 5556              	.LASF56:
 5557 0a2c 54494D33 		.ascii	"TIM3_IRQn\000"
 5557      5F495251 
 5557      6E00
 5558              	.LASF34:
 5559 0a36 45585449 		.ascii	"EXTI1_IRQn\000"
 5559      315F4952 
 5559      516E00
 5560              		.ident	"GCC: (GNU Arm Embedded Toolchain 10.3-2021.10) 10.3.1 20210824 (release)"
ARM GAS  /tmp/ccgcInBj.s 			page 116


DEFINED SYMBOLS
                            *ABS*:0000000000000000 main.c
     /tmp/ccgcInBj.s:77     .text:0000000000000000 $t
     /tmp/ccgcInBj.s:82     .text:0000000000000000 task2
     /tmp/ccgcInBj.s:140    .text:0000000000000028 $d
     /tmp/ccgcInBj.s:151    .text:0000000000000030 $t
     /tmp/ccgcInBj.s:156    .text:0000000000000030 task1
     /tmp/ccgcInBj.s:279    .text:00000000000000b4 $d
     /tmp/ccgcInBj.s:288    .text:00000000000000cc $t
     /tmp/ccgcInBj.s:294    .text:00000000000000cc ADC1_configure
     /tmp/ccgcInBj.s:422    .text:000000000000014c $d
     /tmp/ccgcInBj.s:428    .text:0000000000000158 $t
     /tmp/ccgcInBj.s:434    .text:0000000000000158 set_system_clock_to_72Mhz
     /tmp/ccgcInBj.s:542    .text:00000000000001c8 $d
     /tmp/ccgcInBj.s:546    .text:00000000000001cc $t
     /tmp/ccgcInBj.s:552    .text:00000000000001cc Delay
     /tmp/ccgcInBj.s:623    .text:00000000000001f8 $d
     /tmp/ccgcInBj.s:627    .text:00000000000001fc $t
     /tmp/ccgcInBj.s:633    .text:00000000000001fc enable_TIM3_delay
     /tmp/ccgcInBj.s:671    .text:0000000000000220 $d
     /tmp/ccgcInBj.s:675    .text:0000000000000224 $t
     /tmp/ccgcInBj.s:681    .text:0000000000000224 enable_interrupt
     /tmp/ccgcInBj.s:713    .text:0000000000000238 $d
     /tmp/ccgcInBj.s:717    .text:000000000000023c $t
     /tmp/ccgcInBj.s:723    .text:000000000000023c disable_interrupt
     /tmp/ccgcInBj.s:756    .text:0000000000000254 $d
     /tmp/ccgcInBj.s:760    .text:0000000000000258 $t
     /tmp/ccgcInBj.s:766    .text:0000000000000258 IR_Init
     /tmp/ccgcInBj.s:816    .text:0000000000000280 $d
     /tmp/ccgcInBj.s:820    .text:0000000000000284 $t
     /tmp/ccgcInBj.s:826    .text:0000000000000284 IR_Read
     /tmp/ccgcInBj.s:955    .text:00000000000002e8 $d
     /tmp/ccgcInBj.s:959    .text:00000000000002ec $t
     /tmp/ccgcInBj.s:965    .text:00000000000002ec USART_init
     /tmp/ccgcInBj.s:1078   .text:0000000000000358 $d
     /tmp/ccgcInBj.s:1082   .text:000000000000035c $t
     /tmp/ccgcInBj.s:1088   .text:000000000000035c USARTSend
     /tmp/ccgcInBj.s:1147   .text:0000000000000380 $d
     /tmp/ccgcInBj.s:1159   .text:0000000000000384 $t
     /tmp/ccgcInBj.s:1164   .text:0000000000000384 task3
     /tmp/ccgcInBj.s:1234   .text:00000000000003bc $d
     /tmp/ccgcInBj.s:1248   .text.startup:0000000000000000 $t
     /tmp/ccgcInBj.s:1254   .text.startup:0000000000000000 main
     /tmp/ccgcInBj.s:1317   .text.startup:000000000000004c $d

UNDEFINED SYMBOLS
vTaskDelay
disp_init
disp_cmd
disp_text
disp_number
RCC_APB2PeriphClockCmd
GPIO_Init
GPIO_ReadInputDataBit
USART_Init
USART_Cmd
USART_SendData
ARM GAS  /tmp/ccgcInBj.s 			page 117


USART_GetFlagStatus
itoa
xQueueGenericCreate
xTaskCreate
vTaskStartScheduler
